###############################################################################
#                                                                             #
# IAR C/C++ Compiler V7.51A/W32 for 8051                29/Sep/2011  15:47:13 #
# Copyright 2004-2009 IAR Systems AB.                                         #
#                                                                             #
#    Core               =  plain                                              #
#    Code model         =  banked                                             #
#    Data model         =  large                                              #
#    Calling convention =  xdata reentrant                                    #
#    Constant location  =  data_rom                                           #
#    Dptr setup         =  1,16                                               #
#    Source file        =  C:\Texas Instruments\ZStack-CC2530-2.2.2-1.3.0\Com #
#                          ponents\stack\zdo\ZDObject.c                       #
#    Command line       =  -f "C:\Texas Instruments\ZStack-CC2530-2.2.2-1.3.0 #
#                          \Projects\zstack\Samples\LightCtlPrj\CC2530DB\..\. #
#                          .\..\Tools\CC2530DB\f8wEndev.cfg" (-DCPU32MHZ      #
#                          -DROOT=__near_func -DBLINK_LEDS) -f "C:\Texas      #
#                          Instruments\ZStack-CC2530-2.2.2-1.3.0\Projects\zst #
#                          ack\Samples\LightCtlPrj\CC2530DB\..\..\..\Tools\CC #
#                          2530DB\f8wConfig.cfg" (-DSECURE=0                  #
#                          -DZG_SECURE_DYNAMIC=0 -DREFLECTOR                  #
#                          -DDEFAULT_CHANLIST=0x00001000                      #
#                          -DZDAPP_CONFIG_PAN_ID=0x1212                       #
#                          -DNWK_START_DELAY=100 -DEXTENDED_JOINING_RANDOM_MA #
#                          SK=0x007F -DBEACON_REQUEST_DELAY=100               #
#                          -DBEACON_REQ_DELAY_MASK=0x00FF                     #
#                          -DROUTE_EXPIRY_TIME=30 -DAPSC_ACK_WAIT_DURATION_PO #
#                          LLED=3000 -DNWK_INDIRECT_MSG_TIMEOUT=7             #
#                          -DMAX_RREQ_ENTRIES=8 -DAPSC_MAX_FRAME_RETRIES=3    #
#                          -DNWK_MAX_DATA_RETRIES=2                           #
#                          -DMAX_POLL_FAILURE_RETRIES=2 -DMAX_BCAST=9         #
#                          -DAPS_MAX_GROUPS=16 -DMAX_RTG_ENTRIES=40           #
#                          -DNWK_MAX_BINDING_ENTRIES=4                        #
#                          -DMAX_BINDING_CLUSTER_IDS=4 "-DDEFAULT_KEY={0x01,  #
#                          0x03, 0x05, 0x07, 0x09, 0x0B, 0x0D, 0x0F, 0x00,    #
#                          0x02, 0x04, 0x06, 0x08, 0x0A, 0x0C, 0x0D}"         #
#                          -DMAC_MAX_FRAME_SIZE=116 "-DCONST=const __code"    #
#                          -DGENERIC=__generic -DRFD_RCVC_ALWAYS_ON=FALSE     #
#                          -DPOLL_RATE=1000 -DQUEUED_POLL_RATE=100            #
#                          -DRESPONSE_POLL_RATE=100) -DREJOIN_POLL_RATE=440   #
#                          "C:\Texas Instruments\ZStack-CC2530-2.2.2-1.3.0\Co #
#                          mponents\stack\zdo\ZDObject.c" -D NWK_AUTO_POLL    #
#                          -D ZTOOL_P1 -D MT_TASK -D MT_SYS_FUNC -D           #
#                          MT_ZDO_FUNC -D LCD_SUPPORTED=DEBUG -D              #
#                          HAL_UART=TRUE -D xPOWER_SAVING -lC "C:\Texas       #
#                          Instruments\ZStack-CC2530-2.2.2-1.3.0\Projects\zst #
#                          ack\Samples\LightCtlPrj\CC2530DB\EndDeviceEB\List\ #
#                          " -lA "C:\Texas Instruments\ZStack-CC2530-2.2.2-1. #
#                          3.0\Projects\zstack\Samples\LightCtlPrj\CC2530DB\E #
#                          ndDeviceEB\List\" --diag_suppress Pe001,Pa010 -o   #
#                          "C:\Texas Instruments\ZStack-CC2530-2.2.2-1.3.0\Pr #
#                          ojects\zstack\Samples\LightCtlPrj\CC2530DB\EndDevi #
#                          ceEB\Obj\" -e --require_prototypes --debug         #
#                          --core=plain --dptr=16,1 --data_model=large        #
#                          --code_model=banked --calling_convention=xdata_ree #
#                          ntrant --place_constants=data_rom                  #
#                          --nr_virtual_regs 8 -I "C:\Texas                   #
#                          Instruments\ZStack-CC2530-2.2.2-1.3.0\Projects\zst #
#                          ack\Samples\LightCtlPrj\CC2530DB\" -I "C:\Texas    #
#                          Instruments\ZStack-CC2530-2.2.2-1.3.0\Projects\zst #
#                          ack\Samples\LightCtlPrj\CC2530DB\..\SOURCE\" -I    #
#                          "C:\Texas Instruments\ZStack-CC2530-2.2.2-1.3.0\Pr #
#                          ojects\zstack\Samples\LightCtlPrj\CC2530DB\..\..\. #
#                          .\ZMAIN\TI2530DB\" -I "C:\Texas                    #
#                          Instruments\ZStack-CC2530-2.2.2-1.3.0\Projects\zst #
#                          ack\Samples\LightCtlPrj\CC2530DB\..\..\..\..\..\CO #
#                          MPONENTS\MT\" -I "C:\Texas                         #
#                          Instruments\ZStack-CC2530-2.2.2-1.3.0\Projects\zst #
#                          ack\Samples\LightCtlPrj\CC2530DB\..\..\..\..\..\CO #
#                          MPONENTS\HAL\INCLUDE\" -I "C:\Texas                #
#                          Instruments\ZStack-CC2530-2.2.2-1.3.0\Projects\zst #
#                          ack\Samples\LightCtlPrj\CC2530DB\..\..\..\..\..\CO #
#                          MPONENTS\HAL\TARGET\CC2530EB\" -I "C:\Texas        #
#                          Instruments\ZStack-CC2530-2.2.2-1.3.0\Projects\zst #
#                          ack\Samples\LightCtlPrj\CC2530DB\..\..\..\..\..\CO #
#                          MPONENTS\OSAL\MCU\CCSOC\" -I "C:\Texas             #
#                          Instruments\ZStack-CC2530-2.2.2-1.3.0\Projects\zst #
#                          ack\Samples\LightCtlPrj\CC2530DB\..\..\..\..\..\CO #
#                          MPONENTS\OSAL\INCLUDE\" -I "C:\Texas               #
#                          Instruments\ZStack-CC2530-2.2.2-1.3.0\Projects\zst #
#                          ack\Samples\LightCtlPrj\CC2530DB\..\..\..\..\..\CO #
#                          MPONENTS\STACK\AF\" -I "C:\Texas                   #
#                          Instruments\ZStack-CC2530-2.2.2-1.3.0\Projects\zst #
#                          ack\Samples\LightCtlPrj\CC2530DB\..\..\..\..\..\CO #
#                          MPONENTS\STACK\NWK\" -I "C:\Texas                  #
#                          Instruments\ZStack-CC2530-2.2.2-1.3.0\Projects\zst #
#                          ack\Samples\LightCtlPrj\CC2530DB\..\..\..\..\..\CO #
#                          MPONENTS\STACK\SEC\" -I "C:\Texas                  #
#                          Instruments\ZStack-CC2530-2.2.2-1.3.0\Projects\zst #
#                          ack\Samples\LightCtlPrj\CC2530DB\..\..\..\..\..\CO #
#                          MPONENTS\STACK\SAPI\" -I "C:\Texas                 #
#                          Instruments\ZStack-CC2530-2.2.2-1.3.0\Projects\zst #
#                          ack\Samples\LightCtlPrj\CC2530DB\..\..\..\..\..\CO #
#                          MPONENTS\STACK\SYS\" -I "C:\Texas                  #
#                          Instruments\ZStack-CC2530-2.2.2-1.3.0\Projects\zst #
#                          ack\Samples\LightCtlPrj\CC2530DB\..\..\..\..\..\CO #
#                          MPONENTS\STACK\ZDO\" -I "C:\Texas                  #
#                          Instruments\ZStack-CC2530-2.2.2-1.3.0\Projects\zst #
#                          ack\Samples\LightCtlPrj\CC2530DB\..\..\..\..\..\CO #
#                          MPONENTS\ZMAC\F8W\" -I "C:\Texas                   #
#                          Instruments\ZStack-CC2530-2.2.2-1.3.0\Projects\zst #
#                          ack\Samples\LightCtlPrj\CC2530DB\..\..\..\..\..\CO #
#                          MPONENTS\ZMAC\" -I "C:\Texas                       #
#                          Instruments\ZStack-CC2530-2.2.2-1.3.0\Projects\zst #
#                          ack\Samples\LightCtlPrj\CC2530DB\..\..\..\..\..\CO #
#                          MPONENTS\SERVICES\SADDR\" -I "C:\Texas             #
#                          Instruments\ZStack-CC2530-2.2.2-1.3.0\Projects\zst #
#                          ack\Samples\LightCtlPrj\CC2530DB\..\..\..\..\..\CO #
#                          MPONENTS\SERVICES\SDATA\" -I "C:\Texas             #
#                          Instruments\ZStack-CC2530-2.2.2-1.3.0\Projects\zst #
#                          ack\Samples\LightCtlPrj\CC2530DB\..\..\..\..\..\CO #
#                          MPONENTS\MAC\INCLUDE\" -I "C:\Texas                #
#                          Instruments\ZStack-CC2530-2.2.2-1.3.0\Projects\zst #
#                          ack\Samples\LightCtlPrj\CC2530DB\..\..\..\..\..\CO #
#                          MPONENTS\MAC\HIGH_LEVEL\" -I "C:\Texas             #
#                          Instruments\ZStack-CC2530-2.2.2-1.3.0\Projects\zst #
#                          ack\Samples\LightCtlPrj\CC2530DB\..\..\..\..\..\CO #
#                          MPONENTS\MAC\LOW_LEVEL\srf04\" -I "C:\Texas        #
#                          Instruments\ZStack-CC2530-2.2.2-1.3.0\Projects\zst #
#                          ack\Samples\LightCtlPrj\CC2530DB\..\..\..\..\..\CO #
#                          MPONENTS\MAC\LOW_LEVEL\srf04\SINGLE_CHIP\" -I      #
#                          "C:\Program Files\IAR Systems\Embedded Workbench   #
#                          5.3\8051\INC\" -I "C:\Program Files\IAR            #
#                          Systems\Embedded Workbench 5.3\8051\INC\CLIB\"     #
#                          -Ohz                                               #
#    List file          =  C:\Texas Instruments\ZStack-CC2530-2.2.2-1.3.0\Pro #
#                          jects\zstack\Samples\LightCtlPrj\CC2530DB\EndDevic #
#                          eEB\List\ZDObject.lst                              #
#    Object file        =  C:\Texas Instruments\ZStack-CC2530-2.2.2-1.3.0\Pro #
#                          jects\zstack\Samples\LightCtlPrj\CC2530DB\EndDevic #
#                          eEB\Obj\ZDObject.r51                               #
#                                                                             #
#                                                                             #
###############################################################################

C:\Texas Instruments\ZStack-CC2530-2.2.2-1.3.0\Components\stack\zdo\ZDObject.c
      1          /**************************************************************************************************
      2            Filename:       ZDObject.c
      3            Revised:        $Date: 2009-08-06 14:54:27 -0700 (Thu, 06 Aug 2009) $
      4            Revision:       $Revision: 20492 $
      5          
      6            Description:    This is the Zigbee Device Object.
      7          
      8          
      9            Copyright 2004-2009 Texas Instruments Incorporated. All rights reserved.
     10          
     11            IMPORTANT: Your use of this Software is limited to those specific rights
     12            granted under the terms of a software license agreement between the user
     13            who downloaded the software, his/her employer (which must be your employer)
     14            and Texas Instruments Incorporated (the "License").  You may not use this
     15            Software unless you agree to abide by the terms of the License. The License
     16            limits your use, and you acknowledge, that the Software may not be modified,
     17            copied or distributed unless embedded on a Texas Instruments microcontroller
     18            or used solely and exclusively in conjunction with a Texas Instruments radio
     19            frequency transceiver, which is integrated into your product.  Other than for
     20            the foregoing purpose, you may not use, reproduce, copy, prepare derivative
     21            works of, modify, distribute, perform, display or sell this Software and/or
     22            its documentation for any purpose.
     23          
     24            YOU FURTHER ACKNOWLEDGE AND AGREE THAT THE SOFTWARE AND DOCUMENTATION ARE
     25            PROVIDED “AS IS” WITHOUT WARRANTY OF ANY KIND, EITHER EXPRESS OR IMPLIED,
     26            INCLUDING WITHOUT LIMITATION, ANY WARRANTY OF MERCHANTABILITY, TITLE,
     27            NON-INFRINGEMENT AND FITNESS FOR A PARTICULAR PURPOSE. IN NO EVENT SHALL
     28            TEXAS INSTRUMENTS OR ITS LICENSORS BE LIABLE OR OBLIGATED UNDER CONTRACT,
     29            NEGLIGENCE, STRICT LIABILITY, CONTRIBUTION, BREACH OF WARRANTY, OR OTHER
     30            LEGAL EQUITABLE THEORY ANY DIRECT OR INDIRECT DAMAGES OR EXPENSES
     31            INCLUDING BUT NOT LIMITED TO ANY INCIDENTAL, SPECIAL, INDIRECT, PUNITIVE
     32            OR CONSEQUENTIAL DAMAGES, LOST PROFITS OR LOST DATA, COST OF PROCUREMENT
     33            OF SUBSTITUTE GOODS, TECHNOLOGY, SERVICES, OR ANY CLAIMS BY THIRD PARTIES
     34            (INCLUDING BUT NOT LIMITED TO ANY DEFENSE THEREOF), OR OTHER SIMILAR COSTS.
     35          
     36            Should you have any questions regarding your right to use this Software,
     37            contact Texas Instruments Incorporated at www.TI.com.
     38          **************************************************************************************************/
     39          
     40          /*********************************************************************
     41           * INCLUDES
     42           */
     43          #include "ZComdef.h"
     44          #include "OSAL.h"
     45          #include "OSAL_Nv.h"
     46          #include "rtg.h"
     47          #include "NLMEDE.h"
     48          #include "nwk_globals.h"
     49          #include "APS.h"
     50          #include "APSMEDE.h"
     51          #include "AssocList.h"
     52          #include "BindingTable.h"
     53          #include "AddrMgr.h"
     54          #include "AF.h"
     55          #include "ZDObject.h"
     56          #include "ZDProfile.h"
     57          #include "ZDConfig.h"
     58          #include "ZDSecMgr.h"
     59          #include "ZDApp.h"
     60          #include "nwk_util.h"   // NLME_IsAddressBroadcast()
     61          #include "ZGlobals.h"
     62          
     63          #if defined( LCD_SUPPORTED )
     64            #include "OnBoard.h"
     65          #endif
     66          
     67          /* HAL */
     68          #include "hal_lcd.h"
     69          
     70          /*********************************************************************
     71           * MACROS
     72           */
     73          
     74          /*********************************************************************
     75           * CONSTANTS
     76           */
     77          // NLME Stub Implementations
     78          #define ZDO_ProcessMgmtPermitJoinTimeout NLME_PermitJoiningTimeout
     79          
     80          // Status fields used by ZDO_ProcessMgmtRtgReq
     81          #define ZDO_MGMT_RTG_ENTRY_ACTIVE             0x00
     82          #define ZDO_MGMT_RTG_ENTRY_DISCOVERY_UNDERWAY 0x01
     83          #define ZDO_MGMT_RTG_ENTRY_DISCOVERY_FAILED   0x02
     84          #define ZDO_MGMT_RTG_ENTRY_INACTIVE           0x03
     85          
     86          /*********************************************************************
     87           * TYPEDEFS
     88           */
     89          #if defined ( REFLECTOR )
     90          typedef struct
     91          {
     92            byte SrcTransSeq;
     93            zAddrType_t SrcAddr;
     94            uint16 LocalCoordinator;
     95            byte epIntf;
     96            uint16 ProfileID;
     97            byte numInClusters;
     98            uint16 *inClusters;
     99            byte numOutClusters;
    100            uint16 *outClusters;
    101            byte SecurityUse;
    102            byte status;
    103          } ZDO_EDBind_t;
    104          #endif // defined ( REFLECTOR )
    105          
    106          enum
    107          {
    108            ZDMATCH_INIT,           // Initialized
    109            ZDMATCH_WAIT_REQ,       // Received first request, waiting for second
    110            ZDMATCH_SENDING_BINDS   // Received both requests, sending unbind/binds
    111          };
    112          
    113          enum
    114          {
    115            ZDMATCH_SENDING_NOT,
    116            ZDMATCH_SENDING_UNBIND,
    117            ZDMATCH_SENDING_BIND
    118          };
    119          
    120          /*********************************************************************
    121           * GLOBAL VARIABLES
    122           */
    123          
    124          /*********************************************************************
    125           * EXTERNAL VARIABLES
    126           */
    127          
    128          /*********************************************************************
    129           * EXTERNAL FUNCTIONS
    130           */
    131          
    132          /*********************************************************************
    133           * LOCAL VARIABLES
    134           */

   \                                 In  segment XDATA_Z, align 1, keep-with-next
    135          static uint16 ZDOBuildBuf[26];  // temp area to build data without allocation
   \                     ZDOBuildBuf:
   \   000000                DS 52
   \   000034                REQUIRE __INIT_XDATA_Z
    136          
    137          #if defined ( REFLECTOR )

   \                                 In  segment XDATA_Z, align 1, keep-with-next
    138          static ZDO_EDBind_t *ZDO_EDBind;     // Null when not used
   \                     ZDO_EDBind:
   \   000000                DS 2
   \   000002                REQUIRE __INIT_XDATA_Z
    139          #endif
    140          
    141          #if defined ( MANAGED_SCAN )
    142            uint32 managedScanNextChannel = 0;
    143            uint32 managedScanChannelMask = 0;
    144            uint8  managedScanTimesPerChannel = 0;
    145          #endif
    146          

   \                                 In  segment XDATA_Z, align 1, keep-with-next
    147          ZDMatchEndDeviceBind_t *matchED = (ZDMatchEndDeviceBind_t *)NULL;
   \                     matchED:
   \   000000                DS 2
   \   000002                REQUIRE __INIT_XDATA_Z
    148          

   \                                 In  segment XDATA_Z, align 1, keep-with-next
    149          uint32 apsChannelMask = 0;
   \                     apsChannelMask:
   \   000000                DS 4
   \   000004                REQUIRE __INIT_XDATA_Z
    150          
    151          /*********************************************************************
    152           * LOCAL FUNCTIONS
    153           */
    154          static void ZDODeviceSetup( void );
    155          #if defined ( MANAGED_SCAN )
    156            static void ZDOManagedScan_Next( void );
    157          #endif
    158          #if defined ( REFLECTOR )
    159            static void ZDO_RemoveEndDeviceBind( void );
    160            static void ZDO_SendEDBindRsp( byte TransSeq, zAddrType_t *dstAddr, byte Status, byte secUse );
    161          #endif
    162          static byte ZDO_CompareClusterLists( byte numList1, uint16 *list1,
    163                                          byte numList2, uint16 *list2, uint16 *pMatches );
    164          static void ZDO_RemoveMatchMemory( void );
    165          static uint8 ZDO_CopyMatchInfo( ZDEndDeviceBind_t *destReq, ZDEndDeviceBind_t *srcReq );
    166          static void ZDO_EndDeviceBindMatchTimeoutCB( void );
    167          uint8 *ZDO_ConvertOTAClusters( uint8 cnt, uint8 *inBuf, uint16 *outList );
    168          
    169          /*********************************************************************
    170           * @fn          ZDO_Init
    171           *
    172           * @brief       ZDObject and ZDProfile initialization.
    173           *
    174           * @param       none
    175           *
    176           * @return      none
    177           */

   \                                 In  segment BANKED_CODE, align 1, keep-with-next
    178          void ZDO_Init( void )
   \                     ZDO_Init:
    179          {
   \   000000   C082         PUSH    DPL
   \   000002   C083         PUSH    DPH
   \   000004                ; Saved register size: 2
   \   000004                ; Auto size: 0
    180            // Initialize ZD items
    181            #if defined ( REFLECTOR )
    182            ZDO_EDBind = NULL;
   \   000004   90....       MOV     DPTR,#ZDO_EDBind
   \   000007   E4           CLR     A
   \   000008   F0           MOVX    @DPTR,A
   \   000009   A3           INC     DPTR
   \   00000A   F0           MOVX    @DPTR,A
    183            #endif
    184          
    185            // Initialize default ZDO_UseExtendedPANID to the APS one.
    186            osal_cpyExtAddr( ZDO_UseExtendedPANID, AIB_apsUseExtendedPANID );
   \   00000B                ; Setup parameters for call to function sAddrExtCpy
   \   00000B   7C..         MOV     R4,#(AIB_apsUseExtendedPANID & 0xff)
   \   00000D   7D..         MOV     R5,#((AIB_apsUseExtendedPANID >> 8) & 0xff)
   \   00000F   7A..         MOV     R2,#(ZDO_UseExtendedPANID & 0xff)
   \   000011   7B..         MOV     R3,#((ZDO_UseExtendedPANID >> 8) & 0xff)
   \   000013   12....       LCALL   ??sAddrExtCpy?relay
    187          
    188            // Setup the device - type of device to create.
    189            ZDODeviceSetup();
   \   000016   90....       MOV     DPTR,#zgDeviceLogicalType
   \   000019   E0           MOVX    A,@DPTR
   \   00001A   7004         JNZ     ??ZDO_Init_0
   \   00001C   7900         MOV     R1,#0x0
   \   00001E   8002         SJMP    ??ZDO_Init_1
   \                     ??ZDO_Init_0:
   \   000020   7901         MOV     R1,#0x1
   \                     ??ZDO_Init_1:
   \   000022                ; Setup parameters for call to function APS_ReflectorInit
   \   000022   12....       LCALL   ??APS_ReflectorInit?relay
   \   000025                ; Setup parameters for call to function NLME_DeviceJoiningInit
   \   000025   12....       LCALL   ??NLME_DeviceJoiningInit?relay
    190          }
   \   000028   02....       LJMP    ?Subroutine186 & 0xFFFF

   \                                 In  segment BANKED_CODE, align 1, keep-with-next
   \                     ?Subroutine186:
   \   000000   D083         POP     DPH
   \   000002   D082         POP     DPL
   \   000004   02....       LJMP    ?BRET
    191          
    192          #if defined ( MANAGED_SCAN )
    193          /*********************************************************************
    194           * @fn      ZDOManagedScan_Next()
    195           *
    196           * @brief   Setup a managed scan.
    197           *
    198           * @param   none
    199           *
    200           * @return  none
    201           */
    202          static void ZDOManagedScan_Next( void )
    203          {
    204            // Is it the first time
    205            if ( managedScanNextChannel == 0 && managedScanTimesPerChannel == 0 )
    206            {
    207              // Setup the defaults
    208              managedScanNextChannel  = 1;
    209          
    210              while( managedScanNextChannel && (zgDefaultChannelList & managedScanNextChannel) == 0 )
    211                managedScanNextChannel <<= 1;
    212          
    213              managedScanChannelMask = managedScanNextChannel;
    214              managedScanTimesPerChannel = MANAGEDSCAN_TIMES_PRE_CHANNEL;
    215            }
    216            else
    217            {
    218              // Do we need to go to the next channel
    219              if ( managedScanTimesPerChannel == 0 )
    220              {
    221                // Find next active channel
    222                managedScanChannelMask  = managedScanNextChannel;
    223                managedScanTimesPerChannel = MANAGEDSCAN_TIMES_PRE_CHANNEL;
    224              }
    225              else
    226              {
    227                managedScanTimesPerChannel--;
    228          
    229                if ( managedScanTimesPerChannel == 0 )
    230                {
    231                  managedScanNextChannel  <<= 1;
    232                  while( managedScanNextChannel && (zgDefaultChannelList & managedScanNextChannel) == 0 )
    233                    managedScanNextChannel <<= 1;
    234          
    235                  if ( managedScanNextChannel == 0 )
    236                    zdoDiscCounter  = NUM_DISC_ATTEMPTS + 1; // Stop
    237                }
    238              }
    239            }
    240          }
    241          #endif // MANAGED_SCAN
    242          
    243          /*********************************************************************
    244           * @fn      ZDODeviceSetup()
    245           *
    246           * @brief   Call set functions depending on the type of device compiled.
    247           *
    248           * @param   none
    249           *
    250           * @return  none
    251           */
    252          static void ZDODeviceSetup( void )
    253          {
    254            if ( ZG_BUILD_COORDINATOR_TYPE )
    255            {
    256              NLME_CoordinatorInit();
    257            }
    258          
    259          #if defined ( REFLECTOR )
    260            APS_ReflectorInit( (ZG_DEVICE_COORDINATOR_TYPE) ? APS_REFLECTOR_PUBLIC :  APS_REFLECTOR_PRIVATE );
    261          #endif
    262          
    263            if ( ZG_BUILD_JOINING_TYPE )
    264            {
    265              NLME_DeviceJoiningInit();
    266            }
    267          }
    268          
    269          /*********************************************************************
    270           * @fn          ZDO_StartDevice
    271           *
    272           * @brief       This function starts a device in a network.
    273           *
    274           * @param       logicalType     - Device type to start
    275           *              startMode       - indicates mode of device startup
    276           *              beaconOrder     - indicates time betwen beacons
    277           *              superframeOrder - indicates length of active superframe
    278           *
    279           * @return      none
    280           */

   \                                 In  segment BANKED_CODE, align 1, keep-with-next
    281          void ZDO_StartDevice( byte logicalType, devStartModes_t startMode, byte beaconOrder, byte superframeOrder )
   \                     ZDO_StartDevice:
    282          {
   \   000000   74F4         MOV     A,#-0xc
   \   000002   12....       LCALL   ?BANKED_ENTER_XDATA
   \   000005                ; Saved register size: 12
   \   000005                ; Auto size: 11
   \   000005   74F5         MOV     A,#-0xb
   \   000007   12....       LCALL   ?ALLOC_XSTACK8
    283            ZStatus_t ret;
    284          #if defined ( ZIGBEE_FREQ_AGILITY )
    285            static uint8 discRetries = 0;
    286          #endif
    287          #if defined ( ZIGBEE_COMMISSIONING )
    288            static uint8 scanCnt = 0;
    289          #endif
    290          
    291            ret = ZUnsupportedMode;
    292          
    293            if ( ZG_BUILD_COORDINATOR_TYPE && logicalType == NODETYPE_COORDINATOR )
    294            {
    295              if ( startMode == MODE_HARD )
    296              {
    297                devState = DEV_COORD_STARTING;
    298                ret = NLME_NetworkFormationRequest( zgConfigPANID, zgApsUseExtendedPANID, zgDefaultChannelList,
    299                                                    zgDefaultStartingScanDuration, beaconOrder,
    300                                                    superframeOrder, false );
    301              }
    302              else if ( startMode == MODE_RESUME )
    303              {
    304                // Just start the coordinator
    305                devState = DEV_COORD_STARTING;
    306                ret = NLME_StartRouterRequest( beaconOrder, beaconOrder, false );
    307              }
    308              else
    309              {
    310          #if defined( LCD_SUPPORTED )
    311                HalLcdWriteScreen( "StartDevice ERR", "MODE unknown" );
    312          #endif
    313              }
    314            }
    315          
    316            if ( ZG_BUILD_JOINING_TYPE && (logicalType == NODETYPE_ROUTER || logicalType == NODETYPE_DEVICE) )
   \   00000A   7401         MOV     A,#0x1
   \   00000C   69           XRL     A,R1
   \   00000D   6005         JZ      ??ZDO_StartDevice_0
   \   00000F   7402         MOV     A,#0x2
   \   000011   69           XRL     A,R1
   \   000012   7020         JNZ     ??ZDO_StartDevice_1
    317            {
    318              if ( (startMode == MODE_JOIN) || (startMode == MODE_REJOIN) )
   \                     ??ZDO_StartDevice_0:
   \   000014   EA           MOV     A,R2
   \   000015   6005         JZ      ??ZDO_StartDevice_2
   \   000017   7403         MOV     A,#0x3
   \   000019   6A           XRL     A,R2
   \   00001A   702D         JNZ     ??ZDO_StartDevice_3
    319              {
    320                devState = DEV_NWK_DISC;
   \                     ??ZDO_StartDevice_2:
   \   00001C   7402         MOV     A,#0x2
   \   00001E   12....       LCALL   ?Subroutine30 & 0xFFFF
    321          
    322            #if defined( MANAGED_SCAN )
    323                ZDOManagedScan_Next();
    324                ret = NLME_NetworkDiscoveryRequest( managedScanChannelMask, BEACON_ORDER_15_MSEC );
    325            #else
    326                ret = NLME_NetworkDiscoveryRequest( zgDefaultChannelList, zgDefaultStartingScanDuration );
    327              #if defined ( ZIGBEE_FREQ_AGILITY )
    328                if ( !( ZDO_Config_Node_Descriptor.CapabilityFlags & CAPINFO_RCVR_ON_IDLE ) &&
    329                      ( ret == ZSuccess ) && ( ++discRetries == 4 ) )
    330                {
    331                  // For devices with RxOnWhenIdle equals to FALSE, any network channel
    332                  // change will not be recieved. On these devices or routers that have
    333                  // lost the network, an active scan shall be conducted on the Default
    334                  // Channel list using the extended PANID to find the network. If the
    335                  // extended PANID isn't found using the Default Channel list, an scan
    336                  // should be completed using all channels.
    337                  zgDefaultChannelList = MAX_CHANNELS_24GHZ;
    338                }
    339              #endif // ZIGBEE_FREQ_AGILITY
    340              #if defined ( ZIGBEE_COMMISSIONING )
    341                if (startMode == MODE_REJOIN && scanCnt++ >= 5 )
    342                {
    343                  // When ApsUseExtendedPanID is commissioned to a non zero value via
    344                  // application specific means, the device shall conduct an active scan
    345                  // on the Default Channel list and join the PAN with the same
    346                  // ExtendedPanID. If the PAN is not found, an scan should be completed
    347                  // on all channels.
    348                  // When devices rejoin the network and the PAN is not found from
    349                  zgDefaultChannelList = MAX_CHANNELS_24GHZ;
    350                }
    351              #endif // ZIGBEE_COMMISSIONING
    352            #endif
    353              }
   \                     ??CrossCallReturnLabel_41:
   \   000021   12....       LCALL   ?L_MOV_X
   \   000024   AA..         MOV     R2,?V0 + 0
   \   000026   AB..         MOV     R3,?V0 + 1
   \   000028   AC..         MOV     R4,?V0 + 2
   \   00002A   AD..         MOV     R5,?V0 + 3
   \   00002C   12....       LCALL   ??NLME_NetworkDiscoveryRequest?relay
   \                     ??ZDO_StartDevice_4:
   \   00002F   E9           MOV     A,R1
   \   000030   FA           MOV     R2,A
    354              else if ( startMode == MODE_RESUME )
    355              {
    356                if ( logicalType == NODETYPE_ROUTER )
    357                {
    358                  ZMacScanCnf_t scanCnf;
    359                  devState = DEV_NWK_ORPHAN;
    360          
    361                  /* if router and nvram is available, fake successful orphan scan */
    362                  scanCnf.hdr.Status = ZSUCCESS;
    363                  scanCnf.ScanType = ZMAC_ORPHAN_SCAN;
    364                  scanCnf.UnscannedChannels = 0;
    365                  scanCnf.ResultListSize = 0;
    366                  nwk_ScanJoiningOrphan(&scanCnf);
    367          
    368                  ret = ZSuccess;
    369                }
    370                else
    371                {
    372                  devState = DEV_NWK_ORPHAN;
    373                  ret = NLME_OrphanJoinRequest( zgDefaultChannelList,
    374                                                zgDefaultStartingScanDuration );
    375                }
    376              }
    377              else
    378              {
    379          #if defined( LCD_SUPPORTED )
    380                HalLcdWriteScreen( "StartDevice ERR", "MODE unknown" );
    381          #endif
    382              }
    383            }
    384          
    385            if ( ret != ZSuccess )
   \   000031   EA           MOV     A,R2
   \   000032   6010         JZ      ??ZDO_StartDevice_5
    386              osal_start_timerEx(ZDAppTaskID, ZDO_NETWORK_INIT, NWK_RETRY_DELAY );
   \                     ??ZDO_StartDevice_1:
   \   000034                ; Setup parameters for call to function osal_start_timerEx
   \   000034   7CE8         MOV     R4,#-0x18
   \   000036   7D03         MOV     R5,#0x3
   \   000038   7A01         MOV     R2,#0x1
   \   00003A   7B00         MOV     R3,#0x0
   \   00003C   90....       MOV     DPTR,#ZDAppTaskID
   \   00003F   E0           MOVX    A,@DPTR
   \   000040   F9           MOV     R1,A
   \   000041   12....       LCALL   ??osal_start_timerEx?relay
    387          }
   \                     ??ZDO_StartDevice_5:
   \   000044   740B         MOV     A,#0xb
   \   000046   02....       LJMP    ?Subroutine187 & 0xFFFF
   \                     ??ZDO_StartDevice_3:
   \   000049   7401         MOV     A,#0x1
   \   00004B   6A           XRL     A,R2
   \   00004C   704F         JNZ     ??ZDO_StartDevice_6
   \   00004E   7401         MOV     A,#0x1
   \   000050   69           XRL     A,R1
   \   000051   7035         JNZ     ??ZDO_StartDevice_7
   \   000053   740A         MOV     A,#0xa
   \   000055   90....       MOV     DPTR,#devState
   \   000058   F0           MOVX    @DPTR,A
   \   000059   7401         MOV     A,#0x1
   \   00005B   12....       LCALL   ?XSTACK_DISP0_8
   \   00005E   E4           CLR     A
   \   00005F   F0           MOVX    @DPTR,A
   \   000060   7402         MOV     A,#0x2
   \   000062   12....       LCALL   ?XSTACK_DISP0_8
   \   000065   7403         MOV     A,#0x3
   \   000067   F0           MOVX    @DPTR,A
   \   000068   90....       MOV     DPTR,#__Constant_0
   \   00006B   78..         MOV     R0,#?V0 + 0
   \   00006D   12....       LCALL   ?L_MOV_X
   \   000070   7404         MOV     A,#0x4
   \   000072   12....       LCALL   ?XSTACK_DISP0_8
   \   000075   78..         MOV     R0,#?V0 + 0
   \   000077   12....       LCALL   ?L_MOV_TO_X
   \   00007A   7408         MOV     A,#0x8
   \   00007C   12....       LCALL   ?XSTACK_DISP0_8
   \   00007F   E4           CLR     A
   \   000080   12....       LCALL   ?Subroutine16 & 0xFFFF
   \                     ??CrossCallReturnLabel_252:
   \   000083   12....       LCALL   ??nwk_ScanJoiningOrphan?relay
   \   000086   80BC         SJMP    ??ZDO_StartDevice_5
   \                     ??ZDO_StartDevice_7:
   \   000088   740A         MOV     A,#0xa
   \   00008A   12....       LCALL   ?Subroutine30 & 0xFFFF
   \                     ??CrossCallReturnLabel_42:
   \   00008D   12....       LCALL   ?L_MOV_X
   \   000090   AA..         MOV     R2,?V0 + 0
   \   000092   AB..         MOV     R3,?V0 + 1
   \   000094   AC..         MOV     R4,?V0 + 2
   \   000096   AD..         MOV     R5,?V0 + 3
   \   000098   12....       LCALL   ??NLME_OrphanJoinRequest?relay
   \   00009B   8092         SJMP    ??ZDO_StartDevice_4
   \                     ??ZDO_StartDevice_6:
   \   00009D                ; Setup parameters for call to function HalLcdWriteScreen
   \   00009D   7C..         MOV     R4,#(`?<Constant "MODE unknown">` & 0xff)
   \   00009F   7D..         MOV     R5,#((`?<Constant "MODE unknown">` >> 8) & 0xff)
   \   0000A1   7A..         MOV     R2,#(`?<Constant "StartDevice ERR">` & 0xff)
   \   0000A3   7B..         MOV     R3,#((`?<Constant "StartDevice ERR">` >> 8) & 0xff)
   \   0000A5   12....       LCALL   ??HalLcdWriteScreen?relay
   \   0000A8   808A         SJMP    ??ZDO_StartDevice_1

   \                                 In  segment BANKED_CODE, align 1, keep-with-next
   \                     ?Subroutine30:
   \   000000   90....       MOV     DPTR,#devState
   \   000003   F0           MOVX    @DPTR,A
   \   000004                ; Setup parameters for call to function NLME_NetworkDiscoveryRequest
   \   000004                ; Setup parameters for call to function NLME_OrphanJoinRequest
   \   000004   90....       MOV     DPTR,#zgDefaultStartingScanDuration
   \   000007   E0           MOVX    A,@DPTR
   \   000008   F9           MOV     R1,A
   \   000009   90....       MOV     DPTR,#zgDefaultChannelList
   \   00000C   78..         MOV     R0,#?V0 + 0
   \   00000E   22           RET

   \                                 In  segment BANKED_CODE, align 1, keep-with-next
   \                     ?Subroutine187:
   \   000000   12....       LCALL   ?DEALLOC_XSTACK8
   \   000003                REQUIRE ??Subroutine212_0
   \   000003                ; // Fall through to label ??Subroutine212_0

   \                                 In  segment BANKED_CODE, align 1, keep-with-next
   \                     ??Subroutine212_0:
   \   000000   7F04         MOV     R7,#0x4
   \   000002   02....       LJMP    ?BANKED_LEAVE_XDATA

   \                                 In  segment BANKED_CODE, align 1, keep-with-next
   \                     ?Subroutine16:
   \   000000   F0           MOVX    @DPTR,A
   \   000001                ; Setup parameters for call to function nwk_ScanJoiningOrphan
   \   000001                ; Setup parameters for call to function NLME_NwkDiscReq2
   \   000001                ; Setup parameters for call to function AddrMgrEntryLookupNwk
   \   000001   85..82       MOV     DPL,?XSP + 0
   \   000004   85..83       MOV     DPH,?XSP + 1
   \   000007                REQUIRE ?Subroutine200
   \   000007                ; // Fall through to label ?Subroutine200

   \                                 In  segment BANKED_CODE, align 1, keep-with-next
   \                     ?Subroutine200:
   \   000000   AA82         MOV     R2,DPL
   \   000002   AB83         MOV     R3,DPH
   \   000004   22           RET
    388          
    389          /*********************************************************************
    390           * @fn      ZDO_UpdateNwkStatus()
    391           *
    392           * @brief
    393           *
    394           *   This function will send an update message to each registered
    395           *   application endpoint/interface about a network status change.
    396           *
    397           * @param   none
    398           *
    399           * @return  none
    400           */

   \                                 In  segment BANKED_CODE, align 1, keep-with-next
    401          void ZDO_UpdateNwkStatus( devStates_t state )
   \                     ZDO_UpdateNwkStatus:
    402          {
   \   000000   74F4         MOV     A,#-0xc
   \   000002   12....       LCALL   ?BANKED_ENTER_XDATA
   \   000005                ; Saved register size: 12
   \   000005                ; Auto size: 0
   \   000005   89..         MOV     ?V0 + 0,R1
    403            // Endpoint/Interface descriptor list.
    404            epList_t *epDesc = epList;
   \   000007   90....       MOV     DPTR,#epList
   \   00000A   12....       LCALL   ??Subroutine217_0 & 0xFFFF
    405            byte bufLen = sizeof(osal_event_hdr_t);
    406            osal_event_hdr_t *msgPtr;
    407          
    408            ZDAppNwkAddr.addr.shortAddr = NLME_GetShortAddr();
   \                     ??CrossCallReturnLabel_295:
   \   00000D                ; Setup parameters for call to function NLME_GetShortAddr
   \   00000D   12....       LCALL   ??NLME_GetShortAddr?relay
   \   000010   90....       MOV     DPTR,#ZDAppNwkAddr
   \   000013   12....       LCALL   ?Subroutine38 & 0xFFFF
    409            (void)NLME_GetExtAddr();  // Load the saveExtAddr pointer.
   \                     ??CrossCallReturnLabel_57:
   \   000016                ; Setup parameters for call to function NLME_GetExtAddr
   \   000016   12....       LCALL   ??NLME_GetExtAddr?relay
   \   000019   8032         SJMP    ??CrossCallReturnLabel_296
    410          
    411            while ( epDesc )
    412            {
    413              if ( epDesc->epDesc->endPoint != ZDO_EP )
   \                     ??ZDO_UpdateNwkStatus_0:
   \   00001B   8E82         MOV     DPL,R6
   \   00001D   8F83         MOV     DPH,R7
   \   00001F   12....       LCALL   ?Subroutine59 & 0xFFFF
   \                     ??CrossCallReturnLabel_110:
   \   000022   601D         JZ      ??CrossCallReturnLabel_108
    414              {
    415                msgPtr = (osal_event_hdr_t *)osal_msg_allocate( bufLen );
   \   000024                ; Setup parameters for call to function osal_msg_allocate
   \   000024   7A02         MOV     R2,#0x2
   \   000026   7B00         MOV     R3,#0x0
   \   000028   12....       LCALL   ??osal_msg_allocate?relay
    416                if ( msgPtr )
   \   00002B   EA           MOV     A,R2
   \   00002C   7001         JNZ     ??ZDO_UpdateNwkStatus_1
   \   00002E   EB           MOV     A,R3
   \                     ??ZDO_UpdateNwkStatus_1:
   \   00002F   6010         JZ      ??CrossCallReturnLabel_108
    417                {
    418                  msgPtr->event = ZDO_STATE_CHANGE; // Command ID
   \   000031   74D1         MOV     A,#-0x2f
   \   000033   8A82         MOV     DPL,R2
   \   000035   8B83         MOV     DPH,R3
   \   000037   F0           MOVX    @DPTR,A
    419                  msgPtr->status = (byte)state;
   \   000038   A3           INC     DPTR
   \   000039   E5..         MOV     A,?V0 + 0
   \   00003B   12....       LCALL   ?Subroutine183 & 0xFFFF
    420          
    421                  osal_msg_send( *(epDesc->epDesc->task_id), (uint8 *)msgPtr );
    422                }
    423              }
   \                     ??CrossCallReturnLabel_482:
   \   00003E   12....       LCALL   ?Subroutine58 & 0xFFFF
    424              epDesc = epDesc->nextDesc;
   \                     ??CrossCallReturnLabel_108:
   \   000041   8E82         MOV     DPL,R6
   \   000043   8F83         MOV     DPH,R7
   \   000045   A3           INC     DPTR
   \   000046   A3           INC     DPTR
   \   000047   A3           INC     DPTR
   \   000048   A3           INC     DPTR
   \   000049   A3           INC     DPTR
   \   00004A   12....       LCALL   ??Subroutine217_0 & 0xFFFF
    425            }
   \                     ??CrossCallReturnLabel_296:
   \   00004D   EE           MOV     A,R6
   \   00004E   7001         JNZ     ??ZDO_UpdateNwkStatus_2
   \   000050   EF           MOV     A,R7
   \                     ??ZDO_UpdateNwkStatus_2:
   \   000051   70C8         JNZ     ??ZDO_UpdateNwkStatus_0
    426          }
   \   000053   80..         SJMP    ??Subroutine212_0

   \                                 In  segment BANKED_CODE, align 1, keep-with-next
   \                     ??Subroutine217_0:
   \   000000   12....       LCALL   ??Subroutine247_0 & 0xFFFF
   \                     ??CrossCallReturnLabel_465:
   \   000003   22           RET

   \                                 In  segment BANKED_CODE, align 1, keep-with-next
   \                     ?Subroutine58:
   \   000000   12....       LCALL   ?Subroutine151 & 0xFFFF
   \                     ??CrossCallReturnLabel_216:
   \   000003   12....       LCALL   ?Subroutine198 & 0xFFFF
   \                     ??CrossCallReturnLabel_250:
   \   000006   F9           MOV     R1,A
   \   000007   12....       LCALL   ??osal_msg_send?relay
   \   00000A   22           RET

   \                                 In  segment BANKED_CODE, align 1, keep-with-next
   \                     ?Subroutine59:
   \   000000   12....       LCALL   ?Subroutine198 & 0xFFFF
   \                     ??CrossCallReturnLabel_251:
   \   000003   22           RET

   \                                 In  segment BANKED_CODE, align 1, keep-with-next
   \                     ?Subroutine198:
   \   000000   12....       LCALL   ?Subroutine180 & 0xFFFF
   \                     ??CrossCallReturnLabel_612:
   \   000003   E0           MOVX    A,@DPTR
   \   000004   22           RET

   \                                 In  segment BANKED_CODE, align 1, keep-with-next
   \                     ?Subroutine38:
   \   000000   12....       LCALL   ?Subroutine145 & 0xFFFF
   \                     ??CrossCallReturnLabel_342:
   \   000003   22           RET

   \                                 In  segment BANKED_CODE, align 1, keep-with-next
   \                     ?Subroutine145:
   \   000000   EA           MOV     A,R2
   \   000001                REQUIRE ??Subroutine229_0
   \   000001                ; // Fall through to label ??Subroutine229_0

   \                                 In  segment BANKED_CODE, align 1, keep-with-next
   \                     ??Subroutine229_0:
   \   000000   F0           MOVX    @DPTR,A
   \   000001   A3           INC     DPTR
   \   000002   EB           MOV     A,R3
   \   000003   F0           MOVX    @DPTR,A
   \   000004   22           RET

   \                                 In  segment BANKED_CODE, align 1, keep-with-next
   \                     ??Subroutine247_0:
   \   000000   E0           MOVX    A,@DPTR
   \   000001   FE           MOV     R6,A
   \   000002   A3           INC     DPTR
   \   000003   E0           MOVX    A,@DPTR
   \   000004   FF           MOV     R7,A
   \   000005   22           RET

   \                                 In  segment BANKED_CODE, align 1, keep-with-next
   \                     ?Subroutine183:
   \   000000   F0           MOVX    @DPTR,A
   \   000001                ; Setup parameters for call to function osal_msg_send
   \   000001   8E82         MOV     DPL,R6
   \   000003   8F83         MOV     DPH,R7
   \   000005   22           RET

   \                                 In  segment BANKED_CODE, align 1, keep-with-next
   \                     ?Subroutine151:
   \   000000   12....       LCALL   ?Subroutine180 & 0xFFFF
   \                     ??CrossCallReturnLabel_611:
   \   000003   A3           INC     DPTR
   \   000004   22           RET

   \                                 In  segment BANKED_CODE, align 1, keep-with-next
   \                     ?Subroutine180:
   \   000000   E0           MOVX    A,@DPTR
   \   000001   F8           MOV     R0,A
   \   000002                REQUIRE ??Subroutine265_0
   \   000002                ; // Fall through to label ??Subroutine265_0

   \                                 In  segment BANKED_CODE, align 1, keep-with-next
   \                     ??Subroutine265_0:
   \   000000   A3           INC     DPTR
   \   000001   E0           MOVX    A,@DPTR
   \   000002   F583         MOV     DPH,A
   \   000004   8882         MOV     DPL,R0
   \   000006   22           RET
    427          
    428          #if defined ( REFLECTOR )
    429          /*********************************************************************
    430           * @fn          ZDO_RemoveEndDeviceBind
    431           *
    432           * @brief       Remove the end device bind
    433           *
    434           * @param  none
    435           *
    436           * @return      none
    437           */
    438          static void ZDO_RemoveEndDeviceBind( void )
    439          {
    440            if ( ZDO_EDBind != NULL )
    441            {
    442              // Free the RAM
    443              if ( ZDO_EDBind->inClusters != NULL )
    444                osal_mem_free( ZDO_EDBind->inClusters );
    445              if ( ZDO_EDBind->outClusters != NULL )
    446                osal_mem_free( ZDO_EDBind->outClusters );
    447              osal_mem_free( ZDO_EDBind );
    448              ZDO_EDBind = NULL;
    449            }
    450          }
    451          #endif // REFLECTOR
    452          
    453          #if defined ( REFLECTOR )
    454          /*********************************************************************
    455           * @fn          ZDO_RemoveEndDeviceBind
    456           *
    457           * @brief       Remove the end device bind
    458           *
    459           * @param  none
    460           *
    461           * @return      none
    462           */
    463          static void ZDO_SendEDBindRsp( byte TransSeq, zAddrType_t *dstAddr, byte Status, byte secUse )
    464          {
    465            ZDP_EndDeviceBindRsp( TransSeq, dstAddr, Status, secUse );
    466          
    467          #if defined( LCD_SUPPORTED )
    468            HalLcdWriteString( "End Device Bind", HAL_LCD_LINE_1 );
    469            if ( Status == ZDP_SUCCESS )
    470              HalLcdWriteString( "Success Sent", HAL_LCD_LINE_2 );
    471            else
    472              HalLcdWriteString( "Timeout", HAL_LCD_LINE_2 );
    473          #endif
    474          
    475          }
    476          #endif // REFLECTOR
    477          
    478          /*********************************************************************
    479           * @fn          ZDO_CompareClusterLists
    480           *
    481           * @brief       Compare one list to another list
    482           *
    483           * @param       numList1 - number of items in list 1
    484           * @param       list1 - first list of cluster IDs
    485           * @param       numList2 - number of items in list 2
    486           * @param       list2 - second list of cluster IDs
    487           * @param       pMatches - buffer to put matches
    488           *
    489           * @return      number of matches
    490           */

   \                                 In  segment BANKED_CODE, align 1, keep-with-next
    491          static byte ZDO_CompareClusterLists( byte numList1, uint16 *list1,
   \                     ZDO_CompareClusterLists:
    492                                    byte numList2, uint16 *list2, uint16 *pMatches )
    493          {
   \   000000   74F0         MOV     A,#-0x10
   \   000002   12....       LCALL   ?BANKED_ENTER_XDATA
   \   000005                ; Saved register size: 16
   \   000005                ; Auto size: 0
   \   000005   89..         MOV     ?V0 + 2,R1
   \   000007   8A..         MOV     ?V0 + 6,R2
   \   000009   8B..         MOV     ?V0 + 7,R3
   \   00000B   7410         MOV     A,#0x10
   \   00000D   12....       LCALL   ?XSTACK_DISP0_8
   \   000010   12....       LCALL   ??Subroutine237_0 & 0xFFFF
   \                     ??CrossCallReturnLabel_380:
   \   000013   7412         MOV     A,#0x12
   \   000015   12....       LCALL   ?XSTACK_DISP0_8
   \   000018   12....       LCALL   ??Subroutine217_0 & 0xFFFF
    494            byte x, y;
    495            uint16 z;
    496            byte numMatches = 0;
   \                     ??CrossCallReturnLabel_297:
   \   00001B   7D00         MOV     R5,#0x0
    497          
    498            // Check the first in against the seconds out
    499            for ( x = 0; x < numList1; x++ )
   \   00001D   8D..         MOV     ?V0 + 3,R5
   \   00001F   804A         SJMP    ??ZDO_CompareClusterLists_0
    500            {
    501              for ( y = 0; y < numList2; y++ )
    502              {
    503                z = list2[y];
   \                     ??ZDO_CompareClusterLists_1:
   \   000021   E5..         MOV     A,?V0 + 4
   \   000023   C3           CLR     C
   \   000024   33           RLC     A
   \   000025   F8           MOV     R0,A
   \   000026   E4           CLR     A
   \   000027   33           RLC     A
   \   000028   F9           MOV     R1,A
   \   000029   EA           MOV     A,R2
   \   00002A   28           ADD     A,R0
   \   00002B   F582         MOV     DPL,A
   \   00002D   EB           MOV     A,R3
   \   00002E   39           ADDC    A,R1
   \   00002F   12....       LCALL   ??Subroutine214_0 & 0xFFFF
   \                     ??CrossCallReturnLabel_291:
   \   000032   F5..         MOV     ?V0 + 1,A
    504                if ( list1[x] == z )
   \   000034   E5..         MOV     A,?V0 + 3
   \   000036   C3           CLR     C
   \   000037   33           RLC     A
   \   000038   F8           MOV     R0,A
   \   000039   E4           CLR     A
   \   00003A   33           RLC     A
   \   00003B   F9           MOV     R1,A
   \   00003C   E5..         MOV     A,?V0 + 6
   \   00003E   28           ADD     A,R0
   \   00003F   F582         MOV     DPL,A
   \   000041   E5..         MOV     A,?V0 + 7
   \   000043   39           ADDC    A,R1
   \   000044   F583         MOV     DPH,A
   \   000046   E0           MOVX    A,@DPTR
   \   000047   65..         XRL     A,?V0 + 0
   \   000049   7004         JNZ     ??ZDO_CompareClusterLists_2
   \   00004B   A3           INC     DPTR
   \   00004C   E0           MOVX    A,@DPTR
   \   00004D   65..         XRL     A,?V0 + 1
   \                     ??ZDO_CompareClusterLists_2:
   \   00004F   7010         JNZ     ??ZDO_CompareClusterLists_3
    505                  pMatches[numMatches++] = z;
   \   000051   ED           MOV     A,R5
   \   000052   C3           CLR     C
   \   000053   33           RLC     A
   \   000054   F8           MOV     R0,A
   \   000055   E4           CLR     A
   \   000056   33           RLC     A
   \   000057   F9           MOV     R1,A
   \   000058   EE           MOV     A,R6
   \   000059   28           ADD     A,R0
   \   00005A   F582         MOV     DPL,A
   \   00005C   EF           MOV     A,R7
   \   00005D   12....       LCALL   ?Subroutine112 & 0xFFFF
    506              }
   \                     ??CrossCallReturnLabel_172:
   \   000060   0D           INC     R5
   \                     ??ZDO_CompareClusterLists_3:
   \   000061   05..         INC     ?V0 + 4
   \                     ??ZDO_CompareClusterLists_4:
   \   000063   E5..         MOV     A,?V0 + 4
   \   000065   C3           CLR     C
   \   000066   9C           SUBB    A,R4
   \   000067   40B8         JC      ??ZDO_CompareClusterLists_1
   \   000069   05..         INC     ?V0 + 3
   \                     ??ZDO_CompareClusterLists_0:
   \   00006B   E5..         MOV     A,?V0 + 3
   \   00006D   C3           CLR     C
   \   00006E   95..         SUBB    A,?V0 + 2
   \   000070   5005         JNC     ??ZDO_CompareClusterLists_5
   \   000072   75..00       MOV     ?V0 + 4,#0x0
   \   000075   80EC         SJMP    ??ZDO_CompareClusterLists_4
    507            }
    508          
    509            return ( numMatches );
   \                     ??ZDO_CompareClusterLists_5:
   \   000077   ED           MOV     A,R5
   \   000078   F9           MOV     R1,A
   \   000079   02....       LJMP    ??Subroutine222_0 & 0xFFFF
    510          }

   \                                 In  segment BANKED_CODE, align 1, keep-with-next
   \                     ??Subroutine214_0:
   \   000000   F583         MOV     DPH,A
   \   000002                REQUIRE ??Subroutine215_0
   \   000002                ; // Fall through to label ??Subroutine215_0

   \                                 In  segment BANKED_CODE, align 1, keep-with-next
   \                     ??Subroutine215_0:
   \   000000   E0           MOVX    A,@DPTR
   \   000001   F5..         MOV     ?V0 + 0,A
   \   000003   A3           INC     DPTR
   \   000004   E0           MOVX    A,@DPTR
   \   000005   22           RET

   \                                 In  segment BANKED_CODE, align 1, keep-with-next
   \                     ?Subroutine112:
   \   000000   39           ADDC    A,R1
   \   000001   F583         MOV     DPH,A
   \   000003   E5..         MOV     A,?V0 + 0
   \   000005   F0           MOVX    @DPTR,A
   \   000006   A3           INC     DPTR
   \   000007   E5..         MOV     A,?V0 + 1
   \   000009   F0           MOVX    @DPTR,A
   \   00000A   22           RET

   \                                 In  segment BANKED_CODE, align 1, keep-with-next
   \                     ??Subroutine222_0:
   \   000000   7F08         MOV     R7,#0x8
   \   000002   02....       LJMP    ?BANKED_LEAVE_XDATA

   \                                 In  segment BANKED_CODE, align 1, keep-with-next
   \                     ??Subroutine237_0:
   \   000000   12....       LCALL   ?Subroutine156 & 0xFFFF
   \                     ??CrossCallReturnLabel_425:
   \   000003   22           RET

   \                                 In  segment BANKED_CODE, align 1, keep-with-next
   \                     ?Subroutine156:
   \   000000   E0           MOVX    A,@DPTR
   \   000001                REQUIRE ?Subroutine197
   \   000001                ; // Fall through to label ?Subroutine197

   \                                 In  segment BANKED_CODE, align 1, keep-with-next
   \                     ?Subroutine197:
   \   000000   FA           MOV     R2,A
   \   000001   A3           INC     DPTR
   \   000002   E0           MOVX    A,@DPTR
   \   000003   FB           MOV     R3,A
   \   000004   22           RET
    511          
    512          /*********************************************************************
    513           * Utility functions
    514           */
    515          
    516          /*********************************************************************
    517           * @fn          ZDO_CompareByteLists
    518           *
    519           * @brief       Compares two lists for matches.
    520           *
    521           * @param       ACnt  - number of entries in list A
    522           * @param       AList  - List A
    523           * @param       BCnt  - number of entries in list B
    524           * @param       BList  - List B
    525           *
    526           * @return      true if a match is found
    527           */

   \                                 In  segment BANKED_CODE, align 1, keep-with-next
    528          byte ZDO_AnyClusterMatches( byte ACnt, uint16 *AList, byte BCnt, uint16 *BList )
   \                     ZDO_AnyClusterMatches:
    529          {
   \   000000   74F4         MOV     A,#-0xc
   \   000002   12....       LCALL   ?BANKED_ENTER_XDATA
   \   000005                ; Saved register size: 12
   \   000005                ; Auto size: 0
   \   000005   89..         MOV     ?V0 + 0,R1
   \   000007   8C..         MOV     ?V0 + 1,R4
   \   000009   740C         MOV     A,#0xc
   \   00000B   12....       LCALL   ?XSTACK_DISP0_8
   \   00000E   12....       LCALL   ??Subroutine231_0 & 0xFFFF
    530            byte x, y;
    531          
    532            for ( x = 0; x < ACnt; x++ )
   \                     ??CrossCallReturnLabel_343:
   \   000011   75..00       MOV     ?V0 + 3,#0x0
   \   000014   8002         SJMP    ??ZDO_AnyClusterMatches_0
   \                     ??ZDO_AnyClusterMatches_1:
   \   000016   05..         INC     ?V0 + 3
   \                     ??ZDO_AnyClusterMatches_0:
   \   000018   E5..         MOV     A,?V0 + 3
   \   00001A   C3           CLR     C
   \   00001B   95..         SUBB    A,?V0 + 0
   \   00001D   5032         JNC     ??ZDO_AnyClusterMatches_2
    533            {
    534              for ( y = 0; y < BCnt; y++ )
   \   00001F   75..00       MOV     ?V0 + 2,#0x0
   \   000022   8002         SJMP    ??ZDO_AnyClusterMatches_3
   \                     ??ZDO_AnyClusterMatches_4:
   \   000024   05..         INC     ?V0 + 2
   \                     ??ZDO_AnyClusterMatches_3:
   \   000026   E5..         MOV     A,?V0 + 2
   \   000028   C3           CLR     C
   \   000029   95..         SUBB    A,?V0 + 1
   \   00002B   50E9         JNC     ??ZDO_AnyClusterMatches_1
    535              {
    536                if ( AList[x] == BList[y] )
   \   00002D   E5..         MOV     A,?V0 + 3
   \   00002F   C3           CLR     C
   \   000030   33           RLC     A
   \   000031   FC           MOV     R4,A
   \   000032   E4           CLR     A
   \   000033   33           RLC     A
   \   000034   FD           MOV     R5,A
   \   000035   EA           MOV     A,R2
   \   000036   2C           ADD     A,R4
   \   000037   F582         MOV     DPL,A
   \   000039   EB           MOV     A,R3
   \   00003A   3D           ADDC    A,R5
   \   00003B   12....       LCALL   ??Subroutine216_0 & 0xFFFF
   \                     ??CrossCallReturnLabel_299:
   \   00003E   E5..         MOV     A,?V0 + 2
   \   000040   C3           CLR     C
   \   000041   12....       LCALL   ??Subroutine261_0 & 0xFFFF
   \                     ??CrossCallReturnLabel_582:
   \   000044   E0           MOVX    A,@DPTR
   \   000045   6E           XRL     A,R6
   \   000046   7003         JNZ     ??ZDO_AnyClusterMatches_5
   \   000048   A3           INC     DPTR
   \   000049   E0           MOVX    A,@DPTR
   \   00004A   6F           XRL     A,R7
   \                     ??ZDO_AnyClusterMatches_5:
   \   00004B   70D7         JNZ     ??ZDO_AnyClusterMatches_4
    537                {
    538                  return true;
   \   00004D   7901         MOV     R1,#0x1
   \   00004F   8002         SJMP    ??ZDO_AnyClusterMatches_6
    539                }
    540              }
    541            }
    542          
    543            return false;
   \                     ??ZDO_AnyClusterMatches_2:
   \   000051   7900         MOV     R1,#0x0
   \                     ??ZDO_AnyClusterMatches_6:
   \   000053   02....       LJMP    ??Subroutine212_0 & 0xFFFF
    544          }

   \                                 In  segment BANKED_CODE, align 1, keep-with-next
   \                     ??Subroutine216_0:
   \   000000   F583         MOV     DPH,A
   \   000002                REQUIRE ??Subroutine217_0
   \   000002                ; // Fall through to label ??Subroutine217_0

   \                                 In  segment BANKED_CODE, align 1, keep-with-next
   \                     ?Subroutine196:
   \   000000   F8           MOV     R0,A
   \   000001   A3           INC     DPTR
   \   000002   E0           MOVX    A,@DPTR
   \   000003   F9           MOV     R1,A
   \   000004   22           RET

   \                                 In  segment BANKED_CODE, align 1, keep-with-next
   \                     ??Subroutine231_0:
   \   000000   12....       LCALL   ?Subroutine184 & 0xFFFF
   \                     ??CrossCallReturnLabel_460:
   \   000003   22           RET

   \                                 In  segment BANKED_CODE, align 1, keep-with-next
   \                     ?Subroutine184:
   \   000000   E0           MOVX    A,@DPTR
   \   000001   02....       LJMP    ?Subroutine196 & 0xFFFF

   \                                 In  segment BANKED_CODE, align 1, keep-with-next
   \                     ??Subroutine261_0:
   \   000000   33           RLC     A
   \   000001   FC           MOV     R4,A
   \   000002   E4           CLR     A
   \   000003   33           RLC     A
   \   000004   FD           MOV     R5,A
   \   000005   E8           MOV     A,R0
   \   000006   2C           ADD     A,R4
   \   000007   F582         MOV     DPL,A
   \   000009   E9           MOV     A,R1
   \   00000A   3D           ADDC    A,R5
   \   00000B   F583         MOV     DPH,A
   \   00000D   22           RET
    545          
    546          /*********************************************************************
    547           * Callback functions from ZDProfile
    548           */
    549          
    550          /*********************************************************************
    551           * @fn          ZDO_ProcessNodeDescReq
    552           *
    553           * @brief       This function processes and responds to the
    554           *              Node_Desc_req message.
    555           *
    556           * @param       inMsg - incoming message
    557           *
    558           * @return      none
    559           */

   \                                 In  segment BANKED_CODE, align 1, keep-with-next
    560          void ZDO_ProcessNodeDescReq( zdoIncomingMsg_t *inMsg )
   \                     ZDO_ProcessNodeDescReq:
    561          {
   \   000000   74F6         MOV     A,#-0xa
   \   000002   12....       LCALL   ?BANKED_ENTER_XDATA
   \   000005                ; Saved register size: 10
   \   000005                ; Auto size: 0
   \   000005   12....       LCALL   ?Subroutine60 & 0xFFFF
    562            uint16 aoi = BUILD_UINT16( inMsg->asdu[0], inMsg->asdu[1] );
    563            NodeDescriptorFormat_t *desc = NULL;
    564          
    565            if ( aoi == ZDAppNwkAddr.addr.shortAddr )
   \                     ??CrossCallReturnLabel_116:
   \   000008   7003         JNZ     ??ZDO_ProcessNodeDescReq_0
   \   00000A   A3           INC     DPTR
   \   00000B   E0           MOVX    A,@DPTR
   \   00000C   6D           XRL     A,R5
   \                     ??ZDO_ProcessNodeDescReq_0:
   \   00000D   7017         JNZ     ??ZDO_ProcessNodeDescReq_1
    566            {
    567              desc = &ZDO_Config_Node_Descriptor;
    568            }
    569          
    570            if ( desc != NULL )
    571            {
    572              ZDP_NodeDescMsg( inMsg, aoi, desc );
   \   00000F                ; Setup parameters for call to function ZDP_NodeDescMsg
   \   00000F   75....       MOV     ?V0 + 0,#(ZDO_Config_Node_Descriptor & 0xff)
   \   000012   75....       MOV     ?V0 + 1,#((ZDO_Config_Node_Descriptor >> 8) & 0xff)
   \   000015   78..         MOV     R0,#?V0 + 0
   \   000017   12....       LCALL   ?PUSH_XSTACK_I_TWO
   \   00001A   EE           MOV     A,R6
   \   00001B   FA           MOV     R2,A
   \   00001C   12....       LCALL   ??ZDP_NodeDescMsg?relay
   \   00001F   7402         MOV     A,#0x2
   \   000021   12....       LCALL   ?DEALLOC_XSTACK8
   \   000024   801A         SJMP    ??ZDO_ProcessNodeDescReq_2
    573            }
    574            else
    575            {
    576              ZDP_GenericRsp( inMsg->TransSeq, &(inMsg->srcAddr),
    577                        ZDP_INVALID_REQTYPE, aoi, Node_Desc_rsp, inMsg->SecurityUse );
   \                     ??ZDO_ProcessNodeDescReq_1:
   \   000026                ; Setup parameters for call to function ZDP_GenericRsp
   \   000026   75..02       MOV     ?V0 + 0,#0x2
   \   000029   75..80       MOV     ?V0 + 1,#-0x80
   \   00002C   78..         MOV     R0,#?V0 + 0
   \   00002E   12....       LCALL   ?PUSH_XSTACK_I_TWO
   \   000031   8C..         MOV     ?V0 + 0,R4
   \   000033   8D..         MOV     ?V0 + 1,R5
   \   000035   78..         MOV     R0,#?V0 + 0
   \   000037   12....       LCALL   ?PUSH_XSTACK_I_TWO
   \   00003A   12....       LCALL   ?Subroutine53 & 0xFFFF
    578            }
   \                     ??CrossCallReturnLabel_101:
   \   00003D   12....       LCALL   ?DEALLOC_XSTACK8
    579          }
   \                     ??ZDO_ProcessNodeDescReq_2:
   \   000040   80..         SJMP    ??Subroutine219_0

   \                                 In  segment BANKED_CODE, align 1, keep-with-next
   \                     ??Subroutine219_0:
   \   000000   7F02         MOV     R7,#0x2
   \   000002   02....       LJMP    ?BANKED_LEAVE_XDATA

   \                                 In  segment BANKED_CODE, align 1, keep-with-next
   \                     ?Subroutine60:
   \   000000   EA           MOV     A,R2
   \   000001   FE           MOV     R6,A
   \   000002   EB           MOV     A,R3
   \   000003   FF           MOV     R7,A
   \   000004   EE           MOV     A,R6
   \   000005   2413         ADD     A,#0x13
   \   000007   F582         MOV     DPL,A
   \   000009   EF           MOV     A,R7
   \   00000A   12....       LCALL   ?Subroutine153 & 0xFFFF
   \                     ??CrossCallReturnLabel_639:
   \   00000D   FC           MOV     R4,A
   \   00000E   E9           MOV     A,R1
   \   00000F   FD           MOV     R5,A
   \   000010   90....       MOV     DPTR,#ZDAppNwkAddr
   \   000013   E0           MOVX    A,@DPTR
   \   000014   6C           XRL     A,R4
   \   000015   22           RET

   \                                 In  segment BANKED_CODE, align 1, keep-with-next
   \                     ?Subroutine53:
   \   000000   EE           MOV     A,R6
   \   000001   240E         ADD     A,#0xe
   \   000003   12....       LCALL   ?Subroutine169 & 0xFFFF
   \                     ??CrossCallReturnLabel_437:
   \   000006   FD           MOV     R5,A
   \   000007   7C80         MOV     R4,#-0x80
   \   000009   12....       LCALL   ?Subroutine171 & 0xFFFF
   \                     ??CrossCallReturnLabel_232:
   \   00000C   12....       LCALL   ?Subroutine169 & 0xFFFF
   \                     ??CrossCallReturnLabel_438:
   \   00000F   F9           MOV     R1,A
   \   000010   12....       LCALL   ??ZDP_GenericRsp?relay
   \   000013   7404         MOV     A,#0x4
   \   000015   22           RET

   \                                 In  segment BANKED_CODE, align 1, keep-with-next
   \                     ?Subroutine171:
   \   000000   EE           MOV     A,R6
   \   000001   2402         ADD     A,#0x2
   \   000003   FA           MOV     R2,A
   \   000004   EF           MOV     A,R7
   \   000005   3400         ADDC    A,#0x0
   \   000007   FB           MOV     R3,A
   \   000008   EE           MOV     A,R6
   \   000009   240F         ADD     A,#0xf
   \   00000B   22           RET

   \                                 In  segment BANKED_CODE, align 1, keep-with-next
   \                     ?Subroutine153:
   \   000000   12....       LCALL   ?Subroutine181 & 0xFFFF
   \                     ??CrossCallReturnLabel_501:
   \   000003   02....       LJMP    ?Subroutine191 & 0xFFFF

   \                                 In  segment BANKED_CODE, align 1, keep-with-next
   \                     ?Subroutine169:
   \   000000   F582         MOV     DPL,A
   \   000002   EF           MOV     A,R7
   \   000003                REQUIRE ??Subroutine243_0
   \   000003                ; // Fall through to label ??Subroutine243_0

   \                                 In  segment BANKED_CODE, align 1, keep-with-next
   \                     ??Subroutine243_0:
   \   000000   3400         ADDC    A,#0x0
   \   000002   F583         MOV     DPH,A
   \   000004   E0           MOVX    A,@DPTR
   \   000005   22           RET

   \                                 In  segment BANKED_CODE, align 1, keep-with-next
   \                     ?Subroutine192:
   \   000000   8882         MOV     DPL,R0
   \   000002   8983         MOV     DPH,R1
   \   000004   E0           MOVX    A,@DPTR
   \   000005   22           RET

   \                                 In  segment BANKED_CODE, align 1, keep-with-next
   \                     ?Subroutine181:
   \   000000   3400         ADDC    A,#0x0
   \   000002   F583         MOV     DPH,A
   \   000004   12....       LCALL   ?Subroutine184 & 0xFFFF
   \                     ??CrossCallReturnLabel_459:
   \   000007   02....       LJMP    ?Subroutine192 & 0xFFFF

   \                                 In  segment BANKED_CODE, align 1, keep-with-next
   \                     ?Subroutine191:
   \   000000   FA           MOV     R2,A
   \   000001                REQUIRE ??Subroutine272_0
   \   000001                ; // Fall through to label ??Subroutine272_0

   \                                 In  segment BANKED_CODE, align 1, keep-with-next
   \                     ??Subroutine272_0:
   \   000000   A3           INC     DPTR
   \   000001   E0           MOVX    A,@DPTR
   \   000002   F9           MOV     R1,A
   \   000003   EA           MOV     A,R2
   \   000004   22           RET
    580          
    581          /*********************************************************************
    582           * @fn          ZDO_ProcessPowerDescReq
    583           *
    584           * @brief       This function processes and responds to the
    585           *              Node_Power_req message.
    586           *
    587           * @param       inMsg  - incoming request
    588           *
    589           * @return      none
    590           */

   \                                 In  segment BANKED_CODE, align 1, keep-with-next
    591          void ZDO_ProcessPowerDescReq( zdoIncomingMsg_t *inMsg )
   \                     ZDO_ProcessPowerDescReq:
    592          {
   \   000000   74F6         MOV     A,#-0xa
   \   000002   12....       LCALL   ?BANKED_ENTER_XDATA
   \   000005                ; Saved register size: 10
   \   000005                ; Auto size: 0
   \   000005   12....       LCALL   ?Subroutine60 & 0xFFFF
    593            uint16 aoi = BUILD_UINT16( inMsg->asdu[0], inMsg->asdu[1] );
    594            NodePowerDescriptorFormat_t *desc = NULL;
    595          
    596            if ( aoi == ZDAppNwkAddr.addr.shortAddr )
   \                     ??CrossCallReturnLabel_117:
   \   000008   7003         JNZ     ??ZDO_ProcessPowerDescReq_0
   \   00000A   A3           INC     DPTR
   \   00000B   E0           MOVX    A,@DPTR
   \   00000C   6D           XRL     A,R5
   \                     ??ZDO_ProcessPowerDescReq_0:
   \   00000D   7017         JNZ     ??ZDO_ProcessPowerDescReq_1
    597            {
    598              desc = &ZDO_Config_Power_Descriptor;
    599            }
    600          
    601            if ( desc != NULL )
    602            {
    603              ZDP_PowerDescMsg( inMsg, aoi, desc );
   \   00000F                ; Setup parameters for call to function ZDP_PowerDescMsg
   \   00000F   75....       MOV     ?V0 + 0,#(ZDO_Config_Power_Descriptor & 0xff)
   \   000012   75....       MOV     ?V0 + 1,#((ZDO_Config_Power_Descriptor >> 8) & 0xff)
   \   000015   78..         MOV     R0,#?V0 + 0
   \   000017   12....       LCALL   ?PUSH_XSTACK_I_TWO
   \   00001A   EE           MOV     A,R6
   \   00001B   FA           MOV     R2,A
   \   00001C   12....       LCALL   ??ZDP_PowerDescMsg?relay
   \   00001F   7402         MOV     A,#0x2
   \   000021   12....       LCALL   ?DEALLOC_XSTACK8
   \   000024   801A         SJMP    ??ZDO_ProcessPowerDescReq_2
    604            }
    605            else
    606            {
    607              ZDP_GenericRsp( inMsg->TransSeq, &(inMsg->srcAddr),
    608                        ZDP_INVALID_REQTYPE, aoi, Power_Desc_rsp, inMsg->SecurityUse );
   \                     ??ZDO_ProcessPowerDescReq_1:
   \   000026                ; Setup parameters for call to function ZDP_GenericRsp
   \   000026   75..03       MOV     ?V0 + 0,#0x3
   \   000029   75..80       MOV     ?V0 + 1,#-0x80
   \   00002C   78..         MOV     R0,#?V0 + 0
   \   00002E   12....       LCALL   ?PUSH_XSTACK_I_TWO
   \   000031   8C..         MOV     ?V0 + 0,R4
   \   000033   8D..         MOV     ?V0 + 1,R5
   \   000035   78..         MOV     R0,#?V0 + 0
   \   000037   12....       LCALL   ?PUSH_XSTACK_I_TWO
   \   00003A   12....       LCALL   ?Subroutine53 & 0xFFFF
    609            }
   \                     ??CrossCallReturnLabel_102:
   \   00003D   12....       LCALL   ?DEALLOC_XSTACK8
    610          }
   \                     ??ZDO_ProcessPowerDescReq_2:
   \   000040   80..         SJMP    ??Subroutine219_0
    611          
    612          /*********************************************************************
    613           * @fn          ZDO_ProcessSimpleDescReq
    614           *
    615           * @brief       This function processes and responds to the
    616           *              Simple_Desc_req message.
    617           *
    618           * @param       inMsg - incoming message (request)
    619           *
    620           * @return      none
    621           */

   \                                 In  segment BANKED_CODE, align 1, keep-with-next
   \                     ?Subroutine207:
   \   000000   7402         MOV     A,#0x2
   \   000002                REQUIRE ??Subroutine218_0
   \   000002                ; // Fall through to label ??Subroutine218_0

   \                                 In  segment BANKED_CODE, align 1, keep-with-next
   \                     ??Subroutine218_0:
   \   000000   12....       LCALL   ?DEALLOC_XSTACK8
   \   000003                REQUIRE ??Subroutine219_0
   \   000003                ; // Fall through to label ??Subroutine219_0

   \                                 In  segment BANKED_CODE, align 1, keep-with-next
    622          void ZDO_ProcessSimpleDescReq( zdoIncomingMsg_t *inMsg )
   \                     ZDO_ProcessSimpleDescReq:
    623          {
   \   000000   74F6         MOV     A,#-0xa
   \   000002   12....       LCALL   ?BANKED_ENTER_XDATA
   \   000005                ; Saved register size: 10
   \   000005                ; Auto size: 2
   \   000005   74FE         MOV     A,#-0x2
   \   000007   12....       LCALL   ?ALLOC_XSTACK8
   \   00000A   EA           MOV     A,R2
   \   00000B   FE           MOV     R6,A
   \   00000C   EB           MOV     A,R3
   \   00000D   FF           MOV     R7,A
    624            SimpleDescriptionFormat_t *sDesc = NULL;
   \   00000E   85..82       MOV     DPL,?XSP + 0
   \   000011   85..83       MOV     DPH,?XSP + 1
   \   000014   E4           CLR     A
   \   000015   F0           MOVX    @DPTR,A
   \   000016   A3           INC     DPTR
   \   000017   F0           MOVX    @DPTR,A
    625            uint16 aoi = BUILD_UINT16( inMsg->asdu[0], inMsg->asdu[1] );
   \   000018   12....       LCALL   ?Subroutine116 & 0xFFFF
   \                     ??CrossCallReturnLabel_573:
   \   00001B   EF           MOV     A,R7
   \   00001C   12....       LCALL   ?Subroutine72 & 0xFFFF
   \                     ??CrossCallReturnLabel_131:
   \   00001F   FA           MOV     R2,A
    626            byte endPoint = inMsg->asdu[2];
   \   000020   8882         MOV     DPL,R0
   \   000022   8983         MOV     DPH,R1
   \   000024   A3           INC     DPTR
   \   000025   A3           INC     DPTR
   \   000026   E0           MOVX    A,@DPTR
   \   000027   F9           MOV     R1,A
    627            byte free = false;
   \   000028   75..00       MOV     ?V0 + 0,#0x0
    628            byte stat = ZDP_SUCCESS;
   \   00002B   75..00       MOV     ?V0 + 1,#0x0
    629          
    630            if ( (endPoint == ZDO_EP) || (endPoint > MAX_ENDPOINTS) )
   \   00002E   6004         JZ      ??ZDO_ProcessSimpleDescReq_0
   \   000030   94F1         SUBB    A,#-0xf
   \   000032   4005         JC      ??ZDO_ProcessSimpleDescReq_1
    631            {
    632              stat = ZDP_INVALID_EP;
   \                     ??ZDO_ProcessSimpleDescReq_0:
   \   000034   75..82       MOV     ?V0 + 1,#-0x7e
   \   000037   8031         SJMP    ??ZDO_ProcessSimpleDescReq_2
    633            }
    634            else if ( aoi == ZDAppNwkAddr.addr.shortAddr )
   \                     ??ZDO_ProcessSimpleDescReq_1:
   \   000039   90....       MOV     DPTR,#ZDAppNwkAddr
   \   00003C   E0           MOVX    A,@DPTR
   \   00003D   6A           XRL     A,R2
   \   00003E   7003         JNZ     ??ZDO_ProcessSimpleDescReq_3
   \   000040   A3           INC     DPTR
   \   000041   E0           MOVX    A,@DPTR
   \   000042   6B           XRL     A,R3
   \                     ??ZDO_ProcessSimpleDescReq_3:
   \   000043   7022         JNZ     ??ZDO_ProcessSimpleDescReq_4
    635            {
    636              free = afFindSimpleDesc( &sDesc, endPoint );
   \   000045                ; Setup parameters for call to function afFindSimpleDesc
   \   000045   85..82       MOV     DPL,?XSP + 0
   \   000048   85..83       MOV     DPH,?XSP + 1
   \   00004B   AA82         MOV     R2,DPL
   \   00004D   AB83         MOV     R3,DPH
   \   00004F   12....       LCALL   ??afFindSimpleDesc?relay
   \   000052   E9           MOV     A,R1
   \   000053   F5..         MOV     ?V0 + 0,A
    637              if ( sDesc == NULL )
   \   000055   85..82       MOV     DPL,?XSP + 0
   \   000058   85..83       MOV     DPH,?XSP + 1
   \   00005B   E0           MOVX    A,@DPTR
   \   00005C   7002         JNZ     ??ZDO_ProcessSimpleDescReq_5
   \   00005E   A3           INC     DPTR
   \   00005F   E0           MOVX    A,@DPTR
   \                     ??ZDO_ProcessSimpleDescReq_5:
   \   000060   7008         JNZ     ??ZDO_ProcessSimpleDescReq_2
    638              {
    639                stat = ZDP_NOT_ACTIVE;
   \   000062   75..83       MOV     ?V0 + 1,#-0x7d
   \   000065   8003         SJMP    ??ZDO_ProcessSimpleDescReq_2
    640              }
    641            }
    642            else
    643            {
    644              if ( ZSTACK_ROUTER_BUILD )
    645              {
    646                stat = ZDP_DEVICE_NOT_FOUND;
    647              }
    648              else if ( ZSTACK_END_DEVICE_BUILD )
    649              {
    650                stat = ZDP_INVALID_REQTYPE;
   \                     ??ZDO_ProcessSimpleDescReq_4:
   \   000067   75..80       MOV     ?V0 + 1,#-0x80
    651              }
    652            }
    653          
    654            ZDP_SimpleDescMsg( inMsg, stat, sDesc );
   \                     ??ZDO_ProcessSimpleDescReq_2:
   \   00006A                ; Setup parameters for call to function ZDP_SimpleDescMsg
   \   00006A   85..82       MOV     DPL,?XSP + 0
   \   00006D   85..83       MOV     DPH,?XSP + 1
   \   000070   12....       LCALL   ?Subroutine102 & 0xFFFF
   \                     ??CrossCallReturnLabel_162:
   \   000073   A9..         MOV     R1,?V0 + 1
   \   000075   EE           MOV     A,R6
   \   000076   FA           MOV     R2,A
   \   000077   EF           MOV     A,R7
   \   000078   FB           MOV     R3,A
   \   000079   12....       LCALL   ??ZDP_SimpleDescMsg?relay
    655          
    656            if ( free && sDesc )
   \   00007C   E5..         MOV     A,?V0 + 0
   \   00007E   6010         JZ      ??CrossCallReturnLabel_411
   \   000080   85..82       MOV     DPL,?XSP + 0
   \   000083   85..83       MOV     DPH,?XSP + 1
   \   000086   E0           MOVX    A,@DPTR
   \   000087   7002         JNZ     ??ZDO_ProcessSimpleDescReq_6
   \   000089   A3           INC     DPTR
   \   00008A   E0           MOVX    A,@DPTR
   \                     ??ZDO_ProcessSimpleDescReq_6:
   \   00008B   6003         JZ      ??CrossCallReturnLabel_411
    657            {
    658              osal_mem_free( sDesc );
   \   00008D                ; Setup parameters for call to function osal_mem_free
   \   00008D   12....       LCALL   ?Subroutine49 & 0xFFFF
    659            }
    660          }
   \                     ??CrossCallReturnLabel_411:
   \   000090   02....       LJMP    ?Subroutine207 & 0xFFFF

   \                                 In  segment BANKED_CODE, align 1, keep-with-next
   \                     ?Subroutine102:
   \   000000   E0           MOVX    A,@DPTR
   \   000001   FC           MOV     R4,A
   \   000002   A3           INC     DPTR
   \   000003   E0           MOVX    A,@DPTR
   \   000004   FD           MOV     R5,A
   \   000005   22           RET

   \                                 In  segment BANKED_CODE, align 1, keep-with-next
   \                     ?Subroutine72:
   \   000000   12....       LCALL   ?Subroutine160 & 0xFFFF
   \                     ??CrossCallReturnLabel_219:
   \   000003   FC           MOV     R4,A
   \   000004   A3           INC     DPTR
   \   000005   E0           MOVX    A,@DPTR
   \   000006   FB           MOV     R3,A
   \   000007   E4           CLR     A
   \   000008   2C           ADD     A,R4
   \   000009   22           RET

   \                                 In  segment BANKED_CODE, align 1, keep-with-next
   \                     ?Subroutine49:
   \   000000   85..82       MOV     DPL,?XSP + 0
   \   000003   85..83       MOV     DPH,?XSP + 1
   \   000006                REQUIRE ??Subroutine241_0
   \   000006                ; // Fall through to label ??Subroutine241_0

   \                                 In  segment BANKED_CODE, align 1, keep-with-next
   \                     ??Subroutine241_0:
   \   000000   12....       LCALL   ?Subroutine156 & 0xFFFF
   \                     ??CrossCallReturnLabel_426:
   \   000003   12....       LCALL   ??osal_mem_free?relay
   \   000006   22           RET

   \                                 In  segment BANKED_CODE, align 1, keep-with-next
   \                     ?Subroutine160:
   \   000000   12....       LCALL   ?Subroutine181 & 0xFFFF
   \                     ??CrossCallReturnLabel_492:
   \   000003   22           RET

   \                                 In  segment BANKED_CODE, align 1, keep-with-next
   \                     ?Subroutine116:
   \   000000   EE           MOV     A,R6
   \   000001                REQUIRE ??Subroutine259_0
   \   000001                ; // Fall through to label ??Subroutine259_0

   \                                 In  segment BANKED_CODE, align 1, keep-with-next
   \                     ??Subroutine259_0:
   \   000000   2413         ADD     A,#0x13
   \   000002   F582         MOV     DPL,A
   \   000004   22           RET
    661          
    662          /*********************************************************************
    663           * @fn          ZDO_ProcessActiveEPReq
    664           *
    665           * @brief       This function processes and responds to the
    666           *              Active_EP_req message.
    667           *
    668           * @param       inMsg  - incoming message (request)
    669           *
    670           * @return      none
    671           */

   \                                 In  segment BANKED_CODE, align 1, keep-with-next
    672          void ZDO_ProcessActiveEPReq( zdoIncomingMsg_t *inMsg )
   \                     ZDO_ProcessActiveEPReq:
    673          {
   \   000000   74F2         MOV     A,#-0xe
   \   000002   12....       LCALL   ?BANKED_ENTER_XDATA
   \   000005                ; Saved register size: 14
   \   000005                ; Auto size: 0
   \   000005   8A..         MOV     ?V0 + 4,R2
   \   000007   8B..         MOV     ?V0 + 5,R3
    674            byte cnt = 0;
   \   000009   75..00       MOV     ?V0 + 0,#0x0
    675            uint16 aoi;
    676            byte stat = ZDP_SUCCESS;
   \   00000C   75..00       MOV     ?V0 + 1,#0x0
    677          
    678            aoi = BUILD_UINT16( inMsg->asdu[0], inMsg->asdu[1] );
   \   00000F   12....       LCALL   ?Subroutine65 & 0xFFFF
    679          
    680            if ( aoi == NLME_GetShortAddr() )
   \                     ??CrossCallReturnLabel_124:
   \   000012                ; Setup parameters for call to function NLME_GetShortAddr
   \   000012   12....       LCALL   ??NLME_GetShortAddr?relay
   \   000015   EA           MOV     A,R2
   \   000016   6E           XRL     A,R6
   \   000017   7002         JNZ     ??ZDO_ProcessActiveEPReq_0
   \   000019   EB           MOV     A,R3
   \   00001A   6F           XRL     A,R7
   \                     ??ZDO_ProcessActiveEPReq_0:
   \   00001B   7012         JNZ     ??ZDO_ProcessActiveEPReq_1
    681            {
    682              cnt = afNumEndPoints() - 1;  // -1 for ZDO endpoint descriptor
   \   00001D                ; Setup parameters for call to function afNumEndPoints
   \   00001D   12....       LCALL   ??afNumEndPoints?relay
   \   000020   E9           MOV     A,R1
   \   000021   14           DEC     A
   \   000022   F5..         MOV     ?V0 + 0,A
    683              afEndPoints( (uint8 *)ZDOBuildBuf, true );
   \   000024                ; Setup parameters for call to function afEndPoints
   \   000024   7901         MOV     R1,#0x1
   \   000026   7A..         MOV     R2,#(ZDOBuildBuf & 0xff)
   \   000028   7B..         MOV     R3,#((ZDOBuildBuf >> 8) & 0xff)
   \   00002A   12....       LCALL   ??afEndPoints?relay
   \   00002D   8003         SJMP    ??ZDO_ProcessActiveEPReq_2
    684            }
    685            else
    686            {
    687              stat = ZDP_INVALID_REQTYPE;
   \                     ??ZDO_ProcessActiveEPReq_1:
   \   00002F   75..80       MOV     ?V0 + 1,#-0x80
    688            }
    689          
    690            ZDP_ActiveEPRsp( inMsg->TransSeq, &(inMsg->srcAddr), stat,
    691                            aoi, cnt, (uint8 *)ZDOBuildBuf, inMsg->SecurityUse );
   \                     ??ZDO_ProcessActiveEPReq_2:
   \   000032                ; Setup parameters for call to function ZDP_EPRsp
   \   000032   E5..         MOV     A,?V0 + 4
   \   000034   240E         ADD     A,#0xe
   \   000036   12....       LCALL   ?Subroutine123 & 0xFFFF
   \                     ??CrossCallReturnLabel_433:
   \   000039   F5..         MOV     ?V0 + 2,A
   \   00003B   78..         MOV     R0,#?V0 + 2
   \   00003D   12....       LCALL   ?PUSH_XSTACK_I_ONE
   \   000040   75....       MOV     ?V0 + 2,#(ZDOBuildBuf & 0xff)
   \   000043   75....       MOV     ?V0 + 3,#((ZDOBuildBuf >> 8) & 0xff)
   \   000046   78..         MOV     R0,#?V0 + 2
   \   000048   12....       LCALL   ?PUSH_XSTACK_I_TWO
   \   00004B   78..         MOV     R0,#?V0 + 0
   \   00004D   12....       LCALL   ?PUSH_XSTACK_I_ONE
   \   000050   8E..         MOV     ?V0 + 2,R6
   \   000052   8F..         MOV     ?V0 + 3,R7
   \   000054   78..         MOV     R0,#?V0 + 2
   \   000056   12....       LCALL   ?PUSH_XSTACK_I_TWO
   \   000059   E5..         MOV     A,?V0 + 1
   \   00005B   F5..         MOV     ?V0 + 0,A
   \   00005D   78..         MOV     R0,#?V0 + 0
   \   00005F   12....       LCALL   ?PUSH_XSTACK_I_ONE
   \   000062   12....       LCALL   ?Subroutine129 & 0xFFFF
   \                     ??CrossCallReturnLabel_188:
   \   000065   12....       LCALL   ?Subroutine122 & 0xFFFF
   \                     ??CrossCallReturnLabel_303:
   \   000068   7A05         MOV     R2,#0x5
   \   00006A   7B80         MOV     R3,#-0x80
   \   00006C   12....       LCALL   ??ZDP_EPRsp?relay
   \   00006F   02....       LJMP    ?Subroutine208 & 0xFFFF
    692          }

   \                                 In  segment BANKED_CODE, align 1, keep-with-next
   \                     ?Subroutine122:
   \   000000   F582         MOV     DPL,A
   \   000002   E5..         MOV     A,?V0 + 5
   \   000004                REQUIRE ??Subroutine220_0
   \   000004                ; // Fall through to label ??Subroutine220_0

   \                                 In  segment BANKED_CODE, align 1, keep-with-next
   \                     ??Subroutine220_0:
   \   000000   12....       LCALL   ??Subroutine243_0 & 0xFFFF
   \                     ??CrossCallReturnLabel_439:
   \   000003   F9           MOV     R1,A
   \   000004   22           RET

   \                                 In  segment BANKED_CODE, align 1, keep-with-next
   \                     ?Subroutine65:
   \   000000   12....       LCALL   ?Subroutine165 & 0xFFFF
   \                     ??CrossCallReturnLabel_225:
   \   000003   12....       LCALL   ?Subroutine153 & 0xFFFF
   \                     ??CrossCallReturnLabel_640:
   \   000006   FE           MOV     R6,A
   \   000007   E9           MOV     A,R1
   \   000008   FF           MOV     R7,A
   \   000009   22           RET

   \                                 In  segment BANKED_CODE, align 1, keep-with-next
   \                     ?Subroutine165:
   \   000000   EA           MOV     A,R2
   \   000001   2413         ADD     A,#0x13
   \   000003   F582         MOV     DPL,A
   \   000005   EB           MOV     A,R3
   \   000006   22           RET

   \                                 In  segment BANKED_CODE, align 1, keep-with-next
   \                     ?Subroutine129:
   \   000000   E5..         MOV     A,?V0 + 4
   \   000002   2402         ADD     A,#0x2
   \   000004   FC           MOV     R4,A
   \   000005   E5..         MOV     A,?V0 + 5
   \   000007   3400         ADDC    A,#0x0
   \   000009   FD           MOV     R5,A
   \   00000A   E5..         MOV     A,?V0 + 4
   \   00000C   240F         ADD     A,#0xf
   \   00000E   22           RET

   \                                 In  segment BANKED_CODE, align 1, keep-with-next
   \                     ?Subroutine208:
   \   000000   7407         MOV     A,#0x7
   \   000002                REQUIRE ??Subroutine234_0
   \   000002                ; // Fall through to label ??Subroutine234_0

   \                                 In  segment BANKED_CODE, align 1, keep-with-next
   \                     ??Subroutine234_0:
   \   000000   12....       LCALL   ?DEALLOC_XSTACK8
   \   000003                REQUIRE ??Subroutine235_0
   \   000003                ; // Fall through to label ??Subroutine235_0

   \                                 In  segment BANKED_CODE, align 1, keep-with-next
   \                     ??Subroutine235_0:
   \   000000   7F06         MOV     R7,#0x6
   \   000002   02....       LJMP    ?BANKED_LEAVE_XDATA

   \                                 In  segment BANKED_CODE, align 1, keep-with-next
   \                     ?Subroutine123:
   \   000000   F582         MOV     DPL,A
   \   000002   E5..         MOV     A,?V0 + 5
   \   000004                REQUIRE ??Subroutine242_0
   \   000004                ; // Fall through to label ??Subroutine242_0

   \                                 In  segment BANKED_CODE, align 1, keep-with-next
   \                     ??Subroutine242_0:
   \   000000   12....       LCALL   ??Subroutine243_0 & 0xFFFF
   \                     ??CrossCallReturnLabel_440:
   \   000003   22           RET
    693          
    694          /*********************************************************************
    695           * @fn          ZDO_ConvertOTAClusters
    696           *
    697           * @brief       This function will convert the over-the-air cluster list
    698           *              format to an internal format.
    699           *
    700           * @param       inMsg  - incoming message (request)
    701           *
    702           * @return      pointer to incremented inBuf
    703           */

   \                                 In  segment BANKED_CODE, align 1, keep-with-next
    704          uint8 *ZDO_ConvertOTAClusters( uint8 cnt, uint8 *inBuf, uint16 *outList )
   \                     ZDO_ConvertOTAClusters:
    705          {
   \   000000   74F5         MOV     A,#-0xb
   \   000002   12....       LCALL   ?BANKED_ENTER_XDATA
   \   000005                ; Saved register size: 11
   \   000005                ; Auto size: 0
   \   000005   E9           MOV     A,R1
   \   000006   FE           MOV     R6,A
    706            uint8 x;
    707          
    708            for ( x = 0; x < cnt; x++ )
   \   000007   7F00         MOV     R7,#0x0
   \   000009   8020         SJMP    ??ZDO_ConvertOTAClusters_0
    709            {
    710              // convert ota format to internal
    711              outList[x] = BUILD_UINT16( inBuf[0], inBuf[1] );
   \                     ??ZDO_ConvertOTAClusters_1:
   \   00000B   8A82         MOV     DPL,R2
   \   00000D   8B83         MOV     DPH,R3
   \   00000F   12....       LCALL   ??Subroutine215_0 & 0xFFFF
   \                     ??CrossCallReturnLabel_289:
   \   000012   F9           MOV     R1,A
   \   000013   E4           CLR     A
   \   000014   25..         ADD     A,?V0 + 0
   \   000016   E9           MOV     A,R1
   \   000017   F5..         MOV     ?V0 + 1,A
   \   000019   EF           MOV     A,R7
   \   00001A   33           RLC     A
   \   00001B   F8           MOV     R0,A
   \   00001C   E4           CLR     A
   \   00001D   33           RLC     A
   \   00001E   F9           MOV     R1,A
   \   00001F   EC           MOV     A,R4
   \   000020   28           ADD     A,R0
   \   000021   F582         MOV     DPL,A
   \   000023   ED           MOV     A,R5
   \   000024   12....       LCALL   ?Subroutine112 & 0xFFFF
    712              inBuf += sizeof( uint16 );
   \                     ??CrossCallReturnLabel_173:
   \   000027   12....       LCALL   ?Subroutine130 & 0xFFFF
    713            }
   \                     ??CrossCallReturnLabel_190:
   \   00002A   0F           INC     R7
   \                     ??ZDO_ConvertOTAClusters_0:
   \   00002B   EF           MOV     A,R7
   \   00002C   C3           CLR     C
   \   00002D   9E           SUBB    A,R6
   \   00002E   40DB         JC      ??ZDO_ConvertOTAClusters_1
    714            return ( inBuf );
   \   000030   7F03         MOV     R7,#0x3
   \   000032   02....       LJMP    ?BANKED_LEAVE_XDATA
    715          }

   \                                 In  segment BANKED_CODE, align 1, keep-with-next
   \                     ?Subroutine130:
   \   000000   EA           MOV     A,R2
   \   000001   2402         ADD     A,#0x2
   \   000003   0A           INC     R2
   \   000004   0A           INC     R2
   \   000005   EB           MOV     A,R3
   \   000006   3400         ADDC    A,#0x0
   \   000008   FB           MOV     R3,A
   \   000009   22           RET
    716          
    717          /*********************************************************************
    718           * @fn          ZDO_ProcessMatchDescReq
    719           *
    720           * @brief       This function processes and responds to the
    721           *              Match_Desc_req message.
    722           *
    723           * @param       inMsg  - incoming message (request)
    724           *
    725           * @return      none
    726           */

   \                                 In  segment BANKED_CODE, align 1, keep-with-next
    727          void ZDO_ProcessMatchDescReq( zdoIncomingMsg_t *inMsg )
   \                     ZDO_ProcessMatchDescReq:
    728          {
   \   000000   74F0         MOV     A,#-0x10
   \   000002   12....       LCALL   ?BANKED_ENTER_XDATA
   \   000005                ; Saved register size: 16
   \   000005                ; Auto size: 11
   \   000005   74F5         MOV     A,#-0xb
   \   000007   12....       LCALL   ?ALLOC_XSTACK8
   \   00000A   7403         MOV     A,#0x3
   \   00000C   12....       LCALL   ?XSTACK_DISP0_8
   \   00000F   12....       LCALL   ?Subroutine38 & 0xFFFF
    729            uint8 epCnt = 0;
   \                     ??CrossCallReturnLabel_58:
   \   000012   7402         MOV     A,#0x2
   \   000014   12....       LCALL   ?XSTACK_DISP0_8
   \   000017   E4           CLR     A
   \   000018   F0           MOVX    @DPTR,A
    730            uint8 numInClusters;
    731            uint16 *inClusters = NULL;
   \   000019   7409         MOV     A,#0x9
   \   00001B   12....       LCALL   ?XSTACK_DISP0_8
   \   00001E   E4           CLR     A
   \   00001F   F0           MOVX    @DPTR,A
   \   000020   A3           INC     DPTR
   \   000021   F0           MOVX    @DPTR,A
    732            uint8 numOutClusters;
    733            uint16 *outClusters = NULL;
   \   000022   7407         MOV     A,#0x7
   \   000024   12....       LCALL   ?XSTACK_DISP0_8
   \   000027   E4           CLR     A
   \   000028   F0           MOVX    @DPTR,A
   \   000029   A3           INC     DPTR
   \   00002A   F0           MOVX    @DPTR,A
    734            epList_t *epDesc;
    735            SimpleDescriptionFormat_t *sDesc = NULL;
    736            uint8 allocated;
    737            uint8 *msg;
    738            uint16 aoi;
    739            uint16 profileID;
    740          
    741            // Parse the incoming message
    742            msg = inMsg->asdu;
   \   00002B   7403         MOV     A,#0x3
   \   00002D   12....       LCALL   ?XSTACK_DISP0_8
   \   000030   E0           MOVX    A,@DPTR
   \   000031   2413         ADD     A,#0x13
   \   000033   12....       LCALL   ?Subroutine64 & 0xFFFF
   \                     ??CrossCallReturnLabel_121:
   \   000036   A3           INC     DPTR
   \   000037   E0           MOVX    A,@DPTR
   \   000038   F5..         MOV     ?V0 + 3,A
    743            aoi = BUILD_UINT16( msg[0], msg[1] );
   \   00003A   85..82       MOV     DPL,?V0 + 2
   \   00003D   F583         MOV     DPH,A
   \   00003F   12....       LCALL   ??Subroutine271_0 & 0xFFFF
   \                     ??CrossCallReturnLabel_641:
   \   000042   F5..         MOV     ?V0 + 0,A
   \   000044   E9           MOV     A,R1
   \   000045   F5..         MOV     ?V0 + 1,A
    744            profileID = BUILD_UINT16( msg[2], msg[3] );
   \   000047   85..82       MOV     DPL,?V0 + 2
   \   00004A   85..83       MOV     DPH,?V0 + 3
   \   00004D   A3           INC     DPTR
   \   00004E   A3           INC     DPTR
   \   00004F   E0           MOVX    A,@DPTR
   \   000050   FA           MOV     R2,A
   \   000051   85..82       MOV     DPL,?V0 + 2
   \   000054   85..83       MOV     DPH,?V0 + 3
   \   000057   A3           INC     DPTR
   \   000058   A3           INC     DPTR
   \   000059   A3           INC     DPTR
   \   00005A   E0           MOVX    A,@DPTR
   \   00005B   F9           MOV     R1,A
   \   00005C   EA           MOV     A,R2
   \   00005D   FE           MOV     R6,A
   \   00005E   E9           MOV     A,R1
   \   00005F   FF           MOV     R7,A
    745            msg += 4;
   \   000060   E5..         MOV     A,?V0 + 2
   \   000062   2404         ADD     A,#0x4
   \   000064   12....       LCALL   ?Subroutine125 & 0xFFFF
   \                     ??CrossCallReturnLabel_579:
   \   000067                ; Setup parameters for call to function NLME_IsAddressBroadcast
   \   000067   AA..         MOV     R2,?V0 + 0
   \   000069   AB..         MOV     R3,?V0 + 1
    746          
    747            if ( ADDR_BCAST_NOT_ME == NLME_IsAddressBroadcast(aoi) )
   \   00006B   12....       LCALL   ??NLME_IsAddressBroadcast?relay
   \   00006E   E9           MOV     A,R1
   \   00006F   6401         XRL     A,#0x1
   \   000071   703D         JNZ     ??ZDO_ProcessMatchDescReq_0
    748            {
    749              ZDP_MatchDescRsp( inMsg->TransSeq, &(inMsg->srcAddr), ZDP_INVALID_REQTYPE,
    750                                    ZDAppNwkAddr.addr.shortAddr, 0, NULL, inMsg->SecurityUse );
   \                     ??ZDO_ProcessMatchDescReq_1:
   \   000073                ; Setup parameters for call to function ZDP_EPRsp
   \   000073   7403         MOV     A,#0x3
   \   000075   12....       LCALL   ?XSTACK_DISP0_8
   \   000078   12....       LCALL   ?Subroutine62 & 0xFFFF
   \                     ??CrossCallReturnLabel_373:
   \   00007B   12....       LCALL   ?PUSH_XSTACK_I_ONE
   \   00007E   75..00       MOV     ?V0 + 0,#0x0
   \   000081   75..00       MOV     ?V0 + 1,#0x0
   \   000084   78..         MOV     R0,#?V0 + 0
   \   000086   12....       LCALL   ?PUSH_XSTACK_I_TWO
   \   000089   78..         MOV     R0,#?V0 + 0
   \   00008B   12....       LCALL   ?PUSH_XSTACK_I_ONE
   \   00008E   90....       MOV     DPTR,#ZDAppNwkAddr
   \   000091   12....       LCALL   ?PUSH_XSTACK8_X_TWO
   \   000094   75..80       MOV     ?V0 + 0,#-0x80
   \   000097   78..         MOV     R0,#?V0 + 0
   \   000099   12....       LCALL   ?PUSH_XSTACK_I_ONE
   \   00009C   740A         MOV     A,#0xa
   \   00009E   12....       LCALL   ?XSTACK_DISP0_8
   \   0000A1   12....       LCALL   ?Subroutine90 & 0xFFFF
   \                     ??CrossCallReturnLabel_150:
   \   0000A4   12....       LCALL   ?XSTACK_DISP0_8
   \   0000A7   12....       LCALL   ?Subroutine55 & 0xFFFF
   \                     ??CrossCallReturnLabel_103:
   \   0000AA   12....       LCALL   ?DEALLOC_XSTACK8
    751              return;
   \   0000AD   02....       LJMP    ??CrossCallReturnLabel_415 & 0xFFFF
    752            }
    753            else if ( (ADDR_NOT_BCAST == NLME_IsAddressBroadcast(aoi)) && (aoi != ZDAppNwkAddr.addr.shortAddr) )
   \                     ??ZDO_ProcessMatchDescReq_0:
   \   0000B0                ; Setup parameters for call to function NLME_IsAddressBroadcast
   \   0000B0   AA..         MOV     R2,?V0 + 0
   \   0000B2   AB..         MOV     R3,?V0 + 1
   \   0000B4   12....       LCALL   ??NLME_IsAddressBroadcast?relay
   \   0000B7   E9           MOV     A,R1
   \   0000B8   700E         JNZ     ??ZDO_ProcessMatchDescReq_2
   \   0000BA   90....       MOV     DPTR,#ZDAppNwkAddr
   \   0000BD   E0           MOVX    A,@DPTR
   \   0000BE   65..         XRL     A,?V0 + 0
   \   0000C0   7004         JNZ     ??ZDO_ProcessMatchDescReq_3
   \   0000C2   A3           INC     DPTR
   \   0000C3   E0           MOVX    A,@DPTR
   \   0000C4   65..         XRL     A,?V0 + 1
   \                     ??ZDO_ProcessMatchDescReq_3:
   \   0000C6   70AB         JNZ     ??ZDO_ProcessMatchDescReq_1
    754            {
    755              ZDP_MatchDescRsp( inMsg->TransSeq, &(inMsg->srcAddr), ZDP_INVALID_REQTYPE,
    756                                       ZDAppNwkAddr.addr.shortAddr, 0, NULL, inMsg->SecurityUse );
    757              return;
    758            }
    759          
    760            if ((numInClusters = *msg++) &&
    761                (inClusters = (uint16*)osal_mem_alloc( numInClusters * sizeof( uint16 ) )))
   \                     ??ZDO_ProcessMatchDescReq_2:
   \   0000C8   12....       LCALL   ?Subroutine103 & 0xFFFF
   \                     ??CrossCallReturnLabel_166:
   \   0000CB   8A..         MOV     ?V0 + 5,R2
   \   0000CD   6030         JZ      ??ZDO_ProcessMatchDescReq_4
   \   0000CF                ; Setup parameters for call to function osal_mem_alloc
   \   0000CF   C3           CLR     C
   \   0000D0   33           RLC     A
   \   0000D1   FA           MOV     R2,A
   \   0000D2   E4           CLR     A
   \   0000D3   33           RLC     A
   \   0000D4   FB           MOV     R3,A
   \   0000D5   12....       LCALL   ??osal_mem_alloc?relay
   \   0000D8   7409         MOV     A,#0x9
   \   0000DA   12....       LCALL   ?XSTACK_DISP0_8
   \   0000DD   12....       LCALL   ?Subroutine38 & 0xFFFF
   \                     ??CrossCallReturnLabel_59:
   \   0000E0   7409         MOV     A,#0x9
   \   0000E2   12....       LCALL   ?XSTACK_DISP0_8
   \   0000E5   E0           MOVX    A,@DPTR
   \   0000E6   7002         JNZ     ??ZDO_ProcessMatchDescReq_5
   \   0000E8   A3           INC     DPTR
   \   0000E9   E0           MOVX    A,@DPTR
   \                     ??ZDO_ProcessMatchDescReq_5:
   \   0000EA   6013         JZ      ??ZDO_ProcessMatchDescReq_4
    762            {
    763              msg = ZDO_ConvertOTAClusters( numInClusters, msg, inClusters );
   \   0000EC                ; Setup parameters for call to function ZDO_ConvertOTAClusters
   \   0000EC   7409         MOV     A,#0x9
   \   0000EE   12....       LCALL   ?XSTACK_DISP0_8
   \   0000F1   12....       LCALL   ?Subroutine101 & 0xFFFF
    764            }
   \                     ??CrossCallReturnLabel_160:
   \   0000F4   A9..         MOV     R1,?V0 + 5
   \   0000F6   12....       LCALL   ??ZDO_ConvertOTAClusters?relay
   \   0000F9   8A..         MOV     ?V0 + 2,R2
   \   0000FB   8B..         MOV     ?V0 + 3,R3
   \   0000FD   8003         SJMP    ??ZDO_ProcessMatchDescReq_6
    765            else
    766            {
    767              numInClusters = 0;
   \                     ??ZDO_ProcessMatchDescReq_4:
   \   0000FF   75..00       MOV     ?V0 + 5,#0x0
    768            }
    769          
    770            if ((numOutClusters = *msg++) &&
    771                (outClusters = (uint16 *)osal_mem_alloc( numOutClusters * sizeof( uint16 ) )))
   \                     ??ZDO_ProcessMatchDescReq_6:
   \   000102   12....       LCALL   ?Subroutine103 & 0xFFFF
   \                     ??CrossCallReturnLabel_167:
   \   000105   8A..         MOV     ?V0 + 4,R2
   \   000107   602C         JZ      ??ZDO_ProcessMatchDescReq_7
   \   000109                ; Setup parameters for call to function osal_mem_alloc
   \   000109   C3           CLR     C
   \   00010A   33           RLC     A
   \   00010B   FA           MOV     R2,A
   \   00010C   E4           CLR     A
   \   00010D   33           RLC     A
   \   00010E   FB           MOV     R3,A
   \   00010F   12....       LCALL   ??osal_mem_alloc?relay
   \   000112   7407         MOV     A,#0x7
   \   000114   12....       LCALL   ?XSTACK_DISP0_8
   \   000117   12....       LCALL   ?Subroutine38 & 0xFFFF
   \                     ??CrossCallReturnLabel_60:
   \   00011A   7407         MOV     A,#0x7
   \   00011C   12....       LCALL   ?XSTACK_DISP0_8
   \   00011F   E0           MOVX    A,@DPTR
   \   000120   7002         JNZ     ??ZDO_ProcessMatchDescReq_8
   \   000122   A3           INC     DPTR
   \   000123   E0           MOVX    A,@DPTR
   \                     ??ZDO_ProcessMatchDescReq_8:
   \   000124   600F         JZ      ??ZDO_ProcessMatchDescReq_7
    772            {
    773              msg = ZDO_ConvertOTAClusters( numOutClusters, msg, outClusters );
   \   000126                ; Setup parameters for call to function ZDO_ConvertOTAClusters
   \   000126   7407         MOV     A,#0x7
   \   000128   12....       LCALL   ?XSTACK_DISP0_8
   \   00012B   12....       LCALL   ?Subroutine101 & 0xFFFF
    774            }
   \                     ??CrossCallReturnLabel_161:
   \   00012E   A9..         MOV     R1,?V0 + 4
   \   000130   12....       LCALL   ??ZDO_ConvertOTAClusters?relay
   \   000133   8003         SJMP    ??ZDO_ProcessMatchDescReq_9
    775            else
    776            {
    777              numOutClusters = 0;
   \                     ??ZDO_ProcessMatchDescReq_7:
   \   000135   75..00       MOV     ?V0 + 4,#0x0
    778            }
    779          
    780            // First count the number of endpoints that match.
    781            epDesc = epList;
   \                     ??ZDO_ProcessMatchDescReq_9:
   \   000138   90....       MOV     DPTR,#epList
   \   00013B   8047         SJMP    ??CrossCallReturnLabel_623
    782            while ( epDesc )
    783            {
    784              // Don't search endpoint 0 and check if response is allowed
    785              if ( epDesc->epDesc->endPoint != ZDO_EP && (epDesc->flags&eEP_AllowMatch) )
    786              {
    787                if ( epDesc->pfnDescCB )
    788                {
    789                  sDesc = (SimpleDescriptionFormat_t *)epDesc->pfnDescCB( AF_DESCRIPTOR_SIMPLE, epDesc->epDesc->endPoint );
    790                  allocated = TRUE;
    791                }
    792                else
    793                {
    794                  sDesc = epDesc->epDesc->simpleDesc;
    795                  allocated = FALSE;
    796                }
    797          
    798                if ( sDesc && sDesc->AppProfId == profileID )
    799                {
    800                  uint8 *uint8Buf = (uint8 *)ZDOBuildBuf;
    801          
    802                  // If there are no search input/ouput clusters - respond
    803                  if ( ((numInClusters == 0) && (numOutClusters == 0))
    804                      // Are there matching input clusters?
    805                       || (ZDO_AnyClusterMatches( numInClusters, inClusters,
    806                            sDesc->AppNumInClusters, sDesc->pAppInClusterList ))
    807                      // Are there matching output clusters?
    808                       || (ZDO_AnyClusterMatches( numOutClusters, outClusters,
    809                            sDesc->AppNumOutClusters, sDesc->pAppOutClusterList ))     )
    810                  {
    811                    // Notify the endpoint of the match.
    812                    uint8 bufLen = sizeof( ZDO_MatchDescRspSent_t ) + (numOutClusters + numInClusters) * sizeof(uint16);
    813                    ZDO_MatchDescRspSent_t *pRspSent = (ZDO_MatchDescRspSent_t *) osal_msg_allocate( bufLen );
    814          
    815                    if (pRspSent)
    816                    {
    817                      pRspSent->hdr.event = ZDO_MATCH_DESC_RSP_SENT;
    818                      pRspSent->nwkAddr = inMsg->srcAddr.addr.shortAddr;
    819                      pRspSent->numInClusters = numInClusters;
    820                      pRspSent->numOutClusters = numOutClusters;
    821          
    822                      if (numInClusters)
    823                      {
    824                        pRspSent->pInClusters = (uint16*) (pRspSent + 1);
    825                        osal_memcpy(pRspSent->pInClusters, inClusters, numInClusters * sizeof(uint16));
    826                      }
    827                      else
    828                      {
    829                        pRspSent->pInClusters = NULL;
    830                      }
    831          
    832                      if (numOutClusters)
    833                      {
    834                        pRspSent->pOutClusters = (uint16*)(pRspSent + 1) + numInClusters;
    835                        osal_memcpy(pRspSent->pOutClusters, outClusters, numOutClusters * sizeof(uint16));
    836                      }
    837                      else
    838                      {
    839                        pRspSent->pOutClusters = NULL;
   \                     ??ZDO_ProcessMatchDescReq_10:
   \   00013D   E4           CLR     A
   \   00013E   F0           MOVX    @DPTR,A
   \   00013F   A3           INC     DPTR
   \   000140   F0           MOVX    @DPTR,A
    840                      }
    841          
    842                      osal_msg_send( *epDesc->epDesc->task_id, (uint8 *)pRspSent );
   \                     ??ZDO_ProcessMatchDescReq_11:
   \   000141                ; Setup parameters for call to function osal_msg_send
   \   000141   AA..         MOV     R2,?V0 + 6
   \   000143   AB..         MOV     R3,?V0 + 7
   \   000145   7405         MOV     A,#0x5
   \   000147   12....       LCALL   ?XSTACK_DISP0_8
   \   00014A   12....       LCALL   ?Subroutine88 & 0xFFFF
   \                     ??CrossCallReturnLabel_147:
   \   00014D   12....       LCALL   ?Subroutine58 & 0xFFFF
    843                    }
    844          
    845                    uint8Buf[epCnt++] = sDesc->EndPoint;
   \                     ??CrossCallReturnLabel_109:
   \   000150   85..82       MOV     DPL,?XSP + 0
   \   000153   85..83       MOV     DPH,?XSP + 1
   \   000156   12....       LCALL   ?Subroutine59 & 0xFFFF
   \                     ??CrossCallReturnLabel_111:
   \   000159   C0E0         PUSH    A
   \   00015B   7402         MOV     A,#0x2
   \   00015D   12....       LCALL   ?XSTACK_DISP0_8
   \   000160   E0           MOVX    A,@DPTR
   \   000161   24..         ADD     A,#(ZDOBuildBuf & 0xff)
   \   000163   F582         MOV     DPL,A
   \   000165   E4           CLR     A
   \   000166   34..         ADDC    A,#((ZDOBuildBuf >> 8) & 0xff)
   \   000168   F583         MOV     DPH,A
   \   00016A   D0E0         POP     A
   \   00016C   F0           MOVX    @DPTR,A
   \   00016D   7402         MOV     A,#0x2
   \   00016F   12....       LCALL   ?XSTACK_DISP0_8
   \   000172   E0           MOVX    A,@DPTR
   \   000173   04           INC     A
   \   000174   F0           MOVX    @DPTR,A
    846                  }
    847                }
    848          
    849                if ( allocated )
   \                     ??ZDO_ProcessMatchDescReq_12:
   \   000175   E5..         MOV     A,?V0 + 3
   \   000177   6003         JZ      ??CrossCallReturnLabel_412
    850                  osal_mem_free( sDesc );
   \   000179                ; Setup parameters for call to function osal_mem_free
   \   000179   12....       LCALL   ?Subroutine49 & 0xFFFF
    851              }
    852              epDesc = epDesc->nextDesc;
   \                     ??CrossCallReturnLabel_412:
   \   00017C   7405         MOV     A,#0x5
   \   00017E   12....       LCALL   ?XSTACK_DISP0_8
   \   000181   12....       LCALL   ?Subroutine81 & 0xFFFF
   \                     ??CrossCallReturnLabel_623:
   \   000184   12....       LCALL   ??Subroutine231_0 & 0xFFFF
   \                     ??CrossCallReturnLabel_344:
   \   000187   7405         MOV     A,#0x5
   \   000189   12....       LCALL   ?XSTACK_DISP0_8
   \   00018C   12....       LCALL   ??Subroutine225_0 & 0xFFFF
   \                     ??CrossCallReturnLabel_312:
   \   00018F   7405         MOV     A,#0x5
   \   000191   12....       LCALL   ?XSTACK_DISP0_8
   \   000194   E0           MOVX    A,@DPTR
   \   000195   7002         JNZ     ??ZDO_ProcessMatchDescReq_13
   \   000197   A3           INC     DPTR
   \   000198   E0           MOVX    A,@DPTR
   \                     ??ZDO_ProcessMatchDescReq_13:
   \   000199   7003         JNZ     $+5
   \   00019B   02....       LJMP    ??ZDO_ProcessMatchDescReq_14 & 0xFFFF
   \   00019E   7405         MOV     A,#0x5
   \   0001A0   12....       LCALL   ?XSTACK_DISP0_8
   \   0001A3   12....       LCALL   ?Subroutine57 & 0xFFFF
   \                     ??CrossCallReturnLabel_455:
   \   0001A6   E8           MOV     A,R0
   \   0001A7   FA           MOV     R2,A
   \   0001A8   E9           MOV     A,R1
   \   0001A9   FB           MOV     R3,A
   \   0001AA   8A82         MOV     DPL,R2
   \   0001AC   8B83         MOV     DPH,R3
   \   0001AE   E0           MOVX    A,@DPTR
   \   0001AF   60CB         JZ      ??CrossCallReturnLabel_412
   \   0001B1   7405         MOV     A,#0x5
   \   0001B3   12....       LCALL   ?XSTACK_DISP0_8
   \   0001B6   12....       LCALL   ?Subroutine82 & 0xFFFF
   \                     ??CrossCallReturnLabel_140:
   \   0001B9   A3           INC     DPTR
   \   0001BA   E0           MOVX    A,@DPTR
   \   0001BB   A2E0         MOV     C,0xE0 /* A   */.0
   \   0001BD   50BD         JNC     ??CrossCallReturnLabel_412
   \   0001BF   7405         MOV     A,#0x5
   \   0001C1   12....       LCALL   ?XSTACK_DISP0_8
   \   0001C4   12....       LCALL   ??Subroutine264_0 & 0xFFFF
   \                     ??CrossCallReturnLabel_605:
   \   0001C7   12....       LCALL   ?Subroutine73 & 0xFFFF
   \                     ??CrossCallReturnLabel_352:
   \   0001CA   E8           MOV     A,R0
   \   0001CB   FC           MOV     R4,A
   \   0001CC   E9           MOV     A,R1
   \   0001CD   FD           MOV     R5,A
   \   0001CE   EC           MOV     A,R4
   \   0001CF   7001         JNZ     ??ZDO_ProcessMatchDescReq_15
   \   0001D1   ED           MOV     A,R5
   \                     ??ZDO_ProcessMatchDescReq_15:
   \   0001D2   8A82         MOV     DPL,R2
   \   0001D4   8B83         MOV     DPH,R3
   \   0001D6   6019         JZ      ??ZDO_ProcessMatchDescReq_16
   \   0001D8                ; Setup parameters for indirect call
   \   0001D8   E0           MOVX    A,@DPTR
   \   0001D9   FA           MOV     R2,A
   \   0001DA   7901         MOV     R1,#0x1
   \   0001DC   8C82         MOV     DPL,R4
   \   0001DE   8D83         MOV     DPH,R5
   \   0001E0   12....       LCALL   ?CALL_IND
   \   0001E3   85..82       MOV     DPL,?XSP + 0
   \   0001E6   85..83       MOV     DPH,?XSP + 1
   \   0001E9   12....       LCALL   ?Subroutine38 & 0xFFFF
   \                     ??CrossCallReturnLabel_61:
   \   0001EC   75..01       MOV     ?V0 + 3,#0x1
   \   0001EF   800F         SJMP    ??ZDO_ProcessMatchDescReq_17
   \                     ??ZDO_ProcessMatchDescReq_16:
   \   0001F1   12....       LCALL   ?Subroutine73 & 0xFFFF
   \                     ??CrossCallReturnLabel_353:
   \   0001F4   85..82       MOV     DPL,?XSP + 0
   \   0001F7   85..83       MOV     DPH,?XSP + 1
   \   0001FA   12....       LCALL   ??Subroutine225_0 & 0xFFFF
   \                     ??CrossCallReturnLabel_313:
   \   0001FD   75..00       MOV     ?V0 + 3,#0x0
   \                     ??ZDO_ProcessMatchDescReq_17:
   \   000200   85..82       MOV     DPL,?XSP + 0
   \   000203   85..83       MOV     DPH,?XSP + 1
   \   000206   E0           MOVX    A,@DPTR
   \   000207   7002         JNZ     ??ZDO_ProcessMatchDescReq_18
   \   000209   A3           INC     DPTR
   \   00020A   E0           MOVX    A,@DPTR
   \                     ??ZDO_ProcessMatchDescReq_18:
   \   00020B   7003         JNZ     $+5
   \   00020D   02....       LJMP    ??ZDO_ProcessMatchDescReq_12 & 0xFFFF
   \   000210   85..82       MOV     DPL,?XSP + 0
   \   000213   85..83       MOV     DPH,?XSP + 1
   \   000216   12....       LCALL   ?Subroutine82 & 0xFFFF
   \                     ??CrossCallReturnLabel_141:
   \   000219   E0           MOVX    A,@DPTR
   \   00021A   6E           XRL     A,R6
   \   00021B   7003         JNZ     ??ZDO_ProcessMatchDescReq_19
   \   00021D   A3           INC     DPTR
   \   00021E   E0           MOVX    A,@DPTR
   \   00021F   6F           XRL     A,R7
   \                     ??ZDO_ProcessMatchDescReq_19:
   \   000220   6003         JZ      $+5
   \   000222   02....       LJMP    ??ZDO_ProcessMatchDescReq_12 & 0xFFFF
   \   000225   E5..         MOV     A,?V0 + 5
   \   000227   7004         JNZ     ??ZDO_ProcessMatchDescReq_20
   \   000229   E5..         MOV     A,?V0 + 4
   \   00022B   605B         JZ      ??ZDO_ProcessMatchDescReq_21
   \                     ??ZDO_ProcessMatchDescReq_20:
   \   00022D                ; Setup parameters for call to function ZDO_AnyClusterMatches
   \   00022D   85..82       MOV     DPL,?XSP + 0
   \   000230   85..83       MOV     DPH,?XSP + 1
   \   000233   12....       LCALL   ??Subroutine266_0 & 0xFFFF
   \                     ??CrossCallReturnLabel_622:
   \   000236   A3           INC     DPTR
   \   000237   A3           INC     DPTR
   \   000238   12....       LCALL   ?PUSH_XSTACK8_X_TWO
   \   00023B   7402         MOV     A,#0x2
   \   00023D   12....       LCALL   ?XSTACK_DISP0_8
   \   000240   12....       LCALL   ?Subroutine80 & 0xFFFF
   \                     ??CrossCallReturnLabel_616:
   \   000243   E0           MOVX    A,@DPTR
   \   000244   FC           MOV     R4,A
   \   000245   740B         MOV     A,#0xb
   \   000247   12....       LCALL   ?XSTACK_DISP0_8
   \   00024A   12....       LCALL   ??Subroutine237_0 & 0xFFFF
   \                     ??CrossCallReturnLabel_381:
   \   00024D   A9..         MOV     R1,?V0 + 5
   \   00024F   12....       LCALL   ??ZDO_AnyClusterMatches?relay
   \   000252   7402         MOV     A,#0x2
   \   000254   12....       LCALL   ?DEALLOC_XSTACK8
   \   000257   E9           MOV     A,R1
   \   000258   702E         JNZ     ??ZDO_ProcessMatchDescReq_21
   \   00025A                ; Setup parameters for call to function ZDO_AnyClusterMatches
   \   00025A   85..82       MOV     DPL,?XSP + 0
   \   00025D   85..83       MOV     DPH,?XSP + 1
   \   000260   12....       LCALL   ?Subroutine66 & 0xFFFF
   \                     ??CrossCallReturnLabel_126:
   \   000263   12....       LCALL   ?PUSH_XSTACK8_X_TWO
   \   000266   7402         MOV     A,#0x2
   \   000268   12....       LCALL   ?XSTACK_DISP0_8
   \   00026B   12....       LCALL   ?Subroutine70 & 0xFFFF
   \                     ??CrossCallReturnLabel_128:
   \   00026E   E0           MOVX    A,@DPTR
   \   00026F   FC           MOV     R4,A
   \   000270   7409         MOV     A,#0x9
   \   000272   12....       LCALL   ?XSTACK_DISP0_8
   \   000275   12....       LCALL   ??Subroutine237_0 & 0xFFFF
   \                     ??CrossCallReturnLabel_382:
   \   000278   A9..         MOV     R1,?V0 + 4
   \   00027A   12....       LCALL   ??ZDO_AnyClusterMatches?relay
   \   00027D   7402         MOV     A,#0x2
   \   00027F   12....       LCALL   ?DEALLOC_XSTACK8
   \   000282   E9           MOV     A,R1
   \   000283   7003         JNZ     $+5
   \   000285   02....       LJMP    ??ZDO_ProcessMatchDescReq_12 & 0xFFFF
   \                     ??ZDO_ProcessMatchDescReq_21:
   \   000288                ; Setup parameters for call to function osal_msg_allocate
   \   000288   E5..         MOV     A,?V0 + 5
   \   00028A   25..         ADD     A,?V0 + 4
   \   00028C   C3           CLR     C
   \   00028D   33           RLC     A
   \   00028E   240A         ADD     A,#0xa
   \   000290   FA           MOV     R2,A
   \   000291   7B00         MOV     R3,#0x0
   \   000293   12....       LCALL   ??osal_msg_allocate?relay
   \   000296   8A..         MOV     ?V0 + 6,R2
   \   000298   8B..         MOV     ?V0 + 7,R3
   \   00029A   EA           MOV     A,R2
   \   00029B   7001         JNZ     ??ZDO_ProcessMatchDescReq_22
   \   00029D   EB           MOV     A,R3
   \                     ??ZDO_ProcessMatchDescReq_22:
   \   00029E   7003         JNZ     $+5
   \   0002A0   02....       LJMP    ??CrossCallReturnLabel_109 & 0xFFFF
   \   0002A3   74D2         MOV     A,#-0x2e
   \   0002A5   8A82         MOV     DPL,R2
   \   0002A7   8B83         MOV     DPH,R3
   \   0002A9   F0           MOVX    @DPTR,A
   \   0002AA   7403         MOV     A,#0x3
   \   0002AC   12....       LCALL   ?XSTACK_DISP0_8
   \   0002AF   12....       LCALL   ?Subroutine88 & 0xFFFF
   \                     ??CrossCallReturnLabel_148:
   \   0002B2   12....       LCALL   ??Subroutine230_0 & 0xFFFF
   \                     ??CrossCallReturnLabel_350:
   \   0002B5   8A82         MOV     DPL,R2
   \   0002B7   8B83         MOV     DPH,R3
   \   0002B9   A3           INC     DPTR
   \   0002BA   A3           INC     DPTR
   \   0002BB   12....       LCALL   ??Subroutine225_0 & 0xFFFF
   \                     ??CrossCallReturnLabel_314:
   \   0002BE   8A82         MOV     DPL,R2
   \   0002C0   8B83         MOV     DPH,R3
   \   0002C2   A3           INC     DPTR
   \   0002C3   A3           INC     DPTR
   \   0002C4   A3           INC     DPTR
   \   0002C5   A3           INC     DPTR
   \   0002C6   E5..         MOV     A,?V0 + 5
   \   0002C8   12....       LCALL   ?Subroutine41 & 0xFFFF
   \                     ??CrossCallReturnLabel_76:
   \   0002CB   A3           INC     DPTR
   \   0002CC   A3           INC     DPTR
   \   0002CD   A3           INC     DPTR
   \   0002CE   A3           INC     DPTR
   \   0002CF   E5..         MOV     A,?V0 + 4
   \   0002D1   F0           MOVX    @DPTR,A
   \   0002D2   EA           MOV     A,R2
   \   0002D3   2405         ADD     A,#0x5
   \   0002D5   FA           MOV     R2,A
   \   0002D6   EB           MOV     A,R3
   \   0002D7   3400         ADDC    A,#0x0
   \   0002D9   FB           MOV     R3,A
   \   0002DA   E5..         MOV     A,?V0 + 5
   \   0002DC   6033         JZ      ??ZDO_ProcessMatchDescReq_23
   \   0002DE   E5..         MOV     A,?V0 + 6
   \   0002E0   240A         ADD     A,#0xa
   \   0002E2   F8           MOV     R0,A
   \   0002E3   E5..         MOV     A,?V0 + 7
   \   0002E5   3400         ADDC    A,#0x0
   \   0002E7   F9           MOV     R1,A
   \   0002E8   8A82         MOV     DPL,R2
   \   0002EA   8B83         MOV     DPH,R3
   \   0002EC   12....       LCALL   ??Subroutine225_0 & 0xFFFF
   \                     ??CrossCallReturnLabel_315:
   \   0002EF                ; Setup parameters for call to function osal_memcpy
   \   0002EF   7409         MOV     A,#0x9
   \   0002F1   12....       LCALL   ?XSTACK_DISP0_8
   \   0002F4   12....       LCALL   ?Subroutine63 & 0xFFFF
   \                     ??CrossCallReturnLabel_118:
   \   0002F7   12....       LCALL   ?PUSH_XSTACK_I_THREE
   \   0002FA   E5..         MOV     A,?V0 + 5
   \   0002FC   C3           CLR     C
   \   0002FD   33           RLC     A
   \   0002FE   FC           MOV     R4,A
   \   0002FF   E4           CLR     A
   \   000300   33           RLC     A
   \   000301   FD           MOV     R5,A
   \   000302   8A82         MOV     DPL,R2
   \   000304   8B83         MOV     DPH,R3
   \   000306   12....       LCALL   ??Subroutine237_0 & 0xFFFF
   \                     ??CrossCallReturnLabel_383:
   \   000309   12....       LCALL   ?Subroutine195 & 0xFFFF
   \                     ??CrossCallReturnLabel_515:
   \   00030C   12....       LCALL   ?DEALLOC_XSTACK8
   \   00030F   8008         SJMP    ??ZDO_ProcessMatchDescReq_24
   \                     ??ZDO_ProcessMatchDescReq_23:
   \   000311   8A82         MOV     DPL,R2
   \   000313   8B83         MOV     DPH,R3
   \   000315   E4           CLR     A
   \   000316   F0           MOVX    @DPTR,A
   \   000317   A3           INC     DPTR
   \   000318   F0           MOVX    @DPTR,A
   \                     ??ZDO_ProcessMatchDescReq_24:
   \   000319   E5..         MOV     A,?V0 + 6
   \   00031B   2408         ADD     A,#0x8
   \   00031D   F582         MOV     DPL,A
   \   00031F   E5..         MOV     A,?V0 + 7
   \   000321   12....       LCALL   ??Subroutine256_0 & 0xFFFF
   \                     ??CrossCallReturnLabel_519:
   \   000324   E5..         MOV     A,?V0 + 4
   \   000326   7003         JNZ     $+5
   \   000328   02....       LJMP    ??ZDO_ProcessMatchDescReq_10 & 0xFFFF
   \   00032B   E5..         MOV     A,?V0 + 5
   \   00032D   C3           CLR     C
   \   00032E   33           RLC     A
   \   00032F   F8           MOV     R0,A
   \   000330   E4           CLR     A
   \   000331   33           RLC     A
   \   000332   F9           MOV     R1,A
   \   000333   E5..         MOV     A,?V0 + 6
   \   000335   28           ADD     A,R0
   \   000336   F8           MOV     R0,A
   \   000337   E5..         MOV     A,?V0 + 7
   \   000339   39           ADDC    A,R1
   \   00033A   F9           MOV     R1,A
   \   00033B   740A         MOV     A,#0xa
   \   00033D   28           ADD     A,R0
   \   00033E   FA           MOV     R2,A
   \   00033F   E4           CLR     A
   \   000340   39           ADDC    A,R1
   \   000341   FB           MOV     R3,A
   \   000342   12....       LCALL   ?Subroutine38 & 0xFFFF
   \                     ??CrossCallReturnLabel_62:
   \   000345                ; Setup parameters for call to function osal_memcpy
   \   000345   7407         MOV     A,#0x7
   \   000347   12....       LCALL   ?XSTACK_DISP0_8
   \   00034A   12....       LCALL   ?Subroutine63 & 0xFFFF
    853            }
   \                     ??CrossCallReturnLabel_119:
   \   00034D   12....       LCALL   ?PUSH_XSTACK_I_THREE
   \   000350   E5..         MOV     A,?V0 + 4
   \   000352   C3           CLR     C
   \   000353   33           RLC     A
   \   000354   FC           MOV     R4,A
   \   000355   E4           CLR     A
   \   000356   33           RLC     A
   \   000357   FD           MOV     R5,A
   \   000358   12....       LCALL   ?Subroutine195 & 0xFFFF
   \                     ??CrossCallReturnLabel_516:
   \   00035B   12....       LCALL   ?DEALLOC_XSTACK8
   \   00035E   02....       LJMP    ??ZDO_ProcessMatchDescReq_11 & 0xFFFF
    854          
    855            // Send the message only if at least one match found.
    856            if ( epCnt )
   \                     ??ZDO_ProcessMatchDescReq_14:
   \   000361   7402         MOV     A,#0x2
   \   000363   12....       LCALL   ?XSTACK_DISP0_8
   \   000366   E0           MOVX    A,@DPTR
   \   000367   6049         JZ      ??ZDO_ProcessMatchDescReq_25
    857            {
    858              if ( ZSuccess == ZDP_MatchDescRsp( inMsg->TransSeq, &(inMsg->srcAddr), ZDP_SUCCESS,
    859                        ZDAppNwkAddr.addr.shortAddr, epCnt, (uint8 *)ZDOBuildBuf, inMsg->SecurityUse ) )
   \   000369                ; Setup parameters for call to function ZDP_EPRsp
   \   000369   7403         MOV     A,#0x3
   \   00036B   12....       LCALL   ?XSTACK_DISP0_8
   \   00036E   12....       LCALL   ?Subroutine62 & 0xFFFF
   \                     ??CrossCallReturnLabel_374:
   \   000371   12....       LCALL   ?PUSH_XSTACK_I_ONE
   \   000374   75....       MOV     ?V0 + 0,#(ZDOBuildBuf & 0xff)
   \   000377   75....       MOV     ?V0 + 1,#((ZDOBuildBuf >> 8) & 0xff)
   \   00037A   78..         MOV     R0,#?V0 + 0
   \   00037C   12....       LCALL   ?PUSH_XSTACK_I_TWO
   \   00037F   7405         MOV     A,#0x5
   \   000381   12....       LCALL   ?XSTACK_DISP0_8
   \   000384   12....       LCALL   ?Subroutine193 & 0xFFFF
   \                     ??CrossCallReturnLabel_366:
   \   000387   12....       LCALL   ?PUSH_XSTACK_I_ONE
   \   00038A   90....       MOV     DPTR,#ZDAppNwkAddr
   \   00038D   12....       LCALL   ?PUSH_XSTACK8_X_TWO
   \   000390   75..00       MOV     ?V0 + 0,#0x0
   \   000393   78..         MOV     R0,#?V0 + 0
   \   000395   12....       LCALL   ?PUSH_XSTACK_I_ONE
   \   000398   740A         MOV     A,#0xa
   \   00039A   12....       LCALL   ?XSTACK_DISP0_8
   \   00039D   12....       LCALL   ?Subroutine90 & 0xFFFF
   \                     ??CrossCallReturnLabel_151:
   \   0003A0   12....       LCALL   ?XSTACK_DISP0_8
   \   0003A3   12....       LCALL   ?Subroutine55 & 0xFFFF
   \                     ??CrossCallReturnLabel_104:
   \   0003A6   12....       LCALL   ?DEALLOC_XSTACK8
   \   0003A9   E9           MOV     A,R1
   \   0003AA   7011         JNZ     ??ZDO_ProcessMatchDescReq_26
    860              {
    861          #if defined( LCD_SUPPORTED )
    862                HalLcdWriteScreen( "Match Desc Req", "Rsp Sent" );
   \   0003AC                ; Setup parameters for call to function HalLcdWriteScreen
   \   0003AC   7C..         MOV     R4,#(`?<Constant "Rsp Sent">` & 0xff)
   \   0003AE   7D..         MOV     R5,#((`?<Constant "Rsp Sent">` >> 8) & 0xff)
   \   0003B0   8004         SJMP    ??ZDO_ProcessMatchDescReq_27
    863          #endif
    864              }
    865            }
    866            else
    867            {
    868          #if defined( LCD_SUPPORTED )
    869              HalLcdWriteScreen( "Match Desc Req", "Non Matched" );
   \                     ??ZDO_ProcessMatchDescReq_25:
   \   0003B2                ; Setup parameters for call to function HalLcdWriteScreen
   \   0003B2   7C..         MOV     R4,#(`?<Constant "Non Matched">` & 0xff)
   \   0003B4   7D..         MOV     R5,#((`?<Constant "Non Matched">` >> 8) & 0xff)
   \                     ??ZDO_ProcessMatchDescReq_27:
   \   0003B6   7A..         MOV     R2,#(`?<Constant "Match Desc Req">` & 0xff)
   \   0003B8   7B..         MOV     R3,#((`?<Constant "Match Desc Req">` >> 8) & 0xff)
   \   0003BA   12....       LCALL   ??HalLcdWriteScreen?relay
    870          #endif
    871            }
    872          
    873            if ( inClusters != NULL )
   \                     ??ZDO_ProcessMatchDescReq_26:
   \   0003BD   7409         MOV     A,#0x9
   \   0003BF   12....       LCALL   ?XSTACK_DISP0_8
   \   0003C2   E0           MOVX    A,@DPTR
   \   0003C3   7002         JNZ     ??ZDO_ProcessMatchDescReq_28
   \   0003C5   A3           INC     DPTR
   \   0003C6   E0           MOVX    A,@DPTR
   \                     ??ZDO_ProcessMatchDescReq_28:
   \   0003C7   6008         JZ      ??CrossCallReturnLabel_414
    874              osal_mem_free( inClusters );
   \   0003C9                ; Setup parameters for call to function osal_mem_free
   \   0003C9   7409         MOV     A,#0x9
   \   0003CB   12....       LCALL   ?XSTACK_DISP0_8
   \   0003CE   12....       LCALL   ??Subroutine241_0 & 0xFFFF
    875            if ( outClusters != NULL )
   \                     ??CrossCallReturnLabel_414:
   \   0003D1   7407         MOV     A,#0x7
   \   0003D3   12....       LCALL   ?XSTACK_DISP0_8
   \   0003D6   E0           MOVX    A,@DPTR
   \   0003D7   7002         JNZ     ??ZDO_ProcessMatchDescReq_29
   \   0003D9   A3           INC     DPTR
   \   0003DA   E0           MOVX    A,@DPTR
   \                     ??ZDO_ProcessMatchDescReq_29:
   \   0003DB   6008         JZ      ??CrossCallReturnLabel_415
    876              osal_mem_free( outClusters );
   \   0003DD                ; Setup parameters for call to function osal_mem_free
   \   0003DD   7407         MOV     A,#0x7
   \   0003DF   12....       LCALL   ?XSTACK_DISP0_8
   \   0003E2   12....       LCALL   ??Subroutine241_0 & 0xFFFF
   \                     ??CrossCallReturnLabel_415:
   \   0003E5   740B         MOV     A,#0xb
   \   0003E7   02....       LJMP    ?Subroutine210 & 0xFFFF
    877          }

   \                                 In  segment BANKED_CODE, align 1, keep-with-next
   \                     ?Subroutine103:
   \   000000   85..82       MOV     DPL,?V0 + 2
   \   000003   85..83       MOV     DPH,?V0 + 3
   \   000006   E0           MOVX    A,@DPTR
   \   000007   FA           MOV     R2,A
   \   000008   A3           INC     DPTR
   \   000009   8582..       MOV     ?V0 + 2,DPL
   \   00000C   8583..       MOV     ?V0 + 3,DPH
   \   00000F   22           RET

   \                                 In  segment BANKED_CODE, align 1, keep-with-next
   \                     ?Subroutine101:
   \   000000   E0           MOVX    A,@DPTR
   \   000001   FC           MOV     R4,A
   \   000002   A3           INC     DPTR
   \   000003   E0           MOVX    A,@DPTR
   \   000004   FD           MOV     R5,A
   \   000005   AA..         MOV     R2,?V0 + 2
   \   000007   AB..         MOV     R3,?V0 + 3
   \   000009   22           RET

   \                                 In  segment BANKED_CODE, align 1, keep-with-next
   \                     ?Subroutine90:
   \   000000   E0           MOVX    A,@DPTR
   \   000001   2402         ADD     A,#0x2
   \   000003   FC           MOV     R4,A
   \   000004   A3           INC     DPTR
   \   000005   E0           MOVX    A,@DPTR
   \   000006   3400         ADDC    A,#0x0
   \   000008   FD           MOV     R5,A
   \   000009   740A         MOV     A,#0xa
   \   00000B   22           RET

   \                                 In  segment BANKED_CODE, align 1, keep-with-next
   \                     ?Subroutine62:
   \   000000   E0           MOVX    A,@DPTR
   \   000001   240E         ADD     A,#0xe
   \   000003                REQUIRE ??Subroutine221_0
   \   000003                ; // Fall through to label ??Subroutine221_0

   \                                 In  segment BANKED_CODE, align 1, keep-with-next
   \                     ??Subroutine221_0:
   \   000000   12....       LCALL   ?Subroutine155 & 0xFFFF
   \                     ??CrossCallReturnLabel_446:
   \   000003   02....       LJMP    ??Subroutine233_0 & 0xFFFF

   \                                 In  segment BANKED_CODE, align 1, keep-with-next
   \                     ?Subroutine55:
   \   000000   12....       LCALL   ?Subroutine152 & 0xFFFF
   \                     ??CrossCallReturnLabel_335:
   \   000003   7A06         MOV     R2,#0x6
   \   000005   7B80         MOV     R3,#-0x80
   \   000007   12....       LCALL   ??ZDP_EPRsp?relay
   \   00000A   7407         MOV     A,#0x7
   \   00000C   22           RET

   \                                 In  segment BANKED_CODE, align 1, keep-with-next
   \                     ?Subroutine66:
   \   000000   12....       LCALL   ?Subroutine150 & 0xFFFF
   \                     ??CrossCallReturnLabel_620:
   \   000003   A3           INC     DPTR
   \   000004   22           RET

   \                                 In  segment BANKED_CODE, align 1, keep-with-next
   \                     ?Subroutine57:
   \   000000   12....       LCALL   ?Subroutine198 & 0xFFFF
   \                     ??CrossCallReturnLabel_249:
   \   000003                REQUIRE ?Subroutine196
   \   000003                ; // Fall through to label ?Subroutine196

   \                                 In  segment BANKED_CODE, align 1, keep-with-next
   \                     ?Subroutine199:
   \   000000   3400         ADDC    A,#0x0
   \   000002   F583         MOV     DPH,A
   \   000004   22           RET

   \                                 In  segment BANKED_CODE, align 1, keep-with-next
   \                     ??Subroutine225_0:
   \   000000   E8           MOV     A,R0
   \   000001                REQUIRE ??Subroutine226_0
   \   000001                ; // Fall through to label ??Subroutine226_0

   \                                 In  segment BANKED_CODE, align 1, keep-with-next
   \                     ??Subroutine226_0:
   \   000000   12....       LCALL   ??Subroutine269_0 & 0xFFFF
   \                     ??CrossCallReturnLabel_626:
   \   000003   22           RET

   \                                 In  segment BANKED_CODE, align 1, keep-with-next
   \                     ?Subroutine210:
   \   000000   12....       LCALL   ?DEALLOC_XSTACK8
   \   000003   02....       LJMP    ??Subroutine222_0 & 0xFFFF

   \                                 In  segment BANKED_CODE, align 1, keep-with-next
   \                     ?Subroutine152:
   \   000000   E0           MOVX    A,@DPTR
   \   000001   240F         ADD     A,#0xf
   \   000003   F8           MOV     R0,A
   \   000004                REQUIRE ??Subroutine228_0
   \   000004                ; // Fall through to label ??Subroutine228_0

   \                                 In  segment BANKED_CODE, align 1, keep-with-next
   \                     ??Subroutine228_0:
   \   000000   12....       LCALL   ?Subroutine179 & 0xFFFF
   \                     ??CrossCallReturnLabel_506:
   \   000003   F9           MOV     R1,A
   \   000004   22           RET

   \                                 In  segment BANKED_CODE, align 1, keep-with-next
   \                     ?Subroutine73:
   \   000000   A3           INC     DPTR
   \   000001                REQUIRE ??Subroutine230_0
   \   000001                ; // Fall through to label ??Subroutine230_0

   \                                 In  segment BANKED_CODE, align 1, keep-with-next
   \                     ??Subroutine230_0:
   \   000000   A3           INC     DPTR
   \   000001   A3           INC     DPTR
   \   000002                REQUIRE ??Subroutine231_0
   \   000002                ; // Fall through to label ??Subroutine231_0

   \                                 In  segment BANKED_CODE, align 1, keep-with-next
   \                     ?Subroutine195:
   \   000000   12....       LCALL   ??osal_memcpy?relay
   \   000003   7403         MOV     A,#0x3
   \   000005   22           RET

   \                                 In  segment BANKED_CODE, align 1, keep-with-next
   \                     ?Subroutine193:
   \   000000   E0           MOVX    A,@DPTR
   \   000001                REQUIRE ??Subroutine233_0
   \   000001                ; // Fall through to label ??Subroutine233_0

   \                                 In  segment BANKED_CODE, align 1, keep-with-next
   \                     ??Subroutine233_0:
   \   000000   F5..         MOV     ?V0 + 0,A
   \   000002   78..         MOV     R0,#?V0 + 0
   \   000004   22           RET

   \                                 In  segment BANKED_CODE, align 1, keep-with-next
   \                     ?Subroutine155:
   \   000000   F8           MOV     R0,A
   \   000001                REQUIRE ??Subroutine244_0
   \   000001                ; // Fall through to label ??Subroutine244_0

   \                                 In  segment BANKED_CODE, align 1, keep-with-next
   \                     ??Subroutine244_0:
   \   000000   12....       LCALL   ?Subroutine179 & 0xFFFF
   \                     ??CrossCallReturnLabel_507:
   \   000003   22           RET

   \                                 In  segment BANKED_CODE, align 1, keep-with-next
   \                     ?Subroutine179:
   \   000000   A3           INC     DPTR
   \   000001   E0           MOVX    A,@DPTR
   \   000002   3400         ADDC    A,#0x0
   \   000004   F9           MOV     R1,A
   \   000005   02....       LJMP    ?Subroutine192 & 0xFFFF

   \                                 In  segment BANKED_CODE, align 1, keep-with-next
   \                     ?Subroutine64:
   \   000000   12....       LCALL   ?Subroutine155 & 0xFFFF
   \                     ??CrossCallReturnLabel_441:
   \   000003   F5..         MOV     ?V0 + 2,A
   \   000005   22           RET

   \                                 In  segment BANKED_CODE, align 1, keep-with-next
   \                     ??Subroutine256_0:
   \   000000   12....       LCALL   ?Subroutine199 & 0xFFFF
   \                     ??CrossCallReturnLabel_564:
   \   000003   22           RET

   \                                 In  segment BANKED_CODE, align 1, keep-with-next
   \                     ?Subroutine41:
   \   000000   12....       LCALL   ?Subroutine147 & 0xFFFF
   \                     ??CrossCallReturnLabel_210:
   \   000003   22           RET

   \                                 In  segment BANKED_CODE, align 1, keep-with-next
   \                     ?Subroutine147:
   \   000000   F0           MOVX    @DPTR,A
   \   000001   8A82         MOV     DPL,R2
   \   000003   8B83         MOV     DPH,R3
   \   000005   A3           INC     DPTR
   \   000006   A3           INC     DPTR
   \   000007   A3           INC     DPTR
   \   000008   22           RET

   \                                 In  segment BANKED_CODE, align 1, keep-with-next
   \                     ?Subroutine125:
   \   000000   F5..         MOV     ?V0 + 2,A
   \   000002   E5..         MOV     A,?V0 + 3
   \   000004                REQUIRE ??Subroutine260_0
   \   000004                ; // Fall through to label ??Subroutine260_0

   \                                 In  segment BANKED_CODE, align 1, keep-with-next
   \                     ??Subroutine260_0:
   \   000000   3400         ADDC    A,#0x0
   \   000002   F5..         MOV     ?V0 + 3,A
   \   000004   22           RET

   \                                 In  segment BANKED_CODE, align 1, keep-with-next
   \                     ?Subroutine88:
   \   000000   E0           MOVX    A,@DPTR
   \   000001   12....       LCALL   ?Subroutine158 & 0xFFFF
   \                     ??CrossCallReturnLabel_608:
   \   000004   22           RET

   \                                 In  segment BANKED_CODE, align 1, keep-with-next
   \                     ?Subroutine158:
   \   000000   F8           MOV     R0,A
   \   000001                REQUIRE ??Subroutine264_0
   \   000001                ; // Fall through to label ??Subroutine264_0

   \                                 In  segment BANKED_CODE, align 1, keep-with-next
   \                     ??Subroutine264_0:
   \   000000   12....       LCALL   ??Subroutine265_0 & 0xFFFF
   \                     ??CrossCallReturnLabel_613:
   \   000003   22           RET

   \                                 In  segment BANKED_CODE, align 1, keep-with-next
   \                     ?Subroutine82:
   \   000000   12....       LCALL   ?Subroutine151 & 0xFFFF
   \                     ??CrossCallReturnLabel_218:
   \   000003   22           RET

   \                                 In  segment BANKED_CODE, align 1, keep-with-next
   \                     ?Subroutine81:
   \   000000   E0           MOVX    A,@DPTR
   \   000001   F8           MOV     R0,A
   \   000002                REQUIRE ??Subroutine266_0
   \   000002                ; // Fall through to label ??Subroutine266_0

   \                                 In  segment BANKED_CODE, align 1, keep-with-next
   \                     ??Subroutine266_0:
   \   000000   12....       LCALL   ??Subroutine264_0 & 0xFFFF
   \                     ??CrossCallReturnLabel_609:
   \   000003   80..         SJMP    ??Subroutine267_0

   \                                 In  segment BANKED_CODE, align 1, keep-with-next
   \                     ?Subroutine188:
   \   000000   A3           INC     DPTR
   \   000001   A3           INC     DPTR
   \   000002                REQUIRE ??Subroutine267_0
   \   000002                ; // Fall through to label ??Subroutine267_0

   \                                 In  segment BANKED_CODE, align 1, keep-with-next
   \                     ??Subroutine267_0:
   \   000000   A3           INC     DPTR
   \   000001   A3           INC     DPTR
   \   000002   A3           INC     DPTR
   \   000003   A3           INC     DPTR
   \   000004   A3           INC     DPTR
   \   000005   22           RET

   \                                 In  segment BANKED_CODE, align 1, keep-with-next
   \                     ?Subroutine80:
   \   000000   12....       LCALL   ?Subroutine151 & 0xFFFF
   \                     ??CrossCallReturnLabel_217:
   \   000003   80..         SJMP    ??Subroutine267_0

   \                                 In  segment BANKED_CODE, align 1, keep-with-next
   \                     ?Subroutine70:
   \   000000   12....       LCALL   ?Subroutine150 & 0xFFFF
   \                     ??CrossCallReturnLabel_621:
   \   000003   22           RET

   \                                 In  segment BANKED_CODE, align 1, keep-with-next
   \                     ?Subroutine150:
   \   000000   12....       LCALL   ?Subroutine180 & 0xFFFF
   \                     ??CrossCallReturnLabel_610:
   \   000003   A3           INC     DPTR
   \   000004   A3           INC     DPTR
   \   000005   80..         SJMP    ?Subroutine188

   \                                 In  segment BANKED_CODE, align 1, keep-with-next
   \                     ?Subroutine63:
   \   000000   E0           MOVX    A,@DPTR
   \   000001   F5..         MOV     ?V0 + 0,A
   \   000003   A3           INC     DPTR
   \   000004   E0           MOVX    A,@DPTR
   \   000005   F5..         MOV     ?V0 + 1,A
   \   000007   75..00       MOV     ?V0 + 2,#0x0
   \   00000A   78..         MOV     R0,#?V0 + 0
   \   00000C   22           RET

   \                                 In  segment BANKED_CODE, align 1, keep-with-next
   \                     ??Subroutine269_0:
   \   000000   F0           MOVX    @DPTR,A
   \   000001   A3           INC     DPTR
   \   000002   E9           MOV     A,R1
   \   000003   F0           MOVX    @DPTR,A
   \   000004   22           RET

   \                                 In  segment BANKED_CODE, align 1, keep-with-next
   \                     ??Subroutine271_0:
   \   000000   E0           MOVX    A,@DPTR
   \   000001                REQUIRE ?Subroutine191
   \   000001                ; // Fall through to label ?Subroutine191
    878          
    879          
    880          /*********************************************************************
    881           * @fn      ZDO_ProcessBindUnbindReq()
    882           *
    883           * @brief   Called to process a Bind or Unbind Request message.
    884           *
    885           * @param   inMsg  - incoming message (request)
    886           * @param   pReq - place to put parsed information
    887           *
    888           * @return  none
    889           */

   \                                 In  segment BANKED_CODE, align 1, keep-with-next
   \                     ??Subroutine213_0:
   \   000000   3400         ADDC    A,#0x0
   \   000002                REQUIRE ??Subroutine214_0
   \   000002                ; // Fall through to label ??Subroutine214_0

   \                                 In  segment BANKED_CODE, align 1, keep-with-next
    890          void ZDO_ProcessBindUnbindReq( zdoIncomingMsg_t *inMsg, ZDO_BindUnbindReq_t *pReq )
   \                     ZDO_ProcessBindUnbindReq:
    891          {
   \   000000   74F0         MOV     A,#-0x10
   \   000002   12....       LCALL   ?BANKED_ENTER_XDATA
   \   000005                ; Saved register size: 16
   \   000005                ; Auto size: 12
   \   000005   74F4         MOV     A,#-0xc
   \   000007   12....       LCALL   ?ALLOC_XSTACK8
   \   00000A   8A..         MOV     ?V0 + 2,R2
   \   00000C   8B..         MOV     ?V0 + 3,R3
   \   00000E   EC           MOV     A,R4
   \   00000F   FE           MOV     R6,A
   \   000010   ED           MOV     A,R5
   \   000011   FF           MOV     R7,A
    892            zAddrType_t SourceAddr;       // Binding Source addres
    893            byte bindStat;
    894          
    895            SourceAddr.addrMode = Addr64Bit;
   \   000012   740B         MOV     A,#0xb
   \   000014   12....       LCALL   ?XSTACK_DISP0_8
   \   000017   7403         MOV     A,#0x3
   \   000019   F0           MOVX    @DPTR,A
    896            osal_cpyExtAddr( SourceAddr.addr.extAddr, pReq->srcAddress );
   \   00001A                ; Setup parameters for call to function sAddrExtCpy
   \   00001A   12....       LCALL   ?XSTACK_DISP0_8
   \   00001D   AA82         MOV     R2,DPL
   \   00001F   AB83         MOV     R3,DPH
   \   000021   12....       LCALL   ??sAddrExtCpy?relay
   \   000024                ; Setup parameters for call to function sAddrExtCmp
   \   000024                ; Setup parameters for call to function NLME_GetExtAddr
    897          
    898          
    899            // If the local device is not the primary binding cache
    900            // check the src address of the bind request.
    901            // If it is not the local device's extended address
    902            // discard the request.
    903            if ( !osal_ExtAddrEqual( SourceAddr.addr.extAddr, NLME_GetExtAddr()) ||
    904                  (pReq->dstAddress.addrMode != Addr64Bit &&
    905                   pReq->dstAddress.addrMode != AddrGroup) )
   \   000024   12....       LCALL   ??NLME_GetExtAddr?relay
   \   000027   EA           MOV     A,R2
   \   000028   FC           MOV     R4,A
   \   000029   EB           MOV     A,R3
   \   00002A   FD           MOV     R5,A
   \   00002B   7403         MOV     A,#0x3
   \   00002D   12....       LCALL   ?XSTACK_DISP0_8
   \   000030   AA82         MOV     R2,DPL
   \   000032   AB83         MOV     R3,DPH
   \   000034   12....       LCALL   ??sAddrExtCmp?relay
   \   000037   E9           MOV     A,R1
   \   000038   600E         JZ      ??ZDO_ProcessBindUnbindReq_0
   \   00003A   12....       LCALL   ?Subroutine114 & 0xFFFF
   \                     ??CrossCallReturnLabel_176:
   \   00003D   FA           MOV     R2,A
   \   00003E   7403         MOV     A,#0x3
   \   000040   6A           XRL     A,R2
   \   000041   600A         JZ      ??ZDO_ProcessBindUnbindReq_1
   \   000043   7401         MOV     A,#0x1
   \   000045   6A           XRL     A,R2
   \   000046   6005         JZ      ??ZDO_ProcessBindUnbindReq_1
    906            {
    907              bindStat = ZDP_NOT_SUPPORTED;
   \                     ??ZDO_ProcessBindUnbindReq_0:
   \   000048   7484         MOV     A,#-0x7c
   \   00004A   02....       LJMP    ??ZDO_ProcessBindUnbindReq_2 & 0xFFFF
    908            }
   \                     ??ZDO_ProcessBindUnbindReq_1:
   \   00004D   8E82         MOV     DPL,R6
   \   00004F   8F83         MOV     DPH,R7
   \   000051   A3           INC     DPTR
   \   000052   A3           INC     DPTR
   \   000053   A3           INC     DPTR
   \   000054   A3           INC     DPTR
   \   000055   A3           INC     DPTR
   \   000056   A3           INC     DPTR
   \   000057   A3           INC     DPTR
   \   000058   A3           INC     DPTR
   \   000059   E0           MOVX    A,@DPTR
   \   00005A   F9           MOV     R1,A
   \   00005B   6021         JZ      ??ZDO_ProcessBindUnbindReq_3
   \   00005D   C3           CLR     C
   \   00005E   94F1         SUBB    A,#-0xf
   \   000060   501C         JNC     ??ZDO_ProcessBindUnbindReq_3
   \   000062   EE           MOV     A,R6
   \   000063   2414         ADD     A,#0x14
   \   000065   F5..         MOV     ?V0 + 0,A
   \   000067   EF           MOV     A,R7
   \   000068   12....       LCALL   ??Subroutine248_0 & 0xFFFF
   \                     ??CrossCallReturnLabel_466:
   \   00006B   7403         MOV     A,#0x3
   \   00006D   6A           XRL     A,R2
   \   00006E   7013         JNZ     ??ZDO_ProcessBindUnbindReq_4
   \   000070   85..82       MOV     DPL,?V0 + 0
   \   000073   85..83       MOV     DPH,?V0 + 1
   \   000076   E0           MOVX    A,@DPTR
   \   000077   6005         JZ      ??ZDO_ProcessBindUnbindReq_3
   \   000079   C3           CLR     C
   \   00007A   94F1         SUBB    A,#-0xf
   \   00007C   4005         JC      ??ZDO_ProcessBindUnbindReq_4
    909            else
    910            {
    911              // Check source & destination endpoints
    912              if ( (pReq->srcEndpoint == 0 || pReq->srcEndpoint > MAX_ENDPOINTS)
    913                  || (( pReq->dstAddress.addrMode == Addr64Bit ) &&
    914                      (pReq->dstEndpoint == 0 || pReq->dstEndpoint > MAX_ENDPOINTS)) )
    915              {
    916                bindStat = ZDP_INVALID_EP;
   \                     ??ZDO_ProcessBindUnbindReq_3:
   \   00007E   7482         MOV     A,#-0x7e
   \   000080   02....       LJMP    ??ZDO_ProcessBindUnbindReq_2 & 0xFFFF
    917              }
   \                     ??ZDO_ProcessBindUnbindReq_4:
   \   000083   EE           MOV     A,R6
   \   000084   240B         ADD     A,#0xb
   \   000086   F5..         MOV     ?V0 + 6,A
   \   000088   EF           MOV     A,R7
   \   000089   3400         ADDC    A,#0x0
   \   00008B   F5..         MOV     ?V0 + 7,A
   \   00008D   12....       LCALL   ?Subroutine135 & 0xFFFF
   \                     ??CrossCallReturnLabel_196:
   \   000090   12....       LCALL   ??Subroutine242_0 & 0xFFFF
   \                     ??CrossCallReturnLabel_427:
   \   000093   6421         XRL     A,#0x21
   \   000095   7002         JNZ     ??ZDO_ProcessBindUnbindReq_5
   \   000097   A3           INC     DPTR
   \   000098   E0           MOVX    A,@DPTR
   \                     ??ZDO_ProcessBindUnbindReq_5:
   \   000099   7076         JNZ     ??ZDO_ProcessBindUnbindReq_6
    918              else
    919              {
    920                if ( inMsg->clusterID == Bind_req )
    921                {
    922                  // Assume the table is full
    923                  bindStat = ZDP_TABLE_FULL;
   \   00009B   7487         MOV     A,#-0x79
   \   00009D   85..82       MOV     DPL,?XSP + 0
   \   0000A0   85..83       MOV     DPH,?XSP + 1
   \   0000A3   F0           MOVX    @DPTR,A
    924          
    925                  if ( bindNumOfEntries() < gNWK_MAX_BINDING_ENTRIES )
   \   0000A4                ; Setup parameters for call to function bindNumOfEntries
   \   0000A4   12....       LCALL   ??bindNumOfEntries?relay
   \   0000A7   90....       MOV     DPTR,#gNWK_MAX_BINDING_ENTRIES
   \   0000AA   E4           CLR     A
   \   0000AB   93           MOVC    A,@A+DPTR
   \   0000AC   F8           MOV     R0,A
   \   0000AD   7401         MOV     A,#0x1
   \   0000AF   93           MOVC    A,@A+DPTR
   \   0000B0   F9           MOV     R1,A
   \   0000B1   C3           CLR     C
   \   0000B2   EA           MOV     A,R2
   \   0000B3   98           SUBB    A,R0
   \   0000B4   EB           MOV     A,R3
   \   0000B5   99           SUBB    A,R1
   \   0000B6   4003         JC      $+5
   \   0000B8   02....       LJMP    ??ZDO_ProcessBindUnbindReq_7 & 0xFFFF
    926                  {
    927                    if ( APSME_BindRequest( pReq->srcEndpoint, pReq->clusterID,
    928                                   &(pReq->dstAddress), pReq->dstEndpoint ) == ZSuccess )
   \   0000BB                ; Setup parameters for call to function APSME_BindRequest
   \   0000BB   12....       LCALL   ?Subroutine86 & 0xFFFF
   \                     ??CrossCallReturnLabel_370:
   \   0000BE   12....       LCALL   ?PUSH_XSTACK_I_ONE
   \   0000C1   12....       LCALL   ?Subroutine98 & 0xFFFF
   \                     ??CrossCallReturnLabel_388:
   \   0000C4   8E82         MOV     DPL,R6
   \   0000C6   8F83         MOV     DPH,R7
   \   0000C8   A3           INC     DPTR
   \   0000C9   A3           INC     DPTR
   \   0000CA   A3           INC     DPTR
   \   0000CB   A3           INC     DPTR
   \   0000CC   A3           INC     DPTR
   \   0000CD   A3           INC     DPTR
   \   0000CE   A3           INC     DPTR
   \   0000CF   A3           INC     DPTR
   \   0000D0   E0           MOVX    A,@DPTR
   \   0000D1   F9           MOV     R1,A
   \   0000D2   12....       LCALL   ??APSME_BindRequest?relay
   \   0000D5   7401         MOV     A,#0x1
   \   0000D7   12....       LCALL   ?DEALLOC_XSTACK8
   \   0000DA   E9           MOV     A,R1
   \   0000DB   705E         JNZ     ??ZDO_ProcessBindUnbindReq_7
    929                    {
    930                      uint16 nwkAddr;
    931          
    932                      // valid entry
    933                      bindStat = ZDP_SUCCESS;
   \   0000DD   E4           CLR     A
   \   0000DE   85..82       MOV     DPL,?XSP + 0
   \   0000E1   85..83       MOV     DPH,?XSP + 1
   \   0000E4   F0           MOVX    @DPTR,A
    934          
    935                      // Notify to save info into NV
    936                      ZDApp_NVUpdate();
   \   0000E5                ; Setup parameters for call to function ZDApp_NVUpdate
   \   0000E5   12....       LCALL   ??ZDApp_NVUpdate?relay
    937          
    938                      // Check for the destination address
    939                      if ( pReq->dstAddress.addrMode == Addr64Bit )
   \   0000E8   12....       LCALL   ?Subroutine114 & 0xFFFF
   \                     ??CrossCallReturnLabel_177:
   \   0000EB   6403         XRL     A,#0x3
   \   0000ED   704C         JNZ     ??ZDO_ProcessBindUnbindReq_7
    940                      {
    941                        if ( APSME_LookupNwkAddr( pReq->dstAddress.addr.extAddr, &nwkAddr ) == FALSE )
   \   0000EF                ; Setup parameters for call to function APSME_LookupNwkAddr
   \   0000EF   7401         MOV     A,#0x1
   \   0000F1   12....       LCALL   ?XSTACK_DISP0_8
   \   0000F4   AC82         MOV     R4,DPL
   \   0000F6   AD83         MOV     R5,DPH
   \   0000F8   AA..         MOV     R2,?V0 + 6
   \   0000FA   AB..         MOV     R3,?V0 + 7
   \   0000FC   12....       LCALL   ??APSME_LookupNwkAddr?relay
   \   0000FF   E9           MOV     A,R1
   \   000100   7039         JNZ     ??ZDO_ProcessBindUnbindReq_7
    942                        {
    943                          ZDP_NwkAddrReq( pReq->dstAddress.addr.extAddr, ZDP_ADDR_REQTYPE_SINGLE, 0, 0 );
   \   000102                ; Setup parameters for call to function ZDP_NwkAddrReq
   \   000102   7D00         MOV     R5,#0x0
   \   000104   7C00         MOV     R4,#0x0
   \   000106   7900         MOV     R1,#0x0
   \   000108   AA..         MOV     R2,?V0 + 6
   \   00010A   AB..         MOV     R3,?V0 + 7
   \   00010C   12....       LCALL   ??ZDP_NwkAddrReq?relay
   \   00010F   802A         SJMP    ??ZDO_ProcessBindUnbindReq_7
    944                        }
    945                      }
    946                    }
    947                  }
    948                }
    949                else // Unbind_req
    950                {
    951                  if ( APSME_UnBindRequest( pReq->srcEndpoint, pReq->clusterID,
    952                                 &(pReq->dstAddress), pReq->dstEndpoint ) == ZSuccess )
   \                     ??ZDO_ProcessBindUnbindReq_6:
   \   000111                ; Setup parameters for call to function APSME_UnBindRequest
   \   000111   12....       LCALL   ?Subroutine86 & 0xFFFF
   \                     ??CrossCallReturnLabel_371:
   \   000114   12....       LCALL   ?PUSH_XSTACK_I_ONE
   \   000117   12....       LCALL   ?Subroutine98 & 0xFFFF
   \                     ??CrossCallReturnLabel_389:
   \   00011A   12....       LCALL   ??APSME_UnBindRequest?relay
   \   00011D   7401         MOV     A,#0x1
   \   00011F   12....       LCALL   ?DEALLOC_XSTACK8
   \   000122   E9           MOV     A,R1
   \   000123   700D         JNZ     ??ZDO_ProcessBindUnbindReq_8
    953                  {
    954                    bindStat = ZDP_SUCCESS;
   \   000125   E4           CLR     A
   \   000126   85..82       MOV     DPL,?XSP + 0
   \   000129   85..83       MOV     DPH,?XSP + 1
   \   00012C   F0           MOVX    @DPTR,A
    955          
    956                    // Notify to save info into NV
    957                    ZDApp_NVUpdate();
   \   00012D                ; Setup parameters for call to function ZDApp_NVUpdate
   \   00012D   12....       LCALL   ??ZDApp_NVUpdate?relay
   \   000130   8009         SJMP    ??ZDO_ProcessBindUnbindReq_7
    958                  }
    959                  else
    960                    bindStat = ZDP_NO_ENTRY;
   \                     ??ZDO_ProcessBindUnbindReq_8:
   \   000132   7488         MOV     A,#-0x78
   \                     ??ZDO_ProcessBindUnbindReq_2:
   \   000134   85..82       MOV     DPL,?XSP + 0
   \   000137   85..83       MOV     DPH,?XSP + 1
   \   00013A   F0           MOVX    @DPTR,A
    961                }
    962              }
    963            }
    964          
    965            // Send back a response message
    966            ZDP_SendData( &(inMsg->TransSeq), &(inMsg->srcAddr),
    967                         (inMsg->clusterID | ZDO_RESPONSE_BIT), 1, &bindStat,
    968                         inMsg->SecurityUse );
   \                     ??ZDO_ProcessBindUnbindReq_7:
   \   00013B                ; Setup parameters for call to function ZDP_SendData
   \   00013B   E5..         MOV     A,?V0 + 2
   \   00013D   240E         ADD     A,#0xe
   \   00013F   F582         MOV     DPL,A
   \   000141   E5..         MOV     A,?V0 + 3
   \   000143   12....       LCALL   ??Subroutine256_0 & 0xFFFF
   \                     ??CrossCallReturnLabel_520:
   \   000146   12....       LCALL   ?Subroutine193 & 0xFFFF
   \                     ??CrossCallReturnLabel_367:
   \   000149   12....       LCALL   ?PUSH_XSTACK_I_ONE
   \   00014C   7401         MOV     A,#0x1
   \   00014E   12....       LCALL   ?XSTACK_DISP0_8
   \   000151   8582..       MOV     ?V0 + 0,DPL
   \   000154   8583..       MOV     ?V0 + 1,DPH
   \   000157   78..         MOV     R0,#?V0 + 0
   \   000159   12....       LCALL   ?PUSH_XSTACK_I_TWO
   \   00015C   12....       LCALL   ?Subroutine135 & 0xFFFF
   \                     ??CrossCallReturnLabel_197:
   \   00015F   12....       LCALL   ??Subroutine213_0 & 0xFFFF
   \                     ??CrossCallReturnLabel_292:
   \   000162   4480         ORL     A,#0x80
   \   000164   F5..         MOV     ?V0 + 1,A
   \   000166   78..         MOV     R0,#?V0 + 0
   \   000168   12....       LCALL   ?PUSH_XSTACK_I_TWO
   \   00016B   7901         MOV     R1,#0x1
   \   00016D   E5..         MOV     A,?V0 + 2
   \   00016F   2402         ADD     A,#0x2
   \   000171   FC           MOV     R4,A
   \   000172   E5..         MOV     A,?V0 + 3
   \   000174   3400         ADDC    A,#0x0
   \   000176   FD           MOV     R5,A
   \   000177   E5..         MOV     A,?V0 + 2
   \   000179   240F         ADD     A,#0xf
   \   00017B   FA           MOV     R2,A
   \   00017C   E5..         MOV     A,?V0 + 3
   \   00017E   12....       LCALL   ??Subroutine232_0 & 0xFFFF
   \                     ??CrossCallReturnLabel_356:
   \   000181   12....       LCALL   ?DEALLOC_XSTACK8
    969          }
   \   000184   740C         MOV     A,#0xc
   \   000186   02....       LJMP    ?Subroutine210 & 0xFFFF

   \                                 In  segment BANKED_CODE, align 1, keep-with-next
   \                     ?Subroutine114:
   \   000000   12....       LCALL   ?Subroutine167 & 0xFFFF
   \                     ??CrossCallReturnLabel_559:
   \   000003   E0           MOVX    A,@DPTR
   \   000004   22           RET

   \                                 In  segment BANKED_CODE, align 1, keep-with-next
   \                     ?Subroutine167:
   \   000000   EE           MOV     A,R6
   \   000001   2413         ADD     A,#0x13
   \   000003   F582         MOV     DPL,A
   \   000005   EF           MOV     A,R7
   \   000006   02....       LJMP    ?Subroutine199 & 0xFFFF

   \                                 In  segment BANKED_CODE, align 1, keep-with-next
   \                     ??Subroutine232_0:
   \   000000   3400         ADDC    A,#0x0
   \   000002   FB           MOV     R3,A
   \   000003   12....       LCALL   ?Subroutine175 & 0xFFFF
   \                     ??CrossCallReturnLabel_360:
   \   000006   22           RET

   \                                 In  segment BANKED_CODE, align 1, keep-with-next
   \                     ?Subroutine86:
   \   000000   85..82       MOV     DPL,?V0 + 0
   \   000003   85..83       MOV     DPH,?V0 + 1
   \   000006                REQUIRE ?Subroutine193
   \   000006                ; // Fall through to label ?Subroutine193

   \                                 In  segment BANKED_CODE, align 1, keep-with-next
   \                     ?Subroutine98:
   \   000000   AC..         MOV     R4,?V0 + 6
   \   000002   AD..         MOV     R5,?V0 + 7
   \   000004   8E82         MOV     DPL,R6
   \   000006   8F83         MOV     DPH,R7
   \   000008   A3           INC     DPTR
   \   000009   A3           INC     DPTR
   \   00000A   A3           INC     DPTR
   \   00000B   A3           INC     DPTR
   \   00000C   A3           INC     DPTR
   \   00000D   A3           INC     DPTR
   \   00000E   A3           INC     DPTR
   \   00000F   A3           INC     DPTR
   \   000010   A3           INC     DPTR
   \   000011                REQUIRE ??Subroutine237_0
   \   000011                ; // Fall through to label ??Subroutine237_0

   \                                 In  segment BANKED_CODE, align 1, keep-with-next
   \                     ?Subroutine175:
   \   000000   12....       LCALL   ??ZDP_SendData?relay
   \   000003   7405         MOV     A,#0x5
   \   000005   22           RET

   \                                 In  segment BANKED_CODE, align 1, keep-with-next
   \                     ??Subroutine248_0:
   \   000000   3400         ADDC    A,#0x0
   \   000002   F5..         MOV     ?V0 + 1,A
   \   000004   22           RET

   \                                 In  segment BANKED_CODE, align 1, keep-with-next
   \                     ?Subroutine135:
   \   000000   E5..         MOV     A,?V0 + 2
   \   000002   240C         ADD     A,#0xc
   \   000004   F582         MOV     DPL,A
   \   000006   E5..         MOV     A,?V0 + 3
   \   000008   22           RET
    970          
    971          /*********************************************************************
    972           * @fn      ZDO_UpdateAddrManager
    973           *
    974           * @brief   Update the Address Manager.
    975           *
    976           * @param   nwkAddr - network address
    977           * @param   extAddr - extended address
    978           *
    979           * @return  none
    980           */

   \                                 In  segment BANKED_CODE, align 1, keep-with-next
    981          void ZDO_UpdateAddrManager( uint16 nwkAddr, uint8 *extAddr )
   \                     ZDO_UpdateAddrManager:
    982          {
   \   000000   C082         PUSH    DPL
   \   000002   C083         PUSH    DPH
   \   000004                ; Saved register size: 2
   \   000004                ; Auto size: 13
   \   000004   74F3         MOV     A,#-0xd
   \   000006   12....       LCALL   ?ALLOC_XSTACK8
    983            AddrMgrEntry_t addrEntry;
    984          
    985            // Update the address manager
    986            addrEntry.user = ADDRMGR_USER_DEFAULT;
   \   000009   E4           CLR     A
   \   00000A   85..82       MOV     DPL,?XSP + 0
   \   00000D   85..83       MOV     DPH,?XSP + 1
   \   000010   F0           MOVX    @DPTR,A
    987            addrEntry.nwkAddr = nwkAddr;
   \   000011   7401         MOV     A,#0x1
   \   000013   12....       LCALL   ?XSTACK_DISP0_8
   \   000016   12....       LCALL   ?Subroutine38 & 0xFFFF
    988            AddrMgrExtAddrSet( addrEntry.extAddr, extAddr );
   \                     ??CrossCallReturnLabel_63:
   \   000019                ; Setup parameters for call to function AddrMgrExtAddrSet
   \   000019   7403         MOV     A,#0x3
   \   00001B   12....       LCALL   ?XSTACK_DISP0_8
   \   00001E   12....       LCALL   ?Subroutine133 & 0xFFFF
    989            AddrMgrEntryUpdate( &addrEntry );
    990          }
   \                     ??CrossCallReturnLabel_194:
   \   000021   740D         MOV     A,#0xd
   \   000023   12....       LCALL   ?DEALLOC_XSTACK8
   \   000026   02....       LJMP    ?Subroutine186 & 0xFFFF

   \                                 In  segment BANKED_CODE, align 1, keep-with-next
   \                     ?Subroutine133:
   \   000000   AA82         MOV     R2,DPL
   \   000002   AB83         MOV     R3,DPH
   \   000004   12....       LCALL   ??AddrMgrExtAddrSet?relay
   \   000007                ; Setup parameters for call to function AddrMgrEntryUpdate
   \   000007                ; Setup parameters for call to function AddrMgrEntryUpdate
   \   000007   85..82       MOV     DPL,?XSP + 0
   \   00000A   85..83       MOV     DPH,?XSP + 1
   \   00000D   AA82         MOV     R2,DPL
   \   00000F   AB83         MOV     R3,DPH
   \   000011   12....       LCALL   ??AddrMgrEntryUpdate?relay
   \   000014   22           RET
    991          
    992          /*********************************************************************
    993           * @fn      ZDO_ProcessServerDiscReq
    994           *
    995           * @brief   Process the Server_Discovery_req message.
    996           *
    997           * @param   inMsg  - incoming message (request)
    998           *
    999           * @return  none
   1000           */

   \                                 In  segment BANKED_CODE, align 1, keep-with-next
   1001          void ZDO_ProcessServerDiscReq( zdoIncomingMsg_t *inMsg )
   \                     ZDO_ProcessServerDiscReq:
   1002          {
   \   000000   74F6         MOV     A,#-0xa
   \   000002   12....       LCALL   ?BANKED_ENTER_XDATA
   \   000005                ; Saved register size: 10
   \   000005                ; Auto size: 0
   \   000005   12....       LCALL   ?Subroutine115 & 0xFFFF
   1003            uint16 serverMask = BUILD_UINT16( inMsg->asdu[0], inMsg->asdu[1] );
   1004            uint16 matchMask = serverMask & ZDO_Config_Node_Descriptor.ServerMask;
   \                     ??CrossCallReturnLabel_178:
   \   000008   12....       LCALL   ??Subroutine231_0 & 0xFFFF
   \                     ??CrossCallReturnLabel_345:
   \   00000B   8882         MOV     DPL,R0
   \   00000D   8983         MOV     DPH,R1
   \   00000F   12....       LCALL   ??Subroutine271_0 & 0xFFFF
   \                     ??CrossCallReturnLabel_642:
   \   000012   F8           MOV     R0,A
   \   000013   90....       MOV     DPTR,#(ZDO_Config_Node_Descriptor + 8)
   \   000016   E0           MOVX    A,@DPTR
   \   000017   58           ANL     A,R0
   \   000018   F5..         MOV     ?V0 + 0,A
   \   00001A   A3           INC     DPTR
   \   00001B   E0           MOVX    A,@DPTR
   \   00001C   59           ANL     A,R1
   \   00001D   F5..         MOV     ?V0 + 1,A
   1005          
   1006            if ( matchMask )
   \   00001F   E5..         MOV     A,?V0 + 0
   \   000021   7002         JNZ     ??ZDO_ProcessServerDiscReq_0
   \   000023   E5..         MOV     A,?V0 + 1
   \                     ??ZDO_ProcessServerDiscReq_0:
   \   000025   6028         JZ      ??ZDO_ProcessServerDiscReq_1
   1007            {
   1008              ZDP_ServerDiscRsp( inMsg->TransSeq, &(inMsg->srcAddr), ZSUCCESS,
   1009                          ZDAppNwkAddr.addr.shortAddr, matchMask, inMsg->SecurityUse );
   \   000027                ; Setup parameters for call to function ZDP_ServerDiscRsp
   \   000027   78..         MOV     R0,#?V0 + 0
   \   000029   12....       LCALL   ?PUSH_XSTACK_I_TWO
   \   00002C   90....       MOV     DPTR,#ZDAppNwkAddr
   \   00002F   12....       LCALL   ?PUSH_XSTACK8_X_TWO
   \   000032   EE           MOV     A,R6
   \   000033   240E         ADD     A,#0xe
   \   000035   F582         MOV     DPL,A
   \   000037   EF           MOV     A,R7
   \   000038   12....       LCALL   ??Subroutine242_0 & 0xFFFF
   1010            }
   \                     ??CrossCallReturnLabel_428:
   \   00003B   FD           MOV     R5,A
   \   00003C   7C00         MOV     R4,#0x0
   \   00003E   12....       LCALL   ?Subroutine171 & 0xFFFF
   \                     ??CrossCallReturnLabel_231:
   \   000041   F582         MOV     DPL,A
   \   000043   EF           MOV     A,R7
   \   000044   12....       LCALL   ??Subroutine220_0 & 0xFFFF
   \                     ??CrossCallReturnLabel_302:
   \   000047   12....       LCALL   ??ZDP_ServerDiscRsp?relay
   \   00004A   7404         MOV     A,#0x4
   \   00004C   12....       LCALL   ?DEALLOC_XSTACK8
   1011          }
   \                     ??ZDO_ProcessServerDiscReq_1:
   \   00004F   02....       LJMP    ??Subroutine219_0 & 0xFFFF

   \                                 In  segment BANKED_CODE, align 1, keep-with-next
   \                     ?Subroutine115:
   \   000000   EA           MOV     A,R2
   \   000001   FE           MOV     R6,A
   \   000002   EB           MOV     A,R3
   \   000003   FF           MOV     R7,A
   \   000004                ; Setup parameters for call to function NLME_PermitJoiningRequest
   \   000004   12....       LCALL   ?Subroutine167 & 0xFFFF
   \                     ??CrossCallReturnLabel_560:
   \   000007   22           RET
   1012          
   1013          /*********************************************************************
   1014           * Call Back Functions from APS  - API
   1015           */
   1016          
   1017          /*********************************************************************
   1018           * @fn          ZDO_EndDeviceTimeoutCB
   1019           *
   1020           * @brief       This function handles the binding timer for the End
   1021           *              Device Bind command.
   1022           *
   1023           * @param       none
   1024           *
   1025           * @return      none
   1026           */

   \                                 In  segment BANKED_CODE, align 1, keep-with-next
   1027          void ZDO_EndDeviceTimeoutCB( void )
   \                     ZDO_EndDeviceTimeoutCB:
   1028          {
   \   000000   74F6         MOV     A,#-0xa
   \   000002   12....       LCALL   ?BANKED_ENTER_XDATA
   \   000005                ; Saved register size: 10
   \   000005                ; Auto size: 2
   \   000005   74FE         MOV     A,#-0x2
   \   000007   12....       LCALL   ?ALLOC_XSTACK8
   1029          #if defined ( REFLECTOR )
   1030            byte stat;
   1031            if ( ZDO_EDBind )
   \   00000A   90....       MOV     DPTR,#ZDO_EDBind
   \   00000D   E0           MOVX    A,@DPTR
   \   00000E   7002         JNZ     ??ZDO_EndDeviceTimeoutCB_0
   \   000010   A3           INC     DPTR
   \   000011   E0           MOVX    A,@DPTR
   \                     ??ZDO_EndDeviceTimeoutCB_0:
   \   000012   7003         JNZ     $+5
   \   000014   02....       LJMP    ??ZDO_EndDeviceTimeoutCB_1 & 0xFFFF
   1032            {
   1033              stat = ZDO_EDBind->status;
   1034          
   1035              // Send the response message to the first sent
   1036              ZDO_SendEDBindRsp( ZDO_EDBind->SrcTransSeq, &(ZDO_EDBind->SrcAddr),
   1037                                  stat, ZDO_EDBind->SecurityUse );
   \   000017   90....       MOV     DPTR,#ZDO_EDBind
   \   00001A   E0           MOVX    A,@DPTR
   \   00001B   2415         ADD     A,#0x15
   \   00001D   12....       LCALL   ?Subroutine84 & 0xFFFF
   \                     ??CrossCallReturnLabel_329:
   \   000020   FA           MOV     R2,A
   \   000021   90....       MOV     DPTR,#ZDO_EDBind
   \   000024   E0           MOVX    A,@DPTR
   \   000025   2416         ADD     A,#0x16
   \   000027   08           INC     R0
   \   000028   12....       LCALL   ??Subroutine227_0 & 0xFFFF
   \                     ??CrossCallReturnLabel_327:
   \   00002B   85..82       MOV     DPL,?XSP + 0
   \   00002E   85..83       MOV     DPH,?XSP + 1
   \   000031   F0           MOVX    @DPTR,A
   \   000032   90....       MOV     DPTR,#ZDO_EDBind
   \   000035   E0           MOVX    A,@DPTR
   \   000036   2401         ADD     A,#0x1
   \   000038   FC           MOV     R4,A
   \   000039   A3           INC     DPTR
   \   00003A   E0           MOVX    A,@DPTR
   \   00003B   3400         ADDC    A,#0x0
   \   00003D   FD           MOV     R5,A
   \   00003E   90....       MOV     DPTR,#ZDO_EDBind
   \   000041   12....       LCALL   ?Subroutine59 & 0xFFFF
   \                     ??CrossCallReturnLabel_112:
   \   000044   C0E0         PUSH    A
   \   000046   7401         MOV     A,#0x1
   \   000048   12....       LCALL   ?XSTACK_DISP0_8
   \   00004B   D0E0         POP     A
   \   00004D   F0           MOVX    @DPTR,A
   \   00004E                ; Setup parameters for call to function ZDP_SendData
   \   00004E   EA           MOV     A,R2
   \   00004F   F5..         MOV     ?V0 + 0,A
   \   000051   78..         MOV     R0,#?V0 + 0
   \   000053   12....       LCALL   ?PUSH_XSTACK_I_ONE
   \   000056   7401         MOV     A,#0x1
   \   000058   12....       LCALL   ?XSTACK_DISP0_8
   \   00005B   8582..       MOV     ?V0 + 0,DPL
   \   00005E   8583..       MOV     ?V0 + 1,DPH
   \   000061   78..         MOV     R0,#?V0 + 0
   \   000063   12....       LCALL   ?PUSH_XSTACK_I_TWO
   \   000066   75..20       MOV     ?V0 + 0,#0x20
   \   000069   75..80       MOV     ?V0 + 1,#-0x80
   \   00006C   78..         MOV     R0,#?V0 + 0
   \   00006E   12....       LCALL   ?PUSH_XSTACK_I_TWO
   \   000071   7901         MOV     R1,#0x1
   \   000073   7406         MOV     A,#0x6
   \   000075   12....       LCALL   ?XSTACK_DISP0_8
   \   000078   AA82         MOV     R2,DPL
   \   00007A   AB83         MOV     R3,DPH
   \   00007C   12....       LCALL   ?Subroutine175 & 0xFFFF
   \                     ??CrossCallReturnLabel_359:
   \   00007F   12....       LCALL   ?DEALLOC_XSTACK8
   \   000082                ; Setup parameters for call to function HalLcdWriteString
   \   000082   7900         MOV     R1,#0x0
   \   000084   7A..         MOV     R2,#(`?<Constant "End Device Bind">` & 0xff)
   \   000086   7B..         MOV     R3,#((`?<Constant "End Device Bind">` >> 8) & 0xff)
   \   000088   12....       LCALL   ??HalLcdWriteString?relay
   \   00008B   85..82       MOV     DPL,?XSP + 0
   \   00008E   85..83       MOV     DPH,?XSP + 1
   \   000091   E0           MOVX    A,@DPTR
   \   000092   7901         MOV     R1,#0x1
   \   000094   7006         JNZ     ??ZDO_EndDeviceTimeoutCB_2
   \   000096                ; Setup parameters for call to function HalLcdWriteString
   \   000096   7A..         MOV     R2,#(`?<Constant "Success Sent">` & 0xff)
   \   000098   7B..         MOV     R3,#((`?<Constant "Success Sent">` >> 8) & 0xff)
   \   00009A   8004         SJMP    ??ZDO_EndDeviceTimeoutCB_3
   \                     ??ZDO_EndDeviceTimeoutCB_2:
   \   00009C                ; Setup parameters for call to function HalLcdWriteString
   \   00009C   7A..         MOV     R2,#(`?<Constant "Timeout">` & 0xff)
   \   00009E   7B..         MOV     R3,#((`?<Constant "Timeout">` >> 8) & 0xff)
   \                     ??ZDO_EndDeviceTimeoutCB_3:
   \   0000A0   12....       LCALL   ??HalLcdWriteString?relay
   1038          
   1039              ZDO_RemoveEndDeviceBind();
   \   0000A3   90....       MOV     DPTR,#ZDO_EDBind
   \   0000A6   E0           MOVX    A,@DPTR
   \   0000A7   7002         JNZ     ??ZDO_EndDeviceTimeoutCB_4
   \   0000A9   A3           INC     DPTR
   \   0000AA   E0           MOVX    A,@DPTR
   \                     ??ZDO_EndDeviceTimeoutCB_4:
   \   0000AB   602F         JZ      ??ZDO_EndDeviceTimeoutCB_1
   \   0000AD   90....       MOV     DPTR,#ZDO_EDBind
   \   0000B0   E0           MOVX    A,@DPTR
   \   0000B1   2410         ADD     A,#0x10
   \   0000B3   12....       LCALL   ?Subroutine48 & 0xFFFF
   1040            }
   \                     ??CrossCallReturnLabel_91:
   \   0000B6   7001         JNZ     ??ZDO_EndDeviceTimeoutCB_5
   \   0000B8   EB           MOV     A,R3
   \                     ??ZDO_EndDeviceTimeoutCB_5:
   \   0000B9   6003         JZ      ??ZDO_EndDeviceTimeoutCB_6
   \   0000BB                ; Setup parameters for call to function osal_mem_free
   \   0000BB   12....       LCALL   ??osal_mem_free?relay
   \                     ??ZDO_EndDeviceTimeoutCB_6:
   \   0000BE   90....       MOV     DPTR,#ZDO_EDBind
   \   0000C1   E0           MOVX    A,@DPTR
   \   0000C2   2413         ADD     A,#0x13
   \   0000C4   12....       LCALL   ?Subroutine48 & 0xFFFF
   \                     ??CrossCallReturnLabel_92:
   \   0000C7   7001         JNZ     ??ZDO_EndDeviceTimeoutCB_7
   \   0000C9   EB           MOV     A,R3
   \                     ??ZDO_EndDeviceTimeoutCB_7:
   \   0000CA   6003         JZ      ??ZDO_EndDeviceTimeoutCB_8
   \   0000CC                ; Setup parameters for call to function osal_mem_free
   \   0000CC   12....       LCALL   ??osal_mem_free?relay
   \                     ??ZDO_EndDeviceTimeoutCB_8:
   \   0000CF                ; Setup parameters for call to function osal_mem_free
   \   0000CF   90....       MOV     DPTR,#ZDO_EDBind
   \   0000D2   12....       LCALL   ??Subroutine241_0 & 0xFFFF
   \                     ??CrossCallReturnLabel_418:
   \   0000D5   90....       MOV     DPTR,#ZDO_EDBind
   \   0000D8   E4           CLR     A
   \   0000D9   F0           MOVX    @DPTR,A
   \   0000DA   A3           INC     DPTR
   \   0000DB   F0           MOVX    @DPTR,A
   1041          #endif  // REFLECTOR
   1042          }
   \                     ??ZDO_EndDeviceTimeoutCB_1:
   \   0000DC   02....       LJMP    ?Subroutine207 & 0xFFFF

   \                                 In  segment BANKED_CODE, align 1, keep-with-next
   \                     ?Subroutine84:
   \   000000   F8           MOV     R0,A
   \   000001                REQUIRE ??Subroutine227_0
   \   000001                ; // Fall through to label ??Subroutine227_0

   \                                 In  segment BANKED_CODE, align 1, keep-with-next
   \                     ??Subroutine227_0:
   \   000000   12....       LCALL   ??Subroutine244_0 & 0xFFFF
   \                     ??CrossCallReturnLabel_447:
   \   000003   22           RET

   \                                 In  segment BANKED_CODE, align 1, keep-with-next
   \                     ?Subroutine48:
   \   000000   12....       LCALL   ?Subroutine154 & 0xFFFF
   \                     ??CrossCallReturnLabel_419:
   \   000003   EA           MOV     A,R2
   \   000004   22           RET

   \                                 In  segment BANKED_CODE, align 1, keep-with-next
   \                     ?Subroutine154:
   \   000000   F8           MOV     R0,A
   \   000001   12....       LCALL   ?Subroutine179 & 0xFFFF
   \                     ??CrossCallReturnLabel_505:
   \   000004   02....       LJMP    ?Subroutine197 & 0xFFFF
   1043          
   1044          /*********************************************************************
   1045           * Optional Management Messages
   1046           */
   1047          
   1048          /*********************************************************************
   1049           * @fn          ZDO_ProcessMgmtLqiReq
   1050           *
   1051           * @brief       This function handles parsing the incoming Management
   1052           *              LQI request and generate the response.
   1053           *
   1054           *   Note:      This function will limit the number of items returned
   1055           *              to ZDO_MAX_LQI_ITEMS items.
   1056           *
   1057           * @param       inMsg - incoming message (request)
   1058           *
   1059           * @return      none
   1060           */

   \                                 In  segment BANKED_CODE, align 1, keep-with-next
   1061          void ZDO_ProcessMgmtLqiReq( zdoIncomingMsg_t *inMsg )
   \                     ZDO_ProcessMgmtLqiReq:
   1062          {
   \   000000   74F0         MOV     A,#-0x10
   \   000002   12....       LCALL   ?BANKED_ENTER_XDATA
   \   000005                ; Saved register size: 16
   \   000005                ; Auto size: 43
   \   000005   74D5         MOV     A,#-0x2b
   \   000007   12....       LCALL   ?ALLOC_XSTACK8
   \   00000A   7405         MOV     A,#0x5
   \   00000C   12....       LCALL   ?XSTACK_DISP0_8
   \   00000F   12....       LCALL   ?Subroutine38 & 0xFFFF
   1063            byte x;
   1064            byte index;
   1065            byte numItems;
   1066            byte maxItems;
   1067            ZDP_MgmtLqiItem_t* table = NULL;
   \                     ??CrossCallReturnLabel_64:
   \   000012   7401         MOV     A,#0x1
   \   000014   12....       LCALL   ?XSTACK_DISP0_8
   \   000017   E4           CLR     A
   \   000018   F0           MOVX    @DPTR,A
   \   000019   A3           INC     DPTR
   \   00001A   F0           MOVX    @DPTR,A
   1068            ZDP_MgmtLqiItem_t* item;
   1069            neighborEntry_t    entry;
   1070            byte aItems;
   1071            associated_devices_t *aDevice;
   1072            AddrMgrEntry_t  nwkEntry;
   1073            uint8 StartIndex = inMsg->asdu[0];
   \   00001B   7405         MOV     A,#0x5
   \   00001D   12....       LCALL   ?XSTACK_DISP0_8
   \   000020   12....       LCALL   ?Subroutine50 & 0xFFFF
   1074          
   1075            // Get the number of neighbor items
   1076            NLME_GetRequest( nwkNumNeighborTableEntries, 0, &maxItems );
   \                     ??CrossCallReturnLabel_99:
   \   000023   799C         MOV     R1,#-0x64
   \   000025   12....       LCALL   ??NLME_GetRequest?relay
   1077          
   1078            // Get the number of associated items
   1079            aItems = (uint8)AssocCount( PARENT, CHILD_FFD_RX_IDLE );
   \   000028                ; Setup parameters for call to function AssocCount
   \   000028   7A04         MOV     R2,#0x4
   \   00002A   7900         MOV     R1,#0x0
   \   00002C   12....       LCALL   ??AssocCount?relay
   \   00002F   EA           MOV     A,R2
   \   000030   F5..         MOV     ?V0 + 2,A
   1080          
   1081            // Total number of items
   1082            maxItems += aItems;
   \   000032   85..82       MOV     DPL,?XSP + 0
   \   000035   85..83       MOV     DPH,?XSP + 1
   \   000038   E0           MOVX    A,@DPTR
   \   000039   25..         ADD     A,?V0 + 2
   \   00003B   F0           MOVX    @DPTR,A
   1083          
   1084            // Start with the supplied index
   1085            if ( maxItems > StartIndex )
   \   00003C   FA           MOV     R2,A
   \   00003D   E5..         MOV     A,?V0 + 4
   \   00003F   C3           CLR     C
   \   000040   9A           SUBB    A,R2
   \   000041   4003         JC      $+5
   \   000043   02....       LJMP    ??ZDO_ProcessMgmtLqiReq_0 & 0xFFFF
   1086            {
   1087              numItems = maxItems - StartIndex;
   \   000046   E0           MOVX    A,@DPTR
   \   000047   C3           CLR     C
   \   000048   95..         SUBB    A,?V0 + 4
   \   00004A   F5..         MOV     ?V0 + 1,A
   1088          
   1089              // limit the size of the list
   1090              if ( numItems > ZDO_MAX_LQI_ITEMS )
   \   00004C   C3           CLR     C
   \   00004D   9404         SUBB    A,#0x4
   \   00004F   4003         JC      ??ZDO_ProcessMgmtLqiReq_1
   1091                numItems = ZDO_MAX_LQI_ITEMS;
   \   000051   75..03       MOV     ?V0 + 1,#0x3
   1092          
   1093              // Allocate the memory to build the table
   1094              table = (ZDP_MgmtLqiItem_t*)osal_mem_alloc( (short)
   1095                        ( numItems * sizeof( ZDP_MgmtLqiItem_t ) ) );
   \                     ??ZDO_ProcessMgmtLqiReq_1:
   \   000054                ; Setup parameters for call to function osal_mem_alloc
   \   000054   E5..         MOV     A,?V0 + 1
   \   000056   75F01A       MOV     B,#0x1a
   \   000059   A4           MUL     AB
   \   00005A   FA           MOV     R2,A
   \   00005B   ABF0         MOV     R3,B
   \   00005D   12....       LCALL   ??osal_mem_alloc?relay
   \   000060   7401         MOV     A,#0x1
   \   000062   12....       LCALL   ?XSTACK_DISP0_8
   \   000065   12....       LCALL   ?Subroutine38 & 0xFFFF
   1096          
   1097              if ( table != NULL )
   \                     ??CrossCallReturnLabel_65:
   \   000068   7401         MOV     A,#0x1
   \   00006A   12....       LCALL   ?XSTACK_DISP0_8
   \   00006D   E0           MOVX    A,@DPTR
   \   00006E   7002         JNZ     ??ZDO_ProcessMgmtLqiReq_2
   \   000070   A3           INC     DPTR
   \   000071   E0           MOVX    A,@DPTR
   \                     ??ZDO_ProcessMgmtLqiReq_2:
   \   000072   7003         JNZ     $+5
   \   000074   02....       LJMP    ??ZDO_ProcessMgmtLqiReq_3 & 0xFFFF
   1098              {
   1099                x = 0;
   \   000077   75..00       MOV     ?V0 + 3,#0x0
   1100                item = table;
   \   00007A   7401         MOV     A,#0x1
   \   00007C   12....       LCALL   ?XSTACK_DISP0_8
   \   00007F   12....       LCALL   ??Subroutine217_0 & 0xFFFF
   1101                index = StartIndex;
   \                     ??CrossCallReturnLabel_298:
   \   000082   85....       MOV     ?V0 + 0,?V0 + 4
   \   000085   02....       LJMP    ??CrossCallReturnLabel_51 & 0xFFFF
   1102          
   1103                // Loop through associated items and build list
   1104                for ( ; x < numItems; x++ )
   1105                {
   1106                  if ( index < aItems )
   1107                  {
   1108                    // get next associated device
   1109                    aDevice = AssocFindDevice( index++ );
   1110          
   1111                    // set basic fields
   1112                    item->panID   = _NIB.nwkPanId;
   1113                    osal_cpyExtAddr( item->extPanID, _NIB.extendedPANID );
   1114                    item->nwkAddr = aDevice->shortAddr;
   1115                    item->permit  = ZDP_MGMT_BOOL_UNKNOWN;
   1116                    item->depth   = 0xFF;
   1117                    item->lqi     = aDevice->linkInfo.rxLqi;
   1118          
   1119                    // set extented address
   1120                    nwkEntry.user    = ADDRMGR_USER_DEFAULT;
   1121                    nwkEntry.nwkAddr = aDevice->shortAddr;
   1122          
   1123                    if ( AddrMgrEntryLookupNwk( &nwkEntry ) == TRUE )
   1124                    {
   1125                      osal_cpyExtAddr( item->extAddr, nwkEntry.extAddr );
   1126                    }
   1127                    else
   1128                    {
   1129                      osal_memset( item->extAddr, 0xFF, Z_EXTADDR_LEN );
   \                     ??ZDO_ProcessMgmtLqiReq_4:
   \   000088                ; Setup parameters for call to function osal_memset
   \   000088   7C08         MOV     R4,#0x8
   \   00008A   7D00         MOV     R5,#0x0
   \   00008C   79FF         MOV     R1,#-0x1
   \   00008E   AA..         MOV     R2,?V0 + 6
   \   000090   AB..         MOV     R3,?V0 + 7
   \   000092   12....       LCALL   ??osal_memset?relay
   1130                    }
   1131          
   1132                    // use association info to set other fields
   1133                    if ( aDevice->nodeRelation == PARENT )
   \                     ??ZDO_ProcessMgmtLqiReq_5:
   \   000095   7403         MOV     A,#0x3
   \   000097   12....       LCALL   ?XSTACK_DISP0_8
   \   00009A   E0           MOVX    A,@DPTR
   \   00009B   2404         ADD     A,#0x4
   \   00009D   F8           MOV     R0,A
   \   00009E   A3           INC     DPTR
   \   00009F   E0           MOVX    A,@DPTR
   \   0000A0   3400         ADDC    A,#0x0
   \   0000A2   F9           MOV     R1,A
   \   0000A3   EE           MOV     A,R6
   \   0000A4   2415         ADD     A,#0x15
   \   0000A6   FC           MOV     R4,A
   \   0000A7   EF           MOV     A,R7
   \   0000A8   3400         ADDC    A,#0x0
   \   0000AA   FD           MOV     R5,A
   \   0000AB   12....       LCALL   ?Subroutine118 & 0xFFFF
   \                     ??CrossCallReturnLabel_503:
   \   0000AE   7042         JNZ     ??ZDO_ProcessMgmtLqiReq_6
   1134                    {
   1135                      if (  aDevice->shortAddr == 0 )
   \   0000B0   7403         MOV     A,#0x3
   \   0000B2   12....       LCALL   ?XSTACK_DISP0_8
   \   0000B5   12....       LCALL   ?Subroutine59 & 0xFFFF
   \                     ??CrossCallReturnLabel_113:
   \   0000B8   7002         JNZ     ??ZDO_ProcessMgmtLqiReq_7
   \   0000BA   A3           INC     DPTR
   \   0000BB   E0           MOVX    A,@DPTR
   \                     ??ZDO_ProcessMgmtLqiReq_7:
   \   0000BC   7012         JNZ     ??ZDO_ProcessMgmtLqiReq_8
   1136                      {
   1137                        item->devType = ZDP_MGMT_DT_COORD;
   \   0000BE   E4           CLR     A
   \   0000BF   8A82         MOV     DPL,R2
   \   0000C1   8B83         MOV     DPH,R3
   \   0000C3   F0           MOVX    @DPTR,A
   1138                        item->depth = 0;
   \   0000C4   EE           MOV     A,R6
   \   0000C5   2418         ADD     A,#0x18
   \   0000C7   F582         MOV     DPL,A
   \   0000C9   EF           MOV     A,R7
   \   0000CA   12....       LCALL   ??Subroutine256_0 & 0xFFFF
   1139                      }
   \                     ??CrossCallReturnLabel_521:
   \   0000CD   E4           CLR     A
   \   0000CE   8019         SJMP    ??ZDO_ProcessMgmtLqiReq_9
   1140                      else
   1141                      {
   1142                        item->devType = ZDP_MGMT_DT_ROUTER;
   \                     ??ZDO_ProcessMgmtLqiReq_8:
   \   0000D0   7401         MOV     A,#0x1
   \   0000D2   8A82         MOV     DPL,R2
   \   0000D4   8B83         MOV     DPH,R3
   \   0000D6   F0           MOVX    @DPTR,A
   1143                        item->depth = _NIB.nodeDepth - 1;
   \   0000D7   90....       MOV     DPTR,#(_NIB + 52)
   \   0000DA   E0           MOVX    A,@DPTR
   \   0000DB   14           DEC     A
   \   0000DC   C0E0         PUSH    A
   \   0000DE   EE           MOV     A,R6
   \   0000DF   2418         ADD     A,#0x18
   \   0000E1   F582         MOV     DPL,A
   \   0000E3   EF           MOV     A,R7
   \   0000E4   12....       LCALL   ??Subroutine256_0 & 0xFFFF
   1144                      }
   \                     ??CrossCallReturnLabel_522:
   \   0000E7   D0E0         POP     A
   \                     ??ZDO_ProcessMgmtLqiReq_9:
   \   0000E9   F0           MOVX    @DPTR,A
   1145          
   1146                      item->rxOnIdle = ZDP_MGMT_BOOL_UNKNOWN;
   \   0000EA   7402         MOV     A,#0x2
   \   0000EC   12....       LCALL   ?Subroutine17 & 0xFFFF
   1147                      item->relation = ZDP_MGMT_REL_PARENT;
   1148                    }
   \                     ??CrossCallReturnLabel_305:
   \   0000EF   E4           CLR     A
   \   0000F0   802F         SJMP    ??ZDO_ProcessMgmtLqiReq_10
   1149                    else
   1150                    {
   1151                      // If not parent, then it's a child
   1152                      item->depth = _NIB.nodeDepth + 1;
   \                     ??ZDO_ProcessMgmtLqiReq_6:
   \   0000F2   90....       MOV     DPTR,#(_NIB + 52)
   \   0000F5   E0           MOVX    A,@DPTR
   \   0000F6   04           INC     A
   \   0000F7   C0E0         PUSH    A
   \   0000F9   EE           MOV     A,R6
   \   0000FA   2418         ADD     A,#0x18
   \   0000FC   F582         MOV     DPL,A
   \   0000FE   EF           MOV     A,R7
   \   0000FF   12....       LCALL   ??Subroutine256_0 & 0xFFFF
   \                     ??CrossCallReturnLabel_523:
   \   000102   D0E0         POP     A
   \   000104   12....       LCALL   ??Subroutine252_0 & 0xFFFF
   1153          
   1154                      if ( aDevice->nodeRelation < CHILD_FFD )
   \                     ??CrossCallReturnLabel_496:
   \   000107   C3           CLR     C
   \   000108   9403         SUBB    A,#0x3
   \   00010A   4003         JC      $+5
   \   00010C   02....       LJMP    ??ZDO_ProcessMgmtLqiReq_11 & 0xFFFF
   1155                      {
   1156                        item->devType = ZDP_MGMT_DT_ENDDEV;
   \   00010F   7402         MOV     A,#0x2
   \   000111   12....       LCALL   ?Subroutine5 & 0xFFFF
   1157          
   1158                        if ( aDevice->nodeRelation == CHILD_RFD )
   \                     ??CrossCallReturnLabel_493:
   \   000114   6401         XRL     A,#0x1
   \   000116   6003         JZ      $+5
   \   000118   02....       LJMP    ??ZDO_ProcessMgmtLqiReq_12 & 0xFFFF
   1159                        {
   1160                          item->rxOnIdle = FALSE;
   \                     ??ZDO_ProcessMgmtLqiReq_13:
   \   00011B   E4           CLR     A
   1161                        }
   \                     ??ZDO_ProcessMgmtLqiReq_14:
   \   00011C   12....       LCALL   ?Subroutine17 & 0xFFFF
   1162                        else
   1163                        {
   1164                          item->rxOnIdle = TRUE;
   1165                        }
   1166                      }
   1167                      else
   1168                      {
   1169                        item->devType = ZDP_MGMT_DT_ROUTER;
   1170          
   1171                        if ( aDevice->nodeRelation == CHILD_FFD )
   1172                        {
   1173                          item->rxOnIdle = FALSE;
   1174                        }
   1175                        else
   1176                        {
   1177                          item->rxOnIdle = TRUE;
   1178                        }
   1179                      }
   1180          
   1181                      item->relation = ZDP_MGMT_REL_CHILD;
   \                     ??CrossCallReturnLabel_306:
   \   00011F   7401         MOV     A,#0x1
   \                     ??ZDO_ProcessMgmtLqiReq_10:
   \   000121   12....       LCALL   ?Subroutine35 & 0xFFFF
   \                     ??CrossCallReturnLabel_51:
   \   000124   E5..         MOV     A,?V0 + 3
   \   000126   C3           CLR     C
   \   000127   95..         SUBB    A,?V0 + 1
   \   000129   4003         JC      $+5
   \   00012B   02....       LJMP    ??CrossCallReturnLabel_52 & 0xFFFF
   \   00012E   E5..         MOV     A,?V0 + 0
   \   000130   C3           CLR     C
   \   000131   95..         SUBB    A,?V0 + 2
   \   000133   4003         JC      $+5
   \   000135   02....       LJMP    ??ZDO_ProcessMgmtLqiReq_15 & 0xFFFF
   \   000138                ; Setup parameters for call to function AssocFindDevice
   \   000138   A9..         MOV     R1,?V0 + 0
   \   00013A   12....       LCALL   ??AssocFindDevice?relay
   \   00013D   7403         MOV     A,#0x3
   \   00013F   12....       LCALL   ?XSTACK_DISP0_8
   \   000142   12....       LCALL   ?Subroutine38 & 0xFFFF
   \                     ??CrossCallReturnLabel_66:
   \   000145   05..         INC     ?V0 + 0
   \   000147   90....       MOV     DPTR,#(_NIB + 33)
   \   00014A   12....       LCALL   ?Subroutine10 & 0xFFFF
   \                     ??CrossCallReturnLabel_12:
   \   00014D   7403         MOV     A,#0x3
   \   00014F   12....       LCALL   ?XSTACK_DISP0_8
   \   000152   12....       LCALL   ?Subroutine57 & 0xFFFF
   \                     ??CrossCallReturnLabel_456:
   \   000155   EE           MOV     A,R6
   \   000156   2412         ADD     A,#0x12
   \   000158   F582         MOV     DPL,A
   \   00015A   EF           MOV     A,R7
   \   00015B   12....       LCALL   ??Subroutine256_0 & 0xFFFF
   \                     ??CrossCallReturnLabel_524:
   \   00015E   E8           MOV     A,R0
   \   00015F   F0           MOVX    @DPTR,A
   \   000160   A3           INC     DPTR
   \   000161   E9           MOV     A,R1
   \   000162   12....       LCALL   ?Subroutine4 & 0xFFFF
   \                     ??CrossCallReturnLabel_4:
   \   000165   7403         MOV     A,#0x3
   \   000167   12....       LCALL   ?XSTACK_DISP0_8
   \   00016A   12....       LCALL   ?Subroutine66 & 0xFFFF
   \                     ??CrossCallReturnLabel_127:
   \   00016D   E0           MOVX    A,@DPTR
   \   00016E   C0E0         PUSH    A
   \   000170   EE           MOV     A,R6
   \   000171   2419         ADD     A,#0x19
   \   000173   F582         MOV     DPL,A
   \   000175   EF           MOV     A,R7
   \   000176   12....       LCALL   ??Subroutine256_0 & 0xFFFF
   \                     ??CrossCallReturnLabel_525:
   \   000179   D0E0         POP     A
   \   00017B   F0           MOVX    @DPTR,A
   \   00017C   7407         MOV     A,#0x7
   \   00017E   12....       LCALL   ?XSTACK_DISP0_8
   \   000181   E4           CLR     A
   \   000182   F0           MOVX    @DPTR,A
   \   000183   7403         MOV     A,#0x3
   \   000185   12....       LCALL   ?XSTACK_DISP0_8
   \   000188   12....       LCALL   ?Subroutine57 & 0xFFFF
   \                     ??CrossCallReturnLabel_457:
   \   00018B   7408         MOV     A,#0x8
   \   00018D   12....       LCALL   ?XSTACK_DISP0_8
   \   000190   12....       LCALL   ??Subroutine225_0 & 0xFFFF
   \                     ??CrossCallReturnLabel_316:
   \   000193   EE           MOV     A,R6
   \   000194   240A         ADD     A,#0xa
   \   000196   F5..         MOV     ?V0 + 6,A
   \   000198   EF           MOV     A,R7
   \   000199   3400         ADDC    A,#0x0
   \   00019B   F5..         MOV     ?V0 + 7,A
   \   00019D                ; Setup parameters for call to function AddrMgrEntryLookupNwk
   \   00019D   7407         MOV     A,#0x7
   \   00019F   12....       LCALL   ?XSTACK_DISP0_8
   \   0001A2   AA82         MOV     R2,DPL
   \   0001A4   AB83         MOV     R3,DPH
   \   0001A6   12....       LCALL   ??AddrMgrEntryLookupNwk?relay
   \   0001A9   E9           MOV     A,R1
   \   0001AA   6401         XRL     A,#0x1
   \   0001AC   6003         JZ      $+5
   \   0001AE   02....       LJMP    ??ZDO_ProcessMgmtLqiReq_4 & 0xFFFF
   \   0001B1                ; Setup parameters for call to function sAddrExtCpy
   \   0001B1   740A         MOV     A,#0xa
   \   0001B3   12....       LCALL   ?XSTACK_DISP0_8
   \   0001B6   AC82         MOV     R4,DPL
   \   0001B8   AD83         MOV     R5,DPH
   \   0001BA   AA..         MOV     R2,?V0 + 6
   \   0001BC   AB..         MOV     R3,?V0 + 7
   \   0001BE   12....       LCALL   ??sAddrExtCpy?relay
   \   0001C1   02....       LJMP    ??ZDO_ProcessMgmtLqiReq_5 & 0xFFFF
   \                     ??ZDO_ProcessMgmtLqiReq_11:
   \   0001C4   7401         MOV     A,#0x1
   \   0001C6   12....       LCALL   ?Subroutine5 & 0xFFFF
   \                     ??CrossCallReturnLabel_494:
   \   0001C9   6403         XRL     A,#0x3
   \   0001CB   7003         JNZ     $+5
   \   0001CD   02....       LJMP    ??ZDO_ProcessMgmtLqiReq_13 & 0xFFFF
   \                     ??ZDO_ProcessMgmtLqiReq_12:
   \   0001D0   7401         MOV     A,#0x1
   \   0001D2   02....       LJMP    ??ZDO_ProcessMgmtLqiReq_14 & 0xFFFF
   1182                    }
   1183          
   1184                    item++;
   1185                  }
   1186                  else
   1187                  {
   1188                    if ( StartIndex <= aItems )
   \                     ??ZDO_ProcessMgmtLqiReq_15:
   \   0001D5   E5..         MOV     A,?V0 + 2
   \   0001D7   C3           CLR     C
   \   0001D8   95..         SUBB    A,?V0 + 4
   \   0001DA   4005         JC      ??ZDO_ProcessMgmtLqiReq_16
   1189                      // Start with 1st neighbor
   1190                      index = 0;
   \   0001DC   75..00       MOV     ?V0 + 0,#0x0
   \   0001DF   8019         SJMP    ??ZDO_ProcessMgmtLqiReq_17
   1191                    else
   1192                      // Start with >1st neighbor
   1193                      index = StartIndex - aItems;
   \                     ??ZDO_ProcessMgmtLqiReq_16:
   \   0001E1   E5..         MOV     A,?V0 + 4
   \   0001E3   C3           CLR     C
   \   0001E4   95..         SUBB    A,?V0 + 2
   \   0001E6   F5..         MOV     ?V0 + 0,A
   \   0001E8   8010         SJMP    ??ZDO_ProcessMgmtLqiReq_17
   1194                    break;
   1195                  }
   1196                }
   1197          
   1198                // Loop through neighbor items and finish list
   1199                for ( ; x < numItems; x++ )
   1200                {
   1201                  // Add next neighbor table item
   1202                  NLME_GetRequest( nwkNeighborTable, index++, &entry );
   1203          
   1204                  // set ZDP_MgmtLqiItem_t fields
   1205                  item->panID    = entry.panId;
   1206                  osal_cpyExtAddr( item->extPanID, _NIB.extendedPANID );
   1207                  osal_memset( item->extAddr, 0xFF, Z_EXTADDR_LEN );
   1208                  item->nwkAddr  = entry.neighborAddress;
   1209                  item->rxOnIdle = ZDP_MGMT_BOOL_UNKNOWN;
   1210                  item->relation = ZDP_MGMT_REL_UNKNOWN;
   1211                  item->permit   = ZDP_MGMT_BOOL_UNKNOWN;
   1212                  item->depth    = 0xFF;
   1213                  item->lqi      = entry.linkInfo.rxLqi;
   1214          
   1215                  if ( item->nwkAddr == 0 )
   1216                  {
   1217                    item->devType = ZDP_MGMT_DT_COORD;
   1218                  }
   1219                  else
   1220                  {
   1221                    item->devType = ZDP_MGMT_DT_ROUTER;
   \                     ??ZDO_ProcessMgmtLqiReq_18:
   \   0001EA   7401         MOV     A,#0x1
   \                     ??ZDO_ProcessMgmtLqiReq_19:
   \   0001EC   8A82         MOV     DPL,R2
   \   0001EE   8B83         MOV     DPH,R3
   1222                  }
   \   0001F0   12....       LCALL   ?Subroutine35 & 0xFFFF
   \                     ??CrossCallReturnLabel_52:
   \   0001F3   E5..         MOV     A,?V0 + 3
   \   0001F5   C3           CLR     C
   \   0001F6   95..         SUBB    A,?V0 + 1
   \   0001F8   507E         JNC     ??ZDO_ProcessMgmtLqiReq_3
   \                     ??ZDO_ProcessMgmtLqiReq_17:
   \   0001FA                ; Setup parameters for call to function NLME_GetRequest
   \   0001FA   7414         MOV     A,#0x14
   \   0001FC   12....       LCALL   ?XSTACK_DISP0_8
   \   0001FF   AC82         MOV     R4,DPL
   \   000201   AD83         MOV     R5,DPH
   \   000203   AA..         MOV     R2,?V0 + 0
   \   000205   7B00         MOV     R3,#0x0
   \   000207   7987         MOV     R1,#-0x79
   \   000209   12....       LCALL   ??NLME_GetRequest?relay
   \   00020C   05..         INC     ?V0 + 0
   \   00020E   741E         MOV     A,#0x1e
   \   000210   12....       LCALL   ?XSTACK_DISP0_8
   \   000213   12....       LCALL   ?Subroutine10 & 0xFFFF
   \                     ??CrossCallReturnLabel_13:
   \   000216                ; Setup parameters for call to function osal_memset
   \   000216   7C08         MOV     R4,#0x8
   \   000218   7D00         MOV     R5,#0x0
   \   00021A   79FF         MOV     R1,#-0x1
   \   00021C   EE           MOV     A,R6
   \   00021D   240A         ADD     A,#0xa
   \   00021F   FA           MOV     R2,A
   \   000220   EF           MOV     A,R7
   \   000221   3400         ADDC    A,#0x0
   \   000223   FB           MOV     R3,A
   \   000224   12....       LCALL   ??osal_memset?relay
   \   000227   EE           MOV     A,R6
   \   000228   2412         ADD     A,#0x12
   \   00022A   F8           MOV     R0,A
   \   00022B   EF           MOV     A,R7
   \   00022C   3400         ADDC    A,#0x0
   \   00022E   F9           MOV     R1,A
   \   00022F   7414         MOV     A,#0x14
   \   000231   12....       LCALL   ?XSTACK_DISP0_8
   \   000234   12....       LCALL   ??Subroutine237_0 & 0xFFFF
   \                     ??CrossCallReturnLabel_384:
   \   000237   8882         MOV     DPL,R0
   \   000239   8983         MOV     DPH,R1
   \   00023B   12....       LCALL   ?Subroutine38 & 0xFFFF
   \                     ??CrossCallReturnLabel_67:
   \   00023E   EE           MOV     A,R6
   \   00023F   2415         ADD     A,#0x15
   \   000241   F582         MOV     DPL,A
   \   000243   EF           MOV     A,R7
   \   000244   12....       LCALL   ??Subroutine256_0 & 0xFFFF
   \                     ??CrossCallReturnLabel_526:
   \   000247   7402         MOV     A,#0x2
   \   000249   12....       LCALL   ??Subroutine224_0 & 0xFFFF
   \                     ??CrossCallReturnLabel_307:
   \   00024C   7403         MOV     A,#0x3
   \   00024E   12....       LCALL   ?Subroutine4 & 0xFFFF
   \                     ??CrossCallReturnLabel_5:
   \   000251   7423         MOV     A,#0x23
   \   000253   12....       LCALL   ?XSTACK_DISP0_8
   \   000256   E0           MOVX    A,@DPTR
   \   000257   C0E0         PUSH    A
   \   000259   EE           MOV     A,R6
   \   00025A   2419         ADD     A,#0x19
   \   00025C   F582         MOV     DPL,A
   \   00025E   EF           MOV     A,R7
   \   00025F   12....       LCALL   ??Subroutine256_0 & 0xFFFF
   \                     ??CrossCallReturnLabel_527:
   \   000262   D0E0         POP     A
   \   000264   F0           MOVX    @DPTR,A
   \   000265   12....       LCALL   ?Subroutine118 & 0xFFFF
   \                     ??CrossCallReturnLabel_504:
   \   000268   7002         JNZ     ??ZDO_ProcessMgmtLqiReq_20
   \   00026A   A3           INC     DPTR
   \   00026B   E0           MOVX    A,@DPTR
   \                     ??ZDO_ProcessMgmtLqiReq_20:
   \   00026C   6003         JZ      $+5
   \   00026E   02....       LJMP    ??ZDO_ProcessMgmtLqiReq_18 & 0xFFFF
   \   000271   E4           CLR     A
   \   000272   02....       LJMP    ??ZDO_ProcessMgmtLqiReq_19 & 0xFFFF
   1223          
   1224                  item++;
   1225                }
   1226              }
   1227            }
   1228            else
   1229            {
   1230              numItems = 0;
   \                     ??ZDO_ProcessMgmtLqiReq_0:
   \   000275   75..00       MOV     ?V0 + 1,#0x0
   1231            }
   1232          
   1233            // Send response
   1234            ZDP_MgmtLqiRsp( inMsg->TransSeq, &(inMsg->srcAddr), ZSuccess, maxItems,
   1235                            StartIndex, numItems, table, false );
   \                     ??ZDO_ProcessMgmtLqiReq_3:
   \   000278                ; Setup parameters for call to function ZDP_MgmtLqiRsp
   \   000278   75..00       MOV     ?V0 + 0,#0x0
   \   00027B   78..         MOV     R0,#?V0 + 0
   \   00027D   12....       LCALL   ?PUSH_XSTACK_I_ONE
   \   000280   7402         MOV     A,#0x2
   \   000282   12....       LCALL   ?XSTACK_DISP0_8
   \   000285   12....       LCALL   ?PUSH_XSTACK8_X_TWO
   \   000288   E5..         MOV     A,?V0 + 1
   \   00028A   F5..         MOV     ?V0 + 0,A
   \   00028C   78..         MOV     R0,#?V0 + 0
   \   00028E   12....       LCALL   ?PUSH_XSTACK_I_ONE
   \   000291   E5..         MOV     A,?V0 + 4
   \   000293   F5..         MOV     ?V0 + 0,A
   \   000295   78..         MOV     R0,#?V0 + 0
   \   000297   12....       LCALL   ?PUSH_XSTACK_I_ONE
   \   00029A   7405         MOV     A,#0x5
   \   00029C   12....       LCALL   ?XSTACK_DISP0_8
   \   00029F   E0           MOVX    A,@DPTR
   \   0002A0   FD           MOV     R5,A
   \   0002A1   7C00         MOV     R4,#0x0
   \   0002A3   740A         MOV     A,#0xa
   \   0002A5   12....       LCALL   ?XSTACK_DISP0_8
   \   0002A8   12....       LCALL   ?Subroutine77 & 0xFFFF
   \                     ??CrossCallReturnLabel_237:
   \   0002AB   740A         MOV     A,#0xa
   \   0002AD   12....       LCALL   ?XSTACK_DISP0_8
   \   0002B0   12....       LCALL   ?Subroutine56 & 0xFFFF
   \                     ??CrossCallReturnLabel_105:
   \   0002B3   12....       LCALL   ??ZDP_MgmtLqiRsp?relay
   \   0002B6   7405         MOV     A,#0x5
   \   0002B8   12....       LCALL   ?DEALLOC_XSTACK8
   1236          
   1237            if ( table )
   \   0002BB   7401         MOV     A,#0x1
   \   0002BD   12....       LCALL   ?XSTACK_DISP0_8
   \   0002C0   E0           MOVX    A,@DPTR
   \   0002C1   7002         JNZ     ??ZDO_ProcessMgmtLqiReq_21
   \   0002C3   A3           INC     DPTR
   \   0002C4   E0           MOVX    A,@DPTR
   \                     ??ZDO_ProcessMgmtLqiReq_21:
   \   0002C5   6008         JZ      ??CrossCallReturnLabel_416
   1238            {
   1239              osal_mem_free( table );
   \   0002C7                ; Setup parameters for call to function osal_mem_free
   \   0002C7   7401         MOV     A,#0x1
   \   0002C9   12....       LCALL   ?XSTACK_DISP0_8
   \   0002CC   12....       LCALL   ??Subroutine241_0 & 0xFFFF
   1240            }
   1241          }
   \                     ??CrossCallReturnLabel_416:
   \   0002CF   742B         MOV     A,#0x2b
   \   0002D1   02....       LJMP    ?Subroutine210 & 0xFFFF

   \                                 In  segment BANKED_CODE, align 1, keep-with-next
   \                     ?Subroutine118:
   \   000000   EE           MOV     A,R6
   \   000001   2414         ADD     A,#0x14
   \   000003   FA           MOV     R2,A
   \   000004   EF           MOV     A,R7
   \   000005                REQUIRE ??Subroutine223_0
   \   000005                ; // Fall through to label ??Subroutine223_0

   \                                 In  segment BANKED_CODE, align 1, keep-with-next
   \                     ??Subroutine223_0:
   \   000000   3400         ADDC    A,#0x0
   \   000002   FB           MOV     R3,A
   \   000003   02....       LJMP    ?Subroutine192 & 0xFFFF

   \                                 In  segment BANKED_CODE, align 1, keep-with-next
   \                     ?Subroutine35:
   \   000000   F0           MOVX    @DPTR,A
   \   000001   EE           MOV     A,R6
   \   000002   241A         ADD     A,#0x1a
   \   000004   FE           MOV     R6,A
   \   000005   EF           MOV     A,R7
   \   000006   3400         ADDC    A,#0x0
   \   000008   FF           MOV     R7,A
   \   000009   05..         INC     ?V0 + 3
   \   00000B   22           RET

   \                                 In  segment BANKED_CODE, align 1, keep-with-next
   \                     ?Subroutine17:
   \   000000   8C82         MOV     DPL,R4
   \   000002   8D83         MOV     DPH,R5
   \   000004                REQUIRE ??Subroutine224_0
   \   000004                ; // Fall through to label ??Subroutine224_0

   \                                 In  segment BANKED_CODE, align 1, keep-with-next
   \                     ??Subroutine224_0:
   \   000000   F0           MOVX    @DPTR,A
   \   000001   EE           MOV     A,R6
   \   000002   2416         ADD     A,#0x16
   \   000004   12....       LCALL   ?Subroutine170 & 0xFFFF
   \                     ??CrossCallReturnLabel_563:
   \   000007   22           RET

   \                                 In  segment BANKED_CODE, align 1, keep-with-next
   \                     ?Subroutine170:
   \   000000   F582         MOV     DPL,A
   \   000002   EF           MOV     A,R7
   \   000003                REQUIRE ?Subroutine199
   \   000003                ; // Fall through to label ?Subroutine199

   \                                 In  segment BANKED_CODE, align 1, keep-with-next
   \                     ?Subroutine10:
   \   000000   12....       LCALL   ?Subroutine184 & 0xFFFF
   \                     ??CrossCallReturnLabel_458:
   \   000003   8E82         MOV     DPL,R6
   \   000005   8F83         MOV     DPH,R7
   \   000007   12....       LCALL   ??Subroutine268_0 & 0xFFFF
   \                     ??CrossCallReturnLabel_628:
   \   00000A                ; Setup parameters for call to function sAddrExtCpy
   \   00000A                ; Setup parameters for call to function sAddrExtCpy
   \   00000A   7C..         MOV     R4,#((_NIB + 53) & 0xff)
   \   00000C   7D..         MOV     R5,#(((_NIB + 53) >> 8) & 0xff)
   \   00000E   EE           MOV     A,R6
   \   00000F   2402         ADD     A,#0x2
   \   000011   FA           MOV     R2,A
   \   000012   EF           MOV     A,R7
   \   000013   3400         ADDC    A,#0x0
   \   000015   FB           MOV     R3,A
   \   000016   12....       LCALL   ??sAddrExtCpy?relay
   \   000019   22           RET

   \                                 In  segment BANKED_CODE, align 1, keep-with-next
   \                     ?Subroutine4:
   \   000000   F0           MOVX    @DPTR,A
   \   000001   EE           MOV     A,R6
   \   000002   2417         ADD     A,#0x17
   \   000004   12....       LCALL   ?Subroutine170 & 0xFFFF
   \                     ??CrossCallReturnLabel_561:
   \   000007   7402         MOV     A,#0x2
   \   000009   F0           MOVX    @DPTR,A
   \   00000A   EE           MOV     A,R6
   \   00000B   2418         ADD     A,#0x18
   \   00000D   12....       LCALL   ?Subroutine170 & 0xFFFF
   \                     ??CrossCallReturnLabel_562:
   \   000010   74FF         MOV     A,#-0x1
   \   000012   F0           MOVX    @DPTR,A
   \   000013   22           RET

   \                                 In  segment BANKED_CODE, align 1, keep-with-next
   \                     ?Subroutine77:
   \   000000   E0           MOVX    A,@DPTR
   \   000001   2402         ADD     A,#0x2
   \   000003                REQUIRE ?Subroutine189
   \   000003                ; // Fall through to label ?Subroutine189

   \                                 In  segment BANKED_CODE, align 1, keep-with-next
   \                     ?Subroutine189:
   \   000000   FA           MOV     R2,A
   \   000001   A3           INC     DPTR
   \   000002   E0           MOVX    A,@DPTR
   \   000003   3400         ADDC    A,#0x0
   \   000005   FB           MOV     R3,A
   \   000006   22           RET

   \                                 In  segment BANKED_CODE, align 1, keep-with-next
   \                     ?Subroutine56:
   \   000000   12....       LCALL   ?Subroutine152 & 0xFFFF
   \                     ??CrossCallReturnLabel_336:
   \   000003   22           RET

   \                                 In  segment BANKED_CODE, align 1, keep-with-next
   \                     ?Subroutine50:
   \   000000   E0           MOVX    A,@DPTR
   \   000001   2413         ADD     A,#0x13
   \   000003   12....       LCALL   ?Subroutine157 & 0xFFFF
   \                     ??CrossCallReturnLabel_400:
   \   000006   12....       LCALL   ?Subroutine198 & 0xFFFF
   \                     ??CrossCallReturnLabel_248:
   \   000009   F5..         MOV     ?V0 + 4,A
   \   00000B                ; Setup parameters for call to function NLME_GetRequest
   \   00000B                ; Setup parameters for call to function NLME_GetRequest
   \   00000B   85..82       MOV     DPL,?XSP + 0
   \   00000E   85..83       MOV     DPH,?XSP + 1
   \   000011   AC82         MOV     R4,DPL
   \   000013   AD83         MOV     R5,DPH
   \   000015   7A00         MOV     R2,#0x0
   \   000017   7B00         MOV     R3,#0x0
   \   000019   22           RET

   \                                 In  segment BANKED_CODE, align 1, keep-with-next
   \                     ?Subroutine157:
   \   000000   F8           MOV     R0,A
   \   000001   A3           INC     DPTR
   \   000002   E0           MOVX    A,@DPTR
   \   000003   12....       LCALL   ?Subroutine182 & 0xFFFF
   \                     ??CrossCallReturnLabel_407:
   \   000006   22           RET

   \                                 In  segment BANKED_CODE, align 1, keep-with-next
   \                     ?Subroutine182:
   \   000000   3400         ADDC    A,#0x0
   \   000002   F9           MOV     R1,A
   \   000003                REQUIRE ?Subroutine202
   \   000003                ; // Fall through to label ?Subroutine202

   \                                 In  segment BANKED_CODE, align 1, keep-with-next
   \                     ?Subroutine202:
   \   000000   8882         MOV     DPL,R0
   \   000002   8983         MOV     DPH,R1
   \   000004   22           RET

   \                                 In  segment BANKED_CODE, align 1, keep-with-next
   \                     ?Subroutine5:
   \   000000   8A82         MOV     DPL,R2
   \   000002   8B83         MOV     DPH,R3
   \   000004                REQUIRE ?Subroutine192
   \   000004                REQUIRE ??Subroutine252_0
   \   000004                ; // Fall through to label ??Subroutine252_0

   \                                 In  segment BANKED_CODE, align 1, keep-with-next
   \                     ??Subroutine252_0:
   \   000000   F0           MOVX    @DPTR,A
   \   000001                REQUIRE ?Subroutine192
   \   000001                ; // Fall through to label ?Subroutine192

   \                                 In  segment BANKED_CODE, align 1, keep-with-next
   \                     ??Subroutine268_0:
   \   000000   E8           MOV     A,R0
   \   000001                REQUIRE ??Subroutine269_0
   \   000001                ; // Fall through to label ??Subroutine269_0
   1242          
   1243          /*********************************************************************
   1244           * @fn          ZDO_ProcessMgmtNwkDiscReq
   1245           *
   1246           * @brief       This function handles parsing the incoming Management
   1247           *              Network Discover request and starts the request.
   1248           *
   1249           * @param       inMsg - incoming message (request)
   1250           *
   1251           * @return      none
   1252           */

   \                                 In  segment BANKED_CODE, align 1, keep-with-next
   1253          void ZDO_ProcessMgmtNwkDiscReq( zdoIncomingMsg_t *inMsg )
   \                     ZDO_ProcessMgmtNwkDiscReq:
   1254          {
   \   000000   74F2         MOV     A,#-0xe
   \   000002   12....       LCALL   ?BANKED_ENTER_XDATA
   \   000005                ; Saved register size: 14
   \   000005                ; Auto size: 7
   \   000005   74F9         MOV     A,#-0x7
   \   000007   12....       LCALL   ?ALLOC_XSTACK8
   \   00000A   8A..         MOV     ?V0 + 4,R2
   \   00000C   8B..         MOV     ?V0 + 5,R3
   1255            NLME_ScanFields_t scan;
   1256            uint8             index;
   1257            uint8             *msg;
   1258          
   1259            msg = inMsg->asdu;
   \   00000E   12....       LCALL   ?Subroutine76 & 0xFFFF
   1260            scan.channels = osal_build_uint32( msg, 4 );
   \                     ??CrossCallReturnLabel_136:
   \   000011   85..82       MOV     DPL,?XSP + 0
   \   000014   85..83       MOV     DPH,?XSP + 1
   \   000017   12....       LCALL   ?Subroutine6 & 0xFFFF
   1261            msg += 4;
   1262            scan.duration = *msg++;
   \                     ??CrossCallReturnLabel_6:
   \   00001A   C0E0         PUSH    A
   \   00001C   7404         MOV     A,#0x4
   \   00001E   12....       LCALL   ?XSTACK_DISP0_8
   \   000021   D0E0         POP     A
   \   000023   12....       LCALL   ?Subroutine45 & 0xFFFF
   1263            index         = *msg;
   1264            scan.scanType = ZMAC_ACTIVE_SCAN;
   \                     ??CrossCallReturnLabel_87:
   \   000026   7405         MOV     A,#0x5
   \   000028   12....       LCALL   ?XSTACK_DISP0_8
   \   00002B   7401         MOV     A,#0x1
   \   00002D   F0           MOVX    @DPTR,A
   1265            scan.scanApp  = NLME_DISC_SCAN;
   \   00002E   7406         MOV     A,#0x6
   \   000030   12....       LCALL   ?XSTACK_DISP0_8
   \   000033   7401         MOV     A,#0x1
   \   000035   F0           MOVX    @DPTR,A
   1266          
   1267            // Save off the information to be used for the response
   1268            zdappMgmtNwkDiscReqInProgress          = true;
   \   000036   90....       MOV     DPTR,#zdappMgmtNwkDiscReqInProgress
   \   000039   F0           MOVX    @DPTR,A
   1269            zdappMgmtNwkDiscRspAddr.addrMode       = Addr16Bit;
   \   00003A   7402         MOV     A,#0x2
   \   00003C   90....       MOV     DPTR,#(zdappMgmtNwkDiscRspAddr + 8)
   \   00003F   F0           MOVX    @DPTR,A
   1270            zdappMgmtNwkDiscRspAddr.addr.shortAddr = inMsg->srcAddr.addr.shortAddr;
   \   000040   85..82       MOV     DPL,?V0 + 4
   \   000043   85..83       MOV     DPH,?V0 + 5
   \   000046   12....       LCALL   ??Subroutine230_0 & 0xFFFF
   \                     ??CrossCallReturnLabel_351:
   \   000049   90....       MOV     DPTR,#zdappMgmtNwkDiscRspAddr
   \   00004C   12....       LCALL   ??Subroutine225_0 & 0xFFFF
   1271            zdappMgmtNwkDiscStartIndex             = index;
   \                     ??CrossCallReturnLabel_317:
   \   00004F   EA           MOV     A,R2
   \   000050   90....       MOV     DPTR,#zdappMgmtNwkDiscStartIndex
   \   000053   F0           MOVX    @DPTR,A
   1272            zdappMgmtNwkDiscRspTransSeq            = inMsg->TransSeq;
   \   000054   E5..         MOV     A,?V0 + 4
   \   000056   240F         ADD     A,#0xf
   \   000058   12....       LCALL   ?Subroutine123 & 0xFFFF
   \                     ??CrossCallReturnLabel_434:
   \   00005B   90....       MOV     DPTR,#zdappMgmtNwkDiscRspTransSeq
   \   00005E   12....       LCALL   ?Subroutine16 & 0xFFFF
   1273          
   1274            if ( NLME_NwkDiscReq2( &scan ) != ZSuccess )
   \                     ??CrossCallReturnLabel_253:
   \   000061   12....       LCALL   ??NLME_NwkDiscReq2?relay
   \   000064   E9           MOV     A,R1
   \   000065   6003         JZ      ??ZDO_ProcessMgmtNwkDiscReq_0
   1275            {
   1276              NLME_NwkDiscTerm();
   \   000067                ; Setup parameters for call to function NLME_NwkDiscTerm
   \   000067   12....       LCALL   ??NLME_NwkDiscTerm?relay
   1277          
   1278              // zdappMgmtNwkDiscReqInProgress will be reset in the confirm callback
   1279            }
   1280          }
   \                     ??ZDO_ProcessMgmtNwkDiscReq_0:
   \   00006A   02....       LJMP    ?Subroutine208 & 0xFFFF

   \                                 In  segment BANKED_CODE, align 1, keep-with-next
   \                     ?Subroutine161:
   \   000000   F583         MOV     DPH,A
   \   000002                REQUIRE ??Subroutine247_0
   \   000002                ; // Fall through to label ??Subroutine247_0

   \                                 In  segment BANKED_CODE, align 1, keep-with-next
   \                     ?Subroutine143:
   \   000000   12....       LCALL   ?Subroutine177 & 0xFFFF
   \                     ??CrossCallReturnLabel_479:
   \   000003   22           RET

   \                                 In  segment BANKED_CODE, align 1, keep-with-next
   \                     ?Subroutine177:
   \   000000   12....       LCALL   ?Subroutine183 & 0xFFFF
   \                     ??CrossCallReturnLabel_484:
   \   000003   A3           INC     DPTR
   \   000004   22           RET

   \                                 In  segment BANKED_CODE, align 1, keep-with-next
   \                     ?Subroutine168:
   \   000000   FE           MOV     R6,A
   \   000001   EF           MOV     A,R7
   \   000002   3400         ADDC    A,#0x0
   \   000004                REQUIRE ?Subroutine190
   \   000004                ; // Fall through to label ?Subroutine190

   \                                 In  segment BANKED_CODE, align 1, keep-with-next
   \                     ?Subroutine190:
   \   000000   FF           MOV     R7,A
   \   000001                REQUIRE ??Subroutine257_0
   \   000001                ; // Fall through to label ??Subroutine257_0

   \                                 In  segment BANKED_CODE, align 1, keep-with-next
   \                     ??Subroutine257_0:
   \   000000   8E82         MOV     DPL,R6
   \   000002   8F83         MOV     DPH,R7
   \   000004   E0           MOVX    A,@DPTR
   \   000005   22           RET

   \                                 In  segment BANKED_CODE, align 1, keep-with-next
   \                     ?Subroutine45:
   \   000000   12....       LCALL   ?Subroutine143 & 0xFFFF
   \                     ??CrossCallReturnLabel_206:
   \   000003   E0           MOVX    A,@DPTR
   \   000004   FA           MOV     R2,A
   \   000005   22           RET

   \                                 In  segment BANKED_CODE, align 1, keep-with-next
   \                     ?Subroutine76:
   \   000000   12....       LCALL   ?Subroutine165 & 0xFFFF
   \                     ??CrossCallReturnLabel_226:
   \   000003   3400         ADDC    A,#0x0
   \   000005   12....       LCALL   ?Subroutine161 & 0xFFFF
   \                     ??CrossCallReturnLabel_464:
   \   000008                ; Setup parameters for call to function osal_build_uint32
   \   000008                ; Setup parameters for call to function osal_build_uint32
   \   000008   7904         MOV     R1,#0x4
   \   00000A   EE           MOV     A,R6
   \   00000B   FA           MOV     R2,A
   \   00000C   EF           MOV     A,R7
   \   00000D   FB           MOV     R3,A
   \   00000E   12....       LCALL   ??osal_build_uint32?relay
   \   000011   22           RET

   \                                 In  segment BANKED_CODE, align 1, keep-with-next
   \                     ?Subroutine6:
   \   000000   12....       LCALL   ?Subroutine145 & 0xFFFF
   \                     ??CrossCallReturnLabel_339:
   \   000003   A3           INC     DPTR
   \   000004   EC           MOV     A,R4
   \   000005   F0           MOVX    @DPTR,A
   \   000006   A3           INC     DPTR
   \   000007   ED           MOV     A,R5
   \   000008   F0           MOVX    @DPTR,A
   \   000009   EE           MOV     A,R6
   \   00000A   2404         ADD     A,#0x4
   \   00000C   12....       LCALL   ?Subroutine168 & 0xFFFF
   \                     ??CrossCallReturnLabel_604:
   \   00000F   22           RET
   1281          
   1282          #if defined ( ZDO_MGMT_NWKDISC_RESPONSE )
   1283          /*********************************************************************
   1284           * @fn          ZDO_FinishProcessingMgmtNwkDiscReq
   1285           *
   1286           * @brief       This function finishes the processing of the Management
   1287           *              Network Discover Request and generates the response.
   1288           *
   1289           *   Note:      This function will limit the number of items returned
   1290           *              to ZDO_MAX_NWKDISC_ITEMS items.
   1291           *
   1292           * @param       ResultCountSrcAddr - source of the request
   1293           * @param       msg - pointer to incoming message
   1294           * @param       SecurityUse -
   1295           *
   1296           * @return      none
   1297           */
   1298          void ZDO_FinishProcessingMgmtNwkDiscReq( byte ResultCount,
   1299                                                   networkDesc_t *NetworkList )
   1300          {
   1301            byte count, i;
   1302            networkDesc_t *newDesc = NULL, *pList = NetworkList;
   1303          
   1304            if ( ZSTACK_ROUTER_BUILD )
   1305            {
   1306              // Look for my PanID.
   1307              while ( pList )
   1308              {
   1309                if ( pList->panId == _NIB.nwkPanId )
   1310                {
   1311                  break;
   1312                }
   1313          
   1314          
   1315                if ( !pList->nextDesc )
   1316                {
   1317                  break;
   1318                }
   1319                pList = pList->nextDesc;
   1320              }
   1321          
   1322          
   1323              // If my Pan not present (query to a star network ZC or an isolated ZR?),
   1324              // prepend it.
   1325              if ( !pList || (pList->panId != _NIB.nwkPanId) )
   1326              {
   1327                newDesc = (networkDesc_t *)osal_mem_alloc( sizeof( networkDesc_t ) );
   1328                if ( newDesc )
   1329                {
   1330                  byte pJoin;
   1331          
   1332                  newDesc->panId = _NIB.nwkPanId;
   1333                  newDesc->logicalChannel = _NIB.nwkLogicalChannel;
   1334                  newDesc->beaconOrder = _NIB.beaconOrder;
   1335                  newDesc->superFrameOrder = _NIB.superFrameOrder;
   1336                  newDesc->version = NLME_GetProtocolVersion();
   1337                  newDesc->stackProfile = zgStackProfile;
   1338                  //Extended PanID
   1339                  osal_cpyExtAddr( newDesc->extendedPANID, _NIB.extendedPANID);
   1340          
   1341                  ZMacGetReq( ZMacAssociationPermit, &pJoin );
   1342                  newDesc->chosenRouter = ((pJoin) ? ZDAppNwkAddr.addr.shortAddr :
   1343                                                     INVALID_NODE_ADDR);
   1344          
   1345                  newDesc->nextDesc = NetworkList;
   1346                  NetworkList = newDesc;
   1347                  ResultCount++;
   1348                }
   1349              }
   1350            }
   1351          
   1352            // Calc the count and apply a max count.
   1353            if ( zdappMgmtNwkDiscStartIndex > ResultCount )
   1354            {
   1355              count = 0;
   1356            }
   1357            else
   1358            {
   1359              count = ResultCount - zdappMgmtNwkDiscStartIndex;
   1360              if ( count > ZDO_MAX_NWKDISC_ITEMS )
   1361              {
   1362                count = ZDO_MAX_NWKDISC_ITEMS;
   1363              }
   1364          
   1365              // Move the list pointer up to the start index.
   1366              for ( i = 0; i < zdappMgmtNwkDiscStartIndex; i++ )
   1367              {
   1368                NetworkList = NetworkList->nextDesc;
   1369              }
   1370            }
   1371          
   1372            ZDP_MgmtNwkDiscRsp( zdappMgmtNwkDiscRspTransSeq,
   1373                               &zdappMgmtNwkDiscRspAddr, ZSuccess, ResultCount,
   1374                                zdappMgmtNwkDiscStartIndex,
   1375                                count,
   1376                                NetworkList,
   1377                                false );
   1378          
   1379            if ( ZSTACK_ROUTER_BUILD )
   1380            {
   1381              if ( newDesc != NULL )
   1382              {
   1383                osal_mem_free( newDesc );
   1384              }
   1385            }
   1386          
   1387            NLME_NwkDiscTerm();
   1388          }
   1389          #endif
   1390          
   1391          /*********************************************************************
   1392           * @fn          ZDO_ProcessMgmtRtgReq
   1393           *
   1394           * @brief       This function finishes the processing of the Management
   1395           *              Routing Request and generates the response.
   1396           *
   1397           *   Note:      This function will limit the number of items returned
   1398           *              to ZDO_MAX_RTG_ITEMS items.
   1399           *
   1400           * @param       inMsg - incoming message (request)
   1401           *
   1402           * @return      none
   1403           */

   \                                 In  segment BANKED_CODE, align 1, keep-with-next
   1404          void ZDO_ProcessMgmtRtgReq( zdoIncomingMsg_t *inMsg )
   \                     ZDO_ProcessMgmtRtgReq:
   1405          {
   \   000000   74F0         MOV     A,#-0x10
   \   000002   12....       LCALL   ?BANKED_ENTER_XDATA
   \   000005                ; Saved register size: 16
   \   000005                ; Auto size: 5
   \   000005   74FB         MOV     A,#-0x5
   \   000007   12....       LCALL   ?ALLOC_XSTACK8
   \   00000A   7403         MOV     A,#0x3
   \   00000C   12....       LCALL   ?XSTACK_DISP0_8
   \   00000F   12....       LCALL   ?Subroutine38 & 0xFFFF
   1406            byte x;
   1407            byte maxNumItems;
   1408            byte numItems = 0;
   \                     ??CrossCallReturnLabel_68:
   \   000012   7E00         MOV     R6,#0x0
   1409            uint8 *pBuf = NULL;
   \   000014   8E..         MOV     ?V0 + 6,R6
   \   000016   8E..         MOV     ?V0 + 7,R6
   1410            rtgItem_t *pList;
   1411            uint8 StartIndex = inMsg->asdu[0];
   \   000018   7403         MOV     A,#0x3
   \   00001A   12....       LCALL   ?XSTACK_DISP0_8
   \   00001D   12....       LCALL   ?Subroutine50 & 0xFFFF
   1412          
   1413            // Get the number of table items
   1414            NLME_GetRequest( nwkNumRoutingTableEntries, 0, &maxNumItems );
   \                     ??CrossCallReturnLabel_100:
   \   000020   799D         MOV     R1,#-0x63
   \   000022   12....       LCALL   ??NLME_GetRequest?relay
   1415          
   1416            if ( maxNumItems > StartIndex )
   \   000025   85..82       MOV     DPL,?XSP + 0
   \   000028   85..83       MOV     DPH,?XSP + 1
   \   00002B   E0           MOVX    A,@DPTR
   \   00002C   FA           MOV     R2,A
   \   00002D   E5..         MOV     A,?V0 + 4
   \   00002F   C3           CLR     C
   \   000030   9A           SUBB    A,R2
   \   000031   4003         JC      $+5
   \   000033   02....       LJMP    ??ZDO_ProcessMgmtRtgReq_0 & 0xFFFF
   1417            {
   1418              numItems = maxNumItems - StartIndex;    // Start at the passed in index
   \   000036   E0           MOVX    A,@DPTR
   \   000037   C3           CLR     C
   \   000038   95..         SUBB    A,?V0 + 4
   \   00003A   FE           MOV     R6,A
   1419          
   1420              // limit the size of the list
   1421              if ( numItems > ZDO_MAX_RTG_ITEMS )
   \   00003B   C3           CLR     C
   \   00003C   940B         SUBB    A,#0xb
   \   00003E   4002         JC      ??ZDO_ProcessMgmtRtgReq_1
   1422              {
   1423                numItems = ZDO_MAX_RTG_ITEMS;
   \   000040   7E0A         MOV     R6,#0xa
   1424              }
   1425          
   1426              // Allocate the memory to build the table
   1427              pBuf = osal_mem_alloc( (short)(sizeof( rtgItem_t ) * numItems) );
   \                     ??ZDO_ProcessMgmtRtgReq_1:
   \   000042                ; Setup parameters for call to function osal_mem_alloc
   \   000042   EE           MOV     A,R6
   \   000043   75F006       MOV     B,#0x6
   \   000046   A4           MUL     AB
   \   000047   FA           MOV     R2,A
   \   000048   ABF0         MOV     R3,B
   \   00004A   12....       LCALL   ?Subroutine132 & 0xFFFF
   1428          
   1429              if ( pBuf != NULL )
   \                     ??CrossCallReturnLabel_192:
   \   00004D   7001         JNZ     ??ZDO_ProcessMgmtRtgReq_2
   \   00004F   EB           MOV     A,R3
   \                     ??ZDO_ProcessMgmtRtgReq_2:
   \   000050   6070         JZ      ??ZDO_ProcessMgmtRtgReq_3
   1430              {
   1431                // Convert buffer to list
   1432                pList = (rtgItem_t *)pBuf;
   \   000052   7401         MOV     A,#0x1
   \   000054   12....       LCALL   ?XSTACK_DISP0_8
   \   000057   12....       LCALL   ?Subroutine38 & 0xFFFF
   1433          
   1434                // Loop through items and build list
   1435                for ( x = 0; x < numItems; x++ )
   \                     ??CrossCallReturnLabel_69:
   \   00005A   7F00         MOV     R7,#0x0
   \   00005C   8025         SJMP    ??ZDO_ProcessMgmtRtgReq_4
   1436                {
   1437                  NLME_GetRequest( nwkRoutingTable, (uint16)(x + StartIndex), (void*)pList );
   1438          
   1439                  // Remap the status to the RoutingTableList Record Format defined in the ZigBee spec
   1440                  switch( pList->status )
   1441                  {
   1442                    case RT_ACTIVE:
   1443                      pList->status = ZDO_MGMT_RTG_ENTRY_ACTIVE;
   1444                      break;
   1445          
   1446                    case RT_DISC:
   1447                      pList->status = ZDO_MGMT_RTG_ENTRY_DISCOVERY_UNDERWAY;
   1448                      break;
   1449          
   1450                    case RT_LINK_FAIL:
   1451                      pList->status = ZDO_MGMT_RTG_ENTRY_DISCOVERY_FAILED;
   \                     ??ZDO_ProcessMgmtRtgReq_5:
   \   00005E   7402         MOV     A,#0x2
   \   000060   8882         MOV     DPL,R0
   \   000062   8983         MOV     DPH,R1
   \   000064   F0           MOVX    @DPTR,A
   1452          
   1453                    case RT_INIT:
   1454                    case RT_REPAIR:
   1455                    default:
   1456                      pList->status = ZDO_MGMT_RTG_ENTRY_INACTIVE;
   \                     ??ZDO_ProcessMgmtRtgReq_6:
   \   000065   7403         MOV     A,#0x3
   \                     ??ZDO_ProcessMgmtRtgReq_7:
   \   000067   8882         MOV     DPL,R0
   \   000069   8983         MOV     DPH,R1
   \   00006B   F0           MOVX    @DPTR,A
   1457                      break;
   1458                  }
   1459          
   1460                  // Increment pointer to next record
   1461                  pList++;
   \   00006C   7401         MOV     A,#0x1
   \   00006E   12....       LCALL   ?XSTACK_DISP0_8
   \   000071   E0           MOVX    A,@DPTR
   \   000072   2406         ADD     A,#0x6
   \   000074   F8           MOV     R0,A
   \   000075   A3           INC     DPTR
   \   000076   E0           MOVX    A,@DPTR
   \   000077   3400         ADDC    A,#0x0
   \   000079   F9           MOV     R1,A
   \   00007A   7401         MOV     A,#0x1
   \   00007C   12....       LCALL   ?XSTACK_DISP0_8
   \   00007F   12....       LCALL   ??Subroutine225_0 & 0xFFFF
   \                     ??CrossCallReturnLabel_318:
   \   000082   0F           INC     R7
   \                     ??ZDO_ProcessMgmtRtgReq_4:
   \   000083   EF           MOV     A,R7
   \   000084   C3           CLR     C
   \   000085   9E           SUBB    A,R6
   \   000086   503C         JNC     ??ZDO_ProcessMgmtRtgReq_0
   \   000088                ; Setup parameters for call to function NLME_GetRequest
   \   000088   7401         MOV     A,#0x1
   \   00008A   12....       LCALL   ?XSTACK_DISP0_8
   \   00008D   12....       LCALL   ?Subroutine102 & 0xFFFF
   \                     ??CrossCallReturnLabel_163:
   \   000090   8F..         MOV     ?V0 + 2,R7
   \   000092   85....       MOV     ?V0 + 0,?V0 + 4
   \   000095   E5..         MOV     A,?V0 + 0
   \   000097   25..         ADD     A,?V0 + 2
   \   000099   FA           MOV     R2,A
   \   00009A   E4           CLR     A
   \   00009B   3400         ADDC    A,#0x0
   \   00009D   FB           MOV     R3,A
   \   00009E   798B         MOV     R1,#-0x75
   \   0000A0   12....       LCALL   ??NLME_GetRequest?relay
   \   0000A3   7401         MOV     A,#0x1
   \   0000A5   12....       LCALL   ?XSTACK_DISP0_8
   \   0000A8   E0           MOVX    A,@DPTR
   \   0000A9   2405         ADD     A,#0x5
   \   0000AB   12....       LCALL   ?Subroutine84 & 0xFFFF
   \                     ??CrossCallReturnLabel_330:
   \   0000AE   12....       LCALL   ?UC_SWITCH_DENSE
   \                     `?<Jumptable for ZDO_ProcessMgmtRtgReq>_0`:
   \   0000B1   01           DB        1
   \   0000B2   02           DB        2
   \   0000B3   ....         DW        ??ZDO_ProcessMgmtRtgReq_6
   \   0000B5   ....         DW        ??ZDO_ProcessMgmtRtgReq_8
   \   0000B7   ....         DW        ??ZDO_ProcessMgmtRtgReq_9
   \   0000B9   ....         DW        ??ZDO_ProcessMgmtRtgReq_5
   \                     ??ZDO_ProcessMgmtRtgReq_8:
   \   0000BB   E4           CLR     A
   \   0000BC   80A9         SJMP    ??ZDO_ProcessMgmtRtgReq_7
   \                     ??ZDO_ProcessMgmtRtgReq_9:
   \   0000BE   7401         MOV     A,#0x1
   \   0000C0   80A5         SJMP    ??ZDO_ProcessMgmtRtgReq_7
   1462                }
   1463              }
   1464              else
   1465              {
   1466                numItems = 0;
   \                     ??ZDO_ProcessMgmtRtgReq_3:
   \   0000C2   7E00         MOV     R6,#0x0
   1467              }
   1468            }
   1469          
   1470            // Send response
   1471            ZDP_MgmtRtgRsp( inMsg->TransSeq, &(inMsg->srcAddr), ZSuccess, maxNumItems, StartIndex, numItems,
   1472                                  (rtgItem_t *)pBuf, false );
   \                     ??ZDO_ProcessMgmtRtgReq_0:
   \   0000C4                ; Setup parameters for call to function ZDP_MgmtRtgRsp
   \   0000C4   75..00       MOV     ?V0 + 0,#0x0
   \   0000C7   78..         MOV     R0,#?V0 + 0
   \   0000C9   12....       LCALL   ?PUSH_XSTACK_I_ONE
   \   0000CC   78..         MOV     R0,#?V0 + 6
   \   0000CE   12....       LCALL   ?PUSH_XSTACK_I_TWO
   \   0000D1   EE           MOV     A,R6
   \   0000D2   F5..         MOV     ?V0 + 0,A
   \   0000D4   78..         MOV     R0,#?V0 + 0
   \   0000D6   12....       LCALL   ?PUSH_XSTACK_I_ONE
   \   0000D9   E5..         MOV     A,?V0 + 4
   \   0000DB   F5..         MOV     ?V0 + 0,A
   \   0000DD   78..         MOV     R0,#?V0 + 0
   \   0000DF   12....       LCALL   ?PUSH_XSTACK_I_ONE
   \   0000E2   7405         MOV     A,#0x5
   \   0000E4   12....       LCALL   ?XSTACK_DISP0_8
   \   0000E7   E0           MOVX    A,@DPTR
   \   0000E8   FD           MOV     R5,A
   \   0000E9   7C00         MOV     R4,#0x0
   \   0000EB   7408         MOV     A,#0x8
   \   0000ED   12....       LCALL   ?XSTACK_DISP0_8
   \   0000F0   12....       LCALL   ?Subroutine77 & 0xFFFF
   \                     ??CrossCallReturnLabel_238:
   \   0000F3   7408         MOV     A,#0x8
   \   0000F5   12....       LCALL   ?XSTACK_DISP0_8
   \   0000F8   12....       LCALL   ?Subroutine56 & 0xFFFF
   \                     ??CrossCallReturnLabel_106:
   \   0000FB   12....       LCALL   ??ZDP_MgmtRtgRsp?relay
   \   0000FE   7405         MOV     A,#0x5
   \   000100   12....       LCALL   ?DEALLOC_XSTACK8
   1473          
   1474            if ( pBuf )
   \   000103   E5..         MOV     A,?V0 + 6
   \   000105   7002         JNZ     ??ZDO_ProcessMgmtRtgReq_10
   \   000107   E5..         MOV     A,?V0 + 7
   \                     ??ZDO_ProcessMgmtRtgReq_10:
   \   000109   6007         JZ      ??ZDO_ProcessMgmtRtgReq_11
   1475            {
   1476              osal_mem_free( pBuf );
   \   00010B                ; Setup parameters for call to function osal_mem_free
   \   00010B   AA..         MOV     R2,?V0 + 6
   \   00010D   AB..         MOV     R3,?V0 + 7
   \   00010F   12....       LCALL   ??osal_mem_free?relay
   1477            }
   1478          }
   \                     ??ZDO_ProcessMgmtRtgReq_11:
   \   000112   7405         MOV     A,#0x5
   \   000114                REQUIRE ?Subroutine210
   \   000114                ; // Fall through to label ?Subroutine210

   \                                 In  segment BANKED_CODE, align 1, keep-with-next
   \                     ?Subroutine132:
   \   000000   12....       LCALL   ?Subroutine174 & 0xFFFF
   \                     ??CrossCallReturnLabel_242:
   \   000003   22           RET

   \                                 In  segment BANKED_CODE, align 1, keep-with-next
   \                     ?Subroutine194:
   \   000000   8A..         MOV     ?V0 + 6,R2
   \   000002   8B..         MOV     ?V0 + 7,R3
   \   000004   EA           MOV     A,R2
   \   000005   22           RET

   \                                 In  segment BANKED_CODE, align 1, keep-with-next
   \                     ?Subroutine174:
   \   000000   12....       LCALL   ??osal_mem_alloc?relay
   \   000003   02....       LJMP    ?Subroutine194 & 0xFFFF
   1479          
   1480          /*********************************************************************
   1481           * @fn          ZDO_ProcessMgmtBindReq
   1482           *
   1483           * @brief       This function finishes the processing of the Management
   1484           *              Bind Request and generates the response.
   1485           *
   1486           *   Note:      This function will limit the number of items returned
   1487           *              to ZDO_MAX_BIND_ITEMS items.
   1488           *
   1489           * @param       inMsg - incoming message (request)
   1490           *
   1491           * @return      none
   1492           */

   \                                 In  segment BANKED_CODE, align 1, keep-with-next
   1493          void ZDO_ProcessMgmtBindReq( zdoIncomingMsg_t *inMsg )
   \                     ZDO_ProcessMgmtBindReq:
   1494          {
   \   000000   74F1         MOV     A,#-0xf
   \   000002   12....       LCALL   ?BANKED_ENTER_XDATA
   \   000005                ; Saved register size: 15
   \   000005                ; Auto size: 8
   \   000005   74F8         MOV     A,#-0x8
   \   000007   12....       LCALL   ?ALLOC_XSTACK8
   \   00000A   7406         MOV     A,#0x6
   \   00000C   12....       LCALL   ?XSTACK_DISP0_8
   \   00000F   12....       LCALL   ?Subroutine37 & 0xFFFF
   1495          #if defined ( REFLECTOR )
   1496            byte x;
   1497            uint16 maxNumItems;
   1498            uint16 numItems;
   1499            uint8 *pBuf = NULL;
   \                     ??CrossCallReturnLabel_55:
   \   000012   E4           CLR     A
   \   000013   F0           MOVX    @DPTR,A
   \   000014   A3           INC     DPTR
   \   000015   F0           MOVX    @DPTR,A
   1500            apsBindingItem_t *pList;
   1501            uint8 StartIndex = inMsg->asdu[0];
   \   000016   7406         MOV     A,#0x6
   \   000018   12....       LCALL   ?XSTACK_DISP0_8
   \   00001B   E0           MOVX    A,@DPTR
   \   00001C   2413         ADD     A,#0x13
   \   00001E   12....       LCALL   ??Subroutine238_0 & 0xFFFF
   \                     ??CrossCallReturnLabel_390:
   \   000021   12....       LCALL   ?Subroutine59 & 0xFFFF
   \                     ??CrossCallReturnLabel_114:
   \   000024   F5..         MOV     ?V0 + 1,A
   1502            uint8 status;
   1503          
   1504            // Get the number of table items
   1505            APSME_GetRequest( apsNumBindingTableEntries, 0, (byte*)(&maxNumItems) );
   \   000026                ; Setup parameters for call to function APSME_GetRequest
   \   000026   7402         MOV     A,#0x2
   \   000028   12....       LCALL   ?XSTACK_DISP0_8
   \   00002B   AC82         MOV     R4,DPL
   \   00002D   AD83         MOV     R5,DPH
   \   00002F   7A00         MOV     R2,#0x0
   \   000031   7B00         MOV     R3,#0x0
   \   000033   79A3         MOV     R1,#-0x5d
   \   000035   12....       LCALL   ??APSME_GetRequest?relay
   1506          
   1507            if ( maxNumItems > StartIndex )
   \   000038   85..82       MOV     DPL,?V0 + 1
   \   00003B   AA82         MOV     R2,DPL
   \   00003D   7402         MOV     A,#0x2
   \   00003F   12....       LCALL   ?XSTACK_DISP0_8
   \   000042   12....       LCALL   ??Subroutine231_0 & 0xFFFF
   \                     ??CrossCallReturnLabel_346:
   \   000045   C3           CLR     C
   \   000046   EA           MOV     A,R2
   \   000047   98           SUBB    A,R0
   \   000048   E4           CLR     A
   \   000049   99           SUBB    A,R1
   \   00004A   4003         JC      $+5
   \   00004C   02....       LJMP    ??ZDO_ProcessMgmtBindReq_0 & 0xFFFF
   1508            {
   1509              numItems = maxNumItems - StartIndex;    // Start at the passed in index
   \   00004F   7402         MOV     A,#0x2
   \   000051   12....       LCALL   ?XSTACK_DISP0_8
   \   000054   E0           MOVX    A,@DPTR
   \   000055   C3           CLR     C
   \   000056   9A           SUBB    A,R2
   \   000057   FE           MOV     R6,A
   \   000058   A3           INC     DPTR
   \   000059   E0           MOVX    A,@DPTR
   \   00005A   9400         SUBB    A,#0x0
   \   00005C   FF           MOV     R7,A
   1510            }
   1511            else
   1512            {
   1513              numItems = 0;
   1514            }
   1515          
   1516            // limit the size of the list
   1517            if ( numItems > ZDO_MAX_BIND_ITEMS )
   \   00005D   C3           CLR     C
   \   00005E   EE           MOV     A,R6
   \   00005F   9404         SUBB    A,#0x4
   \   000061   EF           MOV     A,R7
   \   000062   9400         SUBB    A,#0x0
   \   000064   4006         JC      ??ZDO_ProcessMgmtBindReq_1
   1518            {
   1519              numItems = ZDO_MAX_BIND_ITEMS;
   \   000066   7E03         MOV     R6,#0x3
   \   000068   7F00         MOV     R7,#0x0
   \   00006A   8006         SJMP    ??ZDO_ProcessMgmtBindReq_2
   1520            }
   1521          
   1522            // Allocate the memory to build the table
   1523            if ( numItems && (pBuf = osal_mem_alloc( sizeof( apsBindingItem_t ) * numItems )) )
   \                     ??ZDO_ProcessMgmtBindReq_1:
   \   00006C   EE           MOV     A,R6
   \   00006D   7001         JNZ     ??ZDO_ProcessMgmtBindReq_3
   \   00006F   EF           MOV     A,R7
   \                     ??ZDO_ProcessMgmtBindReq_3:
   \   000070   607E         JZ      ??ZDO_ProcessMgmtBindReq_0
   \                     ??ZDO_ProcessMgmtBindReq_2:
   \   000072                ; Setup parameters for call to function osal_mem_alloc
   \   000072   EE           MOV     A,R6
   \   000073   FA           MOV     R2,A
   \   000074   EF           MOV     A,R7
   \   000075   FB           MOV     R3,A
   \   000076   EA           MOV     A,R2
   \   000077   75F015       MOV     B,#0x15
   \   00007A   A4           MUL     AB
   \   00007B   FA           MOV     R2,A
   \   00007C   ACF0         MOV     R4,B
   \   00007E   75F015       MOV     B,#0x15
   \   000081   EB           MOV     A,R3
   \   000082   A4           MUL     AB
   \   000083   2C           ADD     A,R4
   \   000084   FB           MOV     R3,A
   \   000085   12....       LCALL   ??osal_mem_alloc?relay
   \   000088   85..82       MOV     DPL,?XSP + 0
   \   00008B   85..83       MOV     DPH,?XSP + 1
   \   00008E   12....       LCALL   ?Subroutine37 & 0xFFFF
   \                     ??CrossCallReturnLabel_56:
   \   000091   E0           MOVX    A,@DPTR
   \   000092   7002         JNZ     ??ZDO_ProcessMgmtBindReq_4
   \   000094   A3           INC     DPTR
   \   000095   E0           MOVX    A,@DPTR
   \                     ??ZDO_ProcessMgmtBindReq_4:
   \   000096   6058         JZ      ??ZDO_ProcessMgmtBindReq_0
   1524            {
   1525              status = ZSuccess;
   \   000098   75..00       MOV     ?V0 + 6,#0x0
   1526          
   1527              // Convert buffer to list
   1528              pList = (apsBindingItem_t *)pBuf;
   \   00009B   85..82       MOV     DPL,?XSP + 0
   \   00009E   85..83       MOV     DPH,?XSP + 1
   \   0000A1   12....       LCALL   ??Subroutine231_0 & 0xFFFF
   \                     ??CrossCallReturnLabel_347:
   \   0000A4   7404         MOV     A,#0x4
   \   0000A6   12....       LCALL   ?XSTACK_DISP0_8
   \   0000A9   12....       LCALL   ??Subroutine225_0 & 0xFFFF
   1529          
   1530              // Loop through items and build list
   1531              for ( x = 0; x < numItems; x++ )
   \                     ??CrossCallReturnLabel_319:
   \   0000AC   75..00       MOV     ?V0 + 0,#0x0
   \                     ??ZDO_ProcessMgmtBindReq_5:
   \   0000AF   85....       MOV     ?V0 + 2,?V0 + 0
   \   0000B2   C3           CLR     C
   \   0000B3   E5..         MOV     A,?V0 + 2
   \   0000B5   9E           SUBB    A,R6
   \   0000B6   E4           CLR     A
   \   0000B7   9F           SUBB    A,R7
   \   0000B8   503B         JNC     ??ZDO_ProcessMgmtBindReq_6
   1532              {
   1533                APSME_GetRequest( apsBindingTable, (x + StartIndex), (void*)pList );
   \   0000BA                ; Setup parameters for call to function APSME_GetRequest
   \   0000BA   7404         MOV     A,#0x4
   \   0000BC   12....       LCALL   ?XSTACK_DISP0_8
   \   0000BF   12....       LCALL   ?Subroutine102 & 0xFFFF
   \                     ??CrossCallReturnLabel_164:
   \   0000C2   85....       MOV     ?V0 + 4,?V0 + 0
   \   0000C5   85....       MOV     ?V0 + 2,?V0 + 1
   \   0000C8   E5..         MOV     A,?V0 + 2
   \   0000CA   25..         ADD     A,?V0 + 4
   \   0000CC   FA           MOV     R2,A
   \   0000CD   E4           CLR     A
   \   0000CE   3400         ADDC    A,#0x0
   \   0000D0   FB           MOV     R3,A
   \   0000D1   79A2         MOV     R1,#-0x5e
   \   0000D3   12....       LCALL   ??APSME_GetRequest?relay
   1534                pList++;
   \   0000D6   7404         MOV     A,#0x4
   \   0000D8   12....       LCALL   ?XSTACK_DISP0_8
   \   0000DB   E0           MOVX    A,@DPTR
   \   0000DC   2415         ADD     A,#0x15
   \   0000DE   F8           MOV     R0,A
   \   0000DF   A3           INC     DPTR
   \   0000E0   E0           MOVX    A,@DPTR
   \   0000E1   3400         ADDC    A,#0x0
   \   0000E3   F9           MOV     R1,A
   \   0000E4   7404         MOV     A,#0x4
   \   0000E6   12....       LCALL   ?XSTACK_DISP0_8
   \   0000E9   12....       LCALL   ??Subroutine225_0 & 0xFFFF
   1535              }
   \                     ??CrossCallReturnLabel_320:
   \   0000EC   05..         INC     ?V0 + 0
   \   0000EE   80BF         SJMP    ??ZDO_ProcessMgmtBindReq_5
   1536          
   1537            }
   1538            else
   1539            {
   1540              status = ZDP_NOT_PERMITTED;
   \                     ??ZDO_ProcessMgmtBindReq_0:
   \   0000F0   75..8B       MOV     ?V0 + 6,#-0x75
   1541              numItems = 0;
   \   0000F3   7E00         MOV     R6,#0x0
   1542            }
   1543          
   1544            // Send response
   1545            ZDP_MgmtBindRsp( inMsg->TransSeq, &(inMsg->srcAddr), status, (byte)maxNumItems, StartIndex,
   1546                             (byte)numItems, (apsBindingItem_t *)pBuf, false );
   \                     ??ZDO_ProcessMgmtBindReq_6:
   \   0000F5                ; Setup parameters for call to function ZDP_MgmtBindRsp
   \   0000F5   75..00       MOV     ?V0 + 0,#0x0
   \   0000F8   78..         MOV     R0,#?V0 + 0
   \   0000FA   12....       LCALL   ?PUSH_XSTACK_I_ONE
   \   0000FD   7401         MOV     A,#0x1
   \   0000FF   12....       LCALL   ?XSTACK_DISP0_8
   \   000102   12....       LCALL   ?PUSH_XSTACK8_X_TWO
   \   000105   EE           MOV     A,R6
   \   000106   F5..         MOV     ?V0 + 0,A
   \   000108   78..         MOV     R0,#?V0 + 0
   \   00010A   12....       LCALL   ?PUSH_XSTACK_I_ONE
   \   00010D   E5..         MOV     A,?V0 + 1
   \   00010F   F5..         MOV     ?V0 + 0,A
   \   000111   78..         MOV     R0,#?V0 + 0
   \   000113   12....       LCALL   ?PUSH_XSTACK_I_ONE
   \   000116   7407         MOV     A,#0x7
   \   000118   12....       LCALL   ?XSTACK_DISP0_8
   \   00011B   E0           MOVX    A,@DPTR
   \   00011C   FD           MOV     R5,A
   \   00011D   AC..         MOV     R4,?V0 + 6
   \   00011F   740B         MOV     A,#0xb
   \   000121   12....       LCALL   ?XSTACK_DISP0_8
   \   000124   12....       LCALL   ?Subroutine77 & 0xFFFF
   \                     ??CrossCallReturnLabel_239:
   \   000127   740B         MOV     A,#0xb
   \   000129   12....       LCALL   ?XSTACK_DISP0_8
   \   00012C   12....       LCALL   ?Subroutine56 & 0xFFFF
   \                     ??CrossCallReturnLabel_107:
   \   00012F   12....       LCALL   ??ZDP_MgmtBindRsp?relay
   \   000132   7405         MOV     A,#0x5
   \   000134   12....       LCALL   ?DEALLOC_XSTACK8
   1547          
   1548            if ( pBuf )
   \   000137   85..82       MOV     DPL,?XSP + 0
   \   00013A   85..83       MOV     DPH,?XSP + 1
   \   00013D   E0           MOVX    A,@DPTR
   \   00013E   7002         JNZ     ??ZDO_ProcessMgmtBindReq_7
   \   000140   A3           INC     DPTR
   \   000141   E0           MOVX    A,@DPTR
   \                     ??ZDO_ProcessMgmtBindReq_7:
   \   000142   6003         JZ      ??CrossCallReturnLabel_413
   1549            {
   1550              osal_mem_free( pBuf );
   \   000144                ; Setup parameters for call to function osal_mem_free
   \   000144   12....       LCALL   ?Subroutine49 & 0xFFFF
   1551            }
   1552          #else
   1553            (void)inMsg;
   1554          #endif
   1555          }
   \                     ??CrossCallReturnLabel_413:
   \   000147   7408         MOV     A,#0x8
   \   000149   12....       LCALL   ?DEALLOC_XSTACK8
   \   00014C   7F07         MOV     R7,#0x7
   \   00014E   02....       LJMP    ?BANKED_LEAVE_XDATA

   \                                 In  segment BANKED_CODE, align 1, keep-with-next
   \                     ?Subroutine37:
   \   000000   12....       LCALL   ?Subroutine145 & 0xFFFF
   \                     ??CrossCallReturnLabel_341:
   \   000003   85..82       MOV     DPL,?XSP + 0
   \   000006   85..83       MOV     DPH,?XSP + 1
   \   000009   22           RET

   \                                 In  segment BANKED_CODE, align 1, keep-with-next
   \                     ??Subroutine238_0:
   \   000000   12....       LCALL   ?Subroutine157 & 0xFFFF
   \                     ??CrossCallReturnLabel_402:
   \   000003   22           RET
   1556          
   1557          /*********************************************************************
   1558           * @fn          ZDO_ProcessMgmtDirectJoinReq
   1559           *
   1560           * @brief       This function finishes the processing of the Management
   1561           *              Direct Join Request and generates the response.
   1562           *
   1563           * @param       inMsg - incoming message (request)
   1564           *
   1565           * @return      none
   1566           */

   \                                 In  segment BANKED_CODE, align 1, keep-with-next
   1567          void ZDO_ProcessMgmtDirectJoinReq( zdoIncomingMsg_t *inMsg )
   \                     ZDO_ProcessMgmtDirectJoinReq:
   1568          {
   \   000000   74F6         MOV     A,#-0xa
   \   000002   12....       LCALL   ?BANKED_ENTER_XDATA
   \   000005                ; Saved register size: 10
   \   000005                ; Auto size: 1
   \   000005   74FF         MOV     A,#-0x1
   \   000007   12....       LCALL   ?ALLOC_XSTACK8
   \   00000A   EA           MOV     A,R2
   \   00000B   FE           MOV     R6,A
   \   00000C   EB           MOV     A,R3
   \   00000D   FF           MOV     R7,A
   1569            uint8 *deviceAddr;
   1570            uint8 capInfo;
   1571            uint8 stat;
   1572          
   1573            // Parse the message
   1574            deviceAddr = inMsg->asdu;
   1575            capInfo = inMsg->asdu[Z_EXTADDR_LEN];
   1576          
   1577            stat = (byte) NLME_DirectJoinRequest( deviceAddr, capInfo );
   \   00000E   12....       LCALL   ?Subroutine116 & 0xFFFF
   \                     ??CrossCallReturnLabel_574:
   \   000011   EF           MOV     A,R7
   \   000012   12....       LCALL   ?Subroutine95 & 0xFFFF
   \                     ??CrossCallReturnLabel_279:
   \   000015   A3           INC     DPTR
   \   000016   A3           INC     DPTR
   \   000017   A3           INC     DPTR
   \   000018   A3           INC     DPTR
   \   000019   A3           INC     DPTR
   \   00001A   A3           INC     DPTR
   \   00001B   A3           INC     DPTR
   \   00001C   A3           INC     DPTR
   \   00001D   E0           MOVX    A,@DPTR
   \   00001E   F9           MOV     R1,A
   \   00001F   12....       LCALL   ??NLME_DirectJoinRequest?relay
   \   000022   E9           MOV     A,R1
   \   000023   85..82       MOV     DPL,?XSP + 0
   \   000026   85..83       MOV     DPH,?XSP + 1
   \   000029   F0           MOVX    @DPTR,A
   1578          
   1579            ZDP_MgmtDirectJoinRsp( inMsg->TransSeq, &(inMsg->srcAddr), stat, false );
   \   00002A                ; Setup parameters for call to function ZDP_SendData
   \   00002A   75..00       MOV     ?V0 + 0,#0x0
   \   00002D   78..         MOV     R0,#?V0 + 0
   \   00002F   12....       LCALL   ?PUSH_XSTACK_I_ONE
   \   000032   7401         MOV     A,#0x1
   \   000034   12....       LCALL   ?XSTACK_DISP0_8
   \   000037   8582..       MOV     ?V0 + 0,DPL
   \   00003A   8583..       MOV     ?V0 + 1,DPH
   \   00003D   78..         MOV     R0,#?V0 + 0
   \   00003F   12....       LCALL   ?PUSH_XSTACK_I_TWO
   \   000042   75..35       MOV     ?V0 + 0,#0x35
   \   000045   75..80       MOV     ?V0 + 1,#-0x80
   \   000048   78..         MOV     R0,#?V0 + 0
   \   00004A   12....       LCALL   ?PUSH_XSTACK_I_TWO
   \   00004D   7901         MOV     R1,#0x1
   \   00004F   EE           MOV     A,R6
   \   000050   2402         ADD     A,#0x2
   \   000052   FC           MOV     R4,A
   \   000053   EF           MOV     A,R7
   \   000054   3400         ADDC    A,#0x0
   \   000056   FD           MOV     R5,A
   \   000057   12....       LCALL   ?Subroutine117 & 0xFFFF
   \                     ??CrossCallReturnLabel_354:
   \   00005A   12....       LCALL   ?DEALLOC_XSTACK8
   1580          }
   \   00005D                REQUIRE ?Subroutine211
   \   00005D                ; // Fall through to label ?Subroutine211

   \                                 In  segment BANKED_CODE, align 1, keep-with-next
   \                     ?Subroutine211:
   \   000000   7401         MOV     A,#0x1
   \   000002   02....       LJMP    ??Subroutine218_0 & 0xFFFF

   \                                 In  segment BANKED_CODE, align 1, keep-with-next
   \                     ?Subroutine117:
   \   000000   EE           MOV     A,R6
   \   000001   240F         ADD     A,#0xf
   \   000003   FA           MOV     R2,A
   \   000004   EF           MOV     A,R7
   \   000005                REQUIRE ??Subroutine232_0
   \   000005                ; // Fall through to label ??Subroutine232_0

   \                                 In  segment BANKED_CODE, align 1, keep-with-next
   \                     ?Subroutine204:
   \   000000   8A82         MOV     DPL,R2
   \   000002   8B83         MOV     DPH,R3
   \   000004   22           RET

   \                                 In  segment BANKED_CODE, align 1, keep-with-next
   \                     ?Subroutine95:
   \   000000   12....       LCALL   ?Subroutine199 & 0xFFFF
   \                     ??CrossCallReturnLabel_554:
   \   000003   12....       LCALL   ?Subroutine156 & 0xFFFF
   \                     ??CrossCallReturnLabel_422:
   \   000006                ; Setup parameters for call to function NLME_DirectJoinRequest
   \   000006   02....       LJMP    ?Subroutine204 & 0xFFFF
   1581          
   1582          /*********************************************************************
   1583           * @fn          ZDO_ProcessMgmtLeaveReq
   1584           *
   1585           * @brief       This function processes a Management Leave Request
   1586           *              and generates the response.
   1587           *
   1588           * @param       inMsg - incoming message (request)
   1589           *
   1590           * @return      none
   1591           */

   \                                 In  segment BANKED_CODE, align 1, keep-with-next
   \                     ?Subroutine108:
   \   000000   12....       LCALL   ?Subroutine165 & 0xFFFF
   \                     ??CrossCallReturnLabel_228:
   \   000003   3400         ADDC    A,#0x0
   \   000005                REQUIRE ??Subroutine216_0
   \   000005                ; // Fall through to label ??Subroutine216_0

   \                                 In  segment BANKED_CODE, align 1, keep-with-next
   1592          void ZDO_ProcessMgmtLeaveReq( zdoIncomingMsg_t *inMsg )
   \                     ZDO_ProcessMgmtLeaveReq:
   1593          {
   \   000000   74F4         MOV     A,#-0xc
   \   000002   12....       LCALL   ?BANKED_ENTER_XDATA
   \   000005                ; Saved register size: 12
   \   000005                ; Auto size: 6
   \   000005   74FA         MOV     A,#-0x6
   \   000007   12....       LCALL   ?ALLOC_XSTACK8
   \   00000A   8A..         MOV     ?V0 + 0,R2
   \   00000C   8B..         MOV     ?V0 + 1,R3
   1594            NLME_LeaveReq_t req;
   1595            ZStatus_t       status;
   1596            uint8           option;
   1597            uint8 *msg = inMsg->asdu;
   \   00000E   12....       LCALL   ?Subroutine108 & 0xFFFF
   1598          
   1599            if ( ( AddrMgrExtAddrValid( msg ) == FALSE                 ) ||
   1600                 ( osal_ExtAddrEqual( msg, NLME_GetExtAddr() ) == TRUE )    )
   \                     ??CrossCallReturnLabel_300:
   \   000011                ; Setup parameters for call to function AddrMgrExtAddrValid
   \   000011   EE           MOV     A,R6
   \   000012   FA           MOV     R2,A
   \   000013   EF           MOV     A,R7
   \   000014   FB           MOV     R3,A
   \   000015   12....       LCALL   ??AddrMgrExtAddrValid?relay
   \   000018   E9           MOV     A,R1
   \   000019   6013         JZ      ??ZDO_ProcessMgmtLeaveReq_0
   \   00001B                ; Setup parameters for call to function sAddrExtCmp
   \   00001B                ; Setup parameters for call to function NLME_GetExtAddr
   \   00001B   12....       LCALL   ??NLME_GetExtAddr?relay
   \   00001E   EA           MOV     A,R2
   \   00001F   FC           MOV     R4,A
   \   000020   EB           MOV     A,R3
   \   000021   FD           MOV     R5,A
   \   000022   EE           MOV     A,R6
   \   000023   FA           MOV     R2,A
   \   000024   EF           MOV     A,R7
   \   000025   FB           MOV     R3,A
   \   000026   12....       LCALL   ??sAddrExtCmp?relay
   \   000029   E9           MOV     A,R1
   \   00002A   6401         XRL     A,#0x1
   \   00002C   700A         JNZ     ??ZDO_ProcessMgmtLeaveReq_1
   1601            {
   1602              // Remove this device
   1603              req.extAddr = NULL;
   \                     ??ZDO_ProcessMgmtLeaveReq_0:
   \   00002E   7401         MOV     A,#0x1
   \   000030   12....       LCALL   ?XSTACK_DISP0_8
   \   000033   E4           CLR     A
   \   000034   F0           MOVX    @DPTR,A
   \   000035   A3           INC     DPTR
   \   000036   8009         SJMP    ??ZDO_ProcessMgmtLeaveReq_2
   1604            }
   1605            else
   1606            {
   1607              // Remove child device
   1608              req.extAddr = msg;
   \                     ??ZDO_ProcessMgmtLeaveReq_1:
   \   000038   7401         MOV     A,#0x1
   \   00003A   12....       LCALL   ?XSTACK_DISP0_8
   \   00003D   EE           MOV     A,R6
   \   00003E   F0           MOVX    @DPTR,A
   \   00003F   A3           INC     DPTR
   \   000040   EF           MOV     A,R7
   1609            }
   \                     ??ZDO_ProcessMgmtLeaveReq_2:
   \   000041   12....       LCALL   ?Subroutine143 & 0xFFFF
   1610          
   1611            option = msg[Z_EXTADDR_LEN];
   \                     ??CrossCallReturnLabel_205:
   \   000044   A3           INC     DPTR
   \   000045   A3           INC     DPTR
   \   000046   A3           INC     DPTR
   \   000047   A3           INC     DPTR
   \   000048   A3           INC     DPTR
   \   000049   A3           INC     DPTR
   \   00004A   A3           INC     DPTR
   \   00004B   E0           MOVX    A,@DPTR
   \   00004C   FA           MOV     R2,A
   1612            if ( option & ZDP_MGMT_LEAVE_REQ_RC )
   \   00004D   A2E6         MOV     C,0xE0 /* A   */.6
   \   00004F   5008         JNC     ??ZDO_ProcessMgmtLeaveReq_3
   1613            {
   1614              req.removeChildren = TRUE;
   \   000051   7403         MOV     A,#0x3
   \   000053   12....       LCALL   ?XSTACK_DISP0_8
   \   000056   7401         MOV     A,#0x1
   \   000058   F0           MOVX    @DPTR,A
   1615            }
   1616          
   1617            if ( option & ZDP_MGMT_LEAVE_REQ_REJOIN )
   \                     ??ZDO_ProcessMgmtLeaveReq_3:
   \   000059   EA           MOV     A,R2
   \   00005A   A2E7         MOV     C,0xE0 /* A   */.7
   \   00005C   5008         JNC     ??ZDO_ProcessMgmtLeaveReq_4
   1618            {
   1619               req.rejoin = TRUE;
   \   00005E   7404         MOV     A,#0x4
   \   000060   12....       LCALL   ?XSTACK_DISP0_8
   \   000063   7401         MOV     A,#0x1
   \   000065   F0           MOVX    @DPTR,A
   1620            }
   1621          
   1622            req.silent = FALSE;
   \                     ??ZDO_ProcessMgmtLeaveReq_4:
   \   000066   7405         MOV     A,#0x5
   \   000068   12....       LCALL   ?XSTACK_DISP0_8
   \   00006B   E4           CLR     A
   \   00006C   F0           MOVX    @DPTR,A
   1623          
   1624            status = NLME_LeaveReq( &req );
   \   00006D                ; Setup parameters for call to function NLME_LeaveReq
   \   00006D   7401         MOV     A,#0x1
   \   00006F   12....       LCALL   ?XSTACK_DISP0_8
   \   000072   AA82         MOV     R2,DPL
   \   000074   AB83         MOV     R3,DPH
   \   000076   12....       LCALL   ??NLME_LeaveReq?relay
   \   000079   E9           MOV     A,R1
   \   00007A   85..82       MOV     DPL,?XSP + 0
   \   00007D   85..83       MOV     DPH,?XSP + 1
   \   000080   F0           MOVX    @DPTR,A
   1625          
   1626            ZDP_MgmtLeaveRsp( inMsg->TransSeq, &(inMsg->srcAddr), status, FALSE );
   \   000081                ; Setup parameters for call to function ZDP_SendData
   \   000081   75..00       MOV     ?V0 + 2,#0x0
   \   000084   78..         MOV     R0,#?V0 + 2
   \   000086   12....       LCALL   ?PUSH_XSTACK_I_ONE
   \   000089   7401         MOV     A,#0x1
   \   00008B   12....       LCALL   ?XSTACK_DISP0_8
   \   00008E   8582..       MOV     ?V0 + 2,DPL
   \   000091   8583..       MOV     ?V0 + 3,DPH
   \   000094   78..         MOV     R0,#?V0 + 2
   \   000096   12....       LCALL   ?PUSH_XSTACK_I_TWO
   \   000099   75..34       MOV     ?V0 + 2,#0x34
   \   00009C   75..80       MOV     ?V0 + 3,#-0x80
   \   00009F   78..         MOV     R0,#?V0 + 2
   \   0000A1   12....       LCALL   ?PUSH_XSTACK_I_TWO
   \   0000A4   7901         MOV     R1,#0x1
   \   0000A6   E5..         MOV     A,?V0 + 0
   \   0000A8   2402         ADD     A,#0x2
   \   0000AA   FC           MOV     R4,A
   \   0000AB   E5..         MOV     A,?V0 + 1
   \   0000AD   3400         ADDC    A,#0x0
   \   0000AF   FD           MOV     R5,A
   \   0000B0   E5..         MOV     A,?V0 + 0
   \   0000B2   240F         ADD     A,#0xf
   \   0000B4   FA           MOV     R2,A
   \   0000B5   E5..         MOV     A,?V0 + 1
   \   0000B7   12....       LCALL   ??Subroutine232_0 & 0xFFFF
   \                     ??CrossCallReturnLabel_357:
   \   0000BA   12....       LCALL   ?DEALLOC_XSTACK8
   1627          }
   \   0000BD   7406         MOV     A,#0x6
   \   0000BF   02....       LJMP    ?Subroutine187 & 0xFFFF
   1628          
   1629          
   1630          /*********************************************************************
   1631           * @fn          ZDO_ProcessMgmtPermitJoinReq
   1632           *
   1633           * @brief       This function processes a Management Permit Join Request
   1634           *              and generates the response.
   1635           *
   1636           * @param       inMsg - incoming message (request)
   1637           *
   1638           * @return      none
   1639           */

   \                                 In  segment BANKED_CODE, align 1, keep-with-next
   1640          void ZDO_ProcessMgmtPermitJoinReq( zdoIncomingMsg_t *inMsg )
   \                     ZDO_ProcessMgmtPermitJoinReq:
   1641          {
   \   000000   74F6         MOV     A,#-0xa
   \   000002   12....       LCALL   ?BANKED_ENTER_XDATA
   \   000005                ; Saved register size: 10
   \   000005                ; Auto size: 1
   \   000005   74FF         MOV     A,#-0x1
   \   000007   12....       LCALL   ?ALLOC_XSTACK8
   \   00000A   12....       LCALL   ?Subroutine115 & 0xFFFF
   1642            uint8 stat;
   1643            uint8 duration;
   1644            uint8 tcsig;
   1645          
   1646            duration = inMsg->asdu[ZDP_MGMT_PERMIT_JOIN_REQ_DURATION];
   1647            tcsig    = inMsg->asdu[ZDP_MGMT_PERMIT_JOIN_REQ_TC_SIG];
   1648          
   1649            // Set the network layer permit join duration
   1650            stat = (byte) NLME_PermitJoiningRequest( duration );
   \                     ??CrossCallReturnLabel_179:
   \   00000D   12....       LCALL   ?Subroutine59 & 0xFFFF
   \                     ??CrossCallReturnLabel_115:
   \   000010   F9           MOV     R1,A
   \   000011   12....       LCALL   ??NLME_PermitJoiningRequest?relay
   \   000014   E9           MOV     A,R1
   \   000015   85..82       MOV     DPL,?XSP + 0
   \   000018   85..83       MOV     DPH,?XSP + 1
   \   00001B   F0           MOVX    @DPTR,A
   1651          
   1652            // Handle the Trust Center Significance
   1653            if ( ZG_SECURE_ENABLED && ZG_BUILD_COORDINATOR_TYPE && ZG_DEVICE_COORDINATOR_TYPE )
   1654            {
   1655              if ( tcsig == TRUE )
   1656              {
   1657                ZDSecMgrPermitJoining( duration );
   1658              }
   1659            }
   1660          
   1661            // Send a response if unicast
   1662            if (inMsg->srcAddr.addr.shortAddr != NWK_BROADCAST_SHORTADDR)
   \   00001C   EE           MOV     A,R6
   \   00001D   2402         ADD     A,#0x2
   \   00001F   FC           MOV     R4,A
   \   000020   EF           MOV     A,R7
   \   000021   3400         ADDC    A,#0x0
   \   000023   FD           MOV     R5,A
   \   000024   8C82         MOV     DPL,R4
   \   000026   8D83         MOV     DPH,R5
   \   000028   E0           MOVX    A,@DPTR
   \   000029   64FF         XRL     A,#0xff
   \   00002B   7004         JNZ     ??ZDO_ProcessMgmtPermitJoinReq_0
   \   00002D   A3           INC     DPTR
   \   00002E   E0           MOVX    A,@DPTR
   \   00002F   64FF         XRL     A,#0xff
   \                     ??ZDO_ProcessMgmtPermitJoinReq_0:
   \   000031   602B         JZ      ??ZDO_ProcessMgmtPermitJoinReq_1
   1663            {
   1664              ZDP_MgmtPermitJoinRsp( inMsg->TransSeq, &(inMsg->srcAddr), stat, false );
   \   000033                ; Setup parameters for call to function ZDP_SendData
   \   000033   75..00       MOV     ?V0 + 0,#0x0
   \   000036   78..         MOV     R0,#?V0 + 0
   \   000038   12....       LCALL   ?PUSH_XSTACK_I_ONE
   \   00003B   7401         MOV     A,#0x1
   \   00003D   12....       LCALL   ?XSTACK_DISP0_8
   \   000040   8582..       MOV     ?V0 + 0,DPL
   \   000043   8583..       MOV     ?V0 + 1,DPH
   \   000046   78..         MOV     R0,#?V0 + 0
   \   000048   12....       LCALL   ?PUSH_XSTACK_I_TWO
   \   00004B   75..36       MOV     ?V0 + 0,#0x36
   \   00004E   75..80       MOV     ?V0 + 1,#-0x80
   \   000051   78..         MOV     R0,#?V0 + 0
   \   000053   12....       LCALL   ?PUSH_XSTACK_I_TWO
   \   000056   7901         MOV     R1,#0x1
   \   000058   12....       LCALL   ?Subroutine117 & 0xFFFF
   1665            }
   \                     ??CrossCallReturnLabel_355:
   \   00005B   12....       LCALL   ?DEALLOC_XSTACK8
   1666          }
   \                     ??ZDO_ProcessMgmtPermitJoinReq_1:
   \   00005E   02....       LJMP    ?Subroutine211 & 0xFFFF
   1667          
   1668          /*
   1669           * This function stub allows the next higher layer to be notified of
   1670           * a permit joining timeout.
   1671           */
   1672          /*********************************************************************
   1673           * @fn          ZDO_ProcessMgmtPermitJoinTimeout
   1674           *
   1675           * @brief       This function stub allows the next higher layer to be
   1676           *              notified of a permit joining timeout. Currently, this
   1677           *              directly bypasses the APS layer.
   1678           *
   1679           * @param       none
   1680           *
   1681           * @return      none
   1682           */

   \                                 In  segment BANKED_CODE, align 1, keep-with-next
   1683          void ZDO_ProcessMgmtPermitJoinTimeout( void )
   \                     NLME_PermitJoiningTimeout:
   1684          {
   \   000000                ; Saved register size: 0
   \   000000                ; Auto size: 0
   1685            #if defined( ZDO_MGMT_PERMIT_JOIN_RESPONSE )
   1686            // Currently, only the ZDSecMgr needs to be notified
   1687            if ( ZG_SECURE_ENABLED && ZG_BUILD_COORDINATOR_TYPE && ZG_DEVICE_COORDINATOR_TYPE )
   1688            {
   1689              ZDSecMgrPermitJoiningTimeout();
   1690            }
   1691            #endif
   1692          }
   \   000000   02....       LJMP    ?BRET
   1693          
   1694          /*********************************************************************
   1695           * @fn          ZDO_ProcessUserDescReq
   1696           *
   1697           * @brief       This function finishes the processing of the User
   1698           *              Descriptor Request and generates the response.
   1699           *
   1700           * @param       inMsg - incoming message (request)
   1701           *
   1702           * @return      none
   1703           */

   \                                 In  segment BANKED_CODE, align 1, keep-with-next
   1704          void ZDO_ProcessUserDescReq( zdoIncomingMsg_t *inMsg )
   \                     ZDO_ProcessUserDescReq:
   1705          {
   \   000000   74F0         MOV     A,#-0x10
   \   000002   12....       LCALL   ?BANKED_ENTER_XDATA
   \   000005                ; Saved register size: 16
   \   000005                ; Auto size: 17
   \   000005   74EF         MOV     A,#-0x11
   \   000007   12....       LCALL   ?ALLOC_XSTACK8
   \   00000A   8A..         MOV     ?V0 + 0,R2
   \   00000C   8B..         MOV     ?V0 + 1,R3
   1706            uint16 aoi = BUILD_UINT16( inMsg->asdu[0], inMsg->asdu[1] );
   \   00000E   12....       LCALL   ?Subroutine65 & 0xFFFF
   1707            UserDescriptorFormat_t userDesc;
   1708          
   1709            if ( (aoi == ZDAppNwkAddr.addr.shortAddr) && (ZSUCCESS == osal_nv_read(
   1710                       ZCD_NV_USERDESC, 0, sizeof(UserDescriptorFormat_t), &userDesc )) )
   \                     ??CrossCallReturnLabel_125:
   \   000011   E5..         MOV     A,?V0 + 0
   \   000013   240F         ADD     A,#0xf
   \   000015   F5..         MOV     ?V0 + 6,A
   \   000017   EB           MOV     A,R3
   \   000018   3400         ADDC    A,#0x0
   \   00001A   F5..         MOV     ?V0 + 7,A
   \   00001C   E5..         MOV     A,?V0 + 0
   \   00001E   2402         ADD     A,#0x2
   \   000020   F5..         MOV     ?V0 + 2,A
   \   000022   EB           MOV     A,R3
   \   000023   12....       LCALL   ??Subroutine260_0 & 0xFFFF
   \                     ??CrossCallReturnLabel_575:
   \   000026   90....       MOV     DPTR,#ZDAppNwkAddr
   \   000029   E0           MOVX    A,@DPTR
   \   00002A   6E           XRL     A,R6
   \   00002B   7003         JNZ     ??ZDO_ProcessUserDescReq_0
   \   00002D   A3           INC     DPTR
   \   00002E   E0           MOVX    A,@DPTR
   \   00002F   6F           XRL     A,R7
   \                     ??ZDO_ProcessUserDescReq_0:
   \   000030   7061         JNZ     ??ZDO_ProcessUserDescReq_1
   \   000032                ; Setup parameters for call to function osal_nv_read
   \   000032   85..82       MOV     DPL,?XSP + 0
   \   000035   85..83       MOV     DPH,?XSP + 1
   \   000038   8582..       MOV     ?V0 + 4,DPL
   \   00003B   8583..       MOV     ?V0 + 5,DPH
   \   00003E   78..         MOV     R0,#?V0 + 4
   \   000040   12....       LCALL   ?PUSH_XSTACK_I_TWO
   \   000043   75..11       MOV     ?V0 + 4,#0x11
   \   000046   75..00       MOV     ?V0 + 5,#0x0
   \   000049   78..         MOV     R0,#?V0 + 4
   \   00004B   12....       LCALL   ?PUSH_XSTACK_I_TWO
   \   00004E   7C00         MOV     R4,#0x0
   \   000050   7D00         MOV     R5,#0x0
   \   000052   7A81         MOV     R2,#-0x7f
   \   000054   7B00         MOV     R3,#0x0
   \   000056   12....       LCALL   ??osal_nv_read?relay
   \   000059   7404         MOV     A,#0x4
   \   00005B   12....       LCALL   ?DEALLOC_XSTACK8
   \   00005E   E9           MOV     A,R1
   \   00005F   7032         JNZ     ??ZDO_ProcessUserDescReq_1
   1711            {
   1712              ZDP_UserDescRsp( inMsg->TransSeq, &(inMsg->srcAddr), aoi, &userDesc, false );
   \   000061                ; Setup parameters for call to function ZDP_UserDescRsp
   \   000061   75..00       MOV     ?V0 + 0,#0x0
   \   000064   78..         MOV     R0,#?V0 + 0
   \   000066   12....       LCALL   ?PUSH_XSTACK_I_ONE
   \   000069   7401         MOV     A,#0x1
   \   00006B   12....       LCALL   ?XSTACK_DISP0_8
   \   00006E   8582..       MOV     ?V0 + 0,DPL
   \   000071   8583..       MOV     ?V0 + 1,DPH
   \   000074   78..         MOV     R0,#?V0 + 0
   \   000076   12....       LCALL   ?PUSH_XSTACK_I_TWO
   \   000079   EE           MOV     A,R6
   \   00007A   FC           MOV     R4,A
   \   00007B   EF           MOV     A,R7
   \   00007C   FD           MOV     R5,A
   \   00007D   AA..         MOV     R2,?V0 + 2
   \   00007F   AB..         MOV     R3,?V0 + 3
   \   000081   85..82       MOV     DPL,?V0 + 6
   \   000084   85..83       MOV     DPH,?V0 + 7
   \   000087   E0           MOVX    A,@DPTR
   \   000088   F9           MOV     R1,A
   \   000089   12....       LCALL   ??ZDP_UserDescRsp?relay
   \   00008C   7403         MOV     A,#0x3
   \   00008E   12....       LCALL   ?DEALLOC_XSTACK8
   \   000091   8036         SJMP    ??ZDO_ProcessUserDescReq_2
   1713            }
   1714            else
   1715            {
   1716              ZDP_GenericRsp(inMsg->TransSeq, &(inMsg->srcAddr),
   1717                     ZDP_NOT_SUPPORTED, aoi, User_Desc_rsp, inMsg->SecurityUse );
   \                     ??ZDO_ProcessUserDescReq_1:
   \   000093                ; Setup parameters for call to function ZDP_GenericRsp
   \   000093   75..11       MOV     ?V0 + 4,#0x11
   \   000096   75..80       MOV     ?V0 + 5,#-0x80
   \   000099   78..         MOV     R0,#?V0 + 4
   \   00009B   12....       LCALL   ?PUSH_XSTACK_I_TWO
   \   00009E   8E..         MOV     ?V0 + 4,R6
   \   0000A0   8F..         MOV     ?V0 + 5,R7
   \   0000A2   78..         MOV     R0,#?V0 + 4
   \   0000A4   12....       LCALL   ?PUSH_XSTACK_I_TWO
   \   0000A7   E5..         MOV     A,?V0 + 0
   \   0000A9   240E         ADD     A,#0xe
   \   0000AB   F582         MOV     DPL,A
   \   0000AD   E5..         MOV     A,?V0 + 1
   \   0000AF   12....       LCALL   ??Subroutine242_0 & 0xFFFF
   1718            }
   \                     ??CrossCallReturnLabel_429:
   \   0000B2   FD           MOV     R5,A
   \   0000B3   7C84         MOV     R4,#-0x7c
   \   0000B5   AA..         MOV     R2,?V0 + 2
   \   0000B7   AB..         MOV     R3,?V0 + 3
   \   0000B9   85..82       MOV     DPL,?V0 + 6
   \   0000BC   85..83       MOV     DPH,?V0 + 7
   \   0000BF   E0           MOVX    A,@DPTR
   \   0000C0   F9           MOV     R1,A
   \   0000C1   12....       LCALL   ??ZDP_GenericRsp?relay
   \   0000C4   7404         MOV     A,#0x4
   \   0000C6   12....       LCALL   ?DEALLOC_XSTACK8
   1719          }
   \                     ??ZDO_ProcessUserDescReq_2:
   \   0000C9   7411         MOV     A,#0x11
   \   0000CB   02....       LJMP    ?Subroutine210 & 0xFFFF
   1720          
   1721          /*********************************************************************
   1722           * @fn          ZDO_ProcessUserDescSet
   1723           *
   1724           * @brief       This function finishes the processing of the User
   1725           *              Descriptor Set and generates the response.
   1726           *
   1727           * @param       inMsg - incoming message (request)
   1728           *
   1729           * @return      none
   1730           */

   \                                 In  segment BANKED_CODE, align 1, keep-with-next
   1731          void ZDO_ProcessUserDescSet( zdoIncomingMsg_t *inMsg )
   \                     ZDO_ProcessUserDescSet:
   1732          {
   \   000000   74F2         MOV     A,#-0xe
   \   000002   12....       LCALL   ?BANKED_ENTER_XDATA
   \   000005                ; Saved register size: 14
   \   000005                ; Auto size: 20
   \   000005   74EC         MOV     A,#-0x14
   \   000007   12....       LCALL   ?ALLOC_XSTACK8
   \   00000A   8A..         MOV     ?V0 + 4,R2
   \   00000C   8B..         MOV     ?V0 + 5,R3
   1733            uint8 *msg;
   1734            uint16 aoi;
   1735            UserDescriptorFormat_t userDesc;
   1736            uint8 outMsg[3];
   1737            uint8 status;
   1738          
   1739            msg = inMsg->asdu;
   \   00000E   EA           MOV     A,R2
   \   00000F   12....       LCALL   ??Subroutine259_0 & 0xFFFF
   \                     ??CrossCallReturnLabel_569:
   \   000012   EB           MOV     A,R3
   \   000013   12....       LCALL   ?Subroutine72 & 0xFFFF
   1740            aoi = BUILD_UINT16( msg[0], msg[1] );
   \                     ??CrossCallReturnLabel_130:
   \   000016   FE           MOV     R6,A
   \   000017   EB           MOV     A,R3
   \   000018   FF           MOV     R7,A
   1741          
   1742            if ( aoi == ZDAppNwkAddr.addr.shortAddr )
   \   000019   90....       MOV     DPTR,#ZDAppNwkAddr
   \   00001C   E0           MOVX    A,@DPTR
   \   00001D   6E           XRL     A,R6
   \   00001E   7003         JNZ     ??ZDO_ProcessUserDescSet_0
   \   000020   A3           INC     DPTR
   \   000021   E0           MOVX    A,@DPTR
   \   000022   6F           XRL     A,R7
   \                     ??ZDO_ProcessUserDescSet_0:
   \   000023   6003         JZ      $+5
   \   000025   02....       LJMP    ??ZDO_ProcessUserDescSet_1 & 0xFFFF
   1743            {
   1744              userDesc.len = (msg[2] < AF_MAX_USER_DESCRIPTOR_LEN) ? msg[2] : AF_MAX_USER_DESCRIPTOR_LEN;
   \   000028   8882         MOV     DPL,R0
   \   00002A   8983         MOV     DPH,R1
   \   00002C   A3           INC     DPTR
   \   00002D   A3           INC     DPTR
   \   00002E   E0           MOVX    A,@DPTR
   \   00002F   FA           MOV     R2,A
   \   000030   9410         SUBB    A,#0x10
   \   000032   5004         JNC     ??ZDO_ProcessUserDescSet_2
   \   000034   EA           MOV     A,R2
   \   000035   FB           MOV     R3,A
   \   000036   8002         SJMP    ??ZDO_ProcessUserDescSet_3
   \                     ??ZDO_ProcessUserDescSet_2:
   \   000038   7B10         MOV     R3,#0x10
   \                     ??ZDO_ProcessUserDescSet_3:
   \   00003A   7403         MOV     A,#0x3
   \   00003C   12....       LCALL   ?XSTACK_DISP0_8
   \   00003F   EB           MOV     A,R3
   \   000040   12....       LCALL   ?Subroutine44 & 0xFFFF
   1745              msg ++;  // increment one for the length field
   1746          
   1747              osal_memcpy( userDesc.desc, &msg[2], userDesc.len );
   \                     ??CrossCallReturnLabel_84:
   \   000043   A3           INC     DPTR
   \   000044   A3           INC     DPTR
   \   000045   A982         MOV     R1,DPL
   \   000047   AA83         MOV     R2,DPH
   \   000049   89..         MOV     ?V0 + 0,R1
   \   00004B   8A..         MOV     ?V0 + 1,R2
   \   00004D   75..00       MOV     ?V0 + 2,#0x0
   \   000050   78..         MOV     R0,#?V0 + 0
   \   000052   12....       LCALL   ?PUSH_XSTACK_I_THREE
   \   000055   7406         MOV     A,#0x6
   \   000057   12....       LCALL   ?XSTACK_DISP0_8
   \   00005A   E0           MOVX    A,@DPTR
   \   00005B   FC           MOV     R4,A
   \   00005C   7D00         MOV     R5,#0x0
   \   00005E   7407         MOV     A,#0x7
   \   000060   12....       LCALL   ?XSTACK_DISP0_8
   \   000063   AA82         MOV     R2,DPL
   \   000065   AB83         MOV     R3,DPH
   \   000067   12....       LCALL   ?Subroutine195 & 0xFFFF
   \                     ??CrossCallReturnLabel_517:
   \   00006A   12....       LCALL   ?DEALLOC_XSTACK8
   1748              osal_nv_write( ZCD_NV_USERDESC, 0, sizeof(UserDescriptorFormat_t), &userDesc );
   \   00006D                ; Setup parameters for call to function osal_nv_write
   \   00006D   7403         MOV     A,#0x3
   \   00006F   12....       LCALL   ?XSTACK_DISP0_8
   \   000072   8582..       MOV     ?V0 + 0,DPL
   \   000075   8583..       MOV     ?V0 + 1,DPH
   \   000078   78..         MOV     R0,#?V0 + 0
   \   00007A   12....       LCALL   ?PUSH_XSTACK_I_TWO
   \   00007D   75..11       MOV     ?V0 + 0,#0x11
   \   000080   75..00       MOV     ?V0 + 1,#0x0
   \   000083   78..         MOV     R0,#?V0 + 0
   \   000085   12....       LCALL   ?PUSH_XSTACK_I_TWO
   \   000088   7C00         MOV     R4,#0x0
   \   00008A   7D00         MOV     R5,#0x0
   \   00008C   7A81         MOV     R2,#-0x7f
   \   00008E   7B00         MOV     R3,#0x0
   \   000090   12....       LCALL   ??osal_nv_write?relay
   \   000093   7404         MOV     A,#0x4
   \   000095   12....       LCALL   ?DEALLOC_XSTACK8
   1749              if ( userDesc.len != 0 )
   \   000098   7403         MOV     A,#0x3
   \   00009A   12....       LCALL   ?XSTACK_DISP0_8
   \   00009D   E0           MOVX    A,@DPTR
   \   00009E   90....       MOV     DPTR,#ZDO_Config_Node_Descriptor
   \   0000A1   6005         JZ      ??ZDO_ProcessUserDescSet_4
   1750              {
   1751                ZDO_Config_Node_Descriptor.UserDescAvail = TRUE;
   \   0000A3   E0           MOVX    A,@DPTR
   \   0000A4   D2E4         SETB    0xE0 /* A   */.4
   \   0000A6   8003         SJMP    ??ZDO_ProcessUserDescSet_5
   1752              }
   1753              else
   1754              {
   1755                ZDO_Config_Node_Descriptor.UserDescAvail = FALSE;
   \                     ??ZDO_ProcessUserDescSet_4:
   \   0000A8   E0           MOVX    A,@DPTR
   \   0000A9   C2E4         CLR     0xE0 /* A   */.4
   \                     ??ZDO_ProcessUserDescSet_5:
   \   0000AB   F0           MOVX    @DPTR,A
   1756              }
   1757          
   1758              status = ZDP_SUCCESS;
   \   0000AC   7A00         MOV     R2,#0x0
   \   0000AE   8002         SJMP    ??ZDO_ProcessUserDescSet_6
   1759            }
   1760            else
   1761            {
   1762              status =  ZDP_NOT_SUPPORTED;
   \                     ??ZDO_ProcessUserDescSet_1:
   \   0000B0   7A84         MOV     R2,#-0x7c
   1763            }
   1764          
   1765            outMsg[0] = status;
   \                     ??ZDO_ProcessUserDescSet_6:
   \   0000B2   EA           MOV     A,R2
   \   0000B3   85..82       MOV     DPL,?XSP + 0
   \   0000B6   85..83       MOV     DPH,?XSP + 1
   \   0000B9   F0           MOVX    @DPTR,A
   1766            outMsg[1] = LO_UINT16( aoi );
   \   0000BA   7401         MOV     A,#0x1
   \   0000BC   12....       LCALL   ?XSTACK_DISP0_8
   \   0000BF   EE           MOV     A,R6
   \   0000C0   F0           MOVX    @DPTR,A
   1767            outMsg[2] = LO_UINT16( aoi );
   \   0000C1   7402         MOV     A,#0x2
   \   0000C3   12....       LCALL   ?XSTACK_DISP0_8
   \   0000C6   EE           MOV     A,R6
   \   0000C7   F0           MOVX    @DPTR,A
   1768          
   1769            ZDP_SendData( &(inMsg->TransSeq), &(inMsg->srcAddr), User_Desc_conf, 3, outMsg,
   1770                         inMsg->SecurityUse );
   \   0000C8                ; Setup parameters for call to function ZDP_SendData
   \   0000C8   E5..         MOV     A,?V0 + 4
   \   0000CA   240E         ADD     A,#0xe
   \   0000CC   F582         MOV     DPL,A
   \   0000CE   E5..         MOV     A,?V0 + 5
   \   0000D0   12....       LCALL   ??Subroutine256_0 & 0xFFFF
   \                     ??CrossCallReturnLabel_528:
   \   0000D3   12....       LCALL   ?Subroutine193 & 0xFFFF
   \                     ??CrossCallReturnLabel_368:
   \   0000D6   12....       LCALL   ?PUSH_XSTACK_I_ONE
   \   0000D9   7401         MOV     A,#0x1
   \   0000DB   12....       LCALL   ?XSTACK_DISP0_8
   \   0000DE   8582..       MOV     ?V0 + 0,DPL
   \   0000E1   8583..       MOV     ?V0 + 1,DPH
   \   0000E4   78..         MOV     R0,#?V0 + 0
   \   0000E6   12....       LCALL   ?PUSH_XSTACK_I_TWO
   \   0000E9   75..14       MOV     ?V0 + 0,#0x14
   \   0000EC   75..80       MOV     ?V0 + 1,#-0x80
   \   0000EF   78..         MOV     R0,#?V0 + 0
   \   0000F1   12....       LCALL   ?PUSH_XSTACK_I_TWO
   \   0000F4   7903         MOV     R1,#0x3
   \   0000F6   12....       LCALL   ?Subroutine129 & 0xFFFF
   \                     ??CrossCallReturnLabel_189:
   \   0000F9   FA           MOV     R2,A
   \   0000FA   E5..         MOV     A,?V0 + 5
   \   0000FC   12....       LCALL   ??Subroutine232_0 & 0xFFFF
   \                     ??CrossCallReturnLabel_358:
   \   0000FF   12....       LCALL   ?DEALLOC_XSTACK8
   1771          }
   \   000102   7414         MOV     A,#0x14
   \   000104   02....       LJMP    ??Subroutine234_0 & 0xFFFF

   \                                 In  segment BANKED_CODE, align 1, keep-with-next
   \                     ?Subroutine44:
   \   000000   12....       LCALL   ?Subroutine144 & 0xFFFF
   \                     ??CrossCallReturnLabel_489:
   \   000003   22           RET

   \                                 In  segment BANKED_CODE, align 1, keep-with-next
   \                     ?Subroutine144:
   \   000000   F0           MOVX    @DPTR,A
   \   000001                ; Setup parameters for call to function osal_memcpy
   \   000001   8882         MOV     DPL,R0
   \   000003   8983         MOV     DPH,R1
   \   000005   A3           INC     DPTR
   \   000006   22           RET
   1772          
   1773          /*********************************************************************
   1774           * @fn          ZDO_ProcessDeviceAnnce
   1775           *
   1776           * @brief       This function processes a device annouce message.
   1777           *
   1778           * @param       inMsg - incoming message
   1779           *
   1780           * @return      none
   1781           */

   \                                 In  segment BANKED_CODE, align 1, keep-with-next
   1782          void ZDO_ProcessDeviceAnnce( zdoIncomingMsg_t *inMsg )
   \                     ZDO_ProcessDeviceAnnce:
   1783          {
   \   000000   74F6         MOV     A,#-0xa
   \   000002   12....       LCALL   ?BANKED_ENTER_XDATA
   \   000005                ; Saved register size: 10
   \   000005                ; Auto size: 32
   \   000005   74E0         MOV     A,#-0x20
   \   000007   12....       LCALL   ?ALLOC_XSTACK8
   1784            ZDO_DeviceAnnce_t Annce;
   1785            AddrMgrEntry_t addrEntry;
   1786            uint8 parentExt[Z_EXTADDR_LEN];
   1787          
   1788            // Parse incoming message
   1789            ZDO_ParseDeviceAnnce( inMsg, &Annce );
   \   00000A                ; Setup parameters for call to function ZDO_ParseDeviceAnnce
   \   00000A   740D         MOV     A,#0xd
   \   00000C   12....       LCALL   ?XSTACK_DISP0_8
   \   00000F   AC82         MOV     R4,DPL
   \   000011   AD83         MOV     R5,DPH
   \   000013   12....       LCALL   ??ZDO_ParseDeviceAnnce?relay
   1790          
   1791            if ( ZSTACK_END_DEVICE_BUILD )
   1792            {
   1793              // Make sure the message didn't come from myself - end device only
   1794              if ( osal_ExtAddrEqual( NLME_GetExtAddr(), Annce.extAddr ) && Annce.nwkAddr == NLME_GetShortAddr() )
   \   000016                ; Setup parameters for call to function sAddrExtCmp
   \   000016   740F         MOV     A,#0xf
   \   000018   12....       LCALL   ?XSTACK_DISP0_8
   \   00001B   AE82         MOV     R6,DPL
   \   00001D   AF83         MOV     R7,DPH
   \   00001F                ; Setup parameters for call to function NLME_GetExtAddr
   \   00001F   12....       LCALL   ??NLME_GetExtAddr?relay
   \   000022   EE           MOV     A,R6
   \   000023   FC           MOV     R4,A
   \   000024   EF           MOV     A,R7
   \   000025   FD           MOV     R5,A
   \   000026   12....       LCALL   ??sAddrExtCmp?relay
   \   000029   E9           MOV     A,R1
   \   00002A   6019         JZ      ??ZDO_ProcessDeviceAnnce_0
   \   00002C                ; Setup parameters for call to function NLME_GetShortAddr
   \   00002C   12....       LCALL   ??NLME_GetShortAddr?relay
   \   00002F   8A..         MOV     ?V0 + 0,R2
   \   000031   8B..         MOV     ?V0 + 1,R3
   \   000033   A8..         MOV     R0,?V0 + 0
   \   000035   A9..         MOV     R1,?V0 + 1
   \   000037   740D         MOV     A,#0xd
   \   000039   12....       LCALL   ?XSTACK_DISP0_8
   \   00003C   E0           MOVX    A,@DPTR
   \   00003D   68           XRL     A,R0
   \   00003E   7003         JNZ     ??ZDO_ProcessDeviceAnnce_1
   \   000040   A3           INC     DPTR
   \   000041   E0           MOVX    A,@DPTR
   \   000042   69           XRL     A,R1
   \                     ??ZDO_ProcessDeviceAnnce_1:
   \   000043   605B         JZ      ??CrossCallReturnLabel_195
   1795              {
   1796                return;
   1797              }
   1798            }
   1799          
   1800          #if defined ( ZIGBEE_STOCHASTIC_ADDRESSING )
   1801            // Clean up the neighbor table
   1802            nwkNeighborRemoveAllStranded();
   1803          
   1804            // If address conflict is detected, no need to update the address manager
   1805            if ( NLME_CheckNewAddrSet( Annce.nwkAddr, Annce.extAddr )== ZFailure )
   1806            {
   1807              return;
   1808            }
   1809          #endif
   1810          
   1811          #if defined ( ZIGBEE_STOCHASTIC_ADDRESSING )
   1812            // Check for parent's address
   1813            NLME_GetCoordExtAddr( parentExt );
   1814            if ( osal_ExtAddrEqual( parentExt, Annce.extAddr ) )
   1815            {
   1816              if ( Annce.nwkAddr != NLME_GetCoordShortAddr() )
   1817              {
   1818                // Set the Parent's MAC's new short address
   1819                _NIB.nwkCoordAddress = Annce.nwkAddr;
   1820                ZMacSetReq( ZMacCoordShortAddress, (byte*)&(_NIB.nwkCoordAddress) );
   1821              }
   1822            }
   1823          
   1824            if ( ZSTACK_ROUTER_BUILD )
   1825            {
   1826              // If the device annce comes from a end device child that has moved
   1827              // to another parent, remove it from associated device list
   1828          
   1829              // If the dev annce is coming from other device's children,
   1830              // (The dev annce from its own children shall be unicast to itself,
   1831              // So check the mac destination address)
   1832              // Remove it from the associated device list. If it is not
   1833              // a child, no action will be taken in AssocRemove() anyway.
   1834              if ( inMsg->macDestAddr != NLME_GetShortAddr() )
   1835              {
   1836                associated_devices_t *dev_ptr;
   1837          
   1838                // If it's an end device child
   1839                dev_ptr = AssocGetWithExt( Annce.extAddr );
   1840                if ( dev_ptr )
   1841                {
   1842                  if ( dev_ptr->nodeRelation == CHILD_RFD ||
   1843                       dev_ptr->nodeRelation == CHILD_RFD_RX_IDLE )
   1844                  {
   1845                    AssocRemove( Annce.extAddr );
   1846                  }
   1847                }
   1848              }
   1849          
   1850              if ( Annce.nwkAddr != NLME_GetShortAddr() )
   1851              {
   1852                // If an associated device is found with matched extended Address,
   1853                // update its short address
   1854                if ( AssocChangeNwkAddr( Annce.nwkAddr, Annce.extAddr ) )
   1855                {
   1856                  // Update the neighbor table
   1857                  nwkNeighborUpdateNwkAddr( Annce.nwkAddr, Annce.extAddr );
   1858          
   1859                  // Set event to save NV
   1860                  ZDApp_NVUpdate();
   1861                }
   1862              }
   1863            }
   1864          #endif // ZIGBEE_STOCHASTIC_ADDRESSING
   1865          
   1866          
   1867            // Fill in the extended address in address manager if we don't have it already.
   1868            addrEntry.user = ADDRMGR_USER_DEFAULT;
   \                     ??ZDO_ProcessDeviceAnnce_0:
   \   000045   E4           CLR     A
   \   000046   85..82       MOV     DPL,?XSP + 0
   \   000049   85..83       MOV     DPH,?XSP + 1
   \   00004C   F0           MOVX    @DPTR,A
   1869            addrEntry.nwkAddr = Annce.nwkAddr;
   \   00004D   740D         MOV     A,#0xd
   \   00004F   12....       LCALL   ?XSTACK_DISP0_8
   \   000052   12....       LCALL   ??Subroutine246_0 & 0xFFFF
   \                     ??CrossCallReturnLabel_449:
   \   000055   12....       LCALL   ?XSTACK_DISP0_8
   \   000058   E8           MOV     A,R0
   \   000059   F0           MOVX    @DPTR,A
   \   00005A   A3           INC     DPTR
   \   00005B   E9           MOV     A,R1
   \   00005C   12....       LCALL   ?Subroutine16 & 0xFFFF
   1870            if ( AddrMgrEntryLookupNwk( &addrEntry ) )
   \                     ??CrossCallReturnLabel_254:
   \   00005F   12....       LCALL   ??AddrMgrEntryLookupNwk?relay
   \   000062   E9           MOV     A,R1
   \   000063   603B         JZ      ??CrossCallReturnLabel_195
   1871            {
   1872              osal_memset( parentExt, 0, Z_EXTADDR_LEN );
   \   000065                ; Setup parameters for call to function osal_memset
   \   000065   7C08         MOV     R4,#0x8
   \   000067   7D00         MOV     R5,#0x0
   \   000069   7900         MOV     R1,#0x0
   \   00006B   7418         MOV     A,#0x18
   \   00006D   12....       LCALL   ?XSTACK_DISP0_8
   \   000070   AA82         MOV     R2,DPL
   \   000072   AB83         MOV     R3,DPH
   \   000074   12....       LCALL   ??osal_memset?relay
   1873              if ( osal_ExtAddrEqual( parentExt, addrEntry.extAddr ) )
   \   000077                ; Setup parameters for call to function sAddrExtCmp
   \   000077   7403         MOV     A,#0x3
   \   000079   12....       LCALL   ?XSTACK_DISP0_8
   \   00007C   AC82         MOV     R4,DPL
   \   00007E   AD83         MOV     R5,DPH
   \   000080   7418         MOV     A,#0x18
   \   000082   12....       LCALL   ?XSTACK_DISP0_8
   \   000085   AA82         MOV     R2,DPL
   \   000087   AB83         MOV     R3,DPH
   \   000089   12....       LCALL   ??sAddrExtCmp?relay
   \   00008C   E9           MOV     A,R1
   \   00008D   6011         JZ      ??CrossCallReturnLabel_195
   1874              {
   1875                AddrMgrExtAddrSet( addrEntry.extAddr, Annce.extAddr );
   \   00008F                ; Setup parameters for call to function AddrMgrExtAddrSet
   \   00008F   740F         MOV     A,#0xf
   \   000091   12....       LCALL   ?XSTACK_DISP0_8
   \   000094   AC82         MOV     R4,DPL
   \   000096   AD83         MOV     R5,DPH
   \   000098   7403         MOV     A,#0x3
   \   00009A   12....       LCALL   ?XSTACK_DISP0_8
   \   00009D   12....       LCALL   ?Subroutine133 & 0xFFFF
   1876                AddrMgrEntryUpdate( &addrEntry );
   1877              }
   1878            }
   \                     ??CrossCallReturnLabel_195:
   \   0000A0   7420         MOV     A,#0x20
   \   0000A2   02....       LJMP    ??Subroutine218_0 & 0xFFFF
   1879          }

   \                                 In  segment BANKED_CODE, align 1, keep-with-next
   \                     ??Subroutine246_0:
   \   000000   12....       LCALL   ?Subroutine184 & 0xFFFF
   \                     ??CrossCallReturnLabel_461:
   \   000003   7401         MOV     A,#0x1
   \   000005   22           RET
   1880          
   1881          /*********************************************************************
   1882           * @fn          ZDO_BuildSimpleDescBuf
   1883           *
   1884           * @brief       Build a byte sequence representation of a Simple Descriptor.
   1885           *
   1886           * @param       buf  - pointer to a byte array big enough for data.
   1887           * @param       desc - SimpleDescriptionFormat_t *
   1888           *
   1889           * @return      none
   1890           */

   \                                 In  segment BANKED_CODE, align 1, keep-with-next
   1891          void ZDO_BuildSimpleDescBuf( uint8 *buf, SimpleDescriptionFormat_t *desc )
   \                     ZDO_BuildSimpleDescBuf:
   1892          {
   \   000000   74F2         MOV     A,#-0xe
   \   000002   12....       LCALL   ?BANKED_ENTER_XDATA
   \   000005                ; Saved register size: 14
   \   000005                ; Auto size: 0
   1893            byte cnt;
   1894            uint16 *ptr;
   1895          
   1896            *buf++ = desc->EndPoint;
   \   000005   8C82         MOV     DPL,R4
   \   000007   8D83         MOV     DPH,R5
   \   000009   12....       LCALL   ?Subroutine91 & 0xFFFF
   1897            *buf++ = HI_UINT16( desc->AppProfId );
   \                     ??CrossCallReturnLabel_255:
   \   00000C   8C82         MOV     DPL,R4
   \   00000E   8D83         MOV     DPH,R5
   \   000010   A3           INC     DPTR
   \   000011   A882         MOV     R0,DPL
   \   000013   A983         MOV     R1,DPH
   \   000015   12....       LCALL   ?Subroutine15 & 0xFFFF
   1898            *buf++ = LO_UINT16( desc->AppProfId );
   1899            *buf++ = HI_UINT16( desc->AppDeviceId );
   \                     ??CrossCallReturnLabel_20:
   \   000018   EC           MOV     A,R4
   \   000019   2403         ADD     A,#0x3
   \   00001B   F8           MOV     R0,A
   \   00001C   ED           MOV     A,R5
   \   00001D   12....       LCALL   ?Subroutine182 & 0xFFFF
   \                     ??CrossCallReturnLabel_405:
   \   000020   12....       LCALL   ?Subroutine15 & 0xFFFF
   1900            *buf++ = LO_UINT16( desc->AppDeviceId );
   1901          
   1902            *buf++ = (byte)(desc->AppDevVer << 4);
   \                     ??CrossCallReturnLabel_21:
   \   000023   8C82         MOV     DPL,R4
   \   000025   8D83         MOV     DPH,R5
   \   000027   A3           INC     DPTR
   \   000028   A3           INC     DPTR
   \   000029   A3           INC     DPTR
   \   00002A   A3           INC     DPTR
   \   00002B   A3           INC     DPTR
   \   00002C   E0           MOVX    A,@DPTR
   \   00002D   C4           SWAP    A
   \   00002E   54F0         ANL     A,#0xf0
   \   000030   12....       LCALL   ??Subroutine236_0 & 0xFFFF
   1903          
   1904            *buf++ = desc->AppNumInClusters;
   \                     ??CrossCallReturnLabel_375:
   \   000033   EC           MOV     A,R4
   \   000034   2406         ADD     A,#0x6
   \   000036   12....       LCALL   ?Subroutine126 & 0xFFFF
   \                     ??CrossCallReturnLabel_184:
   \   000039   12....       LCALL   ?Subroutine141 & 0xFFFF
   1905            ptr = desc->pAppInClusterList;
   \                     ??CrossCallReturnLabel_376:
   \   00003C   8C82         MOV     DPL,R4
   \   00003E   8D83         MOV     DPH,R5
   \   000040   12....       LCALL   ?Subroutine107 & 0xFFFF
   1906            for ( cnt = 0; cnt < desc->AppNumInClusters; ptr++, cnt++ )
   \                     ??CrossCallReturnLabel_170:
   \   000043   800B         SJMP    ??CrossCallReturnLabel_27
   1907            {
   1908              *buf++ = HI_UINT16( *ptr );
   \                     ??ZDO_BuildSimpleDescBuf_0:
   \   000045   8E82         MOV     DPL,R6
   \   000047   8F83         MOV     DPH,R7
   \   000049   A3           INC     DPTR
   \   00004A   12....       LCALL   ?Subroutine94 & 0xFFFF
   1909              *buf++ = LO_UINT16( *ptr );
   \                     ??CrossCallReturnLabel_154:
   \   00004D   12....       LCALL   ?Subroutine21 & 0xFFFF
   1910            }
   \                     ??CrossCallReturnLabel_27:
   \   000050   8A82         MOV     DPL,R2
   \   000052   8B83         MOV     DPH,R3
   \   000054   A3           INC     DPTR
   \   000055   A882         MOV     R0,DPL
   \   000057   A983         MOV     R1,DPH
   \   000059   85..82       MOV     DPL,?V0 + 0
   \   00005C   85..83       MOV     DPH,?V0 + 1
   \   00005F   E0           MOVX    A,@DPTR
   \   000060   F5..         MOV     ?V0 + 3,A
   \   000062   E5..         MOV     A,?V0 + 2
   \   000064   C3           CLR     C
   \   000065   95..         SUBB    A,?V0 + 3
   \   000067   40DC         JC      ??ZDO_BuildSimpleDescBuf_0
   1911          
   1912            *buf++ = desc->AppNumOutClusters;
   \   000069   EC           MOV     A,R4
   \   00006A   2409         ADD     A,#0x9
   \   00006C   12....       LCALL   ?Subroutine126 & 0xFFFF
   \                     ??CrossCallReturnLabel_185:
   \   00006F   12....       LCALL   ?Subroutine94 & 0xFFFF
   1913            ptr = desc->pAppOutClusterList;
   \                     ??CrossCallReturnLabel_155:
   \   000072   8C82         MOV     DPL,R4
   \   000074   8D83         MOV     DPH,R5
   \   000076   A3           INC     DPTR
   \   000077   A3           INC     DPTR
   \   000078   A3           INC     DPTR
   \   000079   12....       LCALL   ?Subroutine107 & 0xFFFF
   1914            for ( cnt = 0; cnt < desc->AppNumOutClusters; ptr++, cnt++ )
   \                     ??CrossCallReturnLabel_171:
   \   00007C   800B         SJMP    ??CrossCallReturnLabel_28
   1915            {
   1916              *buf++ = HI_UINT16( *ptr );
   \                     ??ZDO_BuildSimpleDescBuf_1:
   \   00007E   8E82         MOV     DPL,R6
   \   000080   8F83         MOV     DPH,R7
   \   000082   A3           INC     DPTR
   \   000083   12....       LCALL   ?Subroutine91 & 0xFFFF
   1917              *buf++ = LO_UINT16( *ptr );
   \                     ??CrossCallReturnLabel_256:
   \   000086   12....       LCALL   ?Subroutine21 & 0xFFFF
   1918            }
   \                     ??CrossCallReturnLabel_28:
   \   000089   85..82       MOV     DPL,?V0 + 0
   \   00008C   85..83       MOV     DPH,?V0 + 1
   \   00008F   E0           MOVX    A,@DPTR
   \   000090   FC           MOV     R4,A
   \   000091   E5..         MOV     A,?V0 + 2
   \   000093   C3           CLR     C
   \   000094   9C           SUBB    A,R4
   \   000095   40E7         JC      ??ZDO_BuildSimpleDescBuf_1
   1919          }
   \   000097   80..         SJMP    ??Subroutine235_0

   \                                 In  segment BANKED_CODE, align 1, keep-with-next
   \                     ?Subroutine126:
   \   000000   F5..         MOV     ?V0 + 0,A
   \   000002   ED           MOV     A,R5
   \   000003   3400         ADDC    A,#0x0
   \   000005   F5..         MOV     ?V0 + 1,A
   \   000007   85..82       MOV     DPL,?V0 + 0
   \   00000A   F583         MOV     DPH,A
   \   00000C   22           RET

   \                                 In  segment BANKED_CODE, align 1, keep-with-next
   \                     ?Subroutine107:
   \   000000   A3           INC     DPTR
   \   000001   A3           INC     DPTR
   \   000002   A3           INC     DPTR
   \   000003   A3           INC     DPTR
   \   000004   A3           INC     DPTR
   \   000005   A3           INC     DPTR
   \   000006   A3           INC     DPTR
   \   000007   12....       LCALL   ??Subroutine247_0 & 0xFFFF
   \                     ??CrossCallReturnLabel_462:
   \   00000A   75..00       MOV     ?V0 + 2,#0x0
   \   00000D   22           RET

   \                                 In  segment BANKED_CODE, align 1, keep-with-next
   \                     ?Subroutine94:
   \   000000   12....       LCALL   ?Subroutine162 & 0xFFFF
   \                     ??CrossCallReturnLabel_223:
   \   000003   E8           MOV     A,R0
   \   000004   FA           MOV     R2,A
   \   000005   E9           MOV     A,R1
   \   000006   FB           MOV     R3,A
   \   000007   22           RET

   \                                 In  segment BANKED_CODE, align 1, keep-with-next
   \                     ?Subroutine91:
   \   000000   12....       LCALL   ?Subroutine162 & 0xFFFF
   \                     ??CrossCallReturnLabel_222:
   \   000003   A3           INC     DPTR
   \   000004   02....       LJMP    ?Subroutine200 & 0xFFFF

   \                                 In  segment BANKED_CODE, align 1, keep-with-next
   \                     ?Subroutine162:
   \   000000   E0           MOVX    A,@DPTR
   \   000001   8A82         MOV     DPL,R2
   \   000003   8B83         MOV     DPH,R3
   \   000005   F0           MOVX    @DPTR,A
   \   000006   22           RET

   \                                 In  segment BANKED_CODE, align 1, keep-with-next
   \                     ?Subroutine21:
   \   000000   8E82         MOV     DPL,R6
   \   000002   8F83         MOV     DPH,R7
   \   000004   12....       LCALL   ?Subroutine141 & 0xFFFF
   \                     ??CrossCallReturnLabel_379:
   \   000007   12....       LCALL   ?Subroutine172 & 0xFFFF
   \                     ??CrossCallReturnLabel_234:
   \   00000A   05..         INC     ?V0 + 2
   \   00000C   22           RET

   \                                 In  segment BANKED_CODE, align 1, keep-with-next
   \                     ?Subroutine15:
   \   000000   A3           INC     DPTR
   \   000001   12....       LCALL   ?Subroutine141 & 0xFFFF
   \                     ??CrossCallReturnLabel_377:
   \   000004   8882         MOV     DPL,R0
   \   000006   8983         MOV     DPH,R1
   \   000008   12....       LCALL   ?Subroutine141 & 0xFFFF
   \                     ??CrossCallReturnLabel_378:
   \   00000B   22           RET

   \                                 In  segment BANKED_CODE, align 1, keep-with-next
   \                     ?Subroutine141:
   \   000000   E0           MOVX    A,@DPTR
   \   000001                REQUIRE ??Subroutine236_0
   \   000001                ; // Fall through to label ??Subroutine236_0

   \                                 In  segment BANKED_CODE, align 1, keep-with-next
   \                     ??Subroutine236_0:
   \   000000   8A82         MOV     DPL,R2
   \   000002   8B83         MOV     DPH,R3
   \   000004   F0           MOVX    @DPTR,A
   \   000005   A3           INC     DPTR
   \   000006   0A           INC     R2
   \   000007   AB83         MOV     R3,DPH
   \   000009   22           RET

   \                                 In  segment BANKED_CODE, align 1, keep-with-next
   \                     ?Subroutine172:
   \   000000   12....       LCALL   ?Subroutine185 & 0xFFFF
   \                     ??CrossCallReturnLabel_595:
   \   000003   22           RET

   \                                 In  segment BANKED_CODE, align 1, keep-with-next
   \                     ?Subroutine185:
   \   000000   EE           MOV     A,R6
   \   000001   2402         ADD     A,#0x2
   \   000003   0E           INC     R6
   \   000004   0E           INC     R6
   \   000005   EF           MOV     A,R7
   \   000006   3400         ADDC    A,#0x0
   \   000008   FF           MOV     R7,A
   \   000009   22           RET
   1920          
   1921          /*********************************************************************
   1922           * @fn      ZDO_MatchEndDeviceBind()
   1923           *
   1924           * @brief
   1925           *
   1926           *   Called to match end device binding requests
   1927           *
   1928           * @param  bindReq  - binding request information
   1929           * @param  SecurityUse - Security enable/disable
   1930           *
   1931           * @return  none
   1932           */

   \                                 In  segment BANKED_CODE, align 1, keep-with-next
   1933          void ZDO_MatchEndDeviceBind( ZDEndDeviceBind_t *bindReq )
   \                     ZDO_MatchEndDeviceBind:
   1934          {
   \   000000   74F0         MOV     A,#-0x10
   \   000002   12....       LCALL   ?BANKED_ENTER_XDATA
   \   000005                ; Saved register size: 16
   \   000005                ; Auto size: 10
   \   000005   74F6         MOV     A,#-0xa
   \   000007   12....       LCALL   ?ALLOC_XSTACK8
   \   00000A   8A..         MOV     ?V0 + 6,R2
   \   00000C   8B..         MOV     ?V0 + 7,R3
   1935            zAddrType_t dstAddr;
   1936            uint8 sendRsp = FALSE;
   \   00000E   7E00         MOV     R6,#0x0
   1937            uint8 status;
   1938          
   1939            // Is this the first request?
   1940            if ( matchED == NULL )
   \   000010   90....       MOV     DPTR,#matchED
   \   000013   E0           MOVX    A,@DPTR
   \   000014   7002         JNZ     ??ZDO_MatchEndDeviceBind_0
   \   000016   A3           INC     DPTR
   \   000017   E0           MOVX    A,@DPTR
   \                     ??ZDO_MatchEndDeviceBind_0:
   \   000018   7041         JNZ     ??ZDO_MatchEndDeviceBind_1
   1941            {
   1942              // Create match info structure
   1943              matchED = (ZDMatchEndDeviceBind_t *)osal_mem_alloc( sizeof ( ZDMatchEndDeviceBind_t ) );
   \   00001A                ; Setup parameters for call to function osal_mem_alloc
   \   00001A   7A37         MOV     R2,#0x37
   \   00001C   7B00         MOV     R3,#0x0
   \   00001E   12....       LCALL   ??osal_mem_alloc?relay
   \   000021   90....       MOV     DPTR,#matchED
   \   000024   EA           MOV     A,R2
   \   000025   F0           MOVX    @DPTR,A
   \   000026   A3           INC     DPTR
   \   000027   EB           MOV     A,R3
   \   000028   12....       LCALL   ?Subroutine27 & 0xFFFF
   1944              if ( matchED )
   \                     ??CrossCallReturnLabel_257:
   \   00002B   7002         JNZ     ??ZDO_MatchEndDeviceBind_2
   \   00002D   A3           INC     DPTR
   \   00002E   E0           MOVX    A,@DPTR
   \                     ??ZDO_MatchEndDeviceBind_2:
   \   00002F   6019         JZ      ??ZDO_MatchEndDeviceBind_3
   1945              {
   1946                // Clear the structure
   1947                osal_memset( (uint8 *)matchED, 0, sizeof ( ZDMatchEndDeviceBind_t ) );
   \   000031                ; Setup parameters for call to function osal_memset
   \   000031   7C37         MOV     R4,#0x37
   \   000033   7D00         MOV     R5,#0x0
   \   000035   7900         MOV     R1,#0x0
   \   000037   12....       LCALL   ??osal_memset?relay
   1948          
   1949                // Copy the first request's information
   1950                if ( !ZDO_CopyMatchInfo( &(matchED->ed1), bindReq ) )
   \   00003A                ; Setup parameters for call to function ZDO_CopyMatchInfo
   \   00003A   AC..         MOV     R4,?V0 + 6
   \   00003C   AD..         MOV     R5,?V0 + 7
   \   00003E   90....       MOV     DPTR,#matchED
   \   000041   12....       LCALL   ??Subroutine237_0 & 0xFFFF
   \                     ??CrossCallReturnLabel_385:
   \   000044   12....       LCALL   ??ZDO_CopyMatchInfo?relay
   \   000047   E9           MOV     A,R1
   \   000048   7005         JNZ     ??ZDO_MatchEndDeviceBind_4
   1951                {
   1952          
   1953                  status = ZDP_NO_ENTRY;
   \                     ??ZDO_MatchEndDeviceBind_3:
   \   00004A   7488         MOV     A,#-0x78
   \   00004C   02....       LJMP    ??ZDO_MatchEndDeviceBind_5 & 0xFFFF
   1954                  sendRsp = TRUE;
   1955                }
   1956              }
   1957              else
   1958              {
   1959                status = ZDP_NO_ENTRY;
   1960                sendRsp = TRUE;
   1961              }
   1962          
   1963              if ( !sendRsp )
   1964              {
   1965                // Set into the correct state
   1966                matchED->state = ZDMATCH_WAIT_REQ;
   \                     ??ZDO_MatchEndDeviceBind_4:
   \   00004F   12....       LCALL   ?Subroutine85 & 0xFFFF
   \                     ??CrossCallReturnLabel_398:
   \   000052   7401         MOV     A,#0x1
   \   000054   F0           MOVX    @DPTR,A
   1967          
   1968                // Setup the timeout
   1969                APS_SetEndDeviceBindTimeout( AIB_MaxBindingTime, ZDO_EndDeviceBindMatchTimeoutCB );
   \   000055                ; Setup parameters for call to function APS_SetEndDeviceBindTimeout
   \   000055   12....       LCALL   ?Subroutine96 & 0xFFFF
   1970              }
   1971            }
   \                     ??CrossCallReturnLabel_156:
   \   000058   02....       LJMP    ??ZDO_MatchEndDeviceBind_6 & 0xFFFF
   1972            else
   1973            {
   1974                matchED->state = ZDMATCH_SENDING_BINDS;
   \                     ??ZDO_MatchEndDeviceBind_1:
   \   00005B   12....       LCALL   ?Subroutine85 & 0xFFFF
   \                     ??CrossCallReturnLabel_399:
   \   00005E   7402         MOV     A,#0x2
   \   000060   F0           MOVX    @DPTR,A
   1975          
   1976                // Copy the 2nd request's information
   1977                if ( !ZDO_CopyMatchInfo( &(matchED->ed2), bindReq ) )
   \   000061                ; Setup parameters for call to function ZDO_CopyMatchInfo
   \   000061   AC..         MOV     R4,?V0 + 6
   \   000063   AD..         MOV     R5,?V0 + 7
   \   000065   12....       LCALL   ?Subroutine105 & 0xFFFF
   \                     ??CrossCallReturnLabel_240:
   \   000068   12....       LCALL   ??ZDO_CopyMatchInfo?relay
   \   00006B   E9           MOV     A,R1
   \   00006C   700A         JNZ     ??ZDO_MatchEndDeviceBind_7
   1978                {
   1979                  status = ZDP_NO_ENTRY;
   \   00006E   7488         MOV     A,#-0x78
   \   000070   85..82       MOV     DPL,?XSP + 0
   \   000073   85..83       MOV     DPH,?XSP + 1
   \   000076   F0           MOVX    @DPTR,A
   1980                  sendRsp = TRUE;
   \   000077   0E           INC     R6
   1981                }
   1982          
   1983                // Make a source match for ed1
   1984                matchED->ed1numMatched = ZDO_CompareClusterLists(
   1985                            matchED->ed1.numOutClusters, matchED->ed1.outClusters,
   1986                            matchED->ed2.numInClusters, matchED->ed2.inClusters, ZDOBuildBuf );
   \                     ??ZDO_MatchEndDeviceBind_7:
   \   000078                ; Setup parameters for call to function ZDO_CompareClusterLists
   \   000078   75....       MOV     ?V0 + 0,#(ZDOBuildBuf & 0xff)
   \   00007B   75....       MOV     ?V0 + 1,#((ZDOBuildBuf >> 8) & 0xff)
   \   00007E   78..         MOV     R0,#?V0 + 0
   \   000080   12....       LCALL   ?PUSH_XSTACK_I_TWO
   \   000083   90....       MOV     DPTR,#matchED
   \   000086   E0           MOVX    A,@DPTR
   \   000087   2429         ADD     A,#0x29
   \   000089   12....       LCALL   ??Subroutine238_0 & 0xFFFF
   \                     ??CrossCallReturnLabel_391:
   \   00008C   12....       LCALL   ?PUSH_XSTACK8_X_TWO
   \   00008F   90....       MOV     DPTR,#matchED
   \   000092   E0           MOVX    A,@DPTR
   \   000093   2428         ADD     A,#0x28
   \   000095   12....       LCALL   ?Subroutine79 & 0xFFFF
   \                     ??CrossCallReturnLabel_271:
   \   000098   2415         ADD     A,#0x15
   \   00009A   12....       LCALL   ?Subroutine71 & 0xFFFF
   \                     ??CrossCallReturnLabel_269:
   \   00009D   2414         ADD     A,#0x14
   \   00009F   12....       LCALL   ?Subroutine78 & 0xFFFF
   \                     ??CrossCallReturnLabel_138:
   \   0000A2   12....       LCALL   ?DEALLOC_XSTACK8
   \   0000A5   E9           MOV     A,R1
   \   0000A6   C0E0         PUSH    A
   \   0000A8   90....       MOV     DPTR,#matchED
   \   0000AB   E0           MOVX    A,@DPTR
   \   0000AC   2431         ADD     A,#0x31
   \   0000AE   12....       LCALL   ??Subroutine238_0 & 0xFFFF
   \                     ??CrossCallReturnLabel_392:
   \   0000B1   D0E0         POP     A
   \   0000B3   12....       LCALL   ?Subroutine27 & 0xFFFF
   1987                if ( matchED->ed1numMatched )
   \                     ??CrossCallReturnLabel_258:
   \   0000B6   2431         ADD     A,#0x31
   \   0000B8   12....       LCALL   ?Subroutine84 & 0xFFFF
   \                     ??CrossCallReturnLabel_331:
   \   0000BB   75..00       MOV     ?V0 + 2,#0x0
   \   0000BE   602B         JZ      ??ZDO_MatchEndDeviceBind_8
   1988                {
   1989                  // Save the match list
   1990                  matchED->ed1Matched = osal_mem_alloc( (short)(matchED->ed1numMatched * sizeof ( uint16 )) );
   \   0000C0                ; Setup parameters for call to function osal_mem_alloc
   \   0000C0   12....       LCALL   ?Subroutine131 & 0xFFFF
   \                     ??CrossCallReturnLabel_267:
   \   0000C3   2432         ADD     A,#0x32
   \   0000C5   12....       LCALL   ?Subroutine23 & 0xFFFF
   1991                  if ( matchED->ed1Matched )
   \                     ??CrossCallReturnLabel_273:
   \   0000C8   7001         JNZ     ??ZDO_MatchEndDeviceBind_9
   \   0000CA   EB           MOV     A,R3
   \                     ??ZDO_MatchEndDeviceBind_9:
   \   0000CB   6013         JZ      ??ZDO_MatchEndDeviceBind_10
   1992                  {
   1993                    osal_memcpy( matchED->ed1Matched, ZDOBuildBuf, (matchED->ed1numMatched * sizeof ( uint16 )) );
   \   0000CD                ; Setup parameters for call to function osal_memcpy
   \   0000CD   78..         MOV     R0,#?V0 + 0
   \   0000CF   12....       LCALL   ?PUSH_XSTACK_I_THREE
   \   0000D2   90....       MOV     DPTR,#matchED
   \   0000D5   E0           MOVX    A,@DPTR
   \   0000D6   2431         ADD     A,#0x31
   \   0000D8   12....       LCALL   ?Subroutine52 & 0xFFFF
   1994                  }
   \                     ??CrossCallReturnLabel_511:
   \   0000DB   12....       LCALL   ?DEALLOC_XSTACK8
   \   0000DE   800B         SJMP    ??ZDO_MatchEndDeviceBind_8
   1995                  else
   1996                  {
   1997                    // Allocation error, stop
   1998                    status = ZDP_NO_ENTRY;
   \                     ??ZDO_MatchEndDeviceBind_10:
   \   0000E0   7488         MOV     A,#-0x78
   \   0000E2   85..82       MOV     DPL,?XSP + 0
   \   0000E5   85..83       MOV     DPH,?XSP + 1
   \   0000E8   F0           MOVX    @DPTR,A
   1999                    sendRsp = TRUE;
   \   0000E9   7E01         MOV     R6,#0x1
   2000                  }
   2001                }
   2002          
   2003                // Make a source match for ed2
   2004                matchED->ed2numMatched = ZDO_CompareClusterLists(
   2005                            matchED->ed2.numOutClusters, matchED->ed2.outClusters,
   2006                            matchED->ed1.numInClusters, matchED->ed1.inClusters, ZDOBuildBuf );
   \                     ??ZDO_MatchEndDeviceBind_8:
   \   0000EB                ; Setup parameters for call to function ZDO_CompareClusterLists
   \   0000EB   75....       MOV     ?V0 + 4,#(ZDOBuildBuf & 0xff)
   \   0000EE   75....       MOV     ?V0 + 5,#((ZDOBuildBuf >> 8) & 0xff)
   \   0000F1   78..         MOV     R0,#?V0 + 4
   \   0000F3   12....       LCALL   ?PUSH_XSTACK_I_TWO
   \   0000F6   90....       MOV     DPTR,#matchED
   \   0000F9   E0           MOVX    A,@DPTR
   \   0000FA   2412         ADD     A,#0x12
   \   0000FC   12....       LCALL   ??Subroutine238_0 & 0xFFFF
   \                     ??CrossCallReturnLabel_393:
   \   0000FF   12....       LCALL   ?PUSH_XSTACK8_X_TWO
   \   000102   90....       MOV     DPTR,#matchED
   \   000105   E0           MOVX    A,@DPTR
   \   000106   2411         ADD     A,#0x11
   \   000108   12....       LCALL   ?Subroutine79 & 0xFFFF
   \                     ??CrossCallReturnLabel_272:
   \   00010B   242C         ADD     A,#0x2c
   \   00010D   12....       LCALL   ?Subroutine71 & 0xFFFF
   \                     ??CrossCallReturnLabel_270:
   \   000110   242B         ADD     A,#0x2b
   \   000112   12....       LCALL   ?Subroutine78 & 0xFFFF
   \                     ??CrossCallReturnLabel_139:
   \   000115   12....       LCALL   ?DEALLOC_XSTACK8
   \   000118   E9           MOV     A,R1
   \   000119   C0E0         PUSH    A
   \   00011B   90....       MOV     DPTR,#matchED
   \   00011E   E0           MOVX    A,@DPTR
   \   00011F   2434         ADD     A,#0x34
   \   000121   12....       LCALL   ??Subroutine238_0 & 0xFFFF
   \                     ??CrossCallReturnLabel_394:
   \   000124   D0E0         POP     A
   \   000126   12....       LCALL   ?Subroutine27 & 0xFFFF
   2007                if ( matchED->ed2numMatched )
   \                     ??CrossCallReturnLabel_259:
   \   000129   2434         ADD     A,#0x34
   \   00012B   12....       LCALL   ?Subroutine84 & 0xFFFF
   \                     ??CrossCallReturnLabel_332:
   \   00012E   601E         JZ      ??ZDO_MatchEndDeviceBind_11
   2008                {
   2009                  // Save the match list
   2010                  matchED->ed2Matched = osal_mem_alloc( (short)(matchED->ed2numMatched * sizeof ( uint16 )) );
   \   000130                ; Setup parameters for call to function osal_mem_alloc
   \   000130   12....       LCALL   ?Subroutine131 & 0xFFFF
   \                     ??CrossCallReturnLabel_268:
   \   000133   2435         ADD     A,#0x35
   \   000135   12....       LCALL   ?Subroutine23 & 0xFFFF
   2011                  if ( matchED->ed2Matched )
   \                     ??CrossCallReturnLabel_274:
   \   000138   7001         JNZ     ??ZDO_MatchEndDeviceBind_12
   \   00013A   EB           MOV     A,R3
   \                     ??ZDO_MatchEndDeviceBind_12:
   \   00013B   602A         JZ      ??ZDO_MatchEndDeviceBind_13
   2012                  {
   2013                    osal_memcpy( matchED->ed2Matched, ZDOBuildBuf, (matchED->ed2numMatched * sizeof ( uint16 )) );
   \   00013D                ; Setup parameters for call to function osal_memcpy
   \   00013D   78..         MOV     R0,#?V0 + 0
   \   00013F   12....       LCALL   ?PUSH_XSTACK_I_THREE
   \   000142   90....       MOV     DPTR,#matchED
   \   000145   E0           MOVX    A,@DPTR
   \   000146   2434         ADD     A,#0x34
   \   000148   12....       LCALL   ?Subroutine52 & 0xFFFF
   2014                  }
   \                     ??CrossCallReturnLabel_512:
   \   00014B   12....       LCALL   ?DEALLOC_XSTACK8
   2015                  else
   2016                  {
   2017                    // Allocation error, stop
   2018                    status = ZDP_NO_ENTRY;
   2019                    sendRsp = TRUE;
   2020                  }
   2021                }
   2022          
   2023                if ( (sendRsp == FALSE) && (matchED->ed1numMatched || matchED->ed2numMatched) )
   \                     ??ZDO_MatchEndDeviceBind_11:
   \   00014E   EE           MOV     A,R6
   \   00014F   701F         JNZ     ??ZDO_MatchEndDeviceBind_14
   \   000151   12....       LCALL   ?Subroutine83 & 0xFFFF
   \                     ??CrossCallReturnLabel_143:
   \   000154   7005         JNZ     ??ZDO_MatchEndDeviceBind_15
   \   000156   12....       LCALL   ?Subroutine54 & 0xFFFF
   \                     ??CrossCallReturnLabel_409:
   \   000159   6015         JZ      ??ZDO_MatchEndDeviceBind_14
   2024                {
   2025                  // Do the first unbind/bind state
   2026                  ZDMatchSendState( ZDMATCH_REASON_START, ZDP_SUCCESS, 0 );
   \                     ??ZDO_MatchEndDeviceBind_15:
   \   00015B                ; Setup parameters for call to function ZDMatchSendState
   \   00015B   7B00         MOV     R3,#0x0
   \   00015D   7A00         MOV     R2,#0x0
   \   00015F   7900         MOV     R1,#0x0
   \   000161   12....       LCALL   ??ZDMatchSendState?relay
   \   000164   02....       LJMP    ??ZDO_MatchEndDeviceBind_6 & 0xFFFF
   2027                }
   \                     ??ZDO_MatchEndDeviceBind_13:
   \   000167   7488         MOV     A,#-0x78
   \   000169   85..82       MOV     DPL,?XSP + 0
   \   00016C   85..83       MOV     DPH,?XSP + 1
   \   00016F   F0           MOVX    @DPTR,A
   2028                else
   2029                {
   2030                  status = ZDP_NO_MATCH;
   \                     ??ZDO_MatchEndDeviceBind_14:
   \   000170   7486         MOV     A,#-0x7a
   \                     ??ZDO_MatchEndDeviceBind_5:
   \   000172   85..82       MOV     DPL,?XSP + 0
   \   000175   85..83       MOV     DPH,?XSP + 1
   \   000178   F0           MOVX    @DPTR,A
   2031                  sendRsp = TRUE;
   2032                }
   2033            }
   2034          
   2035            if ( sendRsp )
   2036            {
   2037              // send response to this requester
   2038              dstAddr.addrMode = Addr16Bit;
   \   000179   7409         MOV     A,#0x9
   \   00017B   12....       LCALL   ?XSTACK_DISP0_8
   \   00017E   7402         MOV     A,#0x2
   \   000180   F0           MOVX    @DPTR,A
   2039              dstAddr.addr.shortAddr = bindReq->srcAddr;
   \   000181   85..82       MOV     DPL,?V0 + 6
   \   000184   85..83       MOV     DPH,?V0 + 7
   \   000187   12....       LCALL   ??Subroutine245_0 & 0xFFFF
   \                     ??CrossCallReturnLabel_451:
   \   00018A   12....       LCALL   ?XSTACK_DISP0_8
   \   00018D   12....       LCALL   ??Subroutine225_0 & 0xFFFF
   2040              ZDP_EndDeviceBindRsp( bindReq->TransSeq, &dstAddr, status, bindReq->SecurityUse );
   \                     ??CrossCallReturnLabel_321:
   \   000190                ; Setup parameters for call to function ZDP_SendData
   \   000190   85..82       MOV     DPL,?V0 + 6
   \   000193   85..83       MOV     DPH,?V0 + 7
   \   000196   A3           INC     DPTR
   \   000197   12....       LCALL   ?Subroutine193 & 0xFFFF
   \                     ??CrossCallReturnLabel_369:
   \   00019A   12....       LCALL   ?PUSH_XSTACK_I_ONE
   \   00019D   7401         MOV     A,#0x1
   \   00019F   12....       LCALL   ?XSTACK_DISP0_8
   \   0001A2   8582..       MOV     ?V0 + 0,DPL
   \   0001A5   8583..       MOV     ?V0 + 1,DPH
   \   0001A8   78..         MOV     R0,#?V0 + 0
   \   0001AA   12....       LCALL   ?PUSH_XSTACK_I_TWO
   \   0001AD   75..20       MOV     ?V0 + 0,#0x20
   \   0001B0   75..80       MOV     ?V0 + 1,#-0x80
   \   0001B3   78..         MOV     R0,#?V0 + 0
   \   0001B5   12....       LCALL   ?PUSH_XSTACK_I_TWO
   \   0001B8   7901         MOV     R1,#0x1
   \   0001BA   7406         MOV     A,#0x6
   \   0001BC   12....       LCALL   ?XSTACK_DISP0_8
   \   0001BF   AC82         MOV     R4,DPL
   \   0001C1   AD83         MOV     R5,DPH
   \   0001C3   AA..         MOV     R2,?V0 + 6
   \   0001C5   AB..         MOV     R3,?V0 + 7
   \   0001C7   12....       LCALL   ?Subroutine175 & 0xFFFF
   \                     ??CrossCallReturnLabel_361:
   \   0001CA   12....       LCALL   ?DEALLOC_XSTACK8
   2041          
   2042              if ( matchED->state == ZDMATCH_SENDING_BINDS )
   \   0001CD   12....       LCALL   ?Subroutine74 & 0xFFFF
   \                     ??CrossCallReturnLabel_132:
   \   0001D0   703E         JNZ     ??ZDO_MatchEndDeviceBind_16
   2043              {
   2044                // send response to first requester
   2045                dstAddr.addrMode = Addr16Bit;
   \   0001D2   7409         MOV     A,#0x9
   \   0001D4   12....       LCALL   ?XSTACK_DISP0_8
   \   0001D7   7402         MOV     A,#0x2
   \   0001D9   12....       LCALL   ?Subroutine27 & 0xFFFF
   2046                dstAddr.addr.shortAddr = matchED->ed1.srcAddr;
   2047                ZDP_EndDeviceBindRsp( matchED->ed1.TransSeq, &dstAddr, status, matchED->ed1.SecurityUse );
   2048              }
   \                     ??CrossCallReturnLabel_260:
   \   0001DC   12....       LCALL   ?Subroutine61 & 0xFFFF
   \                     ??CrossCallReturnLabel_453:
   \   0001DF   12....       LCALL   ?XSTACK_DISP0_8
   \   0001E2   12....       LCALL   ?Subroutine8 & 0xFFFF
   \                     ??CrossCallReturnLabel_364:
   \   0001E5   12....       LCALL   ?PUSH_XSTACK_I_ONE
   \   0001E8   7401         MOV     A,#0x1
   \   0001EA   12....       LCALL   ?XSTACK_DISP0_8
   \   0001ED   8582..       MOV     ?V0 + 0,DPL
   \   0001F0   8583..       MOV     ?V0 + 1,DPH
   \   0001F3   78..         MOV     R0,#?V0 + 0
   \   0001F5   12....       LCALL   ?PUSH_XSTACK_I_TWO
   \   0001F8   75..20       MOV     ?V0 + 0,#0x20
   \   0001FB   75..80       MOV     ?V0 + 1,#-0x80
   \   0001FE   78..         MOV     R0,#?V0 + 0
   \   000200   12....       LCALL   ?PUSH_XSTACK_I_TWO
   \   000203   7901         MOV     R1,#0x1
   \   000205   7406         MOV     A,#0x6
   \   000207   12....       LCALL   ?XSTACK_DISP0_8
   \   00020A   12....       LCALL   ?Subroutine93 & 0xFFFF
   \                     ??CrossCallReturnLabel_152:
   \   00020D   12....       LCALL   ?DEALLOC_XSTACK8
   2049          
   2050              // Process ended - release memory used
   2051              ZDO_RemoveMatchMemory();
   \                     ??ZDO_MatchEndDeviceBind_16:
   \   000210                ; Setup parameters for call to function ZDO_RemoveMatchMemory
   \   000210   12....       LCALL   ??ZDO_RemoveMatchMemory?relay
   2052            }
   2053          }
   \                     ??ZDO_MatchEndDeviceBind_6:
   \   000213   740A         MOV     A,#0xa
   \   000215   02....       LJMP    ?Subroutine210 & 0xFFFF

   \                                 In  segment BANKED_CODE, align 1, keep-with-next
   \                     ?Subroutine131:
   \   000000   C3           CLR     C
   \   000001   33           RLC     A
   \   000002   FA           MOV     R2,A
   \   000003   E4           CLR     A
   \   000004   33           RLC     A
   \   000005   FB           MOV     R3,A
   \   000006   12....       LCALL   ??osal_mem_alloc?relay
   \   000009   8A..         MOV     ?V0 + 4,R2
   \   00000B   8B..         MOV     ?V0 + 5,R3
   \   00000D   02....       LJMP    ?Subroutine201 & 0xFFFF

   \                                 In  segment BANKED_CODE, align 1, keep-with-next
   \                     ?Subroutine85:
   \   000000   90....       MOV     DPTR,#matchED
   \   000003   E0           MOVX    A,@DPTR
   \   000004   242E         ADD     A,#0x2e
   \   000006                REQUIRE ??Subroutine238_0
   \   000006                ; // Fall through to label ??Subroutine238_0

   \                                 In  segment BANKED_CODE, align 1, keep-with-next
   \                     ?Subroutine79:
   \   000000   12....       LCALL   ?Subroutine155 & 0xFFFF
   \                     ??CrossCallReturnLabel_444:
   \   000003   FC           MOV     R4,A
   \   000004   02....       LJMP    ?Subroutine201 & 0xFFFF

   \                                 In  segment BANKED_CODE, align 1, keep-with-next
   \                     ?Subroutine78:
   \   000000   18           DEC     R0
   \   000001   12....       LCALL   ??Subroutine228_0 & 0xFFFF
   \                     ??CrossCallReturnLabel_334:
   \   000004   12....       LCALL   ??ZDO_CompareClusterLists?relay
   \   000007   7404         MOV     A,#0x4
   \   000009   22           RET

   \                                 In  segment BANKED_CODE, align 1, keep-with-next
   \                     ?Subroutine71:
   \   000000   12....       LCALL   ?Subroutine154 & 0xFFFF
   \                     ??CrossCallReturnLabel_420:
   \   000003   02....       LJMP    ?Subroutine201 & 0xFFFF

   \                                 In  segment BANKED_CODE, align 1, keep-with-next
   \                     ?Subroutine54:
   \   000000   90....       MOV     DPTR,#matchED
   \   000003                REQUIRE ??Subroutine239_0
   \   000003                ; // Fall through to label ??Subroutine239_0

   \                                 In  segment BANKED_CODE, align 1, keep-with-next
   \                     ??Subroutine239_0:
   \   000000   E0           MOVX    A,@DPTR
   \   000001   2434         ADD     A,#0x34
   \   000003   08           INC     R0
   \   000004   08           INC     R0
   \   000005   08           INC     R0
   \   000006   12....       LCALL   ??Subroutine244_0 & 0xFFFF
   \                     ??CrossCallReturnLabel_448:
   \   000009   22           RET

   \                                 In  segment BANKED_CODE, align 1, keep-with-next
   \                     ?Subroutine52:
   \   000000   12....       LCALL   ?Subroutine157 & 0xFFFF
   \                     ??CrossCallReturnLabel_401:
   \   000003                REQUIRE ??Subroutine240_0
   \   000003                ; // Fall through to label ??Subroutine240_0

   \                                 In  segment BANKED_CODE, align 1, keep-with-next
   \                     ??Subroutine240_0:
   \   000000   E0           MOVX    A,@DPTR
   \   000001   C3           CLR     C
   \   000002   33           RLC     A
   \   000003   FC           MOV     R4,A
   \   000004   E4           CLR     A
   \   000005   33           RLC     A
   \   000006   FD           MOV     R5,A
   \   000007   02....       LJMP    ?Subroutine195 & 0xFFFF

   \                                 In  segment BANKED_CODE, align 1, keep-with-next
   \                     ?Subroutine23:
   \   000000   12....       LCALL   ?Subroutine163 & 0xFFFF
   \                     ??CrossCallReturnLabel_280:
   \   000003   E5..         MOV     A,?V0 + 4
   \   000005   F0           MOVX    @DPTR,A
   \   000006   A3           INC     DPTR
   \   000007   E5..         MOV     A,?V0 + 5
   \   000009   F0           MOVX    @DPTR,A
   \   00000A   8A82         MOV     DPL,R2
   \   00000C   8B83         MOV     DPH,R3
   \   00000E                REQUIRE ?Subroutine203
   \   00000E                ; // Fall through to label ?Subroutine203

   \                                 In  segment BANKED_CODE, align 1, keep-with-next
   \                     ?Subroutine203:
   \   000000   12....       LCALL   ?Subroutine156 & 0xFFFF
   \                     ??CrossCallReturnLabel_424:
   \   000003   EA           MOV     A,R2
   \   000004   22           RET

   \                                 In  segment BANKED_CODE, align 1, keep-with-next
   \                     ?Subroutine105:
   \   000000   90....       MOV     DPTR,#matchED
   \   000003   E0           MOVX    A,@DPTR
   \   000004   2417         ADD     A,#0x17
   \   000006   02....       LJMP    ?Subroutine189 & 0xFFFF

   \                                 In  segment BANKED_CODE, align 1, keep-with-next
   \                     ?Subroutine201:
   \   000000   90....       MOV     DPTR,#matchED
   \   000003   E0           MOVX    A,@DPTR
   \   000004   22           RET

   \                                 In  segment BANKED_CODE, align 1, keep-with-next
   \                     ?Subroutine96:
   \   000000   7C..         MOV     R4,#(??ZDO_EndDeviceBindMatchTimeoutCB?relay & 0xff)
   \   000002   7D..         MOV     R5,#((??ZDO_EndDeviceBindMatchTimeoutCB?relay >> 8) & 0xff)
   \   000004   90....       MOV     DPTR,#AIB_MaxBindingTime
   \   000007   12....       LCALL   ?Subroutine156 & 0xFFFF
   \                     ??CrossCallReturnLabel_423:
   \   00000A   12....       LCALL   ??APS_SetEndDeviceBindTimeout?relay
   \   00000D   22           RET

   \                                 In  segment BANKED_CODE, align 1, keep-with-next
   \                     ?Subroutine93:
   \   000000   AC82         MOV     R4,DPL
   \   000002   AD83         MOV     R5,DPH
   \   000004   90....       MOV     DPTR,#matchED
   \   000007   12....       LCALL   ?Subroutine156 & 0xFFFF
   \                     ??CrossCallReturnLabel_421:
   \   00000A   12....       LCALL   ?Subroutine175 & 0xFFFF
   \                     ??CrossCallReturnLabel_363:
   \   00000D   22           RET

   \                                 In  segment BANKED_CODE, align 1, keep-with-next
   \                     ?Subroutine83:
   \   000000   90....       MOV     DPTR,#matchED
   \   000003   E0           MOVX    A,@DPTR
   \   000004   2431         ADD     A,#0x31
   \   000006   12....       LCALL   ?Subroutine155 & 0xFFFF
   \                     ??CrossCallReturnLabel_445:
   \   000009   22           RET

   \                                 In  segment BANKED_CODE, align 1, keep-with-next
   \                     ?Subroutine74:
   \   000000   90....       MOV     DPTR,#matchED
   \   000003   E0           MOVX    A,@DPTR
   \   000004   242E         ADD     A,#0x2e
   \   000006   12....       LCALL   ?Subroutine155 & 0xFFFF
   \                     ??CrossCallReturnLabel_442:
   \   000009   6402         XRL     A,#0x2
   \   00000B   22           RET

   \                                 In  segment BANKED_CODE, align 1, keep-with-next
   \                     ?Subroutine61:
   \   000000   12....       LCALL   ?Subroutine158 & 0xFFFF
   \                     ??CrossCallReturnLabel_607:
   \   000003                REQUIRE ??Subroutine245_0
   \   000003                ; // Fall through to label ??Subroutine245_0

   \                                 In  segment BANKED_CODE, align 1, keep-with-next
   \                     ??Subroutine245_0:
   \   000000   A3           INC     DPTR
   \   000001   A3           INC     DPTR
   \   000002                REQUIRE ??Subroutine246_0
   \   000002                ; // Fall through to label ??Subroutine246_0

   \                                 In  segment BANKED_CODE, align 1, keep-with-next
   \                     ?Subroutine163:
   \   000000   FA           MOV     R2,A
   \   000001   A3           INC     DPTR
   \   000002   E0           MOVX    A,@DPTR
   \   000003   3400         ADDC    A,#0x0
   \   000005   FB           MOV     R3,A
   \   000006                REQUIRE ?Subroutine204
   \   000006                ; // Fall through to label ?Subroutine204

   \                                 In  segment BANKED_CODE, align 1, keep-with-next
   \                     ?Subroutine27:
   \   000000   F0           MOVX    @DPTR,A
   \   000001                ; Setup parameters for call to function ZDP_SendData
   \   000001   02....       LJMP    ?Subroutine201 & 0xFFFF

   \                                 In  segment BANKED_CODE, align 1, keep-with-next
   \                     ?Subroutine8:
   \   000000   12....       LCALL   ??Subroutine268_0 & 0xFFFF
   \                     ??CrossCallReturnLabel_627:
   \   000003                ; Setup parameters for call to function ZDP_SendData
   \   000003                ; Setup parameters for call to function ZDP_SendData
   \   000003   90....       MOV     DPTR,#matchED
   \   000006   12....       LCALL   ?Subroutine151 & 0xFFFF
   \                     ??CrossCallReturnLabel_215:
   \   000009   02....       LJMP    ?Subroutine193 & 0xFFFF
   2054          
   2055          /*********************************************************************
   2056           * @fn      ZDO_RemoveMatchMemory()
   2057           *
   2058           * @brief   Called to clear the memory used for the end device bind.
   2059           *
   2060           * @param  none
   2061           *
   2062           * @return  none
   2063           */

   \                                 In  segment BANKED_CODE, align 1, keep-with-next
   2064          static void ZDO_RemoveMatchMemory( void )
   \                     ZDO_RemoveMatchMemory:
   2065          {
   \   000000   C082         PUSH    DPL
   \   000002   C083         PUSH    DPH
   \   000004                ; Saved register size: 2
   \   000004                ; Auto size: 0
   2066            if ( matchED != NULL )
   \   000004   90....       MOV     DPTR,#matchED
   \   000007   E0           MOVX    A,@DPTR
   \   000008   7002         JNZ     ??ZDO_RemoveMatchMemory_0
   \   00000A   A3           INC     DPTR
   \   00000B   E0           MOVX    A,@DPTR
   \                     ??ZDO_RemoveMatchMemory_0:
   \   00000C   6073         JZ      ??ZDO_RemoveMatchMemory_1
   2067            {
   2068              if ( matchED->ed2Matched != NULL )
   \   00000E   90....       MOV     DPTR,#matchED
   \   000011   E0           MOVX    A,@DPTR
   \   000012   2435         ADD     A,#0x35
   \   000014   12....       LCALL   ?Subroutine48 & 0xFFFF
   \                     ??CrossCallReturnLabel_93:
   \   000017   7001         JNZ     ??ZDO_RemoveMatchMemory_2
   \   000019   EB           MOV     A,R3
   \                     ??ZDO_RemoveMatchMemory_2:
   \   00001A   6003         JZ      ??ZDO_RemoveMatchMemory_3
   2069                osal_mem_free( matchED->ed2Matched );
   \   00001C                ; Setup parameters for call to function osal_mem_free
   \   00001C   12....       LCALL   ??osal_mem_free?relay
   2070              if ( matchED->ed1Matched != NULL )
   \                     ??ZDO_RemoveMatchMemory_3:
   \   00001F   90....       MOV     DPTR,#matchED
   \   000022   E0           MOVX    A,@DPTR
   \   000023   2432         ADD     A,#0x32
   \   000025   12....       LCALL   ?Subroutine48 & 0xFFFF
   \                     ??CrossCallReturnLabel_94:
   \   000028   7001         JNZ     ??ZDO_RemoveMatchMemory_4
   \   00002A   EB           MOV     A,R3
   \                     ??ZDO_RemoveMatchMemory_4:
   \   00002B   6003         JZ      ??ZDO_RemoveMatchMemory_5
   2071                osal_mem_free( matchED->ed1Matched );
   \   00002D                ; Setup parameters for call to function osal_mem_free
   \   00002D   12....       LCALL   ??osal_mem_free?relay
   2072          
   2073              if ( matchED->ed1.inClusters != NULL )
   \                     ??ZDO_RemoveMatchMemory_5:
   \   000030   90....       MOV     DPTR,#matchED
   \   000033   E0           MOVX    A,@DPTR
   \   000034   2412         ADD     A,#0x12
   \   000036   12....       LCALL   ?Subroutine48 & 0xFFFF
   \                     ??CrossCallReturnLabel_95:
   \   000039   7001         JNZ     ??ZDO_RemoveMatchMemory_6
   \   00003B   EB           MOV     A,R3
   \                     ??ZDO_RemoveMatchMemory_6:
   \   00003C   6003         JZ      ??ZDO_RemoveMatchMemory_7
   2074                osal_mem_free( matchED->ed1.inClusters );
   \   00003E                ; Setup parameters for call to function osal_mem_free
   \   00003E   12....       LCALL   ??osal_mem_free?relay
   2075          
   2076              if ( matchED->ed1.outClusters != NULL )
   \                     ??ZDO_RemoveMatchMemory_7:
   \   000041   90....       MOV     DPTR,#matchED
   \   000044   E0           MOVX    A,@DPTR
   \   000045   2415         ADD     A,#0x15
   \   000047   12....       LCALL   ?Subroutine48 & 0xFFFF
   \                     ??CrossCallReturnLabel_96:
   \   00004A   7001         JNZ     ??ZDO_RemoveMatchMemory_8
   \   00004C   EB           MOV     A,R3
   \                     ??ZDO_RemoveMatchMemory_8:
   \   00004D   6003         JZ      ??ZDO_RemoveMatchMemory_9
   2077                osal_mem_free( matchED->ed1.outClusters );
   \   00004F                ; Setup parameters for call to function osal_mem_free
   \   00004F   12....       LCALL   ??osal_mem_free?relay
   2078          
   2079              if ( matchED->ed2.inClusters != NULL )
   \                     ??ZDO_RemoveMatchMemory_9:
   \   000052   90....       MOV     DPTR,#matchED
   \   000055   E0           MOVX    A,@DPTR
   \   000056   2429         ADD     A,#0x29
   \   000058   12....       LCALL   ?Subroutine48 & 0xFFFF
   \                     ??CrossCallReturnLabel_97:
   \   00005B   7001         JNZ     ??ZDO_RemoveMatchMemory_10
   \   00005D   EB           MOV     A,R3
   \                     ??ZDO_RemoveMatchMemory_10:
   \   00005E   6003         JZ      ??ZDO_RemoveMatchMemory_11
   2080                osal_mem_free( matchED->ed2.inClusters );
   \   000060                ; Setup parameters for call to function osal_mem_free
   \   000060   12....       LCALL   ??osal_mem_free?relay
   2081          
   2082              if ( matchED->ed2.outClusters != NULL )
   \                     ??ZDO_RemoveMatchMemory_11:
   \   000063   90....       MOV     DPTR,#matchED
   \   000066   E0           MOVX    A,@DPTR
   \   000067   242C         ADD     A,#0x2c
   \   000069   12....       LCALL   ?Subroutine48 & 0xFFFF
   \                     ??CrossCallReturnLabel_98:
   \   00006C   7001         JNZ     ??ZDO_RemoveMatchMemory_12
   \   00006E   EB           MOV     A,R3
   \                     ??ZDO_RemoveMatchMemory_12:
   \   00006F   6003         JZ      ??ZDO_RemoveMatchMemory_13
   2083                osal_mem_free( matchED->ed2.outClusters );
   \   000071                ; Setup parameters for call to function osal_mem_free
   \   000071   12....       LCALL   ??osal_mem_free?relay
   2084          
   2085              osal_mem_free( matchED );
   \                     ??ZDO_RemoveMatchMemory_13:
   \   000074                ; Setup parameters for call to function osal_mem_free
   \   000074   90....       MOV     DPTR,#matchED
   \   000077   12....       LCALL   ??Subroutine241_0 & 0xFFFF
   2086          
   2087              matchED = (ZDMatchEndDeviceBind_t *)NULL;
   \                     ??CrossCallReturnLabel_417:
   \   00007A   90....       MOV     DPTR,#matchED
   \   00007D   E4           CLR     A
   \   00007E   F0           MOVX    @DPTR,A
   \   00007F   A3           INC     DPTR
   \   000080   F0           MOVX    @DPTR,A
   2088            }
   2089          }
   \                     ??ZDO_RemoveMatchMemory_1:
   \   000081                REQUIRE ?Subroutine186
   \   000081                ; // Fall through to label ?Subroutine186
   2090          
   2091          /*********************************************************************
   2092           * @fn      ZDO_CopyMatchInfo()
   2093           *
   2094           * @brief   Called to copy memory used for the end device bind.
   2095           *
   2096           * @param  srcReq - source information
   2097           * @param  dstReq - destination location
   2098           *
   2099           * @return  TRUE if copy was successful.
   2100           */

   \                                 In  segment BANKED_CODE, align 1, keep-with-next
   2101          static uint8 ZDO_CopyMatchInfo( ZDEndDeviceBind_t *destReq, ZDEndDeviceBind_t *srcReq )
   \                     ZDO_CopyMatchInfo:
   2102          {
   \   000000   74F0         MOV     A,#-0x10
   \   000002   12....       LCALL   ?BANKED_ENTER_XDATA
   \   000005                ; Saved register size: 16
   \   000005                ; Auto size: 0
   \   000005   8A..         MOV     ?V0 + 4,R2
   \   000007   8B..         MOV     ?V0 + 5,R3
   \   000009   8C..         MOV     ?V0 + 6,R4
   \   00000B   8D..         MOV     ?V0 + 7,R5
   2103            uint8 allOK = TRUE;
   \   00000D   7E01         MOV     R6,#0x1
   2104          
   2105            // Copy bind information into the match info structure
   2106            osal_memcpy( (uint8 *)destReq, srcReq, sizeof ( ZDEndDeviceBind_t ) );
   \   00000F                ; Setup parameters for call to function osal_memcpy
   \   00000F   8C..         MOV     ?V0 + 0,R4
   \   000011   8D..         MOV     ?V0 + 1,R5
   \   000013   75..00       MOV     ?V0 + 2,#0x0
   \   000016   78..         MOV     R0,#?V0 + 0
   \   000018   12....       LCALL   ?PUSH_XSTACK_I_THREE
   \   00001B   7C17         MOV     R4,#0x17
   \   00001D   7D00         MOV     R5,#0x0
   \   00001F   12....       LCALL   ?Subroutine195 & 0xFFFF
   \                     ??CrossCallReturnLabel_518:
   \   000022   12....       LCALL   ?DEALLOC_XSTACK8
   \   000025   E5..         MOV     A,?V0 + 4
   \   000027   2412         ADD     A,#0x12
   \   000029   F582         MOV     DPL,A
   \   00002B   E5..         MOV     A,?V0 + 5
   \   00002D   12....       LCALL   ??Subroutine256_0 & 0xFFFF
   \                     ??CrossCallReturnLabel_529:
   \   000030   E4           CLR     A
   \   000031   F0           MOVX    @DPTR,A
   \   000032   A3           INC     DPTR
   \   000033   12....       LCALL   ?Subroutine26 & 0xFFFF
   \                     ??CrossCallReturnLabel_36:
   \   000036   E4           CLR     A
   \   000037   F0           MOVX    @DPTR,A
   \   000038   A3           INC     DPTR
   \   000039   F0           MOVX    @DPTR,A
   \   00003A   E5..         MOV     A,?V0 + 6
   \   00003C   2411         ADD     A,#0x11
   \   00003E   F582         MOV     DPL,A
   \   000040   E5..         MOV     A,?V0 + 7
   \   000042   12....       LCALL   ??Subroutine242_0 & 0xFFFF
   \                     ??CrossCallReturnLabel_430:
   \   000045   6042         JZ      ??ZDO_CopyMatchInfo_0
   2107          
   2108            // Initialize the destination cluster pointers
   2109            destReq->inClusters = NULL;
   2110            destReq->outClusters = NULL;
   2111          
   2112            // Copy input cluster IDs
   2113            if ( srcReq->numInClusters )
   2114            {
   2115              destReq->inClusters = osal_mem_alloc( (short)(srcReq->numInClusters * sizeof ( uint16 )) );
   \   000047                ; Setup parameters for call to function osal_mem_alloc
   \   000047   C3           CLR     C
   \   000048   33           RLC     A
   \   000049   FA           MOV     R2,A
   \   00004A   E4           CLR     A
   \   00004B   33           RLC     A
   \   00004C   FB           MOV     R3,A
   \   00004D   12....       LCALL   ??osal_mem_alloc?relay
   \   000050   E5..         MOV     A,?V0 + 4
   \   000052   2412         ADD     A,#0x12
   \   000054   F582         MOV     DPL,A
   \   000056   E5..         MOV     A,?V0 + 5
   \   000058   12....       LCALL   ??Subroutine256_0 & 0xFFFF
   \                     ??CrossCallReturnLabel_530:
   \   00005B   12....       LCALL   ?Subroutine38 & 0xFFFF
   2116              if ( destReq->inClusters )
   \                     ??CrossCallReturnLabel_70:
   \   00005E   E5..         MOV     A,?V0 + 4
   \   000060   2412         ADD     A,#0x12
   \   000062   12....       LCALL   ?Subroutine123 & 0xFFFF
   \                     ??CrossCallReturnLabel_435:
   \   000065   FA           MOV     R2,A
   \   000066   7001         JNZ     ??ZDO_CopyMatchInfo_1
   \   000068   EB           MOV     A,R3
   \                     ??ZDO_CopyMatchInfo_1:
   \   000069   601D         JZ      ??ZDO_CopyMatchInfo_2
   2117              {
   2118                // Copy the clusters
   2119                osal_memcpy( (uint8*)(destReq->inClusters), (uint8 *)(srcReq->inClusters),
   2120                                (srcReq->numInClusters * sizeof ( uint16 )) );
   \   00006B                ; Setup parameters for call to function osal_memcpy
   \   00006B   E5..         MOV     A,?V0 + 6
   \   00006D   2412         ADD     A,#0x12
   \   00006F   12....       LCALL   ?Subroutine99 & 0xFFFF
   2121              }
   \                     ??CrossCallReturnLabel_158:
   \   000072   12....       LCALL   ?PUSH_XSTACK_I_THREE
   \   000075   E5..         MOV     A,?V0 + 6
   \   000077   2411         ADD     A,#0x11
   \   000079   F582         MOV     DPL,A
   \   00007B   E5..         MOV     A,?V0 + 7
   \   00007D   12....       LCALL   ??Subroutine256_0 & 0xFFFF
   \                     ??CrossCallReturnLabel_531:
   \   000080   12....       LCALL   ??Subroutine240_0 & 0xFFFF
   \                     ??CrossCallReturnLabel_513:
   \   000083   12....       LCALL   ?DEALLOC_XSTACK8
   \   000086   8001         SJMP    ??ZDO_CopyMatchInfo_0
   2122              else
   2123                allOK = FALSE;
   \                     ??ZDO_CopyMatchInfo_2:
   \   000088   1E           DEC     R6
   \                     ??ZDO_CopyMatchInfo_0:
   \   000089   E5..         MOV     A,?V0 + 6
   \   00008B   2414         ADD     A,#0x14
   \   00008D   F582         MOV     DPL,A
   \   00008F   E5..         MOV     A,?V0 + 7
   2124            }
   \   000091   12....       LCALL   ??Subroutine242_0 & 0xFFFF
   \                     ??CrossCallReturnLabel_431:
   \   000094   603D         JZ      ??ZDO_CopyMatchInfo_3
   2125          
   2126            // Copy output cluster IDs
   2127            if ( srcReq->numOutClusters )
   2128            {
   2129              destReq->outClusters = osal_mem_alloc( (short)(srcReq->numOutClusters * sizeof ( uint16 )) );
   \   000096                ; Setup parameters for call to function osal_mem_alloc
   \   000096   C3           CLR     C
   \   000097   33           RLC     A
   \   000098   FA           MOV     R2,A
   \   000099   E4           CLR     A
   \   00009A   33           RLC     A
   \   00009B   FB           MOV     R3,A
   \   00009C   12....       LCALL   ??osal_mem_alloc?relay
   \   00009F   E5..         MOV     A,?V0 + 4
   \   0000A1   2415         ADD     A,#0x15
   \   0000A3   F582         MOV     DPL,A
   \   0000A5   E5..         MOV     A,?V0 + 5
   \   0000A7   12....       LCALL   ??Subroutine256_0 & 0xFFFF
   \                     ??CrossCallReturnLabel_532:
   \   0000AA   EA           MOV     A,R2
   \   0000AB   F0           MOVX    @DPTR,A
   \   0000AC   A3           INC     DPTR
   \   0000AD   EB           MOV     A,R3
   \   0000AE   12....       LCALL   ?Subroutine26 & 0xFFFF
   2130              if ( destReq->outClusters )
   \                     ??CrossCallReturnLabel_35:
   \   0000B1   E0           MOVX    A,@DPTR
   \   0000B2   FA           MOV     R2,A
   \   0000B3   7001         JNZ     ??ZDO_CopyMatchInfo_4
   \   0000B5   EB           MOV     A,R3
   \                     ??ZDO_CopyMatchInfo_4:
   \   0000B6   6041         JZ      ??ZDO_CopyMatchInfo_5
   2131              {
   2132                // Copy the clusters
   2133                osal_memcpy( (uint8 *)(destReq->outClusters), (uint8 *)(srcReq->outClusters),
   2134                                (srcReq->numOutClusters * sizeof ( uint16 )) );
   \   0000B8                ; Setup parameters for call to function osal_memcpy
   \   0000B8   E5..         MOV     A,?V0 + 6
   \   0000BA   2415         ADD     A,#0x15
   \   0000BC   12....       LCALL   ?Subroutine99 & 0xFFFF
   2135              }
   \                     ??CrossCallReturnLabel_159:
   \   0000BF   12....       LCALL   ?PUSH_XSTACK_I_THREE
   \   0000C2   E5..         MOV     A,?V0 + 6
   \   0000C4   2414         ADD     A,#0x14
   \   0000C6   F582         MOV     DPL,A
   \   0000C8   E5..         MOV     A,?V0 + 7
   \   0000CA   12....       LCALL   ??Subroutine256_0 & 0xFFFF
   \                     ??CrossCallReturnLabel_533:
   \   0000CD   12....       LCALL   ??Subroutine240_0 & 0xFFFF
   \                     ??CrossCallReturnLabel_514:
   \   0000D0   12....       LCALL   ?DEALLOC_XSTACK8
   2136              else
   2137                allOK = FALSE;
   2138            }
   2139          
   2140            if ( !allOK )
   \                     ??ZDO_CopyMatchInfo_3:
   \   0000D3   EE           MOV     A,R6
   \   0000D4   701E         JNZ     ??ZDO_CopyMatchInfo_6
   2141            {
   2142              if ( destReq->inClusters != NULL )
   \                     ??ZDO_CopyMatchInfo_7:
   \   0000D6   E5..         MOV     A,?V0 + 4
   \   0000D8   2412         ADD     A,#0x12
   \   0000DA   12....       LCALL   ?Subroutine97 & 0xFFFF
   \                     ??CrossCallReturnLabel_276:
   \   0000DD   7001         JNZ     ??ZDO_CopyMatchInfo_8
   \   0000DF   EB           MOV     A,R3
   \                     ??ZDO_CopyMatchInfo_8:
   \   0000E0   6003         JZ      ??ZDO_CopyMatchInfo_9
   2143                osal_mem_free( destReq->inClusters );
   \   0000E2                ; Setup parameters for call to function osal_mem_free
   \   0000E2   12....       LCALL   ??osal_mem_free?relay
   2144              if ( destReq->outClusters != NULL )
   \                     ??ZDO_CopyMatchInfo_9:
   \   0000E5   E5..         MOV     A,?V0 + 4
   \   0000E7   2415         ADD     A,#0x15
   \   0000E9   12....       LCALL   ?Subroutine97 & 0xFFFF
   \                     ??CrossCallReturnLabel_277:
   \   0000EC   7001         JNZ     ??ZDO_CopyMatchInfo_10
   \   0000EE   EB           MOV     A,R3
   \                     ??ZDO_CopyMatchInfo_10:
   \   0000EF   6003         JZ      ??ZDO_CopyMatchInfo_6
   2145                osal_mem_free( destReq->outClusters );
   \   0000F1                ; Setup parameters for call to function osal_mem_free
   \   0000F1   12....       LCALL   ??osal_mem_free?relay
   2146            }
   2147          
   2148            return ( allOK );
   \                     ??ZDO_CopyMatchInfo_6:
   \   0000F4   EE           MOV     A,R6
   \   0000F5   F9           MOV     R1,A
   \   0000F6   02....       LJMP    ??Subroutine222_0 & 0xFFFF
   \                     ??ZDO_CopyMatchInfo_5:
   \   0000F9   7E00         MOV     R6,#0x0
   \   0000FB   80D9         SJMP    ??ZDO_CopyMatchInfo_7
   2149          }

   \                                 In  segment BANKED_CODE, align 1, keep-with-next
   \                     ?Subroutine99:
   \   000000   F582         MOV     DPL,A
   \   000002   E5..         MOV     A,?V0 + 7
   \   000004   12....       LCALL   ??Subroutine243_0 & 0xFFFF
   \                     ??CrossCallReturnLabel_436:
   \   000007   F5..         MOV     ?V0 + 0,A
   \   000009   A3           INC     DPTR
   \   00000A   E0           MOVX    A,@DPTR
   \   00000B   F5..         MOV     ?V0 + 1,A
   \   00000D   78..         MOV     R0,#?V0 + 0
   \   00000F   22           RET

   \                                 In  segment BANKED_CODE, align 1, keep-with-next
   \                     ?Subroutine97:
   \   000000   F582         MOV     DPL,A
   \   000002   E5..         MOV     A,?V0 + 5
   \   000004   12....       LCALL   ?Subroutine199 & 0xFFFF
   \                     ??CrossCallReturnLabel_555:
   \   000007   02....       LJMP    ?Subroutine203 & 0xFFFF

   \                                 In  segment BANKED_CODE, align 1, keep-with-next
   \                     ?Subroutine26:
   \   000000   F0           MOVX    @DPTR,A
   \   000001   E5..         MOV     A,?V0 + 4
   \   000003   2415         ADD     A,#0x15
   \   000005   F582         MOV     DPL,A
   \   000007   E5..         MOV     A,?V0 + 5
   \   000009   12....       LCALL   ?Subroutine199 & 0xFFFF
   \                     ??CrossCallReturnLabel_552:
   \   00000C   22           RET
   2150          
   2151          /*********************************************************************
   2152           * @fn      ZDMatchSendState()
   2153           *
   2154           * @brief   State machine for the End device match message algorithm.
   2155           *
   2156           * @param  reason - state of algoritm
   2157           * @param  status - initial message status
   2158           * @param  TransSeq - next transaction sequence number
   2159           *
   2160           * @return  FALSE if error and we are not currently matching, TRUE
   2161           *          if success.
   2162           */

   \                                 In  segment BANKED_CODE, align 1, keep-with-next
   2163          uint8 ZDMatchSendState( uint8 reason, uint8 status, uint8 TransSeq )
   \                     ZDMatchSendState:
   2164          {
   \   000000   74F0         MOV     A,#-0x10
   \   000002   12....       LCALL   ?BANKED_ENTER_XDATA
   \   000005                ; Saved register size: 16
   \   000005                ; Auto size: 19
   \   000005   74ED         MOV     A,#-0x13
   \   000007   12....       LCALL   ?ALLOC_XSTACK8
   \   00000A   89..         MOV     ?V0 + 0,R1
   \   00000C   8A..         MOV     ?V0 + 1,R2
   2165            uint8 *dstIEEEAddr = NULL;
   \   00000E   75..00       MOV     ?V0 + 6,#0x0
   \   000011   75..00       MOV     ?V0 + 7,#0x0
   2166            uint8 dstEP = 0xFF;
   \   000014   75..FF       MOV     ?V0 + 2,#-0x1
   2167            zAddrType_t dstAddr;
   2168            zAddrType_t destinationAddr;
   2169            uint16 msgType;
   2170            uint16 clusterID = 0xFFFF;
   \   000017   7EFF         MOV     R6,#-0x1
   \   000019   7FFF         MOV     R7,#-0x1
   2171            ZDEndDeviceBind_t *ed = NULL;
   \   00001B   75..00       MOV     ?V0 + 4,#0x0
   \   00001E   75..00       MOV     ?V0 + 5,#0x0
   2172            uint8 rspStatus = ZDP_SUCCESS;
   \   000021   E4           CLR     A
   \   000022   85..82       MOV     DPL,?XSP + 0
   \   000025   85..83       MOV     DPH,?XSP + 1
   \   000028   12....       LCALL   ?Subroutine27 & 0xFFFF
   2173          
   2174            if ( matchED == NULL )
   \                     ??CrossCallReturnLabel_261:
   \   00002B   7002         JNZ     ??ZDMatchSendState_0
   \   00002D   A3           INC     DPTR
   \   00002E   E0           MOVX    A,@DPTR
   \                     ??ZDMatchSendState_0:
   \   00002F   7005         JNZ     ??ZDMatchSendState_1
   2175              return ( FALSE );
   \                     ??ZDMatchSendState_2:
   \   000031   7900         MOV     R1,#0x0
   \   000033   02....       LJMP    ??ZDMatchSendState_3 & 0xFFFF
   2176          
   2177            // Check sequence number
   2178            if ( reason == ZDMATCH_REASON_BIND_RSP || reason == ZDMATCH_REASON_UNBIND_RSP )
   \                     ??ZDMatchSendState_1:
   \   000036   7403         MOV     A,#0x3
   \   000038   65..         XRL     A,?V0 + 0
   \   00003A   6006         JZ      ??ZDMatchSendState_4
   \   00003C   7402         MOV     A,#0x2
   \   00003E   65..         XRL     A,?V0 + 0
   \   000040   700C         JNZ     ??ZDMatchSendState_5
   2179            {
   2180              if ( TransSeq != matchED->transSeq )
   \                     ??ZDMatchSendState_4:
   \   000042   90....       MOV     DPTR,#matchED
   \   000045   E0           MOVX    A,@DPTR
   \   000046   2430         ADD     A,#0x30
   \   000048   12....       LCALL   ?Subroutine84 & 0xFFFF
   2181                return( FALSE ); // ignore the message
   2182            }
   \                     ??CrossCallReturnLabel_333:
   \   00004B   6B           XRL     A,R3
   \   00004C   70E3         JNZ     ??ZDMatchSendState_2
   2183          
   2184            // turn off timer
   2185            APS_SetEndDeviceBindTimeout( 0, ZDO_EndDeviceBindMatchTimeoutCB );
   \                     ??ZDMatchSendState_5:
   \   00004E                ; Setup parameters for call to function APS_SetEndDeviceBindTimeout
   \   00004E   7C..         MOV     R4,#(??ZDO_EndDeviceBindMatchTimeoutCB?relay & 0xff)
   \   000050   7D..         MOV     R5,#((??ZDO_EndDeviceBindMatchTimeoutCB?relay >> 8) & 0xff)
   \   000052   7A00         MOV     R2,#0x0
   \   000054   7B00         MOV     R3,#0x0
   \   000056   12....       LCALL   ??APS_SetEndDeviceBindTimeout?relay
   2186          
   2187            if ( reason == ZDMATCH_REASON_TIMEOUT )
   \   000059   7401         MOV     A,#0x1
   \   00005B   65..         XRL     A,?V0 + 0
   \   00005D   700B         JNZ     ??ZDMatchSendState_6
   2188            {
   2189              rspStatus = ZDP_TIMEOUT;    // The process will stop
   \   00005F   7485         MOV     A,#-0x7b
   \                     ??ZDMatchSendState_7:
   \   000061   85..82       MOV     DPL,?XSP + 0
   \   000064   85..83       MOV     DPH,?XSP + 1
   \                     ??ZDMatchSendState_8:
   \   000067   F0           MOVX    @DPTR,A
   \   000068   8038         SJMP    ??ZDMatchSendState_9
   2190            }
   2191          
   2192            if ( reason == ZDMATCH_REASON_START || reason == ZDMATCH_REASON_BIND_RSP )
   \                     ??ZDMatchSendState_6:
   \   00006A   90....       MOV     DPTR,#matchED
   \   00006D   E0           MOVX    A,@DPTR
   \   00006E   242F         ADD     A,#0x2f
   \   000070   12....       LCALL   ??Subroutine238_0 & 0xFFFF
   \                     ??CrossCallReturnLabel_395:
   \   000073   E5..         MOV     A,?V0 + 0
   \   000075   6006         JZ      ??ZDMatchSendState_10
   \   000077   7403         MOV     A,#0x3
   \   000079   65..         XRL     A,?V0 + 0
   \   00007B   700F         JNZ     ??ZDMatchSendState_11
   2193            {
   2194              matchED->sending = ZDMATCH_SENDING_UNBIND;
   \                     ??ZDMatchSendState_10:
   \   00007D   7401         MOV     A,#0x1
   \   00007F   F0           MOVX    @DPTR,A
   2195          
   2196              if ( reason == ZDMATCH_REASON_BIND_RSP && status != ZDP_SUCCESS )
   \   000080   7403         MOV     A,#0x3
   \   000082   65..         XRL     A,?V0 + 0
   \   000084   7018         JNZ     ??ZDMatchSendState_12
   \   000086   E5..         MOV     A,?V0 + 1
   \   000088   6018         JZ      ??ZDMatchSendState_9
   2197              {
   2198                rspStatus = status;
   \   00008A   80D5         SJMP    ??ZDMatchSendState_7
   2199              }
   2200            }
   2201            else if ( reason == ZDMATCH_REASON_UNBIND_RSP )
   \                     ??ZDMatchSendState_11:
   \   00008C   7402         MOV     A,#0x2
   \   00008E   65..         XRL     A,?V0 + 0
   \   000090   7010         JNZ     ??ZDMatchSendState_9
   2202            {
   2203              if ( status == ZDP_SUCCESS )
   \   000092   E5..         MOV     A,?V0 + 1
   \   000094   7004         JNZ     ??ZDMatchSendState_13
   2204              {
   2205                matchED->sending = ZDMATCH_SENDING_UNBIND;
   \   000096   7401         MOV     A,#0x1
   \   000098   80CD         SJMP    ??ZDMatchSendState_8
   2206              }
   2207              else
   2208              {
   2209                matchED->sending = ZDMATCH_SENDING_BIND;
   \                     ??ZDMatchSendState_13:
   \   00009A   7402         MOV     A,#0x2
   \   00009C   80C9         SJMP    ??ZDMatchSendState_8
   2210              }
   2211            }
   2212          
   2213            if ( reason != ZDMATCH_REASON_START && matchED->sending == ZDMATCH_SENDING_UNBIND )
   \                     ??ZDMatchSendState_12:
   \   00009E   E5..         MOV     A,?V0 + 0
   \   0000A0   6019         JZ      ??ZDMatchSendState_14
   \                     ??ZDMatchSendState_9:
   \   0000A2   12....       LCALL   ?Subroutine75 & 0xFFFF
   \                     ??CrossCallReturnLabel_134:
   \   0000A5   7014         JNZ     ??ZDMatchSendState_14
   2214            {
   2215              // Move to the next cluster ID
   2216              if ( matchED->ed1numMatched )
   \   0000A7   90....       MOV     DPTR,#matchED
   \   0000AA   E0           MOVX    A,@DPTR
   \   0000AB   2431         ADD     A,#0x31
   \   0000AD   08           INC     R0
   \   0000AE   08           INC     R0
   \   0000AF   12....       LCALL   ??Subroutine227_0 & 0xFFFF
   \                     ??CrossCallReturnLabel_328:
   \   0000B2   7005         JNZ     ??ZDMatchSendState_15
   2217                matchED->ed1numMatched--;
   2218              else if ( matchED->ed2numMatched )
   \   0000B4   12....       LCALL   ?Subroutine54 & 0xFFFF
   \                     ??CrossCallReturnLabel_410:
   \   0000B7   6002         JZ      ??ZDMatchSendState_14
   2219                matchED->ed2numMatched--;
   \                     ??ZDMatchSendState_15:
   \   0000B9   14           DEC     A
   \   0000BA   F0           MOVX    @DPTR,A
   2220            }
   2221          
   2222            // What message do we send now
   2223            if ( matchED->ed1numMatched )
   \                     ??ZDMatchSendState_14:
   \   0000BB   12....       LCALL   ?Subroutine83 & 0xFFFF
   \                     ??CrossCallReturnLabel_144:
   \   0000BE   FA           MOV     R2,A
   \   0000BF   90....       MOV     DPTR,#matchED
   \   0000C2   6020         JZ      ??ZDMatchSendState_16
   2224            {
   2225              ed = &(matchED->ed1);
   \   0000C4   E0           MOVX    A,@DPTR
   \   0000C5   F5..         MOV     ?V0 + 4,A
   \   0000C7   A3           INC     DPTR
   \   0000C8   E0           MOVX    A,@DPTR
   \   0000C9   F5..         MOV     ?V0 + 5,A
   2226              clusterID = matchED->ed1Matched[matchED->ed1numMatched-1];
   \   0000CB   EA           MOV     A,R2
   \   0000CC   C3           CLR     C
   \   0000CD   33           RLC     A
   \   0000CE   F8           MOV     R0,A
   \   0000CF   E4           CLR     A
   \   0000D0   33           RLC     A
   \   0000D1   F9           MOV     R1,A
   \   0000D2   90....       MOV     DPTR,#matchED
   \   0000D5   E0           MOVX    A,@DPTR
   \   0000D6   2432         ADD     A,#0x32
   \   0000D8   12....       LCALL   ?Subroutine51 & 0xFFFF
   2227              dstIEEEAddr = matchED->ed2.ieeeAddr;
   2228              dstEP = matchED->ed2.endpoint;
   2229            }
   \                     ??CrossCallReturnLabel_263:
   \   0000DB   241D         ADD     A,#0x1d
   \   0000DD   12....       LCALL   ?Subroutine104 & 0xFFFF
   \                     ??CrossCallReturnLabel_265:
   \   0000E0   2425         ADD     A,#0x25
   \   0000E2   802B         SJMP    ??ZDMatchSendState_17
   2230            else if ( matchED->ed2numMatched )
   \                     ??ZDMatchSendState_16:
   \   0000E4   12....       LCALL   ??Subroutine239_0 & 0xFFFF
   \                     ??CrossCallReturnLabel_408:
   \   0000E7   FA           MOV     R2,A
   \   0000E8   6028         JZ      ??CrossCallReturnLabel_122
   2231            {
   2232              ed = &(matchED->ed2);
   \   0000EA   90....       MOV     DPTR,#matchED
   \   0000ED   E0           MOVX    A,@DPTR
   \   0000EE   2417         ADD     A,#0x17
   \   0000F0   F5..         MOV     ?V0 + 4,A
   \   0000F2   A3           INC     DPTR
   \   0000F3   E0           MOVX    A,@DPTR
   \   0000F4   3400         ADDC    A,#0x0
   \   0000F6   F5..         MOV     ?V0 + 5,A
   2233              clusterID = matchED->ed2Matched[matchED->ed2numMatched-1];
   \   0000F8   EA           MOV     A,R2
   \   0000F9   C3           CLR     C
   \   0000FA   33           RLC     A
   \   0000FB   F8           MOV     R0,A
   \   0000FC   E4           CLR     A
   \   0000FD   33           RLC     A
   \   0000FE   F9           MOV     R1,A
   \   0000FF   90....       MOV     DPTR,#matchED
   \   000102   E0           MOVX    A,@DPTR
   \   000103   2435         ADD     A,#0x35
   \   000105   12....       LCALL   ?Subroutine51 & 0xFFFF
   2234              dstIEEEAddr = matchED->ed1.ieeeAddr;
   2235              dstEP = matchED->ed1.endpoint;
   2236            }
   \                     ??CrossCallReturnLabel_264:
   \   000108   2406         ADD     A,#0x6
   \   00010A   12....       LCALL   ?Subroutine104 & 0xFFFF
   \                     ??CrossCallReturnLabel_266:
   \   00010D   240E         ADD     A,#0xe
   \                     ??ZDMatchSendState_17:
   \   00010F   12....       LCALL   ?Subroutine64 & 0xFFFF
   2237          
   2238            dstAddr.addrMode = Addr16Bit;
   \                     ??CrossCallReturnLabel_122:
   \   000112   7409         MOV     A,#0x9
   \   000114   12....       LCALL   ?XSTACK_DISP0_8
   \   000117   7402         MOV     A,#0x2
   \   000119   12....       LCALL   ?Subroutine146 & 0xFFFF
   2239          
   2240            // Send the next message
   2241            if ( rspStatus == ZDP_SUCCESS && ed )
   \                     ??CrossCallReturnLabel_208:
   \   00011C   6003         JZ      $+5
   \   00011E   02....       LJMP    ??ZDMatchSendState_18 & 0xFFFF
   \   000121   E5..         MOV     A,?V0 + 4
   \   000123   7002         JNZ     ??ZDMatchSendState_19
   \   000125   E5..         MOV     A,?V0 + 5
   \                     ??ZDMatchSendState_19:
   \   000127   7003         JNZ     $+5
   \   000129   02....       LJMP    ??ZDMatchSendState_18 & 0xFFFF
   2242            {
   2243              // Send unbind/bind message to source
   2244              if ( matchED->sending == ZDMATCH_SENDING_UNBIND )
   \   00012C   12....       LCALL   ?Subroutine75 & 0xFFFF
   \                     ??CrossCallReturnLabel_135:
   \   00012F   7005         JNZ     ??ZDMatchSendState_20
   2245                msgType = Unbind_req;
   \   000131   75..22       MOV     ?V0 + 0,#0x22
   \   000134   8003         SJMP    ??ZDMatchSendState_21
   2246              else
   2247                msgType = Bind_req;
   \                     ??ZDMatchSendState_20:
   \   000136   75..21       MOV     ?V0 + 0,#0x21
   2248          
   2249              dstAddr.addr.shortAddr = ed->srcAddr;
   \                     ??ZDMatchSendState_21:
   \   000139   85..82       MOV     DPL,?V0 + 4
   \   00013C   85..83       MOV     DPH,?V0 + 5
   \   00013F   12....       LCALL   ??Subroutine245_0 & 0xFFFF
   \                     ??CrossCallReturnLabel_452:
   \   000142   12....       LCALL   ?XSTACK_DISP0_8
   \   000145   12....       LCALL   ??Subroutine225_0 & 0xFFFF
   2250          
   2251              // Save off the transaction sequence number
   2252              matchED->transSeq = ZDP_TransID;
   \                     ??CrossCallReturnLabel_322:
   \   000148   90....       MOV     DPTR,#ZDP_TransID
   \   00014B   E0           MOVX    A,@DPTR
   \   00014C   C0E0         PUSH    A
   \   00014E   90....       MOV     DPTR,#matchED
   \   000151   E0           MOVX    A,@DPTR
   \   000152   2430         ADD     A,#0x30
   \   000154   12....       LCALL   ??Subroutine238_0 & 0xFFFF
   \                     ??CrossCallReturnLabel_396:
   \   000157   D0E0         POP     A
   \   000159   F0           MOVX    @DPTR,A
   2253          
   2254              destinationAddr.addrMode = Addr64Bit;
   \   00015A   7412         MOV     A,#0x12
   \   00015C   12....       LCALL   ?XSTACK_DISP0_8
   \   00015F   7403         MOV     A,#0x3
   \   000161   F0           MOVX    @DPTR,A
   2255              osal_cpyExtAddr( destinationAddr.addr.extAddr, dstIEEEAddr );
   \   000162                ; Setup parameters for call to function sAddrExtCpy
   \   000162   AC..         MOV     R4,?V0 + 6
   \   000164   AD..         MOV     R5,?V0 + 7
   \   000166   740A         MOV     A,#0xa
   \   000168   12....       LCALL   ?XSTACK_DISP0_8
   \   00016B   AA82         MOV     R2,DPL
   \   00016D   AB83         MOV     R3,DPH
   \   00016F   12....       LCALL   ??sAddrExtCpy?relay
   2256          
   2257              ZDP_BindUnbindReq( msgType, &dstAddr, ed->ieeeAddr, ed->endpoint, clusterID,
   2258                  &destinationAddr, dstEP, ed->SecurityUse );
   \   000172                ; Setup parameters for call to function ZDP_BindUnbindReq
   \   000172   85..82       MOV     DPL,?V0 + 4
   \   000175   85..83       MOV     DPH,?V0 + 5
   \   000178   A3           INC     DPTR
   \   000179   E0           MOVX    A,@DPTR
   \   00017A   F5..         MOV     ?V0 + 3,A
   \   00017C   78..         MOV     R0,#?V0 + 3
   \   00017E   12....       LCALL   ?PUSH_XSTACK_I_ONE
   \   000181   78..         MOV     R0,#?V0 + 2
   \   000183   12....       LCALL   ?PUSH_XSTACK_I_ONE
   \   000186   740C         MOV     A,#0xc
   \   000188   12....       LCALL   ?XSTACK_DISP0_8
   \   00018B   8582..       MOV     ?V0 + 2,DPL
   \   00018E   8583..       MOV     ?V0 + 3,DPH
   \   000191   78..         MOV     R0,#?V0 + 2
   \   000193   12....       LCALL   ?PUSH_XSTACK_I_TWO
   \   000196   8E..         MOV     ?V0 + 2,R6
   \   000198   8F..         MOV     ?V0 + 3,R7
   \   00019A   78..         MOV     R0,#?V0 + 2
   \   00019C   12....       LCALL   ?PUSH_XSTACK_I_TWO
   \   00019F   E5..         MOV     A,?V0 + 4
   \   0001A1   2406         ADD     A,#0x6
   \   0001A3   F5..         MOV     ?V0 + 2,A
   \   0001A5   E5..         MOV     A,?V0 + 5
   \   0001A7   12....       LCALL   ??Subroutine260_0 & 0xFFFF
   \                     ??CrossCallReturnLabel_576:
   \   0001AA   78..         MOV     R0,#?V0 + 2
   \   0001AC   12....       LCALL   ?PUSH_XSTACK_I_TWO
   \   0001AF   E5..         MOV     A,?V0 + 4
   \   0001B1   240E         ADD     A,#0xe
   \   0001B3   12....       LCALL   ?Subroutine122 & 0xFFFF
   \                     ??CrossCallReturnLabel_304:
   \   0001B6   7409         MOV     A,#0x9
   \   0001B8   12....       LCALL   ?XSTACK_DISP0_8
   \   0001BB   AC82         MOV     R4,DPL
   \   0001BD   AD83         MOV     R5,DPH
   \   0001BF   AA..         MOV     R2,?V0 + 0
   \   0001C1   7B00         MOV     R3,#0x0
   \   0001C3   12....       LCALL   ??ZDP_BindUnbindReq?relay
   \   0001C6   7408         MOV     A,#0x8
   \   0001C8   12....       LCALL   ?DEALLOC_XSTACK8
   2259          
   2260              // Set timeout for response
   2261              APS_SetEndDeviceBindTimeout( AIB_MaxBindingTime, ZDO_EndDeviceBindMatchTimeoutCB );
   \   0001CB                ; Setup parameters for call to function APS_SetEndDeviceBindTimeout
   \   0001CB   12....       LCALL   ?Subroutine96 & 0xFFFF
   2262            }
   \                     ??CrossCallReturnLabel_157:
   \   0001CE   02....       LJMP    ??ZDMatchSendState_22 & 0xFFFF
   2263            else
   2264            {
   2265              // Send the response messages to requesting devices
   2266              // send response to first requester
   2267              dstAddr.addr.shortAddr = matchED->ed1.srcAddr;
   \                     ??ZDMatchSendState_18:
   \   0001D1   90....       MOV     DPTR,#matchED
   \   0001D4   E0           MOVX    A,@DPTR
   \   0001D5   12....       LCALL   ?Subroutine61 & 0xFFFF
   \                     ??CrossCallReturnLabel_454:
   \   0001D8   12....       LCALL   ?XSTACK_DISP0_8
   \   0001DB   12....       LCALL   ?Subroutine8 & 0xFFFF
   2268              ZDP_EndDeviceBindRsp( matchED->ed1.TransSeq, &dstAddr, rspStatus, matchED->ed1.SecurityUse );
   \                     ??CrossCallReturnLabel_365:
   \   0001DE   12....       LCALL   ?PUSH_XSTACK_I_ONE
   \   0001E1   7401         MOV     A,#0x1
   \   0001E3   12....       LCALL   ?XSTACK_DISP0_8
   \   0001E6   8582..       MOV     ?V0 + 0,DPL
   \   0001E9   8583..       MOV     ?V0 + 1,DPH
   \   0001EC   78..         MOV     R0,#?V0 + 0
   \   0001EE   12....       LCALL   ?PUSH_XSTACK_I_TWO
   \   0001F1   75..20       MOV     ?V0 + 0,#0x20
   \   0001F4   75..80       MOV     ?V0 + 1,#-0x80
   \   0001F7   78..         MOV     R0,#?V0 + 0
   \   0001F9   12....       LCALL   ?PUSH_XSTACK_I_TWO
   \   0001FC   7901         MOV     R1,#0x1
   \   0001FE   7406         MOV     A,#0x6
   \   000200   12....       LCALL   ?XSTACK_DISP0_8
   \   000203   12....       LCALL   ?Subroutine93 & 0xFFFF
   \                     ??CrossCallReturnLabel_153:
   \   000206   12....       LCALL   ?DEALLOC_XSTACK8
   2269          
   2270              // send response to second requester
   2271              if ( matchED->state == ZDMATCH_SENDING_BINDS )
   \   000209   12....       LCALL   ?Subroutine74 & 0xFFFF
   \                     ??CrossCallReturnLabel_133:
   \   00020C   704D         JNZ     ??ZDMatchSendState_23
   2272              {
   2273                dstAddr.addr.shortAddr = matchED->ed2.srcAddr;
   \   00020E   90....       MOV     DPTR,#matchED
   \   000211   E0           MOVX    A,@DPTR
   \   000212   2419         ADD     A,#0x19
   \   000214   12....       LCALL   ??Subroutine238_0 & 0xFFFF
   2274                ZDP_EndDeviceBindRsp( matchED->ed2.TransSeq, &dstAddr, rspStatus, matchED->ed2.SecurityUse );
   2275              }
   \                     ??CrossCallReturnLabel_397:
   \   000217   12....       LCALL   ??Subroutine246_0 & 0xFFFF
   \                     ??CrossCallReturnLabel_450:
   \   00021A   12....       LCALL   ?XSTACK_DISP0_8
   \   00021D   E8           MOV     A,R0
   \   00021E   F0           MOVX    @DPTR,A
   \   00021F   A3           INC     DPTR
   \   000220   E9           MOV     A,R1
   \   000221   12....       LCALL   ?Subroutine27 & 0xFFFF
   \                     ??CrossCallReturnLabel_262:
   \   000224   2418         ADD     A,#0x18
   \   000226   12....       LCALL   ??Subroutine221_0 & 0xFFFF
   \                     ??CrossCallReturnLabel_372:
   \   000229   12....       LCALL   ?PUSH_XSTACK_I_ONE
   \   00022C   7401         MOV     A,#0x1
   \   00022E   12....       LCALL   ?XSTACK_DISP0_8
   \   000231   8582..       MOV     ?V0 + 0,DPL
   \   000234   8583..       MOV     ?V0 + 1,DPH
   \   000237   78..         MOV     R0,#?V0 + 0
   \   000239   12....       LCALL   ?PUSH_XSTACK_I_TWO
   \   00023C   75..20       MOV     ?V0 + 0,#0x20
   \   00023F   75..80       MOV     ?V0 + 1,#-0x80
   \   000242   78..         MOV     R0,#?V0 + 0
   \   000244   12....       LCALL   ?PUSH_XSTACK_I_TWO
   \   000247   7901         MOV     R1,#0x1
   \   000249   7406         MOV     A,#0x6
   \   00024B   12....       LCALL   ?XSTACK_DISP0_8
   \   00024E   AC82         MOV     R4,DPL
   \   000250   AD83         MOV     R5,DPH
   \   000252   12....       LCALL   ?Subroutine105 & 0xFFFF
   \                     ??CrossCallReturnLabel_241:
   \   000255   12....       LCALL   ?Subroutine175 & 0xFFFF
   \                     ??CrossCallReturnLabel_362:
   \   000258   12....       LCALL   ?DEALLOC_XSTACK8
   2276          
   2277              // Process ended - release memory used
   2278              ZDO_RemoveMatchMemory();
   \                     ??ZDMatchSendState_23:
   \   00025B                ; Setup parameters for call to function ZDO_RemoveMatchMemory
   \   00025B   12....       LCALL   ??ZDO_RemoveMatchMemory?relay
   2279            }
   2280          
   2281            return ( TRUE );
   \                     ??ZDMatchSendState_22:
   \   00025E   7901         MOV     R1,#0x1
   \                     ??ZDMatchSendState_3:
   \   000260   7413         MOV     A,#0x13
   \   000262   02....       LJMP    ?Subroutine210 & 0xFFFF
   2282          }

   \                                 In  segment BANKED_CODE, align 1, keep-with-next
   \                     ?Subroutine104:
   \   000000   F5..         MOV     ?V0 + 6,A
   \   000002   A3           INC     DPTR
   \   000003   E0           MOVX    A,@DPTR
   \   000004   3400         ADDC    A,#0x0
   \   000006   F5..         MOV     ?V0 + 7,A
   \   000008                REQUIRE ?Subroutine201
   \   000008                ; // Fall through to label ?Subroutine201

   \                                 In  segment BANKED_CODE, align 1, keep-with-next
   \                     ?Subroutine75:
   \   000000   90....       MOV     DPTR,#matchED
   \   000003   E0           MOVX    A,@DPTR
   \   000004   242F         ADD     A,#0x2f
   \   000006   12....       LCALL   ?Subroutine155 & 0xFFFF
   \                     ??CrossCallReturnLabel_443:
   \   000009   6401         XRL     A,#0x1
   \   00000B   22           RET

   \                                 In  segment BANKED_CODE, align 1, keep-with-next
   \                     ?Subroutine51:
   \   000000   12....       LCALL   ?Subroutine163 & 0xFFFF
   \                     ??CrossCallReturnLabel_281:
   \   000003   E0           MOVX    A,@DPTR
   \   000004   28           ADD     A,R0
   \   000005   F8           MOV     R0,A
   \   000006   A3           INC     DPTR
   \   000007   E0           MOVX    A,@DPTR
   \   000008   39           ADDC    A,R1
   \   000009   F9           MOV     R1,A
   \   00000A   74FE         MOV     A,#-0x2
   \   00000C   28           ADD     A,R0
   \   00000D   F582         MOV     DPL,A
   \   00000F   EE           MOV     A,R6
   \   000010   39           ADDC    A,R1
   \   000011   12....       LCALL   ?Subroutine161 & 0xFFFF
   \                     ??CrossCallReturnLabel_463:
   \   000014   80..         SJMP    ?Subroutine201

   \                                 In  segment BANKED_CODE, align 1, keep-with-next
   \                     ?Subroutine146:
   \   000000   F0           MOVX    @DPTR,A
   \   000001   85..82       MOV     DPL,?XSP + 0
   \   000004   85..83       MOV     DPH,?XSP + 1
   \   000007   E0           MOVX    A,@DPTR
   \   000008   22           RET
   2283          
   2284          /*********************************************************************
   2285           * @fn      ZDO_EndDeviceBindMatchTimeoutCB()
   2286           *
   2287           * @brief   End device bind timeout.
   2288           *
   2289           * @param  none
   2290           *
   2291           * @return  none
   2292           */

   \                                 In  segment BANKED_CODE, align 1, keep-with-next
   2293          static void ZDO_EndDeviceBindMatchTimeoutCB( void )
   \                     ZDO_EndDeviceBindMatchTimeoutCB:
   2294          {
   \   000000   C082         PUSH    DPL
   \   000002   C083         PUSH    DPH
   \   000004                ; Saved register size: 2
   \   000004                ; Auto size: 0
   2295            ZDMatchSendState( ZDMATCH_REASON_TIMEOUT, ZDP_TIMEOUT, 0 );
   \   000004                ; Setup parameters for call to function ZDMatchSendState
   \   000004   7B00         MOV     R3,#0x0
   \   000006   7A85         MOV     R2,#-0x7b
   \   000008   7901         MOV     R1,#0x1
   \   00000A   12....       LCALL   ??ZDMatchSendState?relay
   2296          }
   \   00000D   02....       LJMP    ?Subroutine186 & 0xFFFF
   2297          
   2298          /*********************************************************************
   2299           * ZDO MESSAGE PARSING API FUNCTIONS
   2300           */
   2301          
   2302          /*********************************************************************
   2303           * @fn          ZDO_ParseEndDeviceBindReq
   2304           *
   2305           * @brief       This function parses the End_Device_Bind_req message.
   2306           *
   2307           *     NOTE:  The clusters lists in bindReq are allocated in this
   2308           *            function and must be freed by that calling function.
   2309           *
   2310           * @param       inMsg  - incoming message (request)
   2311           * @param       bindReq - pointer to place to parse message to
   2312           *
   2313           * @return      none
   2314           */

   \                                 In  segment BANKED_CODE, align 1, keep-with-next
   2315          void ZDO_ParseEndDeviceBindReq( zdoIncomingMsg_t *inMsg, ZDEndDeviceBind_t *bindReq )
   \                     ZDO_ParseEndDeviceBindReq:
   2316          {
   \   000000   74F0         MOV     A,#-0x10
   \   000002   12....       LCALL   ?BANKED_ENTER_XDATA
   \   000005                ; Saved register size: 16
   \   000005                ; Auto size: 0
   \   000005   8C..         MOV     ?V0 + 0,R4
   \   000007   8D..         MOV     ?V0 + 1,R5
   2317            uint8 *msg;
   2318          
   2319            // Parse the message
   2320            bindReq->TransSeq = inMsg->TransSeq;
   \   000009   EA           MOV     A,R2
   \   00000A   240F         ADD     A,#0xf
   \   00000C   12....       LCALL   ?Subroutine92 & 0xFFFF
   \                     ??CrossCallReturnLabel_588:
   \   00000F   12....       LCALL   ?Subroutine42 & 0xFFFF
   2321            bindReq->srcAddr = inMsg->srcAddr.addr.shortAddr;
   \                     ??CrossCallReturnLabel_79:
   \   000012   12....       LCALL   ??Subroutine231_0 & 0xFFFF
   \                     ??CrossCallReturnLabel_348:
   \   000015   8C82         MOV     DPL,R4
   \   000017   8D83         MOV     DPH,R5
   \   000019   A3           INC     DPTR
   \   00001A   A3           INC     DPTR
   \   00001B   12....       LCALL   ??Subroutine225_0 & 0xFFFF
   2322            bindReq->SecurityUse = inMsg->SecurityUse;
   \                     ??CrossCallReturnLabel_323:
   \   00001E   EA           MOV     A,R2
   \   00001F   240E         ADD     A,#0xe
   \   000021   12....       LCALL   ?Subroutine92 & 0xFFFF
   \                     ??CrossCallReturnLabel_589:
   \   000024   A3           INC     DPTR
   \   000025   12....       LCALL   ?Subroutine28 & 0xFFFF
   2323            msg = inMsg->asdu;
   \                     ??CrossCallReturnLabel_37:
   \   000028   FE           MOV     R6,A
   \   000029   A3           INC     DPTR
   \   00002A   E0           MOVX    A,@DPTR
   \   00002B   12....       LCALL   ?Subroutine69 & 0xFFFF
   2324          
   2325            bindReq->localCoordinator = BUILD_UINT16( msg[0], msg[1] );
   \                     ??CrossCallReturnLabel_633:
   \   00002E   8C82         MOV     DPL,R4
   \   000030   8D83         MOV     DPH,R5
   \   000032   A3           INC     DPTR
   \   000033   A3           INC     DPTR
   \   000034   A3           INC     DPTR
   \   000035   A3           INC     DPTR
   \   000036   12....       LCALL   ?Subroutine11 & 0xFFFF
   2326            msg += 2;
   2327          
   2328            osal_cpyExtAddr( bindReq->ieeeAddr, msg );
   \                     ??CrossCallReturnLabel_14:
   \   000039   2406         ADD     A,#0x6
   \   00003B   FA           MOV     R2,A
   \   00003C   E5..         MOV     A,?V0 + 1
   \   00003E   12....       LCALL   ?Subroutine46 & 0xFFFF
   2329            msg += Z_EXTADDR_LEN;
   2330          
   2331            bindReq->endpoint = *msg++;
   \                     ??CrossCallReturnLabel_472:
   \   000041   C0E0         PUSH    A
   \   000043   12....       LCALL   ?Subroutine124 & 0xFFFF
   \                     ??CrossCallReturnLabel_550:
   \   000046   D0E0         POP     A
   \   000048   12....       LCALL   ??Subroutine250_0 & 0xFFFF
   2332            bindReq->profileID = BUILD_UINT16( msg[0], msg[1] );
   \                     ??CrossCallReturnLabel_637:
   \   00004B   F8           MOV     R0,A
   \   00004C   E5..         MOV     A,?V0 + 0
   \   00004E   240F         ADD     A,#0xf
   \   000050   12....       LCALL   ??Subroutine254_0 & 0xFFFF
   \                     ??CrossCallReturnLabel_543:
   \   000053   E8           MOV     A,R0
   \   000054   12....       LCALL   ?Subroutine22 & 0xFFFF
   2333            msg += 2;
   2334          
   2335            bindReq->inClusters = NULL;
   \                     ??CrossCallReturnLabel_29:
   \   000057   2412         ADD     A,#0x12
   \   000059   F5..         MOV     ?V0 + 2,A
   \   00005B   E5..         MOV     A,?V0 + 1
   \   00005D   12....       LCALL   ??Subroutine260_0 & 0xFFFF
   \                     ??CrossCallReturnLabel_577:
   \   000060   85..82       MOV     DPL,?V0 + 2
   \   000063   F583         MOV     DPH,A
   \   000065   E4           CLR     A
   \   000066   F0           MOVX    @DPTR,A
   \   000067   A3           INC     DPTR
   \   000068   F0           MOVX    @DPTR,A
   2336            bindReq->outClusters = NULL;
   \   000069   E5..         MOV     A,?V0 + 0
   \   00006B   2415         ADD     A,#0x15
   \   00006D   F5..         MOV     ?V0 + 6,A
   \   00006F   E5..         MOV     A,?V0 + 1
   \   000071   3400         ADDC    A,#0x0
   \   000073   F5..         MOV     ?V0 + 7,A
   \   000075   85..82       MOV     DPL,?V0 + 6
   \   000078   F583         MOV     DPH,A
   \   00007A   E4           CLR     A
   \   00007B   F0           MOVX    @DPTR,A
   \   00007C   A3           INC     DPTR
   \   00007D   12....       LCALL   ?Subroutine183 & 0xFFFF
   2337          
   2338            if ((bindReq->numInClusters = *msg++) &&
   2339                (bindReq->inClusters = (uint16*)osal_mem_alloc( (bindReq->numInClusters * sizeof( uint16 )))))
   \                     ??CrossCallReturnLabel_483:
   \   000080   E0           MOVX    A,@DPTR
   \   000081   FB           MOV     R3,A
   \   000082   A3           INC     DPTR
   \   000083   0E           INC     R6
   \   000084   AF83         MOV     R7,DPH
   \   000086   E5..         MOV     A,?V0 + 0
   \   000088   2411         ADD     A,#0x11
   \   00008A   F5..         MOV     ?V0 + 4,A
   \   00008C   E5..         MOV     A,?V0 + 1
   \   00008E   3400         ADDC    A,#0x0
   \   000090   F5..         MOV     ?V0 + 5,A
   \   000092   EB           MOV     A,R3
   \   000093   85..82       MOV     DPL,?V0 + 4
   \   000096   85..83       MOV     DPH,?V0 + 5
   \   000099   F0           MOVX    @DPTR,A
   \   00009A   6026         JZ      ??ZDO_ParseEndDeviceBindReq_0
   \   00009C                ; Setup parameters for call to function osal_mem_alloc
   \   00009C   12....       LCALL   ?Subroutine29 & 0xFFFF
   \                     ??CrossCallReturnLabel_39:
   \   00009F   FC           MOV     R4,A
   \   0000A0   A3           INC     DPTR
   \   0000A1   E0           MOVX    A,@DPTR
   \   0000A2   FD           MOV     R5,A
   \   0000A3   EC           MOV     A,R4
   \   0000A4   7001         JNZ     ??ZDO_ParseEndDeviceBindReq_1
   \   0000A6   ED           MOV     A,R5
   \                     ??ZDO_ParseEndDeviceBindReq_1:
   \   0000A7   6019         JZ      ??ZDO_ParseEndDeviceBindReq_0
   2340            {
   2341              msg = ZDO_ConvertOTAClusters( bindReq->numInClusters, msg, bindReq->inClusters );
   \   0000A9                ; Setup parameters for call to function ZDO_ConvertOTAClusters
   \   0000A9   EE           MOV     A,R6
   \   0000AA   FA           MOV     R2,A
   \   0000AB   EF           MOV     A,R7
   \   0000AC   FB           MOV     R3,A
   \   0000AD   85..82       MOV     DPL,?V0 + 4
   \   0000B0   85..83       MOV     DPH,?V0 + 5
   \   0000B3   E0           MOVX    A,@DPTR
   \   0000B4   F9           MOV     R1,A
   \   0000B5   12....       LCALL   ??ZDO_ConvertOTAClusters?relay
   \   0000B8   8A..         MOV     ?V0 + 2,R2
   \   0000BA   8B..         MOV     ?V0 + 3,R3
   \   0000BC   AE..         MOV     R6,?V0 + 2
   \   0000BE   AF..         MOV     R7,?V0 + 3
   \   0000C0   8008         SJMP    ??ZDO_ParseEndDeviceBindReq_2
   2342            }
   2343            else
   2344            {
   2345              bindReq->numInClusters = 0;
   \                     ??ZDO_ParseEndDeviceBindReq_0:
   \   0000C2   E4           CLR     A
   \   0000C3   85..82       MOV     DPL,?V0 + 4
   \   0000C6   85..83       MOV     DPH,?V0 + 5
   \   0000C9   F0           MOVX    @DPTR,A
   2346            }
   2347          
   2348            if ((bindReq->numOutClusters = *msg++) &&
   2349                (bindReq->outClusters = (uint16*)osal_mem_alloc((bindReq->numOutClusters * sizeof(uint16)))))
   \                     ??ZDO_ParseEndDeviceBindReq_2:
   \   0000CA   8E82         MOV     DPL,R6
   \   0000CC   8F83         MOV     DPH,R7
   \   0000CE   E0           MOVX    A,@DPTR
   \   0000CF   FB           MOV     R3,A
   \   0000D0   A3           INC     DPTR
   \   0000D1   AE82         MOV     R6,DPL
   \   0000D3   AF83         MOV     R7,DPH
   \   0000D5   E5..         MOV     A,?V0 + 0
   \   0000D7   2414         ADD     A,#0x14
   \   0000D9   12....       LCALL   ?Subroutine127 & 0xFFFF
   \                     ??CrossCallReturnLabel_468:
   \   0000DC   EB           MOV     A,R3
   \   0000DD   85..82       MOV     DPL,?V0 + 0
   \   0000E0   85..83       MOV     DPH,?V0 + 1
   \   0000E3   F0           MOVX    @DPTR,A
   \   0000E4   6032         JZ      ??ZDO_ParseEndDeviceBindReq_3
   \   0000E6                ; Setup parameters for call to function osal_mem_alloc
   \   0000E6   C3           CLR     C
   \   0000E7   33           RLC     A
   \   0000E8   FA           MOV     R2,A
   \   0000E9   E4           CLR     A
   \   0000EA   33           RLC     A
   \   0000EB   FB           MOV     R3,A
   \   0000EC   12....       LCALL   ??osal_mem_alloc?relay
   \   0000EF   85..82       MOV     DPL,?V0 + 6
   \   0000F2   85..83       MOV     DPH,?V0 + 7
   \   0000F5   12....       LCALL   ?Subroutine38 & 0xFFFF
   \                     ??CrossCallReturnLabel_71:
   \   0000F8   85..82       MOV     DPL,?V0 + 6
   \   0000FB   85..83       MOV     DPH,?V0 + 7
   \   0000FE   12....       LCALL   ?Subroutine102 & 0xFFFF
   \                     ??CrossCallReturnLabel_165:
   \   000101   EC           MOV     A,R4
   \   000102   7001         JNZ     ??ZDO_ParseEndDeviceBindReq_4
   \   000104   ED           MOV     A,R5
   \                     ??ZDO_ParseEndDeviceBindReq_4:
   \   000105   6011         JZ      ??ZDO_ParseEndDeviceBindReq_3
   2350            {
   2351              msg = ZDO_ConvertOTAClusters( bindReq->numOutClusters, msg, bindReq->outClusters );
   \   000107                ; Setup parameters for call to function ZDO_ConvertOTAClusters
   \   000107   EE           MOV     A,R6
   \   000108   FA           MOV     R2,A
   \   000109   EF           MOV     A,R7
   \   00010A   FB           MOV     R3,A
   \   00010B   85..82       MOV     DPL,?V0 + 0
   \   00010E   85..83       MOV     DPH,?V0 + 1
   \   000111   E0           MOVX    A,@DPTR
   \   000112   F9           MOV     R1,A
   \   000113   12....       LCALL   ??ZDO_ConvertOTAClusters?relay
   \   000116   8008         SJMP    ??ZDO_ParseEndDeviceBindReq_5
   2352            }
   2353            else
   2354            {
   2355              bindReq->numOutClusters = 0;
   \                     ??ZDO_ParseEndDeviceBindReq_3:
   \   000118   E4           CLR     A
   \   000119   85..82       MOV     DPL,?V0 + 0
   \   00011C   85..83       MOV     DPH,?V0 + 1
   \   00011F   F0           MOVX    @DPTR,A
   2356            }
   2357          }
   \                     ??ZDO_ParseEndDeviceBindReq_5:
   \   000120   02....       LJMP    ??Subroutine222_0 & 0xFFFF

   \                                 In  segment BANKED_CODE, align 1, keep-with-next
   \                     ?Subroutine127:
   \   000000   F5..         MOV     ?V0 + 0,A
   \   000002   E5..         MOV     A,?V0 + 1
   \   000004                REQUIRE ??Subroutine248_0
   \   000004                ; // Fall through to label ??Subroutine248_0

   \                                 In  segment BANKED_CODE, align 1, keep-with-next
   \                     ?Subroutine46:
   \   000000   3400         ADDC    A,#0x0
   \   000002   FB           MOV     R3,A
   \   000003                REQUIRE ??Subroutine249_0
   \   000003                ; // Fall through to label ??Subroutine249_0

   \                                 In  segment BANKED_CODE, align 1, keep-with-next
   \                     ??Subroutine249_0:
   \   000000   12....       LCALL   ??sAddrExtCpy?relay
   \   000003   EE           MOV     A,R6
   \   000004   2408         ADD     A,#0x8
   \   000006   12....       LCALL   ?Subroutine168 & 0xFFFF
   \                     ??CrossCallReturnLabel_602:
   \   000009   22           RET

   \                                 In  segment BANKED_CODE, align 1, keep-with-next
   \                     ??Subroutine250_0:
   \   000000   12....       LCALL   ?Subroutine142 & 0xFFFF
   \                     ??CrossCallReturnLabel_477:
   \   000003   02....       LJMP    ?Subroutine191 & 0xFFFF

   \                                 In  segment BANKED_CODE, align 1, keep-with-next
   \                     ?Subroutine22:
   \   000000   12....       LCALL   ?Subroutine136 & 0xFFFF
   \                     ??CrossCallReturnLabel_199:
   \   000003   E5..         MOV     A,?V0 + 0
   \   000005   22           RET

   \                                 In  segment BANKED_CODE, align 1, keep-with-next
   \                     ?Subroutine124:
   \   000000   E5..         MOV     A,?V0 + 0
   \   000002   240E         ADD     A,#0xe
   \   000004                REQUIRE ??Subroutine254_0
   \   000004                ; // Fall through to label ??Subroutine254_0

   \                                 In  segment BANKED_CODE, align 1, keep-with-next
   \                     ??Subroutine254_0:
   \   000000   F582         MOV     DPL,A
   \   000002                REQUIRE ??Subroutine255_0
   \   000002                ; // Fall through to label ??Subroutine255_0

   \                                 In  segment BANKED_CODE, align 1, keep-with-next
   \                     ??Subroutine255_0:
   \   000000   E5..         MOV     A,?V0 + 1
   \   000002                REQUIRE ??Subroutine256_0
   \   000002                ; // Fall through to label ??Subroutine256_0

   \                                 In  segment BANKED_CODE, align 1, keep-with-next
   \                     ?Subroutine42:
   \   000000   12....       LCALL   ?Subroutine148 & 0xFFFF
   \                     ??CrossCallReturnLabel_212:
   \   000003   A3           INC     DPTR
   \   000004   22           RET

   \                                 In  segment BANKED_CODE, align 1, keep-with-next
   \                     ?Subroutine148:
   \   000000   F0           MOVX    @DPTR,A
   \   000001   8A82         MOV     DPL,R2
   \   000003   8B83         MOV     DPH,R3
   \   000005   A3           INC     DPTR
   \   000006   22           RET

   \                                 In  segment BANKED_CODE, align 1, keep-with-next
   \                     ?Subroutine142:
   \   000000   12....       LCALL   ?Subroutine177 & 0xFFFF
   \                     ??CrossCallReturnLabel_481:
   \   000003   AE82         MOV     R6,DPL
   \   000005   AF83         MOV     R7,DPH
   \   000007   E0           MOVX    A,@DPTR
   \   000008   22           RET

   \                                 In  segment BANKED_CODE, align 1, keep-with-next
   \                     ?Subroutine164:
   \   000000   EA           MOV     A,R2
   \   000001   2413         ADD     A,#0x13
   \   000003   F582         MOV     DPL,A
   \   000005   EB           MOV     A,R3
   \   000006   02....       LJMP    ?Subroutine199 & 0xFFFF

   \                                 In  segment BANKED_CODE, align 1, keep-with-next
   \                     ?Subroutine136:
   \   000000   F0           MOVX    @DPTR,A
   \   000001   A3           INC     DPTR
   \   000002   E9           MOV     A,R1
   \   000003   12....       LCALL   ?Subroutine176 & 0xFFFF
   \                     ??CrossCallReturnLabel_594:
   \   000006   22           RET

   \                                 In  segment BANKED_CODE, align 1, keep-with-next
   \                     ?Subroutine176:
   \   000000   F0           MOVX    @DPTR,A
   \   000001   12....       LCALL   ?Subroutine185 & 0xFFFF
   \                     ??CrossCallReturnLabel_596:
   \   000004   22           RET

   \                                 In  segment BANKED_CODE, align 1, keep-with-next
   \                     ?Subroutine92:
   \   000000   F582         MOV     DPL,A
   \   000002   EB           MOV     A,R3
   \   000003   12....       LCALL   ?Subroutine199 & 0xFFFF
   \                     ??CrossCallReturnLabel_553:
   \   000006                REQUIRE ??Subroutine262_0
   \   000006                ; // Fall through to label ??Subroutine262_0

   \                                 In  segment BANKED_CODE, align 1, keep-with-next
   \                     ??Subroutine262_0:
   \   000000   E0           MOVX    A,@DPTR
   \   000001   8C82         MOV     DPL,R4
   \   000003   8D83         MOV     DPH,R5
   \   000005   22           RET

   \                                 In  segment BANKED_CODE, align 1, keep-with-next
   \                     ?Subroutine29:
   \   000000   C3           CLR     C
   \   000001   33           RLC     A
   \   000002   FA           MOV     R2,A
   \   000003   E4           CLR     A
   \   000004   33           RLC     A
   \   000005   FB           MOV     R3,A
   \   000006   12....       LCALL   ??osal_mem_alloc?relay
   \   000009   85..82       MOV     DPL,?V0 + 2
   \   00000C   85..83       MOV     DPH,?V0 + 3
   \   00000F   12....       LCALL   ?Subroutine145 & 0xFFFF
   \                     ??CrossCallReturnLabel_340:
   \   000012   85..82       MOV     DPL,?V0 + 2
   \   000015   85..83       MOV     DPH,?V0 + 3
   \   000018   E0           MOVX    A,@DPTR
   \   000019   22           RET

   \                                 In  segment BANKED_CODE, align 1, keep-with-next
   \                     ?Subroutine11:
   \   000000   12....       LCALL   ?Subroutine136 & 0xFFFF
   \                     ??CrossCallReturnLabel_201:
   \   000003                ; Setup parameters for call to function sAddrExtCpy
   \   000003                ; Setup parameters for call to function sAddrExtCpy
   \   000003   EE           MOV     A,R6
   \   000004   FC           MOV     R4,A
   \   000005   EF           MOV     A,R7
   \   000006   FD           MOV     R5,A
   \   000007   E5..         MOV     A,?V0 + 0
   \   000009   22           RET

   \                                 In  segment BANKED_CODE, align 1, keep-with-next
   \                     ?Subroutine28:
   \   000000   F0           MOVX    @DPTR,A
   \   000001   12....       LCALL   ?Subroutine164 & 0xFFFF
   \                     ??CrossCallReturnLabel_556:
   \   000004   E0           MOVX    A,@DPTR
   \   000005   22           RET

   \                                 In  segment BANKED_CODE, align 1, keep-with-next
   \                     ?Subroutine69:
   \   000000   FF           MOV     R7,A
   \   000001                REQUIRE ?Subroutine191
   \   000001                REQUIRE ??Subroutine270_0
   \   000001                ; // Fall through to label ??Subroutine270_0

   \                                 In  segment BANKED_CODE, align 1, keep-with-next
   \                     ??Subroutine270_0:
   \   000000   8E82         MOV     DPL,R6
   \   000002   8F83         MOV     DPH,R7
   \   000004                REQUIRE ?Subroutine191
   \   000004                REQUIRE ??Subroutine271_0
   \   000004                ; // Fall through to label ??Subroutine271_0
   2358          
   2359          /*********************************************************************
   2360           * @fn          ZDO_ParseBindUnbindReq
   2361           *
   2362           * @brief       This function parses the Bind_req or Unbind_req message.
   2363           *
   2364           * @param       inMsg  - incoming message (request)
   2365           * @param       pReq - place to put parsed information
   2366           *
   2367           * @return      none
   2368           */

   \                                 In  segment BANKED_CODE, align 1, keep-with-next
   2369          void ZDO_ParseBindUnbindReq( zdoIncomingMsg_t *inMsg, ZDO_BindUnbindReq_t *pReq )
   \                     ZDO_ParseBindUnbindReq:
   2370          {
   \   000000   74F6         MOV     A,#-0xa
   \   000002   12....       LCALL   ?BANKED_ENTER_XDATA
   \   000005                ; Saved register size: 10
   \   000005                ; Auto size: 0
   \   000005   8C..         MOV     ?V0 + 0,R4
   \   000007   8D..         MOV     ?V0 + 1,R5
   2371            uint8 *msg;
   2372          
   2373            msg = inMsg->asdu;
   \   000009   12....       LCALL   ?Subroutine108 & 0xFFFF
   2374            osal_cpyExtAddr( pReq->srcAddress, msg );
   \                     ??CrossCallReturnLabel_301:
   \   00000C                ; Setup parameters for call to function sAddrExtCpy
   \   00000C   EE           MOV     A,R6
   \   00000D   FC           MOV     R4,A
   \   00000E   EF           MOV     A,R7
   \   00000F   FD           MOV     R5,A
   \   000010   AA..         MOV     R2,?V0 + 0
   \   000012   AB..         MOV     R3,?V0 + 1
   \   000014   12....       LCALL   ??Subroutine249_0 & 0xFFFF
   2375            msg += Z_EXTADDR_LEN;
   2376            pReq->srcEndpoint = *msg++;
   \                     ??CrossCallReturnLabel_474:
   \   000017   85..82       MOV     DPL,?V0 + 0
   \   00001A   85..83       MOV     DPH,?V0 + 1
   \   00001D   12....       LCALL   ?Subroutine0 & 0xFFFF
   2377            pReq->clusterID = BUILD_UINT16( msg[0], msg[1] );
   \                     ??CrossCallReturnLabel_635:
   \   000020   85..82       MOV     DPL,?V0 + 0
   \   000023   85..83       MOV     DPH,?V0 + 1
   \   000026   12....       LCALL   ?Subroutine12 & 0xFFFF
   2378            msg += 2;
   2379            pReq->dstAddress.addrMode = *msg++;
   \                     ??CrossCallReturnLabel_16:
   \   000029   E5..         MOV     A,?V0 + 0
   \   00002B   12....       LCALL   ??Subroutine259_0 & 0xFFFF
   \                     ??CrossCallReturnLabel_570:
   \   00002E   12....       LCALL   ??Subroutine255_0 & 0xFFFF
   \                     ??CrossCallReturnLabel_542:
   \   000031   EC           MOV     A,R4
   \   000032   12....       LCALL   ?Subroutine31 & 0xFFFF
   2380            if ( pReq->dstAddress.addrMode == Addr64Bit )
   \                     ??CrossCallReturnLabel_43:
   \   000035   240B         ADD     A,#0xb
   \   000037   FA           MOV     R2,A
   \   000038   E5..         MOV     A,?V0 + 1
   \   00003A   3400         ADDC    A,#0x0
   \   00003C   FB           MOV     R3,A
   \   00003D   7403         MOV     A,#0x3
   \   00003F   6C           XRL     A,R4
   \   000040   7014         JNZ     ??ZDO_ParseBindUnbindReq_0
   2381            {
   2382              osal_cpyExtAddr( pReq->dstAddress.addr.extAddr, msg );
   \   000042                ; Setup parameters for call to function sAddrExtCpy
   \   000042   EE           MOV     A,R6
   \   000043   FC           MOV     R4,A
   \   000044   EF           MOV     A,R7
   \   000045   FD           MOV     R5,A
   \   000046   12....       LCALL   ?Subroutine47 & 0xFFFF
   2383              msg += Z_EXTADDR_LEN;
   2384              pReq->dstEndpoint = *msg;
   2385            }
   \                     ??CrossCallReturnLabel_89:
   \   000049   C0E0         PUSH    A
   \   00004B   E5..         MOV     A,?V0 + 0
   \   00004D   2414         ADD     A,#0x14
   \   00004F   12....       LCALL   ??Subroutine254_0 & 0xFFFF
   \                     ??CrossCallReturnLabel_544:
   \   000052   D0E0         POP     A
   \   000054   8003         SJMP    ??CrossCallReturnLabel_145
   2386            else
   2387            {
   2388              // copy group address
   2389              pReq->dstAddress.addr.shortAddr = BUILD_UINT16( msg[0], msg[1] );
   \                     ??ZDO_ParseBindUnbindReq_0:
   \   000056   12....       LCALL   ?Subroutine87 & 0xFFFF
   2390            }
   \                     ??CrossCallReturnLabel_145:
   \   000059   F0           MOVX    @DPTR,A
   2391          }
   \   00005A   02....       LJMP    ??Subroutine219_0 & 0xFFFF

   \                                 In  segment BANKED_CODE, align 1, keep-with-next
   \                     ?Subroutine0:
   \   000000   A3           INC     DPTR
   \   000001   A3           INC     DPTR
   \   000002   A3           INC     DPTR
   \   000003   A3           INC     DPTR
   \   000004   A3           INC     DPTR
   \   000005   A3           INC     DPTR
   \   000006   A3           INC     DPTR
   \   000007   A3           INC     DPTR
   \   000008                REQUIRE ??Subroutine250_0
   \   000008                ; // Fall through to label ??Subroutine250_0

   \                                 In  segment BANKED_CODE, align 1, keep-with-next
   \                     ?Subroutine31:
   \   000000   12....       LCALL   ?Subroutine140 & 0xFFFF
   \                     ??CrossCallReturnLabel_203:
   \   000003   E5..         MOV     A,?V0 + 0
   \   000005   22           RET

   \                                 In  segment BANKED_CODE, align 1, keep-with-next
   \                     ?Subroutine87:
   \   000000   E0           MOVX    A,@DPTR
   \   000001   FC           MOV     R4,A
   \   000002   A3           INC     DPTR
   \   000003   E0           MOVX    A,@DPTR
   \   000004   F9           MOV     R1,A
   \   000005   EC           MOV     A,R4
   \   000006   8A82         MOV     DPL,R2
   \   000008   8B83         MOV     DPH,R3
   \   00000A   F0           MOVX    @DPTR,A
   \   00000B   A3           INC     DPTR
   \   00000C   E9           MOV     A,R1
   \   00000D   22           RET

   \                                 In  segment BANKED_CODE, align 1, keep-with-next
   \                     ?Subroutine140:
   \   000000   12....       LCALL   ?Subroutine177 & 0xFFFF
   \                     ??CrossCallReturnLabel_480:
   \   000003   0E           INC     R6
   \   000004   AF83         MOV     R7,DPH
   \   000006   22           RET

   \                                 In  segment BANKED_CODE, align 1, keep-with-next
   \                     ?Subroutine12:
   \   000000   A3           INC     DPTR
   \   000001   A3           INC     DPTR
   \   000002   A3           INC     DPTR
   \   000003   A3           INC     DPTR
   \   000004   A3           INC     DPTR
   \   000005   A3           INC     DPTR
   \   000006   A3           INC     DPTR
   \   000007   A3           INC     DPTR
   \   000008   A3           INC     DPTR
   \   000009   12....       LCALL   ?Subroutine136 & 0xFFFF
   \                     ??CrossCallReturnLabel_200:
   \   00000C   8E82         MOV     DPL,R6
   \   00000E   8F83         MOV     DPH,R7
   \   000010   E0           MOVX    A,@DPTR
   \   000011   FC           MOV     R4,A
   \   000012   22           RET

   \                                 In  segment BANKED_CODE, align 1, keep-with-next
   \                     ?Subroutine47:
   \   000000   12....       LCALL   ??sAddrExtCpy?relay
   \   000003   8E82         MOV     DPL,R6
   \   000005   8F83         MOV     DPH,R7
   \   000007   A3           INC     DPTR
   \   000008   A3           INC     DPTR
   \   000009   A3           INC     DPTR
   \   00000A   A3           INC     DPTR
   \   00000B   A3           INC     DPTR
   \   00000C   A3           INC     DPTR
   \   00000D   A3           INC     DPTR
   \   00000E   A3           INC     DPTR
   \   00000F   E0           MOVX    A,@DPTR
   \   000010   22           RET
   2392          
   2393          /*********************************************************************
   2394           * @fn      ZDO_ParseAddrRsp
   2395           *
   2396           * @brief   Turns the inMsg (incoming message) into the out parsed
   2397           *          structure.
   2398           *
   2399           * @param   inMsg - incoming message
   2400           *
   2401           * @return  pointer to parsed structures.  This structure was
   2402           *          allocated using osal_mem_alloc, so it must be freed
   2403           *          by the calling function [osal_mem_free()].
   2404           */

   \                                 In  segment BANKED_CODE, align 1, keep-with-next
   2405          ZDO_NwkIEEEAddrResp_t *ZDO_ParseAddrRsp( zdoIncomingMsg_t *inMsg )
   \                     ZDO_ParseAddrRsp:
   2406          {
   \   000000   74F2         MOV     A,#-0xe
   \   000002   12....       LCALL   ?BANKED_ENTER_XDATA
   \   000005                ; Saved register size: 14
   \   000005                ; Auto size: 0
   2407            ZDO_NwkIEEEAddrResp_t *rsp;
   2408            uint8 *msg;
   2409            byte cnt = 0;
   2410          
   2411            // Calculate the number of items in the list
   2412            if ( inMsg->asduLen > (1 + Z_EXTADDR_LEN + 2) )
   \   000005   EA           MOV     A,R2
   \   000006   2413         ADD     A,#0x13
   \   000008   FE           MOV     R6,A
   \   000009   EB           MOV     A,R3
   \   00000A   3400         ADDC    A,#0x0
   \   00000C   FF           MOV     R7,A
   \   00000D   EA           MOV     A,R2
   \   00000E   2410         ADD     A,#0x10
   \   000010   F582         MOV     DPL,A
   \   000012   EB           MOV     A,R3
   \   000013   12....       LCALL   ??Subroutine242_0 & 0xFFFF
   \                     ??CrossCallReturnLabel_432:
   \   000016   C3           CLR     C
   \   000017   940C         SUBB    A,#0xc
   \   000019   400C         JC      ??ZDO_ParseAddrRsp_0
   2413              cnt = inMsg->asdu[1 + Z_EXTADDR_LEN + 2];
   \   00001B   8E82         MOV     DPL,R6
   \   00001D   8F83         MOV     DPH,R7
   \   00001F   E0           MOVX    A,@DPTR
   \   000020   240B         ADD     A,#0xb
   \   000022   12....       LCALL   ?Subroutine64 & 0xFFFF
   \                     ??CrossCallReturnLabel_123:
   \   000025   8003         SJMP    ??ZDO_ParseAddrRsp_1
   2414            else
   2415              cnt = 0;
   \                     ??ZDO_ParseAddrRsp_0:
   \   000027   75..00       MOV     ?V0 + 2,#0x0
   2416          
   2417            // Make buffer
   2418            rsp = (ZDO_NwkIEEEAddrResp_t *)osal_mem_alloc( sizeof(ZDO_NwkIEEEAddrResp_t) + (cnt * sizeof ( uint16 )) );
   \                     ??ZDO_ParseAddrRsp_1:
   \   00002A                ; Setup parameters for call to function osal_mem_alloc
   \   00002A   E5..         MOV     A,?V0 + 2
   \   00002C   C3           CLR     C
   \   00002D   33           RLC     A
   \   00002E   F8           MOV     R0,A
   \   00002F   E4           CLR     A
   \   000030   33           RLC     A
   \   000031   F9           MOV     R1,A
   \   000032   740D         MOV     A,#0xd
   \   000034   12....       LCALL   ?Subroutine113 & 0xFFFF
   \                     ??CrossCallReturnLabel_174:
   \   000037   8A..         MOV     ?V0 + 0,R2
   \   000039   8B..         MOV     ?V0 + 1,R3
   2419          
   2420            if ( rsp )
   \   00003B   EA           MOV     A,R2
   \   00003C   7001         JNZ     ??ZDO_ParseAddrRsp_2
   \   00003E   EB           MOV     A,R3
   \                     ??ZDO_ParseAddrRsp_2:
   \   00003F   7003         JNZ     $+5
   \   000041   02....       LJMP    ??ZDO_ParseAddrRsp_3 & 0xFFFF
   2421            {
   2422              msg = inMsg->asdu;
   \   000044   8E82         MOV     DPL,R6
   \   000046   8F83         MOV     DPH,R7
   \   000048   12....       LCALL   ??Subroutine258_0 & 0xFFFF
   2423          
   2424              rsp->status = *msg++;
   \                     ??CrossCallReturnLabel_568:
   \   00004B   8A82         MOV     DPL,R2
   \   00004D   8B83         MOV     DPH,R3
   \   00004F   12....       LCALL   ?Subroutine34 & 0xFFFF
   2425              if ( rsp->status == ZDO_SUCCESS )
   \                     ??CrossCallReturnLabel_284:
   \   000052   7074         JNZ     ??ZDO_ParseAddrRsp_3
   2426              {
   2427                osal_cpyExtAddr( rsp->extAddr, msg );
   \   000054                ; Setup parameters for call to function sAddrExtCpy
   \   000054   EE           MOV     A,R6
   \   000055   FC           MOV     R4,A
   \   000056   EF           MOV     A,R7
   \   000057   FD           MOV     R5,A
   \   000058   EA           MOV     A,R2
   \   000059   2403         ADD     A,#0x3
   \   00005B   0A           INC     R2
   \   00005C   0A           INC     R2
   \   00005D   0A           INC     R2
   \   00005E   EB           MOV     A,R3
   \   00005F   12....       LCALL   ?Subroutine46 & 0xFFFF
   2428                msg += Z_EXTADDR_LEN;
   2429                rsp->nwkAddr = BUILD_UINT16( msg[0], msg[1] );
   \                     ??CrossCallReturnLabel_473:
   \   000062   FA           MOV     R2,A
   \   000063   A3           INC     DPTR
   \   000064   E0           MOVX    A,@DPTR
   \   000065   F9           MOV     R1,A
   \   000066   EA           MOV     A,R2
   \   000067   85..82       MOV     DPL,?V0 + 0
   \   00006A   85..83       MOV     DPH,?V0 + 1
   \   00006D   A3           INC     DPTR
   \   00006E   12....       LCALL   ?Subroutine22 & 0xFFFF
   2430          
   2431                msg += 2;
   2432                rsp->numAssocDevs = 0;
   \                     ??CrossCallReturnLabel_30:
   \   000071   240B         ADD     A,#0xb
   \   000073   F8           MOV     R0,A
   \   000074   E5..         MOV     A,?V0 + 1
   \   000076   3400         ADDC    A,#0x0
   \   000078   F9           MOV     R1,A
   \   000079   E8           MOV     A,R0
   \   00007A   FA           MOV     R2,A
   \   00007B   E9           MOV     A,R1
   \   00007C   FB           MOV     R3,A
   \   00007D   E4           CLR     A
   \   00007E   8A82         MOV     DPL,R2
   \   000080   8B83         MOV     DPH,R3
   \   000082   F0           MOVX    @DPTR,A
   2433          
   2434                // StartIndex field is only present if NumAssocDev field is non-zero.
   2435                if ( cnt > 0 )
   \   000083   E5..         MOV     A,?V0 + 2
   \   000085   6041         JZ      ??ZDO_ParseAddrRsp_3
   2436                {
   2437                  uint16 *pList = &(rsp->devList[0]);
   \   000087   E5..         MOV     A,?V0 + 0
   \   000089   240D         ADD     A,#0xd
   \   00008B   08           INC     R0
   \   00008C   08           INC     R0
   \   00008D   E5..         MOV     A,?V0 + 1
   \   00008F   3400         ADDC    A,#0x0
   \   000091   F9           MOV     R1,A
   2438                  byte n = cnt;
   \   000092   AC..         MOV     R4,?V0 + 2
   2439          
   2440                  rsp->numAssocDevs = *msg++;
   \   000094   8E82         MOV     DPL,R6
   \   000096   8F83         MOV     DPH,R7
   \   000098   E0           MOVX    A,@DPTR
   \   000099   8A82         MOV     DPL,R2
   \   00009B   8B83         MOV     DPH,R3
   \   00009D   12....       LCALL   ?Subroutine18 & 0xFFFF
   2441                  rsp->startIndex = *msg++;
   \                     ??CrossCallReturnLabel_22:
   \   0000A0   C0E0         PUSH    A
   \   0000A2   E5..         MOV     A,?V0 + 0
   \   0000A4   240C         ADD     A,#0xc
   \   0000A6   12....       LCALL   ??Subroutine254_0 & 0xFFFF
   \                     ??CrossCallReturnLabel_545:
   \   0000A9   D0E0         POP     A
   \   0000AB   12....       LCALL   ?Subroutine32 & 0xFFFF
   2442          
   2443                  while ( n != 0 )
   2444                  {
   2445                    *pList++ = BUILD_UINT16( msg[0], msg[1] );
   \                     ??CrossCallReturnLabel_45:
   \   0000AE   8E82         MOV     DPL,R6
   \   0000B0   8F83         MOV     DPH,R7
   \   0000B2   E0           MOVX    A,@DPTR
   \   0000B3   F5..         MOV     ?V0 + 2,A
   \   0000B5   A3           INC     DPTR
   \   0000B6   E0           MOVX    A,@DPTR
   \   0000B7   FB           MOV     R3,A
   \   0000B8   E5..         MOV     A,?V0 + 2
   \   0000BA   8882         MOV     DPL,R0
   \   0000BC   8983         MOV     DPH,R1
   \   0000BE   12....       LCALL   ?Subroutine25 & 0xFFFF
   2446                    msg += sizeof( uint16 );
   \                     ??CrossCallReturnLabel_34:
   \   0000C1   12....       LCALL   ?Subroutine172 & 0xFFFF
   2447                    n--;
   2448                  }
   \                     ??CrossCallReturnLabel_233:
   \   0000C4   1C           DEC     R4
   \   0000C5   EC           MOV     A,R4
   \   0000C6   70E6         JNZ     ??CrossCallReturnLabel_45
   2449                }
   2450              }
   2451            }
   2452            return ( rsp );
   \                     ??ZDO_ParseAddrRsp_3:
   \   0000C8   AA..         MOV     R2,?V0 + 0
   \   0000CA   AB..         MOV     R3,?V0 + 1
   \   0000CC   02....       LJMP    ??Subroutine235_0 & 0xFFFF
   2453          }

   \                                 In  segment BANKED_CODE, align 1, keep-with-next
   \                     ?Subroutine25:
   \   000000   12....       LCALL   ??Subroutine229_0 & 0xFFFF
   \                     ??CrossCallReturnLabel_338:
   \   000003   12....       LCALL   ?Subroutine173 & 0xFFFF
   \                     ??CrossCallReturnLabel_236:
   \   000006   22           RET

   \                                 In  segment BANKED_CODE, align 1, keep-with-next
   \                     ?Subroutine173:
   \   000000   E8           MOV     A,R0
   \   000001   2402         ADD     A,#0x2
   \   000003   08           INC     R0
   \   000004   08           INC     R0
   \   000005   E9           MOV     A,R1
   \   000006   3400         ADDC    A,#0x0
   \   000008   F9           MOV     R1,A
   \   000009   22           RET

   \                                 In  segment BANKED_CODE, align 1, keep-with-next
   \                     ?Subroutine34:
   \   000000   12....       LCALL   ?Subroutine143 & 0xFFFF
   \                     ??CrossCallReturnLabel_207:
   \   000003                REQUIRE ?Subroutine205
   \   000003                ; // Fall through to label ?Subroutine205

   \                                 In  segment BANKED_CODE, align 1, keep-with-next
   \                     ?Subroutine205:
   \   000000   AE82         MOV     R6,DPL
   \   000002   AF83         MOV     R7,DPH
   \   000004   22           RET

   \                                 In  segment BANKED_CODE, align 1, keep-with-next
   \                     ?Subroutine18:
   \   000000   12....       LCALL   ?Subroutine140 & 0xFFFF
   \                     ??CrossCallReturnLabel_202:
   \   000003   E0           MOVX    A,@DPTR
   \   000004   22           RET

   \                                 In  segment BANKED_CODE, align 1, keep-with-next
   \                     ?Subroutine113:
   \   000000   12....       LCALL   ?Subroutine166 & 0xFFFF
   \                     ??CrossCallReturnLabel_229:
   \   000003   22           RET

   \                                 In  segment BANKED_CODE, align 1, keep-with-next
   \                     ?Subroutine166:
   \   000000   28           ADD     A,R0
   \   000001   FA           MOV     R2,A
   \   000002   E4           CLR     A
   \   000003   39           ADDC    A,R1
   \   000004   FB           MOV     R3,A
   \   000005   12....       LCALL   ??osal_mem_alloc?relay
   \   000008   22           RET

   \                                 In  segment BANKED_CODE, align 1, keep-with-next
   \                     ??Subroutine258_0:
   \   000000   12....       LCALL   ?Subroutine159 & 0xFFFF
   \                     ??CrossCallReturnLabel_600:
   \   000003   22           RET

   \                                 In  segment BANKED_CODE, align 1, keep-with-next
   \                     ?Subroutine159:
   \   000000   E0           MOVX    A,@DPTR
   \   000001   FE           MOV     R6,A
   \   000002   A3           INC     DPTR
   \   000003   E0           MOVX    A,@DPTR
   \   000004   02....       LJMP    ?Subroutine190 & 0xFFFF

   \                                 In  segment BANKED_CODE, align 1, keep-with-next
   \                     ?Subroutine32:
   \   000000   12....       LCALL   ?Subroutine140 & 0xFFFF
   \                     ??CrossCallReturnLabel_204:
   \   000003   22           RET
   2454          
   2455          /*********************************************************************
   2456           * @fn          ZDO_ParseNodeDescRsp
   2457           *
   2458           * @brief       This function parses the Node_Desc_rsp message.
   2459           *
   2460           * @param       inMsg - incoming message
   2461           * @param       pNDRsp - place to parse the message into
   2462           *
   2463           * @return      none
   2464           */

   \                                 In  segment BANKED_CODE, align 1, keep-with-next
   2465          void ZDO_ParseNodeDescRsp( zdoIncomingMsg_t *inMsg, ZDO_NodeDescRsp_t *pNDRsp )
   \                     ZDO_ParseNodeDescRsp:
   2466          {
   \   000000   74F7         MOV     A,#-0x9
   \   000002   12....       LCALL   ?BANKED_ENTER_XDATA
   \   000005                ; Saved register size: 9
   \   000005                ; Auto size: 0
   2467            uint8 *msg;
   2468          
   2469            msg = inMsg->asdu;
   \   000005   12....       LCALL   ?Subroutine2 & 0xFFFF
   2470          
   2471            pNDRsp->status = *msg++;
   2472            pNDRsp->nwkAddr = BUILD_UINT16( msg[0], msg[1] );
   2473          
   2474            if ( pNDRsp->status == ZDP_SUCCESS )
   \                     ??CrossCallReturnLabel_0:
   \   000008   6003         JZ      $+5
   \   00000A   02....       LJMP    ??ZDO_ParseNodeDescRsp_0 & 0xFFFF
   2475            {
   2476              msg += 2;
   \   00000D   12....       LCALL   ?Subroutine173 & 0xFFFF
   2477              pNDRsp->nodeDesc.LogicalType = *msg & 0x07;
   \                     ??CrossCallReturnLabel_235:
   \   000010   EC           MOV     A,R4
   \   000011   2403         ADD     A,#0x3
   \   000013   FA           MOV     R2,A
   \   000014   ED           MOV     A,R5
   \   000015   12....       LCALL   ??Subroutine223_0 & 0xFFFF
   \                     ??CrossCallReturnLabel_502:
   \   000018   5407         ANL     A,#0x7
   \   00001A   C0E0         PUSH    A
   \   00001C   8A82         MOV     DPL,R2
   \   00001E   8B83         MOV     DPH,R3
   \   000020   E0           MOVX    A,@DPTR
   \   000021   54F8         ANL     A,#0xf8
   \   000023   FE           MOV     R6,A
   \   000024   D0E0         POP     A
   \   000026   4E           ORL     A,R6
   \   000027   12....       LCALL   ??Subroutine252_0 & 0xFFFF
   2478          
   2479              pNDRsp->nodeDesc.ComplexDescAvail = ( *msg & 0x08 ) >> 3;
   \                     ??CrossCallReturnLabel_497:
   \   00002A   A2E3         MOV     C,0xE0 /* A   */.3
   \   00002C   8B83         MOV     DPH,R3
   \   00002E   8A82         MOV     DPL,R2
   \   000030   E0           MOVX    A,@DPTR
   \   000031   92E3         MOV     0xE0 /* A   */.3,C
   \   000033   12....       LCALL   ??Subroutine252_0 & 0xFFFF
   2480              pNDRsp->nodeDesc.UserDescAvail = ( *msg & 0x10 ) >> 4;
   \                     ??CrossCallReturnLabel_498:
   \   000036   A2E4         MOV     C,0xE0 /* A   */.4
   \   000038   8B83         MOV     DPH,R3
   \   00003A   8A82         MOV     DPL,R2
   \   00003C   E0           MOVX    A,@DPTR
   \   00003D   92E4         MOV     0xE0 /* A   */.4,C
   \   00003F   12....       LCALL   ?Subroutine44 & 0xFFFF
   2481          
   2482              msg++;  // Reserved bits.
   \                     ??CrossCallReturnLabel_85:
   \   000042   08           INC     R0
   \   000043   A983         MOV     R1,DPH
   2483              pNDRsp->nodeDesc.FrequencyBand = (*msg >> 3) & 0x1f;
   \   000045   EC           MOV     A,R4
   \   000046   2404         ADD     A,#0x4
   \   000048   0A           INC     R2
   \   000049   ED           MOV     A,R5
   \   00004A   3400         ADDC    A,#0x0
   \   00004C   FB           MOV     R3,A
   \   00004D   E0           MOVX    A,@DPTR
   \   00004E   54F8         ANL     A,#0xf8
   \   000050   C0E0         PUSH    A
   \   000052   8A82         MOV     DPL,R2
   \   000054   8B83         MOV     DPH,R3
   \   000056   E0           MOVX    A,@DPTR
   \   000057   5407         ANL     A,#0x7
   \   000059   FE           MOV     R6,A
   \   00005A   D0E0         POP     A
   \   00005C   4E           ORL     A,R6
   \   00005D   FE           MOV     R6,A
   \   00005E   12....       LCALL   ??Subroutine252_0 & 0xFFFF
   2484              pNDRsp->nodeDesc.APSFlags = *msg++ & 0x07;
   \                     ??CrossCallReturnLabel_499:
   \   000061   5407         ANL     A,#0x7
   \   000063   C0E0         PUSH    A
   \   000065   74F8         MOV     A,#-0x8
   \   000067   5E           ANL     A,R6
   \   000068   FE           MOV     R6,A
   \   000069   D0E0         POP     A
   \   00006B   4E           ORL     A,R6
   \   00006C   A3           INC     DPTR
   \   00006D   08           INC     R0
   \   00006E   A983         MOV     R1,DPH
   \   000070   12....       LCALL   ?Subroutine5 & 0xFFFF
   2485              pNDRsp->nodeDesc.CapabilityFlags = *msg++;
   \                     ??CrossCallReturnLabel_495:
   \   000073   8C82         MOV     DPL,R4
   \   000075   8D83         MOV     DPH,R5
   \   000077   A3           INC     DPTR
   \   000078   A3           INC     DPTR
   \   000079   A3           INC     DPTR
   \   00007A   A3           INC     DPTR
   \   00007B   12....       LCALL   ?Subroutine20 & 0xFFFF
   2486              pNDRsp->nodeDesc.ManufacturerCode[0] = *msg++;
   \                     ??CrossCallReturnLabel_486:
   \   00007E   8C82         MOV     DPL,R4
   \   000080   8D83         MOV     DPH,R5
   \   000082   A3           INC     DPTR
   \   000083   A3           INC     DPTR
   \   000084   A3           INC     DPTR
   \   000085   A3           INC     DPTR
   \   000086   A3           INC     DPTR
   \   000087   A3           INC     DPTR
   \   000088   12....       LCALL   ?Subroutine9 & 0xFFFF
   2487              pNDRsp->nodeDesc.ManufacturerCode[1] = *msg++;
   \                     ??CrossCallReturnLabel_10:
   \   00008B   12....       LCALL   ?Subroutine9 & 0xFFFF
   2488              pNDRsp->nodeDesc.MaxBufferSize = *msg++;
   \                     ??CrossCallReturnLabel_11:
   \   00008E   A3           INC     DPTR
   \   00008F   12....       LCALL   ?Subroutine7 & 0xFFFF
   2489              pNDRsp->nodeDesc.MaxInTransferSize[0] = *msg++;
   \                     ??CrossCallReturnLabel_8:
   \   000092   12....       LCALL   ?Subroutine7 & 0xFFFF
   2490              pNDRsp->nodeDesc.MaxInTransferSize[1] = *msg++;
   \                     ??CrossCallReturnLabel_9:
   \   000095   12....       LCALL   ?Subroutine20 & 0xFFFF
   2491              pNDRsp->nodeDesc.ServerMask = BUILD_UINT16( msg[0], msg[1] );
   \                     ??CrossCallReturnLabel_487:
   \   000098   FE           MOV     R6,A
   \   000099   A3           INC     DPTR
   \   00009A   E0           MOVX    A,@DPTR
   \   00009B   FB           MOV     R3,A
   \   00009C   EE           MOV     A,R6
   \   00009D   FA           MOV     R2,A
   \   00009E   EC           MOV     A,R4
   \   00009F   240B         ADD     A,#0xb
   \   0000A1   F582         MOV     DPL,A
   \   0000A3   ED           MOV     A,R5
   \   0000A4   12....       LCALL   ??Subroutine256_0 & 0xFFFF
   \                     ??CrossCallReturnLabel_534:
   \   0000A7   EA           MOV     A,R2
   \   0000A8   12....       LCALL   ?Subroutine25 & 0xFFFF
   2492              msg += 2;
   2493              pNDRsp->nodeDesc.MaxOutTransferSize[0] = *msg++;
   \                     ??CrossCallReturnLabel_33:
   \   0000AB   8882         MOV     DPL,R0
   \   0000AD   8983         MOV     DPH,R1
   \   0000AF   E0           MOVX    A,@DPTR
   \   0000B0   C0E0         PUSH    A
   \   0000B2   EC           MOV     A,R4
   \   0000B3   240D         ADD     A,#0xd
   \   0000B5   F582         MOV     DPL,A
   \   0000B7   ED           MOV     A,R5
   \   0000B8   12....       LCALL   ??Subroutine256_0 & 0xFFFF
   \                     ??CrossCallReturnLabel_535:
   \   0000BB   D0E0         POP     A
   \   0000BD   12....       LCALL   ??Subroutine251_0 & 0xFFFF
   2494              pNDRsp->nodeDesc.MaxOutTransferSize[1] = *msg++;
   \                     ??CrossCallReturnLabel_488:
   \   0000C0   C0E0         PUSH    A
   \   0000C2   EC           MOV     A,R4
   \   0000C3   240E         ADD     A,#0xe
   \   0000C5   F582         MOV     DPL,A
   \   0000C7   ED           MOV     A,R5
   \   0000C8   12....       LCALL   ??Subroutine256_0 & 0xFFFF
   \                     ??CrossCallReturnLabel_536:
   \   0000CB   D0E0         POP     A
   \   0000CD   12....       LCALL   ?Subroutine44 & 0xFFFF
   2495              pNDRsp->nodeDesc.DescriptorCapability = *msg;
   \                     ??CrossCallReturnLabel_86:
   \   0000D0   E0           MOVX    A,@DPTR
   \   0000D1   C0E0         PUSH    A
   \   0000D3   EC           MOV     A,R4
   \   0000D4   240F         ADD     A,#0xf
   \   0000D6   F582         MOV     DPL,A
   \   0000D8   ED           MOV     A,R5
   \   0000D9   12....       LCALL   ??Subroutine256_0 & 0xFFFF
   2496            }
   \                     ??CrossCallReturnLabel_537:
   \   0000DC   D0E0         POP     A
   \   0000DE   F0           MOVX    @DPTR,A
   2497          }
   \                     ??ZDO_ParseNodeDescRsp_0:
   \   0000DF                REQUIRE ?Subroutine209
   \   0000DF                ; // Fall through to label ?Subroutine209

   \                                 In  segment BANKED_CODE, align 1, keep-with-next
   \                     ?Subroutine209:
   \   000000   7F01         MOV     R7,#0x1
   \   000002   02....       LJMP    ?BANKED_LEAVE_XDATA

   \                                 In  segment BANKED_CODE, align 1, keep-with-next
   \                     ?Subroutine20:
   \   000000   A3           INC     DPTR
   \   000001                REQUIRE ??Subroutine251_0
   \   000001                ; // Fall through to label ??Subroutine251_0

   \                                 In  segment BANKED_CODE, align 1, keep-with-next
   \                     ??Subroutine251_0:
   \   000000   12....       LCALL   ?Subroutine144 & 0xFFFF
   \                     ??CrossCallReturnLabel_491:
   \   000003   08           INC     R0
   \   000004   A983         MOV     R1,DPH
   \   000006   E0           MOVX    A,@DPTR
   \   000007   22           RET

   \                                 In  segment BANKED_CODE, align 1, keep-with-next
   \                     ?Subroutine9:
   \   000000   12....       LCALL   ?Subroutine137 & 0xFFFF
   \                     ??CrossCallReturnLabel_614:
   \   000003   22           RET

   \                                 In  segment BANKED_CODE, align 1, keep-with-next
   \                     ?Subroutine137:
   \   000000   F0           MOVX    @DPTR,A
   \   000001   8882         MOV     DPL,R0
   \   000003   8983         MOV     DPH,R1
   \   000005   A3           INC     DPTR
   \   000006   08           INC     R0
   \   000007   A983         MOV     R1,DPH
   \   000009   E0           MOVX    A,@DPTR
   \   00000A   8C82         MOV     DPL,R4
   \   00000C   8D83         MOV     DPH,R5
   \   00000E   02....       LJMP    ?Subroutine188 & 0xFFFF

   \                                 In  segment BANKED_CODE, align 1, keep-with-next
   \                     ?Subroutine7:
   \   000000   12....       LCALL   ?Subroutine137 & 0xFFFF
   \                     ??CrossCallReturnLabel_615:
   \   000003   A3           INC     DPTR
   \   000004   A3           INC     DPTR
   \   000005   22           RET

   \                                 In  segment BANKED_CODE, align 1, keep-with-next
   \                     ?Subroutine2:
   \   000000   12....       LCALL   ?Subroutine165 & 0xFFFF
   \                     ??CrossCallReturnLabel_224:
   \   000003   12....       LCALL   ?Subroutine160 & 0xFFFF
   \                     ??CrossCallReturnLabel_220:
   \   000006   8C82         MOV     DPL,R4
   \   000008   8D83         MOV     DPH,R5
   \   00000A   12....       LCALL   ?Subroutine144 & 0xFFFF
   \                     ??CrossCallReturnLabel_490:
   \   00000D   A882         MOV     R0,DPL
   \   00000F   A983         MOV     R1,DPH
   \   000011   E0           MOVX    A,@DPTR
   \   000012   FE           MOV     R6,A
   \   000013   A3           INC     DPTR
   \   000014   E0           MOVX    A,@DPTR
   \   000015   FB           MOV     R3,A
   \   000016   EE           MOV     A,R6
   \   000017   8C82         MOV     DPL,R4
   \   000019   8D83         MOV     DPH,R5
   \   00001B   A3           INC     DPTR
   \   00001C   12....       LCALL   ??Subroutine229_0 & 0xFFFF
   \                     ??CrossCallReturnLabel_337:
   \   00001F   8C82         MOV     DPL,R4
   \   000021   8D83         MOV     DPH,R5
   \   000023   E0           MOVX    A,@DPTR
   \   000024   22           RET
   2498          
   2499          /*********************************************************************
   2500           * @fn          ZDO_ParesPowerDescRsp
   2501           *
   2502           * @brief       This function parses the Power_Desc_rsp message.
   2503           *
   2504           * @param       inMsg  - incoming message
   2505           * @param       pNPRsp - place to parse the message into
   2506           *
   2507           * @return      none
   2508           */

   \                                 In  segment BANKED_CODE, align 1, keep-with-next
   \                     ?Subroutine40:
   \   000000   F9           MOV     R1,A
   \   000001   8C82         MOV     DPL,R4
   \   000003   8D83         MOV     DPH,R5
   \   000005                REQUIRE ??Subroutine225_0
   \   000005                ; // Fall through to label ??Subroutine225_0

   \                                 In  segment BANKED_CODE, align 1, keep-with-next
   2509          void ZDO_ParsePowerDescRsp( zdoIncomingMsg_t *inMsg, ZDO_PowerRsp_t *pNPRsp )
   \                     ZDO_ParsePowerDescRsp:
   2510          {
   \   000000   74F6         MOV     A,#-0xa
   \   000002   12....       LCALL   ?BANKED_ENTER_XDATA
   \   000005                ; Saved register size: 10
   \   000005                ; Auto size: 0
   2511            uint8 *msg;
   2512          
   2513            msg = inMsg->asdu;
   \   000005   EA           MOV     A,R2
   \   000006   12....       LCALL   ??Subroutine259_0 & 0xFFFF
   \                     ??CrossCallReturnLabel_571:
   \   000009   EB           MOV     A,R3
   \   00000A   12....       LCALL   ?Subroutine95 & 0xFFFF
   2514            pNPRsp->status = *msg++;
   \                     ??CrossCallReturnLabel_278:
   \   00000D   12....       LCALL   ??Subroutine262_0 & 0xFFFF
   \                     ??CrossCallReturnLabel_585:
   \   000010   12....       LCALL   ?Subroutine148 & 0xFFFF
   \                     ??CrossCallReturnLabel_214:
   \   000013   AA82         MOV     R2,DPL
   \   000015   AB83         MOV     R3,DPH
   2515            pNPRsp->nwkAddr = BUILD_UINT16( msg[0], msg[1] );
   \   000017   E0           MOVX    A,@DPTR
   \   000018   FE           MOV     R6,A
   \   000019   A3           INC     DPTR
   \   00001A   E0           MOVX    A,@DPTR
   \   00001B   F9           MOV     R1,A
   \   00001C   EE           MOV     A,R6
   \   00001D   8C82         MOV     DPL,R4
   \   00001F   8D83         MOV     DPH,R5
   \   000021   A3           INC     DPTR
   \   000022   12....       LCALL   ??Subroutine226_0 & 0xFFFF
   2516          
   2517            if ( pNPRsp->status == ZDP_SUCCESS )
   \                     ??CrossCallReturnLabel_308:
   \   000025   8C82         MOV     DPL,R4
   \   000027   8D83         MOV     DPH,R5
   \   000029   E0           MOVX    A,@DPTR
   \   00002A   707D         JNZ     ??CrossCallReturnLabel_326
   2518            {
   2519              msg += 2;
   \   00002C   12....       LCALL   ?Subroutine130 & 0xFFFF
   2520              pNPRsp->pwrDesc.AvailablePowerSources = *msg >> 4;
   \                     ??CrossCallReturnLabel_191:
   \   00002F   EC           MOV     A,R4
   \   000030   2403         ADD     A,#0x3
   \   000032   ED           MOV     A,R5
   \   000033   3400         ADDC    A,#0x0
   \   000035   0C           INC     R4
   \   000036   0C           INC     R4
   \   000037   0C           INC     R4
   \   000038   FD           MOV     R5,A
   \   000039   8C82         MOV     DPL,R4
   \   00003B   8D83         MOV     DPH,R5
   \   00003D   E0           MOVX    A,@DPTR
   \   00003E   540F         ANL     A,#0xf
   \   000040   FE           MOV     R6,A
   \   000041   A3           INC     DPTR
   \   000042   E0           MOVX    A,@DPTR
   \   000043   FF           MOV     R7,A
   \   000044   8A82         MOV     DPL,R2
   \   000046   8B83         MOV     DPH,R3
   \   000048   E0           MOVX    A,@DPTR
   \   000049   C4           SWAP    A
   \   00004A   540F         ANL     A,#0xf
   \   00004C   F5..         MOV     ?V0 + 0,A
   \   00004E   75..00       MOV     ?V0 + 1,#0x0
   \   000051   7404         MOV     A,#0x4
   \   000053   78..         MOV     R0,#?V0 + 0
   \   000055   12....       LCALL   ?S_SHL
   \   000058   E5..         MOV     A,?V0 + 0
   \   00005A   4E           ORL     A,R6
   \   00005B   F8           MOV     R0,A
   \   00005C   EF           MOV     A,R7
   \   00005D   12....       LCALL   ?Subroutine40 & 0xFFFF
   2521              pNPRsp->pwrDesc.PowerMode = *msg++ & 0x0F;
   \                     ??CrossCallReturnLabel_324:
   \   000060   74F0         MOV     A,#-0x10
   \   000062   58           ANL     A,R0
   \   000063   F8           MOV     R0,A
   \   000064   8A82         MOV     DPL,R2
   \   000066   8B83         MOV     DPH,R3
   \   000068   E0           MOVX    A,@DPTR
   \   000069   FE           MOV     R6,A
   \   00006A   740F         MOV     A,#0xf
   \   00006C   5E           ANL     A,R6
   \   00006D   48           ORL     A,R0
   \   00006E   FE           MOV     R6,A
   \   00006F   A3           INC     DPTR
   \   000070   0A           INC     R2
   \   000071   AB83         MOV     R3,DPH
   \   000073   8C82         MOV     DPL,R4
   \   000075   8D83         MOV     DPH,R5
   \   000077   F0           MOVX    @DPTR,A
   \   000078   A3           INC     DPTR
   \   000079   EF           MOV     A,R7
   \   00007A   F0           MOVX    @DPTR,A
   2522              pNPRsp->pwrDesc.CurrentPowerSourceLevel = *msg >> 4;
   \   00007B   740F         MOV     A,#0xf
   \   00007D   59           ANL     A,R1
   \   00007E   FF           MOV     R7,A
   \   00007F   8A82         MOV     DPL,R2
   \   000081   8B83         MOV     DPH,R3
   \   000083   E0           MOVX    A,@DPTR
   \   000084   C4           SWAP    A
   \   000085   540F         ANL     A,#0xf
   \   000087   F5..         MOV     ?V0 + 0,A
   \   000089   740C         MOV     A,#0xc
   \   00008B   78..         MOV     R0,#?V0 + 0
   \   00008D   12....       LCALL   ?S_SHL
   \   000090   EE           MOV     A,R6
   \   000091   F8           MOV     R0,A
   \   000092   E5..         MOV     A,?V0 + 1
   \   000094   4F           ORL     A,R7
   \   000095   12....       LCALL   ?Subroutine40 & 0xFFFF
   2523              pNPRsp->pwrDesc.CurrentPowerSource = *msg++ & 0x0F;
   \                     ??CrossCallReturnLabel_325:
   \   000098   74F0         MOV     A,#-0x10
   \   00009A   59           ANL     A,R1
   \   00009B   F9           MOV     R1,A
   \   00009C   8A82         MOV     DPL,R2
   \   00009E   8B83         MOV     DPH,R3
   \   0000A0   E0           MOVX    A,@DPTR
   \   0000A1   FF           MOV     R7,A
   \   0000A2   740F         MOV     A,#0xf
   \   0000A4   5F           ANL     A,R7
   \   0000A5   49           ORL     A,R1
   \   0000A6   12....       LCALL   ?Subroutine40 & 0xFFFF
   2524            }
   2525          }
   \                     ??CrossCallReturnLabel_326:
   \   0000A9   02....       LJMP    ??Subroutine219_0 & 0xFFFF
   2526          
   2527          /*********************************************************************
   2528           * @fn          ZDO_ParseSimpleDescRsp
   2529           *
   2530           * @brief       This function parse the Simple_Desc_rsp message.
   2531           *
   2532           *   NOTE: The pAppInClusterList and pAppOutClusterList fields
   2533           *         in the SimpleDescriptionFormat_t structure are allocated
   2534           *         and the calling function needs to free [osal_msg_free()]
   2535           *         these buffers.
   2536           *
   2537           * @param       inMsg  - incoming message
   2538           * @param       pSimpleDescRsp - place to parse the message into
   2539           *
   2540           * @return      none
   2541           */

   \                                 In  segment BANKED_CODE, align 1, keep-with-next
   2542          void ZDO_ParseSimpleDescRsp( zdoIncomingMsg_t *inMsg, ZDO_SimpleDescRsp_t *pSimpleDescRsp )
   \                     ZDO_ParseSimpleDescRsp:
   2543          {
   \   000000   74F7         MOV     A,#-0x9
   \   000002   12....       LCALL   ?BANKED_ENTER_XDATA
   \   000005                ; Saved register size: 9
   \   000005                ; Auto size: 0
   2544            uint8 *msg;
   2545          
   2546            msg = inMsg->asdu;
   \   000005   12....       LCALL   ?Subroutine2 & 0xFFFF
   2547            pSimpleDescRsp->status = *msg++;
   2548            pSimpleDescRsp->nwkAddr = BUILD_UINT16( msg[0], msg[1] );
   2549            msg += sizeof ( uint16 );
   2550            msg++; // Skip past the length field.
   2551          
   2552            if ( pSimpleDescRsp->status == ZDP_SUCCESS )
   \                     ??CrossCallReturnLabel_1:
   \   000008   7015         JNZ     ??ZDO_ParseSimpleDescRsp_0
   2553            {
   2554              ZDO_ParseSimpleDescBuf( msg, &(pSimpleDescRsp->simpleDesc) );
   \   00000A                ; Setup parameters for call to function ZDO_ParseSimpleDescBuf
   \   00000A   EC           MOV     A,R4
   \   00000B   2403         ADD     A,#0x3
   \   00000D   0C           INC     R4
   \   00000E   0C           INC     R4
   \   00000F   0C           INC     R4
   \   000010   ED           MOV     A,R5
   \   000011   3400         ADDC    A,#0x0
   \   000013   FD           MOV     R5,A
   \   000014   E8           MOV     A,R0
   \   000015   2403         ADD     A,#0x3
   \   000017   FA           MOV     R2,A
   \   000018   E9           MOV     A,R1
   \   000019   3400         ADDC    A,#0x0
   \   00001B   FB           MOV     R3,A
   \   00001C   12....       LCALL   ??ZDO_ParseSimpleDescBuf?relay
   2555            }
   2556          }
   \                     ??ZDO_ParseSimpleDescRsp_0:
   \   00001F   02....       LJMP    ?Subroutine209 & 0xFFFF
   2557          
   2558          /*********************************************************************
   2559           * @fn          ZDO_ParseEPListRsp
   2560           *
   2561           * @brief       This parse the Active_EP_rsp or Match_Desc_rsp message.
   2562           *
   2563           * @param       inMsg  - incoming message
   2564           *
   2565           * @return      none
   2566           */

   \                                 In  segment BANKED_CODE, align 1, keep-with-next
   \                     ?Subroutine100:
   \   000000   12....       LCALL   ?Subroutine165 & 0xFFFF
   \                     ??CrossCallReturnLabel_227:
   \   000003                REQUIRE ??Subroutine213_0
   \   000003                ; // Fall through to label ??Subroutine213_0

   \                                 In  segment BANKED_CODE, align 1, keep-with-next
   \                     ?Subroutine206:
   \   000000   AA..         MOV     R2,?V0 + 6
   \   000002   AB..         MOV     R3,?V0 + 7
   \   000004                REQUIRE ??Subroutine222_0
   \   000004                ; // Fall through to label ??Subroutine222_0

   \                                 In  segment BANKED_CODE, align 1, keep-with-next
   2567          ZDO_ActiveEndpointRsp_t *ZDO_ParseEPListRsp( zdoIncomingMsg_t *inMsg )
   \                     ZDO_ParseEPListRsp:
   2568          {
   \   000000   74F0         MOV     A,#-0x10
   \   000002   12....       LCALL   ?BANKED_ENTER_XDATA
   \   000005                ; Saved register size: 16
   \   000005                ; Auto size: 0
   2569            ZDO_ActiveEndpointRsp_t *pRsp;
   2570            uint8 *msg;
   2571            uint8 Status;
   2572            uint8 cnt;
   2573          
   2574            msg = inMsg->asdu;
   \   000005   12....       LCALL   ?Subroutine100 & 0xFFFF
   2575            Status = *msg++;
   \                     ??CrossCallReturnLabel_293:
   \   000008   85..82       MOV     DPL,?V0 + 0
   \   00000B   F583         MOV     DPH,A
   \   00000D   E0           MOVX    A,@DPTR
   \   00000E   F5..         MOV     ?V0 + 3,A
   \   000010   A3           INC     DPTR
   \   000011   8582..       MOV     ?V0 + 0,DPL
   \   000014   8583..       MOV     ?V0 + 1,DPH
   2576            cnt = msg[2];
   \   000017   A3           INC     DPTR
   \   000018   A3           INC     DPTR
   \   000019   E0           MOVX    A,@DPTR
   2577          
   2578            pRsp = (ZDO_ActiveEndpointRsp_t *)osal_mem_alloc( sizeof(  ZDO_ActiveEndpointRsp_t ) + cnt );
   \   00001A   F582         MOV     DPL,A
   \   00001C   12....       LCALL   ?Subroutine121 & 0xFFFF
   2579            if ( pRsp )
   \                     ??CrossCallReturnLabel_182:
   \   00001F   7001         JNZ     ??ZDO_ParseEPListRsp_0
   \   000021   EB           MOV     A,R3
   \                     ??ZDO_ParseEPListRsp_0:
   \   000022   6030         JZ      ??ZDO_ParseEPListRsp_1
   2580            {
   2581              pRsp->status = Status;
   \   000024   8A82         MOV     DPL,R2
   \   000026   8B83         MOV     DPH,R3
   \   000028   E5..         MOV     A,?V0 + 3
   \   00002A   F0           MOVX    @DPTR,A
   2582              pRsp->nwkAddr = BUILD_UINT16( msg[0], msg[1] );
   \   00002B   85..82       MOV     DPL,?V0 + 0
   \   00002E   85..83       MOV     DPH,?V0 + 1
   \   000031   E0           MOVX    A,@DPTR
   \   000032   FA           MOV     R2,A
   \   000033   12....       LCALL   ?Subroutine24 & 0xFFFF
   2583              msg += sizeof( uint16 );
   2584              pRsp->cnt = cnt;
   2585              msg++; // pass cnt
   2586              osal_memcpy( pRsp->epList, msg, cnt );
   \                     ??CrossCallReturnLabel_31:
   \   000036                ; Setup parameters for call to function osal_memcpy
   \   000036   85..82       MOV     DPL,?V0 + 0
   \   000039   85..83       MOV     DPH,?V0 + 1
   \   00003C   A3           INC     DPTR
   \   00003D   A3           INC     DPTR
   \   00003E   A3           INC     DPTR
   \   00003F   A982         MOV     R1,DPL
   \   000041   AA83         MOV     R2,DPH
   \   000043   89..         MOV     ?V0 + 0,R1
   \   000045   8A..         MOV     ?V0 + 1,R2
   \   000047   88..         MOV     ?V0 + 2,R0
   \   000049   78..         MOV     R0,#?V0 + 0
   \   00004B   12....       LCALL   ?PUSH_XSTACK_I_THREE
   \   00004E   12....       LCALL   ?Subroutine119 & 0xFFFF
   2587            }
   \                     ??CrossCallReturnLabel_508:
   \   000051   12....       LCALL   ?DEALLOC_XSTACK8
   2588          
   2589            return ( pRsp );
   \                     ??ZDO_ParseEPListRsp_1:
   \   000054   02....       LJMP    ?Subroutine206 & 0xFFFF
   2590          }

   \                                 In  segment BANKED_CODE, align 1, keep-with-next
   \                     ?Subroutine119:
   \   000000   EE           MOV     A,R6
   \   000001   FC           MOV     R4,A
   \   000002   7D00         MOV     R5,#0x0
   \   000004   E5..         MOV     A,?V0 + 6
   \   000006   2404         ADD     A,#0x4
   \   000008   FA           MOV     R2,A
   \   000009   EB           MOV     A,R3
   \   00000A                REQUIRE ??Subroutine253_0
   \   00000A                ; // Fall through to label ??Subroutine253_0

   \                                 In  segment BANKED_CODE, align 1, keep-with-next
   \                     ??Subroutine253_0:
   \   000000   3400         ADDC    A,#0x0
   \   000002   FB           MOV     R3,A
   \   000003   02....       LJMP    ?Subroutine195 & 0xFFFF

   \                                 In  segment BANKED_CODE, align 1, keep-with-next
   \                     ?Subroutine121:
   \   000000   AE82         MOV     R6,DPL
   \   000002                ; Setup parameters for call to function osal_mem_alloc
   \   000002                ; Setup parameters for call to function osal_mem_alloc
   \   000002   7404         MOV     A,#0x4
   \   000004   2E           ADD     A,R6
   \   000005   FA           MOV     R2,A
   \   000006   E4           CLR     A
   \   000007   3400         ADDC    A,#0x0
   \   000009   FB           MOV     R3,A
   \   00000A   12....       LCALL   ?Subroutine174 & 0xFFFF
   \                     ??CrossCallReturnLabel_243:
   \   00000D   22           RET

   \                                 In  segment BANKED_CODE, align 1, keep-with-next
   \                     ?Subroutine24:
   \   000000   A3           INC     DPTR
   \   000001   E0           MOVX    A,@DPTR
   \   000002   F8           MOV     R0,A
   \   000003   E4           CLR     A
   \   000004   C8           XCH     A,R0
   \   000005   F9           MOV     R1,A
   \   000006   EA           MOV     A,R2
   \   000007   85..82       MOV     DPL,?V0 + 6
   \   00000A   8B83         MOV     DPH,R3
   \   00000C   A3           INC     DPTR
   \   00000D   12....       LCALL   ??Subroutine269_0 & 0xFFFF
   \                     ??CrossCallReturnLabel_625:
   \   000010   85..82       MOV     DPL,?V0 + 6
   \   000013   8B83         MOV     DPH,R3
   \   000015   A3           INC     DPTR
   \   000016   A3           INC     DPTR
   \   000017   A3           INC     DPTR
   \   000018   EE           MOV     A,R6
   \   000019   F0           MOVX    @DPTR,A
   \   00001A   22           RET
   2591          
   2592          /*********************************************************************
   2593           * @fn          ZDO_ParseServerDiscRsp
   2594           *
   2595           * @brief       Parse the Server_Discovery_rsp message.
   2596           *
   2597           * @param       inMsg - incoming message.
   2598           * @param       pRsp - place to put the parsed information.
   2599           *
   2600           * @return      none
   2601           */

   \                                 In  segment BANKED_CODE, align 1, keep-with-next
   2602          void ZDO_ParseServerDiscRsp( zdoIncomingMsg_t *inMsg, ZDO_ServerDiscRsp_t *pRsp )
   \                     ZDO_ParseServerDiscRsp:
   2603          {
   \   000000   74F7         MOV     A,#-0x9
   \   000002   12....       LCALL   ?BANKED_ENTER_XDATA
   \   000005                ; Saved register size: 9
   \   000005                ; Auto size: 0
   2604            pRsp->status = inMsg->asdu[0];
   \   000005   EA           MOV     A,R2
   \   000006   2413         ADD     A,#0x13
   \   000008   F8           MOV     R0,A
   \   000009   EB           MOV     A,R3
   \   00000A   12....       LCALL   ?Subroutine182 & 0xFFFF
   \                     ??CrossCallReturnLabel_406:
   \   00000D   E0           MOVX    A,@DPTR
   \   00000E   FA           MOV     R2,A
   \   00000F   A3           INC     DPTR
   \   000010   E0           MOVX    A,@DPTR
   \   000011   F583         MOV     DPH,A
   \   000013   8A82         MOV     DPL,R2
   \   000015   12....       LCALL   ??Subroutine262_0 & 0xFFFF
   \                     ??CrossCallReturnLabel_586:
   \   000018   12....       LCALL   ??Subroutine252_0 & 0xFFFF
   2605            pRsp->serverMask = BUILD_UINT16( inMsg->asdu[1], inMsg->asdu[2] );
   \                     ??CrossCallReturnLabel_500:
   \   00001B   F8           MOV     R0,A
   \   00001C   A3           INC     DPTR
   \   00001D   E0           MOVX    A,@DPTR
   \   00001E   F9           MOV     R1,A
   \   00001F   8882         MOV     DPL,R0
   \   000021   8983         MOV     DPH,R1
   \   000023   A3           INC     DPTR
   \   000024   E0           MOVX    A,@DPTR
   \   000025   FA           MOV     R2,A
   \   000026   8882         MOV     DPL,R0
   \   000028   8983         MOV     DPH,R1
   \   00002A   A3           INC     DPTR
   \   00002B   12....       LCALL   ?Subroutine106 & 0xFFFF
   \                     ??CrossCallReturnLabel_168:
   \   00002E   12....       LCALL   ??Subroutine226_0 & 0xFFFF
   2606          }
   \                     ??CrossCallReturnLabel_309:
   \   000031   02....       LJMP    ?Subroutine209 & 0xFFFF

   \                                 In  segment BANKED_CODE, align 1, keep-with-next
   \                     ?Subroutine106:
   \   000000   A3           INC     DPTR
   \   000001   E0           MOVX    A,@DPTR
   \   000002   F9           MOV     R1,A
   \   000003   EA           MOV     A,R2
   \   000004   8C82         MOV     DPL,R4
   \   000006   8D83         MOV     DPH,R5
   \   000008   A3           INC     DPTR
   \   000009   22           RET
   2607          
   2608          /*********************************************************************
   2609           * @fn          ZDO_ParseMgmtLqiRsp
   2610           *
   2611           * @brief       This function parses the incoming Management
   2612           *              LQI response
   2613           *
   2614           * @param       inMsg - incoming message
   2615           *
   2616           * @return      a pointer to parsed response structure (NULL if not allocated).
   2617           *          This structure was allocated using osal_mem_alloc, so it must be freed
   2618           *          by the calling function [osal_mem_free()].
   2619           */

   \                                 In  segment BANKED_CODE, align 1, keep-with-next
   2620          ZDO_MgmtLqiRsp_t *ZDO_ParseMgmtLqiRsp( zdoIncomingMsg_t *inMsg )
   \                     ZDO_ParseMgmtLqiRsp:
   2621          {
   \   000000   74F0         MOV     A,#-0x10
   \   000002   12....       LCALL   ?BANKED_ENTER_XDATA
   \   000005                ; Saved register size: 16
   \   000005                ; Auto size: 0
   2622            ZDO_MgmtLqiRsp_t *pRsp;
   2623            uint8 status;
   2624            uint8 startIndex = 0;
   \   000005   12....       LCALL   ?Subroutine67 & 0xFFFF
   2625            uint8 neighborLqiCount = 0;
   2626            uint8 neighborLqiEntries = 0;
   2627            uint8 *msg;
   2628          
   2629            msg = inMsg->asdu;
   2630          
   2631            status = *msg++;
   2632            if ( status == ZSuccess )
   \                     ??CrossCallReturnLabel_282:
   \   000008   700F         JNZ     ??ZDO_ParseMgmtLqiRsp_0
   2633            {
   2634              neighborLqiEntries = *msg++;
   \   00000A   12....       LCALL   ??Subroutine215_0 & 0xFFFF
   2635              startIndex = *msg++;
   \                     ??CrossCallReturnLabel_287:
   \   00000D   F5..         MOV     ?V0 + 4,A
   \   00000F   A3           INC     DPTR
   2636              neighborLqiCount = *msg++;
   \   000010   E0           MOVX    A,@DPTR
   \   000011   F5..         MOV     ?V0 + 1,A
   \   000013   A3           INC     DPTR
   \   000014   0E           INC     R6
   \   000015   0E           INC     R6
   \   000016   0E           INC     R6
   \   000017   AF83         MOV     R7,DPH
   2637            }
   2638          
   2639            // Allocate a buffer big enough to handle the list.
   2640            pRsp = (ZDO_MgmtLqiRsp_t *)osal_mem_alloc(
   2641                      sizeof( ZDO_MgmtLqiRsp_t ) + (neighborLqiCount * sizeof( neighborLqiItem_t )) );
   \                     ??ZDO_ParseMgmtLqiRsp_0:
   \   000019                ; Setup parameters for call to function osal_mem_alloc
   \   000019   E5..         MOV     A,?V0 + 1
   \   00001B   75F00E       MOV     B,#0xe
   \   00001E   12....       LCALL   ?Subroutine110 & 0xFFFF
   2642            if ( pRsp )
   \                     ??CrossCallReturnLabel_244:
   \   000021   7001         JNZ     ??ZDO_ParseMgmtLqiRsp_1
   \   000023   EB           MOV     A,R3
   \                     ??ZDO_ParseMgmtLqiRsp_1:
   \   000024   6064         JZ      ??ZDO_ParseMgmtLqiRsp_2
   2643            {
   2644              uint8 x;
   2645              neighborLqiItem_t *pList = pRsp->list;
   \   000026   12....       LCALL   ?Subroutine120 & 0xFFFF
   2646              pRsp->status = status;
   2647              pRsp->neighborLqiEntries = neighborLqiEntries;
   \                     ??CrossCallReturnLabel_180:
   \   000029   E5..         MOV     A,?V0 + 0
   \   00002B   12....       LCALL   ?Subroutine19 & 0xFFFF
   2648              pRsp->startIndex = startIndex;
   2649              pRsp->neighborLqiCount = neighborLqiCount;
   \                     ??CrossCallReturnLabel_25:
   \   00002E   E5..         MOV     A,?V0 + 1
   \   000030   F0           MOVX    @DPTR,A
   2650          
   2651              for ( x = 0; x < neighborLqiCount; x++ )
   \   000031   75..00       MOV     ?V0 + 0,#0x0
   \   000034   804D         SJMP    ??ZDO_ParseMgmtLqiRsp_3
   2652              {
   2653                osal_cpyExtAddr(pList->extPANId, msg);   //Copy extended PAN ID
   \                     ??ZDO_ParseMgmtLqiRsp_4:
   \   000036                ; Setup parameters for call to function sAddrExtCpy
   \   000036   EE           MOV     A,R6
   \   000037   FC           MOV     R4,A
   \   000038   EF           MOV     A,R7
   \   000039   FD           MOV     R5,A
   \   00003A   E5..         MOV     A,?V0 + 2
   \   00003C   2404         ADD     A,#0x4
   \   00003E   FA           MOV     R2,A
   \   00003F   E5..         MOV     A,?V0 + 3
   \   000041   3400         ADDC    A,#0x0
   \   000043   FB           MOV     R3,A
   \   000044   12....       LCALL   ??sAddrExtCpy?relay
   2654                msg += Z_EXTADDR_LEN;
   2655          
   2656                msg += Z_EXTADDR_LEN;  // Throwing away IEEE.
   \   000047   EE           MOV     A,R6
   \   000048   2410         ADD     A,#0x10
   \   00004A   FE           MOV     R6,A
   \   00004B   EF           MOV     A,R7
   \   00004C   3400         ADDC    A,#0x0
   \   00004E   12....       LCALL   ?Subroutine69 & 0xFFFF
   2657                pList->nwkAddr = BUILD_UINT16( msg[0], msg[1] );
   \                     ??CrossCallReturnLabel_634:
   \   000051   85..82       MOV     DPL,?V0 + 2
   \   000054   85..83       MOV     DPH,?V0 + 3
   \   000057   12....       LCALL   ??Subroutine226_0 & 0xFFFF
   2658                msg += 2 + 1 + 1 + 1;      // Skip DeviceType, RxOnIdle, Rlationship, PermitJoining and Depth
   \                     ??CrossCallReturnLabel_310:
   \   00005A   EE           MOV     A,R6
   \   00005B   2405         ADD     A,#0x5
   \   00005D   12....       LCALL   ?Subroutine128 & 0xFFFF
   2659                pList->rxLqi = *msg++;
   \                     ??CrossCallReturnLabel_186:
   \   000060   C0E0         PUSH    A
   \   000062   E5..         MOV     A,?V0 + 2
   \   000064   240D         ADD     A,#0xd
   \   000066   F582         MOV     DPL,A
   \   000068   E5..         MOV     A,?V0 + 3
   \   00006A   12....       LCALL   ??Subroutine256_0 & 0xFFFF
   \                     ??CrossCallReturnLabel_538:
   \   00006D   D0E0         POP     A
   \   00006F   12....       LCALL   ?Subroutine34 & 0xFFFF
   2660                pList->txQuality = 0;  // This is not specified OTA by ZigBee 1.1.
   \                     ??CrossCallReturnLabel_285:
   \   000072   12....       LCALL   ?Subroutine135 & 0xFFFF
   \                     ??CrossCallReturnLabel_198:
   \   000075   12....       LCALL   ??Subroutine256_0 & 0xFFFF
   \                     ??CrossCallReturnLabel_539:
   \   000078   E4           CLR     A
   \   000079   F0           MOVX    @DPTR,A
   2661                pList++;
   \   00007A   E5..         MOV     A,?V0 + 2
   \   00007C   240E         ADD     A,#0xe
   \   00007E   12....       LCALL   ?Subroutine125 & 0xFFFF
   2662              }
   \                     ??CrossCallReturnLabel_580:
   \   000081   05..         INC     ?V0 + 0
   \                     ??ZDO_ParseMgmtLqiRsp_3:
   \   000083   E5..         MOV     A,?V0 + 0
   \   000085   C3           CLR     C
   \   000086   95..         SUBB    A,?V0 + 1
   \   000088   40AC         JC      ??ZDO_ParseMgmtLqiRsp_4
   2663            }
   2664          
   2665            return ( pRsp );
   \                     ??ZDO_ParseMgmtLqiRsp_2:
   \   00008A   02....       LJMP    ?Subroutine206 & 0xFFFF
   2666          }

   \                                 In  segment BANKED_CODE, align 1, keep-with-next
   \                     ?Subroutine128:
   \   000000   12....       LCALL   ?Subroutine168 & 0xFFFF
   \                     ??CrossCallReturnLabel_603:
   \   000003   22           RET

   \                                 In  segment BANKED_CODE, align 1, keep-with-next
   \                     ?Subroutine19:
   \   000000   12....       LCALL   ?Subroutine148 & 0xFFFF
   \                     ??CrossCallReturnLabel_213:
   \   000003   A3           INC     DPTR
   \   000004   E5..         MOV     A,?V0 + 4
   \   000006   12....       LCALL   ?Subroutine147 & 0xFFFF
   \                     ??CrossCallReturnLabel_211:
   \   000009   22           RET

   \                                 In  segment BANKED_CODE, align 1, keep-with-next
   \                     ?Subroutine120:
   \   000000   EA           MOV     A,R2
   \   000001   2404         ADD     A,#0x4
   \   000003   F5..         MOV     ?V0 + 2,A
   \   000005   EB           MOV     A,R3
   \   000006   3400         ADDC    A,#0x0
   \   000008   F5..         MOV     ?V0 + 3,A
   \   00000A   8A82         MOV     DPL,R2
   \   00000C   8B83         MOV     DPH,R3
   \   00000E   E5..         MOV     A,?V0 + 5
   \   000010   F0           MOVX    @DPTR,A
   \   000011   A3           INC     DPTR
   \   000012   22           RET

   \                                 In  segment BANKED_CODE, align 1, keep-with-next
   \                     ?Subroutine110:
   \   000000   A4           MUL     AB
   \   000001   F8           MOV     R0,A
   \   000002   A9F0         MOV     R1,B
   \   000004   7404         MOV     A,#0x4
   \   000006   12....       LCALL   ?Subroutine166 & 0xFFFF
   \                     ??CrossCallReturnLabel_230:
   \   000009                REQUIRE ?Subroutine194
   \   000009                ; // Fall through to label ?Subroutine194

   \                                 In  segment BANKED_CODE, align 1, keep-with-next
   \                     ?Subroutine67:
   \   000000   75..00       MOV     ?V0 + 4,#0x0
   \   000003   75..00       MOV     ?V0 + 1,#0x0
   \   000006   75..00       MOV     ?V0 + 0,#0x0
   \   000009   12....       LCALL   ?Subroutine164 & 0xFFFF
   \                     ??CrossCallReturnLabel_557:
   \   00000C   12....       LCALL   ?Subroutine159 & 0xFFFF
   \                     ??CrossCallReturnLabel_601:
   \   00000F   F5..         MOV     ?V0 + 5,A
   \   000011   A3           INC     DPTR
   \   000012   02....       LJMP    ?Subroutine205 & 0xFFFF
   2667          
   2668          /*********************************************************************
   2669           * @fn          ZDO_ParseMgmNwkDiscRsp
   2670           *
   2671           * @brief       This function parses the incoming Management
   2672           *              Network Discover response.
   2673           *
   2674           * @param       inMsg - incoming message
   2675           *
   2676           * @return      pointer to parsed response.  This structure was
   2677           *          allocated using osal_mem_alloc, so it must be freed
   2678           *          by the calling function [osal_mem_free()].
   2679           */

   \                                 In  segment BANKED_CODE, align 1, keep-with-next
   2680          ZDO_MgmNwkDiscRsp_t *ZDO_ParseMgmNwkDiscRsp( zdoIncomingMsg_t *inMsg )
   \                     ZDO_ParseMgmNwkDiscRsp:
   2681          {
   \   000000   74F0         MOV     A,#-0x10
   \   000002   12....       LCALL   ?BANKED_ENTER_XDATA
   \   000005                ; Saved register size: 16
   \   000005                ; Auto size: 0
   2682            ZDO_MgmNwkDiscRsp_t *pRsp;
   2683            uint8 status;
   2684            uint8 networkCount = 0;
   \   000005   75..00       MOV     ?V0 + 1,#0x0
   2685            uint8 startIndex = 0;
   \   000008   75..00       MOV     ?V0 + 0,#0x0
   2686            uint8 networkListCount = 0;
   \   00000B   75..00       MOV     ?V0 + 2,#0x0
   2687            uint8 *msg;
   2688          
   2689            msg = inMsg->asdu;
   \   00000E   12....       LCALL   ?Subroutine68 & 0xFFFF
   2690            status = *msg++;
   \                     ??CrossCallReturnLabel_565:
   \   000011   F5..         MOV     ?V0 + 3,A
   \   000013   A3           INC     DPTR
   \   000014   AE82         MOV     R6,DPL
   \   000016   AF83         MOV     R7,DPH
   2691          
   2692            if ( status == ZSuccess )
   \   000018   700F         JNZ     ??ZDO_ParseMgmNwkDiscRsp_0
   2693            {
   2694              networkCount = *msg++;
   \   00001A   E0           MOVX    A,@DPTR
   \   00001B   F5..         MOV     ?V0 + 1,A
   \   00001D   A3           INC     DPTR
   2695              startIndex = *msg++;
   \   00001E   12....       LCALL   ??Subroutine215_0 & 0xFFFF
   2696              networkListCount = *msg++;
   2697            }
   \                     ??CrossCallReturnLabel_288:
   \   000021   F5..         MOV     ?V0 + 2,A
   \   000023   A3           INC     DPTR
   \   000024   0E           INC     R6
   \   000025   0E           INC     R6
   \   000026   0E           INC     R6
   \   000027   AF83         MOV     R7,DPH
   2698          
   2699            // Allocate a buffer big enough to handle the list.
   2700            pRsp = (ZDO_MgmNwkDiscRsp_t *)osal_mem_alloc( sizeof( ZDO_MgmNwkDiscRsp_t )
   2701                                            + (networkListCount * sizeof( mgmtNwkDiscItem_t )) );
   \                     ??ZDO_ParseMgmNwkDiscRsp_0:
   \   000029                ; Setup parameters for call to function osal_mem_alloc
   \   000029   85....       MOV     ?V0 + 4,?V0 + 2
   \   00002C   75..00       MOV     ?V0 + 5,#0x0
   \   00002F   7404         MOV     A,#0x4
   \   000031   78..         MOV     R0,#?V0 + 4
   \   000033   12....       LCALL   ?S_SHL
   \   000036   7404         MOV     A,#0x4
   \   000038   25..         ADD     A,?V0 + 4
   \   00003A   FA           MOV     R2,A
   \   00003B   E4           CLR     A
   \   00003C   35..         ADDC    A,?V0 + 5
   \   00003E   FB           MOV     R3,A
   \   00003F   12....       LCALL   ?Subroutine132 & 0xFFFF
   2702            if ( pRsp )
   \                     ??CrossCallReturnLabel_193:
   \   000042   7001         JNZ     ??ZDO_ParseMgmNwkDiscRsp_1
   \   000044   EB           MOV     A,R3
   \                     ??ZDO_ParseMgmNwkDiscRsp_1:
   \   000045   7003         JNZ     $+5
   \   000047   02....       LJMP    ??ZDO_ParseMgmNwkDiscRsp_2 & 0xFFFF
   2703            {
   2704              uint8 x;
   2705              mgmtNwkDiscItem_t *pList;
   2706          
   2707              pRsp->status = status;
   \   00004A   8A82         MOV     DPL,R2
   \   00004C   8B83         MOV     DPH,R3
   \   00004E   E5..         MOV     A,?V0 + 3
   \   000050   F0           MOVX    @DPTR,A
   2708              pRsp->networkCount = networkCount;
   \   000051   A3           INC     DPTR
   \   000052   E5..         MOV     A,?V0 + 1
   \   000054   12....       LCALL   ?Subroutine42 & 0xFFFF
   2709              pRsp->startIndex = startIndex;
   \                     ??CrossCallReturnLabel_80:
   \   000057   E5..         MOV     A,?V0 + 0
   \   000059   12....       LCALL   ?Subroutine41 & 0xFFFF
   2710              pRsp->networkListCount = networkListCount;
   \                     ??CrossCallReturnLabel_77:
   \   00005C   E5..         MOV     A,?V0 + 2
   \   00005E   F0           MOVX    @DPTR,A
   2711              pList = pRsp->list;
   \   00005F   EA           MOV     A,R2
   \   000060   2404         ADD     A,#0x4
   \   000062   F5..         MOV     ?V0 + 0,A
   \   000064   EB           MOV     A,R3
   \   000065   12....       LCALL   ??Subroutine248_0 & 0xFFFF
   2712          
   2713              for ( x = 0; x < networkListCount; x++ )
   \                     ??CrossCallReturnLabel_467:
   \   000068   75..00       MOV     ?V0 + 3,#0x0
   \   00006B   02....       LJMP    ??ZDO_ParseMgmNwkDiscRsp_3 & 0xFFFF
   2714              {
   2715                osal_cpyExtAddr(pList->extendedPANID, msg);   //Copy extended PAN ID
   \                     ??ZDO_ParseMgmNwkDiscRsp_4:
   \   00006E                ; Setup parameters for call to function sAddrExtCpy
   \   00006E   EE           MOV     A,R6
   \   00006F   FC           MOV     R4,A
   \   000070   EF           MOV     A,R7
   \   000071   FD           MOV     R5,A
   \   000072   AA..         MOV     R2,?V0 + 0
   \   000074   AB..         MOV     R3,?V0 + 1
   \   000076   12....       LCALL   ??sAddrExtCpy?relay
   2716                pList->PANId = BUILD_UINT16( msg[0], msg[1] );
   \   000079   12....       LCALL   ??Subroutine270_0 & 0xFFFF
   \                     ??CrossCallReturnLabel_643:
   \   00007C   85..82       MOV     DPL,?V0 + 0
   \   00007F   85..83       MOV     DPH,?V0 + 1
   \   000082   A3           INC     DPTR
   \   000083   A3           INC     DPTR
   \   000084   A3           INC     DPTR
   \   000085   A3           INC     DPTR
   \   000086   A3           INC     DPTR
   \   000087   A3           INC     DPTR
   \   000088   A3           INC     DPTR
   \   000089   A3           INC     DPTR
   \   00008A   12....       LCALL   ??Subroutine226_0 & 0xFFFF
   2717                msg += Z_EXTADDR_LEN;
   \                     ??CrossCallReturnLabel_311:
   \   00008D   EE           MOV     A,R6
   \   00008E   2408         ADD     A,#0x8
   \   000090   12....       LCALL   ?Subroutine128 & 0xFFFF
   2718          
   2719                pList->logicalChannel = *msg++;
   2720                pList->stackProfile = (*msg) & 0x0F;
   2721                pList->version = (*msg++ >> 4) & 0x0F;
   2722                pList->beaconOrder = (*msg) & 0x0F;
   2723                pList->superFrameOrder = (*msg++ >> 4) & 0x0F;
   2724                pList->permitJoining = *msg++;
   2725                pList++;
   2726              }
   \                     ??CrossCallReturnLabel_187:
   \   000093   85..82       MOV     DPL,?V0 + 0
   \   000096   85..83       MOV     DPH,?V0 + 1
   \   000099   A3           INC     DPTR
   \   00009A   A3           INC     DPTR
   \   00009B   A3           INC     DPTR
   \   00009C   A3           INC     DPTR
   \   00009D   A3           INC     DPTR
   \   00009E   12....       LCALL   ?Subroutine33 & 0xFFFF
   \                     ??CrossCallReturnLabel_49:
   \   0000A1   540F         ANL     A,#0xf
   \   0000A3   C0E0         PUSH    A
   \   0000A5   E5..         MOV     A,?V0 + 0
   \   0000A7   240B         ADD     A,#0xb
   \   0000A9   12....       LCALL   ??Subroutine254_0 & 0xFFFF
   \                     ??CrossCallReturnLabel_546:
   \   0000AC   D0E0         POP     A
   \   0000AE   12....       LCALL   ?Subroutine43 & 0xFFFF
   \                     ??CrossCallReturnLabel_82:
   \   0000B1   C0E0         PUSH    A
   \   0000B3   E5..         MOV     A,?V0 + 0
   \   0000B5   240C         ADD     A,#0xc
   \   0000B7   12....       LCALL   ??Subroutine254_0 & 0xFFFF
   \                     ??CrossCallReturnLabel_547:
   \   0000BA   D0E0         POP     A
   \   0000BC   12....       LCALL   ?Subroutine18 & 0xFFFF
   \                     ??CrossCallReturnLabel_23:
   \   0000BF   540F         ANL     A,#0xf
   \   0000C1   C0E0         PUSH    A
   \   0000C3   E5..         MOV     A,?V0 + 0
   \   0000C5   240D         ADD     A,#0xd
   \   0000C7   12....       LCALL   ??Subroutine254_0 & 0xFFFF
   \                     ??CrossCallReturnLabel_548:
   \   0000CA   D0E0         POP     A
   \   0000CC   12....       LCALL   ?Subroutine43 & 0xFFFF
   \                     ??CrossCallReturnLabel_83:
   \   0000CF   C0E0         PUSH    A
   \   0000D1   12....       LCALL   ?Subroutine124 & 0xFFFF
   \                     ??CrossCallReturnLabel_551:
   \   0000D4   D0E0         POP     A
   \   0000D6   12....       LCALL   ?Subroutine18 & 0xFFFF
   \                     ??CrossCallReturnLabel_24:
   \   0000D9   C0E0         PUSH    A
   \   0000DB   E5..         MOV     A,?V0 + 0
   \   0000DD   240F         ADD     A,#0xf
   \   0000DF   12....       LCALL   ??Subroutine254_0 & 0xFFFF
   \                     ??CrossCallReturnLabel_549:
   \   0000E2   D0E0         POP     A
   \   0000E4   12....       LCALL   ?Subroutine31 & 0xFFFF
   \                     ??CrossCallReturnLabel_44:
   \   0000E7   2410         ADD     A,#0x10
   \   0000E9   12....       LCALL   ?Subroutine127 & 0xFFFF
   \                     ??CrossCallReturnLabel_469:
   \   0000EC   05..         INC     ?V0 + 3
   \                     ??ZDO_ParseMgmNwkDiscRsp_3:
   \   0000EE   E5..         MOV     A,?V0 + 3
   \   0000F0   C3           CLR     C
   \   0000F1   95..         SUBB    A,?V0 + 2
   \   0000F3   5003         JNC     $+5
   \   0000F5   02....       LJMP    ??ZDO_ParseMgmNwkDiscRsp_4 & 0xFFFF
   2727            }
   2728          
   2729            return ( pRsp );
   \                     ??ZDO_ParseMgmNwkDiscRsp_2:
   \   0000F8   02....       LJMP    ?Subroutine206 & 0xFFFF
   2730          }

   \                                 In  segment BANKED_CODE, align 1, keep-with-next
   \                     ?Subroutine43:
   \   000000   12....       LCALL   ?Subroutine183 & 0xFFFF
   \                     ??CrossCallReturnLabel_485:
   \   000003   E0           MOVX    A,@DPTR
   \   000004   C4           SWAP    A
   \   000005   540F         ANL     A,#0xf
   \   000007   22           RET

   \                                 In  segment BANKED_CODE, align 1, keep-with-next
   \                     ?Subroutine68:
   \   000000   12....       LCALL   ?Subroutine164 & 0xFFFF
   \                     ??CrossCallReturnLabel_558:
   \   000003                REQUIRE ??Subroutine258_0
   \   000003                ; // Fall through to label ??Subroutine258_0

   \                                 In  segment BANKED_CODE, align 1, keep-with-next
   \                     ?Subroutine33:
   \   000000   A3           INC     DPTR
   \   000001   A3           INC     DPTR
   \   000002   A3           INC     DPTR
   \   000003   A3           INC     DPTR
   \   000004   A3           INC     DPTR
   \   000005   12....       LCALL   ?Subroutine142 & 0xFFFF
   \                     ??CrossCallReturnLabel_478:
   \   000008   22           RET
   2731          
   2732          /*********************************************************************
   2733           * @fn          ZDO_ParseMgmtRtgRsp
   2734           *
   2735           * @brief       This function parses the incoming Management
   2736           *              Routing response.
   2737           *
   2738           * @param       inMsg - incoming message
   2739           *
   2740           * @return      a pointer to parsed response structure (NULL if not allocated).
   2741           *          This structure was allocated using osal_mem_alloc, so it must be freed
   2742           *          by the calling function [osal_mem_free()].
   2743           */

   \                                 In  segment BANKED_CODE, align 1, keep-with-next
   2744          ZDO_MgmtRtgRsp_t *ZDO_ParseMgmtRtgRsp( zdoIncomingMsg_t *inMsg )
   \                     ZDO_ParseMgmtRtgRsp:
   2745          {
   \   000000   74F2         MOV     A,#-0xe
   \   000002   12....       LCALL   ?BANKED_ENTER_XDATA
   \   000005                ; Saved register size: 14
   \   000005                ; Auto size: 0
   2746            ZDO_MgmtRtgRsp_t *pRsp;
   2747            uint8 status;
   2748            uint8 rtgCount = 0;
   \   000005   75..00       MOV     ?V0 + 3,#0x0
   2749            uint8 startIndex = 0;
   \   000008   75..00       MOV     ?V0 + 4,#0x0
   2750            uint8 rtgListCount = 0;
   \   00000B   75..00       MOV     ?V0 + 5,#0x0
   2751            uint8 *msg;
   2752          
   2753            msg = inMsg->asdu;
   \   00000E   12....       LCALL   ?Subroutine68 & 0xFFFF
   2754          
   2755            status = *msg++;
   \                     ??CrossCallReturnLabel_566:
   \   000011   F5..         MOV     ?V0 + 2,A
   \   000013   A3           INC     DPTR
   \   000014   AE82         MOV     R6,DPL
   \   000016   AF83         MOV     R7,DPH
   2756            if ( status == ZSuccess )
   \   000018   7011         JNZ     ??ZDO_ParseMgmtRtgRsp_0
   2757            {
   2758              rtgCount = *msg++;
   \   00001A   E0           MOVX    A,@DPTR
   \   00001B   F5..         MOV     ?V0 + 3,A
   \   00001D   A3           INC     DPTR
   2759              startIndex = *msg++;
   \   00001E   E0           MOVX    A,@DPTR
   \   00001F   F5..         MOV     ?V0 + 4,A
   \   000021   A3           INC     DPTR
   2760              rtgListCount = *msg++;
   \   000022   E0           MOVX    A,@DPTR
   \   000023   F5..         MOV     ?V0 + 5,A
   \   000025   A3           INC     DPTR
   \   000026   0E           INC     R6
   \   000027   0E           INC     R6
   \   000028   0E           INC     R6
   \   000029   AF83         MOV     R7,DPH
   2761            }
   2762          
   2763            // Allocate a buffer big enough to handle the list
   2764            pRsp = (ZDO_MgmtRtgRsp_t *)osal_mem_alloc(
   2765                    sizeof( ZDO_MgmtRtgRsp_t ) + (rtgListCount * sizeof( rtgItem_t )) );
   \                     ??ZDO_ParseMgmtRtgRsp_0:
   \   00002B                ; Setup parameters for call to function osal_mem_alloc
   \   00002B   E5..         MOV     A,?V0 + 5
   \   00002D   75F006       MOV     B,#0x6
   \   000030   A4           MUL     AB
   \   000031   F8           MOV     R0,A
   \   000032   A9F0         MOV     R1,B
   \   000034   7404         MOV     A,#0x4
   \   000036   12....       LCALL   ?Subroutine113 & 0xFFFF
   2766            if ( pRsp )
   \                     ??CrossCallReturnLabel_175:
   \   000039   EA           MOV     A,R2
   \   00003A   7001         JNZ     ??ZDO_ParseMgmtRtgRsp_1
   \   00003C   EB           MOV     A,R3
   \                     ??ZDO_ParseMgmtRtgRsp_1:
   \   00003D   604E         JZ      ??ZDO_ParseMgmtRtgRsp_2
   2767            {
   2768              uint8 x;
   2769              rtgItem_t *pList = pRsp->list;
   \   00003F   EA           MOV     A,R2
   \   000040   2404         ADD     A,#0x4
   \   000042   F8           MOV     R0,A
   \   000043   EB           MOV     A,R3
   \   000044   3400         ADDC    A,#0x0
   \   000046   F9           MOV     R1,A
   2770              pRsp->status = status;
   \   000047   8A82         MOV     DPL,R2
   \   000049   8B83         MOV     DPH,R3
   \   00004B   E5..         MOV     A,?V0 + 2
   \   00004D   F0           MOVX    @DPTR,A
   2771              pRsp->rtgCount = rtgCount;
   \   00004E   A3           INC     DPTR
   \   00004F   E5..         MOV     A,?V0 + 3
   \   000051   12....       LCALL   ?Subroutine19 & 0xFFFF
   2772              pRsp->startIndex = startIndex;
   2773              pRsp->rtgListCount = rtgListCount;
   \                     ??CrossCallReturnLabel_26:
   \   000054   E5..         MOV     A,?V0 + 5
   \   000056   F0           MOVX    @DPTR,A
   2774          
   2775              for ( x = 0; x < rtgListCount; x++ )
   \   000057   75..00       MOV     ?V0 + 0,#0x0
   \   00005A   802A         SJMP    ??ZDO_ParseMgmtRtgRsp_3
   2776              {
   2777                pList->dstAddress = BUILD_UINT16( msg[0], msg[1] );
   \                     ??ZDO_ParseMgmtRtgRsp_4:
   \   00005C   8E82         MOV     DPL,R6
   \   00005E   8F83         MOV     DPH,R7
   \   000060   E0           MOVX    A,@DPTR
   \   000061   12....       LCALL   ?Subroutine109 & 0xFFFF
   \                     ??CrossCallReturnLabel_403:
   \   000064   F0           MOVX    @DPTR,A
   \   000065   A3           INC     DPTR
   \   000066   ED           MOV     A,R5
   \   000067   12....       LCALL   ??Subroutine263_0 & 0xFFFF
   2778                msg += 2;
   2779                pList->status = *msg++;
   \                     ??CrossCallReturnLabel_599:
   \   00006A   8882         MOV     DPL,R0
   \   00006C   8983         MOV     DPH,R1
   \   00006E   12....       LCALL   ?Subroutine33 & 0xFFFF
   2780                pList->nextHopAddress = BUILD_UINT16( msg[0], msg[1] );
   \                     ??CrossCallReturnLabel_50:
   \   000071   12....       LCALL   ?Subroutine109 & 0xFFFF
   \                     ??CrossCallReturnLabel_404:
   \   000074   A3           INC     DPTR
   \   000075   A3           INC     DPTR
   \   000076   F0           MOVX    @DPTR,A
   \   000077   A3           INC     DPTR
   \   000078   ED           MOV     A,R5
   \   000079   12....       LCALL   ?Subroutine39 & 0xFFFF
   2781                msg += 2;
   2782                pList++;
   \                     ??CrossCallReturnLabel_74:
   \   00007C   E8           MOV     A,R0
   \   00007D   2406         ADD     A,#0x6
   \   00007F   F8           MOV     R0,A
   \   000080   E9           MOV     A,R1
   \   000081   3400         ADDC    A,#0x0
   \   000083   F9           MOV     R1,A
   2783              }
   \   000084   05..         INC     ?V0 + 0
   \                     ??ZDO_ParseMgmtRtgRsp_3:
   \   000086   E5..         MOV     A,?V0 + 0
   \   000088   C3           CLR     C
   \   000089   95..         SUBB    A,?V0 + 5
   \   00008B   40CF         JC      ??ZDO_ParseMgmtRtgRsp_4
   2784            }
   2785          
   2786            return ( pRsp );
   \                     ??ZDO_ParseMgmtRtgRsp_2:
   \   00008D   02....       LJMP    ??Subroutine235_0 & 0xFFFF
   2787          }

   \                                 In  segment BANKED_CODE, align 1, keep-with-next
   \                     ?Subroutine109:
   \   000000   F5..         MOV     ?V0 + 2,A
   \   000002   A3           INC     DPTR
   \   000003   E0           MOVX    A,@DPTR
   \   000004   FD           MOV     R5,A
   \   000005   E5..         MOV     A,?V0 + 2
   \   000007   02....       LJMP    ?Subroutine202 & 0xFFFF

   \                                 In  segment BANKED_CODE, align 1, keep-with-next
   \                     ?Subroutine39:
   \   000000   12....       LCALL   ?Subroutine139 & 0xFFFF
   \                     ??CrossCallReturnLabel_590:
   \   000003   22           RET

   \                                 In  segment BANKED_CODE, align 1, keep-with-next
   \                     ?Subroutine139:
   \   000000   12....       LCALL   ?Subroutine176 & 0xFFFF
   \                     ??CrossCallReturnLabel_593:
   \   000003   22           RET

   \                                 In  segment BANKED_CODE, align 1, keep-with-next
   \                     ??Subroutine263_0:
   \   000000   12....       LCALL   ?Subroutine139 & 0xFFFF
   \                     ??CrossCallReturnLabel_592:
   \   000003   02....       LJMP    ??Subroutine257_0 & 0xFFFF
   2788          
   2789          /*********************************************************************
   2790           * @fn          ZDO_ParseMgmtBindRsp
   2791           *
   2792           * @brief       This function parses the incoming Management
   2793           *              Binding response.
   2794           *
   2795           * @param       inMsg - pointer to message to parse
   2796           *
   2797           * @return      a pointer to parsed response structure (NULL if not allocated).
   2798           *          This structure was allocated using osal_mem_alloc, so it must be freed
   2799           *          by the calling function [osal_mem_free()].
   2800           */

   \                                 In  segment BANKED_CODE, align 1, keep-with-next
   2801          ZDO_MgmtBindRsp_t *ZDO_ParseMgmtBindRsp( zdoIncomingMsg_t *inMsg )
   \                     ZDO_ParseMgmtBindRsp:
   2802          {
   \   000000   74F0         MOV     A,#-0x10
   \   000002   12....       LCALL   ?BANKED_ENTER_XDATA
   \   000005                ; Saved register size: 16
   \   000005                ; Auto size: 0
   2803            ZDO_MgmtBindRsp_t *pRsp;
   2804            uint8 status;
   2805            uint8 bindingCount = 0;
   \   000005   12....       LCALL   ?Subroutine67 & 0xFFFF
   2806            uint8 startIndex = 0;
   2807            uint8 bindingListCount = 0;
   2808            uint8 *msg;
   2809          
   2810            msg = inMsg->asdu;
   2811          
   2812            status = *msg++;
   2813            if ( status == ZSuccess )
   \                     ??CrossCallReturnLabel_283:
   \   000008   7011         JNZ     ??ZDO_ParseMgmtBindRsp_0
   2814            {
   2815              bindingCount = *msg++;
   \   00000A   E0           MOVX    A,@DPTR
   \   00000B   F5..         MOV     ?V0 + 4,A
   \   00000D   A3           INC     DPTR
   2816              startIndex = *msg++;
   \   00000E   E0           MOVX    A,@DPTR
   \   00000F   F5..         MOV     ?V0 + 1,A
   \   000011   A3           INC     DPTR
   2817              bindingListCount = *msg++;
   \   000012   E0           MOVX    A,@DPTR
   \   000013   F5..         MOV     ?V0 + 0,A
   \   000015   A3           INC     DPTR
   \   000016   0E           INC     R6
   \   000017   0E           INC     R6
   \   000018   0E           INC     R6
   \   000019   AF83         MOV     R7,DPH
   2818            }
   2819          
   2820            // Allocate a buffer big enough to handle the list
   2821            pRsp = (ZDO_MgmtBindRsp_t *)osal_mem_alloc(
   2822                    (sizeof ( ZDO_MgmtBindRsp_t ) + (bindingListCount * sizeof( apsBindingItem_t ))) );
   \                     ??ZDO_ParseMgmtBindRsp_0:
   \   00001B                ; Setup parameters for call to function osal_mem_alloc
   \   00001B   E5..         MOV     A,?V0 + 0
   \   00001D   75F015       MOV     B,#0x15
   \   000020   12....       LCALL   ?Subroutine110 & 0xFFFF
   2823            if ( pRsp )
   \                     ??CrossCallReturnLabel_245:
   \   000023   7001         JNZ     ??ZDO_ParseMgmtBindRsp_1
   \   000025   EB           MOV     A,R3
   \                     ??ZDO_ParseMgmtBindRsp_1:
   \   000026   7003         JNZ     $+5
   \   000028   02....       LJMP    ??ZDO_ParseMgmtBindRsp_2 & 0xFFFF
   2824            {
   2825              uint8 x;
   2826              apsBindingItem_t *pList = pRsp->list;
   \   00002B   12....       LCALL   ?Subroutine120 & 0xFFFF
   2827              pRsp->status = status;
   2828              pRsp->bindingCount = bindingCount;
   \                     ??CrossCallReturnLabel_181:
   \   00002E   E5..         MOV     A,?V0 + 4
   \   000030   12....       LCALL   ?Subroutine42 & 0xFFFF
   2829              pRsp->startIndex = startIndex;
   \                     ??CrossCallReturnLabel_81:
   \   000033   E5..         MOV     A,?V0 + 1
   \   000035   12....       LCALL   ?Subroutine41 & 0xFFFF
   2830              pRsp->bindingListCount = bindingListCount;
   \                     ??CrossCallReturnLabel_78:
   \   000038   E5..         MOV     A,?V0 + 0
   \   00003A   F0           MOVX    @DPTR,A
   2831          
   2832              for ( x = 0; x < bindingListCount; x++ )
   \   00003B   75..00       MOV     ?V0 + 1,#0x0
   \   00003E   800F         SJMP    ??ZDO_ParseMgmtBindRsp_3
   2833              {
   2834                osal_cpyExtAddr( pList->srcAddr, msg );
   2835                msg += Z_EXTADDR_LEN;
   2836                pList->srcEP = *msg++;
   2837          
   2838                // Get the Cluster ID
   2839          
   2840                pList->clusterID = BUILD_UINT16( msg[0], msg[1] );
   2841                msg += 2;
   2842                pList->dstAddr.addrMode = *msg++;
   2843                if ( pList->dstAddr.addrMode == Addr64Bit )
   2844                {
   2845                  osal_cpyExtAddr( pList->dstAddr.addr.extAddr, msg );
   2846                  msg += Z_EXTADDR_LEN;
   2847                  pList->dstEP = *msg++;
   2848                }
   2849                else
   2850                {
   2851                  pList->dstAddr.addr.shortAddr = BUILD_UINT16( msg[0], msg[1] );
   \                     ??ZDO_ParseMgmtBindRsp_4:
   \   000040   12....       LCALL   ?Subroutine87 & 0xFFFF
   2852                  msg += 2;
   2853                }
   \                     ??CrossCallReturnLabel_146:
   \   000043   12....       LCALL   ?Subroutine39 & 0xFFFF
   2854          
   2855                pList++;
   \                     ??CrossCallReturnLabel_75:
   \   000046   E5..         MOV     A,?V0 + 2
   \   000048   2415         ADD     A,#0x15
   \   00004A   12....       LCALL   ?Subroutine125 & 0xFFFF
   \                     ??CrossCallReturnLabel_581:
   \   00004D   05..         INC     ?V0 + 1
   \                     ??ZDO_ParseMgmtBindRsp_3:
   \   00004F   E5..         MOV     A,?V0 + 1
   \   000051   C3           CLR     C
   \   000052   95..         SUBB    A,?V0 + 0
   \   000054   5055         JNC     ??ZDO_ParseMgmtBindRsp_2
   \   000056                ; Setup parameters for call to function sAddrExtCpy
   \   000056   EE           MOV     A,R6
   \   000057   FC           MOV     R4,A
   \   000058   EF           MOV     A,R7
   \   000059   FD           MOV     R5,A
   \   00005A   AA..         MOV     R2,?V0 + 2
   \   00005C   AB..         MOV     R3,?V0 + 3
   \   00005E   12....       LCALL   ??Subroutine249_0 & 0xFFFF
   \                     ??CrossCallReturnLabel_475:
   \   000061   85..82       MOV     DPL,?V0 + 2
   \   000064   85..83       MOV     DPH,?V0 + 3
   \   000067   12....       LCALL   ?Subroutine0 & 0xFFFF
   \                     ??CrossCallReturnLabel_636:
   \   00006A   85..82       MOV     DPL,?V0 + 2
   \   00006D   85..83       MOV     DPH,?V0 + 3
   \   000070   12....       LCALL   ?Subroutine12 & 0xFFFF
   \                     ??CrossCallReturnLabel_17:
   \   000073   E5..         MOV     A,?V0 + 2
   \   000075   12....       LCALL   ??Subroutine259_0 & 0xFFFF
   \                     ??CrossCallReturnLabel_572:
   \   000078   E5..         MOV     A,?V0 + 3
   \   00007A   12....       LCALL   ??Subroutine256_0 & 0xFFFF
   \                     ??CrossCallReturnLabel_540:
   \   00007D   EC           MOV     A,R4
   \   00007E   12....       LCALL   ?Subroutine32 & 0xFFFF
   \                     ??CrossCallReturnLabel_46:
   \   000081   E5..         MOV     A,?V0 + 2
   \   000083   240B         ADD     A,#0xb
   \   000085   FA           MOV     R2,A
   \   000086   E5..         MOV     A,?V0 + 3
   \   000088   3400         ADDC    A,#0x0
   \   00008A   FB           MOV     R3,A
   \   00008B   7403         MOV     A,#0x3
   \   00008D   6C           XRL     A,R4
   \   00008E   70B0         JNZ     ??ZDO_ParseMgmtBindRsp_4
   \   000090                ; Setup parameters for call to function sAddrExtCpy
   \   000090   EE           MOV     A,R6
   \   000091   FC           MOV     R4,A
   \   000092   EF           MOV     A,R7
   \   000093   FD           MOV     R5,A
   \   000094   12....       LCALL   ??Subroutine249_0 & 0xFFFF
   2856              }
   2857            }
   \                     ??CrossCallReturnLabel_476:
   \   000097   C0E0         PUSH    A
   \   000099   E5..         MOV     A,?V0 + 2
   \   00009B   2414         ADD     A,#0x14
   \   00009D   F582         MOV     DPL,A
   \   00009F   E5..         MOV     A,?V0 + 3
   \   0000A1   12....       LCALL   ??Subroutine256_0 & 0xFFFF
   \                     ??CrossCallReturnLabel_541:
   \   0000A4   D0E0         POP     A
   \   0000A6   12....       LCALL   ?Subroutine32 & 0xFFFF
   \                     ??CrossCallReturnLabel_47:
   \   0000A9   809B         SJMP    ??CrossCallReturnLabel_75
   2858          
   2859            return ( pRsp );
   \                     ??ZDO_ParseMgmtBindRsp_2:
   \   0000AB   02....       LJMP    ?Subroutine206 & 0xFFFF
   2860          }
   2861          
   2862          /*********************************************************************
   2863           * @fn          ZDO_ParseUserDescRsp
   2864           *
   2865           * @brief       This function parses the incoming User
   2866           *              Descriptor Response.
   2867           *
   2868           * @param       inMsg - incoming response message
   2869           *
   2870           * @return      a pointer to parsed response structure (NULL if not allocated).
   2871           *          This structure was allocated using osal_mem_alloc, so it must be freed
   2872           *          by the calling function [osal_mem_free()].
   2873           */

   \                                 In  segment BANKED_CODE, align 1, keep-with-next
   2874          ZDO_UserDescRsp_t *ZDO_ParseUserDescRsp( zdoIncomingMsg_t *inMsg )
   \                     ZDO_ParseUserDescRsp:
   2875          {
   \   000000   74F0         MOV     A,#-0x10
   \   000002   12....       LCALL   ?BANKED_ENTER_XDATA
   \   000005                ; Saved register size: 16
   \   000005                ; Auto size: 0
   2876            ZDO_UserDescRsp_t *pRsp;
   2877            uint8 *msg;
   2878            uint8 descLen = 0;
   \   000005   75..00       MOV     ?V0 + 2,#0x0
   2879          
   2880            msg = inMsg->asdu;
   \   000008   12....       LCALL   ?Subroutine100 & 0xFFFF
   \                     ??CrossCallReturnLabel_294:
   \   00000B   F5..         MOV     ?V0 + 1,A
   2881          
   2882            if ( msg[0] == ZSuccess )
   \   00000D   85..82       MOV     DPL,?V0 + 0
   \   000010   F583         MOV     DPH,A
   \   000012   E0           MOVX    A,@DPTR
   \   000013   7006         JNZ     ??ZDO_ParseUserDescRsp_0
   2883              descLen = msg[3];
   \   000015   A3           INC     DPTR
   \   000016   A3           INC     DPTR
   \   000017   A3           INC     DPTR
   \   000018   E0           MOVX    A,@DPTR
   \   000019   F5..         MOV     ?V0 + 2,A
   2884          
   2885            pRsp = (ZDO_UserDescRsp_t *)osal_mem_alloc( sizeof ( ZDO_UserDescRsp_t ) + descLen );
   \                     ??ZDO_ParseUserDescRsp_0:
   \   00001B   85..82       MOV     DPL,?V0 + 2
   \   00001E   12....       LCALL   ?Subroutine121 & 0xFFFF
   2886            if ( pRsp )
   \                     ??CrossCallReturnLabel_183:
   \   000021   7001         JNZ     ??ZDO_ParseUserDescRsp_1
   \   000023   EB           MOV     A,R3
   \                     ??ZDO_ParseUserDescRsp_1:
   \   000024   6032         JZ      ??ZDO_ParseUserDescRsp_2
   2887            {
   2888              pRsp->status = msg[0];
   \   000026   85..82       MOV     DPL,?V0 + 0
   \   000029   85..83       MOV     DPH,?V0 + 1
   \   00002C   12....       LCALL   ?Subroutine162 & 0xFFFF
   2889              pRsp->nwkAddr = BUILD_UINT16( msg[1], msg[2] );
   \                     ??CrossCallReturnLabel_221:
   \   00002F   85..82       MOV     DPL,?V0 + 0
   \   000032   85..83       MOV     DPH,?V0 + 1
   \   000035   A3           INC     DPTR
   \   000036   E0           MOVX    A,@DPTR
   \   000037   FA           MOV     R2,A
   \   000038   85..82       MOV     DPL,?V0 + 0
   \   00003B   85..83       MOV     DPH,?V0 + 1
   \   00003E   A3           INC     DPTR
   \   00003F   12....       LCALL   ?Subroutine24 & 0xFFFF
   2890              pRsp->length = descLen;
   2891              if ( descLen )
   \                     ??CrossCallReturnLabel_32:
   \   000042   6014         JZ      ??ZDO_ParseUserDescRsp_2
   2892                osal_memcpy( pRsp->desc, &msg[4], descLen );
   \   000044                ; Setup parameters for call to function osal_memcpy
   \   000044   E5..         MOV     A,?V0 + 0
   \   000046   2404         ADD     A,#0x4
   \   000048   12....       LCALL   ?Subroutine127 & 0xFFFF
   2893            }
   \                     ??CrossCallReturnLabel_470:
   \   00004B   88..         MOV     ?V0 + 2,R0
   \   00004D   78..         MOV     R0,#?V0 + 0
   \   00004F   12....       LCALL   ?PUSH_XSTACK_I_THREE
   \   000052   12....       LCALL   ?Subroutine119 & 0xFFFF
   \                     ??CrossCallReturnLabel_509:
   \   000055   12....       LCALL   ?DEALLOC_XSTACK8
   2894          
   2895            return ( pRsp );
   \                     ??ZDO_ParseUserDescRsp_2:
   \   000058   02....       LJMP    ?Subroutine206 & 0xFFFF
   2896          }
   2897          
   2898          /*********************************************************************
   2899           * @fn          ZDO_ParseSimpleDescBuf
   2900           *
   2901           * @brief       Parse a byte sequence representation of a Simple Descriptor.
   2902           *
   2903           * @param       buf  - pointer to a byte array representing a Simple Desc.
   2904           * @param       desc - SimpleDescriptionFormat_t *
   2905           *
   2906           *              This routine allocates storage for the cluster IDs because
   2907           *              they are 16-bit and need to be aligned to be properly processed.
   2908           *              This routine returns non-zero if an allocation fails.
   2909           *
   2910           *              NOTE: This means that the caller or user of the input structure
   2911           *                    is responsible for freeing the memory
   2912           *
   2913           * @return      0: success
   2914           *              1: failure due to malloc failure.
   2915           */

   \                                 In  segment BANKED_CODE, align 1, keep-with-next
   2916          uint8 ZDO_ParseSimpleDescBuf( uint8 *buf, SimpleDescriptionFormat_t *desc )
   \                     ZDO_ParseSimpleDescBuf:
   2917          {
   \   000000   74F0         MOV     A,#-0x10
   \   000002   12....       LCALL   ?BANKED_ENTER_XDATA
   \   000005                ; Saved register size: 16
   \   000005                ; Auto size: 0
   \   000005   EA           MOV     A,R2
   \   000006   FE           MOV     R6,A
   \   000007   EB           MOV     A,R3
   \   000008   FF           MOV     R7,A
   \   000009   8C..         MOV     ?V0 + 0,R4
   \   00000B   8D..         MOV     ?V0 + 1,R5
   2918            uint8 num, i;
   2919          
   2920            desc->EndPoint = *buf++;
   \   00000D   8E82         MOV     DPL,R6
   \   00000F   8F83         MOV     DPH,R7
   \   000011   12....       LCALL   ??Subroutine262_0 & 0xFFFF
   \                     ??CrossCallReturnLabel_587:
   \   000014   12....       LCALL   ??Subroutine250_0 & 0xFFFF
   2921            desc->AppProfId = BUILD_UINT16( buf[0], buf[1] );
   \                     ??CrossCallReturnLabel_638:
   \   000017   8C82         MOV     DPL,R4
   \   000019   8D83         MOV     DPH,R5
   \   00001B   12....       LCALL   ?Subroutine13 & 0xFFFF
   2922            buf += 2;
   2923            desc->AppDeviceId = BUILD_UINT16( buf[0], buf[1] );
   \                     ??CrossCallReturnLabel_597:
   \   00001E   FA           MOV     R2,A
   \   00001F   12....       LCALL   ?Subroutine106 & 0xFFFF
   \                     ??CrossCallReturnLabel_169:
   \   000022   A3           INC     DPTR
   \   000023   12....       LCALL   ?Subroutine13 & 0xFFFF
   2924            buf += 2;
   2925            desc->AppDevVer = *buf >> 4;
   2926          
   2927            desc->Reserved = 0;
   \                     ??CrossCallReturnLabel_598:
   \   000026   C4           SWAP    A
   \   000027   540F         ANL     A,#0xf
   \   000029   8C82         MOV     DPL,R4
   \   00002B   8D83         MOV     DPH,R5
   \   00002D   A3           INC     DPTR
   \   00002E   A3           INC     DPTR
   \   00002F   A3           INC     DPTR
   \   000030   A3           INC     DPTR
   \   000031   A3           INC     DPTR
   \   000032   12....       LCALL   ?Subroutine45 & 0xFFFF
   2928            buf++;
   2929          
   2930            // move in input cluster list (if any). allocate aligned memory.
   2931            num = desc->AppNumInClusters = *buf++;
   \                     ??CrossCallReturnLabel_88:
   \   000035   A3           INC     DPTR
   \   000036   0E           INC     R6
   \   000037   0E           INC     R6
   \   000038   AF83         MOV     R7,DPH
   \   00003A   8C82         MOV     DPL,R4
   \   00003C   8D83         MOV     DPH,R5
   \   00003E   A3           INC     DPTR
   \   00003F   A3           INC     DPTR
   \   000040   A3           INC     DPTR
   \   000041   A3           INC     DPTR
   \   000042   A3           INC     DPTR
   \   000043   A3           INC     DPTR
   \   000044   F0           MOVX    @DPTR,A
   \   000045   8A..         MOV     ?V0 + 4,R2
   2932            if ( num )
   \   000047   EC           MOV     A,R4
   \   000048   2407         ADD     A,#0x7
   \   00004A   F5..         MOV     ?V0 + 2,A
   \   00004C   ED           MOV     A,R5
   \   00004D   12....       LCALL   ??Subroutine260_0 & 0xFFFF
   \                     ??CrossCallReturnLabel_578:
   \   000050   EA           MOV     A,R2
   \   000051   6038         JZ      ??ZDO_ParseSimpleDescBuf_0
   2933            {
   2934              if (!(desc->pAppInClusterList = (uint16 *)osal_mem_alloc(num*sizeof(uint16))))
   \   000053                ; Setup parameters for call to function osal_mem_alloc
   \   000053   12....       LCALL   ?Subroutine29 & 0xFFFF
   \                     ??CrossCallReturnLabel_40:
   \   000056   F8           MOV     R0,A
   \   000057   A3           INC     DPTR
   \   000058   E0           MOVX    A,@DPTR
   \   000059   F9           MOV     R1,A
   \   00005A   E8           MOV     A,R0
   \   00005B   7001         JNZ     ??ZDO_ParseSimpleDescBuf_1
   \   00005D   E9           MOV     A,R1
   \                     ??ZDO_ParseSimpleDescBuf_1:
   \   00005E   7005         JNZ     ??ZDO_ParseSimpleDescBuf_2
   2935              {
   2936                // malloc failed. we're done.
   2937                return 1;
   \                     ??ZDO_ParseSimpleDescBuf_3:
   \   000060   7901         MOV     R1,#0x1
   \   000062   02....       LJMP    ??ZDO_ParseSimpleDescBuf_4 & 0xFFFF
   2938              }
   2939              for (i=0; i<num; ++i)
   \                     ??ZDO_ParseSimpleDescBuf_2:
   \   000065   7A00         MOV     R2,#0x0
   \   000067   801C         SJMP    ??CrossCallReturnLabel_53
   2940              {
   2941                desc->pAppInClusterList[i] = BUILD_UINT16( buf[0], buf[1] );
   \                     ??ZDO_ParseSimpleDescBuf_5:
   \   000069   8E82         MOV     DPL,R6
   \   00006B   8F83         MOV     DPH,R7
   \   00006D   E0           MOVX    A,@DPTR
   \   00006E   F5..         MOV     ?V0 + 6,A
   \   000070   A3           INC     DPTR
   \   000071   E0           MOVX    A,@DPTR
   \   000072   FD           MOV     R5,A
   \   000073   E4           CLR     A
   \   000074   25..         ADD     A,?V0 + 6
   \   000076   ED           MOV     A,R5
   \   000077   F5..         MOV     ?V0 + 7,A
   \   000079   12....       LCALL   ?Subroutine111 & 0xFFFF
   2942                buf += 2;
   2943              }
   \                     ??CrossCallReturnLabel_583:
   \   00007C   E5..         MOV     A,?V0 + 6
   \   00007E   F0           MOVX    @DPTR,A
   \   00007F   A3           INC     DPTR
   \   000080   E5..         MOV     A,?V0 + 7
   \   000082   12....       LCALL   ?Subroutine36 & 0xFFFF
   \                     ??CrossCallReturnLabel_53:
   \   000085   EA           MOV     A,R2
   \   000086   C3           CLR     C
   \   000087   95..         SUBB    A,?V0 + 4
   \   000089   40DE         JC      ??ZDO_ParseSimpleDescBuf_5
   2944            }
   2945          
   2946            // move in output cluster list (if any). allocate aligned memory.
   2947            num = desc->AppNumOutClusters = *buf++;
   \                     ??ZDO_ParseSimpleDescBuf_0:
   \   00008B   8E82         MOV     DPL,R6
   \   00008D   8F83         MOV     DPH,R7
   \   00008F   E0           MOVX    A,@DPTR
   \   000090   FA           MOV     R2,A
   \   000091   A3           INC     DPTR
   \   000092   AE82         MOV     R6,DPL
   \   000094   AF83         MOV     R7,DPH
   \   000096   85..82       MOV     DPL,?V0 + 0
   \   000099   85..83       MOV     DPH,?V0 + 1
   \   00009C   A3           INC     DPTR
   \   00009D   A3           INC     DPTR
   \   00009E   A3           INC     DPTR
   \   00009F   A3           INC     DPTR
   \   0000A0   A3           INC     DPTR
   \   0000A1   A3           INC     DPTR
   \   0000A2   A3           INC     DPTR
   \   0000A3   A3           INC     DPTR
   \   0000A4   A3           INC     DPTR
   \   0000A5   F0           MOVX    @DPTR,A
   \   0000A6   8A..         MOV     ?V0 + 4,R2
   2948            if (num)
   \   0000A8   6064         JZ      ??ZDO_ParseSimpleDescBuf_6
   2949            {
   2950              if (!(desc->pAppOutClusterList = (uint16 *)osal_mem_alloc(num*sizeof(uint16))))
   \   0000AA   E5..         MOV     A,?V0 + 0
   \   0000AC   240A         ADD     A,#0xa
   \   0000AE   12....       LCALL   ?Subroutine127 & 0xFFFF
   \                     ??CrossCallReturnLabel_471:
   \   0000B1                ; Setup parameters for call to function osal_mem_alloc
   \   0000B1   EA           MOV     A,R2
   \   0000B2   C3           CLR     C
   \   0000B3   33           RLC     A
   \   0000B4   FA           MOV     R2,A
   \   0000B5   E4           CLR     A
   \   0000B6   33           RLC     A
   \   0000B7   FB           MOV     R3,A
   \   0000B8   12....       LCALL   ??osal_mem_alloc?relay
   \   0000BB   85..82       MOV     DPL,?V0 + 0
   \   0000BE   85..83       MOV     DPH,?V0 + 1
   \   0000C1   12....       LCALL   ?Subroutine38 & 0xFFFF
   \                     ??CrossCallReturnLabel_72:
   \   0000C4   85..82       MOV     DPL,?V0 + 0
   \   0000C7   85..83       MOV     DPH,?V0 + 1
   \   0000CA   12....       LCALL   ??Subroutine231_0 & 0xFFFF
   \                     ??CrossCallReturnLabel_349:
   \   0000CD   E8           MOV     A,R0
   \   0000CE   7001         JNZ     ??ZDO_ParseSimpleDescBuf_7
   \   0000D0   E9           MOV     A,R1
   \                     ??ZDO_ParseSimpleDescBuf_7:
   \   0000D1   7017         JNZ     ??ZDO_ParseSimpleDescBuf_8
   2951              {
   2952                // malloc failed. free input cluster list memory if there is any
   2953                if ( desc->pAppInClusterList != NULL )
   \   0000D3   85..82       MOV     DPL,?V0 + 2
   \   0000D6   85..83       MOV     DPH,?V0 + 3
   \   0000D9   12....       LCALL   ?Subroutine203 & 0xFFFF
   \                     ??CrossCallReturnLabel_275:
   \   0000DC   7001         JNZ     ??ZDO_ParseSimpleDescBuf_9
   \   0000DE   EB           MOV     A,R3
   \                     ??ZDO_ParseSimpleDescBuf_9:
   \   0000DF   7003         JNZ     $+5
   \   0000E1   02....       LJMP    ??ZDO_ParseSimpleDescBuf_3 & 0xFFFF
   2954                {
   2955                  osal_mem_free(desc->pAppInClusterList);
   \   0000E4                ; Setup parameters for call to function osal_mem_free
   \   0000E4   12....       LCALL   ??osal_mem_free?relay
   \   0000E7   02....       LJMP    ??ZDO_ParseSimpleDescBuf_3 & 0xFFFF
   2956                }
   2957                return 1;
   2958              }
   2959              for (i=0; i<num; ++i)
   \                     ??ZDO_ParseSimpleDescBuf_8:
   \   0000EA   7A00         MOV     R2,#0x0
   \   0000EC   801A         SJMP    ??CrossCallReturnLabel_54
   2960              {
   2961                desc->pAppOutClusterList[i] = BUILD_UINT16( buf[0], buf[1] );
   \                     ??ZDO_ParseSimpleDescBuf_10:
   \   0000EE   8E82         MOV     DPL,R6
   \   0000F0   8F83         MOV     DPH,R7
   \   0000F2   12....       LCALL   ??Subroutine215_0 & 0xFFFF
   2962                buf += 2;
   2963              }
   \                     ??CrossCallReturnLabel_290:
   \   0000F5   FD           MOV     R5,A
   \   0000F6   E4           CLR     A
   \   0000F7   25..         ADD     A,?V0 + 0
   \   0000F9   ED           MOV     A,R5
   \   0000FA   F5..         MOV     ?V0 + 1,A
   \   0000FC   12....       LCALL   ?Subroutine111 & 0xFFFF
   \                     ??CrossCallReturnLabel_584:
   \   0000FF   E5..         MOV     A,?V0 + 0
   \   000101   F0           MOVX    @DPTR,A
   \   000102   A3           INC     DPTR
   \   000103   E5..         MOV     A,?V0 + 1
   \   000105   12....       LCALL   ?Subroutine36 & 0xFFFF
   \                     ??CrossCallReturnLabel_54:
   \   000108   EA           MOV     A,R2
   \   000109   C3           CLR     C
   \   00010A   95..         SUBB    A,?V0 + 4
   \   00010C   40E0         JC      ??ZDO_ParseSimpleDescBuf_10
   2964            }
   2965            return 0;
   \                     ??ZDO_ParseSimpleDescBuf_6:
   \   00010E   7900         MOV     R1,#0x0
   \                     ??ZDO_ParseSimpleDescBuf_4:
   \   000110   02....       LJMP    ??Subroutine222_0 & 0xFFFF
   2966          }

   \                                 In  segment BANKED_CODE, align 1, keep-with-next
   \                     ?Subroutine111:
   \   000000   EA           MOV     A,R2
   \   000001                REQUIRE ??Subroutine261_0
   \   000001                ; // Fall through to label ??Subroutine261_0

   \                                 In  segment BANKED_CODE, align 1, keep-with-next
   \                     ?Subroutine36:
   \   000000   12....       LCALL   ?Subroutine139 & 0xFFFF
   \                     ??CrossCallReturnLabel_591:
   \   000003   0A           INC     R2
   \   000004   22           RET

   \                                 In  segment BANKED_CODE, align 1, keep-with-next
   \                     ?Subroutine13:
   \   000000   A3           INC     DPTR
   \   000001   F0           MOVX    @DPTR,A
   \   000002   A3           INC     DPTR
   \   000003   E9           MOV     A,R1
   \   000004                REQUIRE ??Subroutine263_0
   \   000004                ; // Fall through to label ??Subroutine263_0
   2967          
   2968          /*********************************************************************
   2969           * @fn          ZDO_ParseDeviceAnnce
   2970           *
   2971           * @brief       Parse a Device Announce message.
   2972           *
   2973           * @param       inMsg - Incoming message
   2974           * @param       pAnnce - place to put the parsed information
   2975           *
   2976           * @return      none
   2977           */

   \                                 In  segment BANKED_CODE, align 1, keep-with-next
   2978          void ZDO_ParseDeviceAnnce( zdoIncomingMsg_t *inMsg, ZDO_DeviceAnnce_t *pAnnce )
   \                     ZDO_ParseDeviceAnnce:
   2979          {
   \   000000   74F6         MOV     A,#-0xa
   \   000002   12....       LCALL   ?BANKED_ENTER_XDATA
   \   000005                ; Saved register size: 10
   \   000005                ; Auto size: 0
   \   000005   8C..         MOV     ?V0 + 0,R4
   \   000007   8D..         MOV     ?V0 + 1,R5
   2980            uint8 *msg;
   2981          
   2982            // Parse incoming message
   2983            msg = inMsg->asdu;
   \   000009   12....       LCALL   ?Subroutine68 & 0xFFFF
   2984            pAnnce->nwkAddr = BUILD_UINT16( msg[0], msg[1] );
   \                     ??CrossCallReturnLabel_567:
   \   00000C   FA           MOV     R2,A
   \   00000D   A3           INC     DPTR
   \   00000E   E0           MOVX    A,@DPTR
   \   00000F   F9           MOV     R1,A
   \   000010   EA           MOV     A,R2
   \   000011   8C82         MOV     DPL,R4
   \   000013   8D83         MOV     DPH,R5
   \   000015   12....       LCALL   ?Subroutine11 & 0xFFFF
   2985            msg += 2;
   2986            osal_cpyExtAddr( pAnnce->extAddr, msg );
   \                     ??CrossCallReturnLabel_15:
   \   000018   2402         ADD     A,#0x2
   \   00001A   FA           MOV     R2,A
   \   00001B   E5..         MOV     A,?V0 + 1
   \   00001D   3400         ADDC    A,#0x0
   \   00001F   FB           MOV     R3,A
   \   000020   12....       LCALL   ?Subroutine47 & 0xFFFF
   2987            msg += Z_EXTADDR_LEN;
   2988            pAnnce->capabilities = *msg;
   \                     ??CrossCallReturnLabel_90:
   \   000023   85..82       MOV     DPL,?V0 + 0
   \   000026   85..83       MOV     DPH,?V0 + 1
   \   000029   A3           INC     DPTR
   \   00002A   A3           INC     DPTR
   \   00002B   A3           INC     DPTR
   \   00002C   A3           INC     DPTR
   \   00002D   A3           INC     DPTR
   \   00002E   A3           INC     DPTR
   \   00002F   A3           INC     DPTR
   \   000030   A3           INC     DPTR
   \   000031   A3           INC     DPTR
   \   000032   A3           INC     DPTR
   \   000033   F0           MOVX    @DPTR,A
   2989          }
   \   000034   02....       LJMP    ??Subroutine219_0 & 0xFFFF
   2990          
   2991          /*********************************************************************
   2992           * @fn          ZDO_ParseMgmtNwkUpdateNotify
   2993           *
   2994           * @brief       This function handles parsing of the incoming Management
   2995           *              Network Update notify.
   2996           *
   2997           * @param       inMsg - incoming message (request)
   2998           *
   2999           * @return      a pointer to parsed response structure (NULL if not allocated).
   3000           *          This structure was allocated using osal_mem_alloc, so it must be freed
   3001           *          by the calling function [osal_mem_free()].
   3002           */

   \                                 In  segment BANKED_CODE, align 1, keep-with-next
   3003          ZDO_MgmtNwkUpdateNotify_t *ZDO_ParseMgmtNwkUpdateNotify( zdoIncomingMsg_t *inMsg )
   \                     ZDO_ParseMgmtNwkUpdateNotify:
   3004          {
   \   000000   74F2         MOV     A,#-0xe
   \   000002   12....       LCALL   ?BANKED_ENTER_XDATA
   \   000005                ; Saved register size: 14
   \   000005                ; Auto size: 6
   \   000005   74FA         MOV     A,#-0x6
   \   000007   12....       LCALL   ?ALLOC_XSTACK8
   3005            uint8 status;
   3006            uint32 scannedChannels = 0;
   \   00000A   90....       MOV     DPTR,#__Constant_0
   \   00000D   78..         MOV     R0,#?V0 + 0
   \   00000F   12....       LCALL   ?L_MOV_X
   3007            uint16 totalTransmissions = 0;
   \   000012   75..00       MOV     ?V0 + 4,#0x0
   \   000015   75..00       MOV     ?V0 + 5,#0x0
   3008            uint16 transmissionFailures = 0;
   \   000018   7E00         MOV     R6,#0x0
   \   00001A   7F00         MOV     R7,#0x0
   3009            uint8 listCount = 0;
   \   00001C   7402         MOV     A,#0x2
   \   00001E   12....       LCALL   ?XSTACK_DISP0_8
   \   000021   E4           CLR     A
   \   000022   12....       LCALL   ?Subroutine28 & 0xFFFF
   3010            uint8 *msg = inMsg->asdu;
   \                     ??CrossCallReturnLabel_38:
   \   000025   F8           MOV     R0,A
   \   000026   A3           INC     DPTR
   \   000027   E0           MOVX    A,@DPTR
   \   000028   12....       LCALL   ?Subroutine14 & 0xFFFF
   3011            ZDO_MgmtNwkUpdateNotify_t *pRsp;
   3012          
   3013            status = *msg++;
   \                     ??CrossCallReturnLabel_18:
   \   00002B   C0E0         PUSH    A
   \   00002D   7405         MOV     A,#0x5
   \   00002F   12....       LCALL   ?XSTACK_DISP0_8
   \   000032   D0E0         POP     A
   \   000034   12....       LCALL   ?Subroutine3 & 0xFFFF
   3014            if ( status == ZSuccess )
   \                     ??CrossCallReturnLabel_2:
   \   000037   7405         MOV     A,#0x5
   \   000039   12....       LCALL   ?XSTACK_DISP0_8
   \   00003C   E0           MOVX    A,@DPTR
   \   00003D   7057         JNZ     ??CrossCallReturnLabel_3
   3015            {
   3016              scannedChannels = osal_build_uint32( msg, 4 );
   \   00003F                ; Setup parameters for call to function osal_build_uint32
   \   00003F   7904         MOV     R1,#0x4
   \   000041   85..82       MOV     DPL,?XSP + 0
   \   000044   85..83       MOV     DPH,?XSP + 1
   \   000047   12....       LCALL   ??Subroutine237_0 & 0xFFFF
   \                     ??CrossCallReturnLabel_386:
   \   00004A   12....       LCALL   ??osal_build_uint32?relay
   \   00004D   8A..         MOV     ?V0 + 0,R2
   \   00004F   8B..         MOV     ?V0 + 1,R3
   \   000051   8C..         MOV     ?V0 + 2,R4
   \   000053   8D..         MOV     ?V0 + 3,R5
   3017              msg += 4;
   \   000055   85..82       MOV     DPL,?XSP + 0
   \   000058   85..83       MOV     DPH,?XSP + 1
   \   00005B   E0           MOVX    A,@DPTR
   \   00005C   2404         ADD     A,#0x4
   \   00005E   F8           MOV     R0,A
   \   00005F   12....       LCALL   ?Subroutine1 & 0xFFFF
   3018              totalTransmissions = BUILD_UINT16( msg[0], msg[1] );
   \                     ??CrossCallReturnLabel_631:
   \   000062   F5..         MOV     ?V0 + 4,A
   \   000064   E9           MOV     A,R1
   \   000065   F5..         MOV     ?V0 + 5,A
   3019              msg += 2;
   \   000067   85..82       MOV     DPL,?XSP + 0
   \   00006A   85..83       MOV     DPH,?XSP + 1
   \   00006D   E0           MOVX    A,@DPTR
   \   00006E   2402         ADD     A,#0x2
   \   000070   08           INC     R0
   \   000071   08           INC     R0
   \   000072   12....       LCALL   ?Subroutine1 & 0xFFFF
   3020              transmissionFailures = BUILD_UINT16( msg[0], msg[1] );
   \                     ??CrossCallReturnLabel_632:
   \   000075   FE           MOV     R6,A
   \   000076   E9           MOV     A,R1
   \   000077   FF           MOV     R7,A
   3021              msg += 2;
   \   000078   85..82       MOV     DPL,?XSP + 0
   \   00007B   85..83       MOV     DPH,?XSP + 1
   \   00007E   E0           MOVX    A,@DPTR
   \   00007F   2402         ADD     A,#0x2
   \   000081   08           INC     R0
   \   000082   08           INC     R0
   \   000083   A3           INC     DPTR
   \   000084   E0           MOVX    A,@DPTR
   \   000085   3400         ADDC    A,#0x0
   \   000087   12....       LCALL   ?Subroutine14 & 0xFFFF
   3022              listCount = *msg++;
   3023            }
   \                     ??CrossCallReturnLabel_19:
   \   00008A   C0E0         PUSH    A
   \   00008C   7402         MOV     A,#0x2
   \   00008E   12....       LCALL   ?XSTACK_DISP0_8
   \   000091   D0E0         POP     A
   \   000093   12....       LCALL   ?Subroutine3 & 0xFFFF
   \                     ??CrossCallReturnLabel_3:
   \   000096                ; Setup parameters for call to function osal_mem_alloc
   \   000096   7402         MOV     A,#0x2
   \   000098   12....       LCALL   ?XSTACK_DISP0_8
   \   00009B   E0           MOVX    A,@DPTR
   \   00009C   F8           MOV     R0,A
   \   00009D   740A         MOV     A,#0xa
   \   00009F   28           ADD     A,R0
   \   0000A0   FA           MOV     R2,A
   \   0000A1   E4           CLR     A
   \   0000A2   3400         ADDC    A,#0x0
   \   0000A4   FB           MOV     R3,A
   3024          
   3025            pRsp = (ZDO_MgmtNwkUpdateNotify_t *)osal_mem_alloc( sizeof ( ZDO_MgmtNwkUpdateNotify_t ) + listCount );
   \   0000A5   12....       LCALL   ??osal_mem_alloc?relay
   \   0000A8   7403         MOV     A,#0x3
   \   0000AA   12....       LCALL   ?XSTACK_DISP0_8
   \   0000AD   12....       LCALL   ?Subroutine38 & 0xFFFF
   3026          
   3027            if ( pRsp )
   \                     ??CrossCallReturnLabel_73:
   \   0000B0   7403         MOV     A,#0x3
   \   0000B2   12....       LCALL   ?XSTACK_DISP0_8
   \   0000B5   E0           MOVX    A,@DPTR
   \   0000B6   7002         JNZ     ??ZDO_ParseMgmtNwkUpdateNotify_0
   \   0000B8   A3           INC     DPTR
   \   0000B9   E0           MOVX    A,@DPTR
   \                     ??ZDO_ParseMgmtNwkUpdateNotify_0:
   \   0000BA   607E         JZ      ??ZDO_ParseMgmtNwkUpdateNotify_1
   3028            {
   3029              pRsp->status = status;
   \   0000BC   7405         MOV     A,#0x5
   \   0000BE   12....       LCALL   ?XSTACK_DISP0_8
   \   0000C1   E0           MOVX    A,@DPTR
   \   0000C2   C0E0         PUSH    A
   \   0000C4   7403         MOV     A,#0x3
   \   0000C6   12....       LCALL   ?XSTACK_DISP0_8
   \   0000C9   12....       LCALL   ?Subroutine88 & 0xFFFF
   \                     ??CrossCallReturnLabel_149:
   \   0000CC   D0E0         POP     A
   \   0000CE   F0           MOVX    @DPTR,A
   3030              pRsp->scannedChannels = scannedChannels;
   \   0000CF   7403         MOV     A,#0x3
   \   0000D1   12....       LCALL   ?XSTACK_DISP0_8
   \   0000D4   12....       LCALL   ?Subroutine82 & 0xFFFF
   \                     ??CrossCallReturnLabel_142:
   \   0000D7   78..         MOV     R0,#?V0 + 0
   \   0000D9   12....       LCALL   ?L_MOV_TO_X
   3031              pRsp->totalTransmissions = totalTransmissions;
   \   0000DC   7403         MOV     A,#0x3
   \   0000DE   12....       LCALL   ?XSTACK_DISP0_8
   \   0000E1   12....       LCALL   ?Subroutine81 & 0xFFFF
   \                     ??CrossCallReturnLabel_624:
   \   0000E4   E5..         MOV     A,?V0 + 4
   \   0000E6   F0           MOVX    @DPTR,A
   \   0000E7   A3           INC     DPTR
   \   0000E8   E5..         MOV     A,?V0 + 5
   \   0000EA   F0           MOVX    @DPTR,A
   3032              pRsp->transmissionFailures = transmissionFailures;
   \   0000EB   7403         MOV     A,#0x3
   \   0000ED   12....       LCALL   ?XSTACK_DISP0_8
   \   0000F0   12....       LCALL   ?Subroutine80 & 0xFFFF
   \                     ??CrossCallReturnLabel_617:
   \   0000F3   A3           INC     DPTR
   \   0000F4   EE           MOV     A,R6
   \   0000F5   F0           MOVX    @DPTR,A
   \   0000F6   A3           INC     DPTR
   \   0000F7   EF           MOV     A,R7
   \   0000F8   F0           MOVX    @DPTR,A
   3033              pRsp->listCount = listCount;
   \   0000F9   7402         MOV     A,#0x2
   \   0000FB   12....       LCALL   ?XSTACK_DISP0_8
   \   0000FE   E0           MOVX    A,@DPTR
   \   0000FF   C0E0         PUSH    A
   \   000101   7403         MOV     A,#0x3
   \   000103   12....       LCALL   ?XSTACK_DISP0_8
   \   000106   12....       LCALL   ?Subroutine70 & 0xFFFF
   \                     ??CrossCallReturnLabel_129:
   \   000109   D0E0         POP     A
   \   00010B   F0           MOVX    @DPTR,A
   3034          
   3035              // Allocate a buffer big enough to handle the list.
   3036              if ( listCount > 0 )
   \   00010C   7402         MOV     A,#0x2
   \   00010E   12....       LCALL   ?XSTACK_DISP0_8
   \   000111   E0           MOVX    A,@DPTR
   \   000112   6026         JZ      ??ZDO_ParseMgmtNwkUpdateNotify_1
   3037                osal_memcpy( pRsp->energyValues, msg, listCount );
   \   000114                ; Setup parameters for call to function osal_memcpy
   \   000114   85..82       MOV     DPL,?XSP + 0
   \   000117   85..83       MOV     DPH,?XSP + 1
   \   00011A   12....       LCALL   ?Subroutine63 & 0xFFFF
   3038            }
   \                     ??CrossCallReturnLabel_120:
   \   00011D   12....       LCALL   ?PUSH_XSTACK_I_THREE
   \   000120   7405         MOV     A,#0x5
   \   000122   12....       LCALL   ?XSTACK_DISP0_8
   \   000125   E0           MOVX    A,@DPTR
   \   000126   FC           MOV     R4,A
   \   000127   7D00         MOV     R5,#0x0
   \   000129   7406         MOV     A,#0x6
   \   00012B   12....       LCALL   ?XSTACK_DISP0_8
   \   00012E   E0           MOVX    A,@DPTR
   \   00012F   240A         ADD     A,#0xa
   \   000131   FA           MOV     R2,A
   \   000132   A3           INC     DPTR
   \   000133   E0           MOVX    A,@DPTR
   \   000134   12....       LCALL   ??Subroutine253_0 & 0xFFFF
   \                     ??CrossCallReturnLabel_510:
   \   000137   12....       LCALL   ?DEALLOC_XSTACK8
   3039          
   3040            return ( pRsp );
   \                     ??ZDO_ParseMgmtNwkUpdateNotify_1:
   \   00013A   7403         MOV     A,#0x3
   \   00013C   12....       LCALL   ?XSTACK_DISP0_8
   \   00013F   12....       LCALL   ??Subroutine237_0 & 0xFFFF
   \                     ??CrossCallReturnLabel_387:
   \   000142   7406         MOV     A,#0x6
   \   000144   02....       LJMP    ??Subroutine234_0 & 0xFFFF
   3041          }

   \                                 In  segment BANKED_CODE, align 1, keep-with-next
   \                     ?Subroutine14:
   \   000000   12....       LCALL   ?Subroutine138 & 0xFFFF
   \                     ??CrossCallReturnLabel_246:
   \   000003   22           RET

   \                                 In  segment BANKED_CODE, align 1, keep-with-next
   \                     ?Subroutine138:
   \   000000   12....       LCALL   ?Subroutine178 & 0xFFFF
   \                     ??CrossCallReturnLabel_630:
   \   000003   85..82       MOV     DPL,?XSP + 0
   \   000006   85..83       MOV     DPH,?XSP + 1
   \   000009   02....       LJMP    ?Subroutine198 & 0xFFFF

   \                                 In  segment BANKED_CODE, align 1, keep-with-next
   \                     ?Subroutine3:
   \   000000   12....       LCALL   ?Subroutine146 & 0xFFFF
   \                     ??CrossCallReturnLabel_209:
   \   000003   2401         ADD     A,#0x1
   \   000005   F8           MOV     R0,A
   \   000006   A3           INC     DPTR
   \   000007   E0           MOVX    A,@DPTR
   \   000008   3400         ADDC    A,#0x0
   \   00000A   12....       LCALL   ?Subroutine178 & 0xFFFF
   \                     ??CrossCallReturnLabel_629:
   \   00000D   22           RET

   \                                 In  segment BANKED_CODE, align 1, keep-with-next
   \                     ?Subroutine178:
   \   000000   F9           MOV     R1,A
   \   000001   85..82       MOV     DPL,?XSP + 0
   \   000004   85..83       MOV     DPH,?XSP + 1
   \   000007                REQUIRE ??Subroutine268_0
   \   000007                ; // Fall through to label ??Subroutine268_0

   \                                 In  segment BANKED_CODE, align 1, keep-with-next
   \                     ?Subroutine1:
   \   000000   A3           INC     DPTR
   \   000001   E0           MOVX    A,@DPTR
   \   000002   3400         ADDC    A,#0x0
   \   000004   12....       LCALL   ?Subroutine138 & 0xFFFF
   \                     ??CrossCallReturnLabel_247:
   \   000007   FA           MOV     R2,A
   \   000008   85..82       MOV     DPL,?XSP + 0
   \   00000B   85..83       MOV     DPH,?XSP + 1
   \   00000E   12....       LCALL   ??Subroutine264_0 & 0xFFFF
   \                     ??CrossCallReturnLabel_606:
   \   000011   02....       LJMP    ??Subroutine272_0 & 0xFFFF
   3042          
   3043          /*********************************************************************
   3044           * @fn          ZDO_ParseMgmtNwkUpdateReq
   3045           *
   3046           * @brief       This function handles parsing the incoming Management
   3047           *              Network Update request and starts the request (if needed).
   3048           *
   3049           * @param       inMsg - incoming message (request)
   3050           * @param       pReq - pointer to place to parse message to
   3051           *
   3052           * @return      none
   3053           */

   \                                 In  segment BANKED_CODE, align 1, keep-with-next
   3054          void ZDO_ParseMgmtNwkUpdateReq( zdoIncomingMsg_t *inMsg, ZDO_MgmtNwkUpdateReq_t *pReq )
   \                     ZDO_ParseMgmtNwkUpdateReq:
   3055          {
   \   000000   74F2         MOV     A,#-0xe
   \   000002   12....       LCALL   ?BANKED_ENTER_XDATA
   \   000005                ; Saved register size: 14
   \   000005                ; Auto size: 0
   \   000005   8C..         MOV     ?V0 + 4,R4
   \   000007   8D..         MOV     ?V0 + 5,R5
   3056            uint8 *msg = inMsg->asdu;
   \   000009   12....       LCALL   ?Subroutine76 & 0xFFFF
   3057          
   3058            pReq->channelMask = osal_build_uint32( msg, 4 );
   \                     ??CrossCallReturnLabel_137:
   \   00000C   85..82       MOV     DPL,?V0 + 4
   \   00000F   85..83       MOV     DPH,?V0 + 5
   \   000012   12....       LCALL   ?Subroutine6 & 0xFFFF
   3059            msg += 4;
   3060            pReq->scanDuration = *msg++;
   \                     ??CrossCallReturnLabel_7:
   \   000015   FA           MOV     R2,A
   \   000016   E5..         MOV     A,?V0 + 4
   \   000018   2404         ADD     A,#0x4
   \   00001A   F8           MOV     R0,A
   \   00001B   E5..         MOV     A,?V0 + 5
   \   00001D   3400         ADDC    A,#0x0
   \   00001F   F9           MOV     R1,A
   \   000020   EA           MOV     A,R2
   \   000021   8882         MOV     DPL,R0
   \   000023   8983         MOV     DPH,R1
   \   000025   12....       LCALL   ?Subroutine34 & 0xFFFF
   3061          
   3062            if ( pReq->scanDuration <= 0x05 )
   \                     ??CrossCallReturnLabel_286:
   \   000028   C3           CLR     C
   \   000029   9406         SUBB    A,#0x6
   \   00002B   5005         JNC     ??ZDO_ParseMgmtNwkUpdateReq_0
   3063            {
   3064              // Request is to scan over channelMask
   3065              pReq->scanCount = *msg;
   \   00002D   12....       LCALL   ?Subroutine89 & 0xFFFF
   3066            }
   \                     ??CrossCallReturnLabel_618:
   \   000030   802D         SJMP    ??ZDO_ParseMgmtNwkUpdateReq_1
   3067            else if ( ( pReq->scanDuration == 0xFE ) || ( pReq->scanDuration == 0xFF ) )
   \                     ??ZDO_ParseMgmtNwkUpdateReq_0:
   \   000032   74FE         MOV     A,#-0x2
   \   000034   6A           XRL     A,R2
   \   000035   6005         JZ      ??ZDO_ParseMgmtNwkUpdateReq_2
   \   000037   74FF         MOV     A,#-0x1
   \   000039   6A           XRL     A,R2
   \   00003A   7024         JNZ     ??ZDO_ParseMgmtNwkUpdateReq_3
   3068            {
   3069              // Request is to change Channel (0xFE) or apsChannelMask and NwkManagerAddr (0xFF)
   3070              pReq->nwkUpdateId = *msg++;
   \                     ??ZDO_ParseMgmtNwkUpdateReq_2:
   \   00003C   12....       LCALL   ?Subroutine89 & 0xFFFF
   \                     ??CrossCallReturnLabel_619:
   \   00003F   A3           INC     DPTR
   \   000040   12....       LCALL   ?Subroutine32 & 0xFFFF
   3071          
   3072              if ( pReq->scanDuration == 0xFF )
   \                     ??CrossCallReturnLabel_48:
   \   000043   8882         MOV     DPL,R0
   \   000045   8983         MOV     DPH,R1
   \   000047   E0           MOVX    A,@DPTR
   \   000048   64FF         XRL     A,#0xff
   \   00004A   7014         JNZ     ??ZDO_ParseMgmtNwkUpdateReq_3
   3073              {
   3074                pReq->nwkManagerAddr = BUILD_UINT16( msg[0], msg[1] );
   \   00004C   12....       LCALL   ??Subroutine270_0 & 0xFFFF
   3075              }
   3076            }
   \                     ??CrossCallReturnLabel_644:
   \   00004F   85..82       MOV     DPL,?V0 + 4
   \   000052   85..83       MOV     DPH,?V0 + 5
   \   000055   A3           INC     DPTR
   \   000056   A3           INC     DPTR
   \   000057   A3           INC     DPTR
   \   000058   A3           INC     DPTR
   \   000059   A3           INC     DPTR
   \   00005A   A3           INC     DPTR
   \   00005B   A3           INC     DPTR
   \   00005C   F0           MOVX    @DPTR,A
   \   00005D   A3           INC     DPTR
   \   00005E   E9           MOV     A,R1
   \                     ??ZDO_ParseMgmtNwkUpdateReq_1:
   \   00005F   F0           MOVX    @DPTR,A
   3077          }
   \                     ??ZDO_ParseMgmtNwkUpdateReq_3:
   \   000060   02....       LJMP    ??Subroutine235_0 & 0xFFFF

   \                                 In  segment BANKED_CODE, align 1, keep-with-next
   \                     ?Subroutine89:
   \   000000   E0           MOVX    A,@DPTR
   \   000001   85..82       MOV     DPL,?V0 + 4
   \   000004   85..83       MOV     DPH,?V0 + 5
   \   000007   02....       LJMP    ??Subroutine267_0 & 0xFFFF

   \                                 In  segment BANK_RELAYS, align 1
   \                     ??ZDO_Init?relay:
   \   000000   12....       LCALL   ?BDISPATCH
   \   000003   ......       DC24    ZDO_Init

   \                                 In  segment BANK_RELAYS, align 1
   \                     ??ZDO_StartDevice?relay:
   \   000000   12....       LCALL   ?BDISPATCH
   \   000003   ......       DC24    ZDO_StartDevice

   \                                 In  segment BANK_RELAYS, align 1
   \                     ??ZDO_UpdateNwkStatus?relay:
   \   000000   12....       LCALL   ?BDISPATCH
   \   000003   ......       DC24    ZDO_UpdateNwkStatus

   \                                 In  segment BANK_RELAYS, align 1
   \                     ??ZDO_CompareClusterLists?relay:
   \   000000   12....       LCALL   ?BDISPATCH
   \   000003   ......       DC24    ZDO_CompareClusterLists

   \                                 In  segment BANK_RELAYS, align 1
   \                     ??ZDO_AnyClusterMatches?relay:
   \   000000   12....       LCALL   ?BDISPATCH
   \   000003   ......       DC24    ZDO_AnyClusterMatches

   \                                 In  segment BANK_RELAYS, align 1
   \                     ??ZDO_ProcessNodeDescReq?relay:
   \   000000   12....       LCALL   ?BDISPATCH
   \   000003   ......       DC24    ZDO_ProcessNodeDescReq

   \                                 In  segment BANK_RELAYS, align 1
   \                     ??ZDO_ProcessPowerDescReq?relay:
   \   000000   12....       LCALL   ?BDISPATCH
   \   000003   ......       DC24    ZDO_ProcessPowerDescReq

   \                                 In  segment BANK_RELAYS, align 1
   \                     ??ZDO_ProcessSimpleDescReq?relay:
   \   000000   12....       LCALL   ?BDISPATCH
   \   000003   ......       DC24    ZDO_ProcessSimpleDescReq

   \                                 In  segment BANK_RELAYS, align 1
   \                     ??ZDO_ProcessActiveEPReq?relay:
   \   000000   12....       LCALL   ?BDISPATCH
   \   000003   ......       DC24    ZDO_ProcessActiveEPReq

   \                                 In  segment BANK_RELAYS, align 1
   \                     ??ZDO_ConvertOTAClusters?relay:
   \   000000   12....       LCALL   ?BDISPATCH
   \   000003   ......       DC24    ZDO_ConvertOTAClusters

   \                                 In  segment BANK_RELAYS, align 1
   \                     ??ZDO_ProcessMatchDescReq?relay:
   \   000000   12....       LCALL   ?BDISPATCH
   \   000003   ......       DC24    ZDO_ProcessMatchDescReq

   \                                 In  segment BANK_RELAYS, align 1
   \                     ??ZDO_ProcessBindUnbindReq?relay:
   \   000000   12....       LCALL   ?BDISPATCH
   \   000003   ......       DC24    ZDO_ProcessBindUnbindReq

   \                                 In  segment BANK_RELAYS, align 1
   \                     ??ZDO_UpdateAddrManager?relay:
   \   000000   12....       LCALL   ?BDISPATCH
   \   000003   ......       DC24    ZDO_UpdateAddrManager

   \                                 In  segment BANK_RELAYS, align 1
   \                     ??ZDO_ProcessServerDiscReq?relay:
   \   000000   12....       LCALL   ?BDISPATCH
   \   000003   ......       DC24    ZDO_ProcessServerDiscReq

   \                                 In  segment BANK_RELAYS, align 1
   \                     ??ZDO_EndDeviceTimeoutCB?relay:
   \   000000   12....       LCALL   ?BDISPATCH
   \   000003   ......       DC24    ZDO_EndDeviceTimeoutCB

   \                                 In  segment BANK_RELAYS, align 1
   \                     ??ZDO_ProcessMgmtLqiReq?relay:
   \   000000   12....       LCALL   ?BDISPATCH
   \   000003   ......       DC24    ZDO_ProcessMgmtLqiReq

   \                                 In  segment BANK_RELAYS, align 1
   \                     ??ZDO_ProcessMgmtNwkDiscReq?relay:
   \   000000   12....       LCALL   ?BDISPATCH
   \   000003   ......       DC24    ZDO_ProcessMgmtNwkDiscReq

   \                                 In  segment BANK_RELAYS, align 1
   \                     ??ZDO_ProcessMgmtRtgReq?relay:
   \   000000   12....       LCALL   ?BDISPATCH
   \   000003   ......       DC24    ZDO_ProcessMgmtRtgReq

   \                                 In  segment BANK_RELAYS, align 1
   \                     ??ZDO_ProcessMgmtBindReq?relay:
   \   000000   12....       LCALL   ?BDISPATCH
   \   000003   ......       DC24    ZDO_ProcessMgmtBindReq

   \                                 In  segment BANK_RELAYS, align 1
   \                     ??ZDO_ProcessMgmtDirectJoinReq?relay:
   \   000000   12....       LCALL   ?BDISPATCH
   \   000003   ......       DC24    ZDO_ProcessMgmtDirectJoinReq

   \                                 In  segment BANK_RELAYS, align 1
   \                     ??ZDO_ProcessMgmtLeaveReq?relay:
   \   000000   12....       LCALL   ?BDISPATCH
   \   000003   ......       DC24    ZDO_ProcessMgmtLeaveReq

   \                                 In  segment BANK_RELAYS, align 1
   \                     ??ZDO_ProcessMgmtPermitJoinReq?relay:
   \   000000   12....       LCALL   ?BDISPATCH
   \   000003   ......       DC24    ZDO_ProcessMgmtPermitJoinReq

   \                                 In  segment BANK_RELAYS, align 1
   \                     ??NLME_PermitJoiningTimeout?relay:
   \   000000   12....       LCALL   ?BDISPATCH
   \   000003   ......       DC24    NLME_PermitJoiningTimeout

   \                                 In  segment BANK_RELAYS, align 1
   \                     ??ZDO_ProcessUserDescReq?relay:
   \   000000   12....       LCALL   ?BDISPATCH
   \   000003   ......       DC24    ZDO_ProcessUserDescReq

   \                                 In  segment BANK_RELAYS, align 1
   \                     ??ZDO_ProcessUserDescSet?relay:
   \   000000   12....       LCALL   ?BDISPATCH
   \   000003   ......       DC24    ZDO_ProcessUserDescSet

   \                                 In  segment BANK_RELAYS, align 1
   \                     ??ZDO_ProcessDeviceAnnce?relay:
   \   000000   12....       LCALL   ?BDISPATCH
   \   000003   ......       DC24    ZDO_ProcessDeviceAnnce

   \                                 In  segment BANK_RELAYS, align 1
   \                     ??ZDO_BuildSimpleDescBuf?relay:
   \   000000   12....       LCALL   ?BDISPATCH
   \   000003   ......       DC24    ZDO_BuildSimpleDescBuf

   \                                 In  segment BANK_RELAYS, align 1
   \                     ??ZDO_MatchEndDeviceBind?relay:
   \   000000   12....       LCALL   ?BDISPATCH
   \   000003   ......       DC24    ZDO_MatchEndDeviceBind

   \                                 In  segment BANK_RELAYS, align 1
   \                     ??ZDO_RemoveMatchMemory?relay:
   \   000000   12....       LCALL   ?BDISPATCH
   \   000003   ......       DC24    ZDO_RemoveMatchMemory

   \                                 In  segment BANK_RELAYS, align 1
   \                     ??ZDO_CopyMatchInfo?relay:
   \   000000   12....       LCALL   ?BDISPATCH
   \   000003   ......       DC24    ZDO_CopyMatchInfo

   \                                 In  segment BANK_RELAYS, align 1
   \                     ??ZDMatchSendState?relay:
   \   000000   12....       LCALL   ?BDISPATCH
   \   000003   ......       DC24    ZDMatchSendState

   \                                 In  segment BANK_RELAYS, align 1
   \                     ??ZDO_EndDeviceBindMatchTimeoutCB?relay:
   \   000000   12....       LCALL   ?BDISPATCH
   \   000003   ......       DC24    ZDO_EndDeviceBindMatchTimeoutCB

   \                                 In  segment BANK_RELAYS, align 1
   \                     ??ZDO_ParseEndDeviceBindReq?relay:
   \   000000   12....       LCALL   ?BDISPATCH
   \   000003   ......       DC24    ZDO_ParseEndDeviceBindReq

   \                                 In  segment BANK_RELAYS, align 1
   \                     ??ZDO_ParseBindUnbindReq?relay:
   \   000000   12....       LCALL   ?BDISPATCH
   \   000003   ......       DC24    ZDO_ParseBindUnbindReq

   \                                 In  segment BANK_RELAYS, align 1
   \                     ??ZDO_ParseAddrRsp?relay:
   \   000000   12....       LCALL   ?BDISPATCH
   \   000003   ......       DC24    ZDO_ParseAddrRsp

   \                                 In  segment BANK_RELAYS, align 1
   \                     ??ZDO_ParseNodeDescRsp?relay:
   \   000000   12....       LCALL   ?BDISPATCH
   \   000003   ......       DC24    ZDO_ParseNodeDescRsp

   \                                 In  segment BANK_RELAYS, align 1
   \                     ??ZDO_ParsePowerDescRsp?relay:
   \   000000   12....       LCALL   ?BDISPATCH
   \   000003   ......       DC24    ZDO_ParsePowerDescRsp

   \                                 In  segment BANK_RELAYS, align 1
   \                     ??ZDO_ParseSimpleDescRsp?relay:
   \   000000   12....       LCALL   ?BDISPATCH
   \   000003   ......       DC24    ZDO_ParseSimpleDescRsp

   \                                 In  segment BANK_RELAYS, align 1
   \                     ??ZDO_ParseEPListRsp?relay:
   \   000000   12....       LCALL   ?BDISPATCH
   \   000003   ......       DC24    ZDO_ParseEPListRsp

   \                                 In  segment BANK_RELAYS, align 1
   \                     ??ZDO_ParseServerDiscRsp?relay:
   \   000000   12....       LCALL   ?BDISPATCH
   \   000003   ......       DC24    ZDO_ParseServerDiscRsp

   \                                 In  segment BANK_RELAYS, align 1
   \                     ??ZDO_ParseMgmtLqiRsp?relay:
   \   000000   12....       LCALL   ?BDISPATCH
   \   000003   ......       DC24    ZDO_ParseMgmtLqiRsp

   \                                 In  segment BANK_RELAYS, align 1
   \                     ??ZDO_ParseMgmNwkDiscRsp?relay:
   \   000000   12....       LCALL   ?BDISPATCH
   \   000003   ......       DC24    ZDO_ParseMgmNwkDiscRsp

   \                                 In  segment BANK_RELAYS, align 1
   \                     ??ZDO_ParseMgmtRtgRsp?relay:
   \   000000   12....       LCALL   ?BDISPATCH
   \   000003   ......       DC24    ZDO_ParseMgmtRtgRsp

   \                                 In  segment BANK_RELAYS, align 1
   \                     ??ZDO_ParseMgmtBindRsp?relay:
   \   000000   12....       LCALL   ?BDISPATCH
   \   000003   ......       DC24    ZDO_ParseMgmtBindRsp

   \                                 In  segment BANK_RELAYS, align 1
   \                     ??ZDO_ParseUserDescRsp?relay:
   \   000000   12....       LCALL   ?BDISPATCH
   \   000003   ......       DC24    ZDO_ParseUserDescRsp

   \                                 In  segment BANK_RELAYS, align 1
   \                     ??ZDO_ParseSimpleDescBuf?relay:
   \   000000   12....       LCALL   ?BDISPATCH
   \   000003   ......       DC24    ZDO_ParseSimpleDescBuf

   \                                 In  segment BANK_RELAYS, align 1
   \                     ??ZDO_ParseDeviceAnnce?relay:
   \   000000   12....       LCALL   ?BDISPATCH
   \   000003   ......       DC24    ZDO_ParseDeviceAnnce

   \                                 In  segment BANK_RELAYS, align 1
   \                     ??ZDO_ParseMgmtNwkUpdateNotify?relay:
   \   000000   12....       LCALL   ?BDISPATCH
   \   000003   ......       DC24    ZDO_ParseMgmtNwkUpdateNotify

   \                                 In  segment BANK_RELAYS, align 1
   \                     ??ZDO_ParseMgmtNwkUpdateReq?relay:
   \   000000   12....       LCALL   ?BDISPATCH
   \   000003   ......       DC24    ZDO_ParseMgmtNwkUpdateReq

   \                                 In  segment XDATA_ROM_C, align 1
   \                     `?<Constant "StartDevice ERR">`:
   \   000000   53746172     DB "StartDevice ERR"
   \            74446576
   \            69636520
   \            45525200

   \                                 In  segment XDATA_ROM_C, align 1
   \                     `?<Constant "MODE unknown">`:
   \   000000   4D4F4445     DB "MODE unknown"
   \            20756E6B
   \            6E6F776E
   \            00      

   \                                 In  segment XDATA_ROM_C, align 1
   \                     `?<Constant "End Device Bind">`:
   \   000000   456E6420     DB "End Device Bind"
   \            44657669
   \            63652042
   \            696E6400

   \                                 In  segment XDATA_ROM_C, align 1
   \                     `?<Constant "Success Sent">`:
   \   000000   53756363     DB "Success Sent"
   \            65737320
   \            53656E74
   \            00      

   \                                 In  segment XDATA_ROM_C, align 1
   \                     `?<Constant "Timeout">`:
   \   000000   54696D65     DB "Timeout"
   \            6F757400

   \                                 In  segment XDATA_ROM_C, align 1
   \                     `?<Constant "Match Desc Req">`:
   \   000000   4D617463     DB "Match Desc Req"
   \            68204465
   \            73632052
   \            657100  

   \                                 In  segment XDATA_ROM_C, align 1
   \                     `?<Constant "Rsp Sent">`:
   \   000000   52737020     DB "Rsp Sent"
   \            53656E74
   \            00      

   \                                 In  segment XDATA_ROM_C, align 1
   \                     `?<Constant "Non Matched">`:
   \   000000   4E6F6E20     DB "Non Matched"
   \            4D617463
   \            68656400

   \                                 In  segment XDATA_ROM_C, align 1
   \                     __Constant_0:
   \   000000   00000000     DD 0
   3078          
   3079          /*********************************************************************
   3080          *********************************************************************/
   3081          
   3082          

   Maximum stack usage in bytes:

     Function                       ISTACK PSTACK XSTACK
     --------                       ------ ------ ------
     NLME_PermitJoiningTimeout          0      0      0
     ZDMatchSendState                   1      0     69
       -> APS_SetEndDeviceBindTimeout
                                        0      0     70
       -> sAddrExtCpy                   0      0     70
       -> ZDP_BindUnbindReq             0      0     86
       -> APS_SetEndDeviceBindTimeout
                                        0      0     70
       -> ZDP_SendData                  0      0     80
       -> ZDP_SendData                  0      0     80
       -> ZDO_RemoveMatchMemory         0      0     70
     ZDO_AnyClusterMatches              0      0     41
     ZDO_BuildSimpleDescBuf             1      0     14
     ZDO_CompareClusterLists            0      0     46
     ZDO_ConvertOTAClusters             0      0     38
     ZDO_CopyMatchInfo                  0      0     45
       -> osal_memcpy                   0      0     38
       -> osal_mem_alloc                0      0     32
       -> osal_memcpy                   0      0     38
       -> osal_mem_alloc                0      0     32
       -> osal_memcpy                   0      0     38
       -> osal_mem_free                 0      0     32
       -> osal_mem_free                 0      0     32
     ZDO_EndDeviceBindMatchTimeoutCB
                                        2      0      0
       -> ZDMatchSendState              4      0      0
     ZDO_EndDeviceTimeoutCB             1      0     17
       -> ZDP_SendData                  0      0     34
       -> HalLcdWriteString             0      0     24
       -> HalLcdWriteString             0      0     24
       -> HalLcdWriteString             0      0     24
       -> osal_mem_free                 0      0     24
       -> osal_mem_free                 0      0     24
       -> osal_mem_free                 0      0     24
     ZDO_Init                           2      0      0
       -> sAddrExtCpy                   4      0      0
       -> APS_ReflectorInit             4      0      0
       -> NLME_DeviceJoiningInit        4      0      0
     ZDO_MatchEndDeviceBind             1      0     31
       -> osal_mem_alloc                0      0     52
       -> osal_memset                   0      0     52
       -> ZDO_CopyMatchInfo             0      0     52
       -> APS_SetEndDeviceBindTimeout
                                        0      0     52
       -> ZDO_CopyMatchInfo             0      0     52
       -> ZDO_CompareClusterLists       0      0     60
       -> osal_mem_alloc                0      0     52
       -> osal_memcpy                   0      0     58
       -> ZDO_CompareClusterLists       0      0     60
       -> osal_mem_alloc                0      0     52
       -> osal_memcpy                   0      0     58
       -> ZDMatchSendState              0      0     52
       -> ZDP_SendData                  0      0     62
       -> ZDP_SendData                  0      0     62
       -> ZDO_RemoveMatchMemory         0      0     52
     ZDO_ParseAddrRsp                   1      0     14
       -> osal_mem_alloc                0      0     28
       -> sAddrExtCpy                   0      0     28
     ZDO_ParseBindUnbindReq             1      0     10
       -> sAddrExtCpy                   0      0     20
       -> sAddrExtCpy                   0      0     20
     ZDO_ParseDeviceAnnce               1      0     52
       -> sAddrExtCpy                   0      0     20
     ZDO_ParseEPListRsp                 1      0     19
       -> osal_mem_alloc                0      0     32
       -> osal_memcpy                   0      0     38
     ZDO_ParseEndDeviceBindReq          1      0     16
       -> sAddrExtCpy                   0      0     32
       -> osal_mem_alloc                0      0     32
       -> ZDO_ConvertOTAClusters        0      0     32
       -> osal_mem_alloc                0      0     32
       -> ZDO_ConvertOTAClusters        0      0     32
     ZDO_ParseMgmNwkDiscRsp             1      0     16
       -> osal_mem_alloc                0      0     32
       -> sAddrExtCpy                   0      0     32
     ZDO_ParseMgmtBindRsp               1      0     16
       -> osal_mem_alloc                0      0     32
       -> sAddrExtCpy                   0      0     32
       -> sAddrExtCpy                   0      0     32
     ZDO_ParseMgmtLqiRsp                1      0     16
       -> osal_mem_alloc                0      0     32
       -> sAddrExtCpy                   0      0     32
     ZDO_ParseMgmtNwkUpdateNotify       1      0     23
       -> osal_build_uint32             0      0     40
       -> osal_mem_alloc                0      0     40
       -> osal_memcpy                   0      0     46
     ZDO_ParseMgmtNwkUpdateReq          1      0     14
       -> osal_build_uint32             0      0     28
     ZDO_ParseMgmtRtgRsp                1      0     14
       -> osal_mem_alloc                0      0     28
     ZDO_ParseNodeDescRsp               2      0      9
     ZDO_ParsePowerDescRsp              1      0     10
     ZDO_ParseServerDiscRsp             1      0      9
     ZDO_ParseSimpleDescBuf             1      0     25
       -> osal_mem_alloc                0      0     32
       -> osal_mem_alloc                0      0     32
       -> osal_mem_free                 0      0     32
     ZDO_ParseSimpleDescRsp             1      0      9
       -> ZDO_ParseSimpleDescBuf        0      0     18
     ZDO_ParseUserDescRsp               1      0     19
       -> osal_mem_alloc                0      0     32
       -> osal_memcpy                   0      0     38
     ZDO_ProcessActiveEPReq             0      0     21
       -> NLME_GetShortAddr             0      0     28
       -> afNumEndPoints                0      0     28
       -> afEndPoints                   0      0     28
       -> ZDP_EPRsp                     0      0     42
     ZDO_ProcessBindUnbindReq           1      0     33
       -> sAddrExtCpy                   0      0     56
       -> NLME_GetExtAddr               0      0     56
       -> sAddrExtCmp                   0      0     56
       -> bindNumOfEntries              0      0     56
       -> APSME_BindRequest             0      0     58
       -> ZDApp_NVUpdate                0      0     56
       -> APSME_LookupNwkAddr           0      0     56
       -> ZDP_NwkAddrReq                0      0     56
       -> APSME_UnBindRequest           0      0     58
       -> ZDApp_NVUpdate                0      0     56
       -> ZDP_SendData                  0      0     66
     ZDO_ProcessDeviceAnnce             1      0     42
       -> ZDO_ParseDeviceAnnce          0      0     84
       -> NLME_GetExtAddr               0      0     84
       -> sAddrExtCmp                   0      0     84
       -> NLME_GetShortAddr             0      0     84
       -> AddrMgrEntryLookupNwk         0      0     84
       -> osal_memset                   0      0     84
       -> sAddrExtCmp                   0      0     84
       -> AddrMgrExtAddrSet             0      0     84
       -> AddrMgrEntryUpdate            0      0     84
     ZDO_ProcessMatchDescReq            1      0     34
       -> NLME_IsAddressBroadcast       0      0     54
       -> ZDP_EPRsp                     0      0     68
       -> NLME_IsAddressBroadcast       0      0     54
       -> osal_mem_alloc                0      0     54
       -> ZDO_ConvertOTAClusters        0      0     54
       -> osal_mem_alloc                0      0     54
       -> ZDO_ConvertOTAClusters        0      0     54
       -> osal_msg_send                 0      0     54
       -> osal_mem_free                 0      0     54
       -> ZDO_AnyClusterMatches         0      0     58
       -> ZDO_AnyClusterMatches         0      0     58
       -> osal_msg_allocate             0      0     54
       -> osal_memcpy                   0      0     60
       -> osal_memcpy                   0      0     60
       -> ZDP_EPRsp                     0      0     68
       -> HalLcdWriteScreen             0      0     54
       -> HalLcdWriteScreen             0      0     54
       -> osal_mem_free                 0      0     54
       -> osal_mem_free                 0      0     54
     ZDO_ProcessMgmtBindReq             0      0     28
       -> APSME_GetRequest              0      0     46
       -> osal_mem_alloc                0      0     46
       -> APSME_GetRequest              0      0     46
       -> ZDP_MgmtBindRsp               0      0     56
       -> osal_mem_free                 0      0     46
     ZDO_ProcessMgmtDirectJoinReq       1      0     16
       -> NLME_DirectJoinRequest        0      0     22
       -> ZDP_SendData                  0      0     32
     ZDO_ProcessMgmtLeaveReq            1      0     23
       -> AddrMgrExtAddrValid           0      0     36
       -> NLME_GetExtAddr               0      0     36
       -> sAddrExtCmp                   0      0     36
       -> NLME_LeaveReq                 0      0     36
       -> ZDP_SendData                  0      0     46
     ZDO_ProcessMgmtLqiReq              1      0     64
       -> NLME_GetRequest               0      0    118
       -> AssocCount                    0      0    118
       -> osal_mem_alloc                0      0    118
       -> osal_memset                   0      0    118
       -> AssocFindDevice               0      0    118
       -> sAddrExtCpy                   0      0    118
       -> AddrMgrEntryLookupNwk         0      0    118
       -> sAddrExtCpy                   0      0    118
       -> NLME_GetRequest               0      0    118
       -> sAddrExtCpy                   0      0    118
       -> osal_memset                   0      0    118
       -> ZDP_MgmtLqiRsp                0      0    128
       -> osal_mem_free                 0      0    118
     ZDO_ProcessMgmtNwkDiscReq          1      0     21
       -> osal_build_uint32             0      0     42
       -> NLME_NwkDiscReq2              0      0     42
       -> NLME_NwkDiscTerm              0      0     42
     ZDO_ProcessMgmtPermitJoinReq       1      0     16
       -> NLME_PermitJoiningRequest     0      0     22
       -> ZDP_SendData                  0      0     32
     ZDO_ProcessMgmtRtgReq              1      0     26
       -> NLME_GetRequest               0      0     42
       -> osal_mem_alloc                0      0     42
       -> NLME_GetRequest               0      0     42
       -> ZDP_MgmtRtgRsp                0      0     52
       -> osal_mem_free                 0      0     42
     ZDO_ProcessNodeDescReq             0      0     14
       -> ZDP_NodeDescMsg               0      0     24
       -> ZDP_GenericRsp                0      0     28
     ZDO_ProcessPowerDescReq            0      0     14
       -> ZDP_PowerDescMsg              0      0     24
       -> ZDP_GenericRsp                0      0     28
     ZDO_ProcessServerDiscReq           0      0     14
       -> ZDP_ServerDiscRsp             0      0     28
     ZDO_ProcessSimpleDescReq           0      0     12
       -> afFindSimpleDesc              0      0     24
       -> ZDP_SimpleDescMsg             0      0     24
       -> osal_mem_free                 0      0     24
     ZDO_ProcessUserDescReq             0      0     37
       -> osal_nv_read                  0      0     74
       -> ZDP_UserDescRsp               0      0     72
       -> ZDP_GenericRsp                0      0     74
     ZDO_ProcessUserDescSet             1      0     39
       -> osal_memcpy                   0      0     74
       -> osal_nv_write                 0      0     76
       -> ZDP_SendData                  0      0     78
     ZDO_RemoveMatchMemory              2      0     35
       -> osal_mem_free                 4      0      0
       -> osal_mem_free                 4      0      0
       -> osal_mem_free                 4      0      0
       -> osal_mem_free                 4      0      0
       -> osal_mem_free                 4      0      0
       -> osal_mem_free                 4      0      0
       -> osal_mem_free                 4      0      0
     ZDO_StartDevice                    1      0     23
       -> NLME_NetworkDiscoveryRequest
                                        0      0     46
       -> osal_start_timerEx            0      0     46
       -> nwk_ScanJoiningOrphan         0      0     46
       -> NLME_OrphanJoinRequest        0      0     46
       -> HalLcdWriteScreen             0      0     46
     ZDO_UpdateAddrManager              3      0     13
       -> AddrMgrExtAddrSet             4      0     26
       -> AddrMgrEntryUpdate            4      0     26
     ZDO_UpdateNwkStatus                1      0     12
       -> NLME_GetShortAddr             0      0     24
       -> NLME_GetExtAddr               0      0     24
       -> osal_msg_allocate             0      0     24
       -> osal_msg_send                 0      0     24


   Segment part sizes:

     Function/Label                          Bytes
     --------------                          -----
     ZDOBuildBuf                               52
     ZDO_EDBind                                 2
     matchED                                    2
     apsChannelMask                             4
     ZDO_Init                                  43
     ?Subroutine186                             7
     ZDO_StartDevice                          170
     ?Subroutine30                             15
     ?Subroutine187                             3
     ??Subroutine212_0                          5
     ?Subroutine16                              7
     ?Subroutine200                             5
     ZDO_UpdateNwkStatus                       85
     ??Subroutine217_0                          4
     ?Subroutine58                             11
     ?Subroutine59                              4
     ?Subroutine198                             5
     ?Subroutine38                              4
     ?Subroutine145                             1
     ??Subroutine229_0                          5
     ??Subroutine247_0                          6
     ?Subroutine183                             6
     ?Subroutine151                             5
     ?Subroutine180                             2
     ??Subroutine265_0                          7
     ZDO_CompareClusterLists                  124
     ??Subroutine214_0                          2
     ??Subroutine215_0                          6
     ?Subroutine112                            11
     ??Subroutine222_0                          5
     ??Subroutine237_0                          4
     ?Subroutine156                             1
     ?Subroutine197                             5
     ZDO_AnyClusterMatches                     86
     ??Subroutine216_0                          2
     ?Subroutine196                             5
     ??Subroutine231_0                          4
     ?Subroutine184                             4
     ??Subroutine261_0                         14
     ZDO_ProcessNodeDescReq                    66
     ??Subroutine219_0                          5
     ?Subroutine60                             22
     ?Subroutine53                             22
     ?Subroutine171                            12
     ?Subroutine153                             6
     ?Subroutine169                             3
     ??Subroutine243_0                          6
     ?Subroutine192                             6
     ?Subroutine181                            10
     ?Subroutine191                             1
     ??Subroutine272_0                          5
     ZDO_ProcessPowerDescReq                   66
     ?Subroutine207                             2
     ??Subroutine218_0                          3
     ZDO_ProcessSimpleDescReq                 147
     ?Subroutine102                             6
     ?Subroutine72                             10
     ?Subroutine49                              6
     ??Subroutine241_0                          7
     ?Subroutine160                             4
     ?Subroutine116                             1
     ??Subroutine259_0                          5
     ZDO_ProcessActiveEPReq                   114
     ?Subroutine122                             4
     ??Subroutine220_0                          5
     ?Subroutine65                             10
     ?Subroutine165                             7
     ?Subroutine129                            15
     ?Subroutine208                             2
     ??Subroutine234_0                          3
     ??Subroutine235_0                          5
     ?Subroutine123                             4
     ??Subroutine242_0                          4
     ZDO_ConvertOTAClusters                    53
     ?Subroutine130                            10
     ZDO_ProcessMatchDescReq                 1002
     ?Subroutine103                            16
     ?Subroutine101                            10
     ?Subroutine90                             12
     ?Subroutine62                              3
     ??Subroutine221_0                          6
     ?Subroutine55                             13
     ?Subroutine66                              5
     ?Subroutine57                              3
     ?Subroutine199                             5
     ??Subroutine225_0                          1
     ??Subroutine226_0                          4
     ?Subroutine210                             6
     ?Subroutine152                             4
     ??Subroutine228_0                          5
     ?Subroutine73                              1
     ??Subroutine230_0                          2
     ?Subroutine195                             6
     ?Subroutine193                             1
     ??Subroutine233_0                          5
     ?Subroutine155                             1
     ??Subroutine244_0                          4
     ?Subroutine179                             8
     ?Subroutine64                              6
     ??Subroutine256_0                          4
     ?Subroutine41                              4
     ?Subroutine147                             9
     ?Subroutine125                             4
     ??Subroutine260_0                          5
     ?Subroutine88                              5
     ?Subroutine158                             1
     ??Subroutine264_0                          4
     ?Subroutine82                              4
     ?Subroutine81                              2
     ??Subroutine266_0                          5
     ?Subroutine188                             2
     ??Subroutine267_0                          6
     ?Subroutine80                              5
     ?Subroutine70                              4
     ?Subroutine150                             7
     ?Subroutine63                             13
     ??Subroutine269_0                          5
     ??Subroutine271_0                          1
     ??Subroutine213_0                          2
     ZDO_ProcessBindUnbindReq                 393
     ?Subroutine114                             5
     ?Subroutine167                             9
     ??Subroutine232_0                          7
     ?Subroutine86                              6
     ?Subroutine98                             17
     ?Subroutine175                             6
     ??Subroutine248_0                          5
     ?Subroutine135                             9
     ZDO_UpdateAddrManager                     41
     ?Subroutine133                            21
     ZDO_ProcessServerDiscReq                  82
     ?Subroutine115                             8
     ZDO_EndDeviceTimeoutCB                   223
     ?Subroutine84                              1
     ??Subroutine227_0                          4
     ?Subroutine48                              5
     ?Subroutine154                             7
     ZDO_ProcessMgmtLqiReq                    724
     ?Subroutine118                             5
     ??Subroutine223_0                          6
     ?Subroutine35                             12
     ?Subroutine17                              4
     ??Subroutine224_0                          8
     ?Subroutine170                             3
     ?Subroutine10                             26
     ?Subroutine4                              20
     ?Subroutine77                              3
     ?Subroutine189                             7
     ?Subroutine56                              4
     ?Subroutine50                             26
     ?Subroutine157                             7
     ?Subroutine182                             3
     ?Subroutine202                             5
     ?Subroutine5                               4
     ??Subroutine252_0                          1
     ??Subroutine268_0                          1
     ZDO_ProcessMgmtNwkDiscReq                109
     ?Subroutine161                             2
     ?Subroutine143                             4
     ?Subroutine177                             5
     ?Subroutine168                             4
     ?Subroutine190                             1
     ??Subroutine257_0                          6
     ?Subroutine45                              6
     ?Subroutine76                             18
     ?Subroutine6                              16
     ZDO_ProcessMgmtRtgReq                    276
     ?Subroutine132                             4
     ?Subroutine194                             6
     ?Subroutine174                             6
     ZDO_ProcessMgmtBindReq                   337
     ?Subroutine37                             10
     ??Subroutine238_0                          4
     ZDO_ProcessMgmtDirectJoinReq              93
     ?Subroutine211                             5
     ?Subroutine117                             5
     ?Subroutine204                             5
     ?Subroutine95                              9
     ?Subroutine108                             5
     ZDO_ProcessMgmtLeaveReq                  194
     ZDO_ProcessMgmtPermitJoinReq              97
     NLME_PermitJoiningTimeout                  3
     ZDO_ProcessUserDescReq                   206
     ZDO_ProcessUserDescSet                   263
     ?Subroutine44                              4
     ?Subroutine144                             7
     ZDO_ProcessDeviceAnnce                   165
     ??Subroutine246_0                          6
     ZDO_BuildSimpleDescBuf                   153
     ?Subroutine126                            13
     ?Subroutine107                            14
     ?Subroutine94                              8
     ?Subroutine91                              7
     ?Subroutine162                             7
     ?Subroutine21                             13
     ?Subroutine15                             12
     ?Subroutine141                             1
     ??Subroutine236_0                         10
     ?Subroutine172                             4
     ?Subroutine185                            10
     ZDO_MatchEndDeviceBind                   536
     ?Subroutine131                            16
     ?Subroutine85                              6
     ?Subroutine79                              7
     ?Subroutine78                             10
     ?Subroutine71                              6
     ?Subroutine54                              3
     ??Subroutine239_0                         10
     ?Subroutine52                              3
     ??Subroutine240_0                         10
     ?Subroutine23                             14
     ?Subroutine203                             5
     ?Subroutine105                             9
     ?Subroutine201                             5
     ?Subroutine96                             14
     ?Subroutine93                             14
     ?Subroutine83                             10
     ?Subroutine74                             12
     ?Subroutine61                              3
     ??Subroutine245_0                          2
     ?Subroutine163                             6
     ?Subroutine27                              4
     ?Subroutine8                              12
     ZDO_RemoveMatchMemory                    129
     ZDO_CopyMatchInfo                        253
     ?Subroutine99                             16
     ?Subroutine97                             10
     ?Subroutine26                             13
     ZDMatchSendState                         613
     ?Subroutine104                             8
     ?Subroutine75                             12
     ?Subroutine51                             22
     ?Subroutine146                             9
     ZDO_EndDeviceBindMatchTimeoutCB
                                               16
     ZDO_ParseEndDeviceBindReq                291
     ?Subroutine127                             4
     ?Subroutine46                              3
     ??Subroutine249_0                         10
     ??Subroutine250_0                          6
     ?Subroutine22                              6
     ?Subroutine124                             4
     ??Subroutine254_0                          2
     ??Subroutine255_0                          2
     ?Subroutine42                              5
     ?Subroutine148                             7
     ?Subroutine142                             9
     ?Subroutine164                             9
     ?Subroutine136                             7
     ?Subroutine176                             5
     ?Subroutine92                              6
     ??Subroutine262_0                          6
     ?Subroutine29                             26
     ?Subroutine11                             10
     ?Subroutine28                              6
     ?Subroutine69                              1
     ??Subroutine270_0                          4
     ZDO_ParseBindUnbindReq                    93
     ?Subroutine0                               8
     ?Subroutine31                              6
     ?Subroutine87                             14
     ?Subroutine140                             7
     ?Subroutine12                             19
     ?Subroutine47                             17
     ZDO_ParseAddrRsp                         207
     ?Subroutine25                              7
     ?Subroutine173                            10
     ?Subroutine34                              3
     ?Subroutine205                             5
     ?Subroutine18                              5
     ?Subroutine113                             4
     ?Subroutine166                             9
     ??Subroutine258_0                          4
     ?Subroutine159                             7
     ?Subroutine32                              4
     ZDO_ParseNodeDescRsp                     223
     ?Subroutine209                             5
     ?Subroutine20                              1
     ??Subroutine251_0                          8
     ?Subroutine9                               4
     ?Subroutine137                            17
     ?Subroutine7                               6
     ?Subroutine2                              37
     ?Subroutine40                              5
     ZDO_ParsePowerDescRsp                    172
     ZDO_ParseSimpleDescRsp                    34
     ?Subroutine100                             3
     ?Subroutine206                             4
     ZDO_ParseEPListRsp                        87
     ?Subroutine119                            10
     ??Subroutine253_0                          6
     ?Subroutine121                            14
     ?Subroutine24                             27
     ZDO_ParseServerDiscRsp                    52
     ?Subroutine106                            10
     ZDO_ParseMgmtLqiRsp                      141
     ?Subroutine128                             4
     ?Subroutine19                             10
     ?Subroutine120                            19
     ?Subroutine110                             9
     ?Subroutine67                             21
     ZDO_ParseMgmNwkDiscRsp                   251
     ?Subroutine43                              8
     ?Subroutine68                              3
     ?Subroutine33                              9
     ZDO_ParseMgmtRtgRsp                      144
     ?Subroutine109                            10
     ?Subroutine39                              4
     ?Subroutine139                             4
     ??Subroutine263_0                          6
     ZDO_ParseMgmtBindRsp                     174
     ZDO_ParseUserDescRsp                      91
     ZDO_ParseSimpleDescBuf                   275
     ?Subroutine111                             1
     ?Subroutine36                              5
     ?Subroutine13                              4
     ZDO_ParseDeviceAnnce                      55
     ZDO_ParseMgmtNwkUpdateNotify             327
     ?Subroutine14                              4
     ?Subroutine138                            12
     ?Subroutine3                              14
     ?Subroutine178                             7
     ?Subroutine1                              20
     ZDO_ParseMgmtNwkUpdateReq                 99
     ?Subroutine89                             10
     ??ZDO_Init?relay                           6
     ??ZDO_StartDevice?relay                    6
     ??ZDO_UpdateNwkStatus?relay                6
     ??ZDO_CompareClusterLists?relay            6
     ??ZDO_AnyClusterMatches?relay              6
     ??ZDO_ProcessNodeDescReq?relay             6
     ??ZDO_ProcessPowerDescReq?relay            6
     ??ZDO_ProcessSimpleDescReq?relay           6
     ??ZDO_ProcessActiveEPReq?relay             6
     ??ZDO_ConvertOTAClusters?relay             6
     ??ZDO_ProcessMatchDescReq?relay            6
     ??ZDO_ProcessBindUnbindReq?relay           6
     ??ZDO_UpdateAddrManager?relay              6
     ??ZDO_ProcessServerDiscReq?relay           6
     ??ZDO_EndDeviceTimeoutCB?relay             6
     ??ZDO_ProcessMgmtLqiReq?relay              6
     ??ZDO_ProcessMgmtNwkDiscReq?relay          6
     ??ZDO_ProcessMgmtRtgReq?relay              6
     ??ZDO_ProcessMgmtBindReq?relay             6
     ??ZDO_ProcessMgmtDirectJoinReq?relay       6
     ??ZDO_ProcessMgmtLeaveReq?relay            6
     ??ZDO_ProcessMgmtPermitJoinReq?relay       6
     ??NLME_PermitJoiningTimeout?relay          6
     ??ZDO_ProcessUserDescReq?relay             6
     ??ZDO_ProcessUserDescSet?relay             6
     ??ZDO_ProcessDeviceAnnce?relay             6
     ??ZDO_BuildSimpleDescBuf?relay             6
     ??ZDO_MatchEndDeviceBind?relay             6
     ??ZDO_RemoveMatchMemory?relay              6
     ??ZDO_CopyMatchInfo?relay                  6
     ??ZDMatchSendState?relay                   6
     ??ZDO_EndDeviceBindMatchTimeoutCB?relay    6
     ??ZDO_ParseEndDeviceBindReq?relay          6
     ??ZDO_ParseBindUnbindReq?relay             6
     ??ZDO_ParseAddrRsp?relay                   6
     ??ZDO_ParseNodeDescRsp?relay               6
     ??ZDO_ParsePowerDescRsp?relay              6
     ??ZDO_ParseSimpleDescRsp?relay             6
     ??ZDO_ParseEPListRsp?relay                 6
     ??ZDO_ParseServerDiscRsp?relay             6
     ??ZDO_ParseMgmtLqiRsp?relay                6
     ??ZDO_ParseMgmNwkDiscRsp?relay             6
     ??ZDO_ParseMgmtRtgRsp?relay                6
     ??ZDO_ParseMgmtBindRsp?relay               6
     ??ZDO_ParseUserDescRsp?relay               6
     ??ZDO_ParseSimpleDescBuf?relay             6
     ??ZDO_ParseDeviceAnnce?relay               6
     ??ZDO_ParseMgmtNwkUpdateNotify?relay       6
     ??ZDO_ParseMgmtNwkUpdateReq?relay          6
     ?<Constant "StartDevice ERR">             16
     ?<Constant "MODE unknown">                13
     ?<Constant "End Device Bind">             16
     ?<Constant "Success Sent">                13
     ?<Constant "Timeout">                      8
     ?<Constant "Match Desc Req">              15
     ?<Constant "Rsp Sent">                     9
     ?<Constant "Non Matched">                 12
     __Constant_0                               4

 
 11 544 bytes in segment BANKED_CODE
    294 bytes in segment BANK_RELAYS
    106 bytes in segment XDATA_ROM_C
     60 bytes in segment XDATA_Z
 
 11 838 bytes of CODE  memory
    102 bytes of CONST memory (+ 4 bytes shared)
     60 bytes of XDATA memory

Errors: none
Warnings: none
