###############################################################################
#                                                                             #
# IAR C/C++ Compiler V7.51A/W32 for 8051                29/Sep/2011  15:47:24 #
# Copyright 2004-2009 IAR Systems AB.                                         #
#                                                                             #
#    Core               =  plain                                              #
#    Code model         =  banked                                             #
#    Data model         =  large                                              #
#    Calling convention =  xdata reentrant                                    #
#    Constant location  =  data_rom                                           #
#    Dptr setup         =  1,16                                               #
#    Source file        =  C:\Texas Instruments\ZStack-CC2530-2.2.2-1.3.0\Com #
#                          ponents\zmac\f8w\zmac_cb.c                         #
#    Command line       =  -f "C:\Texas Instruments\ZStack-CC2530-2.2.2-1.3.0 #
#                          \Projects\zstack\Samples\LightCtlPrj\CC2530DB\..\. #
#                          .\..\Tools\CC2530DB\f8wEndev.cfg" (-DCPU32MHZ      #
#                          -DROOT=__near_func -DBLINK_LEDS) -f "C:\Texas      #
#                          Instruments\ZStack-CC2530-2.2.2-1.3.0\Projects\zst #
#                          ack\Samples\LightCtlPrj\CC2530DB\..\..\..\Tools\CC #
#                          2530DB\f8wConfig.cfg" (-DSECURE=0                  #
#                          -DZG_SECURE_DYNAMIC=0 -DREFLECTOR                  #
#                          -DDEFAULT_CHANLIST=0x00001000                      #
#                          -DZDAPP_CONFIG_PAN_ID=0x1212                       #
#                          -DNWK_START_DELAY=100 -DEXTENDED_JOINING_RANDOM_MA #
#                          SK=0x007F -DBEACON_REQUEST_DELAY=100               #
#                          -DBEACON_REQ_DELAY_MASK=0x00FF                     #
#                          -DROUTE_EXPIRY_TIME=30 -DAPSC_ACK_WAIT_DURATION_PO #
#                          LLED=3000 -DNWK_INDIRECT_MSG_TIMEOUT=7             #
#                          -DMAX_RREQ_ENTRIES=8 -DAPSC_MAX_FRAME_RETRIES=3    #
#                          -DNWK_MAX_DATA_RETRIES=2                           #
#                          -DMAX_POLL_FAILURE_RETRIES=2 -DMAX_BCAST=9         #
#                          -DAPS_MAX_GROUPS=16 -DMAX_RTG_ENTRIES=40           #
#                          -DNWK_MAX_BINDING_ENTRIES=4                        #
#                          -DMAX_BINDING_CLUSTER_IDS=4 "-DDEFAULT_KEY={0x01,  #
#                          0x03, 0x05, 0x07, 0x09, 0x0B, 0x0D, 0x0F, 0x00,    #
#                          0x02, 0x04, 0x06, 0x08, 0x0A, 0x0C, 0x0D}"         #
#                          -DMAC_MAX_FRAME_SIZE=116 "-DCONST=const __code"    #
#                          -DGENERIC=__generic -DRFD_RCVC_ALWAYS_ON=FALSE     #
#                          -DPOLL_RATE=1000 -DQUEUED_POLL_RATE=100            #
#                          -DRESPONSE_POLL_RATE=100) -DREJOIN_POLL_RATE=440   #
#                          "C:\Texas Instruments\ZStack-CC2530-2.2.2-1.3.0\Co #
#                          mponents\zmac\f8w\zmac_cb.c" -D NWK_AUTO_POLL -D   #
#                          ZTOOL_P1 -D MT_TASK -D MT_SYS_FUNC -D MT_ZDO_FUNC  #
#                          -D LCD_SUPPORTED=DEBUG -D HAL_UART=TRUE -D         #
#                          xPOWER_SAVING -lC "C:\Texas                        #
#                          Instruments\ZStack-CC2530-2.2.2-1.3.0\Projects\zst #
#                          ack\Samples\LightCtlPrj\CC2530DB\EndDeviceEB\List\ #
#                          " -lA "C:\Texas Instruments\ZStack-CC2530-2.2.2-1. #
#                          3.0\Projects\zstack\Samples\LightCtlPrj\CC2530DB\E #
#                          ndDeviceEB\List\" --diag_suppress Pe001,Pa010 -o   #
#                          "C:\Texas Instruments\ZStack-CC2530-2.2.2-1.3.0\Pr #
#                          ojects\zstack\Samples\LightCtlPrj\CC2530DB\EndDevi #
#                          ceEB\Obj\" -e --require_prototypes --debug         #
#                          --core=plain --dptr=16,1 --data_model=large        #
#                          --code_model=banked --calling_convention=xdata_ree #
#                          ntrant --place_constants=data_rom                  #
#                          --nr_virtual_regs 8 -I "C:\Texas                   #
#                          Instruments\ZStack-CC2530-2.2.2-1.3.0\Projects\zst #
#                          ack\Samples\LightCtlPrj\CC2530DB\" -I "C:\Texas    #
#                          Instruments\ZStack-CC2530-2.2.2-1.3.0\Projects\zst #
#                          ack\Samples\LightCtlPrj\CC2530DB\..\SOURCE\" -I    #
#                          "C:\Texas Instruments\ZStack-CC2530-2.2.2-1.3.0\Pr #
#                          ojects\zstack\Samples\LightCtlPrj\CC2530DB\..\..\. #
#                          .\ZMAIN\TI2530DB\" -I "C:\Texas                    #
#                          Instruments\ZStack-CC2530-2.2.2-1.3.0\Projects\zst #
#                          ack\Samples\LightCtlPrj\CC2530DB\..\..\..\..\..\CO #
#                          MPONENTS\MT\" -I "C:\Texas                         #
#                          Instruments\ZStack-CC2530-2.2.2-1.3.0\Projects\zst #
#                          ack\Samples\LightCtlPrj\CC2530DB\..\..\..\..\..\CO #
#                          MPONENTS\HAL\INCLUDE\" -I "C:\Texas                #
#                          Instruments\ZStack-CC2530-2.2.2-1.3.0\Projects\zst #
#                          ack\Samples\LightCtlPrj\CC2530DB\..\..\..\..\..\CO #
#                          MPONENTS\HAL\TARGET\CC2530EB\" -I "C:\Texas        #
#                          Instruments\ZStack-CC2530-2.2.2-1.3.0\Projects\zst #
#                          ack\Samples\LightCtlPrj\CC2530DB\..\..\..\..\..\CO #
#                          MPONENTS\OSAL\MCU\CCSOC\" -I "C:\Texas             #
#                          Instruments\ZStack-CC2530-2.2.2-1.3.0\Projects\zst #
#                          ack\Samples\LightCtlPrj\CC2530DB\..\..\..\..\..\CO #
#                          MPONENTS\OSAL\INCLUDE\" -I "C:\Texas               #
#                          Instruments\ZStack-CC2530-2.2.2-1.3.0\Projects\zst #
#                          ack\Samples\LightCtlPrj\CC2530DB\..\..\..\..\..\CO #
#                          MPONENTS\STACK\AF\" -I "C:\Texas                   #
#                          Instruments\ZStack-CC2530-2.2.2-1.3.0\Projects\zst #
#                          ack\Samples\LightCtlPrj\CC2530DB\..\..\..\..\..\CO #
#                          MPONENTS\STACK\NWK\" -I "C:\Texas                  #
#                          Instruments\ZStack-CC2530-2.2.2-1.3.0\Projects\zst #
#                          ack\Samples\LightCtlPrj\CC2530DB\..\..\..\..\..\CO #
#                          MPONENTS\STACK\SEC\" -I "C:\Texas                  #
#                          Instruments\ZStack-CC2530-2.2.2-1.3.0\Projects\zst #
#                          ack\Samples\LightCtlPrj\CC2530DB\..\..\..\..\..\CO #
#                          MPONENTS\STACK\SAPI\" -I "C:\Texas                 #
#                          Instruments\ZStack-CC2530-2.2.2-1.3.0\Projects\zst #
#                          ack\Samples\LightCtlPrj\CC2530DB\..\..\..\..\..\CO #
#                          MPONENTS\STACK\SYS\" -I "C:\Texas                  #
#                          Instruments\ZStack-CC2530-2.2.2-1.3.0\Projects\zst #
#                          ack\Samples\LightCtlPrj\CC2530DB\..\..\..\..\..\CO #
#                          MPONENTS\STACK\ZDO\" -I "C:\Texas                  #
#                          Instruments\ZStack-CC2530-2.2.2-1.3.0\Projects\zst #
#                          ack\Samples\LightCtlPrj\CC2530DB\..\..\..\..\..\CO #
#                          MPONENTS\ZMAC\F8W\" -I "C:\Texas                   #
#                          Instruments\ZStack-CC2530-2.2.2-1.3.0\Projects\zst #
#                          ack\Samples\LightCtlPrj\CC2530DB\..\..\..\..\..\CO #
#                          MPONENTS\ZMAC\" -I "C:\Texas                       #
#                          Instruments\ZStack-CC2530-2.2.2-1.3.0\Projects\zst #
#                          ack\Samples\LightCtlPrj\CC2530DB\..\..\..\..\..\CO #
#                          MPONENTS\SERVICES\SADDR\" -I "C:\Texas             #
#                          Instruments\ZStack-CC2530-2.2.2-1.3.0\Projects\zst #
#                          ack\Samples\LightCtlPrj\CC2530DB\..\..\..\..\..\CO #
#                          MPONENTS\SERVICES\SDATA\" -I "C:\Texas             #
#                          Instruments\ZStack-CC2530-2.2.2-1.3.0\Projects\zst #
#                          ack\Samples\LightCtlPrj\CC2530DB\..\..\..\..\..\CO #
#                          MPONENTS\MAC\INCLUDE\" -I "C:\Texas                #
#                          Instruments\ZStack-CC2530-2.2.2-1.3.0\Projects\zst #
#                          ack\Samples\LightCtlPrj\CC2530DB\..\..\..\..\..\CO #
#                          MPONENTS\MAC\HIGH_LEVEL\" -I "C:\Texas             #
#                          Instruments\ZStack-CC2530-2.2.2-1.3.0\Projects\zst #
#                          ack\Samples\LightCtlPrj\CC2530DB\..\..\..\..\..\CO #
#                          MPONENTS\MAC\LOW_LEVEL\srf04\" -I "C:\Texas        #
#                          Instruments\ZStack-CC2530-2.2.2-1.3.0\Projects\zst #
#                          ack\Samples\LightCtlPrj\CC2530DB\..\..\..\..\..\CO #
#                          MPONENTS\MAC\LOW_LEVEL\srf04\SINGLE_CHIP\" -I      #
#                          "C:\Program Files\IAR Systems\Embedded Workbench   #
#                          5.3\8051\INC\" -I "C:\Program Files\IAR            #
#                          Systems\Embedded Workbench 5.3\8051\INC\CLIB\"     #
#                          -Ohz                                               #
#    List file          =  C:\Texas Instruments\ZStack-CC2530-2.2.2-1.3.0\Pro #
#                          jects\zstack\Samples\LightCtlPrj\CC2530DB\EndDevic #
#                          eEB\List\zmac_cb.lst                               #
#    Object file        =  C:\Texas Instruments\ZStack-CC2530-2.2.2-1.3.0\Pro #
#                          jects\zstack\Samples\LightCtlPrj\CC2530DB\EndDevic #
#                          eEB\Obj\zmac_cb.r51                                #
#                                                                             #
#                                                                             #
###############################################################################

C:\Texas Instruments\ZStack-CC2530-2.2.2-1.3.0\Components\zmac\f8w\zmac_cb.c
      1          /**************************************************************************************************
      2            Filename:       zmac_cb.c
      3            Revised:        $Date: 2009-08-24 11:37:21 -0700 (Mon, 24 Aug 2009) $
      4            Revision:       $Revision: 20636 $
      5          
      6            Description:    This file contains the NWK functions that the ZMAC calls
      7          
      8          
      9            Copyright 2005-2009 Texas Instruments Incorporated. All rights reserved.
     10          
     11            IMPORTANT: Your use of this Software is limited to those specific rights
     12            granted under the terms of a software license agreement between the user
     13            who downloaded the software, his/her employer (which must be your employer)
     14            and Texas Instruments Incorporated (the "License").  You may not use this
     15            Software unless you agree to abide by the terms of the License. The License
     16            limits your use, and you acknowledge, that the Software may not be modified,
     17            copied or distributed unless embedded on a Texas Instruments microcontroller
     18            or used solely and exclusively in conjunction with a Texas Instruments radio
     19            frequency transceiver, which is integrated into your product.  Other than for
     20            the foregoing purpose, you may not use, reproduce, copy, prepare derivative
     21            works of, modify, distribute, perform, display or sell this Software and/or
     22            its documentation for any purpose.
     23          
     24            YOU FURTHER ACKNOWLEDGE AND AGREE THAT THE SOFTWARE AND DOCUMENTATION ARE
     25            PROVIDED “AS IS” WITHOUT WARRANTY OF ANY KIND, EITHER EXPRESS OR IMPLIED,
     26            INCLUDING WITHOUT LIMITATION, ANY WARRANTY OF MERCHANTABILITY, TITLE,
     27            NON-INFRINGEMENT AND FITNESS FOR A PARTICULAR PURPOSE. IN NO EVENT SHALL
     28            TEXAS INSTRUMENTS OR ITS LICENSORS BE LIABLE OR OBLIGATED UNDER CONTRACT,
     29            NEGLIGENCE, STRICT LIABILITY, CONTRIBUTION, BREACH OF WARRANTY, OR OTHER
     30            LEGAL EQUITABLE THEORY ANY DIRECT OR INDIRECT DAMAGES OR EXPENSES
     31            INCLUDING BUT NOT LIMITED TO ANY INCIDENTAL, SPECIAL, INDIRECT, PUNITIVE
     32            OR CONSEQUENTIAL DAMAGES, LOST PROFITS OR LOST DATA, COST OF PROCUREMENT
     33            OF SUBSTITUTE GOODS, TECHNOLOGY, SERVICES, OR ANY CLAIMS BY THIRD PARTIES
     34            (INCLUDING BUT NOT LIMITED TO ANY DEFENSE THEREOF), OR OTHER SIMILAR COSTS.
     35          
     36            Should you have any questions regarding your right to use this Software,
     37            contact Texas Instruments Incorporated at www.TI.com.
     38          **************************************************************************************************/
     39          
     40          /********************************************************************************************************
     41           *                                               INCLUDES
     42           ********************************************************************************************************/
     43          
     44          #include "ZComDef.h"
     45          #include "OSAL.h"
     46          #include "ZMAC.h"
     47          #include "MT_MAC.h"
     48          #include "hal_mcu.h"

   \                                 In  segment SFR_AN, at 0xa8
   \   union <unnamed> volatile __sfr _A_IEN0
   \                     _A_IEN0:
   \   000000                DS 1
     49          
     50          #if !defined NONWK
     51          #include "nwk.h"
     52          #include "nwk_bufs.h"
     53          #include "ZGlobals.h"
     54          #endif
     55          
     56          #if defined( MACSIM )
     57            #include "mac_sim.h"
     58          #endif
     59          
     60          #include "mac_main.h"
     61          extern void *ZMac_ScanBuf;
     62          
     63          /********************************************************************************************************
     64           *                                               CONSTANTS
     65           ********************************************************************************************************/
     66          
     67          #if !defined NONWK
     68          /* Lookup table for size of structures. Must match with the order of MAC callback events */

   \                                 In  segment CODE_C, align 1
     69          const uint8 CODE zmacCBSizeTable [] = {
   \                     zmacCBSizeTable:
   \   000000   00160F00     DB 0, 22, 15, 0, 0, 11, 21, 11, 2, 0, 2, 34, 15, 50, 0, 0, 6
   \            000B150B
   \            02000222
   \            0F320000
   \            06      
     70            0,
     71            sizeof(ZMacAssociateInd_t),       // MAC_MLME_ASSOCIATE_IND      1   Associate indication
     72            sizeof(ZMacAssociateCnf_t),       // MAC_MLME_ASSOCIATE_CNF      2   Associate confirm
     73            0,                                // MAC_MLME_DISASSOCIATE_IND   3   Disassociate indication
     74            0,                                // MAC_MLME_DISASSOCIATE_CNF   4   Disassociate confirm
     75            sizeof(macMlmeBeaconNotifyInd_t), // MAC_MLME_BEACON_NOTIFY_IND  5   con notify indication
     76            sizeof(ZMacOrphanInd_t),          // MAC_MLME_ORPHAN_IND         6   Orphan indication
     77            sizeof(ZMacScanCnf_t),            // MAC_MLME_SCAN_CNF           7   Scan confirm
     78            sizeof(ZMacStartCnf_t),           // MAC_MLME_START_CNF          8   Start confirm
     79            0,                                // MAC_MLME_SYNC_LOSS_IND      9   Sync loss indication
     80            sizeof(ZMacPollCnf_t),            // MAC_MLME_POLL_CNF           10  Poll confirm
     81            sizeof(ZMacCommStatusInd_t),      // MAC_MLME_COMM_STATUS_IND    11  Comm status indication
     82            sizeof(ZMacDataCnf_t),            // MAC_MCPS_DATA_CNF           12  Data confirm
     83            sizeof(macMcpsDataInd_t),         // MAC_MCPS_DATA_IND           13  Data indication
     84            0,                                // MAC_MCPS_PURGE_CNF          14  Purge confirm
     85            0,                                // MAC_PWR_ON_CNF              15  Power on confirm
     86            sizeof(ZMacPollInd_t)             // MAC_MLME_POLL_IND           16  Poll indication
     87          };
     88          #endif /* !defined NONWK */
     89          
     90          
     91          /*********************************************************************
     92           * ZMAC Function Pointers
     93           */
     94          
     95          /*
     96           * ZMac Application callback function. This function will be called
     97           * for every MAC message that is received over-the-air or generated
     98           * locally by MAC for the application.
     99           *
    100           * The callback function should return TRUE if it has handled the
    101           * MAC message and no further action should be taken with it. It
    102           * should return FALSE if it has not handled the MAC message and
    103           * normal processing should take place.
    104           *
    105           * NOTE: The processing in this function should be kept to the
    106           *       minimum.
    107           */

   \                                 In  segment XDATA_Z, align 1, keep-with-next
    108          uint8 (*pZMac_AppCallback)( uint8 *msgPtr ) = (void*)NULL;
   \                     pZMac_AppCallback:
   \   000000                DS 2
   \   000002                REQUIRE __INIT_XDATA_Z
    109          
    110          
    111          /*********************************************************************
    112           * ZMAC Functions
    113           */
    114          
    115          /**************************************************************************************************
    116           * @fn       MAC_CbackEvent()
    117           *
    118           * @brief    convert MAC data confirm and indication to ZMac and send to NWK
    119           *
    120           * @param    pData - pointer to macCbackEvent_t
    121           *
    122           * @return   none
    123           *************************************************************************************************/

   \                                 In  segment BANKED_CODE, align 1, keep-with-next
    124          void MAC_CbackEvent(macCbackEvent_t *pData)
   \                     MAC_CbackEvent:
    125          #ifndef MT_MAC_CB_FUNC
    126          {
   \   000000   74F0         MOV     A,#-0x10
   \   000002   12....       LCALL   ?BANKED_ENTER_XDATA
   \   000005                ; Saved register size: 16
   \   000005                ; Auto size: 6
   \   000005   74FA         MOV     A,#-0x6
   \   000007   12....       LCALL   ?ALLOC_XSTACK8
   \   00000A   85..82       MOV     DPL,?XSP + 0
   \   00000D   85..83       MOV     DPH,?XSP + 1
   \   000010   EA           MOV     A,R2
   \   000011   F0           MOVX    @DPTR,A
   \   000012   A3           INC     DPTR
   \   000013   EB           MOV     A,R3
   \   000014   F0           MOVX    @DPTR,A
    127          #if !defined NONWK
    128            uint8 event = pData->hdr.event;
   \   000015   85..82       MOV     DPL,?XSP + 0
   \   000018   85..83       MOV     DPH,?XSP + 1
   \   00001B   12....       LCALL   ?Subroutine6 & 0xFFFF
   \                     ??CrossCallReturnLabel_12:
   \   00001E   E0           MOVX    A,@DPTR
   \   00001F   F5..         MOV     ?V0 + 3,A
    129            uint16 tmp = zmacCBSizeTable[event];
   \   000021   24..         ADD     A,#(zmacCBSizeTable & 0xff)
   \   000023   F582         MOV     DPL,A
   \   000025   E4           CLR     A
   \   000026   34..         ADDC    A,#((zmacCBSizeTable >> 8) & 0xff)
   \   000028   F583         MOV     DPH,A
   \   00002A   E4           CLR     A
   \   00002B   93           MOVC    A,@A+DPTR
   \   00002C   FE           MOV     R6,A
   \   00002D   7402         MOV     A,#0x2
   \   00002F   12....       LCALL   ?XSTACK_DISP0_8
   \   000032   EE           MOV     A,R6
   \   000033   F0           MOVX    @DPTR,A
   \   000034   A3           INC     DPTR
   \   000035   E4           CLR     A
   \   000036   F0           MOVX    @DPTR,A
    130            macCbackEvent_t *msgPtr;
    131          
    132            /* If the Network layer will handle a new MAC callback, a non-zero value must be entered in the
    133             * corresponding location in the zmacCBSizeTable[] - thus the table acts as "should handle"?
    134             */
    135            if (tmp == 0)
   \   000037   7402         MOV     A,#0x2
   \   000039   12....       LCALL   ?XSTACK_DISP0_8
   \   00003C   E0           MOVX    A,@DPTR
   \   00003D   7001         JNZ     ??MAC_CbackEvent_0
   \   00003F   E4           CLR     A
   \                     ??MAC_CbackEvent_0:
   \   000040   7003         JNZ     $+5
   \   000042   02....       LJMP    ??MAC_CbackEvent_1 & 0xFFFF
    136            {
    137              return;
    138            }
    139          
    140            // MAC_MCPS_DATA_IND is very special - it is the only event where the MAC does not free *pData.
    141            if ( event == MAC_MCPS_DATA_IND )
   \   000045   740D         MOV     A,#0xd
   \   000047   65..         XRL     A,?V0 + 3
   \   000049   704D         JNZ     ??MAC_CbackEvent_2
    142            {
    143              MAC_MlmeGetReq( MAC_SHORT_ADDRESS, &tmp );
   \   00004B                ; Setup parameters for call to function MAC_MlmeGetReq
   \   00004B   AA82         MOV     R2,DPL
   \   00004D   AB83         MOV     R3,DPH
   \   00004F   7953         MOV     R1,#0x53
   \   000051   12....       LCALL   ??MAC_MlmeGetReq?relay
    144              if ((tmp == INVALID_NODE_ADDR) || (tmp == NWK_BROADCAST_SHORTADDR_DEVALL) ||
    145                  (pData->dataInd.msdu.len == 0))
   \   000054   7402         MOV     A,#0x2
   \   000056   12....       LCALL   ?XSTACK_DISP0_8
   \   000059   E0           MOVX    A,@DPTR
   \   00005A   64FE         XRL     A,#0xfe
   \   00005C   7004         JNZ     ??MAC_CbackEvent_3
   \   00005E   A3           INC     DPTR
   \   00005F   E0           MOVX    A,@DPTR
   \   000060   64FF         XRL     A,#0xff
   \                     ??MAC_CbackEvent_3:
   \   000062   6017         JZ      ??MAC_CbackEvent_4
   \   000064   7402         MOV     A,#0x2
   \   000066   12....       LCALL   ?XSTACK_DISP0_8
   \   000069   E0           MOVX    A,@DPTR
   \   00006A   64FF         XRL     A,#0xff
   \   00006C   7004         JNZ     ??MAC_CbackEvent_5
   \   00006E   A3           INC     DPTR
   \   00006F   E0           MOVX    A,@DPTR
   \   000070   64FF         XRL     A,#0xff
   \                     ??MAC_CbackEvent_5:
   \   000072   6007         JZ      ??MAC_CbackEvent_4
   \   000074   12....       LCALL   ?Subroutine2 & 0xFFFF
   \                     ??CrossCallReturnLabel_4:
   \   000077   A3           INC     DPTR
   \   000078   E0           MOVX    A,@DPTR
   \   000079   700D         JNZ     ??MAC_CbackEvent_6
    146              {
    147                mac_msg_deallocate( (uint8 **)&pData );
   \                     ??MAC_CbackEvent_4:
   \   00007B                ; Setup parameters for call to function mac_msg_deallocate
   \   00007B   85..82       MOV     DPL,?XSP + 0
   \   00007E   85..83       MOV     DPH,?XSP + 1
   \   000081   AA82         MOV     R2,DPL
   \   000083   AB83         MOV     R3,DPH
   \   000085   02....       LJMP    ??CrossCallReturnLabel_9 & 0xFFFF
    148                return;
    149              }
    150              msgPtr = pData;
   \                     ??MAC_CbackEvent_6:
   \   000088   85..82       MOV     DPL,?XSP + 0
   \   00008B   85..83       MOV     DPH,?XSP + 1
   \   00008E   E0           MOVX    A,@DPTR
   \   00008F   F5..         MOV     ?V0 + 4,A
   \   000091   A3           INC     DPTR
   \   000092   E0           MOVX    A,@DPTR
   \   000093   F5..         MOV     ?V0 + 5,A
   \   000095   02....       LJMP    ??MAC_CbackEvent_7 & 0xFFFF
    151            }
    152            else
    153            {
    154              if (event == MAC_MLME_BEACON_NOTIFY_IND )
   \                     ??MAC_CbackEvent_2:
   \   000098   7405         MOV     A,#0x5
   \   00009A   65..         XRL     A,?V0 + 3
   \   00009C   7016         JNZ     ??MAC_CbackEvent_8
    155              {
    156                tmp += sizeof(macPanDesc_t) + pData->beaconNotifyInd.sduLength;
   \   00009E   85..82       MOV     DPL,?XSP + 0
   \   0000A1   85..83       MOV     DPH,?XSP + 1
   \   0000A4   E0           MOVX    A,@DPTR
   \   0000A5   F8           MOV     R0,A
   \   0000A6   12....       LCALL   ?Subroutine0 & 0xFFFF
    157              }
   \                     ??CrossCallReturnLabel_0:
   \   0000A9   F8           MOV     R0,A
   \   0000AA   7421         MOV     A,#0x21
   \   0000AC   28           ADD     A,R0
   \   0000AD   F8           MOV     R0,A
   \   0000AE   E4           CLR     A
   \   0000AF   3400         ADDC    A,#0x0
   \   0000B1   F9           MOV     R1,A
   \   0000B2   802A         SJMP    ??MAC_CbackEvent_9
    158              else if (event == MAC_MLME_SCAN_CNF)
   \                     ??MAC_CbackEvent_8:
   \   0000B4   7407         MOV     A,#0x7
   \   0000B6   65..         XRL     A,?V0 + 3
   \   0000B8   7030         JNZ     ??MAC_CbackEvent_10
    159              {
    160                if (pData->scanCnf.scanType == ZMAC_ED_SCAN)
   \   0000BA   12....       LCALL   ?Subroutine3 & 0xFFFF
   \                     ??CrossCallReturnLabel_6:
   \   0000BD   700F         JNZ     ??MAC_CbackEvent_11
    161                {
    162                  tmp += ZMAC_ED_SCAN_MAXCHANNELS;
   \   0000BF   7402         MOV     A,#0x2
   \   0000C1   12....       LCALL   ?XSTACK_DISP0_8
   \   0000C4   E0           MOVX    A,@DPTR
   \   0000C5   241B         ADD     A,#0x1b
   \   0000C7   F0           MOVX    @DPTR,A
   \   0000C8   A3           INC     DPTR
   \   0000C9   E0           MOVX    A,@DPTR
   \   0000CA   3400         ADDC    A,#0x0
   \   0000CC   801B         SJMP    ??MAC_CbackEvent_12
    163                }
    164                else
    165                {
    166                  tmp += sizeof( ZMacPanDesc_t ) * pData->scanCnf.resultListSize;
   \                     ??MAC_CbackEvent_11:
   \   0000CE   85..82       MOV     DPL,?XSP + 0
   \   0000D1   85..83       MOV     DPH,?XSP + 1
   \   0000D4   12....       LCALL   ?Subroutine0 & 0xFFFF
    167                }
    168              }
   \                     ??CrossCallReturnLabel_1:
   \   0000D7   75F021       MOV     B,#0x21
   \   0000DA   A4           MUL     AB
   \   0000DB   F8           MOV     R0,A
   \   0000DC   A9F0         MOV     R1,B
   \                     ??MAC_CbackEvent_9:
   \   0000DE   7402         MOV     A,#0x2
   \   0000E0   12....       LCALL   ?XSTACK_DISP0_8
   \   0000E3   E0           MOVX    A,@DPTR
   \   0000E4   28           ADD     A,R0
   \   0000E5   F0           MOVX    @DPTR,A
   \   0000E6   A3           INC     DPTR
   \   0000E7   E0           MOVX    A,@DPTR
   \   0000E8   39           ADDC    A,R1
   \                     ??MAC_CbackEvent_12:
   \   0000E9   F0           MOVX    @DPTR,A
    169          
    170              if ( !(msgPtr = (macCbackEvent_t *)osal_msg_allocate(tmp)) )
   \                     ??MAC_CbackEvent_10:
   \   0000EA                ; Setup parameters for call to function osal_msg_allocate
   \   0000EA   7402         MOV     A,#0x2
   \   0000EC   12....       LCALL   ?XSTACK_DISP0_8
   \   0000EF   12....       LCALL   ?Subroutine1 & 0xFFFF
   \                     ??CrossCallReturnLabel_2:
   \   0000F2   7001         JNZ     ??MAC_CbackEvent_13
   \   0000F4   EB           MOV     A,R3
   \                     ??MAC_CbackEvent_13:
   \   0000F5   703B         JNZ     ??MAC_CbackEvent_14
    171              {
    172                // Not enough memory. If data confirm - try again
    173                if ( event == MAC_MCPS_DATA_CNF )
   \   0000F7   740C         MOV     A,#0xc
   \   0000F9   65..         XRL     A,?V0 + 3
   \   0000FB   6003         JZ      $+5
   \   0000FD   02....       LJMP    ??MAC_CbackEvent_1 & 0xFFFF
    174                {
    175                  halIntState_t intState;
    176          
    177                  // This is not normally deallocated here because the pZMac_AppCallback()
    178                  // application may need it.
    179                  HAL_ENTER_CRITICAL_SECTION( intState );  // Hold off interrupts.
   \   000100   A2AF         MOV     C,0xa8.7
   \   000102   E4           CLR     A
   \   000103   92E0         MOV     0xE0 /* A   */.0,C
   \   000105   F5..         MOV     ?V0 + 2,A
   \   000107   C2AF         CLR     0xa8.7
    180          
    181                  mac_msg_deallocate( (uint8**)&(pData->dataCnf.pDataReq) );
   \   000109                ; Setup parameters for call to function mac_msg_deallocate
   \   000109   12....       LCALL   ?Subroutine4 & 0xFFFF
   \                     ??CrossCallReturnLabel_8:
   \   00010C   12....       LCALL   ??mac_msg_deallocate?relay
    182                  if ( !(msgPtr = (macCbackEvent_t *)osal_msg_allocate(tmp)) )
   \   00010F                ; Setup parameters for call to function osal_msg_allocate
   \   00010F   7402         MOV     A,#0x2
   \   000111   12....       LCALL   ?XSTACK_DISP0_8
   \   000114   12....       LCALL   ?Subroutine1 & 0xFFFF
   \                     ??CrossCallReturnLabel_3:
   \   000117   7001         JNZ     ??MAC_CbackEvent_15
   \   000119   EB           MOV     A,R3
   \                     ??MAC_CbackEvent_15:
   \   00011A   7009         JNZ     ??MAC_CbackEvent_16
    183                  {
    184                    // Still no allocation, something is wrong
    185                    HAL_EXIT_CRITICAL_SECTION( intState );   // Re-enable interrupts.
   \   00011C   E5..         MOV     A,?V0 + 2
   \   00011E   A2E0         MOV     C,0xE0 /* A   */.0
   \   000120   92AF         MOV     0xa8.7,C
    186                    return;
   \   000122   02....       LJMP    ??MAC_CbackEvent_1 & 0xFFFF
    187                  }
    188                  HAL_EXIT_CRITICAL_SECTION( intState );   // Re-enable interrupts.
   \                     ??MAC_CbackEvent_16:
   \   000125   E5..         MOV     A,?V0 + 2
   \   000127   A2E0         MOV     C,0xE0 /* A   */.0
   \   000129   92AF         MOV     0xa8.7,C
    189                  pData->dataCnf.pDataReq = NULL;
   \   00012B   12....       LCALL   ?Subroutine2 & 0xFFFF
    190                }
    191                else
    192                {
    193                  // This message is dropped
    194                  return;
    195                }
    196              }
   \                     ??CrossCallReturnLabel_5:
   \   00012E   E4           CLR     A
   \   00012F   F0           MOVX    @DPTR,A
   \   000130   A3           INC     DPTR
   \   000131   F0           MOVX    @DPTR,A
    197              osal_memcpy(msgPtr, pData, zmacCBSizeTable[event]);
   \                     ??MAC_CbackEvent_14:
   \   000132                ; Setup parameters for call to function osal_memcpy
   \   000132   85..82       MOV     DPL,?XSP + 0
   \   000135   85..83       MOV     DPH,?XSP + 1
   \   000138   12....       LCALL   ?Subroutine8 & 0xFFFF
    198            }
   \                     ??CrossCallReturnLabel_14:
   \   00013B   75..00       MOV     ?V0 + 2,#0x0
   \   00013E   78..         MOV     R0,#?V0 + 0
   \   000140   12....       LCALL   ?PUSH_XSTACK_I_THREE
   \   000143   EE           MOV     A,R6
   \   000144   FC           MOV     R4,A
   \   000145   7D00         MOV     R5,#0x0
   \   000147   AA..         MOV     R2,?V0 + 4
   \   000149   AB..         MOV     R3,?V0 + 5
   \   00014B   12....       LCALL   ??Subroutine11_0 & 0xFFFF
   \                     ??CrossCallReturnLabel_24:
   \   00014E   12....       LCALL   ?DEALLOC_XSTACK8
   \   000151   E5..         MOV     A,?V0 + 4
   \   000153   2409         ADD     A,#0x9
   \   000155   F5..         MOV     ?V0 + 6,A
   \   000157   E5..         MOV     A,?V0 + 5
   \   000159   3400         ADDC    A,#0x0
   \   00015B   F5..         MOV     ?V0 + 7,A
   \   00015D   E5..         MOV     A,?V0 + 4
   \   00015F   240B         ADD     A,#0xb
   \   000161   FE           MOV     R6,A
   \   000162   E5..         MOV     A,?V0 + 5
   \   000164   3400         ADDC    A,#0x0
   \   000166   FF           MOV     R7,A
   \   000167   7405         MOV     A,#0x5
   \   000169   65..         XRL     A,?V0 + 3
   \   00016B   707F         JNZ     ??MAC_CbackEvent_17
   \   00016D                ; Setup parameters for call to function osal_memcpy
   \   00016D   85..82       MOV     DPL,?V0 + 4
   \   000170   85..83       MOV     DPH,?V0 + 5
   \   000173   A3           INC     DPTR
   \   000174   A3           INC     DPTR
   \   000175   A3           INC     DPTR
   \   000176   12....       LCALL   ?Subroutine5 & 0xFFFF
   \                     ??CrossCallReturnLabel_10:
   \   000179   12....       LCALL   ?PUSH_XSTACK_I_THREE
   \   00017C   7C21         MOV     R4,#0x21
   \   00017E   7D00         MOV     R5,#0x0
   \   000180   EE           MOV     A,R6
   \   000181   FA           MOV     R2,A
   \   000182   EF           MOV     A,R7
   \   000183   12....       LCALL   ?Subroutine7 & 0xFFFF
   \                     ??CrossCallReturnLabel_21:
   \   000186   12....       LCALL   ?DEALLOC_XSTACK8
    199          
    200            if ( event == MAC_MLME_BEACON_NOTIFY_IND )
    201            {
    202              macMlmeBeaconNotifyInd_t *pBeacon = (macMlmeBeaconNotifyInd_t*)msgPtr;
    203          
    204              osal_memcpy(pBeacon+1, pBeacon->pPanDesc, sizeof(macPanDesc_t));
    205              pBeacon->pPanDesc = (macPanDesc_t *)(pBeacon+1);
   \   000189   85..82       MOV     DPL,?V0 + 4
   \   00018C   85..83       MOV     DPH,?V0 + 5
   \   00018F   A3           INC     DPTR
   \   000190   A3           INC     DPTR
   \   000191   A3           INC     DPTR
   \   000192   EE           MOV     A,R6
   \   000193   F0           MOVX    @DPTR,A
   \   000194   A3           INC     DPTR
   \   000195   EF           MOV     A,R7
   \   000196   F0           MOVX    @DPTR,A
    206              osal_memcpy(pBeacon->pPanDesc+1, pBeacon->pSdu, pBeacon->sduLength);
   \   000197                ; Setup parameters for call to function osal_memcpy
   \   000197   85..82       MOV     DPL,?V0 + 6
   \   00019A   85..83       MOV     DPH,?V0 + 7
   \   00019D   12....       LCALL   ?Subroutine5 & 0xFFFF
   \                     ??CrossCallReturnLabel_11:
   \   0001A0   12....       LCALL   ?PUSH_XSTACK_I_THREE
   \   0001A3   85..82       MOV     DPL,?V0 + 4
   \   0001A6   85..83       MOV     DPH,?V0 + 5
   \   0001A9   A3           INC     DPTR
   \   0001AA   A3           INC     DPTR
   \   0001AB   A3           INC     DPTR
   \   0001AC   A3           INC     DPTR
   \   0001AD   A3           INC     DPTR
   \   0001AE   A3           INC     DPTR
   \   0001AF   A3           INC     DPTR
   \   0001B0   A3           INC     DPTR
   \   0001B1   E0           MOVX    A,@DPTR
   \   0001B2   FC           MOV     R4,A
   \   0001B3   7D00         MOV     R5,#0x0
   \   0001B5   85..82       MOV     DPL,?V0 + 4
   \   0001B8   85..83       MOV     DPH,?V0 + 5
   \   0001BB   A3           INC     DPTR
   \   0001BC   A3           INC     DPTR
   \   0001BD   A3           INC     DPTR
   \   0001BE   E0           MOVX    A,@DPTR
   \   0001BF   2421         ADD     A,#0x21
   \   0001C1   FA           MOV     R2,A
   \   0001C2   A3           INC     DPTR
   \   0001C3   E0           MOVX    A,@DPTR
   \   0001C4   3400         ADDC    A,#0x0
   \   0001C6   12....       LCALL   ?Subroutine7 & 0xFFFF
   \                     ??CrossCallReturnLabel_22:
   \   0001C9   12....       LCALL   ?DEALLOC_XSTACK8
    207              pBeacon->pSdu = (uint8 *)(pBeacon->pPanDesc+1);
   \   0001CC   85..82       MOV     DPL,?V0 + 4
   \   0001CF   85..83       MOV     DPH,?V0 + 5
   \   0001D2   A3           INC     DPTR
   \   0001D3   A3           INC     DPTR
   \   0001D4   A3           INC     DPTR
   \   0001D5   E0           MOVX    A,@DPTR
   \   0001D6   2421         ADD     A,#0x21
   \   0001D8   F8           MOV     R0,A
   \   0001D9   A3           INC     DPTR
   \   0001DA   E0           MOVX    A,@DPTR
   \   0001DB   3400         ADDC    A,#0x0
   \   0001DD   F9           MOV     R1,A
   \   0001DE   85..82       MOV     DPL,?V0 + 6
   \   0001E1   85..83       MOV     DPH,?V0 + 7
   \   0001E4   E8           MOV     A,R0
   \   0001E5   F0           MOVX    @DPTR,A
   \   0001E6   A3           INC     DPTR
   \   0001E7   E9           MOV     A,R1
   \   0001E8   F0           MOVX    @DPTR,A
   \   0001E9   02....       LJMP    ??MAC_CbackEvent_7 & 0xFFFF
    208            }
    209            else if (event == MAC_MLME_SCAN_CNF)
   \                     ??MAC_CbackEvent_17:
   \   0001EC   7407         MOV     A,#0x7
   \   0001EE   65..         XRL     A,?V0 + 3
   \   0001F0   6003         JZ      $+5
   \   0001F2   02....       LJMP    ??MAC_CbackEvent_7 & 0xFFFF
    210            {
    211              macMlmeScanCnf_t *pScan = (macMlmeScanCnf_t*)msgPtr;
    212          
    213              if (ZMac_ScanBuf != NULL)
   \   0001F5   90....       MOV     DPTR,#ZMac_ScanBuf
   \   0001F8   E0           MOVX    A,@DPTR
   \   0001F9   7002         JNZ     ??MAC_CbackEvent_18
   \   0001FB   A3           INC     DPTR
   \   0001FC   E0           MOVX    A,@DPTR
   \                     ??MAC_CbackEvent_18:
   \   0001FD   7003         JNZ     $+5
   \   0001FF   02....       LJMP    ??MAC_CbackEvent_7 & 0xFFFF
    214              {
    215                void *pTmp = ZMac_ScanBuf;
   \   000202   90....       MOV     DPTR,#ZMac_ScanBuf
   \   000205   E0           MOVX    A,@DPTR
   \   000206   F8           MOV     R0,A
   \   000207   A3           INC     DPTR
   \   000208   E0           MOVX    A,@DPTR
   \   000209   F9           MOV     R1,A
   \   00020A   7404         MOV     A,#0x4
   \   00020C   12....       LCALL   ?XSTACK_DISP0_8
   \   00020F   E8           MOV     A,R0
   \   000210   F0           MOVX    @DPTR,A
   \   000211   A3           INC     DPTR
   \   000212   E9           MOV     A,R1
   \   000213   F0           MOVX    @DPTR,A
    216                ZMac_ScanBuf = NULL;
   \   000214   90....       MOV     DPTR,#ZMac_ScanBuf
   \   000217   E4           CLR     A
   \   000218   F0           MOVX    @DPTR,A
   \   000219   A3           INC     DPTR
   \   00021A   F0           MOVX    @DPTR,A
    217          
    218                if (pScan->scanType == ZMAC_ED_SCAN)
   \   00021B   7404         MOV     A,#0x4
   \   00021D   12....       LCALL   ?XSTACK_DISP0_8
   \   000220   12....       LCALL   ?Subroutine8 & 0xFFFF
   \                     ??CrossCallReturnLabel_15:
   \   000223   85..82       MOV     DPL,?V0 + 4
   \   000226   85..83       MOV     DPH,?V0 + 5
   \   000229   A3           INC     DPTR
   \   00022A   A3           INC     DPTR
   \   00022B   E0           MOVX    A,@DPTR
   \   00022C   85..82       MOV     DPL,?V0 + 6
   \   00022F   85..83       MOV     DPH,?V0 + 7
   \   000232   701A         JNZ     ??MAC_CbackEvent_19
    219                {
    220                  pScan->result.pEnergyDetect = (uint8*) (pScan + 1);
   \   000234   EE           MOV     A,R6
   \   000235   F0           MOVX    @DPTR,A
   \   000236   A3           INC     DPTR
   \   000237   EF           MOV     A,R7
   \   000238   F0           MOVX    @DPTR,A
    221                  osal_memcpy(pScan->result.pEnergyDetect, pTmp, ZMAC_ED_SCAN_MAXCHANNELS);
   \   000239                ; Setup parameters for call to function osal_memcpy
   \   000239   78..         MOV     R0,#?V0 + 0
   \   00023B   12....       LCALL   ?PUSH_XSTACK_I_THREE
   \   00023E   7C1B         MOV     R4,#0x1b
   \   000240   7D00         MOV     R5,#0x0
   \   000242   85..82       MOV     DPL,?V0 + 6
   \   000245   85..83       MOV     DPH,?V0 + 7
   \   000248   E0           MOVX    A,@DPTR
   \   000249   FA           MOV     R2,A
   \   00024A   A3           INC     DPTR
   \   00024B   E0           MOVX    A,@DPTR
   \   00024C   8023         SJMP    ??MAC_CbackEvent_20
    222                }
    223                else
    224                {
    225                  pScan->result.pPanDescriptor = (macPanDesc_t*) (pScan + 1);
   \                     ??MAC_CbackEvent_19:
   \   00024E   EE           MOV     A,R6
   \   00024F   F0           MOVX    @DPTR,A
   \   000250   A3           INC     DPTR
   \   000251   EF           MOV     A,R7
   \   000252   F0           MOVX    @DPTR,A
    226                  osal_memcpy(pScan + 1, pTmp, sizeof( ZMacPanDesc_t ) * pScan->resultListSize);
   \   000253                ; Setup parameters for call to function osal_memcpy
   \   000253   78..         MOV     R0,#?V0 + 0
   \   000255   12....       LCALL   ?PUSH_XSTACK_I_THREE
   \   000258   85..82       MOV     DPL,?V0 + 4
   \   00025B   85..83       MOV     DPH,?V0 + 5
   \   00025E   A3           INC     DPTR
   \   00025F   A3           INC     DPTR
   \   000260   A3           INC     DPTR
   \   000261   A3           INC     DPTR
   \   000262   A3           INC     DPTR
   \   000263   A3           INC     DPTR
   \   000264   A3           INC     DPTR
   \   000265   A3           INC     DPTR
   \   000266   E0           MOVX    A,@DPTR
   \   000267   75F021       MOV     B,#0x21
   \   00026A   A4           MUL     AB
   \   00026B   FC           MOV     R4,A
   \   00026C   ADF0         MOV     R5,B
   \   00026E   EE           MOV     A,R6
   \   00026F   FA           MOV     R2,A
   \   000270   EF           MOV     A,R7
    227                }
   \                     ??MAC_CbackEvent_20:
   \   000271   12....       LCALL   ?Subroutine7 & 0xFFFF
   \                     ??CrossCallReturnLabel_23:
   \   000274   12....       LCALL   ?DEALLOC_XSTACK8
    228          
    229                osal_mem_free(pTmp);
   \   000277                ; Setup parameters for call to function osal_mem_free
   \   000277   7404         MOV     A,#0x4
   \   000279   12....       LCALL   ?XSTACK_DISP0_8
   \   00027C   E0           MOVX    A,@DPTR
   \   00027D   FA           MOV     R2,A
   \   00027E   A3           INC     DPTR
   \   00027F   E0           MOVX    A,@DPTR
   \   000280   FB           MOV     R3,A
   \   000281   12....       LCALL   ??osal_mem_free?relay
    230              }
    231            }
    232          
    233            if ( ( pZMac_AppCallback == NULL ) || ( pZMac_AppCallback( (uint8 *)msgPtr ) == FALSE ) )
   \                     ??MAC_CbackEvent_7:
   \   000284   90....       MOV     DPTR,#pZMac_AppCallback
   \   000287   E0           MOVX    A,@DPTR
   \   000288   7002         JNZ     ??MAC_CbackEvent_21
   \   00028A   A3           INC     DPTR
   \   00028B   E0           MOVX    A,@DPTR
   \                     ??MAC_CbackEvent_21:
   \   00028C   6010         JZ      ??MAC_CbackEvent_22
   \   00028E                ; Setup parameters for indirect call
   \   00028E   AA..         MOV     R2,?V0 + 4
   \   000290   AB..         MOV     R3,?V0 + 5
   \   000292   90....       MOV     DPTR,#pZMac_AppCallback
   \   000295   12....       LCALL   ?Subroutine6 & 0xFFFF
   \                     ??CrossCallReturnLabel_13:
   \   000298   12....       LCALL   ?CALL_IND
   \   00029B   E9           MOV     A,R1
   \   00029C   7064         JNZ     ??MAC_CbackEvent_23
    234            {
    235              // Filter out non-zigbee packets
    236              if ( event == MAC_MCPS_DATA_IND )
   \                     ??MAC_CbackEvent_22:
   \   00029E   740D         MOV     A,#0xd
   \   0002A0   65..         XRL     A,?V0 + 3
   \   0002A2   7052         JNZ     ??MAC_CbackEvent_24
    237              {
    238                uint8 fcFrameType = (pData->dataInd.msdu.p[0] & 0x03);
    239                uint8 fcProtoVer = ((pData->dataInd.msdu.p[0] >> 2) & 0x0F);
    240                uint8 fcReserve = (pData->dataInd.msdu.p[1] & 0xE0);
   \   0002A4   12....       LCALL   ?Subroutine3 & 0xFFFF
   \                     ??CrossCallReturnLabel_7:
   \   0002A7   F8           MOV     R0,A
   \   0002A8   A3           INC     DPTR
   \   0002A9   E0           MOVX    A,@DPTR
   \   0002AA   F9           MOV     R1,A
   \   0002AB   8882         MOV     DPL,R0
   \   0002AD   8983         MOV     DPH,R1
   \   0002AF   A3           INC     DPTR
   \   0002B0   E0           MOVX    A,@DPTR
   \   0002B1   54E0         ANL     A,#0xe0
   \   0002B3   FB           MOV     R3,A
    241                if ( (fcFrameType > 0x01) || (fcProtoVer != _NIB.nwkProtocolVersion) || (fcReserve != 0) 
    242                    || (pData->dataInd.mac.srcAddr.addrMode != SADDR_MODE_SHORT) )
   \   0002B4   8882         MOV     DPL,R0
   \   0002B6   8983         MOV     DPH,R1
   \   0002B8   E0           MOVX    A,@DPTR
   \   0002B9   5403         ANL     A,#0x3
   \   0002BB   C3           CLR     C
   \   0002BC   9402         SUBB    A,#0x2
   \   0002BE   4003         JC      $+5
   \   0002C0   02....       LJMP    ??MAC_CbackEvent_4 & 0xFFFF
   \   0002C3   E0           MOVX    A,@DPTR
   \   0002C4   13           RRC     A
   \   0002C5   13           RRC     A
   \   0002C6   543F         ANL     A,#0x3f
   \   0002C8   540F         ANL     A,#0xf
   \   0002CA   FA           MOV     R2,A
   \   0002CB   90....       MOV     DPTR,#(_NIB + 17)
   \   0002CE   E0           MOVX    A,@DPTR
   \   0002CF   6A           XRL     A,R2
   \   0002D0   6003         JZ      $+5
   \   0002D2   02....       LJMP    ??MAC_CbackEvent_4 & 0xFFFF
   \   0002D5   EB           MOV     A,R3
   \   0002D6   6003         JZ      $+5
   \   0002D8   02....       LJMP    ??MAC_CbackEvent_4 & 0xFFFF
   \   0002DB   85..82       MOV     DPL,?XSP + 0
   \   0002DE   85..83       MOV     DPH,?XSP + 1
   \   0002E1   E0           MOVX    A,@DPTR
   \   0002E2   241A         ADD     A,#0x1a
   \   0002E4   F8           MOV     R0,A
   \   0002E5   A3           INC     DPTR
   \   0002E6   E0           MOVX    A,@DPTR
   \   0002E7   3400         ADDC    A,#0x0
   \   0002E9   F9           MOV     R1,A
   \   0002EA   8882         MOV     DPL,R0
   \   0002EC   8983         MOV     DPH,R1
   \   0002EE   E0           MOVX    A,@DPTR
   \   0002EF   6402         XRL     A,#0x2
   \   0002F1   6003         JZ      $+5
   \   0002F3   02....       LJMP    ??MAC_CbackEvent_4 & 0xFFFF
    243                {
    244                  // Drop the message 
    245                  mac_msg_deallocate( (uint8 **)&pData );
    246                  return;
    247                }
    248              }
    249              
    250              // Application hasn't already processed this message. Send it to NWK task.
    251              osal_msg_send( NWK_TaskID, (uint8 *)msgPtr );
   \                     ??MAC_CbackEvent_24:
   \   0002F6                ; Setup parameters for call to function osal_msg_send
   \   0002F6   AA..         MOV     R2,?V0 + 4
   \   0002F8   AB..         MOV     R3,?V0 + 5
   \   0002FA   90....       MOV     DPTR,#NWK_TaskID
   \   0002FD   E0           MOVX    A,@DPTR
   \   0002FE   F9           MOV     R1,A
   \   0002FF   12....       LCALL   ??osal_msg_send?relay
    252            }
    253          
    254            if ( event == MAC_MCPS_DATA_CNF )
   \                     ??MAC_CbackEvent_23:
   \   000302   740C         MOV     A,#0xc
   \   000304   65..         XRL     A,?V0 + 3
   \   000306   7006         JNZ     ??MAC_CbackEvent_1
    255            {
    256              // If the application needs 'pDataReq' then we cannot free it here.
    257              // The application must free it after using it. Note that 'pDataReq'
    258              // is of macMcpsDataReq_t (and not ZMacDataReq_t) type.
    259          
    260              mac_msg_deallocate( (uint8**)&(pData->dataCnf.pDataReq) );
   \   000308                ; Setup parameters for call to function mac_msg_deallocate
   \   000308   12....       LCALL   ?Subroutine4 & 0xFFFF
    261            }
   \                     ??CrossCallReturnLabel_9:
   \   00030B   12....       LCALL   ??mac_msg_deallocate?relay
   \                     ??MAC_CbackEvent_1:
   \   00030E   7406         MOV     A,#0x6
   \   000310   12....       LCALL   ?DEALLOC_XSTACK8
   \   000313   7F08         MOV     R7,#0x8
   \   000315   02....       LJMP    ?BANKED_LEAVE_XDATA
   \   000318                REQUIRE _A_IEN0
    262          #endif
    263          }

   \                                 In  segment BANKED_CODE, align 1, keep-with-next
   \                     ?Subroutine7:
   \   000000   FB           MOV     R3,A
   \   000001                REQUIRE ??Subroutine11_0
   \   000001                ; // Fall through to label ??Subroutine11_0

   \                                 In  segment BANKED_CODE, align 1, keep-with-next
   \                     ??Subroutine11_0:
   \   000000   12....       LCALL   ??osal_memcpy?relay
   \   000003   7403         MOV     A,#0x3
   \   000005   22           RET

   \                                 In  segment BANKED_CODE, align 1, keep-with-next
   \                     ?Subroutine6:
   \   000000   12....       LCALL   ?Subroutine10 & 0xFFFF
   \                     ??CrossCallReturnLabel_19:
   \   000003   22           RET

   \                                 In  segment BANKED_CODE, align 1, keep-with-next
   \                     ?Subroutine10:
   \   000000   E0           MOVX    A,@DPTR
   \   000001   F8           MOV     R0,A
   \   000002   A3           INC     DPTR
   \   000003   E0           MOVX    A,@DPTR
   \   000004   F583         MOV     DPH,A
   \   000006   8882         MOV     DPL,R0
   \   000008   22           RET

   \                                 In  segment BANKED_CODE, align 1, keep-with-next
   \                     ?Subroutine5:
   \   000000   12....       LCALL   ?Subroutine8 & 0xFFFF
   \                     ??CrossCallReturnLabel_16:
   \   000003   78..         MOV     R0,#?V0 + 0
   \   000005   22           RET

   \                                 In  segment BANKED_CODE, align 1, keep-with-next
   \                     ?Subroutine8:
   \   000000   E0           MOVX    A,@DPTR
   \   000001   F5..         MOV     ?V0 + 0,A
   \   000003   A3           INC     DPTR
   \   000004   E0           MOVX    A,@DPTR
   \   000005   F5..         MOV     ?V0 + 1,A
   \   000007   22           RET

   \                                 In  segment BANKED_CODE, align 1, keep-with-next
   \                     ?Subroutine4:
   \   000000   85..82       MOV     DPL,?XSP + 0
   \   000003   85..83       MOV     DPH,?XSP + 1
   \   000006   E0           MOVX    A,@DPTR
   \   000007   2403         ADD     A,#0x3
   \   000009   FA           MOV     R2,A
   \   00000A   A3           INC     DPTR
   \   00000B   E0           MOVX    A,@DPTR
   \   00000C   3400         ADDC    A,#0x0
   \   00000E   FB           MOV     R3,A
   \   00000F   22           RET

   \                                 In  segment BANKED_CODE, align 1, keep-with-next
   \                     ?Subroutine3:
   \   000000   12....       LCALL   ?Subroutine9 & 0xFFFF
   \                     ??CrossCallReturnLabel_18:
   \   000003   E0           MOVX    A,@DPTR
   \   000004   22           RET

   \                                 In  segment BANKED_CODE, align 1, keep-with-next
   \                     ?Subroutine2:
   \   000000   12....       LCALL   ?Subroutine9 & 0xFFFF
   \                     ??CrossCallReturnLabel_17:
   \   000003   A3           INC     DPTR
   \   000004   22           RET

   \                                 In  segment BANKED_CODE, align 1, keep-with-next
   \                     ?Subroutine9:
   \   000000   85..82       MOV     DPL,?XSP + 0
   \   000003   85..83       MOV     DPH,?XSP + 1
   \   000006   12....       LCALL   ?Subroutine10 & 0xFFFF
   \                     ??CrossCallReturnLabel_20:
   \   000009   A3           INC     DPTR
   \   00000A   A3           INC     DPTR
   \   00000B   22           RET

   \                                 In  segment BANKED_CODE, align 1, keep-with-next
   \                     ?Subroutine1:
   \   000000   E0           MOVX    A,@DPTR
   \   000001   FA           MOV     R2,A
   \   000002   A3           INC     DPTR
   \   000003   E0           MOVX    A,@DPTR
   \   000004   FB           MOV     R3,A
   \   000005   12....       LCALL   ??osal_msg_allocate?relay
   \   000008   8A..         MOV     ?V0 + 4,R2
   \   00000A   8B..         MOV     ?V0 + 5,R3
   \   00000C   EA           MOV     A,R2
   \   00000D   22           RET

   \                                 In  segment BANKED_CODE, align 1, keep-with-next
   \                     ?Subroutine0:
   \   000000   A3           INC     DPTR
   \   000001   E0           MOVX    A,@DPTR
   \   000002   F583         MOV     DPH,A
   \   000004   8882         MOV     DPL,R0
   \   000006   A3           INC     DPTR
   \   000007   A3           INC     DPTR
   \   000008   A3           INC     DPTR
   \   000009   A3           INC     DPTR
   \   00000A   A3           INC     DPTR
   \   00000B   A3           INC     DPTR
   \   00000C   A3           INC     DPTR
   \   00000D   A3           INC     DPTR
   \   00000E   E0           MOVX    A,@DPTR
   \   00000F   22           RET
    264          #else  // ifdef MT_MAC_CB_FUNC
    265          {
    266            /* Check if MT has subscribed for this callback If so, pass it as an event to MonitorTest */
    267            switch (pData->hdr.event)
    268            {
    269              case MAC_MLME_ASSOCIATE_IND:
    270                if ( _macCallbackSub & CB_ID_NWK_ASSOCIATE_IND )
    271                  nwk_MTCallbackSubNwkAssociateInd ( (ZMacAssociateInd_t *)pData );
    272                break;
    273          
    274              case MAC_MLME_ASSOCIATE_CNF:
    275                if ( _macCallbackSub & CB_ID_NWK_ASSOCIATE_CNF )
    276                  nwk_MTCallbackSubNwkAssociateCnf ( (ZMacAssociateCnf_t *)pData );
    277                break;
    278          
    279              case MAC_MLME_DISASSOCIATE_IND:
    280                if ( _macCallbackSub & CB_ID_NWK_DISASSOCIATE_IND )
    281                  nwk_MTCallbackSubNwkDisassociateInd ( (ZMacDisassociateInd_t *)pData );
    282                break;
    283          
    284              case MAC_MLME_DISASSOCIATE_CNF:
    285                if ( _macCallbackSub & CB_ID_NWK_DISASSOCIATE_CNF )
    286                  nwk_MTCallbackSubNwkDisassociateCnf ( (ZMacDisassociateCnf_t *)pData );
    287                break;
    288          
    289              case MAC_MLME_BEACON_NOTIFY_IND:
    290                if ( _macCallbackSub & CB_ID_NWK_BEACON_NOTIFY_IND )
    291                  nwk_MTCallbackSubNwkBeaconNotifyInd( (ZMacBeaconNotifyInd_t *)pData );
    292                break;
    293          
    294              case MAC_MLME_ORPHAN_IND:
    295                if ( _macCallbackSub & CB_ID_NWK_ORPHAN_IND )
    296                  nwk_MTCallbackSubNwkOrphanInd( (ZMacOrphanInd_t *) pData );
    297                break;
    298          
    299              case MAC_MLME_SCAN_CNF:
    300                if ( _macCallbackSub & CB_ID_NWK_SCAN_CNF )
    301                {
    302                  pData->scanCnf.result.pEnergyDetect = ZMac_ScanBuf;
    303                  nwk_MTCallbackSubNwkScanCnf ( (ZMacScanCnf_t *) pData );
    304                }
    305          
    306                if (ZMac_ScanBuf != NULL)
    307                {
    308                  void *pTmp = ZMac_ScanBuf;
    309                  ZMac_ScanBuf = NULL;
    310                  osal_mem_free(pTmp);
    311                }
    312                break;
    313          
    314              case MAC_MLME_START_CNF:
    315                if ( _macCallbackSub & CB_ID_NWK_START_CNF )
    316                  nwk_MTCallbackSubNwkStartCnf ( pData->hdr.status );
    317                break;
    318          
    319              case MAC_MLME_SYNC_LOSS_IND:
    320                if ( _macCallbackSub & CB_ID_NWK_SYNC_LOSS_IND )
    321                 nwk_MTCallbackSubNwkSyncLossInd( (ZMacSyncLossInd_t *) pData );
    322                break;
    323          
    324              case MAC_MLME_POLL_CNF:
    325                if ( _macCallbackSub & CB_ID_NWK_POLL_CNF )
    326                   nwk_MTCallbackSubNwkPollCnf( pData->hdr.status );
    327                break;
    328          
    329              case MAC_MLME_COMM_STATUS_IND:
    330                if ( _macCallbackSub & CB_ID_NWK_COMM_STATUS_IND )
    331                  nwk_MTCallbackSubCommStatusInd ( (ZMacCommStatusInd_t *) pData );
    332                break;
    333          
    334              case MAC_MCPS_DATA_CNF:
    335                mac_msg_deallocate((uint8**)&pData->dataCnf.pDataReq);
    336          
    337                if ( _macCallbackSub & CB_ID_NWK_DATA_CNF )
    338                  nwk_MTCallbackSubNwkDataCnf( (ZMacDataCnf_t *) pData );
    339                break;
    340          
    341              case MAC_MCPS_DATA_IND:
    342                  {
    343                    /*
    344                       Data Ind is unconventional: to save an alloc/copy, reuse the MAC
    345                       buffer and re-organize the contents into ZMAC format.
    346                    */
    347                    ZMacDataInd_t *pDataInd = (ZMacDataInd_t *) pData;
    348                    uint8 event, status, len, *msdu;
    349          
    350                    /* Store parameters */
    351                    event = pData->hdr.event;
    352                    status = pData->hdr.status;
    353                    len = pData->dataInd.msdu.len;
    354                    msdu = pData->dataInd.msdu.p;
    355          
    356                    /* Copy header */
    357                    osal_memcpy(&pDataInd->SrcAddr, &pData->dataInd.mac, sizeof(ZMacDataInd_t) - sizeof(ZMacEventHdr_t));
    358          
    359                    /* Security - set to zero for now*/
    360                    pDataInd->Sec.SecurityLevel = false;
    361          
    362                    /* Restore parameters */
    363                    pDataInd->hdr.Status = status;
    364                    pDataInd->hdr.Event = event;
    365                    pDataInd->msduLength = len;
    366          
    367                    if (len)
    368                      pDataInd->msdu = msdu;
    369                    else
    370                      pDataInd->msdu = NULL;
    371          
    372                    if ( _macCallbackSub & CB_ID_NWK_DATA_IND )
    373                      nwk_MTCallbackSubNwkDataInd ( pDataInd );
    374          
    375                    /* free buffer */
    376                    mac_msg_deallocate( (uint8 **)&pData );
    377                  }
    378                  break;
    379          
    380              case MAC_MCPS_PURGE_CNF:
    381                if ( _macCallbackSub & CB_ID_NWK_PURGE_CNF )
    382                  nwk_MTCallbackSubNwkPurgeCnf( (ZMacPurgeCnf_t *) pData);
    383                break;
    384          
    385              default:
    386                break;
    387            }
    388          }
    389          #endif
    390          
    391          /********************************************************************************************************
    392           * @fn      MAC_CbackCheckPending
    393           *
    394           * @brief   Return number of pending indirect msg
    395           *
    396           * @param   None
    397           *
    398           * @return  Number of indirect msg holding
    399           ********************************************************************************************************/

   \                                 In  segment BANKED_CODE, align 1, keep-with-next
    400          uint8 MAC_CbackCheckPending(void)
   \                     MAC_CbackCheckPending:
    401          {
   \   000000                ; Saved register size: 0
   \   000000                ; Auto size: 0
    402          #if !defined (NONWK)
    403            if ( ZSTACK_ROUTER_BUILD )
    404            {
    405              return (nwkDB_ReturnIndirectHoldingCnt());
    406            }
    407            else
    408            {
    409              return (0);
   \   000000   7900         MOV     R1,#0x0
   \   000002   02....       LJMP    ?BRET
    410            }
    411          #else
    412            return (0);
    413          #endif
    414          }

   \                                 In  segment BANK_RELAYS, align 1
   \                     ??MAC_CbackEvent?relay:
   \   000000   12....       LCALL   ?BDISPATCH
   \   000003   ......       DC24    MAC_CbackEvent

   \                                 In  segment BANK_RELAYS, align 1
   \                     ??MAC_CbackCheckPending?relay:
   \   000000   12....       LCALL   ?BDISPATCH
   \   000003   ......       DC24    MAC_CbackCheckPending

   Maximum stack usage in bytes:

     Function                ISTACK PSTACK XSTACK
     --------                ------ ------ ------
     MAC_CbackCheckPending       0      0      0
     MAC_CbackEvent              0      0     25
       -> MAC_MlmeGetReq         0      0     44
       -> mac_msg_deallocate     0      0     44
       -> osal_msg_allocate      0      0     44
       -> mac_msg_deallocate     0      0     44
       -> osal_msg_allocate      0      0     44
       -> osal_memcpy            0      0     50
       -> osal_memcpy            0      0     50
       -> osal_memcpy            0      0     50
       -> osal_memcpy            0      0     50
       -> osal_memcpy            0      0     50
       -> osal_mem_free          0      0     44
       -> osal_msg_send          0      0     44
       -> mac_msg_deallocate     0      0     44


   Segment part sizes:

     Function/Label                Bytes
     --------------                -----
     _A_IEN0                          1
     zmacCBSizeTable                 17
     pZMac_AppCallback                2
     MAC_CbackEvent                 792
     ?Subroutine7                     1
     ??Subroutine11_0                 6
     ?Subroutine6                     4
     ?Subroutine10                    9
     ?Subroutine5                     6
     ?Subroutine8                     8
     ?Subroutine4                    16
     ?Subroutine3                     5
     ?Subroutine2                     5
     ?Subroutine9                    12
     ?Subroutine1                    14
     ?Subroutine0                    16
     MAC_CbackCheckPending            5
     ??MAC_CbackEvent?relay           6
     ??MAC_CbackCheckPending?relay    6

 
 899 bytes in segment BANKED_CODE
  12 bytes in segment BANK_RELAYS
  17 bytes in segment CODE_C
   1 byte  in segment SFR_AN
   2 bytes in segment XDATA_Z
 
 928 bytes of CODE  memory
   0 bytes of DATA  memory (+ 1 byte shared)
   2 bytes of XDATA memory

Errors: none
Warnings: none
