///////////////////////////////////////////////////////////////////////////////
//                                                                            /
// IAR C/C++ Compiler V8.10.1.40194/W32 for 8051        25/Dec/2013  17:58:39 /
// Copyright 2004-2011 IAR Systems AB.                                        /
//                                                                            /
//    Core               =  plain                                             /
//    Code model         =  banked                                            /
//    Data model         =  large                                             /
//    Calling convention =  xdata reentrant                                   /
//    Constant location  =  data_rom                                          /
//    Dptr setup         =  1,16                                              /
//    Source file        =  E:\wise-house\Components\mt\MT_AF.c               /
//    Command line       =  -f E:\wise-house\Projects\zstack\Samples\WSN_sens /
//                          ors\CC2530DB\..\..\..\Tools\CC2530DB\f8wCoord.cfg /
//                           (-DCPU32MHZ -DROOT=__near_func                   /
//                          -DMAC_CFG_APP_PENDING_QUEUE=TRUE                  /
//                          -DMAC_CFG_TX_DATA_MAX=5 -DMAC_CFG_TX_MAX=8        /
//                          -DMAC_CFG_RX_MAX=5 -DZDO_COORDINATOR -DRTR_NWK)   /
//                          -f E:\wise-house\Projects\zstack\Samples\WSN_sens /
//                          ors\CC2530DB\..\..\..\Tools\CC2530DB\f8wConfig.cf /
//                          g (-DZIGBEEPRO -DSECURE=0 -DZG_SECURE_DYNAMIC=0   /
//                          -DREFLECTOR -DDEFAULT_CHANLIST=0x00000800         /
//                          -DZDAPP_CONFIG_PAN_ID=0xFFFF                      /
//                          -DNWK_START_DELAY=100 -DEXTENDED_JOINING_RANDOM_M /
//                          ASK=0x007F -DBEACON_REQUEST_DELAY=100             /
//                          -DBEACON_REQ_DELAY_MASK=0x00FF                    /
//                          -DLINK_STATUS_JITTER_MASK=0x007F                  /
//                          -DROUTE_EXPIRY_TIME=30 -DAPSC_ACK_WAIT_DURATION_P /
//                          OLLED=3000 -DNWK_INDIRECT_MSG_TIMEOUT=7           /
//                          -DMAX_RREQ_ENTRIES=8 -DAPSC_MAX_FRAME_RETRIES=3   /
//                          -DNWK_MAX_DATA_RETRIES=2                          /
//                          -DMAX_POLL_FAILURE_RETRIES=2 -DMAX_BCAST=9        /
//                          -DAPS_MAX_GROUPS=16 -DMAX_RTG_ENTRIES=40          /
//                          -DNWK_MAX_BINDING_ENTRIES=4                       /
//                          -DMAX_BINDING_CLUSTER_IDS=4                       /
//                          "-DDEFAULT_KEY={0x01, 0x03, 0x05, 0x07, 0x09,     /
//                          0x0B, 0x0D, 0x0F, 0x00, 0x02, 0x04, 0x06, 0x08,   /
//                          0x0A, 0x0C, 0x0D}" -DMAC_MAX_FRAME_SIZE=116       /
//                          -DZDNWKMGR_MIN_TRANSMISSIONS=20 "-DCONST=const    /
//                          __code" -DGENERIC=__generic                       /
//                          -DRFD_RCVC_ALWAYS_ON=FALSE -DPOLL_RATE=1000       /
//                          -DQUEUED_POLL_RATE=100 -DRESPONSE_POLL_RATE=100)  /
//                          -DREJOIN_POLL_RATE=440 E:\wise-house\Components\m /
//                          t\MT_AF.c -D ZIGBEEPRO -D ZTOOL_P1 -D MT_TASK -D  /
//                          MT_SYS_FUNC -D MT_ZDO_FUNC -D                     /
//                          LCD_SUPPORTED=DEBUG -lC                           /
//                          E:\wise-house\Projects\zstack\Samples\WSN_sensors /
//                          \CC2530DB\CoordinatorEB-Pro\List\ -lA             /
//                          E:\wise-house\Projects\zstack\Samples\WSN_sensors /
//                          \CC2530DB\CoordinatorEB-Pro\List\                 /
//                          --diag_suppress Pe001,Pa010 -o                    /
//                          E:\wise-house\Projects\zstack\Samples\WSN_sensors /
//                          \CC2530DB\CoordinatorEB-Pro\Obj\ -e --debug       /
//                          --core=plain --dptr=16,1 --data_model=large       /
//                          --code_model=banked --calling_convention=xdata_re /
//                          entrant --place_constants=data_rom                /
//                          --nr_virtual_regs 8 -I E:\wise-house\Projects\zst /
//                          ack\Samples\WSN_sensors\CC2530DB\ -I              /
//                          E:\wise-house\Projects\zstack\Samples\WSN_sensors /
//                          \CC2530DB\..\SOURCE\ -I                           /
//                          E:\wise-house\Projects\zstack\Samples\WSN_sensors /
//                          \CC2530DB\..\..\..\ZMAIN\TI2530DB\ -I             /
//                          E:\wise-house\Projects\zstack\Samples\WSN_sensors /
//                          \CC2530DB\..\..\..\..\..\COMPONENTS\MT\ -I        /
//                          E:\wise-house\Projects\zstack\Samples\WSN_sensors /
//                          \CC2530DB\..\..\..\..\..\COMPONENTS\HAL\INCLUDE\  /
//                          -I E:\wise-house\Projects\zstack\Samples\WSN_sens /
//                          ors\CC2530DB\..\..\..\..\..\COMPONENTS\HAL\TARGET /
//                          \CC2530EB\ -I E:\wise-house\Projects\zstack\Sampl /
//                          es\WSN_sensors\CC2530DB\..\..\..\..\..\COMPONENTS /
//                          \OSAL\MCU\CCSOC\ -I E:\wise-house\Projects\zstack /
//                          \Samples\WSN_sensors\CC2530DB\..\..\..\..\..\COMP /
//                          ONENTS\OSAL\INCLUDE\ -I                           /
//                          E:\wise-house\Projects\zstack\Samples\WSN_sensors /
//                          \CC2530DB\..\..\..\..\..\COMPONENTS\STACK\AF\ -I  /
//                          E:\wise-house\Projects\zstack\Samples\WSN_sensors /
//                          \CC2530DB\..\..\..\..\..\COMPONENTS\STACK\NWK\    /
//                          -I E:\wise-house\Projects\zstack\Samples\WSN_sens /
//                          ors\CC2530DB\..\..\..\..\..\COMPONENTS\STACK\SEC\ /
//                           -I E:\wise-house\Projects\zstack\Samples\WSN_sen /
//                          sors\CC2530DB\..\..\..\..\..\COMPONENTS\STACK\SAP /
//                          I\ -I E:\wise-house\Projects\zstack\Samples\WSN_s /
//                          ensors\CC2530DB\..\..\..\..\..\COMPONENTS\STACK\S /
//                          YS\ -I E:\wise-house\Projects\zstack\Samples\WSN_ /
//                          sensors\CC2530DB\..\..\..\..\..\COMPONENTS\STACK\ /
//                          ZDO\ -I E:\wise-house\Projects\zstack\Samples\WSN /
//                          _sensors\CC2530DB\..\..\..\..\..\COMPONENTS\ZMAC\ /
//                          F8W\ -I E:\wise-house\Projects\zstack\Samples\WSN /
//                          _sensors\CC2530DB\..\..\..\..\..\COMPONENTS\ZMAC\ /
//                           -I E:\wise-house\Projects\zstack\Samples\WSN_sen /
//                          sors\CC2530DB\..\..\..\..\..\COMPONENTS\SERVICES\ /
//                          SADDR\ -I E:\wise-house\Projects\zstack\Samples\W /
//                          SN_sensors\CC2530DB\..\..\..\..\..\COMPONENTS\SER /
//                          VICES\SDATA\ -I E:\wise-house\Projects\zstack\Sam /
//                          ples\WSN_sensors\CC2530DB\..\..\..\..\..\COMPONEN /
//                          TS\MAC\INCLUDE\ -I E:\wise-house\Projects\zstack\ /
//                          Samples\WSN_sensors\CC2530DB\..\..\..\..\..\COMPO /
//                          NENTS\MAC\HIGH_LEVEL\ -I                          /
//                          E:\wise-house\Projects\zstack\Samples\WSN_sensors /
//                          \CC2530DB\..\..\..\..\..\COMPONENTS\MAC\LOW_LEVEL /
//                          \srf04\ -I E:\wise-house\Projects\zstack\Samples\ /
//                          WSN_sensors\CC2530DB\..\..\..\..\..\COMPONENTS\MA /
//                          C\LOW_LEVEL\srf04\SINGLE_CHIP\ -Ohz               /
//                          --require_prototypes                              /
//    List file          =  E:\wise-house\Projects\zstack\Samples\WSN_sensors /
//                          \CC2530DB\CoordinatorEB-Pro\List\MT_AF.s51        /
//                                                                            /
//                                                                            /
///////////////////////////////////////////////////////////////////////////////

        NAME MT_AF

        RTMODEL "__SystemLibrary", "CLib"
        RTMODEL "__calling_convention", "xdata_reentrant"
        RTMODEL "__code_model", "banked"
        RTMODEL "__core", "plain"
        RTMODEL "__data_model", "large"
        RTMODEL "__dptr_size", "16"
        RTMODEL "__extended_stack", "disabled"
        RTMODEL "__location_for_constants", "data"
        RTMODEL "__number_of_dptrs", "1"
        RTMODEL "__rt_version", "1"

        RSEG DOVERLAY:DATA:NOROOT(0)
        RSEG IOVERLAY:IDATA:NOROOT(0)
        RSEG ISTACK:IDATA:NOROOT(0)
        RSEG PSTACK:XDATA:NOROOT(0)
        RSEG XSTACK:XDATA:NOROOT(0)

        EXTERN ?ALLOC_XSTACK8
        EXTERN ?BANKED_ENTER_XDATA
        EXTERN ?BANKED_LEAVE_XDATA
        EXTERN ?BDISPATCH
        EXTERN ?BRET
        EXTERN ?DEALLOC_XSTACK8
        EXTERN ?L_ADD
        EXTERN ?L_EQ_X
        EXTERN ?L_MOV_X
        EXTERN ?L_SHL
        EXTERN ?PUSH_XSTACK8_X_TWO
        EXTERN ?PUSH_XSTACK_I_ONE
        EXTERN ?PUSH_XSTACK_I_THREE
        EXTERN ?PUSH_XSTACK_I_TWO
        EXTERN ?UL_SHR
        EXTERN ?V0
        EXTERN ?XLOAD_R2345
        EXTERN ?XSP
        EXTERN ?XSTACK_DISP0_8
        EXTERN ?XSTORE_R2345
        EXTERN __INIT_XDATA_Z

        PUBLIC ??MT_AfCommandProcessing?relay
        FUNCTION ??MT_AfCommandProcessing?relay,0203H
        PUBLIC ??MT_AfDataConfirm?relay
        FUNCTION ??MT_AfDataConfirm?relay,0203H
        PUBLIC ??MT_AfDataRequest?relay
        FUNCTION ??MT_AfDataRequest?relay,0203H
        PUBLIC ??MT_AfDataRequestSrcRtg?relay
        FUNCTION ??MT_AfDataRequestSrcRtg?relay,0203H
        FUNCTION ??MT_AfDataRetrieve?relay,0203H
        FUNCTION ??MT_AfDataStore?relay,0203H
        PUBLIC ??MT_AfExec?relay
        FUNCTION ??MT_AfExec?relay,0203H
        PUBLIC ??MT_AfIncomingMsg?relay
        FUNCTION ??MT_AfIncomingMsg?relay,0203H
        PUBLIC ??MT_AfRegister?relay
        FUNCTION ??MT_AfRegister?relay,0203H
        PUBLIC MT_AfCommandProcessing
        FUNCTION MT_AfCommandProcessing,021203H
        ARGFRAME XSTACK, 0, STACK
        LOCFRAME ISTACK, 1, STACK
        LOCFRAME XSTACK, 12, STACK
        PUBLIC MT_AfDataConfirm
        FUNCTION MT_AfDataConfirm,021203H
        ARGFRAME XSTACK, 0, STACK
        LOCFRAME ISTACK, 3, STACK
        LOCFRAME XSTACK, 3, STACK
        PUBLIC MT_AfDataRequest
        FUNCTION MT_AfDataRequest,021203H
        ARGFRAME XSTACK, 12, STACK
        ARGFRAME IOVERLAY, 0, STATIC
        ARGFRAME DOVERLAY, 0, STATIC
        LOCFRAME ISTACK, 1, STACK
        LOCFRAME XSTACK, 44, STACK
        PUBLIC MT_AfDataRequestSrcRtg
        FUNCTION MT_AfDataRequestSrcRtg,021203H
        ARGFRAME XSTACK, 12, STACK
        ARGFRAME IOVERLAY, 0, STATIC
        ARGFRAME DOVERLAY, 0, STATIC
        LOCFRAME ISTACK, 1, STACK
        LOCFRAME XSTACK, 46, STACK
        FUNCTION MT_AfDataRetrieve,021203H
        ARGFRAME XSTACK, 12, STACK
        ARGFRAME IOVERLAY, 0, STATIC
        ARGFRAME DOVERLAY, 0, STATIC
        LOCFRAME ISTACK, 1, STACK
        LOCFRAME XSTACK, 24, STACK
        FUNCTION MT_AfDataStore,021203H
        ARGFRAME XSTACK, 12, STACK
        ARGFRAME IOVERLAY, 0, STATIC
        ARGFRAME DOVERLAY, 0, STATIC
        LOCFRAME ISTACK, 1, STACK
        LOCFRAME XSTACK, 26, STACK
        PUBLIC MT_AfExec
        FUNCTION MT_AfExec,021203H
        ARGFRAME XSTACK, 0, STACK
        LOCFRAME XSTACK, 9, STACK
        PUBLIC MT_AfIncomingMsg
        FUNCTION MT_AfIncomingMsg,021203H
        ARGFRAME XSTACK, 0, STACK
        LOCFRAME ISTACK, 1, STACK
        LOCFRAME XSTACK, 28, STACK
        PUBLIC MT_AfRegister
        FUNCTION MT_AfRegister,021203H
        ARGFRAME XSTACK, 12, STACK
        ARGFRAME IOVERLAY, 0, STATIC
        ARGFRAME DOVERLAY, 0, STATIC
        LOCFRAME ISTACK, 1, STACK
        LOCFRAME XSTACK, 15, STACK
        PUBLIC pMtAfDataReq
        PUBLIC pMtAfInMsgList
        
        CFI Names cfiNames0
        CFI StackFrame CFA_SP SP IDATA
        CFI StackFrame CFA_PSP16 PSP16 XDATA
        CFI StackFrame CFA_XSP16 XSP16 XDATA
        CFI StaticOverlayFrame CFA_IOVERLAY IOVERLAY
        CFI StaticOverlayFrame CFA_DOVERLAY DOVERLAY
        CFI Resource `PSW.CY`:1, `B.BR0`:1, `B.BR1`:1, `B.BR2`:1, `B.BR3`:1
        CFI Resource `B.BR4`:1, `B.BR5`:1, `B.BR6`:1, `B.BR7`:1, `VB.BR8`:1
        CFI Resource `VB.BR9`:1, `VB.BR10`:1, `VB.BR11`:1, `VB.BR12`:1
        CFI Resource `VB.BR13`:1, `VB.BR14`:1, `VB.BR15`:1, VB:8, B:8, A:8
        CFI Resource PSW:8, DPL0:8, DPH0:8, R0:8, R1:8, R2:8, R3:8, R4:8, R5:8
        CFI Resource R6:8, R7:8, V0:8, V1:8, V2:8, V3:8, V4:8, V5:8, V6:8, V7:8
        CFI Resource SP:8, PSPH:8, PSPL:8, PSP16:16, XSPH:8, XSPL:8, XSP16:16
        CFI VirtualResource ?RET:24
        CFI Resource ?BRET_EXT:8
        CFI VirtualResource ?RET_HIGH:8, ?RET_LOW:8
        CFI ResourceParts PSP16 PSPH, PSPL
        CFI ResourceParts XSP16 XSPH, XSPL
        CFI ResourceParts ?RET ?BRET_EXT, ?RET_HIGH, ?RET_LOW
        CFI EndNames cfiNames0
        
        CFI Common cfiCommon0 Using cfiNames0
        CFI CodeAlign 1
        CFI DataAlign -1
        CFI ReturnAddress ?RET CODE
        CFI CFA_DOVERLAY Used
        CFI CFA_IOVERLAY Used
        CFI CFA_SP SP+-3
        CFI CFA_PSP16 PSP16+0
        CFI CFA_XSP16 XSP16+0
        CFI `PSW.CY` SameValue
        CFI `B.BR0` SameValue
        CFI `B.BR1` SameValue
        CFI `B.BR2` SameValue
        CFI `B.BR3` SameValue
        CFI `B.BR4` SameValue
        CFI `B.BR5` SameValue
        CFI `B.BR6` SameValue
        CFI `B.BR7` SameValue
        CFI `VB.BR8` SameValue
        CFI `VB.BR9` SameValue
        CFI `VB.BR10` SameValue
        CFI `VB.BR11` SameValue
        CFI `VB.BR12` SameValue
        CFI `VB.BR13` SameValue
        CFI `VB.BR14` SameValue
        CFI `VB.BR15` SameValue
        CFI VB SameValue
        CFI B Undefined
        CFI A Undefined
        CFI PSW SameValue
        CFI DPL0 SameValue
        CFI DPH0 SameValue
        CFI R0 Undefined
        CFI R1 Undefined
        CFI R2 Undefined
        CFI R3 Undefined
        CFI R4 Undefined
        CFI R5 Undefined
        CFI R6 SameValue
        CFI R7 SameValue
        CFI V0 SameValue
        CFI V1 SameValue
        CFI V2 SameValue
        CFI V3 SameValue
        CFI V4 SameValue
        CFI V5 SameValue
        CFI V6 SameValue
        CFI V7 SameValue
        CFI PSPH Undefined
        CFI PSPL Undefined
        CFI XSPH Undefined
        CFI XSPL Undefined
        CFI ?RET Concat
        CFI ?BRET_EXT Frame(CFA_SP, 3)
        CFI ?RET_HIGH Frame(CFA_SP, 2)
        CFI ?RET_LOW Frame(CFA_SP, 1)
        CFI EndCommon cfiCommon0
        
        
        CFI Common cfiCommon1 Using cfiNames0
        CFI CodeAlign 1
        CFI DataAlign -1
        CFI ReturnAddress ?RET CODE
        CFI CFA_DOVERLAY Used
        CFI CFA_IOVERLAY Used
        CFI CFA_SP SP+-2
        CFI CFA_PSP16 PSP16+0
        CFI CFA_XSP16 XSP16+0
        CFI `PSW.CY` SameValue
        CFI `B.BR0` SameValue
        CFI `B.BR1` SameValue
        CFI `B.BR2` SameValue
        CFI `B.BR3` SameValue
        CFI `B.BR4` SameValue
        CFI `B.BR5` SameValue
        CFI `B.BR6` SameValue
        CFI `B.BR7` SameValue
        CFI `VB.BR8` SameValue
        CFI `VB.BR9` SameValue
        CFI `VB.BR10` SameValue
        CFI `VB.BR11` SameValue
        CFI `VB.BR12` SameValue
        CFI `VB.BR13` SameValue
        CFI `VB.BR14` SameValue
        CFI `VB.BR15` SameValue
        CFI VB SameValue
        CFI B SameValue
        CFI A SameValue
        CFI PSW SameValue
        CFI DPL0 SameValue
        CFI DPH0 SameValue
        CFI R0 SameValue
        CFI R1 SameValue
        CFI R2 SameValue
        CFI R3 SameValue
        CFI R4 SameValue
        CFI R5 SameValue
        CFI R6 SameValue
        CFI R7 SameValue
        CFI V0 SameValue
        CFI V1 SameValue
        CFI V2 SameValue
        CFI V3 SameValue
        CFI V4 SameValue
        CFI V5 SameValue
        CFI V6 SameValue
        CFI V7 SameValue
        CFI PSPH Undefined
        CFI PSPL Undefined
        CFI XSPH Undefined
        CFI XSPL Undefined
        CFI ?RET Concat
        CFI ?BRET_EXT SameValue
        CFI ?RET_HIGH Frame(CFA_SP, 2)
        CFI ?RET_LOW Frame(CFA_SP, 1)
        CFI EndCommon cfiCommon1
        
osal_mem_free       SYMBOL "osal_mem_free"
osal_start_timerEx  SYMBOL "osal_start_timerEx"
osal_set_event      SYMBOL "osal_set_event"
afAPSF_ConfigSet    SYMBOL "afAPSF_ConfigSet"
MT_BuildAndSendZToolResponse SYMBOL "MT_BuildAndSendZToolResponse"
osal_mem_alloc      SYMBOL "osal_mem_alloc"
MT_BuildEndpointDesc SYMBOL "MT_BuildEndpointDesc"
afRegister          SYMBOL "afRegister"
osal_memcpy         SYMBOL "osal_memcpy"
afFindEndPointDesc  SYMBOL "afFindEndPointDesc"
AF_DataRequest      SYMBOL "AF_DataRequest"
osal_memset         SYMBOL "osal_memset"
AF_DataRequestSrcRtg SYMBOL "AF_DataRequestSrcRtg"
??AF_DataRequest?relay SYMBOL "?relay", AF_DataRequest
??AF_DataRequestSrcRtg?relay SYMBOL "?relay", AF_DataRequestSrcRtg
??MT_BuildAndSendZToolResponse?relay SYMBOL "?relay", MT_BuildAndSendZToolResponse
??MT_BuildEndpointDesc?relay SYMBOL "?relay", MT_BuildEndpointDesc
??afAPSF_ConfigSet?relay SYMBOL "?relay", afAPSF_ConfigSet
??afFindEndPointDesc?relay SYMBOL "?relay", afFindEndPointDesc
??afRegister?relay  SYMBOL "?relay", afRegister
??osal_mem_alloc?relay SYMBOL "?relay", osal_mem_alloc
??osal_mem_free?relay SYMBOL "?relay", osal_mem_free
??osal_memcpy?relay SYMBOL "?relay", osal_memcpy
??osal_memset?relay SYMBOL "?relay", osal_memset
??osal_set_event?relay SYMBOL "?relay", osal_set_event
??osal_start_timerEx?relay SYMBOL "?relay", osal_start_timerEx
MT_AfCommandProcessing SYMBOL "MT_AfCommandProcessing"
??MT_AfCommandProcessing?relay SYMBOL "?relay", MT_AfCommandProcessing
MT_AfDataConfirm    SYMBOL "MT_AfDataConfirm"
??MT_AfDataConfirm?relay SYMBOL "?relay", MT_AfDataConfirm
MT_AfDataRequest    SYMBOL "MT_AfDataRequest"
??MT_AfDataRequest?relay SYMBOL "?relay", MT_AfDataRequest
MT_AfDataRequestSrcRtg SYMBOL "MT_AfDataRequestSrcRtg"
??MT_AfDataRequestSrcRtg?relay SYMBOL "?relay", MT_AfDataRequestSrcRtg
MT_AfExec           SYMBOL "MT_AfExec"
??MT_AfExec?relay   SYMBOL "?relay", MT_AfExec
MT_AfIncomingMsg    SYMBOL "MT_AfIncomingMsg"
??MT_AfIncomingMsg?relay SYMBOL "?relay", MT_AfIncomingMsg
MT_AfRegister       SYMBOL "MT_AfRegister"
??MT_AfRegister?relay SYMBOL "?relay", MT_AfRegister

        EXTERN osal_mem_free
        FUNCTION osal_mem_free,0202H
        ARGFRAME ISTACK, 0, STACK
        ARGFRAME PSTACK, 0, STACK
        ARGFRAME XSTACK, 34, STACK
        ARGFRAME IOVERLAY, 0, STATIC
        ARGFRAME DOVERLAY, 0, STATIC
        EXTERN osal_start_timerEx
        FUNCTION osal_start_timerEx,0202H
        ARGFRAME ISTACK, 0, STACK
        ARGFRAME PSTACK, 0, STACK
        ARGFRAME XSTACK, 35, STACK
        ARGFRAME IOVERLAY, 0, STATIC
        ARGFRAME DOVERLAY, 0, STATIC
        EXTERN osal_set_event
        FUNCTION osal_set_event,0202H
        ARGFRAME ISTACK, 0, STACK
        ARGFRAME PSTACK, 0, STACK
        ARGFRAME XSTACK, 35, STACK
        ARGFRAME IOVERLAY, 0, STATIC
        ARGFRAME DOVERLAY, 0, STATIC
        EXTERN afAPSF_ConfigSet
        FUNCTION afAPSF_ConfigSet,0202H
        ARGFRAME ISTACK, 0, STACK
        ARGFRAME PSTACK, 0, STACK
        ARGFRAME XSTACK, 12, STACK
        ARGFRAME IOVERLAY, 0, STATIC
        ARGFRAME DOVERLAY, 0, STATIC
        EXTERN MT_BuildAndSendZToolResponse
        FUNCTION MT_BuildAndSendZToolResponse,0202H
        ARGFRAME ISTACK, 2, STACK
        ARGFRAME PSTACK, 0, STACK
        ARGFRAME XSTACK, 35, STACK
        ARGFRAME IOVERLAY, 0, STATIC
        ARGFRAME DOVERLAY, 0, STATIC
        EXTERN osal_mem_alloc
        FUNCTION osal_mem_alloc,0202H
        ARGFRAME ISTACK, 0, STACK
        ARGFRAME PSTACK, 0, STACK
        ARGFRAME XSTACK, 35, STACK
        ARGFRAME IOVERLAY, 0, STATIC
        ARGFRAME DOVERLAY, 0, STATIC
        EXTERN MT_BuildEndpointDesc
        FUNCTION MT_BuildEndpointDesc,0202H
        ARGFRAME ISTACK, 0, STACK
        ARGFRAME PSTACK, 0, STACK
        ARGFRAME XSTACK, 15, STACK
        ARGFRAME IOVERLAY, 0, STATIC
        ARGFRAME DOVERLAY, 0, STATIC
        EXTERN afRegister
        FUNCTION afRegister,0202H
        ARGFRAME ISTACK, 0, STACK
        ARGFRAME PSTACK, 0, STACK
        ARGFRAME XSTACK, 15, STACK
        ARGFRAME IOVERLAY, 0, STATIC
        ARGFRAME DOVERLAY, 0, STATIC
        EXTERN osal_memcpy
        FUNCTION osal_memcpy,0202H
        ARGFRAME ISTACK, 0, STACK
        ARGFRAME PSTACK, 0, STACK
        ARGFRAME XSTACK, 38, STACK
        ARGFRAME IOVERLAY, 0, STATIC
        ARGFRAME DOVERLAY, 0, STATIC
        EXTERN afFindEndPointDesc
        FUNCTION afFindEndPointDesc,0202H
        ARGFRAME ISTACK, 0, STACK
        ARGFRAME PSTACK, 0, STACK
        ARGFRAME XSTACK, 35, STACK
        ARGFRAME IOVERLAY, 0, STATIC
        ARGFRAME DOVERLAY, 0, STATIC
        EXTERN AF_DataRequest
        FUNCTION AF_DataRequest,0202H
        ARGFRAME ISTACK, 0, STACK
        ARGFRAME PSTACK, 0, STACK
        ARGFRAME XSTACK, 44, STACK
        ARGFRAME IOVERLAY, 0, STATIC
        ARGFRAME DOVERLAY, 0, STATIC
        EXTERN osal_memset
        FUNCTION osal_memset,0202H
        ARGFRAME ISTACK, 0, STACK
        ARGFRAME PSTACK, 0, STACK
        ARGFRAME XSTACK, 34, STACK
        ARGFRAME IOVERLAY, 0, STATIC
        ARGFRAME DOVERLAY, 0, STATIC
        EXTERN AF_DataRequestSrcRtg
        FUNCTION AF_DataRequestSrcRtg,0202H
        ARGFRAME ISTACK, 0, STACK
        ARGFRAME PSTACK, 0, STACK
        ARGFRAME XSTACK, 46, STACK
        ARGFRAME IOVERLAY, 0, STATIC
        ARGFRAME DOVERLAY, 0, STATIC
        EXTERN ??AF_DataRequest?relay
        FUNCTION ??AF_DataRequest?relay,00H
        EXTERN ??AF_DataRequestSrcRtg?relay
        FUNCTION ??AF_DataRequestSrcRtg?relay,00H
        EXTERN ??MT_BuildAndSendZToolResponse?relay
        FUNCTION ??MT_BuildAndSendZToolResponse?relay,00H
        EXTERN ??MT_BuildEndpointDesc?relay
        FUNCTION ??MT_BuildEndpointDesc?relay,00H
        EXTERN ??afAPSF_ConfigSet?relay
        FUNCTION ??afAPSF_ConfigSet?relay,00H
        EXTERN ??afFindEndPointDesc?relay
        FUNCTION ??afFindEndPointDesc?relay,00H
        EXTERN ??afRegister?relay
        FUNCTION ??afRegister?relay,00H
        EXTERN ??osal_mem_alloc?relay
        FUNCTION ??osal_mem_alloc?relay,00H
        EXTERN ??osal_mem_free?relay
        FUNCTION ??osal_mem_free?relay,00H
        EXTERN ??osal_memcpy?relay
        FUNCTION ??osal_memcpy?relay,00H
        EXTERN ??osal_memset?relay
        FUNCTION ??osal_memset?relay,00H
        EXTERN ??osal_set_event?relay
        FUNCTION ??osal_set_event?relay,00H
        EXTERN ??osal_start_timerEx?relay
        FUNCTION ??osal_start_timerEx?relay,00H
        EXTERN MT_TaskID

// E:\wise-house\Components\mt\MT_AF.c
//    1 /**************************************************************************************************
//    2   Filename:       MT_AF.c
//    3   Revised:        $Date: 2011-05-27 16:00:27 -0700 (Fri, 27 May 2011) $
//    4   Revision:       $Revision: 26145 $
//    5 
//    6 
//    7   Description:    MonitorTest functions for the AF layer.
//    8 
//    9 
//   10   Copyright 2007-2011 Texas Instruments Incorporated. All rights reserved.
//   11 
//   12   IMPORTANT: Your use of this Software is limited to those specific rights
//   13   granted under the terms of a software license agreement between the user
//   14   who downloaded the software, his/her employer (which must be your employer)
//   15   and Texas Instruments Incorporated (the "License").  You may not use this
//   16   Software unless you agree to abide by the terms of the License. The License
//   17   limits your use, and you acknowledge, that the Software may not be modified,
//   18   copied or distributed unless embedded on a Texas Instruments microcontroller
//   19   or used solely and exclusively in conjunction with a Texas Instruments radio
//   20   frequency transceiver, which is integrated into your product.  Other than for
//   21   the foregoing purpose, you may not use, reproduce, copy, prepare derivative
//   22   works of, modify, distribute, perform, display or sell this Software and/or
//   23   its documentation for any purpose.
//   24 
//   25   YOU FURTHER ACKNOWLEDGE AND AGREE THAT THE SOFTWARE AND DOCUMENTATION ARE
//   26   PROVIDED “AS IS” WITHOUT WARRANTY OF ANY KIND, EITHER EXPRESS OR IMPLIED,
//   27   INCLUDING WITHOUT LIMITATION, ANY WARRANTY OF MERCHANTABILITY, TITLE,
//   28   NON-INFRINGEMENT AND FITNESS FOR A PARTICULAR PURPOSE. IN NO EVENT SHALL
//   29   TEXAS INSTRUMENTS OR ITS LICENSORS BE LIABLE OR OBLIGATED UNDER CONTRACT,
//   30   NEGLIGENCE, STRICT LIABILITY, CONTRIBUTION, BREACH OF WARRANTY, OR OTHER
//   31   LEGAL EQUITABLE THEORY ANY DIRECT OR INDIRECT DAMAGES OR EXPENSES
//   32   INCLUDING BUT NOT LIMITED TO ANY INCIDENTAL, SPECIAL, INDIRECT, PUNITIVE
//   33   OR CONSEQUENTIAL DAMAGES, LOST PROFITS OR LOST DATA, COST OF PROCUREMENT
//   34   OF SUBSTITUTE GOODS, TECHNOLOGY, SERVICES, OR ANY CLAIMS BY THIRD PARTIES
//   35   (INCLUDING BUT NOT LIMITED TO ANY DEFENSE THEREOF), OR OTHER SIMILAR COSTS.
//   36 
//   37   Should you have any questions regarding your right to use this Software,
//   38   contact Texas Instruments Incorporated at www.TI.com.
//   39 
//   40 **************************************************************************************************/
//   41 
//   42 /* ------------------------------------------------------------------------------------------------
//   43  *                                          Includes
//   44  * ------------------------------------------------------------------------------------------------
//   45  */
//   46 #include "ZComDef.h"
//   47 #include "OSAL.h"
//   48 #include "MT.h"
//   49 #include "MT_AF.h"
//   50 #include "MT_ZDO.h"
//   51 #include "nwk.h"
//   52 #include "OnBoard.h"
//   53 #include "MT_UART.h"
//   54 
//   55 #if defined INTER_PAN
//   56 #include "stub_aps.h"
//   57 #endif
//   58 
//   59 /* ------------------------------------------------------------------------------------------------
//   60  *                                          Constants
//   61  * ------------------------------------------------------------------------------------------------
//   62  */
//   63 
//   64 #if !defined MT_AF_EXEC_CNT
//   65 #define MT_AF_EXEC_CNT  15
//   66 #endif
//   67 
//   68 #if !defined MT_AF_EXEC_DLY
//   69 #define MT_AF_EXEC_DLY  1000
//   70 #endif
//   71 
//   72 /* ------------------------------------------------------------------------------------------------
//   73  *                                           Typedefs
//   74  * ------------------------------------------------------------------------------------------------
//   75  */
//   76 
//   77 typedef struct
//   78 {
//   79   uint8 *data;
//   80   afAddrType_t dstAddr;
//   81   endPointDesc_t *epDesc;
//   82   uint16 cId;
//   83   uint16 dataLen;
//   84   uint8 transId;
//   85   uint8 txOpts;
//   86   uint8 radius;
//   87   uint8 tick;
//   88 } mtAfDataReq_t;
//   89 
//   90 typedef struct _mtAfInMsgList_t
//   91 {
//   92   struct _mtAfInMsgList_t *next;
//   93   uint8 *data;
//   94   uint32 timestamp;         // Receipt timestamp from MAC.
//   95   uint8 tick;
//   96 } mtAfInMsgList_t;
//   97 
//   98 /* ------------------------------------------------------------------------------------------------
//   99  *                                        Local Variables
//  100  * ------------------------------------------------------------------------------------------------
//  101  */
//  102 

        RSEG XDATA_Z:XDATA:NOROOT(0)
        DATA16
//  103 mtAfInMsgList_t *pMtAfInMsgList = NULL;
pMtAfInMsgList:
        DS 2
        REQUIRE __INIT_XDATA_Z

        RSEG XDATA_Z:XDATA:NOROOT(0)
        DATA16
//  104 mtAfDataReq_t *pMtAfDataReq = NULL;
pMtAfDataReq:
        DS 2
        REQUIRE __INIT_XDATA_Z
//  105 
//  106 /* ------------------------------------------------------------------------------------------------
//  107  *                                        Global Variables
//  108  * ------------------------------------------------------------------------------------------------
//  109  */
//  110 
//  111 #if defined ( MT_AF_CB_FUNC )
//  112 uint16 _afCallbackSub;
//  113 #endif
//  114 
//  115 /* ------------------------------------------------------------------------------------------------
//  116  *                                        Local Functions
//  117  * ------------------------------------------------------------------------------------------------
//  118  */
//  119 
//  120 void MT_AfRegister(uint8 *pBuf);
//  121 void MT_AfDataRequest(uint8 *pBuf);
//  122 
//  123 #if defined ( ZIGBEE_SOURCE_ROUTING )
//  124 void MT_AfDataRequestSrcRtg(uint8 *pBuf);
//  125 #endif
//  126 
//  127 #if defined INTER_PAN
//  128 static void MT_AfInterPanCtl(uint8 *pBuf);
//  129 #endif
//  130 
//  131 static void MT_AfDataRetrieve(uint8 *pBuf);
//  132 static void MT_AfDataStore(uint8 *pBuf);
//  133 static void MT_AfAPSF_ConfigSet(uint8 *pBuf);
//  134 
//  135 /**************************************************************************************************
//  136  * @fn          MT_AfExec
//  137  *
//  138  * @brief       This function is invoked by an MT timer event.
//  139  *
//  140  * input parameters
//  141  *
//  142  * None.
//  143  *
//  144  * output parameters
//  145  *
//  146  * None.
//  147  *
//  148  * @return      None.
//  149  **************************************************************************************************
//  150  */

        RSEG BANKED_CODE:CODE:NOROOT(0)
//  151 void MT_AfExec(void)
MT_AfExec:
        CFI Block cfiBlock0 Using cfiCommon0
        CFI Function MT_AfExec
        CODE
//  152 {
        FUNCALL MT_AfExec, osal_mem_free
        LOCFRAME ISTACK, 0, STACK
        LOCFRAME PSTACK, 0, STACK
        LOCFRAME XSTACK, 9, STACK
        LOCFRAME IOVERLAY, 0, STATIC
        LOCFRAME DOVERLAY, 0, STATIC
        ARGFRAME ISTACK, 0, STACK
        ARGFRAME PSTACK, 0, STACK
        ARGFRAME XSTACK, 9, STACK
        ARGFRAME IOVERLAY, 0, STATIC
        ARGFRAME DOVERLAY, 0, STATIC
        FUNCALL MT_AfExec, osal_mem_free
        LOCFRAME ISTACK, 0, STACK
        LOCFRAME PSTACK, 0, STACK
        LOCFRAME XSTACK, 9, STACK
        LOCFRAME IOVERLAY, 0, STATIC
        LOCFRAME DOVERLAY, 0, STATIC
        ARGFRAME ISTACK, 0, STACK
        ARGFRAME PSTACK, 0, STACK
        ARGFRAME XSTACK, 9, STACK
        ARGFRAME IOVERLAY, 0, STATIC
        ARGFRAME DOVERLAY, 0, STATIC
        FUNCALL MT_AfExec, osal_mem_free
        LOCFRAME ISTACK, 0, STACK
        LOCFRAME PSTACK, 0, STACK
        LOCFRAME XSTACK, 9, STACK
        LOCFRAME IOVERLAY, 0, STATIC
        LOCFRAME DOVERLAY, 0, STATIC
        ARGFRAME ISTACK, 0, STACK
        ARGFRAME PSTACK, 0, STACK
        ARGFRAME XSTACK, 9, STACK
        ARGFRAME IOVERLAY, 0, STATIC
        ARGFRAME DOVERLAY, 0, STATIC
        FUNCALL MT_AfExec, osal_start_timerEx
        LOCFRAME ISTACK, 0, STACK
        LOCFRAME PSTACK, 0, STACK
        LOCFRAME XSTACK, 9, STACK
        LOCFRAME IOVERLAY, 0, STATIC
        LOCFRAME DOVERLAY, 0, STATIC
        ARGFRAME ISTACK, 0, STACK
        ARGFRAME PSTACK, 0, STACK
        ARGFRAME XSTACK, 9, STACK
        ARGFRAME IOVERLAY, 0, STATIC
        ARGFRAME DOVERLAY, 0, STATIC
        FUNCALL MT_AfExec, osal_set_event
        LOCFRAME ISTACK, 0, STACK
        LOCFRAME PSTACK, 0, STACK
        LOCFRAME XSTACK, 9, STACK
        LOCFRAME IOVERLAY, 0, STATIC
        LOCFRAME DOVERLAY, 0, STATIC
        ARGFRAME ISTACK, 0, STACK
        ARGFRAME PSTACK, 0, STACK
        ARGFRAME XSTACK, 9, STACK
        ARGFRAME IOVERLAY, 0, STATIC
        ARGFRAME DOVERLAY, 0, STATIC
        MOV     A,#-0x9
        LCALL   ?BANKED_ENTER_XDATA
        CFI R6 load(1, XDATA, add(CFA_XSP16, literal(-9)))
        CFI VB load(1, XDATA, add(CFA_XSP16, literal(-8)))
        CFI V0 load(1, XDATA, add(CFA_XSP16, literal(-7)))
        CFI R7 load(1, XDATA, add(CFA_XSP16, literal(-6)))
        CFI ?RET_LOW load(1, XDATA, add(CFA_XSP16, literal(-5)))
        CFI ?RET_HIGH load(1, XDATA, add(CFA_XSP16, literal(-4)))
        CFI ?BRET_EXT load(1, XDATA, add(CFA_XSP16, literal(-3)))
        CFI DPL0 load(1, XDATA, add(CFA_XSP16, literal(-2)))
        CFI DPH0 load(1, XDATA, add(CFA_XSP16, literal(-1)))
        CFI CFA_SP SP+0
        CFI CFA_XSP16 add(XSP16, 9)
        ; Saved register size: 9
        ; Auto size: 0
//  153   mtAfInMsgList_t *pPrev, *pItem = pMtAfInMsgList;
??MT_AfExec_0:
        MOV     DPTR,#pMtAfInMsgList
        LCALL   ?Subroutine58 & 0xFFFF
??CrossCallReturnLabel_136:
        SJMP    ??MT_AfExec_1
//  154 
//  155   while (pItem != NULL)
//  156   {
//  157     if (--(pItem->tick) == 0)
//  158     {
//  159       if (pMtAfInMsgList == pItem)
//  160       {
//  161         pMtAfInMsgList = pItem->next;
//  162         (void)osal_mem_free(pItem);
//  163         pItem = pMtAfInMsgList;
//  164       }
//  165       else
//  166       {
//  167         pPrev->next = pItem->next;
//  168         (void)osal_mem_free(pItem);
//  169         pItem = pPrev->next;
//  170       }
//  171     }
//  172     else
//  173     {
//  174       pPrev = pItem;
??MT_AfExec_2:
        MOV     A,R2
        MOV     R6,A
        MOV     A,R3
        MOV     R7,A
//  175       pItem = pItem->next;
        MOV     A,R0
        MOV     R2,A
        MOV     A,R1
??MT_AfExec_1:
        MOV     R3,A
//  176     }
        MOV     A,R2
        ORL     A,R3
        JZ      ??MT_AfExec_3
        MOV     A,R2
        ADD     A,#0x8
        MOV     R0,A
        MOV     A,R3
        ADDC    A,#0x0
        MOV     R1,A
        MOV     A,R0
        MOV     R4,A
        MOV     A,R1
        MOV     R5,A
        MOV     DPL,R4
        MOV     DPH,R5
        MOVX    A,@DPTR
        DEC     A
        MOVX    @DPTR,A
        MOV     DPL,R2
        MOV     DPH,R3
        LCALL   ?Subroutine51 & 0xFFFF
??CrossCallReturnLabel_196:
        MOV     DPL,R4
        MOV     DPH,R5
        MOVX    A,@DPTR
        JNZ     ??MT_AfExec_2
        MOV     DPTR,#pMtAfInMsgList
        LCALL   ?Subroutine16 & 0xFFFF
??CrossCallReturnLabel_21:
        MOV     A,R2
        XRL     A,R4
        JNZ     ??MT_AfExec_4
        MOV     A,R3
        XRL     A,R5
??MT_AfExec_4:
        JNZ     ??MT_AfExec_5
        MOV     DPTR,#pMtAfInMsgList
        LCALL   ?Subroutine43 & 0xFFFF
??CrossCallReturnLabel_79:
        SJMP    ??MT_AfExec_0
??MT_AfExec_5:
        MOV     DPL,R6
        MOV     DPH,R7
        LCALL   ?Subroutine43 & 0xFFFF
??CrossCallReturnLabel_80:
        MOV     DPL,R6
        MOV     DPH,R7
        LCALL   ?Subroutine58 & 0xFFFF
//  177   }
??CrossCallReturnLabel_137:
        SJMP    ??MT_AfExec_1
//  178 
//  179   if (pMtAfDataReq != NULL)
??MT_AfExec_3:
        LCALL   ?Subroutine3 & 0xFFFF
??CrossCallReturnLabel_191:
        JZ      ??MT_AfExec_6
//  180   {
//  181     if (--(pMtAfDataReq->tick) == 0)
        LCALL   ?Subroutine8 & 0xFFFF
??CrossCallReturnLabel_210:
        DEC     A
        MOVX    @DPTR,A
        LCALL   ?Subroutine8 & 0xFFFF
??CrossCallReturnLabel_211:
        JNZ     ??MT_AfExec_6
//  182     {
//  183       (void)osal_mem_free(pMtAfDataReq);
        ; Setup parameters for call to function osal_mem_free
        LCALL   ?Subroutine13 & 0xFFFF
//  184       pMtAfDataReq = NULL;
//  185     }
//  186   }
??CrossCallReturnLabel_14:
        MOVX    @DPTR,A
//  187 
//  188   if ((pMtAfInMsgList != NULL) || (pMtAfDataReq != NULL))
??MT_AfExec_6:
        MOV     DPTR,#pMtAfInMsgList
        LCALL   ??Subroutine78_0 & 0xFFFF
??CrossCallReturnLabel_185:
        JNZ     ??MT_AfExec_7
        LCALL   ?Subroutine3 & 0xFFFF
??CrossCallReturnLabel_192:
        JZ      ??CrossCallReturnLabel_44
//  189   {
//  190     if (ZSuccess != osal_start_timerEx(MT_TaskID, MT_AF_EXEC_EVT, MT_AF_EXEC_DLY))
??MT_AfExec_7:
        ; Setup parameters for call to function osal_start_timerEx
        LCALL   ??Subroutine65_0 & 0xFFFF
??CrossCallReturnLabel_120:
        JZ      ??CrossCallReturnLabel_44
//  191     {
//  192       osal_set_event(MT_TaskID, MT_AF_EXEC_EVT);
        ; Setup parameters for call to function osal_set_event
        LCALL   ?Subroutine27 & 0xFFFF
        CFI EndBlock cfiBlock0
//  193     }
//  194   }
//  195 }
??CrossCallReturnLabel_44:
        REQUIRE ?Subroutine0
        ; // Fall through to label ?Subroutine0

        RSEG BANKED_CODE:CODE:NOROOT(0)
?Subroutine0:
        CFI Block cfiBlock1 Using cfiCommon0
        CFI NoFunction
        CFI CFA_SP SP+0
        CFI CFA_XSP16 add(XSP16, 9)
        CFI VB load(1, XDATA, add(CFA_XSP16, literal(-8)))
        CFI DPL0 load(1, XDATA, add(CFA_XSP16, literal(-2)))
        CFI DPH0 load(1, XDATA, add(CFA_XSP16, literal(-1)))
        CFI R6 load(1, XDATA, add(CFA_XSP16, literal(-9)))
        CFI R7 load(1, XDATA, add(CFA_XSP16, literal(-6)))
        CFI V0 load(1, XDATA, add(CFA_XSP16, literal(-7)))
        CFI ?BRET_EXT load(1, XDATA, add(CFA_XSP16, literal(-3)))
        CFI ?RET_HIGH load(1, XDATA, add(CFA_XSP16, literal(-4)))
        CFI ?RET_LOW load(1, XDATA, add(CFA_XSP16, literal(-5)))
        MOV     R7,#0x1
        LJMP    ?BANKED_LEAVE_XDATA
        CFI EndBlock cfiBlock1

        RSEG BANKED_CODE:CODE:NOROOT(0)
?Subroutine43:
        CFI Block cfiCond2 Using cfiCommon0
        CFI NoFunction
        CFI Conditional ??CrossCallReturnLabel_79
        CFI R6 load(1, XDATA, add(CFA_XSP16, literal(-9)))
        CFI VB load(1, XDATA, add(CFA_XSP16, literal(-8)))
        CFI V0 load(1, XDATA, add(CFA_XSP16, literal(-7)))
        CFI R7 load(1, XDATA, add(CFA_XSP16, literal(-6)))
        CFI ?RET_LOW load(1, XDATA, add(CFA_XSP16, literal(-5)))
        CFI ?RET_HIGH load(1, XDATA, add(CFA_XSP16, literal(-4)))
        CFI ?BRET_EXT load(1, XDATA, add(CFA_XSP16, literal(-3)))
        CFI DPL0 load(1, XDATA, add(CFA_XSP16, literal(-2)))
        CFI DPH0 load(1, XDATA, add(CFA_XSP16, literal(-1)))
        CFI CFA_SP SP+0
        CFI CFA_XSP16 add(XSP16, 9)
        CFI Block cfiCond3 Using cfiCommon0
        CFI (cfiCond3) NoFunction
        CFI (cfiCond3) Conditional ??CrossCallReturnLabel_80
        CFI (cfiCond3) R6 load(1, XDATA, add(CFA_XSP16, literal(-9)))
        CFI (cfiCond3) VB load(1, XDATA, add(CFA_XSP16, literal(-8)))
        CFI (cfiCond3) V0 load(1, XDATA, add(CFA_XSP16, literal(-7)))
        CFI (cfiCond3) R7 load(1, XDATA, add(CFA_XSP16, literal(-6)))
        CFI (cfiCond3) ?RET_LOW load(1, XDATA, add(CFA_XSP16, literal(-5)))
        CFI (cfiCond3) ?RET_HIGH load(1, XDATA, add(CFA_XSP16, literal(-4)))
        CFI (cfiCond3) ?BRET_EXT load(1, XDATA, add(CFA_XSP16, literal(-3)))
        CFI (cfiCond3) DPL0 load(1, XDATA, add(CFA_XSP16, literal(-2)))
        CFI (cfiCond3) DPH0 load(1, XDATA, add(CFA_XSP16, literal(-1)))
        CFI (cfiCond3) CFA_SP SP+0
        CFI (cfiCond3) CFA_XSP16 add(XSP16, 9)
        CFI Block cfiPicker4 Using cfiCommon1
        CFI (cfiPicker4) NoFunction
        CFI (cfiPicker4) Picker
        MOV     A,R0
        MOVX    @DPTR,A
        INC     DPTR
        MOV     A,R1
        MOVX    @DPTR,A
        ; Setup parameters for call to function osal_mem_free
        ; Setup parameters for call to function osal_mem_free
        LCALL   ??osal_mem_free?relay
        RET
        CFI EndBlock cfiCond2
        CFI EndBlock cfiCond3
        CFI EndBlock cfiPicker4
//  196 
//  197 /***************************************************************************************************
//  198  * @fn      MT_AfCommandProcessing
//  199  *
//  200  * @brief   Process all the AF commands that are issued by test tool
//  201  *
//  202  * @param   pBuf - pointer to the received buffer
//  203  *
//  204  * @return  status
//  205  ***************************************************************************************************/

        RSEG BANKED_CODE:CODE:NOROOT(0)
//  206 uint8 MT_AfCommandProcessing(uint8 *pBuf)
MT_AfCommandProcessing:
        CFI Block cfiBlock5 Using cfiCommon0
        CFI Function MT_AfCommandProcessing
        CODE
//  207 {
        FUNCALL MT_AfCommandProcessing, MT_AfRegister
        LOCFRAME ISTACK, 0, STACK
        LOCFRAME PSTACK, 0, STACK
        LOCFRAME XSTACK, 12, STACK
        LOCFRAME IOVERLAY, 0, STATIC
        LOCFRAME DOVERLAY, 0, STATIC
        ARGFRAME ISTACK, 0, STACK
        ARGFRAME PSTACK, 0, STACK
        ARGFRAME XSTACK, 12, STACK
        ARGFRAME IOVERLAY, 0, STATIC
        ARGFRAME DOVERLAY, 0, STATIC
        FUNCALL MT_AfCommandProcessing, MT_AfDataRequest
        LOCFRAME ISTACK, 0, STACK
        LOCFRAME PSTACK, 0, STACK
        LOCFRAME XSTACK, 12, STACK
        LOCFRAME IOVERLAY, 0, STATIC
        LOCFRAME DOVERLAY, 0, STATIC
        ARGFRAME ISTACK, 0, STACK
        ARGFRAME PSTACK, 0, STACK
        ARGFRAME XSTACK, 12, STACK
        ARGFRAME IOVERLAY, 0, STATIC
        ARGFRAME DOVERLAY, 0, STATIC
        FUNCALL MT_AfCommandProcessing, MT_AfDataRequestSrcRtg
        LOCFRAME ISTACK, 0, STACK
        LOCFRAME PSTACK, 0, STACK
        LOCFRAME XSTACK, 12, STACK
        LOCFRAME IOVERLAY, 0, STATIC
        LOCFRAME DOVERLAY, 0, STATIC
        ARGFRAME ISTACK, 0, STACK
        ARGFRAME PSTACK, 0, STACK
        ARGFRAME XSTACK, 12, STACK
        ARGFRAME IOVERLAY, 0, STATIC
        ARGFRAME DOVERLAY, 0, STATIC
        FUNCALL MT_AfCommandProcessing, MT_AfDataRetrieve
        LOCFRAME ISTACK, 0, STACK
        LOCFRAME PSTACK, 0, STACK
        LOCFRAME XSTACK, 12, STACK
        LOCFRAME IOVERLAY, 0, STATIC
        LOCFRAME DOVERLAY, 0, STATIC
        ARGFRAME ISTACK, 0, STACK
        ARGFRAME PSTACK, 0, STACK
        ARGFRAME XSTACK, 12, STACK
        ARGFRAME IOVERLAY, 0, STATIC
        ARGFRAME DOVERLAY, 0, STATIC
        FUNCALL MT_AfCommandProcessing, MT_AfDataStore
        LOCFRAME ISTACK, 0, STACK
        LOCFRAME PSTACK, 0, STACK
        LOCFRAME XSTACK, 12, STACK
        LOCFRAME IOVERLAY, 0, STATIC
        LOCFRAME DOVERLAY, 0, STATIC
        ARGFRAME ISTACK, 0, STACK
        ARGFRAME PSTACK, 0, STACK
        ARGFRAME XSTACK, 12, STACK
        ARGFRAME IOVERLAY, 0, STATIC
        ARGFRAME DOVERLAY, 0, STATIC
        FUNCALL MT_AfCommandProcessing, afAPSF_ConfigSet
        LOCFRAME ISTACK, 0, STACK
        LOCFRAME PSTACK, 0, STACK
        LOCFRAME XSTACK, 12, STACK
        LOCFRAME IOVERLAY, 0, STATIC
        LOCFRAME DOVERLAY, 0, STATIC
        ARGFRAME ISTACK, 0, STACK
        ARGFRAME PSTACK, 0, STACK
        ARGFRAME XSTACK, 12, STACK
        ARGFRAME IOVERLAY, 0, STATIC
        ARGFRAME DOVERLAY, 0, STATIC
        FUNCALL MT_AfCommandProcessing, MT_BuildAndSendZToolResponse
        LOCFRAME ISTACK, 0, STACK
        LOCFRAME PSTACK, 0, STACK
        LOCFRAME XSTACK, 12, STACK
        LOCFRAME IOVERLAY, 0, STATIC
        LOCFRAME DOVERLAY, 0, STATIC
        ARGFRAME ISTACK, 0, STACK
        ARGFRAME PSTACK, 0, STACK
        ARGFRAME XSTACK, 12, STACK
        ARGFRAME IOVERLAY, 0, STATIC
        ARGFRAME DOVERLAY, 0, STATIC
        MOV     A,#-0x9
        LCALL   ?BANKED_ENTER_XDATA
        CFI DPH0 load(1, XDATA, add(CFA_XSP16, literal(-1)))
        CFI DPL0 load(1, XDATA, add(CFA_XSP16, literal(-2)))
        CFI ?BRET_EXT load(1, XDATA, add(CFA_XSP16, literal(-3)))
        CFI ?RET_HIGH load(1, XDATA, add(CFA_XSP16, literal(-4)))
        CFI ?RET_LOW load(1, XDATA, add(CFA_XSP16, literal(-5)))
        CFI R7 load(1, XDATA, add(CFA_XSP16, literal(-6)))
        CFI V0 load(1, XDATA, add(CFA_XSP16, literal(-7)))
        CFI VB load(1, XDATA, add(CFA_XSP16, literal(-8)))
        CFI R6 load(1, XDATA, add(CFA_XSP16, literal(-9)))
        CFI CFA_SP SP+0
        CFI CFA_XSP16 add(XSP16, 9)
        ; Saved register size: 9
        ; Auto size: 3
        MOV     A,#-0x3
        LCALL   ?ALLOC_XSTACK8
        CFI CFA_XSP16 add(XSP16, 12)
        MOV     A,R2
        MOV     R0,A
        MOV     A,R3
        MOV     R1,A
//  208   uint8 status = MT_RPC_SUCCESS;
        MOV     R6,#0x0
//  209 
//  210   switch (pBuf[MT_RPC_POS_CMD1])
        MOV     DPL,R0
        MOV     DPH,R1
        INC     DPTR
        INC     DPTR
        MOVX    A,@DPTR
        JZ      ??MT_AfCommandProcessing_0
        DEC     A
        JZ      ??MT_AfCommandProcessing_1
        DEC     A
        JZ      ??MT_AfCommandProcessing_1
        DEC     A
        JZ      ??MT_AfCommandProcessing_2
        ADD     A,#-0xe
        JZ      ??MT_AfCommandProcessing_3
        DEC     A
        JZ      ??MT_AfCommandProcessing_4
        DEC     A
        JZ      ??MT_AfCommandProcessing_5
        SJMP    ??MT_AfCommandProcessing_6
//  211   {
//  212     case MT_AF_REGISTER:
//  213       MT_AfRegister(pBuf);
??MT_AfCommandProcessing_0:
        ; Setup parameters for call to function MT_AfRegister
        LCALL   ??MT_AfRegister?relay
//  214       break;
        SJMP    ??MT_AfCommandProcessing_7
//  215 
//  216     case MT_AF_DATA_REQUEST:
//  217     case MT_AF_DATA_REQUEST_EXT:
//  218       MT_AfDataRequest(pBuf);
??MT_AfCommandProcessing_1:
        ; Setup parameters for call to function MT_AfDataRequest
        LCALL   ??MT_AfDataRequest?relay
//  219       break;
        SJMP    ??MT_AfCommandProcessing_7
//  220 
//  221 #if defined ( ZIGBEE_SOURCE_ROUTING )
//  222     case MT_AF_DATA_REQUEST_SRCRTG:
//  223       MT_AfDataRequestSrcRtg(pBuf);
??MT_AfCommandProcessing_2:
        ; Setup parameters for call to function MT_AfDataRequestSrcRtg
        LCALL   ??MT_AfDataRequestSrcRtg?relay
//  224       break;
        SJMP    ??MT_AfCommandProcessing_7
//  225 #endif
//  226 
//  227 #if defined INTER_PAN
//  228     case MT_AF_INTER_PAN_CTL:
//  229       MT_AfInterPanCtl(pBuf);
//  230       break;
//  231 #endif
//  232 
//  233     case MT_AF_DATA_RETRIEVE:
//  234       MT_AfDataRetrieve(pBuf);
??MT_AfCommandProcessing_4:
        ; Setup parameters for call to function MT_AfDataRetrieve
        LCALL   ??MT_AfDataRetrieve?relay
//  235       break;
        SJMP    ??MT_AfCommandProcessing_7
//  236 
//  237     case MT_AF_DATA_STORE:
//  238       MT_AfDataStore(pBuf);
??MT_AfCommandProcessing_3:
        ; Setup parameters for call to function MT_AfDataStore
        LCALL   ??MT_AfDataStore?relay
//  239       break;
        SJMP    ??MT_AfCommandProcessing_7
//  240 
//  241     case MT_AF_APSF_CONFIG_SET:
//  242       MT_AfAPSF_ConfigSet(pBuf);
??MT_AfCommandProcessing_5:
        MOV     DPL,R0
        MOV     DPH,R1
        INC     DPTR
        INC     DPTR
        INC     DPTR
        INC     DPTR
        MOVX    A,@DPTR
        PUSH    A
        CFI CFA_SP SP+-1
        MOV     A,#0x1
        LCALL   ?XSTACK_DISP0_8
        POP     A
        CFI CFA_SP SP+0
        MOVX    @DPTR,A
        MOV     DPL,R0
        MOV     DPH,R1
        INC     DPTR
        INC     DPTR
        INC     DPTR
        INC     DPTR
        INC     DPTR
        MOVX    A,@DPTR
        PUSH    A
        CFI CFA_SP SP+-1
        MOV     A,#0x2
        LCALL   ?XSTACK_DISP0_8
        POP     A
        CFI CFA_SP SP+0
        MOVX    @DPTR,A
        ; Setup parameters for call to function afAPSF_ConfigSet
        MOV     A,#0x1
        LCALL   ?XSTACK_DISP0_8
        MOV     R2,DPL
        MOV     R3,DPH
        MOV     DPL,R0
        MOV     DPH,R1
        INC     DPTR
        INC     DPTR
        INC     DPTR
        MOVX    A,@DPTR
        MOV     R1,A
        LCALL   ??afAPSF_ConfigSet?relay
        MOV     A,R1
        MOV     DPL,?XSP + 0
        MOV     DPH,?XSP + 1
        MOVX    @DPTR,A
        ; Setup parameters for call to function MT_BuildAndSendZToolResponse
        MOV     R4,DPL
        MOV     R5,DPH
        MOV     R3,#0x1
        MOV     R2,#0x13
        MOV     R1,#0x64
        LCALL   ??MT_BuildAndSendZToolResponse?relay
//  243       break;
        SJMP    ??MT_AfCommandProcessing_7
//  244 
//  245     default:
//  246       status = MT_RPC_ERR_COMMAND_ID;
??MT_AfCommandProcessing_6:
        INC     R6
        INC     R6
//  247       break;
//  248   }
//  249 
//  250   return status;
??MT_AfCommandProcessing_7:
        MOV     A,R6
        MOV     R1,A
        MOV     A,#0x3
        LCALL   ?DEALLOC_XSTACK8
        CFI CFA_XSP16 add(XSP16, 9)
        LJMP    ?Subroutine0 & 0xFFFF
        CFI EndBlock cfiBlock5
//  251 }
//  252 
//  253 /***************************************************************************************************
//  254  * @fn      MT_AfRegister
//  255  *
//  256  * @brief   Process AF Register command
//  257  *
//  258  * @param   pBuf - pointer to the received buffer
//  259  *
//  260  * @return  none
//  261  ***************************************************************************************************/

        RSEG BANKED_CODE:CODE:NOROOT(0)
//  262 void MT_AfRegister(uint8 *pBuf)
MT_AfRegister:
        CFI Block cfiBlock6 Using cfiCommon0
        CFI Function MT_AfRegister
        CODE
//  263 {
        FUNCALL MT_AfRegister, osal_mem_alloc
        LOCFRAME ISTACK, 0, STACK
        LOCFRAME PSTACK, 0, STACK
        LOCFRAME XSTACK, 15, STACK
        LOCFRAME IOVERLAY, 0, STATIC
        LOCFRAME DOVERLAY, 0, STATIC
        ARGFRAME ISTACK, 0, STACK
        ARGFRAME PSTACK, 0, STACK
        ARGFRAME XSTACK, 15, STACK
        ARGFRAME IOVERLAY, 0, STATIC
        ARGFRAME DOVERLAY, 0, STATIC
        FUNCALL MT_AfRegister, MT_BuildEndpointDesc
        LOCFRAME ISTACK, 0, STACK
        LOCFRAME PSTACK, 0, STACK
        LOCFRAME XSTACK, 15, STACK
        LOCFRAME IOVERLAY, 0, STATIC
        LOCFRAME DOVERLAY, 0, STATIC
        ARGFRAME ISTACK, 0, STACK
        ARGFRAME PSTACK, 0, STACK
        ARGFRAME XSTACK, 15, STACK
        ARGFRAME IOVERLAY, 0, STATIC
        ARGFRAME DOVERLAY, 0, STATIC
        FUNCALL MT_AfRegister, afRegister
        LOCFRAME ISTACK, 0, STACK
        LOCFRAME PSTACK, 0, STACK
        LOCFRAME XSTACK, 15, STACK
        LOCFRAME IOVERLAY, 0, STATIC
        LOCFRAME DOVERLAY, 0, STATIC
        ARGFRAME ISTACK, 0, STACK
        ARGFRAME PSTACK, 0, STACK
        ARGFRAME XSTACK, 15, STACK
        ARGFRAME IOVERLAY, 0, STATIC
        ARGFRAME DOVERLAY, 0, STATIC
        FUNCALL MT_AfRegister, osal_mem_free
        LOCFRAME ISTACK, 0, STACK
        LOCFRAME PSTACK, 0, STACK
        LOCFRAME XSTACK, 15, STACK
        LOCFRAME IOVERLAY, 0, STATIC
        LOCFRAME DOVERLAY, 0, STATIC
        ARGFRAME ISTACK, 0, STACK
        ARGFRAME PSTACK, 0, STACK
        ARGFRAME XSTACK, 15, STACK
        ARGFRAME IOVERLAY, 0, STATIC
        ARGFRAME DOVERLAY, 0, STATIC
        FUNCALL MT_AfRegister, MT_BuildAndSendZToolResponse
        LOCFRAME ISTACK, 0, STACK
        LOCFRAME PSTACK, 0, STACK
        LOCFRAME XSTACK, 15, STACK
        LOCFRAME IOVERLAY, 0, STATIC
        LOCFRAME DOVERLAY, 0, STATIC
        ARGFRAME ISTACK, 0, STACK
        ARGFRAME PSTACK, 0, STACK
        ARGFRAME XSTACK, 15, STACK
        ARGFRAME IOVERLAY, 0, STATIC
        ARGFRAME DOVERLAY, 0, STATIC
        MOV     A,#-0xe
        LCALL   ?BANKED_ENTER_XDATA
        CFI DPH0 load(1, XDATA, add(CFA_XSP16, literal(-1)))
        CFI DPL0 load(1, XDATA, add(CFA_XSP16, literal(-2)))
        CFI ?BRET_EXT load(1, XDATA, add(CFA_XSP16, literal(-3)))
        CFI ?RET_HIGH load(1, XDATA, add(CFA_XSP16, literal(-4)))
        CFI ?RET_LOW load(1, XDATA, add(CFA_XSP16, literal(-5)))
        CFI R7 load(1, XDATA, add(CFA_XSP16, literal(-6)))
        CFI V5 load(1, XDATA, add(CFA_XSP16, literal(-7)))
        CFI V4 load(1, XDATA, add(CFA_XSP16, literal(-8)))
        CFI V3 load(1, XDATA, add(CFA_XSP16, literal(-9)))
        CFI V2 load(1, XDATA, add(CFA_XSP16, literal(-10)))
        CFI V1 load(1, XDATA, add(CFA_XSP16, literal(-11)))
        CFI V0 load(1, XDATA, add(CFA_XSP16, literal(-12)))
        CFI VB load(1, XDATA, add(CFA_XSP16, literal(-13)))
        CFI R6 load(1, XDATA, add(CFA_XSP16, literal(-14)))
        CFI CFA_SP SP+0
        CFI CFA_XSP16 add(XSP16, 14)
        ; Saved register size: 14
        ; Auto size: 1
        MOV     A,#-0x1
        LCALL   ?ALLOC_XSTACK8
        CFI CFA_XSP16 add(XSP16, 15)
        MOV     ?V0 + 2,R2
        MOV     ?V0 + 3,R3
//  264   uint8 cmdId;
//  265   uint8 retValue = ZMemError;
        MOV     DPL,?XSP + 0
        MOV     DPH,?XSP + 1
        MOV     A,#0x10
        LCALL   ?Subroutine35 & 0xFFFF
//  266   endPointDesc_t *epDesc;
//  267 
//  268   /* parse header */
//  269   cmdId = pBuf[MT_RPC_POS_CMD1];
??CrossCallReturnLabel_57:
        MOV     ?V0 + 0,A
//  270   pBuf += MT_RPC_FRAME_HDR_SZ;
//  271 
//  272   epDesc = (endPointDesc_t *)osal_mem_alloc(sizeof(endPointDesc_t));
        ; Setup parameters for call to function osal_mem_alloc
        MOV     R2,#0x6
        MOV     R3,#0x0
        LCALL   ??osal_mem_alloc?relay
        MOV     ?V0 + 4,R2
        MOV     ?V0 + 5,R3
        MOV     R6,?V0 + 4
        MOV     R7,?V0 + 5
//  273   if ( epDesc )
        MOV     A,R6
        ORL     A,R7
        JZ      ??MT_AfRegister_0
//  274   {
//  275     epDesc->task_id = &MT_TaskID;
        MOV     DPL,R6
        MOV     DPH,R7
        INC     DPTR
        MOV     A,#MT_TaskID & 0xff
        MOVX    @DPTR,A
        INC     DPTR
        MOV     A,#(MT_TaskID >> 8) & 0xff
        MOVX    @DPTR,A
//  276     retValue = MT_BuildEndpointDesc( pBuf, epDesc );
        ; Setup parameters for call to function MT_BuildEndpointDesc
        MOV     A,R6
        MOV     R4,A
        MOV     A,R7
        MOV     R5,A
        MOV     A,?V0 + 2
        ADD     A,#0x3
        MOV     R2,A
        MOV     A,?V0 + 3
        ADDC    A,#0x0
        MOV     R3,A
        LCALL   ??MT_BuildEndpointDesc?relay
        MOV     A,R1
        MOV     DPL,?XSP + 0
        MOV     DPH,?XSP + 1
        MOVX    @DPTR,A
//  277     if ( retValue == ZSuccess )
        JNZ     ??MT_AfRegister_1
//  278     {
//  279       retValue = afRegister( epDesc );
        ; Setup parameters for call to function afRegister
        MOV     A,R6
        MOV     R2,A
        MOV     A,R7
        MOV     R3,A
        LCALL   ??afRegister?relay
        MOV     A,R1
        MOV     DPL,?XSP + 0
        MOV     DPH,?XSP + 1
        MOVX    @DPTR,A
//  280     }
//  281 
//  282     if ( retValue != ZSuccess )
??MT_AfRegister_1:
        MOVX    A,@DPTR
        JZ      ??MT_AfRegister_0
//  283     {
//  284       osal_mem_free( epDesc );
        ; Setup parameters for call to function osal_mem_free
        MOV     A,R6
        MOV     R2,A
        MOV     A,R7
        MOV     R3,A
        LCALL   ??osal_mem_free?relay
//  285     }
//  286   }
//  287 
//  288   /* Build and send back the response */
//  289   MT_BuildAndSendZToolResponse(((uint8)MT_RPC_CMD_SRSP | (uint8)MT_RPC_SYS_AF), cmdId, 1, &retValue);
??MT_AfRegister_0:
        ; Setup parameters for call to function MT_BuildAndSendZToolResponse
        MOV     DPL,?XSP + 0
        MOV     DPH,?XSP + 1
        MOV     R4,DPL
        MOV     R5,DPH
        MOV     R3,#0x1
        MOV     R2,?V0 + 0
        MOV     R1,#0x64
        LCALL   ??MT_BuildAndSendZToolResponse?relay
//  290 }
        MOV     A,#0x1
        LCALL   ?DEALLOC_XSTACK8
        CFI CFA_XSP16 add(XSP16, 14)
        MOV     R7,#0x6
        LJMP    ?BANKED_LEAVE_XDATA
        CFI EndBlock cfiBlock6
//  291 
//  292 /***************************************************************************************************
//  293  * @fn      MT_AfDataRequest
//  294  *
//  295  * @brief   Process AF Register command
//  296  *
//  297  * @param   pBuf - pointer to the received buffer
//  298  *
//  299  * @return  none
//  300  ***************************************************************************************************/

        RSEG BANKED_CODE:CODE:NOROOT(0)
//  301 void MT_AfDataRequest(uint8 *pBuf)
MT_AfDataRequest:
        CFI Block cfiBlock7 Using cfiCommon0
        CFI Function MT_AfDataRequest
        CODE
//  302 {
        FUNCALL MT_AfDataRequest, osal_memcpy
        LOCFRAME ISTACK, 0, STACK
        LOCFRAME PSTACK, 0, STACK
        LOCFRAME XSTACK, 38, STACK
        LOCFRAME IOVERLAY, 0, STATIC
        LOCFRAME DOVERLAY, 0, STATIC
        ARGFRAME ISTACK, 0, STACK
        ARGFRAME PSTACK, 0, STACK
        ARGFRAME XSTACK, 38, STACK
        ARGFRAME IOVERLAY, 0, STATIC
        ARGFRAME DOVERLAY, 0, STATIC
        FUNCALL MT_AfDataRequest, afFindEndPointDesc
        LOCFRAME ISTACK, 0, STACK
        LOCFRAME PSTACK, 0, STACK
        LOCFRAME XSTACK, 35, STACK
        LOCFRAME IOVERLAY, 0, STATIC
        LOCFRAME DOVERLAY, 0, STATIC
        ARGFRAME ISTACK, 0, STACK
        ARGFRAME PSTACK, 0, STACK
        ARGFRAME XSTACK, 35, STACK
        ARGFRAME IOVERLAY, 0, STATIC
        ARGFRAME DOVERLAY, 0, STATIC
        FUNCALL MT_AfDataRequest, osal_mem_alloc
        LOCFRAME ISTACK, 0, STACK
        LOCFRAME PSTACK, 0, STACK
        LOCFRAME XSTACK, 35, STACK
        LOCFRAME IOVERLAY, 0, STATIC
        LOCFRAME DOVERLAY, 0, STATIC
        ARGFRAME ISTACK, 0, STACK
        ARGFRAME PSTACK, 0, STACK
        ARGFRAME XSTACK, 35, STACK
        ARGFRAME IOVERLAY, 0, STATIC
        ARGFRAME DOVERLAY, 0, STATIC
        FUNCALL MT_AfDataRequest, osal_memcpy
        LOCFRAME ISTACK, 0, STACK
        LOCFRAME PSTACK, 0, STACK
        LOCFRAME XSTACK, 38, STACK
        LOCFRAME IOVERLAY, 0, STATIC
        LOCFRAME DOVERLAY, 0, STATIC
        ARGFRAME ISTACK, 0, STACK
        ARGFRAME PSTACK, 0, STACK
        ARGFRAME XSTACK, 38, STACK
        ARGFRAME IOVERLAY, 0, STATIC
        ARGFRAME DOVERLAY, 0, STATIC
        FUNCALL MT_AfDataRequest, osal_start_timerEx
        LOCFRAME ISTACK, 0, STACK
        LOCFRAME PSTACK, 0, STACK
        LOCFRAME XSTACK, 35, STACK
        LOCFRAME IOVERLAY, 0, STATIC
        LOCFRAME DOVERLAY, 0, STATIC
        ARGFRAME ISTACK, 0, STACK
        ARGFRAME PSTACK, 0, STACK
        ARGFRAME XSTACK, 35, STACK
        ARGFRAME IOVERLAY, 0, STATIC
        ARGFRAME DOVERLAY, 0, STATIC
        FUNCALL MT_AfDataRequest, osal_set_event
        LOCFRAME ISTACK, 0, STACK
        LOCFRAME PSTACK, 0, STACK
        LOCFRAME XSTACK, 35, STACK
        LOCFRAME IOVERLAY, 0, STATIC
        LOCFRAME DOVERLAY, 0, STATIC
        ARGFRAME ISTACK, 0, STACK
        ARGFRAME PSTACK, 0, STACK
        ARGFRAME XSTACK, 35, STACK
        ARGFRAME IOVERLAY, 0, STATIC
        ARGFRAME DOVERLAY, 0, STATIC
        FUNCALL MT_AfDataRequest, AF_DataRequest
        LOCFRAME ISTACK, 0, STACK
        LOCFRAME PSTACK, 0, STACK
        LOCFRAME XSTACK, 44, STACK
        LOCFRAME IOVERLAY, 0, STATIC
        LOCFRAME DOVERLAY, 0, STATIC
        ARGFRAME ISTACK, 0, STACK
        ARGFRAME PSTACK, 0, STACK
        ARGFRAME XSTACK, 44, STACK
        ARGFRAME IOVERLAY, 0, STATIC
        ARGFRAME DOVERLAY, 0, STATIC
        FUNCALL MT_AfDataRequest, MT_BuildAndSendZToolResponse
        LOCFRAME ISTACK, 0, STACK
        LOCFRAME PSTACK, 0, STACK
        LOCFRAME XSTACK, 35, STACK
        LOCFRAME IOVERLAY, 0, STATIC
        LOCFRAME DOVERLAY, 0, STATIC
        ARGFRAME ISTACK, 0, STACK
        ARGFRAME PSTACK, 0, STACK
        ARGFRAME XSTACK, 35, STACK
        ARGFRAME IOVERLAY, 0, STATIC
        ARGFRAME DOVERLAY, 0, STATIC
        MOV     A,#-0x10
        LCALL   ?BANKED_ENTER_XDATA
        CFI DPH0 load(1, XDATA, add(CFA_XSP16, literal(-1)))
        CFI DPL0 load(1, XDATA, add(CFA_XSP16, literal(-2)))
        CFI ?BRET_EXT load(1, XDATA, add(CFA_XSP16, literal(-3)))
        CFI ?RET_HIGH load(1, XDATA, add(CFA_XSP16, literal(-4)))
        CFI ?RET_LOW load(1, XDATA, add(CFA_XSP16, literal(-5)))
        CFI R7 load(1, XDATA, add(CFA_XSP16, literal(-6)))
        CFI V7 load(1, XDATA, add(CFA_XSP16, literal(-7)))
        CFI V6 load(1, XDATA, add(CFA_XSP16, literal(-8)))
        CFI V5 load(1, XDATA, add(CFA_XSP16, literal(-9)))
        CFI V4 load(1, XDATA, add(CFA_XSP16, literal(-10)))
        CFI V3 load(1, XDATA, add(CFA_XSP16, literal(-11)))
        CFI V2 load(1, XDATA, add(CFA_XSP16, literal(-12)))
        CFI V1 load(1, XDATA, add(CFA_XSP16, literal(-13)))
        CFI V0 load(1, XDATA, add(CFA_XSP16, literal(-14)))
        CFI VB load(1, XDATA, add(CFA_XSP16, literal(-15)))
        CFI R6 load(1, XDATA, add(CFA_XSP16, literal(-16)))
        CFI CFA_SP SP+0
        CFI CFA_XSP16 add(XSP16, 16)
        ; Saved register size: 16
        ; Auto size: 19
        MOV     A,#-0x13
        LCALL   ?ALLOC_XSTACK8
        CFI CFA_XSP16 add(XSP16, 35)
//  303   #define MT_AF_REQ_MSG_LEN  10
//  304   #define MT_AF_REQ_MSG_EXT  10
//  305 
//  306   endPointDesc_t *epDesc;
//  307   afAddrType_t dstAddr;
//  308   cId_t cId;
//  309   uint8 transId, txOpts, radius;
//  310   uint8 cmd0, cmd1;
//  311   uint8 retValue = ZFailure;
        MOV     DPL,?XSP + 0
        MOV     DPH,?XSP + 1
        MOV     A,#0x1
        LCALL   ?Subroutine41 & 0xFFFF
//  312   uint16 dataLen, tempLen;
//  313 
//  314   /* Parse header */
//  315   cmd0 = pBuf[MT_RPC_POS_CMD0];
??CrossCallReturnLabel_72:
        MOVX    A,@DPTR
        PUSH    A
        CFI CFA_SP SP+-1
        MOV     A,#0x6
        LCALL   ?XSTACK_DISP0_8
        POP     A
        CFI CFA_SP SP+0
        LCALL   ?Subroutine35 & 0xFFFF
//  316   cmd1 = pBuf[MT_RPC_POS_CMD1];
??CrossCallReturnLabel_58:
        PUSH    A
        CFI CFA_SP SP+-1
        MOV     A,#0x1
        LCALL   ?XSTACK_DISP0_8
        POP     A
        CFI CFA_SP SP+0
        MOVX    @DPTR,A
//  317   pBuf += MT_RPC_FRAME_HDR_SZ;
        MOV     A,R2
        ADD     A,#0x3
        MOV     ?V0 + 0,A
        MOV     A,R3
        LCALL   ??Subroutine68_0 & 0xFFFF
//  318 
//  319   if (cmd1 == MT_AF_DATA_REQUEST_EXT)
??CrossCallReturnLabel_126:
        MOV     DPL,?V0 + 0
        MOV     DPH,A
        INC     DPTR
        MOV     R0,DPL
        MOV     R1,DPH
        MOV     A,#0x1
        LCALL   ?XSTACK_DISP0_8
        MOVX    A,@DPTR
        XRL     A,#0x2
        JNZ     ??MT_AfDataRequest_0
//  320   {
//  321     dstAddr.addrMode = (afAddrMode_t)*pBuf++;
        MOV     DPL,?V0 + 0
        MOV     DPH,?V0 + 1
        MOVX    A,@DPTR
        MOV     R2,A
        MOV     A,#0xf
        LCALL   ?XSTACK_DISP0_8
        MOV     A,R2
        MOVX    @DPTR,A
        MOV     ?V0 + 0,R0
        MOV     ?V0 + 1,R1
//  322 
//  323     if (dstAddr.addrMode == afAddr64Bit)
        MOV     A,#0x3
        XRL     A,R2
        JNZ     ??MT_AfDataRequest_1
//  324     {
//  325       (void)osal_memcpy(dstAddr.addr.extAddr, pBuf, Z_EXTADDR_LEN);
        ; Setup parameters for call to function osal_memcpy
        MOV     ?V0 + 4,R0
        MOV     ?V0 + 5,R1
        MOV     ?V0 + 6,#0x0
        MOV     R0,#?V0 + 4
        LCALL   ?PUSH_XSTACK_I_THREE
        CFI CFA_XSP16 add(XSP16, 38)
        MOV     R4,#0x8
        MOV     R5,#0x0
        MOV     A,#0xa
        LCALL   ?XSTACK_DISP0_8
        MOV     R2,DPL
        MOV     R3,DPH
        LCALL   ??Subroutine75_0 & 0xFFFF
//  326     }
??CrossCallReturnLabel_173:
        LCALL   ?DEALLOC_XSTACK8
        CFI CFA_XSP16 add(XSP16, 35)
        SJMP    ??CrossCallReturnLabel_81
//  327     else
//  328     {
//  329       dstAddr.addr.shortAddr = BUILD_UINT16(pBuf[0], pBuf[1]);
??MT_AfDataRequest_1:
        MOV     DPL,R0
        MOV     DPH,R1
        LCALL   ?Subroutine17 & 0xFFFF
//  330     }
??CrossCallReturnLabel_27:
        MOV     A,#0x7
        LCALL   ?XSTACK_DISP0_8
        LCALL   ?Subroutine44 & 0xFFFF
//  331     pBuf += Z_EXTADDR_LEN;
??CrossCallReturnLabel_81:
        MOV     A,?V0 + 0
        ADD     A,#0x8
        LCALL   ??Subroutine63_0 & 0xFFFF
//  332 
//  333     dstAddr.endPoint = *pBuf++;
??CrossCallReturnLabel_116:
        PUSH    A
        CFI CFA_SP SP+-1
        MOV     A,#0x10
        LCALL   ?XSTACK_DISP0_8
        POP     A
        CFI CFA_SP SP+0
        LCALL   ?Subroutine34 & 0xFFFF
//  334     dstAddr.panId = BUILD_UINT16(pBuf[0], pBuf[1]);
??CrossCallReturnLabel_55:
        LCALL   ?Subroutine17 & 0xFFFF
//  335     pBuf += 2;
//  336   }
??CrossCallReturnLabel_28:
        MOV     A,#0x11
        LCALL   ?XSTACK_DISP0_8
        MOV     A,R0
        MOVX    @DPTR,A
        INC     DPTR
        MOV     A,R1
        LCALL   ?Subroutine31 & 0xFFFF
??CrossCallReturnLabel_124:
        SJMP    ??MT_AfDataRequest_2
//  337   else
//  338   {
//  339     /* Destination address */
//  340     dstAddr.addrMode = afAddr16Bit;
??MT_AfDataRequest_0:
        MOV     A,#0xf
        LCALL   ?XSTACK_DISP0_8
        LCALL   ?Subroutine40 & 0xFFFF
//  341     dstAddr.addr.shortAddr = BUILD_UINT16(pBuf[0], pBuf[1]);
??CrossCallReturnLabel_109:
        MOVX    A,@DPTR
        MOV     R2,A
        MOV     DPL,R0
        MOV     DPH,R1
        MOVX    A,@DPTR
        MOV     R1,A
        MOV     A,R2
        MOV     R0,A
        MOV     A,#0x7
        LCALL   ?XSTACK_DISP0_8
        LCALL   ?Subroutine29 & 0xFFFF
//  342     pBuf += 2;
//  343 
//  344     /* Destination endpoint */
//  345     dstAddr.endPoint = *pBuf++;
??CrossCallReturnLabel_112:
        PUSH    A
        CFI CFA_SP SP+-1
        MOV     A,#0x10
        LCALL   ?XSTACK_DISP0_8
        POP     A
        CFI CFA_SP SP+0
        LCALL   ?Subroutine34 & 0xFFFF
//  346     dstAddr.panId = 0;
??CrossCallReturnLabel_56:
        MOV     A,#0x11
        LCALL   ?XSTACK_DISP0_8
        CLR     A
        MOVX    @DPTR,A
        INC     DPTR
        MOVX    @DPTR,A
//  347   }
//  348 
//  349   /* Source endpoint */
//  350   epDesc = afFindEndPointDesc(*pBuf++);
??MT_AfDataRequest_2:
        ; Setup parameters for call to function afFindEndPointDesc
        MOV     DPL,?V0 + 0
        MOV     DPH,?V0 + 1
        MOVX    A,@DPTR
        MOV     R1,A
        LCALL   ??afFindEndPointDesc?relay
        MOV     A,#0x4
        LCALL   ?XSTACK_DISP0_8
        MOV     A,R2
        MOVX    @DPTR,A
        INC     DPTR
        MOV     A,R3
        LCALL   ?Subroutine32 & 0xFFFF
//  351 
//  352   /* ClusterId */
//  353   cId = BUILD_UINT16(pBuf[0], pBuf[1]);
??CrossCallReturnLabel_52:
        MOV     R2,A
        INC     DPTR
        MOVX    A,@DPTR
        MOV     R1,A
        MOV     A,R2
        ADD     A,#0x0
        MOV     ?V0 + 4,A
        CLR     A
        ADDC    A,R1
        MOV     ?V0 + 5,A
//  354   pBuf +=2;
        LCALL   ??Subroutine62_0 & 0xFFFF
//  355 
//  356   /* TransId */
//  357   transId = *pBuf++;
??CrossCallReturnLabel_114:
        PUSH    A
        CFI CFA_SP SP+-1
        MOV     A,#0x2
        LCALL   ?XSTACK_DISP0_8
        POP     A
        CFI CFA_SP SP+0
        LCALL   ?Subroutine32 & 0xFFFF
//  358 
//  359   /* TxOption */
//  360   txOpts = *pBuf++;
??CrossCallReturnLabel_53:
        PUSH    A
        CFI CFA_SP SP+-1
        MOV     A,#0x3
        LCALL   ?XSTACK_DISP0_8
        POP     A
        CFI CFA_SP SP+0
        LCALL   ?Subroutine36 & 0xFFFF
//  361 
//  362   /* Radius */
//  363   radius = *pBuf++;
??CrossCallReturnLabel_60:
        MOV     ?V0 + 0,DPL
        MOV     ?V0 + 1,DPH
//  364 
//  365   /* Length */
//  366   if (cmd1 == MT_AF_DATA_REQUEST_EXT)
        INC     DPTR
        MOV     R0,DPL
        MOV     R1,DPH
        MOV     DPL,?V0 + 0
        MOV     DPH,?V0 + 1
        MOVX    A,@DPTR
        MOV     ?V0 + 6,A
        MOV     A,#0x1
        LCALL   ?XSTACK_DISP0_8
        MOVX    A,@DPTR
        XRL     A,#0x2
        JNZ     ??MT_AfDataRequest_3
//  367   {
//  368     dataLen = BUILD_UINT16(pBuf[0], pBuf[1]);
        MOV     DPL,R0
        MOV     DPH,R1
        MOVX    A,@DPTR
        MOV     R1,A
        MOV     A,?V0 + 6
        LCALL   ?Subroutine56 & 0xFFFF
//  369     tempLen = dataLen + MT_AF_REQ_MSG_LEN + MT_AF_REQ_MSG_EXT;
??CrossCallReturnLabel_104:
        MOV     A,R6
        ADD     A,#0x14
        MOV     R0,A
        MOV     A,R7
        ADDC    A,#0x0
        MOV     R1,A
//  370     pBuf += 2;
        LCALL   ??Subroutine67_0 & 0xFFFF
//  371   }
??CrossCallReturnLabel_130:
        SJMP    ??MT_AfDataRequest_4
//  372   else
//  373   {
//  374     dataLen = *pBuf++;
??MT_AfDataRequest_3:
        MOV     DPL,?V0 + 6
        MOV     R6,DPL
        MOV     R7,#0x0
        MOV     ?V0 + 0,R0
        MOV     ?V0 + 1,R1
//  375     tempLen = dataLen + MT_AF_REQ_MSG_LEN;
        MOV     A,R6
        ADD     A,#0xa
        MOV     R0,A
        CLR     A
        ADDC    A,#0x0
        MOV     R1,A
//  376   }
//  377 
//  378   if ( epDesc == NULL )
??MT_AfDataRequest_4:
        MOV     A,#0x4
        LCALL   ?XSTACK_DISP0_8
        LCALL   ??Subroutine69_0 & 0xFFFF
??CrossCallReturnLabel_131:
        MOV     A,R2
        ORL     A,R3
        JNZ     ??MT_AfDataRequest_5
//  379   {
//  380     retValue = afStatus_INVALID_PARAMETER;
??MT_AfDataRequest_6:
        MOV     DPL,?XSP + 0
        MOV     DPH,?XSP + 1
        MOV     A,#0x2
        LJMP    ??MT_AfDataRequest_7 & 0xFFFF
//  381   }
//  382   else if (tempLen > (uint16)MT_RPC_DATA_MAX)
??MT_AfDataRequest_5:
        CLR     C
        MOV     A,R0
        SUBB    A,#-0x5
        MOV     A,R1
        SUBB    A,#0x0
        JNC     $+5
        LJMP    ??MT_AfDataRequest_8 & 0xFFFF
//  383   {
//  384     if (pMtAfDataReq != NULL)
        LCALL   ?Subroutine3 & 0xFFFF
??CrossCallReturnLabel_193:
        JNZ     ??MT_AfDataRequest_6
//  385     {
//  386       retValue = afStatus_INVALID_PARAMETER;
//  387     }
//  388     else if ((pMtAfDataReq = osal_mem_alloc(sizeof(mtAfDataReq_t) + dataLen)) == NULL)
        ; Setup parameters for call to function osal_mem_alloc
        MOV     A,R6
        ADD     A,#0x18
        MOV     R2,A
        MOV     A,R7
        LCALL   ?Subroutine30 & 0xFFFF
??CrossCallReturnLabel_49:
        MOV     DPTR,#pMtAfDataReq
        LCALL   ?Subroutine39 & 0xFFFF
??CrossCallReturnLabel_64:
        LCALL   ?Subroutine3 & 0xFFFF
??CrossCallReturnLabel_194:
        MOV     DPL,?XSP + 0
        MOV     DPH,?XSP + 1
        JNZ     ??MT_AfDataRequest_9
//  389     {
//  390       retValue = afStatus_MEM_FAIL;
        MOV     A,#0x10
        LJMP    ??MT_AfDataRequest_7 & 0xFFFF
//  391     }
//  392     else
//  393     {
//  394       retValue = afStatus_SUCCESS;
??MT_AfDataRequest_9:
        CLR     A
        LCALL   ?Subroutine42 & 0xFFFF
//  395 
//  396       pMtAfDataReq->data = (uint8 *)(pMtAfDataReq+1);
??CrossCallReturnLabel_75:
        ADD     A,#0x18
        MOV     R0,A
        INC     DPTR
        MOVX    A,@DPTR
        ADDC    A,#0x0
        MOV     R1,A
        MOV     DPTR,#pMtAfDataReq
        LCALL   ?Subroutine58 & 0xFFFF
??CrossCallReturnLabel_138:
        MOV     DPH,A
        MOV     DPL,R2
        LCALL   ?Subroutine44 & 0xFFFF
//  397       (void)osal_memcpy(&(pMtAfDataReq->dstAddr), &dstAddr, sizeof(afAddrType_t));
??CrossCallReturnLabel_82:
        ; Setup parameters for call to function osal_memcpy
        MOV     A,#0x7
        LCALL   ?XSTACK_DISP0_8
        MOV     R1,DPL
        MOV     R2,DPH
        MOV     ?V0 + 0,R1
        MOV     ?V0 + 1,R2
        MOV     ?V0 + 2,#0x0
        MOV     R0,#?V0 + 0
        LCALL   ?PUSH_XSTACK_I_THREE
        CFI CFA_XSP16 add(XSP16, 38)
        MOV     R4,#0xc
        MOV     R5,#0x0
        LCALL   ?Subroutine25 & 0xFFFF
??CrossCallReturnLabel_205:
        LCALL   ??Subroutine75_0 & 0xFFFF
??CrossCallReturnLabel_174:
        LCALL   ?DEALLOC_XSTACK8
        CFI CFA_XSP16 add(XSP16, 35)
//  398       pMtAfDataReq->epDesc = epDesc;
        MOV     A,#0x4
        LCALL   ?XSTACK_DISP0_8
        LCALL   ??Subroutine69_0 & 0xFFFF
??CrossCallReturnLabel_132:
        MOV     DPTR,#pMtAfDataReq
        MOVX    A,@DPTR
        ADD     A,#0xe
        LCALL   ??Subroutine72_0 & 0xFFFF
??CrossCallReturnLabel_151:
        LCALL   ?Subroutine39 & 0xFFFF
//  399       pMtAfDataReq->cId = cId;
??CrossCallReturnLabel_65:
        LCALL   ?Subroutine9 & 0xFFFF
??CrossCallReturnLabel_159:
        MOV     A,?V0 + 4
        MOVX    @DPTR,A
        INC     DPTR
        MOV     A,?V0 + 5
        LCALL   ?Subroutine42 & 0xFFFF
//  400       pMtAfDataReq->dataLen = dataLen;
??CrossCallReturnLabel_76:
        ADD     A,#0x12
        LCALL   ??Subroutine72_0 & 0xFFFF
??CrossCallReturnLabel_152:
        MOV     A,R6
        MOVX    @DPTR,A
        INC     DPTR
        MOV     A,R7
        MOVX    @DPTR,A
//  401       pMtAfDataReq->transId = transId;
        MOV     A,#0x2
        LCALL   ?XSTACK_DISP0_8
        MOVX    A,@DPTR
        PUSH    A
        CFI CFA_SP SP+-1
        MOV     DPTR,#pMtAfDataReq
        MOVX    A,@DPTR
        ADD     A,#0x14
        LCALL   ??Subroutine72_0 & 0xFFFF
??CrossCallReturnLabel_153:
        POP     A
        CFI CFA_SP SP+0
        MOVX    @DPTR,A
//  402       pMtAfDataReq->txOpts = txOpts;
        MOV     A,#0x3
        LCALL   ?XSTACK_DISP0_8
        MOVX    A,@DPTR
        PUSH    A
        CFI CFA_SP SP+-1
        MOV     DPTR,#pMtAfDataReq
        MOVX    A,@DPTR
        ADD     A,#0x15
        LCALL   ??Subroutine72_0 & 0xFFFF
??CrossCallReturnLabel_154:
        POP     A
        CFI CFA_SP SP+0
        LCALL   ?Subroutine42 & 0xFFFF
//  403       pMtAfDataReq->radius = radius;
??CrossCallReturnLabel_77:
        ADD     A,#0x16
        LCALL   ??Subroutine72_0 & 0xFFFF
??CrossCallReturnLabel_155:
        MOV     A,?V0 + 3
        LCALL   ?Subroutine42 & 0xFFFF
//  404 
//  405       // Setup to time-out the huge outgoing item if host does not MT_AF_DATA_STORE it.
//  406       pMtAfDataReq->tick = MT_AF_EXEC_CNT;
??CrossCallReturnLabel_78:
        ADD     A,#0x17
        LCALL   ??Subroutine72_0 & 0xFFFF
??CrossCallReturnLabel_156:
        LCALL   ?Subroutine22 & 0xFFFF
//  407       if (ZSuccess != osal_start_timerEx(MT_TaskID, MT_AF_EXEC_EVT, MT_AF_EXEC_DLY))
??CrossCallReturnLabel_118:
        JZ      ??MT_AfDataRequest_10
//  408       {
//  409         (void)osal_set_event(MT_TaskID, MT_AF_EXEC_EVT);
        ; Setup parameters for call to function osal_set_event
        LCALL   ?Subroutine27 & 0xFFFF
//  410       }
//  411     }
//  412   }
??CrossCallReturnLabel_45:
        SJMP    ??MT_AfDataRequest_10
//  413   else
//  414   {
//  415     retValue = AF_DataRequest(&dstAddr, epDesc, cId, dataLen, pBuf, &transId, txOpts, radius);
??MT_AfDataRequest_8:
        ; Setup parameters for call to function AF_DataRequest
        MOV     A,?V0 + 3
        MOV     ?V0 + 2,A
        MOV     R0,#?V0 + 2
        LCALL   ?PUSH_XSTACK_I_ONE
        CFI CFA_XSP16 add(XSP16, 36)
        MOV     A,#0x3
        LCALL   ?XSTACK_DISP0_8
        MOV     ?V0 + 2,DPL
        MOV     ?V0 + 3,DPH
        MOV     R0,#?V0 + 2
        LCALL   ?PUSH_XSTACK_I_TWO
        CFI CFA_XSP16 add(XSP16, 38)
        MOV     R0,#?V0 + 0
        LCALL   ?PUSH_XSTACK_I_TWO
        CFI CFA_XSP16 add(XSP16, 40)
        MOV     ?V0 + 0,R6
        MOV     ?V0 + 1,R7
        MOV     R0,#?V0 + 0
        LCALL   ?PUSH_XSTACK_I_TWO
        CFI CFA_XSP16 add(XSP16, 42)
        MOV     R0,#?V0 + 4
        LCALL   ?PUSH_XSTACK_I_TWO
        CFI CFA_XSP16 add(XSP16, 44)
        MOV     A,#0xc
        LCALL   ?XSTACK_DISP0_8
        MOVX    A,@DPTR
        MOV     R1,A
        MOV     A,#0xd
        LCALL   ?XSTACK_DISP0_8
        LCALL   ?Subroutine16 & 0xFFFF
//  416   }
??CrossCallReturnLabel_22:
        MOV     A,#0x10
        LCALL   ?XSTACK_DISP0_8
        MOV     R2,DPL
        MOV     R3,DPH
        LCALL   ??AF_DataRequest?relay
        MOV     A,#0x9
        LCALL   ?DEALLOC_XSTACK8
        CFI CFA_XSP16 add(XSP16, 35)
        MOV     A,R1
        MOV     DPL,?XSP + 0
        MOV     DPH,?XSP + 1
??MT_AfDataRequest_7:
        MOVX    @DPTR,A
//  417 
//  418   if (MT_RPC_CMD_SREQ == (cmd0 & MT_RPC_CMD_TYPE_MASK))
??MT_AfDataRequest_10:
        MOV     A,#0x6
        LCALL   ?XSTACK_DISP0_8
        MOVX    A,@DPTR
        ANL     A,#0xe0
        XRL     A,#0x20
        JNZ     ??CrossCallReturnLabel_42
//  419   {
//  420     MT_BuildAndSendZToolResponse(((uint8)MT_RPC_CMD_SRSP|(uint8)MT_RPC_SYS_AF), cmd1, 1, &retValue);
        ; Setup parameters for call to function MT_BuildAndSendZToolResponse
        MOV     DPL,?XSP + 0
        MOV     DPH,?XSP + 1
        MOV     R4,DPL
        MOV     R5,DPH
        MOV     R3,#0x1
        MOV     A,R3
        LCALL   ?XSTACK_DISP0_8
        LCALL   ?Subroutine26 & 0xFFFF
//  421   }
//  422 }
??CrossCallReturnLabel_42:
        MOV     A,#0x13
        LJMP    ?Subroutine1 & 0xFFFF
        CFI EndBlock cfiBlock7

        RSEG BANKED_CODE:CODE:NOROOT(0)
?Subroutine42:
        CFI Block cfiCond8 Using cfiCommon0
        CFI NoFunction
        CFI Conditional ??CrossCallReturnLabel_75
        CFI R6 load(1, XDATA, add(CFA_XSP16, literal(-16)))
        CFI VB load(1, XDATA, add(CFA_XSP16, literal(-15)))
        CFI V0 load(1, XDATA, add(CFA_XSP16, literal(-14)))
        CFI V1 load(1, XDATA, add(CFA_XSP16, literal(-13)))
        CFI V2 load(1, XDATA, add(CFA_XSP16, literal(-12)))
        CFI V3 load(1, XDATA, add(CFA_XSP16, literal(-11)))
        CFI V4 load(1, XDATA, add(CFA_XSP16, literal(-10)))
        CFI V5 load(1, XDATA, add(CFA_XSP16, literal(-9)))
        CFI V6 load(1, XDATA, add(CFA_XSP16, literal(-8)))
        CFI V7 load(1, XDATA, add(CFA_XSP16, literal(-7)))
        CFI R7 load(1, XDATA, add(CFA_XSP16, literal(-6)))
        CFI ?RET_LOW load(1, XDATA, add(CFA_XSP16, literal(-5)))
        CFI ?RET_HIGH load(1, XDATA, add(CFA_XSP16, literal(-4)))
        CFI ?BRET_EXT load(1, XDATA, add(CFA_XSP16, literal(-3)))
        CFI DPL0 load(1, XDATA, add(CFA_XSP16, literal(-2)))
        CFI DPH0 load(1, XDATA, add(CFA_XSP16, literal(-1)))
        CFI CFA_SP SP+0
        CFI CFA_XSP16 add(XSP16, 35)
        CFI Block cfiCond9 Using cfiCommon0
        CFI (cfiCond9) NoFunction
        CFI (cfiCond9) Conditional ??CrossCallReturnLabel_76
        CFI (cfiCond9) R6 load(1, XDATA, add(CFA_XSP16, literal(-16)))
        CFI (cfiCond9) VB load(1, XDATA, add(CFA_XSP16, literal(-15)))
        CFI (cfiCond9) V0 load(1, XDATA, add(CFA_XSP16, literal(-14)))
        CFI (cfiCond9) V1 load(1, XDATA, add(CFA_XSP16, literal(-13)))
        CFI (cfiCond9) V2 load(1, XDATA, add(CFA_XSP16, literal(-12)))
        CFI (cfiCond9) V3 load(1, XDATA, add(CFA_XSP16, literal(-11)))
        CFI (cfiCond9) V4 load(1, XDATA, add(CFA_XSP16, literal(-10)))
        CFI (cfiCond9) V5 load(1, XDATA, add(CFA_XSP16, literal(-9)))
        CFI (cfiCond9) V6 load(1, XDATA, add(CFA_XSP16, literal(-8)))
        CFI (cfiCond9) V7 load(1, XDATA, add(CFA_XSP16, literal(-7)))
        CFI (cfiCond9) R7 load(1, XDATA, add(CFA_XSP16, literal(-6)))
        CFI (cfiCond9) ?RET_LOW load(1, XDATA, add(CFA_XSP16, literal(-5)))
        CFI (cfiCond9) ?RET_HIGH load(1, XDATA, add(CFA_XSP16, literal(-4)))
        CFI (cfiCond9) ?BRET_EXT load(1, XDATA, add(CFA_XSP16, literal(-3)))
        CFI (cfiCond9) DPL0 load(1, XDATA, add(CFA_XSP16, literal(-2)))
        CFI (cfiCond9) DPH0 load(1, XDATA, add(CFA_XSP16, literal(-1)))
        CFI (cfiCond9) CFA_SP SP+0
        CFI (cfiCond9) CFA_XSP16 add(XSP16, 35)
        CFI Block cfiCond10 Using cfiCommon0
        CFI (cfiCond10) NoFunction
        CFI (cfiCond10) Conditional ??CrossCallReturnLabel_77
        CFI (cfiCond10) R6 load(1, XDATA, add(CFA_XSP16, literal(-16)))
        CFI (cfiCond10) VB load(1, XDATA, add(CFA_XSP16, literal(-15)))
        CFI (cfiCond10) V0 load(1, XDATA, add(CFA_XSP16, literal(-14)))
        CFI (cfiCond10) V1 load(1, XDATA, add(CFA_XSP16, literal(-13)))
        CFI (cfiCond10) V2 load(1, XDATA, add(CFA_XSP16, literal(-12)))
        CFI (cfiCond10) V3 load(1, XDATA, add(CFA_XSP16, literal(-11)))
        CFI (cfiCond10) V4 load(1, XDATA, add(CFA_XSP16, literal(-10)))
        CFI (cfiCond10) V5 load(1, XDATA, add(CFA_XSP16, literal(-9)))
        CFI (cfiCond10) V6 load(1, XDATA, add(CFA_XSP16, literal(-8)))
        CFI (cfiCond10) V7 load(1, XDATA, add(CFA_XSP16, literal(-7)))
        CFI (cfiCond10) R7 load(1, XDATA, add(CFA_XSP16, literal(-6)))
        CFI (cfiCond10) ?RET_LOW load(1, XDATA, add(CFA_XSP16, literal(-5)))
        CFI (cfiCond10) ?RET_HIGH load(1, XDATA, add(CFA_XSP16, literal(-4)))
        CFI (cfiCond10) ?BRET_EXT load(1, XDATA, add(CFA_XSP16, literal(-3)))
        CFI (cfiCond10) DPL0 load(1, XDATA, add(CFA_XSP16, literal(-2)))
        CFI (cfiCond10) DPH0 load(1, XDATA, add(CFA_XSP16, literal(-1)))
        CFI (cfiCond10) CFA_SP SP+0
        CFI (cfiCond10) CFA_XSP16 add(XSP16, 35)
        CFI Block cfiCond11 Using cfiCommon0
        CFI (cfiCond11) NoFunction
        CFI (cfiCond11) Conditional ??CrossCallReturnLabel_78
        CFI (cfiCond11) R6 load(1, XDATA, add(CFA_XSP16, literal(-16)))
        CFI (cfiCond11) VB load(1, XDATA, add(CFA_XSP16, literal(-15)))
        CFI (cfiCond11) V0 load(1, XDATA, add(CFA_XSP16, literal(-14)))
        CFI (cfiCond11) V1 load(1, XDATA, add(CFA_XSP16, literal(-13)))
        CFI (cfiCond11) V2 load(1, XDATA, add(CFA_XSP16, literal(-12)))
        CFI (cfiCond11) V3 load(1, XDATA, add(CFA_XSP16, literal(-11)))
        CFI (cfiCond11) V4 load(1, XDATA, add(CFA_XSP16, literal(-10)))
        CFI (cfiCond11) V5 load(1, XDATA, add(CFA_XSP16, literal(-9)))
        CFI (cfiCond11) V6 load(1, XDATA, add(CFA_XSP16, literal(-8)))
        CFI (cfiCond11) V7 load(1, XDATA, add(CFA_XSP16, literal(-7)))
        CFI (cfiCond11) R7 load(1, XDATA, add(CFA_XSP16, literal(-6)))
        CFI (cfiCond11) ?RET_LOW load(1, XDATA, add(CFA_XSP16, literal(-5)))
        CFI (cfiCond11) ?RET_HIGH load(1, XDATA, add(CFA_XSP16, literal(-4)))
        CFI (cfiCond11) ?BRET_EXT load(1, XDATA, add(CFA_XSP16, literal(-3)))
        CFI (cfiCond11) DPL0 load(1, XDATA, add(CFA_XSP16, literal(-2)))
        CFI (cfiCond11) DPH0 load(1, XDATA, add(CFA_XSP16, literal(-1)))
        CFI (cfiCond11) CFA_SP SP+0
        CFI (cfiCond11) CFA_XSP16 add(XSP16, 35)
        CFI Block cfiPicker12 Using cfiCommon1
        CFI (cfiPicker12) NoFunction
        CFI (cfiPicker12) Picker
        MOVX    @DPTR,A
        MOV     DPTR,#pMtAfDataReq
        MOVX    A,@DPTR
        RET
        CFI EndBlock cfiCond8
        CFI EndBlock cfiCond9
        CFI EndBlock cfiCond10
        CFI EndBlock cfiCond11
        CFI EndBlock cfiPicker12

        RSEG BANKED_CODE:CODE:NOROOT(0)
?Subroutine40:
        CFI Block cfiCond13 Using cfiCommon0
        CFI NoFunction
        CFI Conditional ??CrossCallReturnLabel_109
        CFI R6 load(1, XDATA, add(CFA_XSP16, literal(-16)))
        CFI VB load(1, XDATA, add(CFA_XSP16, literal(-15)))
        CFI V0 load(1, XDATA, add(CFA_XSP16, literal(-14)))
        CFI V1 load(1, XDATA, add(CFA_XSP16, literal(-13)))
        CFI V2 load(1, XDATA, add(CFA_XSP16, literal(-12)))
        CFI V3 load(1, XDATA, add(CFA_XSP16, literal(-11)))
        CFI V4 load(1, XDATA, add(CFA_XSP16, literal(-10)))
        CFI V5 load(1, XDATA, add(CFA_XSP16, literal(-9)))
        CFI V6 load(1, XDATA, add(CFA_XSP16, literal(-8)))
        CFI V7 load(1, XDATA, add(CFA_XSP16, literal(-7)))
        CFI R7 load(1, XDATA, add(CFA_XSP16, literal(-6)))
        CFI ?RET_LOW load(1, XDATA, add(CFA_XSP16, literal(-5)))
        CFI ?RET_HIGH load(1, XDATA, add(CFA_XSP16, literal(-4)))
        CFI ?BRET_EXT load(1, XDATA, add(CFA_XSP16, literal(-3)))
        CFI DPL0 load(1, XDATA, add(CFA_XSP16, literal(-2)))
        CFI DPH0 load(1, XDATA, add(CFA_XSP16, literal(-1)))
        CFI CFA_SP SP+0
        CFI CFA_XSP16 add(XSP16, 35)
        CFI Block cfiCond14 Using cfiCommon0
        CFI (cfiCond14) NoFunction
        CFI (cfiCond14) Conditional ??CrossCallReturnLabel_110
        CFI (cfiCond14) R6 load(1, XDATA, add(CFA_XSP16, literal(-16)))
        CFI (cfiCond14) VB load(1, XDATA, add(CFA_XSP16, literal(-15)))
        CFI (cfiCond14) V0 load(1, XDATA, add(CFA_XSP16, literal(-14)))
        CFI (cfiCond14) V1 load(1, XDATA, add(CFA_XSP16, literal(-13)))
        CFI (cfiCond14) V2 load(1, XDATA, add(CFA_XSP16, literal(-12)))
        CFI (cfiCond14) V3 load(1, XDATA, add(CFA_XSP16, literal(-11)))
        CFI (cfiCond14) V4 load(1, XDATA, add(CFA_XSP16, literal(-10)))
        CFI (cfiCond14) V5 load(1, XDATA, add(CFA_XSP16, literal(-9)))
        CFI (cfiCond14) V6 load(1, XDATA, add(CFA_XSP16, literal(-8)))
        CFI (cfiCond14) V7 load(1, XDATA, add(CFA_XSP16, literal(-7)))
        CFI (cfiCond14) R7 load(1, XDATA, add(CFA_XSP16, literal(-6)))
        CFI (cfiCond14) ?RET_LOW load(1, XDATA, add(CFA_XSP16, literal(-5)))
        CFI (cfiCond14) ?RET_HIGH load(1, XDATA, add(CFA_XSP16, literal(-4)))
        CFI (cfiCond14) ?BRET_EXT load(1, XDATA, add(CFA_XSP16, literal(-3)))
        CFI (cfiCond14) DPL0 load(1, XDATA, add(CFA_XSP16, literal(-2)))
        CFI (cfiCond14) DPH0 load(1, XDATA, add(CFA_XSP16, literal(-1)))
        CFI (cfiCond14) CFA_SP SP+0
        CFI (cfiCond14) CFA_XSP16 add(XSP16, 34)
        CFI Block cfiPicker15 Using cfiCommon1
        CFI (cfiPicker15) NoFunction
        CFI (cfiPicker15) Picker
        MOV     A,#0x2
        CFI EndBlock cfiCond13
        CFI EndBlock cfiCond14
        CFI EndBlock cfiPicker15
        REQUIRE ??Subroutine61_0
        ; // Fall through to label ??Subroutine61_0

        RSEG BANKED_CODE:CODE:NOROOT(0)
??Subroutine61_0:
        CFI Block cfiCond16 Using cfiCommon0
        CFI NoFunction
        CFI Conditional ??CrossCallReturnLabel_111
        CFI R6 load(1, XDATA, add(CFA_XSP16, literal(-16)))
        CFI VB load(1, XDATA, add(CFA_XSP16, literal(-15)))
        CFI V0 load(1, XDATA, add(CFA_XSP16, literal(-14)))
        CFI V1 load(1, XDATA, add(CFA_XSP16, literal(-13)))
        CFI V2 load(1, XDATA, add(CFA_XSP16, literal(-12)))
        CFI V3 load(1, XDATA, add(CFA_XSP16, literal(-11)))
        CFI V4 load(1, XDATA, add(CFA_XSP16, literal(-10)))
        CFI V5 load(1, XDATA, add(CFA_XSP16, literal(-9)))
        CFI V6 load(1, XDATA, add(CFA_XSP16, literal(-8)))
        CFI V7 load(1, XDATA, add(CFA_XSP16, literal(-7)))
        CFI R7 load(1, XDATA, add(CFA_XSP16, literal(-6)))
        CFI ?RET_LOW load(1, XDATA, add(CFA_XSP16, literal(-5)))
        CFI ?RET_HIGH load(1, XDATA, add(CFA_XSP16, literal(-4)))
        CFI ?BRET_EXT load(1, XDATA, add(CFA_XSP16, literal(-3)))
        CFI DPL0 load(1, XDATA, add(CFA_XSP16, literal(-2)))
        CFI DPH0 load(1, XDATA, add(CFA_XSP16, literal(-1)))
        CFI CFA_SP SP+0
        CFI CFA_XSP16 add(XSP16, 34)
        CFI Block cfiCond17 Using cfiCommon0
        CFI (cfiCond17) NoFunction
        CFI (cfiCond17) Conditional ??CrossCallReturnLabel_109
        CFI (cfiCond17) R6 load(1, XDATA, add(CFA_XSP16, literal(-16)))
        CFI (cfiCond17) VB load(1, XDATA, add(CFA_XSP16, literal(-15)))
        CFI (cfiCond17) V0 load(1, XDATA, add(CFA_XSP16, literal(-14)))
        CFI (cfiCond17) V1 load(1, XDATA, add(CFA_XSP16, literal(-13)))
        CFI (cfiCond17) V2 load(1, XDATA, add(CFA_XSP16, literal(-12)))
        CFI (cfiCond17) V3 load(1, XDATA, add(CFA_XSP16, literal(-11)))
        CFI (cfiCond17) V4 load(1, XDATA, add(CFA_XSP16, literal(-10)))
        CFI (cfiCond17) V5 load(1, XDATA, add(CFA_XSP16, literal(-9)))
        CFI (cfiCond17) V6 load(1, XDATA, add(CFA_XSP16, literal(-8)))
        CFI (cfiCond17) V7 load(1, XDATA, add(CFA_XSP16, literal(-7)))
        CFI (cfiCond17) R7 load(1, XDATA, add(CFA_XSP16, literal(-6)))
        CFI (cfiCond17) ?RET_LOW load(1, XDATA, add(CFA_XSP16, literal(-5)))
        CFI (cfiCond17) ?RET_HIGH load(1, XDATA, add(CFA_XSP16, literal(-4)))
        CFI (cfiCond17) ?BRET_EXT load(1, XDATA, add(CFA_XSP16, literal(-3)))
        CFI (cfiCond17) DPL0 load(1, XDATA, add(CFA_XSP16, literal(-2)))
        CFI (cfiCond17) DPH0 load(1, XDATA, add(CFA_XSP16, literal(-1)))
        CFI (cfiCond17) CFA_SP SP+0
        CFI (cfiCond17) CFA_XSP16 add(XSP16, 35)
        CFI Block cfiCond18 Using cfiCommon0
        CFI (cfiCond18) NoFunction
        CFI (cfiCond18) Conditional ??CrossCallReturnLabel_110
        CFI (cfiCond18) R6 load(1, XDATA, add(CFA_XSP16, literal(-16)))
        CFI (cfiCond18) VB load(1, XDATA, add(CFA_XSP16, literal(-15)))
        CFI (cfiCond18) V0 load(1, XDATA, add(CFA_XSP16, literal(-14)))
        CFI (cfiCond18) V1 load(1, XDATA, add(CFA_XSP16, literal(-13)))
        CFI (cfiCond18) V2 load(1, XDATA, add(CFA_XSP16, literal(-12)))
        CFI (cfiCond18) V3 load(1, XDATA, add(CFA_XSP16, literal(-11)))
        CFI (cfiCond18) V4 load(1, XDATA, add(CFA_XSP16, literal(-10)))
        CFI (cfiCond18) V5 load(1, XDATA, add(CFA_XSP16, literal(-9)))
        CFI (cfiCond18) V6 load(1, XDATA, add(CFA_XSP16, literal(-8)))
        CFI (cfiCond18) V7 load(1, XDATA, add(CFA_XSP16, literal(-7)))
        CFI (cfiCond18) R7 load(1, XDATA, add(CFA_XSP16, literal(-6)))
        CFI (cfiCond18) ?RET_LOW load(1, XDATA, add(CFA_XSP16, literal(-5)))
        CFI (cfiCond18) ?RET_HIGH load(1, XDATA, add(CFA_XSP16, literal(-4)))
        CFI (cfiCond18) ?BRET_EXT load(1, XDATA, add(CFA_XSP16, literal(-3)))
        CFI (cfiCond18) DPL0 load(1, XDATA, add(CFA_XSP16, literal(-2)))
        CFI (cfiCond18) DPH0 load(1, XDATA, add(CFA_XSP16, literal(-1)))
        CFI (cfiCond18) CFA_SP SP+0
        CFI (cfiCond18) CFA_XSP16 add(XSP16, 34)
        CFI Block cfiPicker19 Using cfiCommon1
        CFI (cfiPicker19) NoFunction
        CFI (cfiPicker19) Picker
        MOVX    @DPTR,A
        MOV     DPL,?V0 + 0
        MOV     DPH,?V0 + 1
        RET
        CFI EndBlock cfiCond16
        CFI EndBlock cfiCond17
        CFI EndBlock cfiCond18
        CFI EndBlock cfiPicker19

        RSEG BANKED_CODE:CODE:NOROOT(0)
?Subroutine35:
        CFI Block cfiCond20 Using cfiCommon0
        CFI NoFunction
        CFI Conditional ??CrossCallReturnLabel_57
        CFI R6 load(1, XDATA, add(CFA_XSP16, literal(-14)))
        CFI VB load(1, XDATA, add(CFA_XSP16, literal(-13)))
        CFI V0 load(1, XDATA, add(CFA_XSP16, literal(-12)))
        CFI V1 load(1, XDATA, add(CFA_XSP16, literal(-11)))
        CFI V2 load(1, XDATA, add(CFA_XSP16, literal(-10)))
        CFI V3 load(1, XDATA, add(CFA_XSP16, literal(-9)))
        CFI V4 load(1, XDATA, add(CFA_XSP16, literal(-8)))
        CFI V5 load(1, XDATA, add(CFA_XSP16, literal(-7)))
        CFI R7 load(1, XDATA, add(CFA_XSP16, literal(-6)))
        CFI ?RET_LOW load(1, XDATA, add(CFA_XSP16, literal(-5)))
        CFI ?RET_HIGH load(1, XDATA, add(CFA_XSP16, literal(-4)))
        CFI ?BRET_EXT load(1, XDATA, add(CFA_XSP16, literal(-3)))
        CFI DPL0 load(1, XDATA, add(CFA_XSP16, literal(-2)))
        CFI DPH0 load(1, XDATA, add(CFA_XSP16, literal(-1)))
        CFI CFA_SP SP+0
        CFI CFA_XSP16 add(XSP16, 15)
        CFI Block cfiCond21 Using cfiCommon0
        CFI (cfiCond21) NoFunction
        CFI (cfiCond21) Conditional ??CrossCallReturnLabel_58
        CFI (cfiCond21) R6 load(1, XDATA, add(CFA_XSP16, literal(-16)))
        CFI (cfiCond21) VB load(1, XDATA, add(CFA_XSP16, literal(-15)))
        CFI (cfiCond21) V0 load(1, XDATA, add(CFA_XSP16, literal(-14)))
        CFI (cfiCond21) V1 load(1, XDATA, add(CFA_XSP16, literal(-13)))
        CFI (cfiCond21) V2 load(1, XDATA, add(CFA_XSP16, literal(-12)))
        CFI (cfiCond21) V3 load(1, XDATA, add(CFA_XSP16, literal(-11)))
        CFI (cfiCond21) V4 load(1, XDATA, add(CFA_XSP16, literal(-10)))
        CFI (cfiCond21) V5 load(1, XDATA, add(CFA_XSP16, literal(-9)))
        CFI (cfiCond21) V6 load(1, XDATA, add(CFA_XSP16, literal(-8)))
        CFI (cfiCond21) V7 load(1, XDATA, add(CFA_XSP16, literal(-7)))
        CFI (cfiCond21) R7 load(1, XDATA, add(CFA_XSP16, literal(-6)))
        CFI (cfiCond21) ?RET_LOW load(1, XDATA, add(CFA_XSP16, literal(-5)))
        CFI (cfiCond21) ?RET_HIGH load(1, XDATA, add(CFA_XSP16, literal(-4)))
        CFI (cfiCond21) ?BRET_EXT load(1, XDATA, add(CFA_XSP16, literal(-3)))
        CFI (cfiCond21) DPL0 load(1, XDATA, add(CFA_XSP16, literal(-2)))
        CFI (cfiCond21) DPH0 load(1, XDATA, add(CFA_XSP16, literal(-1)))
        CFI (cfiCond21) CFA_SP SP+0
        CFI (cfiCond21) CFA_XSP16 add(XSP16, 35)
        CFI Block cfiCond22 Using cfiCommon0
        CFI (cfiCond22) NoFunction
        CFI (cfiCond22) Conditional ??CrossCallReturnLabel_59
        CFI (cfiCond22) R6 load(1, XDATA, add(CFA_XSP16, literal(-16)))
        CFI (cfiCond22) VB load(1, XDATA, add(CFA_XSP16, literal(-15)))
        CFI (cfiCond22) V0 load(1, XDATA, add(CFA_XSP16, literal(-14)))
        CFI (cfiCond22) V1 load(1, XDATA, add(CFA_XSP16, literal(-13)))
        CFI (cfiCond22) V2 load(1, XDATA, add(CFA_XSP16, literal(-12)))
        CFI (cfiCond22) V3 load(1, XDATA, add(CFA_XSP16, literal(-11)))
        CFI (cfiCond22) V4 load(1, XDATA, add(CFA_XSP16, literal(-10)))
        CFI (cfiCond22) V5 load(1, XDATA, add(CFA_XSP16, literal(-9)))
        CFI (cfiCond22) V6 load(1, XDATA, add(CFA_XSP16, literal(-8)))
        CFI (cfiCond22) V7 load(1, XDATA, add(CFA_XSP16, literal(-7)))
        CFI (cfiCond22) R7 load(1, XDATA, add(CFA_XSP16, literal(-6)))
        CFI (cfiCond22) ?RET_LOW load(1, XDATA, add(CFA_XSP16, literal(-5)))
        CFI (cfiCond22) ?RET_HIGH load(1, XDATA, add(CFA_XSP16, literal(-4)))
        CFI (cfiCond22) ?BRET_EXT load(1, XDATA, add(CFA_XSP16, literal(-3)))
        CFI (cfiCond22) DPL0 load(1, XDATA, add(CFA_XSP16, literal(-2)))
        CFI (cfiCond22) DPH0 load(1, XDATA, add(CFA_XSP16, literal(-1)))
        CFI (cfiCond22) CFA_SP SP+0
        CFI (cfiCond22) CFA_XSP16 add(XSP16, 34)
        CFI Block cfiPicker23 Using cfiCommon1
        CFI (cfiPicker23) NoFunction
        CFI (cfiPicker23) Picker
        MOVX    @DPTR,A
        MOV     DPL,R2
        MOV     DPH,R3
        INC     DPTR
        INC     DPTR
        MOVX    A,@DPTR
        RET
        CFI EndBlock cfiCond20
        CFI EndBlock cfiCond21
        CFI EndBlock cfiCond22
        CFI EndBlock cfiPicker23

        RSEG BANKED_CODE:CODE:NOROOT(0)
?Subroutine34:
        CFI Block cfiCond24 Using cfiCommon0
        CFI NoFunction
        CFI Conditional ??CrossCallReturnLabel_55
        CFI R6 load(1, XDATA, add(CFA_XSP16, literal(-16)))
        CFI VB load(1, XDATA, add(CFA_XSP16, literal(-15)))
        CFI V0 load(1, XDATA, add(CFA_XSP16, literal(-14)))
        CFI V1 load(1, XDATA, add(CFA_XSP16, literal(-13)))
        CFI V2 load(1, XDATA, add(CFA_XSP16, literal(-12)))
        CFI V3 load(1, XDATA, add(CFA_XSP16, literal(-11)))
        CFI V4 load(1, XDATA, add(CFA_XSP16, literal(-10)))
        CFI V5 load(1, XDATA, add(CFA_XSP16, literal(-9)))
        CFI V6 load(1, XDATA, add(CFA_XSP16, literal(-8)))
        CFI V7 load(1, XDATA, add(CFA_XSP16, literal(-7)))
        CFI R7 load(1, XDATA, add(CFA_XSP16, literal(-6)))
        CFI ?RET_LOW load(1, XDATA, add(CFA_XSP16, literal(-5)))
        CFI ?RET_HIGH load(1, XDATA, add(CFA_XSP16, literal(-4)))
        CFI ?BRET_EXT load(1, XDATA, add(CFA_XSP16, literal(-3)))
        CFI DPL0 load(1, XDATA, add(CFA_XSP16, literal(-2)))
        CFI DPH0 load(1, XDATA, add(CFA_XSP16, literal(-1)))
        CFI CFA_SP SP+0
        CFI CFA_XSP16 add(XSP16, 35)
        CFI Block cfiCond25 Using cfiCommon0
        CFI (cfiCond25) NoFunction
        CFI (cfiCond25) Conditional ??CrossCallReturnLabel_56
        CFI (cfiCond25) R6 load(1, XDATA, add(CFA_XSP16, literal(-16)))
        CFI (cfiCond25) VB load(1, XDATA, add(CFA_XSP16, literal(-15)))
        CFI (cfiCond25) V0 load(1, XDATA, add(CFA_XSP16, literal(-14)))
        CFI (cfiCond25) V1 load(1, XDATA, add(CFA_XSP16, literal(-13)))
        CFI (cfiCond25) V2 load(1, XDATA, add(CFA_XSP16, literal(-12)))
        CFI (cfiCond25) V3 load(1, XDATA, add(CFA_XSP16, literal(-11)))
        CFI (cfiCond25) V4 load(1, XDATA, add(CFA_XSP16, literal(-10)))
        CFI (cfiCond25) V5 load(1, XDATA, add(CFA_XSP16, literal(-9)))
        CFI (cfiCond25) V6 load(1, XDATA, add(CFA_XSP16, literal(-8)))
        CFI (cfiCond25) V7 load(1, XDATA, add(CFA_XSP16, literal(-7)))
        CFI (cfiCond25) R7 load(1, XDATA, add(CFA_XSP16, literal(-6)))
        CFI (cfiCond25) ?RET_LOW load(1, XDATA, add(CFA_XSP16, literal(-5)))
        CFI (cfiCond25) ?RET_HIGH load(1, XDATA, add(CFA_XSP16, literal(-4)))
        CFI (cfiCond25) ?BRET_EXT load(1, XDATA, add(CFA_XSP16, literal(-3)))
        CFI (cfiCond25) DPL0 load(1, XDATA, add(CFA_XSP16, literal(-2)))
        CFI (cfiCond25) DPH0 load(1, XDATA, add(CFA_XSP16, literal(-1)))
        CFI (cfiCond25) CFA_SP SP+0
        CFI (cfiCond25) CFA_XSP16 add(XSP16, 35)
        CFI Block cfiPicker26 Using cfiCommon1
        CFI (cfiPicker26) NoFunction
        CFI (cfiPicker26) Picker
        LCALL   ?Subroutine55 & 0xFFFF
??CrossCallReturnLabel_103:
        RET
        CFI EndBlock cfiCond24
        CFI EndBlock cfiCond25
        CFI EndBlock cfiPicker26

        RSEG BANKED_CODE:CODE:NOROOT(0)
?Subroutine55:
        CFI Block cfiCond27 Using cfiCommon0
        CFI NoFunction
        CFI Conditional ??CrossCallReturnLabel_103, ??CrossCallReturnLabel_55
        CFI R6 load(1, XDATA, add(CFA_XSP16, literal(-16)))
        CFI VB load(1, XDATA, add(CFA_XSP16, literal(-15)))
        CFI V0 load(1, XDATA, add(CFA_XSP16, literal(-14)))
        CFI V1 load(1, XDATA, add(CFA_XSP16, literal(-13)))
        CFI V2 load(1, XDATA, add(CFA_XSP16, literal(-12)))
        CFI V3 load(1, XDATA, add(CFA_XSP16, literal(-11)))
        CFI V4 load(1, XDATA, add(CFA_XSP16, literal(-10)))
        CFI V5 load(1, XDATA, add(CFA_XSP16, literal(-9)))
        CFI V6 load(1, XDATA, add(CFA_XSP16, literal(-8)))
        CFI V7 load(1, XDATA, add(CFA_XSP16, literal(-7)))
        CFI R7 load(1, XDATA, add(CFA_XSP16, literal(-6)))
        CFI ?RET_LOW load(1, XDATA, add(CFA_XSP16, literal(-5)))
        CFI ?RET_HIGH load(1, XDATA, add(CFA_XSP16, literal(-4)))
        CFI ?BRET_EXT load(1, XDATA, add(CFA_XSP16, literal(-3)))
        CFI DPL0 load(1, XDATA, add(CFA_XSP16, literal(-2)))
        CFI DPH0 load(1, XDATA, add(CFA_XSP16, literal(-1)))
        CFI CFA_SP SP+0
        CFI CFA_XSP16 add(XSP16, 35)
        CFI Block cfiCond28 Using cfiCommon0
        CFI (cfiCond28) NoFunction
        CFI (cfiCond28) Conditional ??CrossCallReturnLabel_103, ??CrossCallReturnLabel_56
        CFI (cfiCond28) R6 load(1, XDATA, add(CFA_XSP16, literal(-16)))
        CFI (cfiCond28) VB load(1, XDATA, add(CFA_XSP16, literal(-15)))
        CFI (cfiCond28) V0 load(1, XDATA, add(CFA_XSP16, literal(-14)))
        CFI (cfiCond28) V1 load(1, XDATA, add(CFA_XSP16, literal(-13)))
        CFI (cfiCond28) V2 load(1, XDATA, add(CFA_XSP16, literal(-12)))
        CFI (cfiCond28) V3 load(1, XDATA, add(CFA_XSP16, literal(-11)))
        CFI (cfiCond28) V4 load(1, XDATA, add(CFA_XSP16, literal(-10)))
        CFI (cfiCond28) V5 load(1, XDATA, add(CFA_XSP16, literal(-9)))
        CFI (cfiCond28) V6 load(1, XDATA, add(CFA_XSP16, literal(-8)))
        CFI (cfiCond28) V7 load(1, XDATA, add(CFA_XSP16, literal(-7)))
        CFI (cfiCond28) R7 load(1, XDATA, add(CFA_XSP16, literal(-6)))
        CFI (cfiCond28) ?RET_LOW load(1, XDATA, add(CFA_XSP16, literal(-5)))
        CFI (cfiCond28) ?RET_HIGH load(1, XDATA, add(CFA_XSP16, literal(-4)))
        CFI (cfiCond28) ?BRET_EXT load(1, XDATA, add(CFA_XSP16, literal(-3)))
        CFI (cfiCond28) DPL0 load(1, XDATA, add(CFA_XSP16, literal(-2)))
        CFI (cfiCond28) DPH0 load(1, XDATA, add(CFA_XSP16, literal(-1)))
        CFI (cfiCond28) CFA_SP SP+0
        CFI (cfiCond28) CFA_XSP16 add(XSP16, 35)
        CFI Block cfiCond29 Using cfiCommon0
        CFI (cfiCond29) NoFunction
        CFI (cfiCond29) Conditional ??CrossCallReturnLabel_102, ??CrossCallReturnLabel_52
        CFI (cfiCond29) R6 load(1, XDATA, add(CFA_XSP16, literal(-16)))
        CFI (cfiCond29) VB load(1, XDATA, add(CFA_XSP16, literal(-15)))
        CFI (cfiCond29) V0 load(1, XDATA, add(CFA_XSP16, literal(-14)))
        CFI (cfiCond29) V1 load(1, XDATA, add(CFA_XSP16, literal(-13)))
        CFI (cfiCond29) V2 load(1, XDATA, add(CFA_XSP16, literal(-12)))
        CFI (cfiCond29) V3 load(1, XDATA, add(CFA_XSP16, literal(-11)))
        CFI (cfiCond29) V4 load(1, XDATA, add(CFA_XSP16, literal(-10)))
        CFI (cfiCond29) V5 load(1, XDATA, add(CFA_XSP16, literal(-9)))
        CFI (cfiCond29) V6 load(1, XDATA, add(CFA_XSP16, literal(-8)))
        CFI (cfiCond29) V7 load(1, XDATA, add(CFA_XSP16, literal(-7)))
        CFI (cfiCond29) R7 load(1, XDATA, add(CFA_XSP16, literal(-6)))
        CFI (cfiCond29) ?RET_LOW load(1, XDATA, add(CFA_XSP16, literal(-5)))
        CFI (cfiCond29) ?RET_HIGH load(1, XDATA, add(CFA_XSP16, literal(-4)))
        CFI (cfiCond29) ?BRET_EXT load(1, XDATA, add(CFA_XSP16, literal(-3)))
        CFI (cfiCond29) DPL0 load(1, XDATA, add(CFA_XSP16, literal(-2)))
        CFI (cfiCond29) DPH0 load(1, XDATA, add(CFA_XSP16, literal(-1)))
        CFI (cfiCond29) CFA_SP SP+0
        CFI (cfiCond29) CFA_XSP16 add(XSP16, 35)
        CFI Block cfiCond30 Using cfiCommon0
        CFI (cfiCond30) NoFunction
        CFI (cfiCond30) Conditional ??CrossCallReturnLabel_102, ??CrossCallReturnLabel_53
        CFI (cfiCond30) R6 load(1, XDATA, add(CFA_XSP16, literal(-16)))
        CFI (cfiCond30) VB load(1, XDATA, add(CFA_XSP16, literal(-15)))
        CFI (cfiCond30) V0 load(1, XDATA, add(CFA_XSP16, literal(-14)))
        CFI (cfiCond30) V1 load(1, XDATA, add(CFA_XSP16, literal(-13)))
        CFI (cfiCond30) V2 load(1, XDATA, add(CFA_XSP16, literal(-12)))
        CFI (cfiCond30) V3 load(1, XDATA, add(CFA_XSP16, literal(-11)))
        CFI (cfiCond30) V4 load(1, XDATA, add(CFA_XSP16, literal(-10)))
        CFI (cfiCond30) V5 load(1, XDATA, add(CFA_XSP16, literal(-9)))
        CFI (cfiCond30) V6 load(1, XDATA, add(CFA_XSP16, literal(-8)))
        CFI (cfiCond30) V7 load(1, XDATA, add(CFA_XSP16, literal(-7)))
        CFI (cfiCond30) R7 load(1, XDATA, add(CFA_XSP16, literal(-6)))
        CFI (cfiCond30) ?RET_LOW load(1, XDATA, add(CFA_XSP16, literal(-5)))
        CFI (cfiCond30) ?RET_HIGH load(1, XDATA, add(CFA_XSP16, literal(-4)))
        CFI (cfiCond30) ?BRET_EXT load(1, XDATA, add(CFA_XSP16, literal(-3)))
        CFI (cfiCond30) DPL0 load(1, XDATA, add(CFA_XSP16, literal(-2)))
        CFI (cfiCond30) DPH0 load(1, XDATA, add(CFA_XSP16, literal(-1)))
        CFI (cfiCond30) CFA_SP SP+0
        CFI (cfiCond30) CFA_XSP16 add(XSP16, 35)
        CFI Block cfiCond31 Using cfiCommon0
        CFI (cfiCond31) NoFunction
        CFI (cfiCond31) Conditional ??CrossCallReturnLabel_102, ??CrossCallReturnLabel_54
        CFI (cfiCond31) R6 load(1, XDATA, add(CFA_XSP16, literal(-16)))
        CFI (cfiCond31) VB load(1, XDATA, add(CFA_XSP16, literal(-15)))
        CFI (cfiCond31) V0 load(1, XDATA, add(CFA_XSP16, literal(-14)))
        CFI (cfiCond31) V1 load(1, XDATA, add(CFA_XSP16, literal(-13)))
        CFI (cfiCond31) V2 load(1, XDATA, add(CFA_XSP16, literal(-12)))
        CFI (cfiCond31) V3 load(1, XDATA, add(CFA_XSP16, literal(-11)))
        CFI (cfiCond31) V4 load(1, XDATA, add(CFA_XSP16, literal(-10)))
        CFI (cfiCond31) V5 load(1, XDATA, add(CFA_XSP16, literal(-9)))
        CFI (cfiCond31) V6 load(1, XDATA, add(CFA_XSP16, literal(-8)))
        CFI (cfiCond31) V7 load(1, XDATA, add(CFA_XSP16, literal(-7)))
        CFI (cfiCond31) R7 load(1, XDATA, add(CFA_XSP16, literal(-6)))
        CFI (cfiCond31) ?RET_LOW load(1, XDATA, add(CFA_XSP16, literal(-5)))
        CFI (cfiCond31) ?RET_HIGH load(1, XDATA, add(CFA_XSP16, literal(-4)))
        CFI (cfiCond31) ?BRET_EXT load(1, XDATA, add(CFA_XSP16, literal(-3)))
        CFI (cfiCond31) DPL0 load(1, XDATA, add(CFA_XSP16, literal(-2)))
        CFI (cfiCond31) DPH0 load(1, XDATA, add(CFA_XSP16, literal(-1)))
        CFI (cfiCond31) CFA_SP SP+0
        CFI (cfiCond31) CFA_XSP16 add(XSP16, 34)
        CFI Block cfiPicker32 Using cfiCommon1
        CFI (cfiPicker32) NoFunction
        CFI (cfiPicker32) Picker
        LCALL   ?Subroutine60 & 0xFFFF
??CrossCallReturnLabel_108:
        MOV     ?V0 + 0,DPL
        MOV     ?V0 + 1,DPH
        RET
        CFI EndBlock cfiCond27
        CFI EndBlock cfiCond28
        CFI EndBlock cfiCond29
        CFI EndBlock cfiCond30
        CFI EndBlock cfiCond31
        CFI EndBlock cfiPicker32

        RSEG BANKED_CODE:CODE:NOROOT(0)
?Subroutine29:
        CFI Block cfiCond33 Using cfiCommon0
        CFI NoFunction
        CFI Conditional ??CrossCallReturnLabel_112
        CFI R6 load(1, XDATA, add(CFA_XSP16, literal(-16)))
        CFI VB load(1, XDATA, add(CFA_XSP16, literal(-15)))
        CFI V0 load(1, XDATA, add(CFA_XSP16, literal(-14)))
        CFI V1 load(1, XDATA, add(CFA_XSP16, literal(-13)))
        CFI V2 load(1, XDATA, add(CFA_XSP16, literal(-12)))
        CFI V3 load(1, XDATA, add(CFA_XSP16, literal(-11)))
        CFI V4 load(1, XDATA, add(CFA_XSP16, literal(-10)))
        CFI V5 load(1, XDATA, add(CFA_XSP16, literal(-9)))
        CFI V6 load(1, XDATA, add(CFA_XSP16, literal(-8)))
        CFI V7 load(1, XDATA, add(CFA_XSP16, literal(-7)))
        CFI R7 load(1, XDATA, add(CFA_XSP16, literal(-6)))
        CFI ?RET_LOW load(1, XDATA, add(CFA_XSP16, literal(-5)))
        CFI ?RET_HIGH load(1, XDATA, add(CFA_XSP16, literal(-4)))
        CFI ?BRET_EXT load(1, XDATA, add(CFA_XSP16, literal(-3)))
        CFI DPL0 load(1, XDATA, add(CFA_XSP16, literal(-2)))
        CFI DPH0 load(1, XDATA, add(CFA_XSP16, literal(-1)))
        CFI CFA_SP SP+0
        CFI CFA_XSP16 add(XSP16, 35)
        CFI Block cfiCond34 Using cfiCommon0
        CFI (cfiCond34) NoFunction
        CFI (cfiCond34) Conditional ??CrossCallReturnLabel_113
        CFI (cfiCond34) R6 load(1, XDATA, add(CFA_XSP16, literal(-16)))
        CFI (cfiCond34) VB load(1, XDATA, add(CFA_XSP16, literal(-15)))
        CFI (cfiCond34) V0 load(1, XDATA, add(CFA_XSP16, literal(-14)))
        CFI (cfiCond34) V1 load(1, XDATA, add(CFA_XSP16, literal(-13)))
        CFI (cfiCond34) V2 load(1, XDATA, add(CFA_XSP16, literal(-12)))
        CFI (cfiCond34) V3 load(1, XDATA, add(CFA_XSP16, literal(-11)))
        CFI (cfiCond34) V4 load(1, XDATA, add(CFA_XSP16, literal(-10)))
        CFI (cfiCond34) V5 load(1, XDATA, add(CFA_XSP16, literal(-9)))
        CFI (cfiCond34) V6 load(1, XDATA, add(CFA_XSP16, literal(-8)))
        CFI (cfiCond34) V7 load(1, XDATA, add(CFA_XSP16, literal(-7)))
        CFI (cfiCond34) R7 load(1, XDATA, add(CFA_XSP16, literal(-6)))
        CFI (cfiCond34) ?RET_LOW load(1, XDATA, add(CFA_XSP16, literal(-5)))
        CFI (cfiCond34) ?RET_HIGH load(1, XDATA, add(CFA_XSP16, literal(-4)))
        CFI (cfiCond34) ?BRET_EXT load(1, XDATA, add(CFA_XSP16, literal(-3)))
        CFI (cfiCond34) DPL0 load(1, XDATA, add(CFA_XSP16, literal(-2)))
        CFI (cfiCond34) DPH0 load(1, XDATA, add(CFA_XSP16, literal(-1)))
        CFI (cfiCond34) CFA_SP SP+0
        CFI (cfiCond34) CFA_XSP16 add(XSP16, 34)
        CFI Block cfiPicker35 Using cfiCommon1
        CFI (cfiPicker35) NoFunction
        CFI (cfiPicker35) Picker
        MOV     A,R0
        MOVX    @DPTR,A
        INC     DPTR
        MOV     A,R1
        MOVX    @DPTR,A
        CFI EndBlock cfiCond33
        CFI EndBlock cfiCond34
        CFI EndBlock cfiPicker35
        REQUIRE ??Subroutine62_0
        ; // Fall through to label ??Subroutine62_0

        RSEG BANKED_CODE:CODE:NOROOT(0)
??Subroutine62_0:
        CFI Block cfiCond36 Using cfiCommon0
        CFI NoFunction
        CFI Conditional ??CrossCallReturnLabel_114
        CFI R6 load(1, XDATA, add(CFA_XSP16, literal(-16)))
        CFI VB load(1, XDATA, add(CFA_XSP16, literal(-15)))
        CFI V0 load(1, XDATA, add(CFA_XSP16, literal(-14)))
        CFI V1 load(1, XDATA, add(CFA_XSP16, literal(-13)))
        CFI V2 load(1, XDATA, add(CFA_XSP16, literal(-12)))
        CFI V3 load(1, XDATA, add(CFA_XSP16, literal(-11)))
        CFI V4 load(1, XDATA, add(CFA_XSP16, literal(-10)))
        CFI V5 load(1, XDATA, add(CFA_XSP16, literal(-9)))
        CFI V6 load(1, XDATA, add(CFA_XSP16, literal(-8)))
        CFI V7 load(1, XDATA, add(CFA_XSP16, literal(-7)))
        CFI R7 load(1, XDATA, add(CFA_XSP16, literal(-6)))
        CFI ?RET_LOW load(1, XDATA, add(CFA_XSP16, literal(-5)))
        CFI ?RET_HIGH load(1, XDATA, add(CFA_XSP16, literal(-4)))
        CFI ?BRET_EXT load(1, XDATA, add(CFA_XSP16, literal(-3)))
        CFI DPL0 load(1, XDATA, add(CFA_XSP16, literal(-2)))
        CFI DPH0 load(1, XDATA, add(CFA_XSP16, literal(-1)))
        CFI CFA_SP SP+0
        CFI CFA_XSP16 add(XSP16, 35)
        CFI Block cfiCond37 Using cfiCommon0
        CFI (cfiCond37) NoFunction
        CFI (cfiCond37) Conditional ??CrossCallReturnLabel_115
        CFI (cfiCond37) R6 load(1, XDATA, add(CFA_XSP16, literal(-16)))
        CFI (cfiCond37) VB load(1, XDATA, add(CFA_XSP16, literal(-15)))
        CFI (cfiCond37) V0 load(1, XDATA, add(CFA_XSP16, literal(-14)))
        CFI (cfiCond37) V1 load(1, XDATA, add(CFA_XSP16, literal(-13)))
        CFI (cfiCond37) V2 load(1, XDATA, add(CFA_XSP16, literal(-12)))
        CFI (cfiCond37) V3 load(1, XDATA, add(CFA_XSP16, literal(-11)))
        CFI (cfiCond37) V4 load(1, XDATA, add(CFA_XSP16, literal(-10)))
        CFI (cfiCond37) V5 load(1, XDATA, add(CFA_XSP16, literal(-9)))
        CFI (cfiCond37) V6 load(1, XDATA, add(CFA_XSP16, literal(-8)))
        CFI (cfiCond37) V7 load(1, XDATA, add(CFA_XSP16, literal(-7)))
        CFI (cfiCond37) R7 load(1, XDATA, add(CFA_XSP16, literal(-6)))
        CFI (cfiCond37) ?RET_LOW load(1, XDATA, add(CFA_XSP16, literal(-5)))
        CFI (cfiCond37) ?RET_HIGH load(1, XDATA, add(CFA_XSP16, literal(-4)))
        CFI (cfiCond37) ?BRET_EXT load(1, XDATA, add(CFA_XSP16, literal(-3)))
        CFI (cfiCond37) DPL0 load(1, XDATA, add(CFA_XSP16, literal(-2)))
        CFI (cfiCond37) DPH0 load(1, XDATA, add(CFA_XSP16, literal(-1)))
        CFI (cfiCond37) CFA_SP SP+0
        CFI (cfiCond37) CFA_XSP16 add(XSP16, 34)
        CFI Block cfiCond38 Using cfiCommon0
        CFI (cfiCond38) NoFunction
        CFI (cfiCond38) Conditional ??CrossCallReturnLabel_112
        CFI (cfiCond38) R6 load(1, XDATA, add(CFA_XSP16, literal(-16)))
        CFI (cfiCond38) VB load(1, XDATA, add(CFA_XSP16, literal(-15)))
        CFI (cfiCond38) V0 load(1, XDATA, add(CFA_XSP16, literal(-14)))
        CFI (cfiCond38) V1 load(1, XDATA, add(CFA_XSP16, literal(-13)))
        CFI (cfiCond38) V2 load(1, XDATA, add(CFA_XSP16, literal(-12)))
        CFI (cfiCond38) V3 load(1, XDATA, add(CFA_XSP16, literal(-11)))
        CFI (cfiCond38) V4 load(1, XDATA, add(CFA_XSP16, literal(-10)))
        CFI (cfiCond38) V5 load(1, XDATA, add(CFA_XSP16, literal(-9)))
        CFI (cfiCond38) V6 load(1, XDATA, add(CFA_XSP16, literal(-8)))
        CFI (cfiCond38) V7 load(1, XDATA, add(CFA_XSP16, literal(-7)))
        CFI (cfiCond38) R7 load(1, XDATA, add(CFA_XSP16, literal(-6)))
        CFI (cfiCond38) ?RET_LOW load(1, XDATA, add(CFA_XSP16, literal(-5)))
        CFI (cfiCond38) ?RET_HIGH load(1, XDATA, add(CFA_XSP16, literal(-4)))
        CFI (cfiCond38) ?BRET_EXT load(1, XDATA, add(CFA_XSP16, literal(-3)))
        CFI (cfiCond38) DPL0 load(1, XDATA, add(CFA_XSP16, literal(-2)))
        CFI (cfiCond38) DPH0 load(1, XDATA, add(CFA_XSP16, literal(-1)))
        CFI (cfiCond38) CFA_SP SP+0
        CFI (cfiCond38) CFA_XSP16 add(XSP16, 35)
        CFI Block cfiCond39 Using cfiCommon0
        CFI (cfiCond39) NoFunction
        CFI (cfiCond39) Conditional ??CrossCallReturnLabel_113
        CFI (cfiCond39) R6 load(1, XDATA, add(CFA_XSP16, literal(-16)))
        CFI (cfiCond39) VB load(1, XDATA, add(CFA_XSP16, literal(-15)))
        CFI (cfiCond39) V0 load(1, XDATA, add(CFA_XSP16, literal(-14)))
        CFI (cfiCond39) V1 load(1, XDATA, add(CFA_XSP16, literal(-13)))
        CFI (cfiCond39) V2 load(1, XDATA, add(CFA_XSP16, literal(-12)))
        CFI (cfiCond39) V3 load(1, XDATA, add(CFA_XSP16, literal(-11)))
        CFI (cfiCond39) V4 load(1, XDATA, add(CFA_XSP16, literal(-10)))
        CFI (cfiCond39) V5 load(1, XDATA, add(CFA_XSP16, literal(-9)))
        CFI (cfiCond39) V6 load(1, XDATA, add(CFA_XSP16, literal(-8)))
        CFI (cfiCond39) V7 load(1, XDATA, add(CFA_XSP16, literal(-7)))
        CFI (cfiCond39) R7 load(1, XDATA, add(CFA_XSP16, literal(-6)))
        CFI (cfiCond39) ?RET_LOW load(1, XDATA, add(CFA_XSP16, literal(-5)))
        CFI (cfiCond39) ?RET_HIGH load(1, XDATA, add(CFA_XSP16, literal(-4)))
        CFI (cfiCond39) ?BRET_EXT load(1, XDATA, add(CFA_XSP16, literal(-3)))
        CFI (cfiCond39) DPL0 load(1, XDATA, add(CFA_XSP16, literal(-2)))
        CFI (cfiCond39) DPH0 load(1, XDATA, add(CFA_XSP16, literal(-1)))
        CFI (cfiCond39) CFA_SP SP+0
        CFI (cfiCond39) CFA_XSP16 add(XSP16, 34)
        CFI Block cfiPicker40 Using cfiCommon1
        CFI (cfiPicker40) NoFunction
        CFI (cfiPicker40) Picker
        MOV     A,?V0 + 0
        ADD     A,#0x2
        CFI EndBlock cfiCond36
        CFI EndBlock cfiCond37
        CFI EndBlock cfiCond38
        CFI EndBlock cfiCond39
        CFI EndBlock cfiPicker40
        REQUIRE ??Subroutine63_0
        ; // Fall through to label ??Subroutine63_0

        RSEG BANKED_CODE:CODE:NOROOT(0)
??Subroutine63_0:
        CFI Block cfiCond41 Using cfiCommon0
        CFI NoFunction
        CFI Conditional ??CrossCallReturnLabel_116
        CFI R6 load(1, XDATA, add(CFA_XSP16, literal(-16)))
        CFI VB load(1, XDATA, add(CFA_XSP16, literal(-15)))
        CFI V0 load(1, XDATA, add(CFA_XSP16, literal(-14)))
        CFI V1 load(1, XDATA, add(CFA_XSP16, literal(-13)))
        CFI V2 load(1, XDATA, add(CFA_XSP16, literal(-12)))
        CFI V3 load(1, XDATA, add(CFA_XSP16, literal(-11)))
        CFI V4 load(1, XDATA, add(CFA_XSP16, literal(-10)))
        CFI V5 load(1, XDATA, add(CFA_XSP16, literal(-9)))
        CFI V6 load(1, XDATA, add(CFA_XSP16, literal(-8)))
        CFI V7 load(1, XDATA, add(CFA_XSP16, literal(-7)))
        CFI R7 load(1, XDATA, add(CFA_XSP16, literal(-6)))
        CFI ?RET_LOW load(1, XDATA, add(CFA_XSP16, literal(-5)))
        CFI ?RET_HIGH load(1, XDATA, add(CFA_XSP16, literal(-4)))
        CFI ?BRET_EXT load(1, XDATA, add(CFA_XSP16, literal(-3)))
        CFI DPL0 load(1, XDATA, add(CFA_XSP16, literal(-2)))
        CFI DPH0 load(1, XDATA, add(CFA_XSP16, literal(-1)))
        CFI CFA_SP SP+0
        CFI CFA_XSP16 add(XSP16, 35)
        CFI Block cfiCond42 Using cfiCommon0
        CFI (cfiCond42) NoFunction
        CFI (cfiCond42) Conditional ??CrossCallReturnLabel_114
        CFI (cfiCond42) R6 load(1, XDATA, add(CFA_XSP16, literal(-16)))
        CFI (cfiCond42) VB load(1, XDATA, add(CFA_XSP16, literal(-15)))
        CFI (cfiCond42) V0 load(1, XDATA, add(CFA_XSP16, literal(-14)))
        CFI (cfiCond42) V1 load(1, XDATA, add(CFA_XSP16, literal(-13)))
        CFI (cfiCond42) V2 load(1, XDATA, add(CFA_XSP16, literal(-12)))
        CFI (cfiCond42) V3 load(1, XDATA, add(CFA_XSP16, literal(-11)))
        CFI (cfiCond42) V4 load(1, XDATA, add(CFA_XSP16, literal(-10)))
        CFI (cfiCond42) V5 load(1, XDATA, add(CFA_XSP16, literal(-9)))
        CFI (cfiCond42) V6 load(1, XDATA, add(CFA_XSP16, literal(-8)))
        CFI (cfiCond42) V7 load(1, XDATA, add(CFA_XSP16, literal(-7)))
        CFI (cfiCond42) R7 load(1, XDATA, add(CFA_XSP16, literal(-6)))
        CFI (cfiCond42) ?RET_LOW load(1, XDATA, add(CFA_XSP16, literal(-5)))
        CFI (cfiCond42) ?RET_HIGH load(1, XDATA, add(CFA_XSP16, literal(-4)))
        CFI (cfiCond42) ?BRET_EXT load(1, XDATA, add(CFA_XSP16, literal(-3)))
        CFI (cfiCond42) DPL0 load(1, XDATA, add(CFA_XSP16, literal(-2)))
        CFI (cfiCond42) DPH0 load(1, XDATA, add(CFA_XSP16, literal(-1)))
        CFI (cfiCond42) CFA_SP SP+0
        CFI (cfiCond42) CFA_XSP16 add(XSP16, 35)
        CFI Block cfiCond43 Using cfiCommon0
        CFI (cfiCond43) NoFunction
        CFI (cfiCond43) Conditional ??CrossCallReturnLabel_115
        CFI (cfiCond43) R6 load(1, XDATA, add(CFA_XSP16, literal(-16)))
        CFI (cfiCond43) VB load(1, XDATA, add(CFA_XSP16, literal(-15)))
        CFI (cfiCond43) V0 load(1, XDATA, add(CFA_XSP16, literal(-14)))
        CFI (cfiCond43) V1 load(1, XDATA, add(CFA_XSP16, literal(-13)))
        CFI (cfiCond43) V2 load(1, XDATA, add(CFA_XSP16, literal(-12)))
        CFI (cfiCond43) V3 load(1, XDATA, add(CFA_XSP16, literal(-11)))
        CFI (cfiCond43) V4 load(1, XDATA, add(CFA_XSP16, literal(-10)))
        CFI (cfiCond43) V5 load(1, XDATA, add(CFA_XSP16, literal(-9)))
        CFI (cfiCond43) V6 load(1, XDATA, add(CFA_XSP16, literal(-8)))
        CFI (cfiCond43) V7 load(1, XDATA, add(CFA_XSP16, literal(-7)))
        CFI (cfiCond43) R7 load(1, XDATA, add(CFA_XSP16, literal(-6)))
        CFI (cfiCond43) ?RET_LOW load(1, XDATA, add(CFA_XSP16, literal(-5)))
        CFI (cfiCond43) ?RET_HIGH load(1, XDATA, add(CFA_XSP16, literal(-4)))
        CFI (cfiCond43) ?BRET_EXT load(1, XDATA, add(CFA_XSP16, literal(-3)))
        CFI (cfiCond43) DPL0 load(1, XDATA, add(CFA_XSP16, literal(-2)))
        CFI (cfiCond43) DPH0 load(1, XDATA, add(CFA_XSP16, literal(-1)))
        CFI (cfiCond43) CFA_SP SP+0
        CFI (cfiCond43) CFA_XSP16 add(XSP16, 34)
        CFI Block cfiCond44 Using cfiCommon0
        CFI (cfiCond44) NoFunction
        CFI (cfiCond44) Conditional ??CrossCallReturnLabel_112
        CFI (cfiCond44) R6 load(1, XDATA, add(CFA_XSP16, literal(-16)))
        CFI (cfiCond44) VB load(1, XDATA, add(CFA_XSP16, literal(-15)))
        CFI (cfiCond44) V0 load(1, XDATA, add(CFA_XSP16, literal(-14)))
        CFI (cfiCond44) V1 load(1, XDATA, add(CFA_XSP16, literal(-13)))
        CFI (cfiCond44) V2 load(1, XDATA, add(CFA_XSP16, literal(-12)))
        CFI (cfiCond44) V3 load(1, XDATA, add(CFA_XSP16, literal(-11)))
        CFI (cfiCond44) V4 load(1, XDATA, add(CFA_XSP16, literal(-10)))
        CFI (cfiCond44) V5 load(1, XDATA, add(CFA_XSP16, literal(-9)))
        CFI (cfiCond44) V6 load(1, XDATA, add(CFA_XSP16, literal(-8)))
        CFI (cfiCond44) V7 load(1, XDATA, add(CFA_XSP16, literal(-7)))
        CFI (cfiCond44) R7 load(1, XDATA, add(CFA_XSP16, literal(-6)))
        CFI (cfiCond44) ?RET_LOW load(1, XDATA, add(CFA_XSP16, literal(-5)))
        CFI (cfiCond44) ?RET_HIGH load(1, XDATA, add(CFA_XSP16, literal(-4)))
        CFI (cfiCond44) ?BRET_EXT load(1, XDATA, add(CFA_XSP16, literal(-3)))
        CFI (cfiCond44) DPL0 load(1, XDATA, add(CFA_XSP16, literal(-2)))
        CFI (cfiCond44) DPH0 load(1, XDATA, add(CFA_XSP16, literal(-1)))
        CFI (cfiCond44) CFA_SP SP+0
        CFI (cfiCond44) CFA_XSP16 add(XSP16, 35)
        CFI Block cfiCond45 Using cfiCommon0
        CFI (cfiCond45) NoFunction
        CFI (cfiCond45) Conditional ??CrossCallReturnLabel_113
        CFI (cfiCond45) R6 load(1, XDATA, add(CFA_XSP16, literal(-16)))
        CFI (cfiCond45) VB load(1, XDATA, add(CFA_XSP16, literal(-15)))
        CFI (cfiCond45) V0 load(1, XDATA, add(CFA_XSP16, literal(-14)))
        CFI (cfiCond45) V1 load(1, XDATA, add(CFA_XSP16, literal(-13)))
        CFI (cfiCond45) V2 load(1, XDATA, add(CFA_XSP16, literal(-12)))
        CFI (cfiCond45) V3 load(1, XDATA, add(CFA_XSP16, literal(-11)))
        CFI (cfiCond45) V4 load(1, XDATA, add(CFA_XSP16, literal(-10)))
        CFI (cfiCond45) V5 load(1, XDATA, add(CFA_XSP16, literal(-9)))
        CFI (cfiCond45) V6 load(1, XDATA, add(CFA_XSP16, literal(-8)))
        CFI (cfiCond45) V7 load(1, XDATA, add(CFA_XSP16, literal(-7)))
        CFI (cfiCond45) R7 load(1, XDATA, add(CFA_XSP16, literal(-6)))
        CFI (cfiCond45) ?RET_LOW load(1, XDATA, add(CFA_XSP16, literal(-5)))
        CFI (cfiCond45) ?RET_HIGH load(1, XDATA, add(CFA_XSP16, literal(-4)))
        CFI (cfiCond45) ?BRET_EXT load(1, XDATA, add(CFA_XSP16, literal(-3)))
        CFI (cfiCond45) DPL0 load(1, XDATA, add(CFA_XSP16, literal(-2)))
        CFI (cfiCond45) DPH0 load(1, XDATA, add(CFA_XSP16, literal(-1)))
        CFI (cfiCond45) CFA_SP SP+0
        CFI (cfiCond45) CFA_XSP16 add(XSP16, 34)
        CFI Block cfiPicker46 Using cfiCommon1
        CFI (cfiPicker46) NoFunction
        CFI (cfiPicker46) Picker
        MOV     ?V0 + 0,A
        MOV     A,?V0 + 1
        CFI EndBlock cfiCond41
        CFI EndBlock cfiCond42
        CFI EndBlock cfiCond43
        CFI EndBlock cfiCond44
        CFI EndBlock cfiCond45
        CFI EndBlock cfiPicker46
        REQUIRE ??Subroutine64_0
        ; // Fall through to label ??Subroutine64_0

        RSEG BANKED_CODE:CODE:NOROOT(0)
??Subroutine64_0:
        CFI Block cfiCond47 Using cfiCommon0
        CFI NoFunction
        CFI Conditional ??CrossCallReturnLabel_117
        CFI R6 load(1, XDATA, add(CFA_XSP16, literal(-16)))
        CFI VB load(1, XDATA, add(CFA_XSP16, literal(-15)))
        CFI V0 load(1, XDATA, add(CFA_XSP16, literal(-14)))
        CFI V1 load(1, XDATA, add(CFA_XSP16, literal(-13)))
        CFI V2 load(1, XDATA, add(CFA_XSP16, literal(-12)))
        CFI V3 load(1, XDATA, add(CFA_XSP16, literal(-11)))
        CFI V4 load(1, XDATA, add(CFA_XSP16, literal(-10)))
        CFI V5 load(1, XDATA, add(CFA_XSP16, literal(-9)))
        CFI V6 load(1, XDATA, add(CFA_XSP16, literal(-8)))
        CFI V7 load(1, XDATA, add(CFA_XSP16, literal(-7)))
        CFI R7 load(1, XDATA, add(CFA_XSP16, literal(-6)))
        CFI ?RET_LOW load(1, XDATA, add(CFA_XSP16, literal(-5)))
        CFI ?RET_HIGH load(1, XDATA, add(CFA_XSP16, literal(-4)))
        CFI ?BRET_EXT load(1, XDATA, add(CFA_XSP16, literal(-3)))
        CFI DPL0 load(1, XDATA, add(CFA_XSP16, literal(-2)))
        CFI DPH0 load(1, XDATA, add(CFA_XSP16, literal(-1)))
        CFI CFA_SP SP+0
        CFI CFA_XSP16 add(XSP16, 25)
        CFI Block cfiCond48 Using cfiCommon0
        CFI (cfiCond48) NoFunction
        CFI (cfiCond48) Conditional ??CrossCallReturnLabel_116
        CFI (cfiCond48) R6 load(1, XDATA, add(CFA_XSP16, literal(-16)))
        CFI (cfiCond48) VB load(1, XDATA, add(CFA_XSP16, literal(-15)))
        CFI (cfiCond48) V0 load(1, XDATA, add(CFA_XSP16, literal(-14)))
        CFI (cfiCond48) V1 load(1, XDATA, add(CFA_XSP16, literal(-13)))
        CFI (cfiCond48) V2 load(1, XDATA, add(CFA_XSP16, literal(-12)))
        CFI (cfiCond48) V3 load(1, XDATA, add(CFA_XSP16, literal(-11)))
        CFI (cfiCond48) V4 load(1, XDATA, add(CFA_XSP16, literal(-10)))
        CFI (cfiCond48) V5 load(1, XDATA, add(CFA_XSP16, literal(-9)))
        CFI (cfiCond48) V6 load(1, XDATA, add(CFA_XSP16, literal(-8)))
        CFI (cfiCond48) V7 load(1, XDATA, add(CFA_XSP16, literal(-7)))
        CFI (cfiCond48) R7 load(1, XDATA, add(CFA_XSP16, literal(-6)))
        CFI (cfiCond48) ?RET_LOW load(1, XDATA, add(CFA_XSP16, literal(-5)))
        CFI (cfiCond48) ?RET_HIGH load(1, XDATA, add(CFA_XSP16, literal(-4)))
        CFI (cfiCond48) ?BRET_EXT load(1, XDATA, add(CFA_XSP16, literal(-3)))
        CFI (cfiCond48) DPL0 load(1, XDATA, add(CFA_XSP16, literal(-2)))
        CFI (cfiCond48) DPH0 load(1, XDATA, add(CFA_XSP16, literal(-1)))
        CFI (cfiCond48) CFA_SP SP+0
        CFI (cfiCond48) CFA_XSP16 add(XSP16, 35)
        CFI Block cfiCond49 Using cfiCommon0
        CFI (cfiCond49) NoFunction
        CFI (cfiCond49) Conditional ??CrossCallReturnLabel_114
        CFI (cfiCond49) R6 load(1, XDATA, add(CFA_XSP16, literal(-16)))
        CFI (cfiCond49) VB load(1, XDATA, add(CFA_XSP16, literal(-15)))
        CFI (cfiCond49) V0 load(1, XDATA, add(CFA_XSP16, literal(-14)))
        CFI (cfiCond49) V1 load(1, XDATA, add(CFA_XSP16, literal(-13)))
        CFI (cfiCond49) V2 load(1, XDATA, add(CFA_XSP16, literal(-12)))
        CFI (cfiCond49) V3 load(1, XDATA, add(CFA_XSP16, literal(-11)))
        CFI (cfiCond49) V4 load(1, XDATA, add(CFA_XSP16, literal(-10)))
        CFI (cfiCond49) V5 load(1, XDATA, add(CFA_XSP16, literal(-9)))
        CFI (cfiCond49) V6 load(1, XDATA, add(CFA_XSP16, literal(-8)))
        CFI (cfiCond49) V7 load(1, XDATA, add(CFA_XSP16, literal(-7)))
        CFI (cfiCond49) R7 load(1, XDATA, add(CFA_XSP16, literal(-6)))
        CFI (cfiCond49) ?RET_LOW load(1, XDATA, add(CFA_XSP16, literal(-5)))
        CFI (cfiCond49) ?RET_HIGH load(1, XDATA, add(CFA_XSP16, literal(-4)))
        CFI (cfiCond49) ?BRET_EXT load(1, XDATA, add(CFA_XSP16, literal(-3)))
        CFI (cfiCond49) DPL0 load(1, XDATA, add(CFA_XSP16, literal(-2)))
        CFI (cfiCond49) DPH0 load(1, XDATA, add(CFA_XSP16, literal(-1)))
        CFI (cfiCond49) CFA_SP SP+0
        CFI (cfiCond49) CFA_XSP16 add(XSP16, 35)
        CFI Block cfiCond50 Using cfiCommon0
        CFI (cfiCond50) NoFunction
        CFI (cfiCond50) Conditional ??CrossCallReturnLabel_115
        CFI (cfiCond50) R6 load(1, XDATA, add(CFA_XSP16, literal(-16)))
        CFI (cfiCond50) VB load(1, XDATA, add(CFA_XSP16, literal(-15)))
        CFI (cfiCond50) V0 load(1, XDATA, add(CFA_XSP16, literal(-14)))
        CFI (cfiCond50) V1 load(1, XDATA, add(CFA_XSP16, literal(-13)))
        CFI (cfiCond50) V2 load(1, XDATA, add(CFA_XSP16, literal(-12)))
        CFI (cfiCond50) V3 load(1, XDATA, add(CFA_XSP16, literal(-11)))
        CFI (cfiCond50) V4 load(1, XDATA, add(CFA_XSP16, literal(-10)))
        CFI (cfiCond50) V5 load(1, XDATA, add(CFA_XSP16, literal(-9)))
        CFI (cfiCond50) V6 load(1, XDATA, add(CFA_XSP16, literal(-8)))
        CFI (cfiCond50) V7 load(1, XDATA, add(CFA_XSP16, literal(-7)))
        CFI (cfiCond50) R7 load(1, XDATA, add(CFA_XSP16, literal(-6)))
        CFI (cfiCond50) ?RET_LOW load(1, XDATA, add(CFA_XSP16, literal(-5)))
        CFI (cfiCond50) ?RET_HIGH load(1, XDATA, add(CFA_XSP16, literal(-4)))
        CFI (cfiCond50) ?BRET_EXT load(1, XDATA, add(CFA_XSP16, literal(-3)))
        CFI (cfiCond50) DPL0 load(1, XDATA, add(CFA_XSP16, literal(-2)))
        CFI (cfiCond50) DPH0 load(1, XDATA, add(CFA_XSP16, literal(-1)))
        CFI (cfiCond50) CFA_SP SP+0
        CFI (cfiCond50) CFA_XSP16 add(XSP16, 34)
        CFI Block cfiCond51 Using cfiCommon0
        CFI (cfiCond51) NoFunction
        CFI (cfiCond51) Conditional ??CrossCallReturnLabel_112
        CFI (cfiCond51) R6 load(1, XDATA, add(CFA_XSP16, literal(-16)))
        CFI (cfiCond51) VB load(1, XDATA, add(CFA_XSP16, literal(-15)))
        CFI (cfiCond51) V0 load(1, XDATA, add(CFA_XSP16, literal(-14)))
        CFI (cfiCond51) V1 load(1, XDATA, add(CFA_XSP16, literal(-13)))
        CFI (cfiCond51) V2 load(1, XDATA, add(CFA_XSP16, literal(-12)))
        CFI (cfiCond51) V3 load(1, XDATA, add(CFA_XSP16, literal(-11)))
        CFI (cfiCond51) V4 load(1, XDATA, add(CFA_XSP16, literal(-10)))
        CFI (cfiCond51) V5 load(1, XDATA, add(CFA_XSP16, literal(-9)))
        CFI (cfiCond51) V6 load(1, XDATA, add(CFA_XSP16, literal(-8)))
        CFI (cfiCond51) V7 load(1, XDATA, add(CFA_XSP16, literal(-7)))
        CFI (cfiCond51) R7 load(1, XDATA, add(CFA_XSP16, literal(-6)))
        CFI (cfiCond51) ?RET_LOW load(1, XDATA, add(CFA_XSP16, literal(-5)))
        CFI (cfiCond51) ?RET_HIGH load(1, XDATA, add(CFA_XSP16, literal(-4)))
        CFI (cfiCond51) ?BRET_EXT load(1, XDATA, add(CFA_XSP16, literal(-3)))
        CFI (cfiCond51) DPL0 load(1, XDATA, add(CFA_XSP16, literal(-2)))
        CFI (cfiCond51) DPH0 load(1, XDATA, add(CFA_XSP16, literal(-1)))
        CFI (cfiCond51) CFA_SP SP+0
        CFI (cfiCond51) CFA_XSP16 add(XSP16, 35)
        CFI Block cfiCond52 Using cfiCommon0
        CFI (cfiCond52) NoFunction
        CFI (cfiCond52) Conditional ??CrossCallReturnLabel_113
        CFI (cfiCond52) R6 load(1, XDATA, add(CFA_XSP16, literal(-16)))
        CFI (cfiCond52) VB load(1, XDATA, add(CFA_XSP16, literal(-15)))
        CFI (cfiCond52) V0 load(1, XDATA, add(CFA_XSP16, literal(-14)))
        CFI (cfiCond52) V1 load(1, XDATA, add(CFA_XSP16, literal(-13)))
        CFI (cfiCond52) V2 load(1, XDATA, add(CFA_XSP16, literal(-12)))
        CFI (cfiCond52) V3 load(1, XDATA, add(CFA_XSP16, literal(-11)))
        CFI (cfiCond52) V4 load(1, XDATA, add(CFA_XSP16, literal(-10)))
        CFI (cfiCond52) V5 load(1, XDATA, add(CFA_XSP16, literal(-9)))
        CFI (cfiCond52) V6 load(1, XDATA, add(CFA_XSP16, literal(-8)))
        CFI (cfiCond52) V7 load(1, XDATA, add(CFA_XSP16, literal(-7)))
        CFI (cfiCond52) R7 load(1, XDATA, add(CFA_XSP16, literal(-6)))
        CFI (cfiCond52) ?RET_LOW load(1, XDATA, add(CFA_XSP16, literal(-5)))
        CFI (cfiCond52) ?RET_HIGH load(1, XDATA, add(CFA_XSP16, literal(-4)))
        CFI (cfiCond52) ?BRET_EXT load(1, XDATA, add(CFA_XSP16, literal(-3)))
        CFI (cfiCond52) DPL0 load(1, XDATA, add(CFA_XSP16, literal(-2)))
        CFI (cfiCond52) DPH0 load(1, XDATA, add(CFA_XSP16, literal(-1)))
        CFI (cfiCond52) CFA_SP SP+0
        CFI (cfiCond52) CFA_XSP16 add(XSP16, 34)
        CFI Block cfiPicker53 Using cfiCommon1
        CFI (cfiPicker53) NoFunction
        CFI (cfiPicker53) Picker
        ADDC    A,#0x0
        MOV     ?V0 + 1,A
        MOV     DPL,?V0 + 0
        MOV     DPH,A
        MOVX    A,@DPTR
        RET
        CFI EndBlock cfiCond47
        CFI EndBlock cfiCond48
        CFI EndBlock cfiCond49
        CFI EndBlock cfiCond50
        CFI EndBlock cfiCond51
        CFI EndBlock cfiCond52
        CFI EndBlock cfiPicker53

        RSEG BANKED_CODE:CODE:NOROOT(0)
?Subroutine27:
        CFI Block cfiCond54 Using cfiCommon0
        CFI NoFunction
        CFI Conditional ??CrossCallReturnLabel_44
        CFI R6 load(1, XDATA, add(CFA_XSP16, literal(-9)))
        CFI VB load(1, XDATA, add(CFA_XSP16, literal(-8)))
        CFI V0 load(1, XDATA, add(CFA_XSP16, literal(-7)))
        CFI R7 load(1, XDATA, add(CFA_XSP16, literal(-6)))
        CFI ?RET_LOW load(1, XDATA, add(CFA_XSP16, literal(-5)))
        CFI ?RET_HIGH load(1, XDATA, add(CFA_XSP16, literal(-4)))
        CFI ?BRET_EXT load(1, XDATA, add(CFA_XSP16, literal(-3)))
        CFI DPL0 load(1, XDATA, add(CFA_XSP16, literal(-2)))
        CFI DPH0 load(1, XDATA, add(CFA_XSP16, literal(-1)))
        CFI CFA_SP SP+0
        CFI CFA_XSP16 add(XSP16, 9)
        CFI Block cfiCond55 Using cfiCommon0
        CFI (cfiCond55) NoFunction
        CFI (cfiCond55) Conditional ??CrossCallReturnLabel_45
        CFI (cfiCond55) R6 load(1, XDATA, add(CFA_XSP16, literal(-16)))
        CFI (cfiCond55) VB load(1, XDATA, add(CFA_XSP16, literal(-15)))
        CFI (cfiCond55) V0 load(1, XDATA, add(CFA_XSP16, literal(-14)))
        CFI (cfiCond55) V1 load(1, XDATA, add(CFA_XSP16, literal(-13)))
        CFI (cfiCond55) V2 load(1, XDATA, add(CFA_XSP16, literal(-12)))
        CFI (cfiCond55) V3 load(1, XDATA, add(CFA_XSP16, literal(-11)))
        CFI (cfiCond55) V4 load(1, XDATA, add(CFA_XSP16, literal(-10)))
        CFI (cfiCond55) V5 load(1, XDATA, add(CFA_XSP16, literal(-9)))
        CFI (cfiCond55) V6 load(1, XDATA, add(CFA_XSP16, literal(-8)))
        CFI (cfiCond55) V7 load(1, XDATA, add(CFA_XSP16, literal(-7)))
        CFI (cfiCond55) R7 load(1, XDATA, add(CFA_XSP16, literal(-6)))
        CFI (cfiCond55) ?RET_LOW load(1, XDATA, add(CFA_XSP16, literal(-5)))
        CFI (cfiCond55) ?RET_HIGH load(1, XDATA, add(CFA_XSP16, literal(-4)))
        CFI (cfiCond55) ?BRET_EXT load(1, XDATA, add(CFA_XSP16, literal(-3)))
        CFI (cfiCond55) DPL0 load(1, XDATA, add(CFA_XSP16, literal(-2)))
        CFI (cfiCond55) DPH0 load(1, XDATA, add(CFA_XSP16, literal(-1)))
        CFI (cfiCond55) CFA_SP SP+0
        CFI (cfiCond55) CFA_XSP16 add(XSP16, 35)
        CFI Block cfiCond56 Using cfiCommon0
        CFI (cfiCond56) NoFunction
        CFI (cfiCond56) Conditional ??CrossCallReturnLabel_46
        CFI (cfiCond56) R6 load(1, XDATA, add(CFA_XSP16, literal(-16)))
        CFI (cfiCond56) VB load(1, XDATA, add(CFA_XSP16, literal(-15)))
        CFI (cfiCond56) V0 load(1, XDATA, add(CFA_XSP16, literal(-14)))
        CFI (cfiCond56) V1 load(1, XDATA, add(CFA_XSP16, literal(-13)))
        CFI (cfiCond56) V2 load(1, XDATA, add(CFA_XSP16, literal(-12)))
        CFI (cfiCond56) V3 load(1, XDATA, add(CFA_XSP16, literal(-11)))
        CFI (cfiCond56) V4 load(1, XDATA, add(CFA_XSP16, literal(-10)))
        CFI (cfiCond56) V5 load(1, XDATA, add(CFA_XSP16, literal(-9)))
        CFI (cfiCond56) V6 load(1, XDATA, add(CFA_XSP16, literal(-8)))
        CFI (cfiCond56) V7 load(1, XDATA, add(CFA_XSP16, literal(-7)))
        CFI (cfiCond56) R7 load(1, XDATA, add(CFA_XSP16, literal(-6)))
        CFI (cfiCond56) ?RET_LOW load(1, XDATA, add(CFA_XSP16, literal(-5)))
        CFI (cfiCond56) ?RET_HIGH load(1, XDATA, add(CFA_XSP16, literal(-4)))
        CFI (cfiCond56) ?BRET_EXT load(1, XDATA, add(CFA_XSP16, literal(-3)))
        CFI (cfiCond56) DPL0 load(1, XDATA, add(CFA_XSP16, literal(-2)))
        CFI (cfiCond56) DPH0 load(1, XDATA, add(CFA_XSP16, literal(-1)))
        CFI (cfiCond56) CFA_SP SP+0
        CFI (cfiCond56) CFA_XSP16 add(XSP16, 25)
        CFI Block cfiPicker57 Using cfiCommon1
        CFI (cfiPicker57) NoFunction
        CFI (cfiPicker57) Picker
        MOV     R2,#0x8
        MOV     R3,#0x0
        MOV     DPTR,#MT_TaskID
        MOVX    A,@DPTR
        MOV     R1,A
        LCALL   ??osal_set_event?relay
        RET
        CFI EndBlock cfiCond54
        CFI EndBlock cfiCond55
        CFI EndBlock cfiCond56
        CFI EndBlock cfiPicker57

        RSEG BANKED_CODE:CODE:NOROOT(0)
?Subroutine22:
        CFI Block cfiCond58 Using cfiCommon0
        CFI NoFunction
        CFI Conditional ??CrossCallReturnLabel_118
        CFI R6 load(1, XDATA, add(CFA_XSP16, literal(-16)))
        CFI VB load(1, XDATA, add(CFA_XSP16, literal(-15)))
        CFI V0 load(1, XDATA, add(CFA_XSP16, literal(-14)))
        CFI V1 load(1, XDATA, add(CFA_XSP16, literal(-13)))
        CFI V2 load(1, XDATA, add(CFA_XSP16, literal(-12)))
        CFI V3 load(1, XDATA, add(CFA_XSP16, literal(-11)))
        CFI V4 load(1, XDATA, add(CFA_XSP16, literal(-10)))
        CFI V5 load(1, XDATA, add(CFA_XSP16, literal(-9)))
        CFI V6 load(1, XDATA, add(CFA_XSP16, literal(-8)))
        CFI V7 load(1, XDATA, add(CFA_XSP16, literal(-7)))
        CFI R7 load(1, XDATA, add(CFA_XSP16, literal(-6)))
        CFI ?RET_LOW load(1, XDATA, add(CFA_XSP16, literal(-5)))
        CFI ?RET_HIGH load(1, XDATA, add(CFA_XSP16, literal(-4)))
        CFI ?BRET_EXT load(1, XDATA, add(CFA_XSP16, literal(-3)))
        CFI DPL0 load(1, XDATA, add(CFA_XSP16, literal(-2)))
        CFI DPH0 load(1, XDATA, add(CFA_XSP16, literal(-1)))
        CFI CFA_SP SP+0
        CFI CFA_XSP16 add(XSP16, 35)
        CFI Block cfiCond59 Using cfiCommon0
        CFI (cfiCond59) NoFunction
        CFI (cfiCond59) Conditional ??CrossCallReturnLabel_119
        CFI (cfiCond59) R6 load(1, XDATA, add(CFA_XSP16, literal(-16)))
        CFI (cfiCond59) VB load(1, XDATA, add(CFA_XSP16, literal(-15)))
        CFI (cfiCond59) V0 load(1, XDATA, add(CFA_XSP16, literal(-14)))
        CFI (cfiCond59) V1 load(1, XDATA, add(CFA_XSP16, literal(-13)))
        CFI (cfiCond59) V2 load(1, XDATA, add(CFA_XSP16, literal(-12)))
        CFI (cfiCond59) V3 load(1, XDATA, add(CFA_XSP16, literal(-11)))
        CFI (cfiCond59) V4 load(1, XDATA, add(CFA_XSP16, literal(-10)))
        CFI (cfiCond59) V5 load(1, XDATA, add(CFA_XSP16, literal(-9)))
        CFI (cfiCond59) V6 load(1, XDATA, add(CFA_XSP16, literal(-8)))
        CFI (cfiCond59) V7 load(1, XDATA, add(CFA_XSP16, literal(-7)))
        CFI (cfiCond59) R7 load(1, XDATA, add(CFA_XSP16, literal(-6)))
        CFI (cfiCond59) ?RET_LOW load(1, XDATA, add(CFA_XSP16, literal(-5)))
        CFI (cfiCond59) ?RET_HIGH load(1, XDATA, add(CFA_XSP16, literal(-4)))
        CFI (cfiCond59) ?BRET_EXT load(1, XDATA, add(CFA_XSP16, literal(-3)))
        CFI (cfiCond59) DPL0 load(1, XDATA, add(CFA_XSP16, literal(-2)))
        CFI (cfiCond59) DPH0 load(1, XDATA, add(CFA_XSP16, literal(-1)))
        CFI (cfiCond59) CFA_SP SP+0
        CFI (cfiCond59) CFA_XSP16 add(XSP16, 25)
        CFI Block cfiPicker60 Using cfiCommon1
        CFI (cfiPicker60) NoFunction
        CFI (cfiPicker60) Picker
        MOV     A,#0xf
        MOVX    @DPTR,A
        CFI EndBlock cfiCond58
        CFI EndBlock cfiCond59
        CFI EndBlock cfiPicker60
        ; Setup parameters for call to function osal_start_timerEx
        ; Setup parameters for call to function osal_start_timerEx
        REQUIRE ??Subroutine65_0
        ; // Fall through to label ??Subroutine65_0

        RSEG BANKED_CODE:CODE:NOROOT(0)
??Subroutine65_0:
        CFI Block cfiCond61 Using cfiCommon0
        CFI NoFunction
        CFI Conditional ??CrossCallReturnLabel_120
        CFI R6 load(1, XDATA, add(CFA_XSP16, literal(-9)))
        CFI VB load(1, XDATA, add(CFA_XSP16, literal(-8)))
        CFI V0 load(1, XDATA, add(CFA_XSP16, literal(-7)))
        CFI R7 load(1, XDATA, add(CFA_XSP16, literal(-6)))
        CFI ?RET_LOW load(1, XDATA, add(CFA_XSP16, literal(-5)))
        CFI ?RET_HIGH load(1, XDATA, add(CFA_XSP16, literal(-4)))
        CFI ?BRET_EXT load(1, XDATA, add(CFA_XSP16, literal(-3)))
        CFI DPL0 load(1, XDATA, add(CFA_XSP16, literal(-2)))
        CFI DPH0 load(1, XDATA, add(CFA_XSP16, literal(-1)))
        CFI CFA_SP SP+0
        CFI CFA_XSP16 add(XSP16, 9)
        CFI Block cfiCond62 Using cfiCommon0
        CFI (cfiCond62) NoFunction
        CFI (cfiCond62) Conditional ??CrossCallReturnLabel_118
        CFI (cfiCond62) R6 load(1, XDATA, add(CFA_XSP16, literal(-16)))
        CFI (cfiCond62) VB load(1, XDATA, add(CFA_XSP16, literal(-15)))
        CFI (cfiCond62) V0 load(1, XDATA, add(CFA_XSP16, literal(-14)))
        CFI (cfiCond62) V1 load(1, XDATA, add(CFA_XSP16, literal(-13)))
        CFI (cfiCond62) V2 load(1, XDATA, add(CFA_XSP16, literal(-12)))
        CFI (cfiCond62) V3 load(1, XDATA, add(CFA_XSP16, literal(-11)))
        CFI (cfiCond62) V4 load(1, XDATA, add(CFA_XSP16, literal(-10)))
        CFI (cfiCond62) V5 load(1, XDATA, add(CFA_XSP16, literal(-9)))
        CFI (cfiCond62) V6 load(1, XDATA, add(CFA_XSP16, literal(-8)))
        CFI (cfiCond62) V7 load(1, XDATA, add(CFA_XSP16, literal(-7)))
        CFI (cfiCond62) R7 load(1, XDATA, add(CFA_XSP16, literal(-6)))
        CFI (cfiCond62) ?RET_LOW load(1, XDATA, add(CFA_XSP16, literal(-5)))
        CFI (cfiCond62) ?RET_HIGH load(1, XDATA, add(CFA_XSP16, literal(-4)))
        CFI (cfiCond62) ?BRET_EXT load(1, XDATA, add(CFA_XSP16, literal(-3)))
        CFI (cfiCond62) DPL0 load(1, XDATA, add(CFA_XSP16, literal(-2)))
        CFI (cfiCond62) DPH0 load(1, XDATA, add(CFA_XSP16, literal(-1)))
        CFI (cfiCond62) CFA_SP SP+0
        CFI (cfiCond62) CFA_XSP16 add(XSP16, 35)
        CFI Block cfiCond63 Using cfiCommon0
        CFI (cfiCond63) NoFunction
        CFI (cfiCond63) Conditional ??CrossCallReturnLabel_119
        CFI (cfiCond63) R6 load(1, XDATA, add(CFA_XSP16, literal(-16)))
        CFI (cfiCond63) VB load(1, XDATA, add(CFA_XSP16, literal(-15)))
        CFI (cfiCond63) V0 load(1, XDATA, add(CFA_XSP16, literal(-14)))
        CFI (cfiCond63) V1 load(1, XDATA, add(CFA_XSP16, literal(-13)))
        CFI (cfiCond63) V2 load(1, XDATA, add(CFA_XSP16, literal(-12)))
        CFI (cfiCond63) V3 load(1, XDATA, add(CFA_XSP16, literal(-11)))
        CFI (cfiCond63) V4 load(1, XDATA, add(CFA_XSP16, literal(-10)))
        CFI (cfiCond63) V5 load(1, XDATA, add(CFA_XSP16, literal(-9)))
        CFI (cfiCond63) V6 load(1, XDATA, add(CFA_XSP16, literal(-8)))
        CFI (cfiCond63) V7 load(1, XDATA, add(CFA_XSP16, literal(-7)))
        CFI (cfiCond63) R7 load(1, XDATA, add(CFA_XSP16, literal(-6)))
        CFI (cfiCond63) ?RET_LOW load(1, XDATA, add(CFA_XSP16, literal(-5)))
        CFI (cfiCond63) ?RET_HIGH load(1, XDATA, add(CFA_XSP16, literal(-4)))
        CFI (cfiCond63) ?BRET_EXT load(1, XDATA, add(CFA_XSP16, literal(-3)))
        CFI (cfiCond63) DPL0 load(1, XDATA, add(CFA_XSP16, literal(-2)))
        CFI (cfiCond63) DPH0 load(1, XDATA, add(CFA_XSP16, literal(-1)))
        CFI (cfiCond63) CFA_SP SP+0
        CFI (cfiCond63) CFA_XSP16 add(XSP16, 25)
        CFI Block cfiPicker64 Using cfiCommon1
        CFI (cfiPicker64) NoFunction
        CFI (cfiPicker64) Picker
        MOV     R4,#-0x18
        MOV     R5,#0x3
        MOV     R2,#0x8
        MOV     R3,#0x0
        MOV     DPTR,#MT_TaskID
        MOVX    A,@DPTR
        MOV     R1,A
        LCALL   ??osal_start_timerEx?relay
        MOV     A,R1
        RET
        CFI EndBlock cfiCond61
        CFI EndBlock cfiCond62
        CFI EndBlock cfiCond63
        CFI EndBlock cfiPicker64
//  423 
//  424 #if defined ( ZIGBEE_SOURCE_ROUTING )
//  425 
//  426 /***************************************************************************************************
//  427  * @fn      MT_AfDataRequestSrcRtg
//  428  *
//  429  * @brief   Process AF Register command
//  430  *
//  431  * @param   pBuf - pointer to the received buffer
//  432  *
//  433  * @return  none
//  434  ***************************************************************************************************/

        RSEG BANKED_CODE:CODE:NOROOT(0)
//  435 void MT_AfDataRequestSrcRtg(uint8 *pBuf)
MT_AfDataRequestSrcRtg:
        CFI Block cfiBlock65 Using cfiCommon0
        CFI Function MT_AfDataRequestSrcRtg
        CODE
//  436 {
        FUNCALL MT_AfDataRequestSrcRtg, osal_memset
        LOCFRAME ISTACK, 0, STACK
        LOCFRAME PSTACK, 0, STACK
        LOCFRAME XSTACK, 34, STACK
        LOCFRAME IOVERLAY, 0, STATIC
        LOCFRAME DOVERLAY, 0, STATIC
        ARGFRAME ISTACK, 0, STACK
        ARGFRAME PSTACK, 0, STACK
        ARGFRAME XSTACK, 34, STACK
        ARGFRAME IOVERLAY, 0, STATIC
        ARGFRAME DOVERLAY, 0, STATIC
        FUNCALL MT_AfDataRequestSrcRtg, afFindEndPointDesc
        LOCFRAME ISTACK, 0, STACK
        LOCFRAME PSTACK, 0, STACK
        LOCFRAME XSTACK, 34, STACK
        LOCFRAME IOVERLAY, 0, STATIC
        LOCFRAME DOVERLAY, 0, STATIC
        ARGFRAME ISTACK, 0, STACK
        ARGFRAME PSTACK, 0, STACK
        ARGFRAME XSTACK, 34, STACK
        ARGFRAME IOVERLAY, 0, STATIC
        ARGFRAME DOVERLAY, 0, STATIC
        FUNCALL MT_AfDataRequestSrcRtg, osal_mem_alloc
        LOCFRAME ISTACK, 0, STACK
        LOCFRAME PSTACK, 0, STACK
        LOCFRAME XSTACK, 34, STACK
        LOCFRAME IOVERLAY, 0, STATIC
        LOCFRAME DOVERLAY, 0, STATIC
        ARGFRAME ISTACK, 0, STACK
        ARGFRAME PSTACK, 0, STACK
        ARGFRAME XSTACK, 34, STACK
        ARGFRAME IOVERLAY, 0, STATIC
        ARGFRAME DOVERLAY, 0, STATIC
        FUNCALL MT_AfDataRequestSrcRtg, AF_DataRequestSrcRtg
        LOCFRAME ISTACK, 0, STACK
        LOCFRAME PSTACK, 0, STACK
        LOCFRAME XSTACK, 46, STACK
        LOCFRAME IOVERLAY, 0, STATIC
        LOCFRAME DOVERLAY, 0, STATIC
        ARGFRAME ISTACK, 0, STACK
        ARGFRAME PSTACK, 0, STACK
        ARGFRAME XSTACK, 46, STACK
        ARGFRAME IOVERLAY, 0, STATIC
        ARGFRAME DOVERLAY, 0, STATIC
        FUNCALL MT_AfDataRequestSrcRtg, osal_mem_free
        LOCFRAME ISTACK, 0, STACK
        LOCFRAME PSTACK, 0, STACK
        LOCFRAME XSTACK, 34, STACK
        LOCFRAME IOVERLAY, 0, STATIC
        LOCFRAME DOVERLAY, 0, STATIC
        ARGFRAME ISTACK, 0, STACK
        ARGFRAME PSTACK, 0, STACK
        ARGFRAME XSTACK, 34, STACK
        ARGFRAME IOVERLAY, 0, STATIC
        ARGFRAME DOVERLAY, 0, STATIC
        FUNCALL MT_AfDataRequestSrcRtg, MT_BuildAndSendZToolResponse
        LOCFRAME ISTACK, 0, STACK
        LOCFRAME PSTACK, 0, STACK
        LOCFRAME XSTACK, 34, STACK
        LOCFRAME IOVERLAY, 0, STATIC
        LOCFRAME DOVERLAY, 0, STATIC
        ARGFRAME ISTACK, 0, STACK
        ARGFRAME PSTACK, 0, STACK
        ARGFRAME XSTACK, 34, STACK
        ARGFRAME IOVERLAY, 0, STATIC
        ARGFRAME DOVERLAY, 0, STATIC
        MOV     A,#-0x10
        LCALL   ?BANKED_ENTER_XDATA
        CFI DPH0 load(1, XDATA, add(CFA_XSP16, literal(-1)))
        CFI DPL0 load(1, XDATA, add(CFA_XSP16, literal(-2)))
        CFI ?BRET_EXT load(1, XDATA, add(CFA_XSP16, literal(-3)))
        CFI ?RET_HIGH load(1, XDATA, add(CFA_XSP16, literal(-4)))
        CFI ?RET_LOW load(1, XDATA, add(CFA_XSP16, literal(-5)))
        CFI R7 load(1, XDATA, add(CFA_XSP16, literal(-6)))
        CFI V7 load(1, XDATA, add(CFA_XSP16, literal(-7)))
        CFI V6 load(1, XDATA, add(CFA_XSP16, literal(-8)))
        CFI V5 load(1, XDATA, add(CFA_XSP16, literal(-9)))
        CFI V4 load(1, XDATA, add(CFA_XSP16, literal(-10)))
        CFI V3 load(1, XDATA, add(CFA_XSP16, literal(-11)))
        CFI V2 load(1, XDATA, add(CFA_XSP16, literal(-12)))
        CFI V1 load(1, XDATA, add(CFA_XSP16, literal(-13)))
        CFI V0 load(1, XDATA, add(CFA_XSP16, literal(-14)))
        CFI VB load(1, XDATA, add(CFA_XSP16, literal(-15)))
        CFI R6 load(1, XDATA, add(CFA_XSP16, literal(-16)))
        CFI CFA_SP SP+0
        CFI CFA_XSP16 add(XSP16, 16)
        ; Saved register size: 16
        ; Auto size: 18
        MOV     A,#-0x12
        LCALL   ?ALLOC_XSTACK8
        CFI CFA_XSP16 add(XSP16, 34)
//  437   uint8 cmdId, dataLen = 0;
//  438   uint8 retValue = ZFailure;
        MOV     DPL,?XSP + 0
        MOV     DPH,?XSP + 1
        MOV     A,#0x1
        LCALL   ?Subroutine35 & 0xFFFF
//  439   endPointDesc_t *epDesc;
//  440   byte transId;
//  441   afAddrType_t dstAddr;
//  442   cId_t cId;
//  443   byte txOpts, radius, srcEP, relayCnt;
//  444   uint16 *pRelayList;
//  445   uint8 i;
//  446 
//  447   /* parse header */
//  448   cmdId = pBuf[MT_RPC_POS_CMD1];
??CrossCallReturnLabel_59:
        PUSH    A
        CFI CFA_SP SP+-1
        MOV     A,#0x3
        LCALL   ?XSTACK_DISP0_8
        POP     A
        CFI CFA_SP SP+0
        MOVX    @DPTR,A
//  449   pBuf += MT_RPC_FRAME_HDR_SZ;
        MOV     A,R2
        ADD     A,#0x3
        MOV     ?V0 + 0,A
        MOV     A,R3
        LCALL   ??Subroutine68_0 & 0xFFFF
//  450 
//  451   /* Destination address */
//  452   /* Initialize the panID field to zero to avoid inter-pan */
//  453   osal_memset( &dstAddr, 0, sizeof(afAddrType_t) );
??CrossCallReturnLabel_127:
        ; Setup parameters for call to function osal_memset
        MOV     R4,#0xc
        MOV     R5,#0x0
        MOV     R1,#0x0
        MOV     A,#0x6
        LCALL   ?XSTACK_DISP0_8
        MOV     R2,DPL
        MOV     R3,DPH
        LCALL   ??osal_memset?relay
//  454   dstAddr.addrMode = afAddr16Bit;
        MOV     A,#0xe
        LCALL   ?XSTACK_DISP0_8
        LCALL   ?Subroutine40 & 0xFFFF
//  455   dstAddr.addr.shortAddr = BUILD_UINT16(pBuf[0], pBuf[1]);
??CrossCallReturnLabel_110:
        LCALL   ?Subroutine17 & 0xFFFF
??CrossCallReturnLabel_29:
        MOV     A,#0x6
        LCALL   ?XSTACK_DISP0_8
        LCALL   ?Subroutine29 & 0xFFFF
//  456   pBuf += 2;
//  457 
//  458   /* Destination endpoint */
//  459   dstAddr.endPoint = *pBuf++;
??CrossCallReturnLabel_113:
        PUSH    A
        CFI CFA_SP SP+-1
        MOV     A,#0xf
        LCALL   ?XSTACK_DISP0_8
        POP     A
        CFI CFA_SP SP+0
        LCALL   ??Subroutine61_0 & 0xFFFF
??CrossCallReturnLabel_111:
        INC     DPTR
//  460 
//  461   /* Source endpoint */
//  462   srcEP = *pBuf++;
        MOVX    A,@DPTR
        MOV     R1,A
        INC     DPTR
        MOV     ?V0 + 0,DPL
        MOV     ?V0 + 1,DPH
//  463   epDesc = afFindEndPointDesc( srcEP );
        ; Setup parameters for call to function afFindEndPointDesc
        LCALL   ??afFindEndPointDesc?relay
        MOV     A,#0x4
        LCALL   ?XSTACK_DISP0_8
        LCALL   ?Subroutine39 & 0xFFFF
//  464 
//  465   /* ClusterId */
//  466   cId = BUILD_UINT16(pBuf[0], pBuf[1]);
??CrossCallReturnLabel_66:
        MOV     DPL,?V0 + 0
        MOV     DPH,?V0 + 1
        MOVX    A,@DPTR
        MOV     R2,A
        LCALL   ?Subroutine23 & 0xFFFF
//  467   pBuf +=2;
??CrossCallReturnLabel_38:
        LCALL   ??Subroutine62_0 & 0xFFFF
//  468 
//  469   /* TransId */
//  470   transId = *pBuf++;
??CrossCallReturnLabel_115:
        PUSH    A
        CFI CFA_SP SP+-1
        MOV     A,#0x1
        LCALL   ?XSTACK_DISP0_8
        POP     A
        CFI CFA_SP SP+0
        LCALL   ?Subroutine32 & 0xFFFF
//  471 
//  472   /* TxOption */
//  473   txOpts = *pBuf++;
??CrossCallReturnLabel_54:
        PUSH    A
        CFI CFA_SP SP+-1
        MOV     A,#0x2
        LCALL   ?XSTACK_DISP0_8
        POP     A
        CFI CFA_SP SP+0
        LCALL   ?Subroutine36 & 0xFFFF
//  474 
//  475   /* Radius */
//  476   radius = *pBuf++;
//  477 
//  478   /* Source route relay count */
//  479   relayCnt = *pBuf++;
??CrossCallReturnLabel_61:
        MOVX    A,@DPTR
        MOV     ?V0 + 2,A
        INC     DPTR
        MOV     ?V0 + 0,DPL
        MOV     ?V0 + 1,DPH
//  480 
//  481   /* Convert the source route relay list */
//  482   if( (pRelayList = osal_mem_alloc( relayCnt * sizeof( uint16 ))) != NULL )
        ; Setup parameters for call to function osal_mem_alloc
        CLR     C
        RLC     A
        MOV     R2,A
        CLR     A
        RLC     A
        MOV     R3,A
        LCALL   ??osal_mem_alloc?relay
        MOV     ?V0 + 6,R2
        MOV     ?V0 + 7,R3
        MOV     A,R2
        ORL     A,?V0 + 7
        JNZ     $+5
        LJMP    ??MT_AfDataRequestSrcRtg_0 & 0xFFFF
//  483   {
//  484     for( i = 0; i < relayCnt; i++ )
        MOV     R4,#0x0
        SJMP    ??MT_AfDataRequestSrcRtg_1
//  485     {
//  486       pRelayList[i]  = BUILD_UINT16( pBuf[0], pBuf[1] );
??MT_AfDataRequestSrcRtg_2:
        MOV     R0,A
        MOV     DPL,R2
        MOV     DPH,R3
        MOVX    A,@DPTR
        MOV     R3,A
        MOV     A,R0
        ADD     A,#0x0
        MOV     R2,A
        MOV     A,R4
        RLC     A
        MOV     R0,A
        CLR     A
        RLC     A
        MOV     R1,A
        MOV     A,?V0 + 6
        ADD     A,R0
        MOV     DPL,A
        MOV     A,?V0 + 7
        ADDC    A,R1
        MOV     DPH,A
        MOV     A,R2
        MOVX    @DPTR,A
        INC     DPTR
        MOV     A,R3
        LCALL   ?Subroutine31 & 0xFFFF
//  487       pBuf += 2;
//  488     }
??CrossCallReturnLabel_125:
        INC     R4
??MT_AfDataRequestSrcRtg_1:
        MOV     DPL,?V0 + 0
        MOV     DPH,?V0 + 1
        INC     DPTR
        MOV     R2,DPL
        MOV     R3,DPH
        MOV     A,R4
        CLR     C
        SUBB    A,?V0 + 2
        MOV     DPL,?V0 + 0
        MOV     DPH,?V0 + 1
        MOVX    A,@DPTR
        JC      ??MT_AfDataRequestSrcRtg_2
//  489 
//  490     /* Data payload Length */
//  491     dataLen = *pBuf++;
        MOV     R1,A
        MOV     ?V0 + 0,R2
        MOV     ?V0 + 1,R3
//  492 
//  493     if ( epDesc == NULL )
        MOV     A,#0x4
        LCALL   ?XSTACK_DISP0_8
        LCALL   ??Subroutine69_0 & 0xFFFF
??CrossCallReturnLabel_133:
        MOV     A,R2
        ORL     A,R3
        JNZ     ??MT_AfDataRequestSrcRtg_3
//  494     {
//  495       retValue = afStatus_INVALID_PARAMETER;
        MOV     DPL,?XSP + 0
        MOV     DPH,?XSP + 1
        MOV     A,#0x2
        SJMP    ??MT_AfDataRequestSrcRtg_4
//  496     }
//  497     else
//  498     {
//  499       retValue = AF_DataRequestSrcRtg( &dstAddr, epDesc, cId, dataLen, pBuf,
//  500                                      &transId, txOpts, radius, relayCnt, pRelayList );
??MT_AfDataRequestSrcRtg_3:
        ; Setup parameters for call to function AF_DataRequestSrcRtg
        MOV     R0,#?V0 + 6
        LCALL   ?PUSH_XSTACK_I_TWO
        CFI CFA_XSP16 add(XSP16, 36)
        MOV     R0,#?V0 + 2
        LCALL   ?PUSH_XSTACK_I_ONE
        CFI CFA_XSP16 add(XSP16, 37)
        MOV     A,?V0 + 3
        MOV     ?V0 + 2,A
        MOV     R0,#?V0 + 2
        LCALL   ?PUSH_XSTACK_I_ONE
        CFI CFA_XSP16 add(XSP16, 38)
        MOV     A,#0x5
        LCALL   ?XSTACK_DISP0_8
        MOV     ?V0 + 2,DPL
        MOV     ?V0 + 3,DPH
        MOV     R0,#?V0 + 2
        LCALL   ?PUSH_XSTACK_I_TWO
        CFI CFA_XSP16 add(XSP16, 40)
        MOV     R0,#?V0 + 0
        LCALL   ?PUSH_XSTACK_I_TWO
        CFI CFA_XSP16 add(XSP16, 42)
        MOV     ?V0 + 0,R1
        MOV     ?V0 + 1,#0x0
        MOV     R0,#?V0 + 0
        LCALL   ?PUSH_XSTACK_I_TWO
        CFI CFA_XSP16 add(XSP16, 44)
        MOV     ?V0 + 0,R6
        MOV     ?V0 + 1,R7
        MOV     R0,#?V0 + 0
        LCALL   ?PUSH_XSTACK_I_TWO
        CFI CFA_XSP16 add(XSP16, 46)
        MOV     A,#0xe
        LCALL   ?XSTACK_DISP0_8
        MOVX    A,@DPTR
        MOV     R1,A
        MOV     A,#0x10
        LCALL   ?XSTACK_DISP0_8
        LCALL   ?Subroutine16 & 0xFFFF
//  501     }
??CrossCallReturnLabel_23:
        MOV     A,#0x12
        LCALL   ?XSTACK_DISP0_8
        MOV     R2,DPL
        MOV     R3,DPH
        LCALL   ??AF_DataRequestSrcRtg?relay
        MOV     A,#0xc
        LCALL   ?DEALLOC_XSTACK8
        CFI CFA_XSP16 add(XSP16, 34)
        MOV     A,R1
        MOV     DPL,?XSP + 0
        MOV     DPH,?XSP + 1
??MT_AfDataRequestSrcRtg_4:
        MOVX    @DPTR,A
//  502 
//  503     /* Free the memory allocated */
//  504     osal_mem_free( pRelayList );
        ; Setup parameters for call to function osal_mem_free
        MOV     R2,?V0 + 6
        MOV     R3,?V0 + 7
        LCALL   ??osal_mem_free?relay
        SJMP    ??MT_AfDataRequestSrcRtg_5
//  505   }
//  506   else
//  507   {
//  508     retValue = afStatus_MEM_FAIL;
??MT_AfDataRequestSrcRtg_0:
        MOV     DPL,?XSP + 0
        MOV     DPH,?XSP + 1
        MOV     A,#0x10
        MOVX    @DPTR,A
//  509   }
//  510 
//  511 
//  512   /* Build and send back the response */
//  513   MT_BuildAndSendZToolResponse(((uint8)MT_RPC_CMD_SRSP | (uint8)MT_RPC_SYS_AF), cmdId, 1, &retValue);
??MT_AfDataRequestSrcRtg_5:
        ; Setup parameters for call to function MT_BuildAndSendZToolResponse
        MOV     DPL,?XSP + 0
        MOV     DPH,?XSP + 1
        MOV     R4,DPL
        MOV     R5,DPH
        MOV     R3,#0x1
        MOV     A,#0x3
        LCALL   ?XSTACK_DISP0_8
        LCALL   ?Subroutine26 & 0xFFFF
//  514 }
??CrossCallReturnLabel_43:
        MOV     A,#0x12
        LJMP    ?Subroutine1 & 0xFFFF
        CFI EndBlock cfiBlock65

        RSEG BANKED_CODE:CODE:NOROOT(0)
?Subroutine36:
        CFI Block cfiCond66 Using cfiCommon0
        CFI NoFunction
        CFI Conditional ??CrossCallReturnLabel_60
        CFI R6 load(1, XDATA, add(CFA_XSP16, literal(-16)))
        CFI VB load(1, XDATA, add(CFA_XSP16, literal(-15)))
        CFI V0 load(1, XDATA, add(CFA_XSP16, literal(-14)))
        CFI V1 load(1, XDATA, add(CFA_XSP16, literal(-13)))
        CFI V2 load(1, XDATA, add(CFA_XSP16, literal(-12)))
        CFI V3 load(1, XDATA, add(CFA_XSP16, literal(-11)))
        CFI V4 load(1, XDATA, add(CFA_XSP16, literal(-10)))
        CFI V5 load(1, XDATA, add(CFA_XSP16, literal(-9)))
        CFI V6 load(1, XDATA, add(CFA_XSP16, literal(-8)))
        CFI V7 load(1, XDATA, add(CFA_XSP16, literal(-7)))
        CFI R7 load(1, XDATA, add(CFA_XSP16, literal(-6)))
        CFI ?RET_LOW load(1, XDATA, add(CFA_XSP16, literal(-5)))
        CFI ?RET_HIGH load(1, XDATA, add(CFA_XSP16, literal(-4)))
        CFI ?BRET_EXT load(1, XDATA, add(CFA_XSP16, literal(-3)))
        CFI DPL0 load(1, XDATA, add(CFA_XSP16, literal(-2)))
        CFI DPH0 load(1, XDATA, add(CFA_XSP16, literal(-1)))
        CFI CFA_SP SP+0
        CFI CFA_XSP16 add(XSP16, 35)
        CFI Block cfiCond67 Using cfiCommon0
        CFI (cfiCond67) NoFunction
        CFI (cfiCond67) Conditional ??CrossCallReturnLabel_61
        CFI (cfiCond67) R6 load(1, XDATA, add(CFA_XSP16, literal(-16)))
        CFI (cfiCond67) VB load(1, XDATA, add(CFA_XSP16, literal(-15)))
        CFI (cfiCond67) V0 load(1, XDATA, add(CFA_XSP16, literal(-14)))
        CFI (cfiCond67) V1 load(1, XDATA, add(CFA_XSP16, literal(-13)))
        CFI (cfiCond67) V2 load(1, XDATA, add(CFA_XSP16, literal(-12)))
        CFI (cfiCond67) V3 load(1, XDATA, add(CFA_XSP16, literal(-11)))
        CFI (cfiCond67) V4 load(1, XDATA, add(CFA_XSP16, literal(-10)))
        CFI (cfiCond67) V5 load(1, XDATA, add(CFA_XSP16, literal(-9)))
        CFI (cfiCond67) V6 load(1, XDATA, add(CFA_XSP16, literal(-8)))
        CFI (cfiCond67) V7 load(1, XDATA, add(CFA_XSP16, literal(-7)))
        CFI (cfiCond67) R7 load(1, XDATA, add(CFA_XSP16, literal(-6)))
        CFI (cfiCond67) ?RET_LOW load(1, XDATA, add(CFA_XSP16, literal(-5)))
        CFI (cfiCond67) ?RET_HIGH load(1, XDATA, add(CFA_XSP16, literal(-4)))
        CFI (cfiCond67) ?BRET_EXT load(1, XDATA, add(CFA_XSP16, literal(-3)))
        CFI (cfiCond67) DPL0 load(1, XDATA, add(CFA_XSP16, literal(-2)))
        CFI (cfiCond67) DPH0 load(1, XDATA, add(CFA_XSP16, literal(-1)))
        CFI (cfiCond67) CFA_SP SP+0
        CFI (cfiCond67) CFA_XSP16 add(XSP16, 34)
        CFI Block cfiPicker68 Using cfiCommon1
        CFI (cfiPicker68) NoFunction
        CFI (cfiPicker68) Picker
        LCALL   ?Subroutine60 & 0xFFFF
??CrossCallReturnLabel_107:
        MOVX    A,@DPTR
        MOV     ?V0 + 3,A
        INC     DPTR
        RET
        CFI EndBlock cfiCond66
        CFI EndBlock cfiCond67
        CFI EndBlock cfiPicker68

        RSEG BANKED_CODE:CODE:NOROOT(0)
?Subroutine60:
        CFI Block cfiCond69 Using cfiCommon0
        CFI NoFunction
        CFI Conditional ??CrossCallReturnLabel_108, ??CrossCallReturnLabel_103, ??CrossCallReturnLabel_55
        CFI R6 load(1, XDATA, add(CFA_XSP16, literal(-16)))
        CFI VB load(1, XDATA, add(CFA_XSP16, literal(-15)))
        CFI V0 load(1, XDATA, add(CFA_XSP16, literal(-14)))
        CFI V1 load(1, XDATA, add(CFA_XSP16, literal(-13)))
        CFI V2 load(1, XDATA, add(CFA_XSP16, literal(-12)))
        CFI V3 load(1, XDATA, add(CFA_XSP16, literal(-11)))
        CFI V4 load(1, XDATA, add(CFA_XSP16, literal(-10)))
        CFI V5 load(1, XDATA, add(CFA_XSP16, literal(-9)))
        CFI V6 load(1, XDATA, add(CFA_XSP16, literal(-8)))
        CFI V7 load(1, XDATA, add(CFA_XSP16, literal(-7)))
        CFI R7 load(1, XDATA, add(CFA_XSP16, literal(-6)))
        CFI ?RET_LOW load(1, XDATA, add(CFA_XSP16, literal(-5)))
        CFI ?RET_HIGH load(1, XDATA, add(CFA_XSP16, literal(-4)))
        CFI ?BRET_EXT load(1, XDATA, add(CFA_XSP16, literal(-3)))
        CFI DPL0 load(1, XDATA, add(CFA_XSP16, literal(-2)))
        CFI DPH0 load(1, XDATA, add(CFA_XSP16, literal(-1)))
        CFI CFA_SP SP+0
        CFI CFA_XSP16 add(XSP16, 35)
        CFI Block cfiCond70 Using cfiCommon0
        CFI (cfiCond70) NoFunction
        CFI (cfiCond70) Conditional ??CrossCallReturnLabel_108, ??CrossCallReturnLabel_103, ??CrossCallReturnLabel_56
        CFI (cfiCond70) R6 load(1, XDATA, add(CFA_XSP16, literal(-16)))
        CFI (cfiCond70) VB load(1, XDATA, add(CFA_XSP16, literal(-15)))
        CFI (cfiCond70) V0 load(1, XDATA, add(CFA_XSP16, literal(-14)))
        CFI (cfiCond70) V1 load(1, XDATA, add(CFA_XSP16, literal(-13)))
        CFI (cfiCond70) V2 load(1, XDATA, add(CFA_XSP16, literal(-12)))
        CFI (cfiCond70) V3 load(1, XDATA, add(CFA_XSP16, literal(-11)))
        CFI (cfiCond70) V4 load(1, XDATA, add(CFA_XSP16, literal(-10)))
        CFI (cfiCond70) V5 load(1, XDATA, add(CFA_XSP16, literal(-9)))
        CFI (cfiCond70) V6 load(1, XDATA, add(CFA_XSP16, literal(-8)))
        CFI (cfiCond70) V7 load(1, XDATA, add(CFA_XSP16, literal(-7)))
        CFI (cfiCond70) R7 load(1, XDATA, add(CFA_XSP16, literal(-6)))
        CFI (cfiCond70) ?RET_LOW load(1, XDATA, add(CFA_XSP16, literal(-5)))
        CFI (cfiCond70) ?RET_HIGH load(1, XDATA, add(CFA_XSP16, literal(-4)))
        CFI (cfiCond70) ?BRET_EXT load(1, XDATA, add(CFA_XSP16, literal(-3)))
        CFI (cfiCond70) DPL0 load(1, XDATA, add(CFA_XSP16, literal(-2)))
        CFI (cfiCond70) DPH0 load(1, XDATA, add(CFA_XSP16, literal(-1)))
        CFI (cfiCond70) CFA_SP SP+0
        CFI (cfiCond70) CFA_XSP16 add(XSP16, 35)
        CFI Block cfiCond71 Using cfiCommon0
        CFI (cfiCond71) NoFunction
        CFI (cfiCond71) Conditional ??CrossCallReturnLabel_108, ??CrossCallReturnLabel_102, ??CrossCallReturnLabel_52
        CFI (cfiCond71) R6 load(1, XDATA, add(CFA_XSP16, literal(-16)))
        CFI (cfiCond71) VB load(1, XDATA, add(CFA_XSP16, literal(-15)))
        CFI (cfiCond71) V0 load(1, XDATA, add(CFA_XSP16, literal(-14)))
        CFI (cfiCond71) V1 load(1, XDATA, add(CFA_XSP16, literal(-13)))
        CFI (cfiCond71) V2 load(1, XDATA, add(CFA_XSP16, literal(-12)))
        CFI (cfiCond71) V3 load(1, XDATA, add(CFA_XSP16, literal(-11)))
        CFI (cfiCond71) V4 load(1, XDATA, add(CFA_XSP16, literal(-10)))
        CFI (cfiCond71) V5 load(1, XDATA, add(CFA_XSP16, literal(-9)))
        CFI (cfiCond71) V6 load(1, XDATA, add(CFA_XSP16, literal(-8)))
        CFI (cfiCond71) V7 load(1, XDATA, add(CFA_XSP16, literal(-7)))
        CFI (cfiCond71) R7 load(1, XDATA, add(CFA_XSP16, literal(-6)))
        CFI (cfiCond71) ?RET_LOW load(1, XDATA, add(CFA_XSP16, literal(-5)))
        CFI (cfiCond71) ?RET_HIGH load(1, XDATA, add(CFA_XSP16, literal(-4)))
        CFI (cfiCond71) ?BRET_EXT load(1, XDATA, add(CFA_XSP16, literal(-3)))
        CFI (cfiCond71) DPL0 load(1, XDATA, add(CFA_XSP16, literal(-2)))
        CFI (cfiCond71) DPH0 load(1, XDATA, add(CFA_XSP16, literal(-1)))
        CFI (cfiCond71) CFA_SP SP+0
        CFI (cfiCond71) CFA_XSP16 add(XSP16, 35)
        CFI Block cfiCond72 Using cfiCommon0
        CFI (cfiCond72) NoFunction
        CFI (cfiCond72) Conditional ??CrossCallReturnLabel_108, ??CrossCallReturnLabel_102, ??CrossCallReturnLabel_53
        CFI (cfiCond72) R6 load(1, XDATA, add(CFA_XSP16, literal(-16)))
        CFI (cfiCond72) VB load(1, XDATA, add(CFA_XSP16, literal(-15)))
        CFI (cfiCond72) V0 load(1, XDATA, add(CFA_XSP16, literal(-14)))
        CFI (cfiCond72) V1 load(1, XDATA, add(CFA_XSP16, literal(-13)))
        CFI (cfiCond72) V2 load(1, XDATA, add(CFA_XSP16, literal(-12)))
        CFI (cfiCond72) V3 load(1, XDATA, add(CFA_XSP16, literal(-11)))
        CFI (cfiCond72) V4 load(1, XDATA, add(CFA_XSP16, literal(-10)))
        CFI (cfiCond72) V5 load(1, XDATA, add(CFA_XSP16, literal(-9)))
        CFI (cfiCond72) V6 load(1, XDATA, add(CFA_XSP16, literal(-8)))
        CFI (cfiCond72) V7 load(1, XDATA, add(CFA_XSP16, literal(-7)))
        CFI (cfiCond72) R7 load(1, XDATA, add(CFA_XSP16, literal(-6)))
        CFI (cfiCond72) ?RET_LOW load(1, XDATA, add(CFA_XSP16, literal(-5)))
        CFI (cfiCond72) ?RET_HIGH load(1, XDATA, add(CFA_XSP16, literal(-4)))
        CFI (cfiCond72) ?BRET_EXT load(1, XDATA, add(CFA_XSP16, literal(-3)))
        CFI (cfiCond72) DPL0 load(1, XDATA, add(CFA_XSP16, literal(-2)))
        CFI (cfiCond72) DPH0 load(1, XDATA, add(CFA_XSP16, literal(-1)))
        CFI (cfiCond72) CFA_SP SP+0
        CFI (cfiCond72) CFA_XSP16 add(XSP16, 35)
        CFI Block cfiCond73 Using cfiCommon0
        CFI (cfiCond73) NoFunction
        CFI (cfiCond73) Conditional ??CrossCallReturnLabel_108, ??CrossCallReturnLabel_102, ??CrossCallReturnLabel_54
        CFI (cfiCond73) R6 load(1, XDATA, add(CFA_XSP16, literal(-16)))
        CFI (cfiCond73) VB load(1, XDATA, add(CFA_XSP16, literal(-15)))
        CFI (cfiCond73) V0 load(1, XDATA, add(CFA_XSP16, literal(-14)))
        CFI (cfiCond73) V1 load(1, XDATA, add(CFA_XSP16, literal(-13)))
        CFI (cfiCond73) V2 load(1, XDATA, add(CFA_XSP16, literal(-12)))
        CFI (cfiCond73) V3 load(1, XDATA, add(CFA_XSP16, literal(-11)))
        CFI (cfiCond73) V4 load(1, XDATA, add(CFA_XSP16, literal(-10)))
        CFI (cfiCond73) V5 load(1, XDATA, add(CFA_XSP16, literal(-9)))
        CFI (cfiCond73) V6 load(1, XDATA, add(CFA_XSP16, literal(-8)))
        CFI (cfiCond73) V7 load(1, XDATA, add(CFA_XSP16, literal(-7)))
        CFI (cfiCond73) R7 load(1, XDATA, add(CFA_XSP16, literal(-6)))
        CFI (cfiCond73) ?RET_LOW load(1, XDATA, add(CFA_XSP16, literal(-5)))
        CFI (cfiCond73) ?RET_HIGH load(1, XDATA, add(CFA_XSP16, literal(-4)))
        CFI (cfiCond73) ?BRET_EXT load(1, XDATA, add(CFA_XSP16, literal(-3)))
        CFI (cfiCond73) DPL0 load(1, XDATA, add(CFA_XSP16, literal(-2)))
        CFI (cfiCond73) DPH0 load(1, XDATA, add(CFA_XSP16, literal(-1)))
        CFI (cfiCond73) CFA_SP SP+0
        CFI (cfiCond73) CFA_XSP16 add(XSP16, 34)
        CFI Block cfiCond74 Using cfiCommon0
        CFI (cfiCond74) NoFunction
        CFI (cfiCond74) Conditional ??CrossCallReturnLabel_107, ??CrossCallReturnLabel_60
        CFI (cfiCond74) R6 load(1, XDATA, add(CFA_XSP16, literal(-16)))
        CFI (cfiCond74) VB load(1, XDATA, add(CFA_XSP16, literal(-15)))
        CFI (cfiCond74) V0 load(1, XDATA, add(CFA_XSP16, literal(-14)))
        CFI (cfiCond74) V1 load(1, XDATA, add(CFA_XSP16, literal(-13)))
        CFI (cfiCond74) V2 load(1, XDATA, add(CFA_XSP16, literal(-12)))
        CFI (cfiCond74) V3 load(1, XDATA, add(CFA_XSP16, literal(-11)))
        CFI (cfiCond74) V4 load(1, XDATA, add(CFA_XSP16, literal(-10)))
        CFI (cfiCond74) V5 load(1, XDATA, add(CFA_XSP16, literal(-9)))
        CFI (cfiCond74) V6 load(1, XDATA, add(CFA_XSP16, literal(-8)))
        CFI (cfiCond74) V7 load(1, XDATA, add(CFA_XSP16, literal(-7)))
        CFI (cfiCond74) R7 load(1, XDATA, add(CFA_XSP16, literal(-6)))
        CFI (cfiCond74) ?RET_LOW load(1, XDATA, add(CFA_XSP16, literal(-5)))
        CFI (cfiCond74) ?RET_HIGH load(1, XDATA, add(CFA_XSP16, literal(-4)))
        CFI (cfiCond74) ?BRET_EXT load(1, XDATA, add(CFA_XSP16, literal(-3)))
        CFI (cfiCond74) DPL0 load(1, XDATA, add(CFA_XSP16, literal(-2)))
        CFI (cfiCond74) DPH0 load(1, XDATA, add(CFA_XSP16, literal(-1)))
        CFI (cfiCond74) CFA_SP SP+0
        CFI (cfiCond74) CFA_XSP16 add(XSP16, 35)
        CFI Block cfiCond75 Using cfiCommon0
        CFI (cfiCond75) NoFunction
        CFI (cfiCond75) Conditional ??CrossCallReturnLabel_107, ??CrossCallReturnLabel_61
        CFI (cfiCond75) R6 load(1, XDATA, add(CFA_XSP16, literal(-16)))
        CFI (cfiCond75) VB load(1, XDATA, add(CFA_XSP16, literal(-15)))
        CFI (cfiCond75) V0 load(1, XDATA, add(CFA_XSP16, literal(-14)))
        CFI (cfiCond75) V1 load(1, XDATA, add(CFA_XSP16, literal(-13)))
        CFI (cfiCond75) V2 load(1, XDATA, add(CFA_XSP16, literal(-12)))
        CFI (cfiCond75) V3 load(1, XDATA, add(CFA_XSP16, literal(-11)))
        CFI (cfiCond75) V4 load(1, XDATA, add(CFA_XSP16, literal(-10)))
        CFI (cfiCond75) V5 load(1, XDATA, add(CFA_XSP16, literal(-9)))
        CFI (cfiCond75) V6 load(1, XDATA, add(CFA_XSP16, literal(-8)))
        CFI (cfiCond75) V7 load(1, XDATA, add(CFA_XSP16, literal(-7)))
        CFI (cfiCond75) R7 load(1, XDATA, add(CFA_XSP16, literal(-6)))
        CFI (cfiCond75) ?RET_LOW load(1, XDATA, add(CFA_XSP16, literal(-5)))
        CFI (cfiCond75) ?RET_HIGH load(1, XDATA, add(CFA_XSP16, literal(-4)))
        CFI (cfiCond75) ?BRET_EXT load(1, XDATA, add(CFA_XSP16, literal(-3)))
        CFI (cfiCond75) DPL0 load(1, XDATA, add(CFA_XSP16, literal(-2)))
        CFI (cfiCond75) DPH0 load(1, XDATA, add(CFA_XSP16, literal(-1)))
        CFI (cfiCond75) CFA_SP SP+0
        CFI (cfiCond75) CFA_XSP16 add(XSP16, 34)
        CFI Block cfiPicker76 Using cfiCommon1
        CFI (cfiPicker76) NoFunction
        CFI (cfiPicker76) Picker
        MOVX    @DPTR,A
        MOV     DPL,?V0 + 0
        MOV     DPH,?V0 + 1
        INC     DPTR
        RET
        CFI EndBlock cfiCond69
        CFI EndBlock cfiCond70
        CFI EndBlock cfiCond71
        CFI EndBlock cfiCond72
        CFI EndBlock cfiCond73
        CFI EndBlock cfiCond74
        CFI EndBlock cfiCond75
        CFI EndBlock cfiPicker76

        RSEG BANKED_CODE:CODE:NOROOT(0)
?Subroutine32:
        CFI Block cfiCond77 Using cfiCommon0
        CFI NoFunction
        CFI Conditional ??CrossCallReturnLabel_52
        CFI R6 load(1, XDATA, add(CFA_XSP16, literal(-16)))
        CFI VB load(1, XDATA, add(CFA_XSP16, literal(-15)))
        CFI V0 load(1, XDATA, add(CFA_XSP16, literal(-14)))
        CFI V1 load(1, XDATA, add(CFA_XSP16, literal(-13)))
        CFI V2 load(1, XDATA, add(CFA_XSP16, literal(-12)))
        CFI V3 load(1, XDATA, add(CFA_XSP16, literal(-11)))
        CFI V4 load(1, XDATA, add(CFA_XSP16, literal(-10)))
        CFI V5 load(1, XDATA, add(CFA_XSP16, literal(-9)))
        CFI V6 load(1, XDATA, add(CFA_XSP16, literal(-8)))
        CFI V7 load(1, XDATA, add(CFA_XSP16, literal(-7)))
        CFI R7 load(1, XDATA, add(CFA_XSP16, literal(-6)))
        CFI ?RET_LOW load(1, XDATA, add(CFA_XSP16, literal(-5)))
        CFI ?RET_HIGH load(1, XDATA, add(CFA_XSP16, literal(-4)))
        CFI ?BRET_EXT load(1, XDATA, add(CFA_XSP16, literal(-3)))
        CFI DPL0 load(1, XDATA, add(CFA_XSP16, literal(-2)))
        CFI DPH0 load(1, XDATA, add(CFA_XSP16, literal(-1)))
        CFI CFA_SP SP+0
        CFI CFA_XSP16 add(XSP16, 35)
        CFI Block cfiCond78 Using cfiCommon0
        CFI (cfiCond78) NoFunction
        CFI (cfiCond78) Conditional ??CrossCallReturnLabel_53
        CFI (cfiCond78) R6 load(1, XDATA, add(CFA_XSP16, literal(-16)))
        CFI (cfiCond78) VB load(1, XDATA, add(CFA_XSP16, literal(-15)))
        CFI (cfiCond78) V0 load(1, XDATA, add(CFA_XSP16, literal(-14)))
        CFI (cfiCond78) V1 load(1, XDATA, add(CFA_XSP16, literal(-13)))
        CFI (cfiCond78) V2 load(1, XDATA, add(CFA_XSP16, literal(-12)))
        CFI (cfiCond78) V3 load(1, XDATA, add(CFA_XSP16, literal(-11)))
        CFI (cfiCond78) V4 load(1, XDATA, add(CFA_XSP16, literal(-10)))
        CFI (cfiCond78) V5 load(1, XDATA, add(CFA_XSP16, literal(-9)))
        CFI (cfiCond78) V6 load(1, XDATA, add(CFA_XSP16, literal(-8)))
        CFI (cfiCond78) V7 load(1, XDATA, add(CFA_XSP16, literal(-7)))
        CFI (cfiCond78) R7 load(1, XDATA, add(CFA_XSP16, literal(-6)))
        CFI (cfiCond78) ?RET_LOW load(1, XDATA, add(CFA_XSP16, literal(-5)))
        CFI (cfiCond78) ?RET_HIGH load(1, XDATA, add(CFA_XSP16, literal(-4)))
        CFI (cfiCond78) ?BRET_EXT load(1, XDATA, add(CFA_XSP16, literal(-3)))
        CFI (cfiCond78) DPL0 load(1, XDATA, add(CFA_XSP16, literal(-2)))
        CFI (cfiCond78) DPH0 load(1, XDATA, add(CFA_XSP16, literal(-1)))
        CFI (cfiCond78) CFA_SP SP+0
        CFI (cfiCond78) CFA_XSP16 add(XSP16, 35)
        CFI Block cfiCond79 Using cfiCommon0
        CFI (cfiCond79) NoFunction
        CFI (cfiCond79) Conditional ??CrossCallReturnLabel_54
        CFI (cfiCond79) R6 load(1, XDATA, add(CFA_XSP16, literal(-16)))
        CFI (cfiCond79) VB load(1, XDATA, add(CFA_XSP16, literal(-15)))
        CFI (cfiCond79) V0 load(1, XDATA, add(CFA_XSP16, literal(-14)))
        CFI (cfiCond79) V1 load(1, XDATA, add(CFA_XSP16, literal(-13)))
        CFI (cfiCond79) V2 load(1, XDATA, add(CFA_XSP16, literal(-12)))
        CFI (cfiCond79) V3 load(1, XDATA, add(CFA_XSP16, literal(-11)))
        CFI (cfiCond79) V4 load(1, XDATA, add(CFA_XSP16, literal(-10)))
        CFI (cfiCond79) V5 load(1, XDATA, add(CFA_XSP16, literal(-9)))
        CFI (cfiCond79) V6 load(1, XDATA, add(CFA_XSP16, literal(-8)))
        CFI (cfiCond79) V7 load(1, XDATA, add(CFA_XSP16, literal(-7)))
        CFI (cfiCond79) R7 load(1, XDATA, add(CFA_XSP16, literal(-6)))
        CFI (cfiCond79) ?RET_LOW load(1, XDATA, add(CFA_XSP16, literal(-5)))
        CFI (cfiCond79) ?RET_HIGH load(1, XDATA, add(CFA_XSP16, literal(-4)))
        CFI (cfiCond79) ?BRET_EXT load(1, XDATA, add(CFA_XSP16, literal(-3)))
        CFI (cfiCond79) DPL0 load(1, XDATA, add(CFA_XSP16, literal(-2)))
        CFI (cfiCond79) DPH0 load(1, XDATA, add(CFA_XSP16, literal(-1)))
        CFI (cfiCond79) CFA_SP SP+0
        CFI (cfiCond79) CFA_XSP16 add(XSP16, 34)
        CFI Block cfiPicker80 Using cfiCommon1
        CFI (cfiPicker80) NoFunction
        CFI (cfiPicker80) Picker
        LCALL   ?Subroutine55 & 0xFFFF
??CrossCallReturnLabel_102:
        MOVX    A,@DPTR
        RET
        CFI EndBlock cfiCond77
        CFI EndBlock cfiCond78
        CFI EndBlock cfiCond79
        CFI EndBlock cfiPicker80

        RSEG BANKED_CODE:CODE:NOROOT(0)
?Subroutine26:
        CFI Block cfiCond81 Using cfiCommon0
        CFI NoFunction
        CFI Conditional ??CrossCallReturnLabel_42
        CFI R6 load(1, XDATA, add(CFA_XSP16, literal(-16)))
        CFI VB load(1, XDATA, add(CFA_XSP16, literal(-15)))
        CFI V0 load(1, XDATA, add(CFA_XSP16, literal(-14)))
        CFI V1 load(1, XDATA, add(CFA_XSP16, literal(-13)))
        CFI V2 load(1, XDATA, add(CFA_XSP16, literal(-12)))
        CFI V3 load(1, XDATA, add(CFA_XSP16, literal(-11)))
        CFI V4 load(1, XDATA, add(CFA_XSP16, literal(-10)))
        CFI V5 load(1, XDATA, add(CFA_XSP16, literal(-9)))
        CFI V6 load(1, XDATA, add(CFA_XSP16, literal(-8)))
        CFI V7 load(1, XDATA, add(CFA_XSP16, literal(-7)))
        CFI R7 load(1, XDATA, add(CFA_XSP16, literal(-6)))
        CFI ?RET_LOW load(1, XDATA, add(CFA_XSP16, literal(-5)))
        CFI ?RET_HIGH load(1, XDATA, add(CFA_XSP16, literal(-4)))
        CFI ?BRET_EXT load(1, XDATA, add(CFA_XSP16, literal(-3)))
        CFI DPL0 load(1, XDATA, add(CFA_XSP16, literal(-2)))
        CFI DPH0 load(1, XDATA, add(CFA_XSP16, literal(-1)))
        CFI CFA_SP SP+0
        CFI CFA_XSP16 add(XSP16, 35)
        CFI Block cfiCond82 Using cfiCommon0
        CFI (cfiCond82) NoFunction
        CFI (cfiCond82) Conditional ??CrossCallReturnLabel_43
        CFI (cfiCond82) R6 load(1, XDATA, add(CFA_XSP16, literal(-16)))
        CFI (cfiCond82) VB load(1, XDATA, add(CFA_XSP16, literal(-15)))
        CFI (cfiCond82) V0 load(1, XDATA, add(CFA_XSP16, literal(-14)))
        CFI (cfiCond82) V1 load(1, XDATA, add(CFA_XSP16, literal(-13)))
        CFI (cfiCond82) V2 load(1, XDATA, add(CFA_XSP16, literal(-12)))
        CFI (cfiCond82) V3 load(1, XDATA, add(CFA_XSP16, literal(-11)))
        CFI (cfiCond82) V4 load(1, XDATA, add(CFA_XSP16, literal(-10)))
        CFI (cfiCond82) V5 load(1, XDATA, add(CFA_XSP16, literal(-9)))
        CFI (cfiCond82) V6 load(1, XDATA, add(CFA_XSP16, literal(-8)))
        CFI (cfiCond82) V7 load(1, XDATA, add(CFA_XSP16, literal(-7)))
        CFI (cfiCond82) R7 load(1, XDATA, add(CFA_XSP16, literal(-6)))
        CFI (cfiCond82) ?RET_LOW load(1, XDATA, add(CFA_XSP16, literal(-5)))
        CFI (cfiCond82) ?RET_HIGH load(1, XDATA, add(CFA_XSP16, literal(-4)))
        CFI (cfiCond82) ?BRET_EXT load(1, XDATA, add(CFA_XSP16, literal(-3)))
        CFI (cfiCond82) DPL0 load(1, XDATA, add(CFA_XSP16, literal(-2)))
        CFI (cfiCond82) DPH0 load(1, XDATA, add(CFA_XSP16, literal(-1)))
        CFI (cfiCond82) CFA_SP SP+0
        CFI (cfiCond82) CFA_XSP16 add(XSP16, 34)
        CFI Block cfiPicker83 Using cfiCommon1
        CFI (cfiPicker83) NoFunction
        CFI (cfiPicker83) Picker
        MOVX    A,@DPTR
        MOV     R2,A
        MOV     R1,#0x64
        LCALL   ??MT_BuildAndSendZToolResponse?relay
        RET
        CFI EndBlock cfiCond81
        CFI EndBlock cfiCond82
        CFI EndBlock cfiPicker83

        RSEG BANKED_CODE:CODE:NOROOT(0)
?Subroutine17:
        CFI Block cfiCond84 Using cfiCommon0
        CFI NoFunction
        CFI Conditional ??CrossCallReturnLabel_27
        CFI R6 load(1, XDATA, add(CFA_XSP16, literal(-16)))
        CFI VB load(1, XDATA, add(CFA_XSP16, literal(-15)))
        CFI V0 load(1, XDATA, add(CFA_XSP16, literal(-14)))
        CFI V1 load(1, XDATA, add(CFA_XSP16, literal(-13)))
        CFI V2 load(1, XDATA, add(CFA_XSP16, literal(-12)))
        CFI V3 load(1, XDATA, add(CFA_XSP16, literal(-11)))
        CFI V4 load(1, XDATA, add(CFA_XSP16, literal(-10)))
        CFI V5 load(1, XDATA, add(CFA_XSP16, literal(-9)))
        CFI V6 load(1, XDATA, add(CFA_XSP16, literal(-8)))
        CFI V7 load(1, XDATA, add(CFA_XSP16, literal(-7)))
        CFI R7 load(1, XDATA, add(CFA_XSP16, literal(-6)))
        CFI ?RET_LOW load(1, XDATA, add(CFA_XSP16, literal(-5)))
        CFI ?RET_HIGH load(1, XDATA, add(CFA_XSP16, literal(-4)))
        CFI ?BRET_EXT load(1, XDATA, add(CFA_XSP16, literal(-3)))
        CFI DPL0 load(1, XDATA, add(CFA_XSP16, literal(-2)))
        CFI DPH0 load(1, XDATA, add(CFA_XSP16, literal(-1)))
        CFI CFA_SP SP+0
        CFI CFA_XSP16 add(XSP16, 35)
        CFI Block cfiCond85 Using cfiCommon0
        CFI (cfiCond85) NoFunction
        CFI (cfiCond85) Conditional ??CrossCallReturnLabel_28
        CFI (cfiCond85) R6 load(1, XDATA, add(CFA_XSP16, literal(-16)))
        CFI (cfiCond85) VB load(1, XDATA, add(CFA_XSP16, literal(-15)))
        CFI (cfiCond85) V0 load(1, XDATA, add(CFA_XSP16, literal(-14)))
        CFI (cfiCond85) V1 load(1, XDATA, add(CFA_XSP16, literal(-13)))
        CFI (cfiCond85) V2 load(1, XDATA, add(CFA_XSP16, literal(-12)))
        CFI (cfiCond85) V3 load(1, XDATA, add(CFA_XSP16, literal(-11)))
        CFI (cfiCond85) V4 load(1, XDATA, add(CFA_XSP16, literal(-10)))
        CFI (cfiCond85) V5 load(1, XDATA, add(CFA_XSP16, literal(-9)))
        CFI (cfiCond85) V6 load(1, XDATA, add(CFA_XSP16, literal(-8)))
        CFI (cfiCond85) V7 load(1, XDATA, add(CFA_XSP16, literal(-7)))
        CFI (cfiCond85) R7 load(1, XDATA, add(CFA_XSP16, literal(-6)))
        CFI (cfiCond85) ?RET_LOW load(1, XDATA, add(CFA_XSP16, literal(-5)))
        CFI (cfiCond85) ?RET_HIGH load(1, XDATA, add(CFA_XSP16, literal(-4)))
        CFI (cfiCond85) ?BRET_EXT load(1, XDATA, add(CFA_XSP16, literal(-3)))
        CFI (cfiCond85) DPL0 load(1, XDATA, add(CFA_XSP16, literal(-2)))
        CFI (cfiCond85) DPH0 load(1, XDATA, add(CFA_XSP16, literal(-1)))
        CFI (cfiCond85) CFA_SP SP+0
        CFI (cfiCond85) CFA_XSP16 add(XSP16, 35)
        CFI Block cfiCond86 Using cfiCommon0
        CFI (cfiCond86) NoFunction
        CFI (cfiCond86) Conditional ??CrossCallReturnLabel_29
        CFI (cfiCond86) R6 load(1, XDATA, add(CFA_XSP16, literal(-16)))
        CFI (cfiCond86) VB load(1, XDATA, add(CFA_XSP16, literal(-15)))
        CFI (cfiCond86) V0 load(1, XDATA, add(CFA_XSP16, literal(-14)))
        CFI (cfiCond86) V1 load(1, XDATA, add(CFA_XSP16, literal(-13)))
        CFI (cfiCond86) V2 load(1, XDATA, add(CFA_XSP16, literal(-12)))
        CFI (cfiCond86) V3 load(1, XDATA, add(CFA_XSP16, literal(-11)))
        CFI (cfiCond86) V4 load(1, XDATA, add(CFA_XSP16, literal(-10)))
        CFI (cfiCond86) V5 load(1, XDATA, add(CFA_XSP16, literal(-9)))
        CFI (cfiCond86) V6 load(1, XDATA, add(CFA_XSP16, literal(-8)))
        CFI (cfiCond86) V7 load(1, XDATA, add(CFA_XSP16, literal(-7)))
        CFI (cfiCond86) R7 load(1, XDATA, add(CFA_XSP16, literal(-6)))
        CFI (cfiCond86) ?RET_LOW load(1, XDATA, add(CFA_XSP16, literal(-5)))
        CFI (cfiCond86) ?RET_HIGH load(1, XDATA, add(CFA_XSP16, literal(-4)))
        CFI (cfiCond86) ?BRET_EXT load(1, XDATA, add(CFA_XSP16, literal(-3)))
        CFI (cfiCond86) DPL0 load(1, XDATA, add(CFA_XSP16, literal(-2)))
        CFI (cfiCond86) DPH0 load(1, XDATA, add(CFA_XSP16, literal(-1)))
        CFI (cfiCond86) CFA_SP SP+0
        CFI (cfiCond86) CFA_XSP16 add(XSP16, 34)
        CFI Block cfiPicker87 Using cfiCommon1
        CFI (cfiPicker87) NoFunction
        CFI (cfiPicker87) Picker
        LCALL   ?Subroutine58 & 0xFFFF
??CrossCallReturnLabel_139:
        MOV     R1,A
        MOV     A,R2
        MOV     R0,A
        RET
        CFI EndBlock cfiCond84
        CFI EndBlock cfiCond85
        CFI EndBlock cfiCond86
        CFI EndBlock cfiPicker87

        RSEG BANKED_CODE:CODE:NOROOT(0)
?Subroutine58:
        CFI Block cfiCond88 Using cfiCommon0
        CFI NoFunction
        CFI Conditional ??CrossCallReturnLabel_136
        CFI R6 load(1, XDATA, add(CFA_XSP16, literal(-9)))
        CFI VB load(1, XDATA, add(CFA_XSP16, literal(-8)))
        CFI V0 load(1, XDATA, add(CFA_XSP16, literal(-7)))
        CFI R7 load(1, XDATA, add(CFA_XSP16, literal(-6)))
        CFI ?RET_LOW load(1, XDATA, add(CFA_XSP16, literal(-5)))
        CFI ?RET_HIGH load(1, XDATA, add(CFA_XSP16, literal(-4)))
        CFI ?BRET_EXT load(1, XDATA, add(CFA_XSP16, literal(-3)))
        CFI DPL0 load(1, XDATA, add(CFA_XSP16, literal(-2)))
        CFI DPH0 load(1, XDATA, add(CFA_XSP16, literal(-1)))
        CFI CFA_SP SP+0
        CFI CFA_XSP16 add(XSP16, 9)
        CFI Block cfiCond89 Using cfiCommon0
        CFI (cfiCond89) NoFunction
        CFI (cfiCond89) Conditional ??CrossCallReturnLabel_137
        CFI (cfiCond89) R6 load(1, XDATA, add(CFA_XSP16, literal(-9)))
        CFI (cfiCond89) VB load(1, XDATA, add(CFA_XSP16, literal(-8)))
        CFI (cfiCond89) V0 load(1, XDATA, add(CFA_XSP16, literal(-7)))
        CFI (cfiCond89) R7 load(1, XDATA, add(CFA_XSP16, literal(-6)))
        CFI (cfiCond89) ?RET_LOW load(1, XDATA, add(CFA_XSP16, literal(-5)))
        CFI (cfiCond89) ?RET_HIGH load(1, XDATA, add(CFA_XSP16, literal(-4)))
        CFI (cfiCond89) ?BRET_EXT load(1, XDATA, add(CFA_XSP16, literal(-3)))
        CFI (cfiCond89) DPL0 load(1, XDATA, add(CFA_XSP16, literal(-2)))
        CFI (cfiCond89) DPH0 load(1, XDATA, add(CFA_XSP16, literal(-1)))
        CFI (cfiCond89) CFA_SP SP+0
        CFI (cfiCond89) CFA_XSP16 add(XSP16, 9)
        CFI Block cfiCond90 Using cfiCommon0
        CFI (cfiCond90) NoFunction
        CFI (cfiCond90) Conditional ??CrossCallReturnLabel_138
        CFI (cfiCond90) R6 load(1, XDATA, add(CFA_XSP16, literal(-16)))
        CFI (cfiCond90) VB load(1, XDATA, add(CFA_XSP16, literal(-15)))
        CFI (cfiCond90) V0 load(1, XDATA, add(CFA_XSP16, literal(-14)))
        CFI (cfiCond90) V1 load(1, XDATA, add(CFA_XSP16, literal(-13)))
        CFI (cfiCond90) V2 load(1, XDATA, add(CFA_XSP16, literal(-12)))
        CFI (cfiCond90) V3 load(1, XDATA, add(CFA_XSP16, literal(-11)))
        CFI (cfiCond90) V4 load(1, XDATA, add(CFA_XSP16, literal(-10)))
        CFI (cfiCond90) V5 load(1, XDATA, add(CFA_XSP16, literal(-9)))
        CFI (cfiCond90) V6 load(1, XDATA, add(CFA_XSP16, literal(-8)))
        CFI (cfiCond90) V7 load(1, XDATA, add(CFA_XSP16, literal(-7)))
        CFI (cfiCond90) R7 load(1, XDATA, add(CFA_XSP16, literal(-6)))
        CFI (cfiCond90) ?RET_LOW load(1, XDATA, add(CFA_XSP16, literal(-5)))
        CFI (cfiCond90) ?RET_HIGH load(1, XDATA, add(CFA_XSP16, literal(-4)))
        CFI (cfiCond90) ?BRET_EXT load(1, XDATA, add(CFA_XSP16, literal(-3)))
        CFI (cfiCond90) DPL0 load(1, XDATA, add(CFA_XSP16, literal(-2)))
        CFI (cfiCond90) DPH0 load(1, XDATA, add(CFA_XSP16, literal(-1)))
        CFI (cfiCond90) CFA_SP SP+0
        CFI (cfiCond90) CFA_XSP16 add(XSP16, 35)
        CFI Block cfiCond91 Using cfiCommon0
        CFI (cfiCond91) NoFunction
        CFI (cfiCond91) Conditional ??CrossCallReturnLabel_139, ??CrossCallReturnLabel_27
        CFI (cfiCond91) R6 load(1, XDATA, add(CFA_XSP16, literal(-16)))
        CFI (cfiCond91) VB load(1, XDATA, add(CFA_XSP16, literal(-15)))
        CFI (cfiCond91) V0 load(1, XDATA, add(CFA_XSP16, literal(-14)))
        CFI (cfiCond91) V1 load(1, XDATA, add(CFA_XSP16, literal(-13)))
        CFI (cfiCond91) V2 load(1, XDATA, add(CFA_XSP16, literal(-12)))
        CFI (cfiCond91) V3 load(1, XDATA, add(CFA_XSP16, literal(-11)))
        CFI (cfiCond91) V4 load(1, XDATA, add(CFA_XSP16, literal(-10)))
        CFI (cfiCond91) V5 load(1, XDATA, add(CFA_XSP16, literal(-9)))
        CFI (cfiCond91) V6 load(1, XDATA, add(CFA_XSP16, literal(-8)))
        CFI (cfiCond91) V7 load(1, XDATA, add(CFA_XSP16, literal(-7)))
        CFI (cfiCond91) R7 load(1, XDATA, add(CFA_XSP16, literal(-6)))
        CFI (cfiCond91) ?RET_LOW load(1, XDATA, add(CFA_XSP16, literal(-5)))
        CFI (cfiCond91) ?RET_HIGH load(1, XDATA, add(CFA_XSP16, literal(-4)))
        CFI (cfiCond91) ?BRET_EXT load(1, XDATA, add(CFA_XSP16, literal(-3)))
        CFI (cfiCond91) DPL0 load(1, XDATA, add(CFA_XSP16, literal(-2)))
        CFI (cfiCond91) DPH0 load(1, XDATA, add(CFA_XSP16, literal(-1)))
        CFI (cfiCond91) CFA_SP SP+0
        CFI (cfiCond91) CFA_XSP16 add(XSP16, 35)
        CFI Block cfiCond92 Using cfiCommon0
        CFI (cfiCond92) NoFunction
        CFI (cfiCond92) Conditional ??CrossCallReturnLabel_139, ??CrossCallReturnLabel_28
        CFI (cfiCond92) R6 load(1, XDATA, add(CFA_XSP16, literal(-16)))
        CFI (cfiCond92) VB load(1, XDATA, add(CFA_XSP16, literal(-15)))
        CFI (cfiCond92) V0 load(1, XDATA, add(CFA_XSP16, literal(-14)))
        CFI (cfiCond92) V1 load(1, XDATA, add(CFA_XSP16, literal(-13)))
        CFI (cfiCond92) V2 load(1, XDATA, add(CFA_XSP16, literal(-12)))
        CFI (cfiCond92) V3 load(1, XDATA, add(CFA_XSP16, literal(-11)))
        CFI (cfiCond92) V4 load(1, XDATA, add(CFA_XSP16, literal(-10)))
        CFI (cfiCond92) V5 load(1, XDATA, add(CFA_XSP16, literal(-9)))
        CFI (cfiCond92) V6 load(1, XDATA, add(CFA_XSP16, literal(-8)))
        CFI (cfiCond92) V7 load(1, XDATA, add(CFA_XSP16, literal(-7)))
        CFI (cfiCond92) R7 load(1, XDATA, add(CFA_XSP16, literal(-6)))
        CFI (cfiCond92) ?RET_LOW load(1, XDATA, add(CFA_XSP16, literal(-5)))
        CFI (cfiCond92) ?RET_HIGH load(1, XDATA, add(CFA_XSP16, literal(-4)))
        CFI (cfiCond92) ?BRET_EXT load(1, XDATA, add(CFA_XSP16, literal(-3)))
        CFI (cfiCond92) DPL0 load(1, XDATA, add(CFA_XSP16, literal(-2)))
        CFI (cfiCond92) DPH0 load(1, XDATA, add(CFA_XSP16, literal(-1)))
        CFI (cfiCond92) CFA_SP SP+0
        CFI (cfiCond92) CFA_XSP16 add(XSP16, 35)
        CFI Block cfiCond93 Using cfiCommon0
        CFI (cfiCond93) NoFunction
        CFI (cfiCond93) Conditional ??CrossCallReturnLabel_139, ??CrossCallReturnLabel_29
        CFI (cfiCond93) R6 load(1, XDATA, add(CFA_XSP16, literal(-16)))
        CFI (cfiCond93) VB load(1, XDATA, add(CFA_XSP16, literal(-15)))
        CFI (cfiCond93) V0 load(1, XDATA, add(CFA_XSP16, literal(-14)))
        CFI (cfiCond93) V1 load(1, XDATA, add(CFA_XSP16, literal(-13)))
        CFI (cfiCond93) V2 load(1, XDATA, add(CFA_XSP16, literal(-12)))
        CFI (cfiCond93) V3 load(1, XDATA, add(CFA_XSP16, literal(-11)))
        CFI (cfiCond93) V4 load(1, XDATA, add(CFA_XSP16, literal(-10)))
        CFI (cfiCond93) V5 load(1, XDATA, add(CFA_XSP16, literal(-9)))
        CFI (cfiCond93) V6 load(1, XDATA, add(CFA_XSP16, literal(-8)))
        CFI (cfiCond93) V7 load(1, XDATA, add(CFA_XSP16, literal(-7)))
        CFI (cfiCond93) R7 load(1, XDATA, add(CFA_XSP16, literal(-6)))
        CFI (cfiCond93) ?RET_LOW load(1, XDATA, add(CFA_XSP16, literal(-5)))
        CFI (cfiCond93) ?RET_HIGH load(1, XDATA, add(CFA_XSP16, literal(-4)))
        CFI (cfiCond93) ?BRET_EXT load(1, XDATA, add(CFA_XSP16, literal(-3)))
        CFI (cfiCond93) DPL0 load(1, XDATA, add(CFA_XSP16, literal(-2)))
        CFI (cfiCond93) DPH0 load(1, XDATA, add(CFA_XSP16, literal(-1)))
        CFI (cfiCond93) CFA_SP SP+0
        CFI (cfiCond93) CFA_XSP16 add(XSP16, 34)
        CFI Block cfiCond94 Using cfiCommon0
        CFI (cfiCond94) NoFunction
        CFI (cfiCond94) Conditional ??CrossCallReturnLabel_141, ??CrossCallReturnLabel_134
        CFI (cfiCond94) R6 load(1, XDATA, add(CFA_XSP16, literal(-16)))
        CFI (cfiCond94) VB load(1, XDATA, add(CFA_XSP16, literal(-15)))
        CFI (cfiCond94) V0 load(1, XDATA, add(CFA_XSP16, literal(-14)))
        CFI (cfiCond94) V1 load(1, XDATA, add(CFA_XSP16, literal(-13)))
        CFI (cfiCond94) V2 load(1, XDATA, add(CFA_XSP16, literal(-12)))
        CFI (cfiCond94) V3 load(1, XDATA, add(CFA_XSP16, literal(-11)))
        CFI (cfiCond94) V4 load(1, XDATA, add(CFA_XSP16, literal(-10)))
        CFI (cfiCond94) V5 load(1, XDATA, add(CFA_XSP16, literal(-9)))
        CFI (cfiCond94) V6 load(1, XDATA, add(CFA_XSP16, literal(-8)))
        CFI (cfiCond94) V7 load(1, XDATA, add(CFA_XSP16, literal(-7)))
        CFI (cfiCond94) R7 load(1, XDATA, add(CFA_XSP16, literal(-6)))
        CFI (cfiCond94) ?RET_LOW load(1, XDATA, add(CFA_XSP16, literal(-5)))
        CFI (cfiCond94) ?RET_HIGH load(1, XDATA, add(CFA_XSP16, literal(-4)))
        CFI (cfiCond94) ?BRET_EXT load(1, XDATA, add(CFA_XSP16, literal(-3)))
        CFI (cfiCond94) DPL0 load(1, XDATA, add(CFA_XSP16, literal(-2)))
        CFI (cfiCond94) DPH0 load(1, XDATA, add(CFA_XSP16, literal(-1)))
        CFI (cfiCond94) CFA_SP SP+0
        CFI (cfiCond94) CFA_XSP16 add(XSP16, 25)
        CFI Block cfiCond95 Using cfiCommon0
        CFI (cfiCond95) NoFunction
        CFI (cfiCond95) Conditional ??CrossCallReturnLabel_141, ??CrossCallReturnLabel_135
        CFI (cfiCond95) R6 load(1, XDATA, add(CFA_XSP16, literal(-16)))
        CFI (cfiCond95) VB load(1, XDATA, add(CFA_XSP16, literal(-15)))
        CFI (cfiCond95) V0 load(1, XDATA, add(CFA_XSP16, literal(-14)))
        CFI (cfiCond95) V1 load(1, XDATA, add(CFA_XSP16, literal(-13)))
        CFI (cfiCond95) V2 load(1, XDATA, add(CFA_XSP16, literal(-12)))
        CFI (cfiCond95) V3 load(1, XDATA, add(CFA_XSP16, literal(-11)))
        CFI (cfiCond95) V4 load(1, XDATA, add(CFA_XSP16, literal(-10)))
        CFI (cfiCond95) V5 load(1, XDATA, add(CFA_XSP16, literal(-9)))
        CFI (cfiCond95) V6 load(1, XDATA, add(CFA_XSP16, literal(-8)))
        CFI (cfiCond95) V7 load(1, XDATA, add(CFA_XSP16, literal(-7)))
        CFI (cfiCond95) R7 load(1, XDATA, add(CFA_XSP16, literal(-6)))
        CFI (cfiCond95) ?RET_LOW load(1, XDATA, add(CFA_XSP16, literal(-5)))
        CFI (cfiCond95) ?RET_HIGH load(1, XDATA, add(CFA_XSP16, literal(-4)))
        CFI (cfiCond95) ?BRET_EXT load(1, XDATA, add(CFA_XSP16, literal(-3)))
        CFI (cfiCond95) DPL0 load(1, XDATA, add(CFA_XSP16, literal(-2)))
        CFI (cfiCond95) DPH0 load(1, XDATA, add(CFA_XSP16, literal(-1)))
        CFI (cfiCond95) CFA_SP SP+0
        CFI (cfiCond95) CFA_XSP16 add(XSP16, 21)
        CFI Block cfiCond96 Using cfiCommon0
        CFI (cfiCond96) NoFunction
        CFI (cfiCond96) Conditional ??CrossCallReturnLabel_141, ??CrossCallReturnLabel_131
        CFI (cfiCond96) R6 load(1, XDATA, add(CFA_XSP16, literal(-16)))
        CFI (cfiCond96) VB load(1, XDATA, add(CFA_XSP16, literal(-15)))
        CFI (cfiCond96) V0 load(1, XDATA, add(CFA_XSP16, literal(-14)))
        CFI (cfiCond96) V1 load(1, XDATA, add(CFA_XSP16, literal(-13)))
        CFI (cfiCond96) V2 load(1, XDATA, add(CFA_XSP16, literal(-12)))
        CFI (cfiCond96) V3 load(1, XDATA, add(CFA_XSP16, literal(-11)))
        CFI (cfiCond96) V4 load(1, XDATA, add(CFA_XSP16, literal(-10)))
        CFI (cfiCond96) V5 load(1, XDATA, add(CFA_XSP16, literal(-9)))
        CFI (cfiCond96) V6 load(1, XDATA, add(CFA_XSP16, literal(-8)))
        CFI (cfiCond96) V7 load(1, XDATA, add(CFA_XSP16, literal(-7)))
        CFI (cfiCond96) R7 load(1, XDATA, add(CFA_XSP16, literal(-6)))
        CFI (cfiCond96) ?RET_LOW load(1, XDATA, add(CFA_XSP16, literal(-5)))
        CFI (cfiCond96) ?RET_HIGH load(1, XDATA, add(CFA_XSP16, literal(-4)))
        CFI (cfiCond96) ?BRET_EXT load(1, XDATA, add(CFA_XSP16, literal(-3)))
        CFI (cfiCond96) DPL0 load(1, XDATA, add(CFA_XSP16, literal(-2)))
        CFI (cfiCond96) DPH0 load(1, XDATA, add(CFA_XSP16, literal(-1)))
        CFI (cfiCond96) CFA_SP SP+0
        CFI (cfiCond96) CFA_XSP16 add(XSP16, 35)
        CFI Block cfiCond97 Using cfiCommon0
        CFI (cfiCond97) NoFunction
        CFI (cfiCond97) Conditional ??CrossCallReturnLabel_141, ??CrossCallReturnLabel_132
        CFI (cfiCond97) R6 load(1, XDATA, add(CFA_XSP16, literal(-16)))
        CFI (cfiCond97) VB load(1, XDATA, add(CFA_XSP16, literal(-15)))
        CFI (cfiCond97) V0 load(1, XDATA, add(CFA_XSP16, literal(-14)))
        CFI (cfiCond97) V1 load(1, XDATA, add(CFA_XSP16, literal(-13)))
        CFI (cfiCond97) V2 load(1, XDATA, add(CFA_XSP16, literal(-12)))
        CFI (cfiCond97) V3 load(1, XDATA, add(CFA_XSP16, literal(-11)))
        CFI (cfiCond97) V4 load(1, XDATA, add(CFA_XSP16, literal(-10)))
        CFI (cfiCond97) V5 load(1, XDATA, add(CFA_XSP16, literal(-9)))
        CFI (cfiCond97) V6 load(1, XDATA, add(CFA_XSP16, literal(-8)))
        CFI (cfiCond97) V7 load(1, XDATA, add(CFA_XSP16, literal(-7)))
        CFI (cfiCond97) R7 load(1, XDATA, add(CFA_XSP16, literal(-6)))
        CFI (cfiCond97) ?RET_LOW load(1, XDATA, add(CFA_XSP16, literal(-5)))
        CFI (cfiCond97) ?RET_HIGH load(1, XDATA, add(CFA_XSP16, literal(-4)))
        CFI (cfiCond97) ?BRET_EXT load(1, XDATA, add(CFA_XSP16, literal(-3)))
        CFI (cfiCond97) DPL0 load(1, XDATA, add(CFA_XSP16, literal(-2)))
        CFI (cfiCond97) DPH0 load(1, XDATA, add(CFA_XSP16, literal(-1)))
        CFI (cfiCond97) CFA_SP SP+0
        CFI (cfiCond97) CFA_XSP16 add(XSP16, 35)
        CFI Block cfiCond98 Using cfiCommon0
        CFI (cfiCond98) NoFunction
        CFI (cfiCond98) Conditional ??CrossCallReturnLabel_141, ??CrossCallReturnLabel_133
        CFI (cfiCond98) R6 load(1, XDATA, add(CFA_XSP16, literal(-16)))
        CFI (cfiCond98) VB load(1, XDATA, add(CFA_XSP16, literal(-15)))
        CFI (cfiCond98) V0 load(1, XDATA, add(CFA_XSP16, literal(-14)))
        CFI (cfiCond98) V1 load(1, XDATA, add(CFA_XSP16, literal(-13)))
        CFI (cfiCond98) V2 load(1, XDATA, add(CFA_XSP16, literal(-12)))
        CFI (cfiCond98) V3 load(1, XDATA, add(CFA_XSP16, literal(-11)))
        CFI (cfiCond98) V4 load(1, XDATA, add(CFA_XSP16, literal(-10)))
        CFI (cfiCond98) V5 load(1, XDATA, add(CFA_XSP16, literal(-9)))
        CFI (cfiCond98) V6 load(1, XDATA, add(CFA_XSP16, literal(-8)))
        CFI (cfiCond98) V7 load(1, XDATA, add(CFA_XSP16, literal(-7)))
        CFI (cfiCond98) R7 load(1, XDATA, add(CFA_XSP16, literal(-6)))
        CFI (cfiCond98) ?RET_LOW load(1, XDATA, add(CFA_XSP16, literal(-5)))
        CFI (cfiCond98) ?RET_HIGH load(1, XDATA, add(CFA_XSP16, literal(-4)))
        CFI (cfiCond98) ?BRET_EXT load(1, XDATA, add(CFA_XSP16, literal(-3)))
        CFI (cfiCond98) DPL0 load(1, XDATA, add(CFA_XSP16, literal(-2)))
        CFI (cfiCond98) DPH0 load(1, XDATA, add(CFA_XSP16, literal(-1)))
        CFI (cfiCond98) CFA_SP SP+0
        CFI (cfiCond98) CFA_XSP16 add(XSP16, 34)
        CFI Block cfiCond99 Using cfiCommon0
        CFI (cfiCond99) NoFunction
        CFI (cfiCond99) Conditional ??CrossCallReturnLabel_140, ??CrossCallReturnLabel_100, ??CrossCallReturnLabel_36
        CFI (cfiCond99) R6 load(1, XDATA, add(CFA_XSP16, literal(-16)))
        CFI (cfiCond99) VB load(1, XDATA, add(CFA_XSP16, literal(-15)))
        CFI (cfiCond99) V0 load(1, XDATA, add(CFA_XSP16, literal(-14)))
        CFI (cfiCond99) V1 load(1, XDATA, add(CFA_XSP16, literal(-13)))
        CFI (cfiCond99) V2 load(1, XDATA, add(CFA_XSP16, literal(-12)))
        CFI (cfiCond99) V3 load(1, XDATA, add(CFA_XSP16, literal(-11)))
        CFI (cfiCond99) V4 load(1, XDATA, add(CFA_XSP16, literal(-10)))
        CFI (cfiCond99) V5 load(1, XDATA, add(CFA_XSP16, literal(-9)))
        CFI (cfiCond99) V6 load(1, XDATA, add(CFA_XSP16, literal(-8)))
        CFI (cfiCond99) V7 load(1, XDATA, add(CFA_XSP16, literal(-7)))
        CFI (cfiCond99) R7 load(1, XDATA, add(CFA_XSP16, literal(-6)))
        CFI (cfiCond99) ?RET_LOW load(1, XDATA, add(CFA_XSP16, literal(-5)))
        CFI (cfiCond99) ?RET_HIGH load(1, XDATA, add(CFA_XSP16, literal(-4)))
        CFI (cfiCond99) ?BRET_EXT load(1, XDATA, add(CFA_XSP16, literal(-3)))
        CFI (cfiCond99) DPL0 load(1, XDATA, add(CFA_XSP16, literal(-2)))
        CFI (cfiCond99) DPH0 load(1, XDATA, add(CFA_XSP16, literal(-1)))
        CFI (cfiCond99) CFA_SP SP+0
        CFI (cfiCond99) CFA_XSP16 add(XSP16, 25)
        CFI Block cfiCond100 Using cfiCommon0
        CFI (cfiCond100) NoFunction
        CFI (cfiCond100) Conditional ??CrossCallReturnLabel_140, ??CrossCallReturnLabel_100, ??CrossCallReturnLabel_37
        CFI (cfiCond100) R6 load(1, XDATA, add(CFA_XSP16, literal(-16)))
        CFI (cfiCond100) VB load(1, XDATA, add(CFA_XSP16, literal(-15)))
        CFI (cfiCond100) V0 load(1, XDATA, add(CFA_XSP16, literal(-14)))
        CFI (cfiCond100) V1 load(1, XDATA, add(CFA_XSP16, literal(-13)))
        CFI (cfiCond100) V2 load(1, XDATA, add(CFA_XSP16, literal(-12)))
        CFI (cfiCond100) V3 load(1, XDATA, add(CFA_XSP16, literal(-11)))
        CFI (cfiCond100) V4 load(1, XDATA, add(CFA_XSP16, literal(-10)))
        CFI (cfiCond100) V5 load(1, XDATA, add(CFA_XSP16, literal(-9)))
        CFI (cfiCond100) V6 load(1, XDATA, add(CFA_XSP16, literal(-8)))
        CFI (cfiCond100) V7 load(1, XDATA, add(CFA_XSP16, literal(-7)))
        CFI (cfiCond100) R7 load(1, XDATA, add(CFA_XSP16, literal(-6)))
        CFI (cfiCond100) ?RET_LOW load(1, XDATA, add(CFA_XSP16, literal(-5)))
        CFI (cfiCond100) ?RET_HIGH load(1, XDATA, add(CFA_XSP16, literal(-4)))
        CFI (cfiCond100) ?BRET_EXT load(1, XDATA, add(CFA_XSP16, literal(-3)))
        CFI (cfiCond100) DPL0 load(1, XDATA, add(CFA_XSP16, literal(-2)))
        CFI (cfiCond100) DPH0 load(1, XDATA, add(CFA_XSP16, literal(-1)))
        CFI (cfiCond100) CFA_SP SP+0
        CFI (cfiCond100) CFA_XSP16 add(XSP16, 21)
        CFI Block cfiCond101 Using cfiCommon0
        CFI (cfiCond101) NoFunction
        CFI (cfiCond101) Conditional ??CrossCallReturnLabel_140, ??CrossCallReturnLabel_101, ??CrossCallReturnLabel_14
        CFI (cfiCond101) R6 load(1, XDATA, add(CFA_XSP16, literal(-9)))
        CFI (cfiCond101) VB load(1, XDATA, add(CFA_XSP16, literal(-8)))
        CFI (cfiCond101) V0 load(1, XDATA, add(CFA_XSP16, literal(-7)))
        CFI (cfiCond101) R7 load(1, XDATA, add(CFA_XSP16, literal(-6)))
        CFI (cfiCond101) ?RET_LOW load(1, XDATA, add(CFA_XSP16, literal(-5)))
        CFI (cfiCond101) ?RET_HIGH load(1, XDATA, add(CFA_XSP16, literal(-4)))
        CFI (cfiCond101) ?BRET_EXT load(1, XDATA, add(CFA_XSP16, literal(-3)))
        CFI (cfiCond101) DPL0 load(1, XDATA, add(CFA_XSP16, literal(-2)))
        CFI (cfiCond101) DPH0 load(1, XDATA, add(CFA_XSP16, literal(-1)))
        CFI (cfiCond101) CFA_SP SP+0
        CFI (cfiCond101) CFA_XSP16 add(XSP16, 9)
        CFI Block cfiCond102 Using cfiCommon0
        CFI (cfiCond102) NoFunction
        CFI (cfiCond102) Conditional ??CrossCallReturnLabel_140, ??CrossCallReturnLabel_101, ??CrossCallReturnLabel_15
        CFI (cfiCond102) R6 load(1, XDATA, add(CFA_XSP16, literal(-16)))
        CFI (cfiCond102) VB load(1, XDATA, add(CFA_XSP16, literal(-15)))
        CFI (cfiCond102) V0 load(1, XDATA, add(CFA_XSP16, literal(-14)))
        CFI (cfiCond102) V1 load(1, XDATA, add(CFA_XSP16, literal(-13)))
        CFI (cfiCond102) V2 load(1, XDATA, add(CFA_XSP16, literal(-12)))
        CFI (cfiCond102) V3 load(1, XDATA, add(CFA_XSP16, literal(-11)))
        CFI (cfiCond102) V4 load(1, XDATA, add(CFA_XSP16, literal(-10)))
        CFI (cfiCond102) V5 load(1, XDATA, add(CFA_XSP16, literal(-9)))
        CFI (cfiCond102) V6 load(1, XDATA, add(CFA_XSP16, literal(-8)))
        CFI (cfiCond102) V7 load(1, XDATA, add(CFA_XSP16, literal(-7)))
        CFI (cfiCond102) R7 load(1, XDATA, add(CFA_XSP16, literal(-6)))
        CFI (cfiCond102) ?RET_LOW load(1, XDATA, add(CFA_XSP16, literal(-5)))
        CFI (cfiCond102) ?RET_HIGH load(1, XDATA, add(CFA_XSP16, literal(-4)))
        CFI (cfiCond102) ?BRET_EXT load(1, XDATA, add(CFA_XSP16, literal(-3)))
        CFI (cfiCond102) DPL0 load(1, XDATA, add(CFA_XSP16, literal(-2)))
        CFI (cfiCond102) DPH0 load(1, XDATA, add(CFA_XSP16, literal(-1)))
        CFI (cfiCond102) CFA_SP SP+0
        CFI (cfiCond102) CFA_XSP16 add(XSP16, 17)
        CFI Block cfiPicker103 Using cfiCommon1
        CFI (cfiPicker103) NoFunction
        CFI (cfiPicker103) Picker
        MOVX    A,@DPTR
        MOV     R2,A
        INC     DPTR
        MOVX    A,@DPTR
        RET
        CFI EndBlock cfiCond88
        CFI EndBlock cfiCond89
        CFI EndBlock cfiCond90
        CFI EndBlock cfiCond91
        CFI EndBlock cfiCond92
        CFI EndBlock cfiCond93
        CFI EndBlock cfiCond94
        CFI EndBlock cfiCond95
        CFI EndBlock cfiCond96
        CFI EndBlock cfiCond97
        CFI EndBlock cfiCond98
        CFI EndBlock cfiCond99
        CFI EndBlock cfiCond100
        CFI EndBlock cfiCond101
        CFI EndBlock cfiCond102
        CFI EndBlock cfiPicker103
//  515 #endif
//  516 
//  517 #if defined INTER_PAN
//  518 /***************************************************************************************************
//  519  * @fn      MT_AfInterPanCtl
//  520  *
//  521  * @brief   Process the AF Inter Pan control command.
//  522  *
//  523  * @param   pBuf - pointer to the received buffer
//  524  *
//  525  * @return  none
//  526  ***************************************************************************************************/
//  527 static void MT_AfInterPanCtl(uint8 *pBuf)
//  528 {
//  529   uint8 cmd, rtrn;
//  530   uint16 panId;
//  531   endPointDesc_t *pEP;
//  532 
//  533   cmd = pBuf[MT_RPC_POS_CMD1];
//  534   pBuf += MT_RPC_FRAME_HDR_SZ;
//  535 
//  536   switch (*pBuf++)  // Inter-pan request parameter.
//  537   {
//  538   case InterPanClr:
//  539     rtrn = StubAPS_SetIntraPanChannel();           // Switch channel back to the NIB channel.
//  540     break;
//  541 
//  542   case InterPanSet:
//  543     rtrn = StubAPS_SetInterPanChannel(*pBuf);      // Set channel for inter-pan communication.
//  544     break;
//  545 
//  546   case InterPanReg:
//  547     if ((pEP = afFindEndPointDesc(*pBuf)))
//  548     {
//  549       StubAPS_RegisterApp(pEP);
//  550       rtrn = SUCCESS;
//  551     }
//  552     else
//  553     {
//  554       rtrn = FAILURE;
//  555     }
//  556     break;
//  557 
//  558   case InterPanChk:
//  559     panId = BUILD_UINT16(pBuf[0], pBuf[1]);
//  560     rtrn = (StubAPS_InterPan(panId, pBuf[2])) ? ZSuccess : ZFailure;
//  561     break;
//  562 
//  563   default:
//  564     rtrn = afStatus_INVALID_PARAMETER;
//  565     break;
//  566   }
//  567 
//  568   MT_BuildAndSendZToolResponse(((uint8)MT_RPC_CMD_SRSP | (uint8)MT_RPC_SYS_AF), cmd, 1, &rtrn);
//  569 }
//  570 #endif
//  571 
//  572 /***************************************************************************************************
//  573  * @fn      MT_AfDataConfirm
//  574  *
//  575  * @brief   Process
//  576  *
//  577  * @param   pBuf - pointer to the received buffer
//  578  *
//  579  * @return  none
//  580  ***************************************************************************************************/

        RSEG BANKED_CODE:CODE:NOROOT(0)
//  581 void MT_AfDataConfirm(afDataConfirm_t *pMsg)
MT_AfDataConfirm:
        CFI Block cfiBlock104 Using cfiCommon0
        CFI Function MT_AfDataConfirm
        CODE
//  582 {
        FUNCALL MT_AfDataConfirm, MT_BuildAndSendZToolResponse
        LOCFRAME ISTACK, 2, STACK
        LOCFRAME PSTACK, 0, STACK
        LOCFRAME XSTACK, 3, STACK
        LOCFRAME IOVERLAY, 0, STATIC
        LOCFRAME DOVERLAY, 0, STATIC
        ARGFRAME ISTACK, 2, STACK
        ARGFRAME PSTACK, 0, STACK
        ARGFRAME XSTACK, 3, STACK
        ARGFRAME IOVERLAY, 0, STATIC
        ARGFRAME DOVERLAY, 0, STATIC
        PUSH    DPL
        CFI DPL0 Frame(CFA_SP, 4)
        CFI CFA_SP SP+-4
        PUSH    DPH
        CFI DPH0 Frame(CFA_SP, 5)
        CFI CFA_SP SP+-5
        ; Saved register size: 2
        ; Auto size: 3
        MOV     A,#-0x3
        LCALL   ?ALLOC_XSTACK8
        CFI CFA_XSP16 add(XSP16, 3)
//  583   uint8 retArray[3];
//  584 
//  585   retArray[0] = pMsg->hdr.status;
        MOV     DPL,R2
        MOV     DPH,R3
        INC     DPTR
        LCALL   ?Subroutine28 & 0xFFFF
//  586   retArray[1] = pMsg->endpoint;
??CrossCallReturnLabel_47:
        MOV     DPL,R2
        MOV     DPH,R3
        INC     DPTR
        INC     DPTR
        MOVX    A,@DPTR
        PUSH    A
        CFI CFA_SP SP+-6
        MOV     A,#0x1
        LCALL   ?XSTACK_DISP0_8
        POP     A
        CFI CFA_SP SP+-5
        LCALL   ?Subroutine41 & 0xFFFF
//  587   retArray[2] = pMsg->transID;
??CrossCallReturnLabel_73:
        INC     DPTR
        INC     DPTR
        MOVX    A,@DPTR
        PUSH    A
        CFI CFA_SP SP+-6
        MOV     A,#0x2
        LCALL   ?XSTACK_DISP0_8
        POP     A
        CFI CFA_SP SP+-5
        LCALL   ?Subroutine38 & 0xFFFF
//  588 
//  589   /* Build and send back the response */
//  590   MT_BuildAndSendZToolResponse(((uint8)MT_RPC_CMD_AREQ | (uint8)MT_RPC_SYS_AF), MT_AF_DATA_CONFIRM, 3, retArray);
??CrossCallReturnLabel_62:
        MOV     R3,#0x3
        MOV     R2,#-0x80
        MOV     R1,#0x44
        LCALL   ??MT_BuildAndSendZToolResponse?relay
//  591 }
        MOV     A,#0x3
        LCALL   ?DEALLOC_XSTACK8
        CFI CFA_XSP16 XSP16+0
        POP     DPH
        CFI DPH0 SameValue
        CFI CFA_SP SP+-4
        POP     DPL
        CFI DPL0 SameValue
        CFI CFA_SP SP+-3
        LJMP    ?BRET
        CFI EndBlock cfiBlock104

        RSEG BANKED_CODE:CODE:NOROOT(0)
?Subroutine41:
        CFI Block cfiCond105 Using cfiCommon0
        CFI NoFunction
        CFI Conditional ??CrossCallReturnLabel_72
        CFI R6 load(1, XDATA, add(CFA_XSP16, literal(-16)))
        CFI VB load(1, XDATA, add(CFA_XSP16, literal(-15)))
        CFI V0 load(1, XDATA, add(CFA_XSP16, literal(-14)))
        CFI V1 load(1, XDATA, add(CFA_XSP16, literal(-13)))
        CFI V2 load(1, XDATA, add(CFA_XSP16, literal(-12)))
        CFI V3 load(1, XDATA, add(CFA_XSP16, literal(-11)))
        CFI V4 load(1, XDATA, add(CFA_XSP16, literal(-10)))
        CFI V5 load(1, XDATA, add(CFA_XSP16, literal(-9)))
        CFI V6 load(1, XDATA, add(CFA_XSP16, literal(-8)))
        CFI V7 load(1, XDATA, add(CFA_XSP16, literal(-7)))
        CFI R7 load(1, XDATA, add(CFA_XSP16, literal(-6)))
        CFI ?RET_LOW load(1, XDATA, add(CFA_XSP16, literal(-5)))
        CFI ?RET_HIGH load(1, XDATA, add(CFA_XSP16, literal(-4)))
        CFI ?BRET_EXT load(1, XDATA, add(CFA_XSP16, literal(-3)))
        CFI DPL0 load(1, XDATA, add(CFA_XSP16, literal(-2)))
        CFI DPH0 load(1, XDATA, add(CFA_XSP16, literal(-1)))
        CFI CFA_SP SP+0
        CFI CFA_XSP16 add(XSP16, 35)
        CFI Block cfiCond106 Using cfiCommon0
        CFI (cfiCond106) NoFunction
        CFI (cfiCond106) Conditional ??CrossCallReturnLabel_73
        CFI (cfiCond106) DPL0 Frame(CFA_SP, 4)
        CFI (cfiCond106) DPH0 Frame(CFA_SP, 5)
        CFI (cfiCond106) CFA_SP SP+-5
        CFI (cfiCond106) CFA_XSP16 add(XSP16, 3)
        CFI Block cfiCond107 Using cfiCommon0
        CFI (cfiCond107) NoFunction
        CFI (cfiCond107) Conditional ??CrossCallReturnLabel_74
        CFI (cfiCond107) R6 load(1, XDATA, add(CFA_XSP16, literal(-16)))
        CFI (cfiCond107) VB load(1, XDATA, add(CFA_XSP16, literal(-15)))
        CFI (cfiCond107) V0 load(1, XDATA, add(CFA_XSP16, literal(-14)))
        CFI (cfiCond107) V1 load(1, XDATA, add(CFA_XSP16, literal(-13)))
        CFI (cfiCond107) V2 load(1, XDATA, add(CFA_XSP16, literal(-12)))
        CFI (cfiCond107) V3 load(1, XDATA, add(CFA_XSP16, literal(-11)))
        CFI (cfiCond107) V4 load(1, XDATA, add(CFA_XSP16, literal(-10)))
        CFI (cfiCond107) V5 load(1, XDATA, add(CFA_XSP16, literal(-9)))
        CFI (cfiCond107) V6 load(1, XDATA, add(CFA_XSP16, literal(-8)))
        CFI (cfiCond107) V7 load(1, XDATA, add(CFA_XSP16, literal(-7)))
        CFI (cfiCond107) R7 load(1, XDATA, add(CFA_XSP16, literal(-6)))
        CFI (cfiCond107) ?RET_LOW load(1, XDATA, add(CFA_XSP16, literal(-5)))
        CFI (cfiCond107) ?RET_HIGH load(1, XDATA, add(CFA_XSP16, literal(-4)))
        CFI (cfiCond107) ?BRET_EXT load(1, XDATA, add(CFA_XSP16, literal(-3)))
        CFI (cfiCond107) DPL0 load(1, XDATA, add(CFA_XSP16, literal(-2)))
        CFI (cfiCond107) DPH0 load(1, XDATA, add(CFA_XSP16, literal(-1)))
        CFI (cfiCond107) CFA_SP SP+0
        CFI (cfiCond107) CFA_XSP16 add(XSP16, 25)
        CFI Block cfiPicker108 Using cfiCommon1
        CFI (cfiPicker108) NoFunction
        CFI (cfiPicker108) Picker
        MOVX    @DPTR,A
        MOV     DPL,R2
        MOV     DPH,R3
        INC     DPTR
        RET
        CFI EndBlock cfiCond105
        CFI EndBlock cfiCond106
        CFI EndBlock cfiCond107
        CFI EndBlock cfiPicker108
//  592 
//  593 /***************************************************************************************************
//  594  * @fn          MT_AfIncomingMsg
//  595  *
//  596  * @brief       Process the callback subscription for AF Incoming data.
//  597  *
//  598  * @param       pkt - Incoming AF data.
//  599  *
//  600  * @return      none
//  601  ***************************************************************************************************/

        RSEG BANKED_CODE:CODE:NOROOT(0)
//  602 void MT_AfIncomingMsg(afIncomingMSGPacket_t *pMsg)
MT_AfIncomingMsg:
        CFI Block cfiBlock109 Using cfiCommon0
        CFI Function MT_AfIncomingMsg
        CODE
//  603 {
        FUNCALL MT_AfIncomingMsg, osal_mem_alloc
        LOCFRAME ISTACK, 0, STACK
        LOCFRAME PSTACK, 0, STACK
        LOCFRAME XSTACK, 25, STACK
        LOCFRAME IOVERLAY, 0, STATIC
        LOCFRAME DOVERLAY, 0, STATIC
        ARGFRAME ISTACK, 0, STACK
        ARGFRAME PSTACK, 0, STACK
        ARGFRAME XSTACK, 25, STACK
        ARGFRAME IOVERLAY, 0, STATIC
        ARGFRAME DOVERLAY, 0, STATIC
        FUNCALL MT_AfIncomingMsg, osal_mem_alloc
        LOCFRAME ISTACK, 0, STACK
        LOCFRAME PSTACK, 0, STACK
        LOCFRAME XSTACK, 25, STACK
        LOCFRAME IOVERLAY, 0, STATIC
        LOCFRAME DOVERLAY, 0, STATIC
        ARGFRAME ISTACK, 0, STACK
        ARGFRAME PSTACK, 0, STACK
        ARGFRAME XSTACK, 25, STACK
        ARGFRAME IOVERLAY, 0, STATIC
        ARGFRAME DOVERLAY, 0, STATIC
        FUNCALL MT_AfIncomingMsg, osal_mem_free
        LOCFRAME ISTACK, 0, STACK
        LOCFRAME PSTACK, 0, STACK
        LOCFRAME XSTACK, 25, STACK
        LOCFRAME IOVERLAY, 0, STATIC
        LOCFRAME DOVERLAY, 0, STATIC
        ARGFRAME ISTACK, 0, STACK
        ARGFRAME PSTACK, 0, STACK
        ARGFRAME XSTACK, 25, STACK
        ARGFRAME IOVERLAY, 0, STATIC
        ARGFRAME DOVERLAY, 0, STATIC
        FUNCALL MT_AfIncomingMsg, osal_memcpy
        LOCFRAME ISTACK, 0, STACK
        LOCFRAME PSTACK, 0, STACK
        LOCFRAME XSTACK, 28, STACK
        LOCFRAME IOVERLAY, 0, STATIC
        LOCFRAME DOVERLAY, 0, STATIC
        ARGFRAME ISTACK, 0, STACK
        ARGFRAME PSTACK, 0, STACK
        ARGFRAME XSTACK, 28, STACK
        ARGFRAME IOVERLAY, 0, STATIC
        ARGFRAME DOVERLAY, 0, STATIC
        FUNCALL MT_AfIncomingMsg, osal_start_timerEx
        LOCFRAME ISTACK, 0, STACK
        LOCFRAME PSTACK, 0, STACK
        LOCFRAME XSTACK, 25, STACK
        LOCFRAME IOVERLAY, 0, STATIC
        LOCFRAME DOVERLAY, 0, STATIC
        ARGFRAME ISTACK, 0, STACK
        ARGFRAME PSTACK, 0, STACK
        ARGFRAME XSTACK, 25, STACK
        ARGFRAME IOVERLAY, 0, STATIC
        ARGFRAME DOVERLAY, 0, STATIC
        FUNCALL MT_AfIncomingMsg, osal_set_event
        LOCFRAME ISTACK, 0, STACK
        LOCFRAME PSTACK, 0, STACK
        LOCFRAME XSTACK, 25, STACK
        LOCFRAME IOVERLAY, 0, STATIC
        LOCFRAME DOVERLAY, 0, STATIC
        ARGFRAME ISTACK, 0, STACK
        ARGFRAME PSTACK, 0, STACK
        ARGFRAME XSTACK, 25, STACK
        ARGFRAME IOVERLAY, 0, STATIC
        ARGFRAME DOVERLAY, 0, STATIC
        FUNCALL MT_AfIncomingMsg, osal_memcpy
        LOCFRAME ISTACK, 0, STACK
        LOCFRAME PSTACK, 0, STACK
        LOCFRAME XSTACK, 28, STACK
        LOCFRAME IOVERLAY, 0, STATIC
        LOCFRAME DOVERLAY, 0, STATIC
        ARGFRAME ISTACK, 0, STACK
        ARGFRAME PSTACK, 0, STACK
        ARGFRAME XSTACK, 28, STACK
        ARGFRAME IOVERLAY, 0, STATIC
        ARGFRAME DOVERLAY, 0, STATIC
        FUNCALL MT_AfIncomingMsg, osal_memcpy
        LOCFRAME ISTACK, 0, STACK
        LOCFRAME PSTACK, 0, STACK
        LOCFRAME XSTACK, 28, STACK
        LOCFRAME IOVERLAY, 0, STATIC
        LOCFRAME DOVERLAY, 0, STATIC
        ARGFRAME ISTACK, 0, STACK
        ARGFRAME PSTACK, 0, STACK
        ARGFRAME XSTACK, 28, STACK
        ARGFRAME IOVERLAY, 0, STATIC
        ARGFRAME DOVERLAY, 0, STATIC
        FUNCALL MT_AfIncomingMsg, MT_BuildAndSendZToolResponse
        LOCFRAME ISTACK, 0, STACK
        LOCFRAME PSTACK, 0, STACK
        LOCFRAME XSTACK, 25, STACK
        LOCFRAME IOVERLAY, 0, STATIC
        LOCFRAME DOVERLAY, 0, STATIC
        ARGFRAME ISTACK, 0, STACK
        ARGFRAME PSTACK, 0, STACK
        ARGFRAME XSTACK, 25, STACK
        ARGFRAME IOVERLAY, 0, STATIC
        ARGFRAME DOVERLAY, 0, STATIC
        FUNCALL MT_AfIncomingMsg, osal_mem_free
        LOCFRAME ISTACK, 0, STACK
        LOCFRAME PSTACK, 0, STACK
        LOCFRAME XSTACK, 25, STACK
        LOCFRAME IOVERLAY, 0, STATIC
        LOCFRAME DOVERLAY, 0, STATIC
        ARGFRAME ISTACK, 0, STACK
        ARGFRAME PSTACK, 0, STACK
        ARGFRAME XSTACK, 25, STACK
        ARGFRAME IOVERLAY, 0, STATIC
        ARGFRAME DOVERLAY, 0, STATIC
        MOV     A,#-0x10
        LCALL   ?BANKED_ENTER_XDATA
        CFI DPH0 load(1, XDATA, add(CFA_XSP16, literal(-1)))
        CFI DPL0 load(1, XDATA, add(CFA_XSP16, literal(-2)))
        CFI ?BRET_EXT load(1, XDATA, add(CFA_XSP16, literal(-3)))
        CFI ?RET_HIGH load(1, XDATA, add(CFA_XSP16, literal(-4)))
        CFI ?RET_LOW load(1, XDATA, add(CFA_XSP16, literal(-5)))
        CFI R7 load(1, XDATA, add(CFA_XSP16, literal(-6)))
        CFI V7 load(1, XDATA, add(CFA_XSP16, literal(-7)))
        CFI V6 load(1, XDATA, add(CFA_XSP16, literal(-8)))
        CFI V5 load(1, XDATA, add(CFA_XSP16, literal(-9)))
        CFI V4 load(1, XDATA, add(CFA_XSP16, literal(-10)))
        CFI V3 load(1, XDATA, add(CFA_XSP16, literal(-11)))
        CFI V2 load(1, XDATA, add(CFA_XSP16, literal(-12)))
        CFI V1 load(1, XDATA, add(CFA_XSP16, literal(-13)))
        CFI V0 load(1, XDATA, add(CFA_XSP16, literal(-14)))
        CFI VB load(1, XDATA, add(CFA_XSP16, literal(-15)))
        CFI R6 load(1, XDATA, add(CFA_XSP16, literal(-16)))
        CFI CFA_SP SP+0
        CFI CFA_XSP16 add(XSP16, 16)
        ; Saved register size: 16
        ; Auto size: 9
        MOV     A,#-0x9
        LCALL   ?ALLOC_XSTACK8
        CFI CFA_XSP16 add(XSP16, 25)
        MOV     DPL,?XSP + 0
        MOV     DPH,?XSP + 1
        LCALL   ?Subroutine33 & 0xFFFF
//  604   #define MT_AF_INC_MSG_LEN  17
//  605   #define MT_AF_INC_MSG_EXT  10
//  606 
//  607   uint16 dataLen = pMsg->cmd.DataLength;  // Length of the data section in the response packet.
??CrossCallReturnLabel_175:
        ADD     A,#0x20
        LCALL   ??Subroutine80_0 & 0xFFFF
??CrossCallReturnLabel_207:
        MOV     ?V0 + 6,A
        INC     DPTR
        MOVX    A,@DPTR
        MOV     ?V0 + 7,A
//  608   uint16 respLen = MT_AF_INC_MSG_LEN + dataLen;
        MOV     A,?V0 + 6
        ADD     A,#0x11
        MOV     ?V0 + 4,A
        MOV     A,?V0 + 7
        ADDC    A,#0x0
        MOV     ?V0 + 5,A
//  609   uint8 cmd = MT_AF_INCOMING_MSG;
        MOV     A,#0x4
        LCALL   ?XSTACK_DISP0_8
        MOV     A,#-0x7f
        MOVX    @DPTR,A
//  610   uint8 *pRsp, *pTmp;
//  611   mtAfInMsgList_t *pItem = NULL;
        MOV     A,#0x2
        LCALL   ?XSTACK_DISP0_8
        CLR     A
        MOVX    @DPTR,A
        INC     DPTR
        LCALL   ??Subroutine76_0 & 0xFFFF
//  612 
//  613 #if defined INTER_PAN
//  614   if (StubAPS_InterPan(pMsg->srcAddr.panId, pMsg->srcAddr.endPoint))
//  615   {
//  616     cmd = MT_AF_INCOMING_MSG_EXT;
//  617   }
//  618   else
//  619 #endif
//  620   if ((pMsg->srcAddr.addrMode == afAddr64Bit) ||
//  621       (respLen > (uint16)(MT_RPC_DATA_MAX - MT_AF_INC_MSG_EXT)))
??CrossCallReturnLabel_176:
        ADD     A,#0xe
        MOV     ?V0 + 0,A
        INC     DPTR
        MOVX    A,@DPTR
        LCALL   ??Subroutine64_0 & 0xFFFF
??CrossCallReturnLabel_117:
        XRL     A,#0x3
        JZ      ??MT_AfIncomingMsg_0
        CLR     C
        MOV     A,?V0 + 4
        SUBB    A,#-0xf
        MOV     A,?V0 + 5
        SUBB    A,#0x0
        JC      ??MT_AfIncomingMsg_1
//  622   {
//  623     cmd = MT_AF_INCOMING_MSG_EXT;
??MT_AfIncomingMsg_0:
        MOV     A,#0x4
        LCALL   ?XSTACK_DISP0_8
        MOV     A,#-0x7e
        MOVX    @DPTR,A
//  624   }
//  625 
//  626   if (cmd == MT_AF_INCOMING_MSG_EXT)
//  627   {
//  628     respLen += MT_AF_INC_MSG_EXT;
        MOV     A,?V0 + 4
        ADD     A,#0xa
        MOV     ?V0 + 4,A
        MOV     A,?V0 + 5
        ADDC    A,#0x0
        MOV     ?V0 + 5,A
//  629   }
//  630 
//  631   if (respLen > (uint16)MT_RPC_DATA_MAX)
??MT_AfIncomingMsg_1:
        CLR     C
        MOV     A,?V0 + 4
        SUBB    A,#-0x5
        MOV     A,?V0 + 5
        SUBB    A,#0x0
        JC      ??MT_AfIncomingMsg_2
//  632   {
//  633     if ((pItem = (mtAfInMsgList_t *)osal_mem_alloc(sizeof(mtAfInMsgList_t) + dataLen)) == NULL)
        ; Setup parameters for call to function osal_mem_alloc
        MOV     A,?V0 + 6
        ADD     A,#0x9
        MOV     R2,A
        MOV     A,?V0 + 7
        LCALL   ?Subroutine30 & 0xFFFF
??CrossCallReturnLabel_50:
        MOV     A,#0x2
        LCALL   ?XSTACK_DISP0_8
        LCALL   ?Subroutine39 & 0xFFFF
??CrossCallReturnLabel_67:
        MOV     A,#0x2
        LCALL   ?XSTACK_DISP0_8
        LCALL   ??Subroutine78_0 & 0xFFFF
??CrossCallReturnLabel_186:
        JNZ     $+5
        LJMP    ??CrossCallReturnLabel_36 & 0xFFFF
//  634     {
//  635       return;  // If cannot hold a huge message, cannot give indication at all.
//  636     }
//  637 
//  638     pItem->data = (uint8 *)(pItem+1);
        MOV     A,#0x2
        LCALL   ?XSTACK_DISP0_8
        MOVX    A,@DPTR
        ADD     A,#0x9
        LCALL   ??Subroutine79_0 & 0xFFFF
??CrossCallReturnLabel_200:
        MOV     A,#0x2
        LCALL   ?XSTACK_DISP0_8
        LCALL   ?Subroutine18 & 0xFFFF
??CrossCallReturnLabel_30:
        LCALL   ?Subroutine39 & 0xFFFF
//  639     respLen -= dataLen;  // Zero data bytes are sent with an over-sized incoming indication.
??CrossCallReturnLabel_68:
        CLR     C
        MOV     A,?V0 + 4
        SUBB    A,?V0 + 6
        MOV     ?V0 + 4,A
        MOV     A,?V0 + 5
        SUBB    A,?V0 + 7
        MOV     ?V0 + 5,A
//  640   }
//  641 
//  642   // Attempt to allocate memory for the response packet.
//  643   if ((pRsp = osal_mem_alloc(respLen)) == NULL)
??MT_AfIncomingMsg_2:
        ; Setup parameters for call to function osal_mem_alloc
        MOV     R2,?V0 + 4
        MOV     R3,?V0 + 5
        LCALL   ??osal_mem_alloc?relay
        MOV     A,#0x7
        LCALL   ?XSTACK_DISP0_8
        LCALL   ?Subroutine39 & 0xFFFF
??CrossCallReturnLabel_69:
        MOV     A,#0x7
        LCALL   ?XSTACK_DISP0_8
        LCALL   ??Subroutine78_0 & 0xFFFF
??CrossCallReturnLabel_187:
        JNZ     ??MT_AfIncomingMsg_3
//  644   {
//  645     if (pItem != NULL)
        MOV     A,#0x2
        LCALL   ?XSTACK_DISP0_8
        LCALL   ??Subroutine78_0 & 0xFFFF
??CrossCallReturnLabel_188:
        JNZ     $+5
        LJMP    ??CrossCallReturnLabel_36 & 0xFFFF
//  646     {
//  647       (void)osal_mem_free(pItem);
        ; Setup parameters for call to function osal_mem_free
        MOV     A,#0x2
        LJMP    ??MT_AfIncomingMsg_4 & 0xFFFF
//  648     }
//  649     return;
//  650   }
//  651   pTmp = pRsp;
??MT_AfIncomingMsg_3:
        MOV     A,#0x7
        LCALL   ?XSTACK_DISP0_8
        MOVX    A,@DPTR
        MOV     R6,A
        INC     DPTR
        MOVX    A,@DPTR
        MOV     R7,A
//  652 
//  653   /* Group ID */
//  654   *pTmp++ = LO_UINT16(pMsg->groupId);
        MOV     DPL,?XSP + 0
        MOV     DPH,?XSP + 1
        MOVX    A,@DPTR
        ADD     A,#0x2
        LCALL   ?Subroutine7 & 0xFFFF
//  655   *pTmp++ = HI_UINT16(pMsg->groupId);
??CrossCallReturnLabel_10:
        LCALL   ?Subroutine5 & 0xFFFF
//  656 
//  657   /* Cluster ID */
//  658   *pTmp++ = LO_UINT16(pMsg->clusterId);
??CrossCallReturnLabel_163:
        MOV     DPL,?XSP + 0
        MOV     DPH,?XSP + 1
        MOVX    A,@DPTR
        ADD     A,#0x4
        LCALL   ??Subroutine72_0 & 0xFFFF
??CrossCallReturnLabel_157:
        LCALL   ??Subroutine74_0 & 0xFFFF
//  659   *pTmp++ = HI_UINT16(pMsg->clusterId);
??CrossCallReturnLabel_161:
        LCALL   ?Subroutine5 & 0xFFFF
//  660 
//  661   if (cmd == MT_AF_INCOMING_MSG_EXT)
??CrossCallReturnLabel_164:
        INC     DPTR
        MOV     R1,DPH
        MOV     DPL,?XSP + 0
        MOV     DPH,?XSP + 1
        MOVX    A,@DPTR
        ADD     A,#0xf
        LCALL   ??Subroutine79_0 & 0xFFFF
??CrossCallReturnLabel_201:
        MOV     A,#0x5
        LCALL   ?XSTACK_DISP0_8
        LCALL   ?Subroutine33 & 0xFFFF
??CrossCallReturnLabel_179:
        ADD     A,#0x6
        LCALL   ??Subroutine79_0 & 0xFFFF
??CrossCallReturnLabel_202:
        MOV     A,#0x4
        LCALL   ?XSTACK_DISP0_8
        MOVX    A,@DPTR
        XRL     A,#0x82
        JNZ     ??MT_AfIncomingMsg_5
//  662   {
//  663     *pTmp++ = pMsg->srcAddr.addrMode;
        MOV     DPL,?V0 + 0
        MOV     DPH,?V0 + 1
        LCALL   ??Subroutine70_0 & 0xFFFF
//  664 
//  665     if (pMsg->srcAddr.addrMode == afAddr64Bit)
??CrossCallReturnLabel_142:
        MOV     DPL,?V0 + 0
        MOV     DPH,?V0 + 1
        MOVX    A,@DPTR
        XRL     A,#0x3
        JNZ     ??MT_AfIncomingMsg_6
//  666     {
//  667       (void)osal_memcpy(pTmp, pMsg->srcAddr.addr.extAddr, Z_EXTADDR_LEN);
        ; Setup parameters for call to function osal_memcpy
        MOV     ?V0 + 0,R2
        MOV     ?V0 + 1,R3
        MOV     ?V0 + 2,#0x0
        MOV     R0,#?V0 + 0
        LCALL   ?PUSH_XSTACK_I_THREE
        CFI CFA_XSP16 add(XSP16, 28)
        MOV     R4,#0x8
        MOV     R5,#0x0
        MOV     A,R6
        MOV     R2,A
        MOV     A,R7
        LCALL   ?Subroutine45 & 0xFFFF
//  668     }
??CrossCallReturnLabel_169:
        LCALL   ?DEALLOC_XSTACK8
        CFI CFA_XSP16 add(XSP16, 25)
        SJMP    ??MT_AfIncomingMsg_7
//  669     else
//  670     {
//  671       pTmp[0] = LO_UINT16(pMsg->srcAddr.addr.shortAddr);
??MT_AfIncomingMsg_6:
        MOV     DPL,R2
        MOV     DPH,R3
        LCALL   ?Subroutine53 & 0xFFFF
//  672       pTmp[1] = HI_UINT16(pMsg->srcAddr.addr.shortAddr);
//  673     }
??CrossCallReturnLabel_165:
        LCALL   ?Subroutine41 & 0xFFFF
??CrossCallReturnLabel_74:
        LCALL   ?Subroutine53 & 0xFFFF
??CrossCallReturnLabel_166:
        INC     DPTR
        MOVX    @DPTR,A
//  674     pTmp += Z_EXTADDR_LEN;
??MT_AfIncomingMsg_7:
        MOV     A,R6
        ADD     A,#0x8
        MOV     R6,A
        MOV     A,R7
        ADDC    A,#0x0
        MOV     R7,A
//  675 
//  676     *pTmp++ = pMsg->srcAddr.endPoint;
        MOV     A,#0x5
        LCALL   ?XSTACK_DISP0_8
        LCALL   ?Subroutine10 & 0xFFFF
//  677 #if defined INTER_PAN
//  678     *pTmp++ = LO_UINT16(pMsg->srcAddr.panId);
//  679     *pTmp++ = HI_UINT16(pMsg->srcAddr.panId);
//  680 #else
//  681     *pTmp++ = 0;
??CrossCallReturnLabel_12:
        CLR     A
        MOVX    @DPTR,A
        INC     DPTR
//  682     *pTmp++ = 0;
        MOVX    @DPTR,A
        INC     DPTR
        INC     R6
        INC     R6
        SJMP    ??CrossCallReturnLabel_13
//  683 #endif
//  684   }
//  685   else
//  686   {
//  687     /* Source Address */
//  688     *pTmp++ = LO_UINT16(pMsg->srcAddr.addr.shortAddr);
??MT_AfIncomingMsg_5:
        LCALL   ?Subroutine12 & 0xFFFF
//  689     *pTmp++ = HI_UINT16(pMsg->srcAddr.addr.shortAddr);
??CrossCallReturnLabel_143:
        MOV     DPL,R2
        MOV     DPH,R3
        LCALL   ??Subroutine73_0 & 0xFFFF
//  690 
//  691     /* Source EP */
//  692     *pTmp++ = pMsg->srcAddr.endPoint;
??CrossCallReturnLabel_162:
        MOV     A,#0x5
        LCALL   ?XSTACK_DISP0_8
        LCALL   ?Subroutine10 & 0xFFFF
//  693   }
??CrossCallReturnLabel_13:
        INC     R6
        MOV     R7,DPH
//  694 
//  695   /* Destination EP */
//  696   *pTmp++ = pMsg->endPoint;
        MOV     DPL,?XSP + 0
        MOV     DPH,?XSP + 1
        MOVX    A,@DPTR
        ADD     A,#0x14
        LCALL   ?Subroutine7 & 0xFFFF
//  697 
//  698   /* WasBroadCast */
//  699   *pTmp++ = pMsg->wasBroadcast;
??CrossCallReturnLabel_11:
        MOV     DPL,?XSP + 0
        MOV     DPH,?XSP + 1
        MOVX    A,@DPTR
        ADD     A,#0x15
        LCALL   ?Subroutine2 & 0xFFFF
//  700 
//  701   /* LinkQuality */
//  702   *pTmp++ = pMsg->LinkQuality;
??CrossCallReturnLabel_0:
        ADD     A,#0x16
        LCALL   ?Subroutine2 & 0xFFFF
//  703 
//  704   /* SecurityUse */
//  705   *pTmp++ = pMsg->SecurityUse;
??CrossCallReturnLabel_1:
        ADD     A,#0x19
        LCALL   ?Subroutine2 & 0xFFFF
//  706 
//  707   /* Timestamp */
//  708   *pTmp++ = BREAK_UINT32(pMsg->timestamp, 0);
??CrossCallReturnLabel_2:
        ADD     A,#0x1a
        MOV     R0,A
        INC     DPTR
        MOVX    A,@DPTR
        ADDC    A,#0x0
        MOV     R1,A
        MOV     A,#0x5
        LCALL   ?XSTACK_DISP0_8
        LCALL   ?Subroutine44 & 0xFFFF
??CrossCallReturnLabel_83:
        MOV     A,#0x5
        LCALL   ?XSTACK_DISP0_8
        LCALL   ?Subroutine4 & 0xFFFF
??CrossCallReturnLabel_3:
        LCALL   ?L_MOV_X
        LCALL   ?Subroutine37 & 0xFFFF
//  709   *pTmp++ = BREAK_UINT32(pMsg->timestamp, 1);
??CrossCallReturnLabel_121:
        LCALL   ?XSTACK_DISP0_8
        LCALL   ?Subroutine4 & 0xFFFF
??CrossCallReturnLabel_4:
        LCALL   ?L_MOV_X
        MOV     A,?V0 + 1
        MOV     DPL,R6
        MOV     DPH,R7
        LCALL   ??Subroutine66_0 & 0xFFFF
//  710   *pTmp++ = BREAK_UINT32(pMsg->timestamp, 2);
??CrossCallReturnLabel_123:
        LCALL   ?XSTACK_DISP0_8
        LCALL   ?Subroutine4 & 0xFFFF
??CrossCallReturnLabel_5:
        LCALL   ?L_MOV_X
        MOV     A,#0x10
        MOV     R0,#?V0 + 0
        LCALL   ?UL_SHR
        LCALL   ?Subroutine37 & 0xFFFF
//  711   *pTmp++ = BREAK_UINT32(pMsg->timestamp, 3);
??CrossCallReturnLabel_122:
        LCALL   ?XSTACK_DISP0_8
        LCALL   ?Subroutine4 & 0xFFFF
??CrossCallReturnLabel_6:
        LCALL   ?L_MOV_X
        MOV     A,#0x18
        MOV     R0,#?V0 + 0
        LCALL   ?UL_SHR
        MOV     DPL,R6
        MOV     DPH,R7
        MOV     A,?V0 + 0
        MOVX    @DPTR,A
        INC     DPTR
        INC     R6
        MOV     R7,DPH
//  712 
//  713 
//  714   /* Data Length */
//  715   if (cmd == MT_AF_INCOMING_MSG_EXT)
        INC     DPTR
        MOV     R1,DPH
        MOV     A,#0x4
        LCALL   ?XSTACK_DISP0_8
        MOVX    A,@DPTR
        XRL     A,#0x82
        JNZ     ??MT_AfIncomingMsg_8
//  716   {
//  717     /* Z-Tool apparently takes the last Byte before the data buffer as the dynamic length and
//  718      * ignores the bigger UInt16 length of an EXT incoming message. But no data bytes will be sent
//  719      * with a huge message, so it's necessary to work-around and fake-out Z-Tool with a zero here.
//  720      */
//  721     *pTmp++ = 0;  // TODO - workaround Z-Tool shortcoming; should be: = pMsg->cmd.TransSeqNumber;
        MOV     DPL,R6
        MOV     DPH,R7
        CLR     A
        MOVX    @DPTR,A
        INC     R6
        MOV     A,R1
        MOV     R7,A
//  722     *pTmp++ = LO_UINT16(dataLen);
        MOV     DPL,R6
        MOV     DPH,R7
        MOV     A,?V0 + 6
        MOVX    @DPTR,A
        INC     DPTR
//  723     *pTmp++ = HI_UINT16(dataLen);
        MOV     A,?V0 + 7
        MOVX    @DPTR,A
        INC     DPTR
        INC     R6
        SJMP    ??MT_AfIncomingMsg_9
//  724   }
//  725   else
//  726   {
//  727     *pTmp++ = pMsg->cmd.TransSeqNumber;
??MT_AfIncomingMsg_8:
        MOV     DPL,?XSP + 0
        MOV     DPH,?XSP + 1
        MOVX    A,@DPTR
        ADD     A,#0x1f
        LCALL   ??Subroutine79_0 & 0xFFFF
??CrossCallReturnLabel_203:
        LCALL   ?Subroutine12 & 0xFFFF
//  728     *pTmp++ = dataLen;
??CrossCallReturnLabel_144:
        MOV     DPL,R6
        MOV     DPH,R7
        MOV     A,?V0 + 6
        MOVX    @DPTR,A
        INC     DPTR
??MT_AfIncomingMsg_9:
        INC     R6
        MOV     R7,DPH
//  729   }
//  730 
//  731   /* Data */
//  732   if (pItem != NULL)
        MOV     DPL,?XSP + 0
        MOV     DPH,?XSP + 1
        MOVX    A,@DPTR
        ADD     A,#0x22
        MOV     ?V0 + 0,A
        INC     DPTR
        MOVX    A,@DPTR
        LCALL   ??Subroutine68_0 & 0xFFFF
??CrossCallReturnLabel_128:
        MOV     A,#0x2
        LCALL   ?XSTACK_DISP0_8
        LCALL   ??Subroutine78_0 & 0xFFFF
??CrossCallReturnLabel_189:
        JZ      ??MT_AfIncomingMsg_10
//  733   {
//  734     // Enqueue the new huge incoming item.
//  735     pItem->next = pMtAfInMsgList;
        LCALL   ?Subroutine21 & 0xFFFF
??CrossCallReturnLabel_134:
        MOV     A,#0x2
        LCALL   ?XSTACK_DISP0_8
        LCALL   ??Subroutine77_0 & 0xFFFF
??CrossCallReturnLabel_180:
        LCALL   ?Subroutine39 & 0xFFFF
//  736     pMtAfInMsgList = pItem;
??CrossCallReturnLabel_70:
        MOV     A,#0x2
        LCALL   ?XSTACK_DISP0_8
        LCALL   ?Subroutine51 & 0xFFFF
??CrossCallReturnLabel_197:
        MOV     DPTR,#pMtAfInMsgList
        LCALL   ?Subroutine44 & 0xFFFF
//  737 
//  738     // Setup to time-out the huge incoming item if host does not MT_AF_DATA_RETRIEVE it.
//  739     pItem->tick = MT_AF_EXEC_CNT;
??CrossCallReturnLabel_84:
        MOV     A,#0x2
        LCALL   ?XSTACK_DISP0_8
        LCALL   ?Subroutine11 & 0xFFFF
??CrossCallReturnLabel_146:
        INC     DPTR
        INC     DPTR
        INC     DPTR
        INC     DPTR
        LCALL   ?Subroutine22 & 0xFFFF
//  740     if (ZSuccess != osal_start_timerEx(MT_TaskID, MT_AF_EXEC_EVT, MT_AF_EXEC_DLY))
??CrossCallReturnLabel_119:
        JZ      ??CrossCallReturnLabel_46
//  741     {
//  742       (void)osal_set_event(MT_TaskID, MT_AF_EXEC_EVT);
        ; Setup parameters for call to function osal_set_event
        LCALL   ?Subroutine27 & 0xFFFF
//  743     }
//  744 
//  745     pItem->timestamp = pMsg->timestamp;
??CrossCallReturnLabel_46:
        MOV     A,#0x5
        LCALL   ?XSTACK_DISP0_8
        LCALL   ?Subroutine19 & 0xFFFF
??CrossCallReturnLabel_33:
        LCALL   ?XLOAD_R2345
        MOV     A,#0x2
        LCALL   ?XSTACK_DISP0_8
        LCALL   ?Subroutine11 & 0xFFFF
??CrossCallReturnLabel_147:
        LCALL   ?XSTORE_R2345
//  746     (void)osal_memcpy(pItem->data, pMsg->cmd.Data, dataLen);
        ; Setup parameters for call to function osal_memcpy
        LCALL   ?Subroutine24 & 0xFFFF
//  747   }
??CrossCallReturnLabel_40:
        LCALL   ?PUSH_XSTACK_I_THREE
        CFI CFA_XSP16 add(XSP16, 28)
        MOV     R4,?V0 + 6
        MOV     R5,?V0 + 7
        MOV     A,#0x5
        LCALL   ?XSTACK_DISP0_8
        LCALL   ?Subroutine6 & 0xFFFF
??CrossCallReturnLabel_7:
        MOV     R2,A
        INC     DPTR
        MOVX    A,@DPTR
        SJMP    ??MT_AfIncomingMsg_11
        CFI CFA_XSP16 add(XSP16, 25)
//  748   else
//  749   {
//  750     (void)osal_memcpy(pTmp, pMsg->cmd.Data, dataLen);
??MT_AfIncomingMsg_10:
        ; Setup parameters for call to function osal_memcpy
        LCALL   ?Subroutine24 & 0xFFFF
//  751   }
??CrossCallReturnLabel_41:
        LCALL   ?PUSH_XSTACK_I_THREE
        CFI CFA_XSP16 add(XSP16, 28)
        MOV     R4,?V0 + 6
        MOV     R5,?V0 + 7
        MOV     A,R6
        MOV     R2,A
        MOV     A,R7
??MT_AfIncomingMsg_11:
        LCALL   ?Subroutine45 & 0xFFFF
??CrossCallReturnLabel_170:
        LCALL   ?DEALLOC_XSTACK8
        CFI CFA_XSP16 add(XSP16, 25)
//  752 
//  753   /* Build and send back the response */
//  754   MT_BuildAndSendZToolResponse(((uint8)MT_RPC_CMD_AREQ|(uint8)MT_RPC_SYS_AF), cmd, respLen, pRsp);
        ; Setup parameters for call to function MT_BuildAndSendZToolResponse
        MOV     A,#0x7
        LCALL   ?XSTACK_DISP0_8
        LCALL   ?Subroutine16 & 0xFFFF
??CrossCallReturnLabel_24:
        MOV     R3,?V0 + 4
        MOV     A,#0x4
        LCALL   ?XSTACK_DISP0_8
        MOVX    A,@DPTR
        MOV     R2,A
        MOV     R1,#0x44
        LCALL   ??MT_BuildAndSendZToolResponse?relay
//  755 
//  756   (void)osal_mem_free(pRsp);
        ; Setup parameters for call to function osal_mem_free
        MOV     A,#0x7
??MT_AfIncomingMsg_4:
        LCALL   ?XSTACK_DISP0_8
        LCALL   ?Subroutine20 & 0xFFFF
//  757 }
??CrossCallReturnLabel_36:
        MOV     A,#0x9
        CFI EndBlock cfiBlock109
        REQUIRE ?Subroutine1
        ; // Fall through to label ?Subroutine1

        RSEG BANKED_CODE:CODE:NOROOT(0)
?Subroutine1:
        CFI Block cfiBlock110 Using cfiCommon0
        CFI NoFunction
        CFI CFA_SP SP+0
        CFI CFA_XSP16 add(XSP16, 35)
        CFI VB load(1, XDATA, add(CFA_XSP16, literal(-15)))
        CFI DPL0 load(1, XDATA, add(CFA_XSP16, literal(-2)))
        CFI DPH0 load(1, XDATA, add(CFA_XSP16, literal(-1)))
        CFI R6 load(1, XDATA, add(CFA_XSP16, literal(-16)))
        CFI R7 load(1, XDATA, add(CFA_XSP16, literal(-6)))
        CFI V0 load(1, XDATA, add(CFA_XSP16, literal(-14)))
        CFI V1 load(1, XDATA, add(CFA_XSP16, literal(-13)))
        CFI V2 load(1, XDATA, add(CFA_XSP16, literal(-12)))
        CFI V3 load(1, XDATA, add(CFA_XSP16, literal(-11)))
        CFI V4 load(1, XDATA, add(CFA_XSP16, literal(-10)))
        CFI V5 load(1, XDATA, add(CFA_XSP16, literal(-9)))
        CFI V6 load(1, XDATA, add(CFA_XSP16, literal(-8)))
        CFI V7 load(1, XDATA, add(CFA_XSP16, literal(-7)))
        CFI ?BRET_EXT load(1, XDATA, add(CFA_XSP16, literal(-3)))
        CFI ?RET_HIGH load(1, XDATA, add(CFA_XSP16, literal(-4)))
        CFI ?RET_LOW load(1, XDATA, add(CFA_XSP16, literal(-5)))
        CFI Invalid
        LCALL   ?DEALLOC_XSTACK8
        CFI CFA_XSP16 add(XSP16, 16)
        CFI Valid
        MOV     R7,#0x8
        LJMP    ?BANKED_LEAVE_XDATA
        CFI EndBlock cfiBlock110

        RSEG BANKED_CODE:CODE:NOROOT(0)
?Subroutine44:
        CFI Block cfiCond111 Using cfiCommon0
        CFI NoFunction
        CFI Conditional ??CrossCallReturnLabel_81
        CFI R6 load(1, XDATA, add(CFA_XSP16, literal(-16)))
        CFI VB load(1, XDATA, add(CFA_XSP16, literal(-15)))
        CFI V0 load(1, XDATA, add(CFA_XSP16, literal(-14)))
        CFI V1 load(1, XDATA, add(CFA_XSP16, literal(-13)))
        CFI V2 load(1, XDATA, add(CFA_XSP16, literal(-12)))
        CFI V3 load(1, XDATA, add(CFA_XSP16, literal(-11)))
        CFI V4 load(1, XDATA, add(CFA_XSP16, literal(-10)))
        CFI V5 load(1, XDATA, add(CFA_XSP16, literal(-9)))
        CFI V6 load(1, XDATA, add(CFA_XSP16, literal(-8)))
        CFI V7 load(1, XDATA, add(CFA_XSP16, literal(-7)))
        CFI R7 load(1, XDATA, add(CFA_XSP16, literal(-6)))
        CFI ?RET_LOW load(1, XDATA, add(CFA_XSP16, literal(-5)))
        CFI ?RET_HIGH load(1, XDATA, add(CFA_XSP16, literal(-4)))
        CFI ?BRET_EXT load(1, XDATA, add(CFA_XSP16, literal(-3)))
        CFI DPL0 load(1, XDATA, add(CFA_XSP16, literal(-2)))
        CFI DPH0 load(1, XDATA, add(CFA_XSP16, literal(-1)))
        CFI CFA_SP SP+0
        CFI CFA_XSP16 add(XSP16, 35)
        CFI Block cfiCond112 Using cfiCommon0
        CFI (cfiCond112) NoFunction
        CFI (cfiCond112) Conditional ??CrossCallReturnLabel_82
        CFI (cfiCond112) R6 load(1, XDATA, add(CFA_XSP16, literal(-16)))
        CFI (cfiCond112) VB load(1, XDATA, add(CFA_XSP16, literal(-15)))
        CFI (cfiCond112) V0 load(1, XDATA, add(CFA_XSP16, literal(-14)))
        CFI (cfiCond112) V1 load(1, XDATA, add(CFA_XSP16, literal(-13)))
        CFI (cfiCond112) V2 load(1, XDATA, add(CFA_XSP16, literal(-12)))
        CFI (cfiCond112) V3 load(1, XDATA, add(CFA_XSP16, literal(-11)))
        CFI (cfiCond112) V4 load(1, XDATA, add(CFA_XSP16, literal(-10)))
        CFI (cfiCond112) V5 load(1, XDATA, add(CFA_XSP16, literal(-9)))
        CFI (cfiCond112) V6 load(1, XDATA, add(CFA_XSP16, literal(-8)))
        CFI (cfiCond112) V7 load(1, XDATA, add(CFA_XSP16, literal(-7)))
        CFI (cfiCond112) R7 load(1, XDATA, add(CFA_XSP16, literal(-6)))
        CFI (cfiCond112) ?RET_LOW load(1, XDATA, add(CFA_XSP16, literal(-5)))
        CFI (cfiCond112) ?RET_HIGH load(1, XDATA, add(CFA_XSP16, literal(-4)))
        CFI (cfiCond112) ?BRET_EXT load(1, XDATA, add(CFA_XSP16, literal(-3)))
        CFI (cfiCond112) DPL0 load(1, XDATA, add(CFA_XSP16, literal(-2)))
        CFI (cfiCond112) DPH0 load(1, XDATA, add(CFA_XSP16, literal(-1)))
        CFI (cfiCond112) CFA_SP SP+0
        CFI (cfiCond112) CFA_XSP16 add(XSP16, 35)
        CFI Block cfiCond113 Using cfiCommon0
        CFI (cfiCond113) NoFunction
        CFI (cfiCond113) Conditional ??CrossCallReturnLabel_83
        CFI (cfiCond113) R6 load(1, XDATA, add(CFA_XSP16, literal(-16)))
        CFI (cfiCond113) VB load(1, XDATA, add(CFA_XSP16, literal(-15)))
        CFI (cfiCond113) V0 load(1, XDATA, add(CFA_XSP16, literal(-14)))
        CFI (cfiCond113) V1 load(1, XDATA, add(CFA_XSP16, literal(-13)))
        CFI (cfiCond113) V2 load(1, XDATA, add(CFA_XSP16, literal(-12)))
        CFI (cfiCond113) V3 load(1, XDATA, add(CFA_XSP16, literal(-11)))
        CFI (cfiCond113) V4 load(1, XDATA, add(CFA_XSP16, literal(-10)))
        CFI (cfiCond113) V5 load(1, XDATA, add(CFA_XSP16, literal(-9)))
        CFI (cfiCond113) V6 load(1, XDATA, add(CFA_XSP16, literal(-8)))
        CFI (cfiCond113) V7 load(1, XDATA, add(CFA_XSP16, literal(-7)))
        CFI (cfiCond113) R7 load(1, XDATA, add(CFA_XSP16, literal(-6)))
        CFI (cfiCond113) ?RET_LOW load(1, XDATA, add(CFA_XSP16, literal(-5)))
        CFI (cfiCond113) ?RET_HIGH load(1, XDATA, add(CFA_XSP16, literal(-4)))
        CFI (cfiCond113) ?BRET_EXT load(1, XDATA, add(CFA_XSP16, literal(-3)))
        CFI (cfiCond113) DPL0 load(1, XDATA, add(CFA_XSP16, literal(-2)))
        CFI (cfiCond113) DPH0 load(1, XDATA, add(CFA_XSP16, literal(-1)))
        CFI (cfiCond113) CFA_SP SP+0
        CFI (cfiCond113) CFA_XSP16 add(XSP16, 25)
        CFI Block cfiCond114 Using cfiCommon0
        CFI (cfiCond114) NoFunction
        CFI (cfiCond114) Conditional ??CrossCallReturnLabel_84
        CFI (cfiCond114) R6 load(1, XDATA, add(CFA_XSP16, literal(-16)))
        CFI (cfiCond114) VB load(1, XDATA, add(CFA_XSP16, literal(-15)))
        CFI (cfiCond114) V0 load(1, XDATA, add(CFA_XSP16, literal(-14)))
        CFI (cfiCond114) V1 load(1, XDATA, add(CFA_XSP16, literal(-13)))
        CFI (cfiCond114) V2 load(1, XDATA, add(CFA_XSP16, literal(-12)))
        CFI (cfiCond114) V3 load(1, XDATA, add(CFA_XSP16, literal(-11)))
        CFI (cfiCond114) V4 load(1, XDATA, add(CFA_XSP16, literal(-10)))
        CFI (cfiCond114) V5 load(1, XDATA, add(CFA_XSP16, literal(-9)))
        CFI (cfiCond114) V6 load(1, XDATA, add(CFA_XSP16, literal(-8)))
        CFI (cfiCond114) V7 load(1, XDATA, add(CFA_XSP16, literal(-7)))
        CFI (cfiCond114) R7 load(1, XDATA, add(CFA_XSP16, literal(-6)))
        CFI (cfiCond114) ?RET_LOW load(1, XDATA, add(CFA_XSP16, literal(-5)))
        CFI (cfiCond114) ?RET_HIGH load(1, XDATA, add(CFA_XSP16, literal(-4)))
        CFI (cfiCond114) ?BRET_EXT load(1, XDATA, add(CFA_XSP16, literal(-3)))
        CFI (cfiCond114) DPL0 load(1, XDATA, add(CFA_XSP16, literal(-2)))
        CFI (cfiCond114) DPH0 load(1, XDATA, add(CFA_XSP16, literal(-1)))
        CFI (cfiCond114) CFA_SP SP+0
        CFI (cfiCond114) CFA_XSP16 add(XSP16, 25)
        CFI Block cfiCond115 Using cfiCommon0
        CFI (cfiCond115) NoFunction
        CFI (cfiCond115) Conditional ??CrossCallReturnLabel_85
        CFI (cfiCond115) R6 load(1, XDATA, add(CFA_XSP16, literal(-16)))
        CFI (cfiCond115) VB load(1, XDATA, add(CFA_XSP16, literal(-15)))
        CFI (cfiCond115) V0 load(1, XDATA, add(CFA_XSP16, literal(-14)))
        CFI (cfiCond115) V1 load(1, XDATA, add(CFA_XSP16, literal(-13)))
        CFI (cfiCond115) V2 load(1, XDATA, add(CFA_XSP16, literal(-12)))
        CFI (cfiCond115) V3 load(1, XDATA, add(CFA_XSP16, literal(-11)))
        CFI (cfiCond115) V4 load(1, XDATA, add(CFA_XSP16, literal(-10)))
        CFI (cfiCond115) V5 load(1, XDATA, add(CFA_XSP16, literal(-9)))
        CFI (cfiCond115) V6 load(1, XDATA, add(CFA_XSP16, literal(-8)))
        CFI (cfiCond115) V7 load(1, XDATA, add(CFA_XSP16, literal(-7)))
        CFI (cfiCond115) R7 load(1, XDATA, add(CFA_XSP16, literal(-6)))
        CFI (cfiCond115) ?RET_LOW load(1, XDATA, add(CFA_XSP16, literal(-5)))
        CFI (cfiCond115) ?RET_HIGH load(1, XDATA, add(CFA_XSP16, literal(-4)))
        CFI (cfiCond115) ?BRET_EXT load(1, XDATA, add(CFA_XSP16, literal(-3)))
        CFI (cfiCond115) DPL0 load(1, XDATA, add(CFA_XSP16, literal(-2)))
        CFI (cfiCond115) DPH0 load(1, XDATA, add(CFA_XSP16, literal(-1)))
        CFI (cfiCond115) CFA_SP SP+0
        CFI (cfiCond115) CFA_XSP16 add(XSP16, 21)
        CFI Block cfiCond116 Using cfiCommon0
        CFI (cfiCond116) NoFunction
        CFI (cfiCond116) Conditional ??CrossCallReturnLabel_86
        CFI (cfiCond116) R6 load(1, XDATA, add(CFA_XSP16, literal(-16)))
        CFI (cfiCond116) VB load(1, XDATA, add(CFA_XSP16, literal(-15)))
        CFI (cfiCond116) V0 load(1, XDATA, add(CFA_XSP16, literal(-14)))
        CFI (cfiCond116) V1 load(1, XDATA, add(CFA_XSP16, literal(-13)))
        CFI (cfiCond116) V2 load(1, XDATA, add(CFA_XSP16, literal(-12)))
        CFI (cfiCond116) V3 load(1, XDATA, add(CFA_XSP16, literal(-11)))
        CFI (cfiCond116) V4 load(1, XDATA, add(CFA_XSP16, literal(-10)))
        CFI (cfiCond116) V5 load(1, XDATA, add(CFA_XSP16, literal(-9)))
        CFI (cfiCond116) V6 load(1, XDATA, add(CFA_XSP16, literal(-8)))
        CFI (cfiCond116) V7 load(1, XDATA, add(CFA_XSP16, literal(-7)))
        CFI (cfiCond116) R7 load(1, XDATA, add(CFA_XSP16, literal(-6)))
        CFI (cfiCond116) ?RET_LOW load(1, XDATA, add(CFA_XSP16, literal(-5)))
        CFI (cfiCond116) ?RET_HIGH load(1, XDATA, add(CFA_XSP16, literal(-4)))
        CFI (cfiCond116) ?BRET_EXT load(1, XDATA, add(CFA_XSP16, literal(-3)))
        CFI (cfiCond116) DPL0 load(1, XDATA, add(CFA_XSP16, literal(-2)))
        CFI (cfiCond116) DPH0 load(1, XDATA, add(CFA_XSP16, literal(-1)))
        CFI (cfiCond116) CFA_SP SP+0
        CFI (cfiCond116) CFA_XSP16 add(XSP16, 21)
        CFI Block cfiCond117 Using cfiCommon0
        CFI (cfiCond117) NoFunction
        CFI (cfiCond117) Conditional ??CrossCallReturnLabel_87
        CFI (cfiCond117) R6 load(1, XDATA, add(CFA_XSP16, literal(-16)))
        CFI (cfiCond117) VB load(1, XDATA, add(CFA_XSP16, literal(-15)))
        CFI (cfiCond117) V0 load(1, XDATA, add(CFA_XSP16, literal(-14)))
        CFI (cfiCond117) V1 load(1, XDATA, add(CFA_XSP16, literal(-13)))
        CFI (cfiCond117) V2 load(1, XDATA, add(CFA_XSP16, literal(-12)))
        CFI (cfiCond117) V3 load(1, XDATA, add(CFA_XSP16, literal(-11)))
        CFI (cfiCond117) V4 load(1, XDATA, add(CFA_XSP16, literal(-10)))
        CFI (cfiCond117) V5 load(1, XDATA, add(CFA_XSP16, literal(-9)))
        CFI (cfiCond117) V6 load(1, XDATA, add(CFA_XSP16, literal(-8)))
        CFI (cfiCond117) V7 load(1, XDATA, add(CFA_XSP16, literal(-7)))
        CFI (cfiCond117) R7 load(1, XDATA, add(CFA_XSP16, literal(-6)))
        CFI (cfiCond117) ?RET_LOW load(1, XDATA, add(CFA_XSP16, literal(-5)))
        CFI (cfiCond117) ?RET_HIGH load(1, XDATA, add(CFA_XSP16, literal(-4)))
        CFI (cfiCond117) ?BRET_EXT load(1, XDATA, add(CFA_XSP16, literal(-3)))
        CFI (cfiCond117) DPL0 load(1, XDATA, add(CFA_XSP16, literal(-2)))
        CFI (cfiCond117) DPH0 load(1, XDATA, add(CFA_XSP16, literal(-1)))
        CFI (cfiCond117) CFA_SP SP+0
        CFI (cfiCond117) CFA_XSP16 add(XSP16, 21)
        CFI Block cfiCond118 Using cfiCommon0
        CFI (cfiCond118) NoFunction
        CFI (cfiCond118) Conditional ??CrossCallReturnLabel_88
        CFI (cfiCond118) R6 load(1, XDATA, add(CFA_XSP16, literal(-16)))
        CFI (cfiCond118) VB load(1, XDATA, add(CFA_XSP16, literal(-15)))
        CFI (cfiCond118) V0 load(1, XDATA, add(CFA_XSP16, literal(-14)))
        CFI (cfiCond118) V1 load(1, XDATA, add(CFA_XSP16, literal(-13)))
        CFI (cfiCond118) V2 load(1, XDATA, add(CFA_XSP16, literal(-12)))
        CFI (cfiCond118) V3 load(1, XDATA, add(CFA_XSP16, literal(-11)))
        CFI (cfiCond118) V4 load(1, XDATA, add(CFA_XSP16, literal(-10)))
        CFI (cfiCond118) V5 load(1, XDATA, add(CFA_XSP16, literal(-9)))
        CFI (cfiCond118) V6 load(1, XDATA, add(CFA_XSP16, literal(-8)))
        CFI (cfiCond118) V7 load(1, XDATA, add(CFA_XSP16, literal(-7)))
        CFI (cfiCond118) R7 load(1, XDATA, add(CFA_XSP16, literal(-6)))
        CFI (cfiCond118) ?RET_LOW load(1, XDATA, add(CFA_XSP16, literal(-5)))
        CFI (cfiCond118) ?RET_HIGH load(1, XDATA, add(CFA_XSP16, literal(-4)))
        CFI (cfiCond118) ?BRET_EXT load(1, XDATA, add(CFA_XSP16, literal(-3)))
        CFI (cfiCond118) DPL0 load(1, XDATA, add(CFA_XSP16, literal(-2)))
        CFI (cfiCond118) DPH0 load(1, XDATA, add(CFA_XSP16, literal(-1)))
        CFI (cfiCond118) CFA_SP SP+0
        CFI (cfiCond118) CFA_XSP16 add(XSP16, 21)
        CFI Block cfiCond119 Using cfiCommon0
        CFI (cfiCond119) NoFunction
        CFI (cfiCond119) Conditional ??CrossCallReturnLabel_89
        CFI (cfiCond119) R6 load(1, XDATA, add(CFA_XSP16, literal(-16)))
        CFI (cfiCond119) VB load(1, XDATA, add(CFA_XSP16, literal(-15)))
        CFI (cfiCond119) V0 load(1, XDATA, add(CFA_XSP16, literal(-14)))
        CFI (cfiCond119) V1 load(1, XDATA, add(CFA_XSP16, literal(-13)))
        CFI (cfiCond119) V2 load(1, XDATA, add(CFA_XSP16, literal(-12)))
        CFI (cfiCond119) V3 load(1, XDATA, add(CFA_XSP16, literal(-11)))
        CFI (cfiCond119) V4 load(1, XDATA, add(CFA_XSP16, literal(-10)))
        CFI (cfiCond119) V5 load(1, XDATA, add(CFA_XSP16, literal(-9)))
        CFI (cfiCond119) V6 load(1, XDATA, add(CFA_XSP16, literal(-8)))
        CFI (cfiCond119) V7 load(1, XDATA, add(CFA_XSP16, literal(-7)))
        CFI (cfiCond119) R7 load(1, XDATA, add(CFA_XSP16, literal(-6)))
        CFI (cfiCond119) ?RET_LOW load(1, XDATA, add(CFA_XSP16, literal(-5)))
        CFI (cfiCond119) ?RET_HIGH load(1, XDATA, add(CFA_XSP16, literal(-4)))
        CFI (cfiCond119) ?BRET_EXT load(1, XDATA, add(CFA_XSP16, literal(-3)))
        CFI (cfiCond119) DPL0 load(1, XDATA, add(CFA_XSP16, literal(-2)))
        CFI (cfiCond119) DPH0 load(1, XDATA, add(CFA_XSP16, literal(-1)))
        CFI (cfiCond119) CFA_SP SP+0
        CFI (cfiCond119) CFA_XSP16 add(XSP16, 21)
        CFI Block cfiPicker120 Using cfiCommon1
        CFI (cfiPicker120) NoFunction
        CFI (cfiPicker120) Picker
        MOV     A,R0
        MOVX    @DPTR,A
        INC     DPTR
        MOV     A,R1
        MOVX    @DPTR,A
        RET
        CFI EndBlock cfiCond111
        CFI EndBlock cfiCond112
        CFI EndBlock cfiCond113
        CFI EndBlock cfiCond114
        CFI EndBlock cfiCond115
        CFI EndBlock cfiCond116
        CFI EndBlock cfiCond117
        CFI EndBlock cfiCond118
        CFI EndBlock cfiCond119
        CFI EndBlock cfiPicker120

        RSEG BANKED_CODE:CODE:NOROOT(0)
?Subroutine39:
        CFI Block cfiCond121 Using cfiCommon0
        CFI NoFunction
        CFI Conditional ??CrossCallReturnLabel_64
        CFI R6 load(1, XDATA, add(CFA_XSP16, literal(-16)))
        CFI VB load(1, XDATA, add(CFA_XSP16, literal(-15)))
        CFI V0 load(1, XDATA, add(CFA_XSP16, literal(-14)))
        CFI V1 load(1, XDATA, add(CFA_XSP16, literal(-13)))
        CFI V2 load(1, XDATA, add(CFA_XSP16, literal(-12)))
        CFI V3 load(1, XDATA, add(CFA_XSP16, literal(-11)))
        CFI V4 load(1, XDATA, add(CFA_XSP16, literal(-10)))
        CFI V5 load(1, XDATA, add(CFA_XSP16, literal(-9)))
        CFI V6 load(1, XDATA, add(CFA_XSP16, literal(-8)))
        CFI V7 load(1, XDATA, add(CFA_XSP16, literal(-7)))
        CFI R7 load(1, XDATA, add(CFA_XSP16, literal(-6)))
        CFI ?RET_LOW load(1, XDATA, add(CFA_XSP16, literal(-5)))
        CFI ?RET_HIGH load(1, XDATA, add(CFA_XSP16, literal(-4)))
        CFI ?BRET_EXT load(1, XDATA, add(CFA_XSP16, literal(-3)))
        CFI DPL0 load(1, XDATA, add(CFA_XSP16, literal(-2)))
        CFI DPH0 load(1, XDATA, add(CFA_XSP16, literal(-1)))
        CFI CFA_SP SP+0
        CFI CFA_XSP16 add(XSP16, 35)
        CFI Block cfiCond122 Using cfiCommon0
        CFI (cfiCond122) NoFunction
        CFI (cfiCond122) Conditional ??CrossCallReturnLabel_65
        CFI (cfiCond122) R6 load(1, XDATA, add(CFA_XSP16, literal(-16)))
        CFI (cfiCond122) VB load(1, XDATA, add(CFA_XSP16, literal(-15)))
        CFI (cfiCond122) V0 load(1, XDATA, add(CFA_XSP16, literal(-14)))
        CFI (cfiCond122) V1 load(1, XDATA, add(CFA_XSP16, literal(-13)))
        CFI (cfiCond122) V2 load(1, XDATA, add(CFA_XSP16, literal(-12)))
        CFI (cfiCond122) V3 load(1, XDATA, add(CFA_XSP16, literal(-11)))
        CFI (cfiCond122) V4 load(1, XDATA, add(CFA_XSP16, literal(-10)))
        CFI (cfiCond122) V5 load(1, XDATA, add(CFA_XSP16, literal(-9)))
        CFI (cfiCond122) V6 load(1, XDATA, add(CFA_XSP16, literal(-8)))
        CFI (cfiCond122) V7 load(1, XDATA, add(CFA_XSP16, literal(-7)))
        CFI (cfiCond122) R7 load(1, XDATA, add(CFA_XSP16, literal(-6)))
        CFI (cfiCond122) ?RET_LOW load(1, XDATA, add(CFA_XSP16, literal(-5)))
        CFI (cfiCond122) ?RET_HIGH load(1, XDATA, add(CFA_XSP16, literal(-4)))
        CFI (cfiCond122) ?BRET_EXT load(1, XDATA, add(CFA_XSP16, literal(-3)))
        CFI (cfiCond122) DPL0 load(1, XDATA, add(CFA_XSP16, literal(-2)))
        CFI (cfiCond122) DPH0 load(1, XDATA, add(CFA_XSP16, literal(-1)))
        CFI (cfiCond122) CFA_SP SP+0
        CFI (cfiCond122) CFA_XSP16 add(XSP16, 35)
        CFI Block cfiCond123 Using cfiCommon0
        CFI (cfiCond123) NoFunction
        CFI (cfiCond123) Conditional ??CrossCallReturnLabel_66
        CFI (cfiCond123) R6 load(1, XDATA, add(CFA_XSP16, literal(-16)))
        CFI (cfiCond123) VB load(1, XDATA, add(CFA_XSP16, literal(-15)))
        CFI (cfiCond123) V0 load(1, XDATA, add(CFA_XSP16, literal(-14)))
        CFI (cfiCond123) V1 load(1, XDATA, add(CFA_XSP16, literal(-13)))
        CFI (cfiCond123) V2 load(1, XDATA, add(CFA_XSP16, literal(-12)))
        CFI (cfiCond123) V3 load(1, XDATA, add(CFA_XSP16, literal(-11)))
        CFI (cfiCond123) V4 load(1, XDATA, add(CFA_XSP16, literal(-10)))
        CFI (cfiCond123) V5 load(1, XDATA, add(CFA_XSP16, literal(-9)))
        CFI (cfiCond123) V6 load(1, XDATA, add(CFA_XSP16, literal(-8)))
        CFI (cfiCond123) V7 load(1, XDATA, add(CFA_XSP16, literal(-7)))
        CFI (cfiCond123) R7 load(1, XDATA, add(CFA_XSP16, literal(-6)))
        CFI (cfiCond123) ?RET_LOW load(1, XDATA, add(CFA_XSP16, literal(-5)))
        CFI (cfiCond123) ?RET_HIGH load(1, XDATA, add(CFA_XSP16, literal(-4)))
        CFI (cfiCond123) ?BRET_EXT load(1, XDATA, add(CFA_XSP16, literal(-3)))
        CFI (cfiCond123) DPL0 load(1, XDATA, add(CFA_XSP16, literal(-2)))
        CFI (cfiCond123) DPH0 load(1, XDATA, add(CFA_XSP16, literal(-1)))
        CFI (cfiCond123) CFA_SP SP+0
        CFI (cfiCond123) CFA_XSP16 add(XSP16, 34)
        CFI Block cfiCond124 Using cfiCommon0
        CFI (cfiCond124) NoFunction
        CFI (cfiCond124) Conditional ??CrossCallReturnLabel_67
        CFI (cfiCond124) R6 load(1, XDATA, add(CFA_XSP16, literal(-16)))
        CFI (cfiCond124) VB load(1, XDATA, add(CFA_XSP16, literal(-15)))
        CFI (cfiCond124) V0 load(1, XDATA, add(CFA_XSP16, literal(-14)))
        CFI (cfiCond124) V1 load(1, XDATA, add(CFA_XSP16, literal(-13)))
        CFI (cfiCond124) V2 load(1, XDATA, add(CFA_XSP16, literal(-12)))
        CFI (cfiCond124) V3 load(1, XDATA, add(CFA_XSP16, literal(-11)))
        CFI (cfiCond124) V4 load(1, XDATA, add(CFA_XSP16, literal(-10)))
        CFI (cfiCond124) V5 load(1, XDATA, add(CFA_XSP16, literal(-9)))
        CFI (cfiCond124) V6 load(1, XDATA, add(CFA_XSP16, literal(-8)))
        CFI (cfiCond124) V7 load(1, XDATA, add(CFA_XSP16, literal(-7)))
        CFI (cfiCond124) R7 load(1, XDATA, add(CFA_XSP16, literal(-6)))
        CFI (cfiCond124) ?RET_LOW load(1, XDATA, add(CFA_XSP16, literal(-5)))
        CFI (cfiCond124) ?RET_HIGH load(1, XDATA, add(CFA_XSP16, literal(-4)))
        CFI (cfiCond124) ?BRET_EXT load(1, XDATA, add(CFA_XSP16, literal(-3)))
        CFI (cfiCond124) DPL0 load(1, XDATA, add(CFA_XSP16, literal(-2)))
        CFI (cfiCond124) DPH0 load(1, XDATA, add(CFA_XSP16, literal(-1)))
        CFI (cfiCond124) CFA_SP SP+0
        CFI (cfiCond124) CFA_XSP16 add(XSP16, 25)
        CFI Block cfiCond125 Using cfiCommon0
        CFI (cfiCond125) NoFunction
        CFI (cfiCond125) Conditional ??CrossCallReturnLabel_68
        CFI (cfiCond125) R6 load(1, XDATA, add(CFA_XSP16, literal(-16)))
        CFI (cfiCond125) VB load(1, XDATA, add(CFA_XSP16, literal(-15)))
        CFI (cfiCond125) V0 load(1, XDATA, add(CFA_XSP16, literal(-14)))
        CFI (cfiCond125) V1 load(1, XDATA, add(CFA_XSP16, literal(-13)))
        CFI (cfiCond125) V2 load(1, XDATA, add(CFA_XSP16, literal(-12)))
        CFI (cfiCond125) V3 load(1, XDATA, add(CFA_XSP16, literal(-11)))
        CFI (cfiCond125) V4 load(1, XDATA, add(CFA_XSP16, literal(-10)))
        CFI (cfiCond125) V5 load(1, XDATA, add(CFA_XSP16, literal(-9)))
        CFI (cfiCond125) V6 load(1, XDATA, add(CFA_XSP16, literal(-8)))
        CFI (cfiCond125) V7 load(1, XDATA, add(CFA_XSP16, literal(-7)))
        CFI (cfiCond125) R7 load(1, XDATA, add(CFA_XSP16, literal(-6)))
        CFI (cfiCond125) ?RET_LOW load(1, XDATA, add(CFA_XSP16, literal(-5)))
        CFI (cfiCond125) ?RET_HIGH load(1, XDATA, add(CFA_XSP16, literal(-4)))
        CFI (cfiCond125) ?BRET_EXT load(1, XDATA, add(CFA_XSP16, literal(-3)))
        CFI (cfiCond125) DPL0 load(1, XDATA, add(CFA_XSP16, literal(-2)))
        CFI (cfiCond125) DPH0 load(1, XDATA, add(CFA_XSP16, literal(-1)))
        CFI (cfiCond125) CFA_SP SP+0
        CFI (cfiCond125) CFA_XSP16 add(XSP16, 25)
        CFI Block cfiCond126 Using cfiCommon0
        CFI (cfiCond126) NoFunction
        CFI (cfiCond126) Conditional ??CrossCallReturnLabel_69
        CFI (cfiCond126) R6 load(1, XDATA, add(CFA_XSP16, literal(-16)))
        CFI (cfiCond126) VB load(1, XDATA, add(CFA_XSP16, literal(-15)))
        CFI (cfiCond126) V0 load(1, XDATA, add(CFA_XSP16, literal(-14)))
        CFI (cfiCond126) V1 load(1, XDATA, add(CFA_XSP16, literal(-13)))
        CFI (cfiCond126) V2 load(1, XDATA, add(CFA_XSP16, literal(-12)))
        CFI (cfiCond126) V3 load(1, XDATA, add(CFA_XSP16, literal(-11)))
        CFI (cfiCond126) V4 load(1, XDATA, add(CFA_XSP16, literal(-10)))
        CFI (cfiCond126) V5 load(1, XDATA, add(CFA_XSP16, literal(-9)))
        CFI (cfiCond126) V6 load(1, XDATA, add(CFA_XSP16, literal(-8)))
        CFI (cfiCond126) V7 load(1, XDATA, add(CFA_XSP16, literal(-7)))
        CFI (cfiCond126) R7 load(1, XDATA, add(CFA_XSP16, literal(-6)))
        CFI (cfiCond126) ?RET_LOW load(1, XDATA, add(CFA_XSP16, literal(-5)))
        CFI (cfiCond126) ?RET_HIGH load(1, XDATA, add(CFA_XSP16, literal(-4)))
        CFI (cfiCond126) ?BRET_EXT load(1, XDATA, add(CFA_XSP16, literal(-3)))
        CFI (cfiCond126) DPL0 load(1, XDATA, add(CFA_XSP16, literal(-2)))
        CFI (cfiCond126) DPH0 load(1, XDATA, add(CFA_XSP16, literal(-1)))
        CFI (cfiCond126) CFA_SP SP+0
        CFI (cfiCond126) CFA_XSP16 add(XSP16, 25)
        CFI Block cfiCond127 Using cfiCommon0
        CFI (cfiCond127) NoFunction
        CFI (cfiCond127) Conditional ??CrossCallReturnLabel_70
        CFI (cfiCond127) R6 load(1, XDATA, add(CFA_XSP16, literal(-16)))
        CFI (cfiCond127) VB load(1, XDATA, add(CFA_XSP16, literal(-15)))
        CFI (cfiCond127) V0 load(1, XDATA, add(CFA_XSP16, literal(-14)))
        CFI (cfiCond127) V1 load(1, XDATA, add(CFA_XSP16, literal(-13)))
        CFI (cfiCond127) V2 load(1, XDATA, add(CFA_XSP16, literal(-12)))
        CFI (cfiCond127) V3 load(1, XDATA, add(CFA_XSP16, literal(-11)))
        CFI (cfiCond127) V4 load(1, XDATA, add(CFA_XSP16, literal(-10)))
        CFI (cfiCond127) V5 load(1, XDATA, add(CFA_XSP16, literal(-9)))
        CFI (cfiCond127) V6 load(1, XDATA, add(CFA_XSP16, literal(-8)))
        CFI (cfiCond127) V7 load(1, XDATA, add(CFA_XSP16, literal(-7)))
        CFI (cfiCond127) R7 load(1, XDATA, add(CFA_XSP16, literal(-6)))
        CFI (cfiCond127) ?RET_LOW load(1, XDATA, add(CFA_XSP16, literal(-5)))
        CFI (cfiCond127) ?RET_HIGH load(1, XDATA, add(CFA_XSP16, literal(-4)))
        CFI (cfiCond127) ?BRET_EXT load(1, XDATA, add(CFA_XSP16, literal(-3)))
        CFI (cfiCond127) DPL0 load(1, XDATA, add(CFA_XSP16, literal(-2)))
        CFI (cfiCond127) DPH0 load(1, XDATA, add(CFA_XSP16, literal(-1)))
        CFI (cfiCond127) CFA_SP SP+0
        CFI (cfiCond127) CFA_XSP16 add(XSP16, 25)
        CFI Block cfiCond128 Using cfiCommon0
        CFI (cfiCond128) NoFunction
        CFI (cfiCond128) Conditional ??CrossCallReturnLabel_71
        CFI (cfiCond128) R6 load(1, XDATA, add(CFA_XSP16, literal(-16)))
        CFI (cfiCond128) VB load(1, XDATA, add(CFA_XSP16, literal(-15)))
        CFI (cfiCond128) V0 load(1, XDATA, add(CFA_XSP16, literal(-14)))
        CFI (cfiCond128) V1 load(1, XDATA, add(CFA_XSP16, literal(-13)))
        CFI (cfiCond128) V2 load(1, XDATA, add(CFA_XSP16, literal(-12)))
        CFI (cfiCond128) V3 load(1, XDATA, add(CFA_XSP16, literal(-11)))
        CFI (cfiCond128) V4 load(1, XDATA, add(CFA_XSP16, literal(-10)))
        CFI (cfiCond128) V5 load(1, XDATA, add(CFA_XSP16, literal(-9)))
        CFI (cfiCond128) V6 load(1, XDATA, add(CFA_XSP16, literal(-8)))
        CFI (cfiCond128) V7 load(1, XDATA, add(CFA_XSP16, literal(-7)))
        CFI (cfiCond128) R7 load(1, XDATA, add(CFA_XSP16, literal(-6)))
        CFI (cfiCond128) ?RET_LOW load(1, XDATA, add(CFA_XSP16, literal(-5)))
        CFI (cfiCond128) ?RET_HIGH load(1, XDATA, add(CFA_XSP16, literal(-4)))
        CFI (cfiCond128) ?BRET_EXT load(1, XDATA, add(CFA_XSP16, literal(-3)))
        CFI (cfiCond128) DPL0 load(1, XDATA, add(CFA_XSP16, literal(-2)))
        CFI (cfiCond128) DPH0 load(1, XDATA, add(CFA_XSP16, literal(-1)))
        CFI (cfiCond128) CFA_SP SP+0
        CFI (cfiCond128) CFA_XSP16 add(XSP16, 21)
        CFI Block cfiPicker129 Using cfiCommon1
        CFI (cfiPicker129) NoFunction
        CFI (cfiPicker129) Picker
        MOV     A,R2
        MOVX    @DPTR,A
        INC     DPTR
        MOV     A,R3
        MOVX    @DPTR,A
        RET
        CFI EndBlock cfiCond121
        CFI EndBlock cfiCond122
        CFI EndBlock cfiCond123
        CFI EndBlock cfiCond124
        CFI EndBlock cfiCond125
        CFI EndBlock cfiCond126
        CFI EndBlock cfiCond127
        CFI EndBlock cfiCond128
        CFI EndBlock cfiPicker129

        RSEG BANKED_CODE:CODE:NOROOT(0)
?Subroutine37:
        CFI Block cfiCond130 Using cfiCommon0
        CFI NoFunction
        CFI Conditional ??CrossCallReturnLabel_121
        CFI R6 load(1, XDATA, add(CFA_XSP16, literal(-16)))
        CFI VB load(1, XDATA, add(CFA_XSP16, literal(-15)))
        CFI V0 load(1, XDATA, add(CFA_XSP16, literal(-14)))
        CFI V1 load(1, XDATA, add(CFA_XSP16, literal(-13)))
        CFI V2 load(1, XDATA, add(CFA_XSP16, literal(-12)))
        CFI V3 load(1, XDATA, add(CFA_XSP16, literal(-11)))
        CFI V4 load(1, XDATA, add(CFA_XSP16, literal(-10)))
        CFI V5 load(1, XDATA, add(CFA_XSP16, literal(-9)))
        CFI V6 load(1, XDATA, add(CFA_XSP16, literal(-8)))
        CFI V7 load(1, XDATA, add(CFA_XSP16, literal(-7)))
        CFI R7 load(1, XDATA, add(CFA_XSP16, literal(-6)))
        CFI ?RET_LOW load(1, XDATA, add(CFA_XSP16, literal(-5)))
        CFI ?RET_HIGH load(1, XDATA, add(CFA_XSP16, literal(-4)))
        CFI ?BRET_EXT load(1, XDATA, add(CFA_XSP16, literal(-3)))
        CFI DPL0 load(1, XDATA, add(CFA_XSP16, literal(-2)))
        CFI DPH0 load(1, XDATA, add(CFA_XSP16, literal(-1)))
        CFI CFA_SP SP+0
        CFI CFA_XSP16 add(XSP16, 25)
        CFI Block cfiCond131 Using cfiCommon0
        CFI (cfiCond131) NoFunction
        CFI (cfiCond131) Conditional ??CrossCallReturnLabel_122
        CFI (cfiCond131) R6 load(1, XDATA, add(CFA_XSP16, literal(-16)))
        CFI (cfiCond131) VB load(1, XDATA, add(CFA_XSP16, literal(-15)))
        CFI (cfiCond131) V0 load(1, XDATA, add(CFA_XSP16, literal(-14)))
        CFI (cfiCond131) V1 load(1, XDATA, add(CFA_XSP16, literal(-13)))
        CFI (cfiCond131) V2 load(1, XDATA, add(CFA_XSP16, literal(-12)))
        CFI (cfiCond131) V3 load(1, XDATA, add(CFA_XSP16, literal(-11)))
        CFI (cfiCond131) V4 load(1, XDATA, add(CFA_XSP16, literal(-10)))
        CFI (cfiCond131) V5 load(1, XDATA, add(CFA_XSP16, literal(-9)))
        CFI (cfiCond131) V6 load(1, XDATA, add(CFA_XSP16, literal(-8)))
        CFI (cfiCond131) V7 load(1, XDATA, add(CFA_XSP16, literal(-7)))
        CFI (cfiCond131) R7 load(1, XDATA, add(CFA_XSP16, literal(-6)))
        CFI (cfiCond131) ?RET_LOW load(1, XDATA, add(CFA_XSP16, literal(-5)))
        CFI (cfiCond131) ?RET_HIGH load(1, XDATA, add(CFA_XSP16, literal(-4)))
        CFI (cfiCond131) ?BRET_EXT load(1, XDATA, add(CFA_XSP16, literal(-3)))
        CFI (cfiCond131) DPL0 load(1, XDATA, add(CFA_XSP16, literal(-2)))
        CFI (cfiCond131) DPH0 load(1, XDATA, add(CFA_XSP16, literal(-1)))
        CFI (cfiCond131) CFA_SP SP+0
        CFI (cfiCond131) CFA_XSP16 add(XSP16, 25)
        CFI Block cfiPicker132 Using cfiCommon1
        CFI (cfiPicker132) NoFunction
        CFI (cfiPicker132) Picker
        MOV     DPL,R6
        MOV     DPH,R7
        MOV     A,?V0 + 0
        CFI EndBlock cfiCond130
        CFI EndBlock cfiCond131
        CFI EndBlock cfiPicker132
        REQUIRE ??Subroutine66_0
        ; // Fall through to label ??Subroutine66_0

        RSEG BANKED_CODE:CODE:NOROOT(0)
??Subroutine66_0:
        CFI Block cfiCond133 Using cfiCommon0
        CFI NoFunction
        CFI Conditional ??CrossCallReturnLabel_123
        CFI R6 load(1, XDATA, add(CFA_XSP16, literal(-16)))
        CFI VB load(1, XDATA, add(CFA_XSP16, literal(-15)))
        CFI V0 load(1, XDATA, add(CFA_XSP16, literal(-14)))
        CFI V1 load(1, XDATA, add(CFA_XSP16, literal(-13)))
        CFI V2 load(1, XDATA, add(CFA_XSP16, literal(-12)))
        CFI V3 load(1, XDATA, add(CFA_XSP16, literal(-11)))
        CFI V4 load(1, XDATA, add(CFA_XSP16, literal(-10)))
        CFI V5 load(1, XDATA, add(CFA_XSP16, literal(-9)))
        CFI V6 load(1, XDATA, add(CFA_XSP16, literal(-8)))
        CFI V7 load(1, XDATA, add(CFA_XSP16, literal(-7)))
        CFI R7 load(1, XDATA, add(CFA_XSP16, literal(-6)))
        CFI ?RET_LOW load(1, XDATA, add(CFA_XSP16, literal(-5)))
        CFI ?RET_HIGH load(1, XDATA, add(CFA_XSP16, literal(-4)))
        CFI ?BRET_EXT load(1, XDATA, add(CFA_XSP16, literal(-3)))
        CFI DPL0 load(1, XDATA, add(CFA_XSP16, literal(-2)))
        CFI DPH0 load(1, XDATA, add(CFA_XSP16, literal(-1)))
        CFI CFA_SP SP+0
        CFI CFA_XSP16 add(XSP16, 25)
        CFI Block cfiCond134 Using cfiCommon0
        CFI (cfiCond134) NoFunction
        CFI (cfiCond134) Conditional ??CrossCallReturnLabel_121
        CFI (cfiCond134) R6 load(1, XDATA, add(CFA_XSP16, literal(-16)))
        CFI (cfiCond134) VB load(1, XDATA, add(CFA_XSP16, literal(-15)))
        CFI (cfiCond134) V0 load(1, XDATA, add(CFA_XSP16, literal(-14)))
        CFI (cfiCond134) V1 load(1, XDATA, add(CFA_XSP16, literal(-13)))
        CFI (cfiCond134) V2 load(1, XDATA, add(CFA_XSP16, literal(-12)))
        CFI (cfiCond134) V3 load(1, XDATA, add(CFA_XSP16, literal(-11)))
        CFI (cfiCond134) V4 load(1, XDATA, add(CFA_XSP16, literal(-10)))
        CFI (cfiCond134) V5 load(1, XDATA, add(CFA_XSP16, literal(-9)))
        CFI (cfiCond134) V6 load(1, XDATA, add(CFA_XSP16, literal(-8)))
        CFI (cfiCond134) V7 load(1, XDATA, add(CFA_XSP16, literal(-7)))
        CFI (cfiCond134) R7 load(1, XDATA, add(CFA_XSP16, literal(-6)))
        CFI (cfiCond134) ?RET_LOW load(1, XDATA, add(CFA_XSP16, literal(-5)))
        CFI (cfiCond134) ?RET_HIGH load(1, XDATA, add(CFA_XSP16, literal(-4)))
        CFI (cfiCond134) ?BRET_EXT load(1, XDATA, add(CFA_XSP16, literal(-3)))
        CFI (cfiCond134) DPL0 load(1, XDATA, add(CFA_XSP16, literal(-2)))
        CFI (cfiCond134) DPH0 load(1, XDATA, add(CFA_XSP16, literal(-1)))
        CFI (cfiCond134) CFA_SP SP+0
        CFI (cfiCond134) CFA_XSP16 add(XSP16, 25)
        CFI Block cfiCond135 Using cfiCommon0
        CFI (cfiCond135) NoFunction
        CFI (cfiCond135) Conditional ??CrossCallReturnLabel_122
        CFI (cfiCond135) R6 load(1, XDATA, add(CFA_XSP16, literal(-16)))
        CFI (cfiCond135) VB load(1, XDATA, add(CFA_XSP16, literal(-15)))
        CFI (cfiCond135) V0 load(1, XDATA, add(CFA_XSP16, literal(-14)))
        CFI (cfiCond135) V1 load(1, XDATA, add(CFA_XSP16, literal(-13)))
        CFI (cfiCond135) V2 load(1, XDATA, add(CFA_XSP16, literal(-12)))
        CFI (cfiCond135) V3 load(1, XDATA, add(CFA_XSP16, literal(-11)))
        CFI (cfiCond135) V4 load(1, XDATA, add(CFA_XSP16, literal(-10)))
        CFI (cfiCond135) V5 load(1, XDATA, add(CFA_XSP16, literal(-9)))
        CFI (cfiCond135) V6 load(1, XDATA, add(CFA_XSP16, literal(-8)))
        CFI (cfiCond135) V7 load(1, XDATA, add(CFA_XSP16, literal(-7)))
        CFI (cfiCond135) R7 load(1, XDATA, add(CFA_XSP16, literal(-6)))
        CFI (cfiCond135) ?RET_LOW load(1, XDATA, add(CFA_XSP16, literal(-5)))
        CFI (cfiCond135) ?RET_HIGH load(1, XDATA, add(CFA_XSP16, literal(-4)))
        CFI (cfiCond135) ?BRET_EXT load(1, XDATA, add(CFA_XSP16, literal(-3)))
        CFI (cfiCond135) DPL0 load(1, XDATA, add(CFA_XSP16, literal(-2)))
        CFI (cfiCond135) DPH0 load(1, XDATA, add(CFA_XSP16, literal(-1)))
        CFI (cfiCond135) CFA_SP SP+0
        CFI (cfiCond135) CFA_XSP16 add(XSP16, 25)
        CFI Block cfiPicker136 Using cfiCommon1
        CFI (cfiPicker136) NoFunction
        CFI (cfiPicker136) Picker
        MOVX    @DPTR,A
        INC     DPTR
        INC     R6
        MOV     R7,DPH
        MOV     A,#0x5
        RET
        CFI EndBlock cfiCond133
        CFI EndBlock cfiCond134
        CFI EndBlock cfiCond135
        CFI EndBlock cfiPicker136

        RSEG BANKED_CODE:CODE:NOROOT(0)
?Subroutine31:
        CFI Block cfiCond137 Using cfiCommon0
        CFI NoFunction
        CFI Conditional ??CrossCallReturnLabel_124
        CFI R6 load(1, XDATA, add(CFA_XSP16, literal(-16)))
        CFI VB load(1, XDATA, add(CFA_XSP16, literal(-15)))
        CFI V0 load(1, XDATA, add(CFA_XSP16, literal(-14)))
        CFI V1 load(1, XDATA, add(CFA_XSP16, literal(-13)))
        CFI V2 load(1, XDATA, add(CFA_XSP16, literal(-12)))
        CFI V3 load(1, XDATA, add(CFA_XSP16, literal(-11)))
        CFI V4 load(1, XDATA, add(CFA_XSP16, literal(-10)))
        CFI V5 load(1, XDATA, add(CFA_XSP16, literal(-9)))
        CFI V6 load(1, XDATA, add(CFA_XSP16, literal(-8)))
        CFI V7 load(1, XDATA, add(CFA_XSP16, literal(-7)))
        CFI R7 load(1, XDATA, add(CFA_XSP16, literal(-6)))
        CFI ?RET_LOW load(1, XDATA, add(CFA_XSP16, literal(-5)))
        CFI ?RET_HIGH load(1, XDATA, add(CFA_XSP16, literal(-4)))
        CFI ?BRET_EXT load(1, XDATA, add(CFA_XSP16, literal(-3)))
        CFI DPL0 load(1, XDATA, add(CFA_XSP16, literal(-2)))
        CFI DPH0 load(1, XDATA, add(CFA_XSP16, literal(-1)))
        CFI CFA_SP SP+0
        CFI CFA_XSP16 add(XSP16, 35)
        CFI Block cfiCond138 Using cfiCommon0
        CFI (cfiCond138) NoFunction
        CFI (cfiCond138) Conditional ??CrossCallReturnLabel_125
        CFI (cfiCond138) R6 load(1, XDATA, add(CFA_XSP16, literal(-16)))
        CFI (cfiCond138) VB load(1, XDATA, add(CFA_XSP16, literal(-15)))
        CFI (cfiCond138) V0 load(1, XDATA, add(CFA_XSP16, literal(-14)))
        CFI (cfiCond138) V1 load(1, XDATA, add(CFA_XSP16, literal(-13)))
        CFI (cfiCond138) V2 load(1, XDATA, add(CFA_XSP16, literal(-12)))
        CFI (cfiCond138) V3 load(1, XDATA, add(CFA_XSP16, literal(-11)))
        CFI (cfiCond138) V4 load(1, XDATA, add(CFA_XSP16, literal(-10)))
        CFI (cfiCond138) V5 load(1, XDATA, add(CFA_XSP16, literal(-9)))
        CFI (cfiCond138) V6 load(1, XDATA, add(CFA_XSP16, literal(-8)))
        CFI (cfiCond138) V7 load(1, XDATA, add(CFA_XSP16, literal(-7)))
        CFI (cfiCond138) R7 load(1, XDATA, add(CFA_XSP16, literal(-6)))
        CFI (cfiCond138) ?RET_LOW load(1, XDATA, add(CFA_XSP16, literal(-5)))
        CFI (cfiCond138) ?RET_HIGH load(1, XDATA, add(CFA_XSP16, literal(-4)))
        CFI (cfiCond138) ?BRET_EXT load(1, XDATA, add(CFA_XSP16, literal(-3)))
        CFI (cfiCond138) DPL0 load(1, XDATA, add(CFA_XSP16, literal(-2)))
        CFI (cfiCond138) DPH0 load(1, XDATA, add(CFA_XSP16, literal(-1)))
        CFI (cfiCond138) CFA_SP SP+0
        CFI (cfiCond138) CFA_XSP16 add(XSP16, 34)
        CFI Block cfiPicker139 Using cfiCommon1
        CFI (cfiPicker139) NoFunction
        CFI (cfiPicker139) Picker
        MOVX    @DPTR,A
        CFI EndBlock cfiCond137
        CFI EndBlock cfiCond138
        CFI EndBlock cfiPicker139
        REQUIRE ??Subroutine67_0
        ; // Fall through to label ??Subroutine67_0

        RSEG BANKED_CODE:CODE:NOROOT(0)
??Subroutine67_0:
        CFI Block cfiCond140 Using cfiCommon0
        CFI NoFunction
        CFI Conditional ??CrossCallReturnLabel_130
        CFI R6 load(1, XDATA, add(CFA_XSP16, literal(-16)))
        CFI VB load(1, XDATA, add(CFA_XSP16, literal(-15)))
        CFI V0 load(1, XDATA, add(CFA_XSP16, literal(-14)))
        CFI V1 load(1, XDATA, add(CFA_XSP16, literal(-13)))
        CFI V2 load(1, XDATA, add(CFA_XSP16, literal(-12)))
        CFI V3 load(1, XDATA, add(CFA_XSP16, literal(-11)))
        CFI V4 load(1, XDATA, add(CFA_XSP16, literal(-10)))
        CFI V5 load(1, XDATA, add(CFA_XSP16, literal(-9)))
        CFI V6 load(1, XDATA, add(CFA_XSP16, literal(-8)))
        CFI V7 load(1, XDATA, add(CFA_XSP16, literal(-7)))
        CFI R7 load(1, XDATA, add(CFA_XSP16, literal(-6)))
        CFI ?RET_LOW load(1, XDATA, add(CFA_XSP16, literal(-5)))
        CFI ?RET_HIGH load(1, XDATA, add(CFA_XSP16, literal(-4)))
        CFI ?BRET_EXT load(1, XDATA, add(CFA_XSP16, literal(-3)))
        CFI DPL0 load(1, XDATA, add(CFA_XSP16, literal(-2)))
        CFI DPH0 load(1, XDATA, add(CFA_XSP16, literal(-1)))
        CFI CFA_SP SP+0
        CFI CFA_XSP16 add(XSP16, 35)
        CFI Block cfiCond141 Using cfiCommon0
        CFI (cfiCond141) NoFunction
        CFI (cfiCond141) Conditional ??CrossCallReturnLabel_124
        CFI (cfiCond141) R6 load(1, XDATA, add(CFA_XSP16, literal(-16)))
        CFI (cfiCond141) VB load(1, XDATA, add(CFA_XSP16, literal(-15)))
        CFI (cfiCond141) V0 load(1, XDATA, add(CFA_XSP16, literal(-14)))
        CFI (cfiCond141) V1 load(1, XDATA, add(CFA_XSP16, literal(-13)))
        CFI (cfiCond141) V2 load(1, XDATA, add(CFA_XSP16, literal(-12)))
        CFI (cfiCond141) V3 load(1, XDATA, add(CFA_XSP16, literal(-11)))
        CFI (cfiCond141) V4 load(1, XDATA, add(CFA_XSP16, literal(-10)))
        CFI (cfiCond141) V5 load(1, XDATA, add(CFA_XSP16, literal(-9)))
        CFI (cfiCond141) V6 load(1, XDATA, add(CFA_XSP16, literal(-8)))
        CFI (cfiCond141) V7 load(1, XDATA, add(CFA_XSP16, literal(-7)))
        CFI (cfiCond141) R7 load(1, XDATA, add(CFA_XSP16, literal(-6)))
        CFI (cfiCond141) ?RET_LOW load(1, XDATA, add(CFA_XSP16, literal(-5)))
        CFI (cfiCond141) ?RET_HIGH load(1, XDATA, add(CFA_XSP16, literal(-4)))
        CFI (cfiCond141) ?BRET_EXT load(1, XDATA, add(CFA_XSP16, literal(-3)))
        CFI (cfiCond141) DPL0 load(1, XDATA, add(CFA_XSP16, literal(-2)))
        CFI (cfiCond141) DPH0 load(1, XDATA, add(CFA_XSP16, literal(-1)))
        CFI (cfiCond141) CFA_SP SP+0
        CFI (cfiCond141) CFA_XSP16 add(XSP16, 35)
        CFI Block cfiCond142 Using cfiCommon0
        CFI (cfiCond142) NoFunction
        CFI (cfiCond142) Conditional ??CrossCallReturnLabel_125
        CFI (cfiCond142) R6 load(1, XDATA, add(CFA_XSP16, literal(-16)))
        CFI (cfiCond142) VB load(1, XDATA, add(CFA_XSP16, literal(-15)))
        CFI (cfiCond142) V0 load(1, XDATA, add(CFA_XSP16, literal(-14)))
        CFI (cfiCond142) V1 load(1, XDATA, add(CFA_XSP16, literal(-13)))
        CFI (cfiCond142) V2 load(1, XDATA, add(CFA_XSP16, literal(-12)))
        CFI (cfiCond142) V3 load(1, XDATA, add(CFA_XSP16, literal(-11)))
        CFI (cfiCond142) V4 load(1, XDATA, add(CFA_XSP16, literal(-10)))
        CFI (cfiCond142) V5 load(1, XDATA, add(CFA_XSP16, literal(-9)))
        CFI (cfiCond142) V6 load(1, XDATA, add(CFA_XSP16, literal(-8)))
        CFI (cfiCond142) V7 load(1, XDATA, add(CFA_XSP16, literal(-7)))
        CFI (cfiCond142) R7 load(1, XDATA, add(CFA_XSP16, literal(-6)))
        CFI (cfiCond142) ?RET_LOW load(1, XDATA, add(CFA_XSP16, literal(-5)))
        CFI (cfiCond142) ?RET_HIGH load(1, XDATA, add(CFA_XSP16, literal(-4)))
        CFI (cfiCond142) ?BRET_EXT load(1, XDATA, add(CFA_XSP16, literal(-3)))
        CFI (cfiCond142) DPL0 load(1, XDATA, add(CFA_XSP16, literal(-2)))
        CFI (cfiCond142) DPH0 load(1, XDATA, add(CFA_XSP16, literal(-1)))
        CFI (cfiCond142) CFA_SP SP+0
        CFI (cfiCond142) CFA_XSP16 add(XSP16, 34)
        CFI Block cfiPicker143 Using cfiCommon1
        CFI (cfiPicker143) NoFunction
        CFI (cfiPicker143) Picker
        MOV     A,?V0 + 0
        ADD     A,#0x2
        MOV     ?V0 + 0,A
        MOV     A,?V0 + 1
        CFI EndBlock cfiCond140
        CFI EndBlock cfiCond141
        CFI EndBlock cfiCond142
        CFI EndBlock cfiPicker143
        REQUIRE ??Subroutine68_0
        ; // Fall through to label ??Subroutine68_0

        RSEG BANKED_CODE:CODE:NOROOT(0)
??Subroutine68_0:
        CFI Block cfiCond144 Using cfiCommon0
        CFI NoFunction
        CFI Conditional ??CrossCallReturnLabel_126
        CFI R6 load(1, XDATA, add(CFA_XSP16, literal(-16)))
        CFI VB load(1, XDATA, add(CFA_XSP16, literal(-15)))
        CFI V0 load(1, XDATA, add(CFA_XSP16, literal(-14)))
        CFI V1 load(1, XDATA, add(CFA_XSP16, literal(-13)))
        CFI V2 load(1, XDATA, add(CFA_XSP16, literal(-12)))
        CFI V3 load(1, XDATA, add(CFA_XSP16, literal(-11)))
        CFI V4 load(1, XDATA, add(CFA_XSP16, literal(-10)))
        CFI V5 load(1, XDATA, add(CFA_XSP16, literal(-9)))
        CFI V6 load(1, XDATA, add(CFA_XSP16, literal(-8)))
        CFI V7 load(1, XDATA, add(CFA_XSP16, literal(-7)))
        CFI R7 load(1, XDATA, add(CFA_XSP16, literal(-6)))
        CFI ?RET_LOW load(1, XDATA, add(CFA_XSP16, literal(-5)))
        CFI ?RET_HIGH load(1, XDATA, add(CFA_XSP16, literal(-4)))
        CFI ?BRET_EXT load(1, XDATA, add(CFA_XSP16, literal(-3)))
        CFI DPL0 load(1, XDATA, add(CFA_XSP16, literal(-2)))
        CFI DPH0 load(1, XDATA, add(CFA_XSP16, literal(-1)))
        CFI CFA_SP SP+0
        CFI CFA_XSP16 add(XSP16, 35)
        CFI Block cfiCond145 Using cfiCommon0
        CFI (cfiCond145) NoFunction
        CFI (cfiCond145) Conditional ??CrossCallReturnLabel_127
        CFI (cfiCond145) R6 load(1, XDATA, add(CFA_XSP16, literal(-16)))
        CFI (cfiCond145) VB load(1, XDATA, add(CFA_XSP16, literal(-15)))
        CFI (cfiCond145) V0 load(1, XDATA, add(CFA_XSP16, literal(-14)))
        CFI (cfiCond145) V1 load(1, XDATA, add(CFA_XSP16, literal(-13)))
        CFI (cfiCond145) V2 load(1, XDATA, add(CFA_XSP16, literal(-12)))
        CFI (cfiCond145) V3 load(1, XDATA, add(CFA_XSP16, literal(-11)))
        CFI (cfiCond145) V4 load(1, XDATA, add(CFA_XSP16, literal(-10)))
        CFI (cfiCond145) V5 load(1, XDATA, add(CFA_XSP16, literal(-9)))
        CFI (cfiCond145) V6 load(1, XDATA, add(CFA_XSP16, literal(-8)))
        CFI (cfiCond145) V7 load(1, XDATA, add(CFA_XSP16, literal(-7)))
        CFI (cfiCond145) R7 load(1, XDATA, add(CFA_XSP16, literal(-6)))
        CFI (cfiCond145) ?RET_LOW load(1, XDATA, add(CFA_XSP16, literal(-5)))
        CFI (cfiCond145) ?RET_HIGH load(1, XDATA, add(CFA_XSP16, literal(-4)))
        CFI (cfiCond145) ?BRET_EXT load(1, XDATA, add(CFA_XSP16, literal(-3)))
        CFI (cfiCond145) DPL0 load(1, XDATA, add(CFA_XSP16, literal(-2)))
        CFI (cfiCond145) DPH0 load(1, XDATA, add(CFA_XSP16, literal(-1)))
        CFI (cfiCond145) CFA_SP SP+0
        CFI (cfiCond145) CFA_XSP16 add(XSP16, 34)
        CFI Block cfiCond146 Using cfiCommon0
        CFI (cfiCond146) NoFunction
        CFI (cfiCond146) Conditional ??CrossCallReturnLabel_128
        CFI (cfiCond146) R6 load(1, XDATA, add(CFA_XSP16, literal(-16)))
        CFI (cfiCond146) VB load(1, XDATA, add(CFA_XSP16, literal(-15)))
        CFI (cfiCond146) V0 load(1, XDATA, add(CFA_XSP16, literal(-14)))
        CFI (cfiCond146) V1 load(1, XDATA, add(CFA_XSP16, literal(-13)))
        CFI (cfiCond146) V2 load(1, XDATA, add(CFA_XSP16, literal(-12)))
        CFI (cfiCond146) V3 load(1, XDATA, add(CFA_XSP16, literal(-11)))
        CFI (cfiCond146) V4 load(1, XDATA, add(CFA_XSP16, literal(-10)))
        CFI (cfiCond146) V5 load(1, XDATA, add(CFA_XSP16, literal(-9)))
        CFI (cfiCond146) V6 load(1, XDATA, add(CFA_XSP16, literal(-8)))
        CFI (cfiCond146) V7 load(1, XDATA, add(CFA_XSP16, literal(-7)))
        CFI (cfiCond146) R7 load(1, XDATA, add(CFA_XSP16, literal(-6)))
        CFI (cfiCond146) ?RET_LOW load(1, XDATA, add(CFA_XSP16, literal(-5)))
        CFI (cfiCond146) ?RET_HIGH load(1, XDATA, add(CFA_XSP16, literal(-4)))
        CFI (cfiCond146) ?BRET_EXT load(1, XDATA, add(CFA_XSP16, literal(-3)))
        CFI (cfiCond146) DPL0 load(1, XDATA, add(CFA_XSP16, literal(-2)))
        CFI (cfiCond146) DPH0 load(1, XDATA, add(CFA_XSP16, literal(-1)))
        CFI (cfiCond146) CFA_SP SP+0
        CFI (cfiCond146) CFA_XSP16 add(XSP16, 25)
        CFI Block cfiCond147 Using cfiCommon0
        CFI (cfiCond147) NoFunction
        CFI (cfiCond147) Conditional ??CrossCallReturnLabel_129
        CFI (cfiCond147) R6 load(1, XDATA, add(CFA_XSP16, literal(-16)))
        CFI (cfiCond147) VB load(1, XDATA, add(CFA_XSP16, literal(-15)))
        CFI (cfiCond147) V0 load(1, XDATA, add(CFA_XSP16, literal(-14)))
        CFI (cfiCond147) V1 load(1, XDATA, add(CFA_XSP16, literal(-13)))
        CFI (cfiCond147) V2 load(1, XDATA, add(CFA_XSP16, literal(-12)))
        CFI (cfiCond147) V3 load(1, XDATA, add(CFA_XSP16, literal(-11)))
        CFI (cfiCond147) V4 load(1, XDATA, add(CFA_XSP16, literal(-10)))
        CFI (cfiCond147) V5 load(1, XDATA, add(CFA_XSP16, literal(-9)))
        CFI (cfiCond147) V6 load(1, XDATA, add(CFA_XSP16, literal(-8)))
        CFI (cfiCond147) V7 load(1, XDATA, add(CFA_XSP16, literal(-7)))
        CFI (cfiCond147) R7 load(1, XDATA, add(CFA_XSP16, literal(-6)))
        CFI (cfiCond147) ?RET_LOW load(1, XDATA, add(CFA_XSP16, literal(-5)))
        CFI (cfiCond147) ?RET_HIGH load(1, XDATA, add(CFA_XSP16, literal(-4)))
        CFI (cfiCond147) ?BRET_EXT load(1, XDATA, add(CFA_XSP16, literal(-3)))
        CFI (cfiCond147) DPL0 load(1, XDATA, add(CFA_XSP16, literal(-2)))
        CFI (cfiCond147) DPH0 load(1, XDATA, add(CFA_XSP16, literal(-1)))
        CFI (cfiCond147) CFA_SP SP+0
        CFI (cfiCond147) CFA_XSP16 add(XSP16, 18)
        CFI Block cfiCond148 Using cfiCommon0
        CFI (cfiCond148) NoFunction
        CFI (cfiCond148) Conditional ??CrossCallReturnLabel_130
        CFI (cfiCond148) R6 load(1, XDATA, add(CFA_XSP16, literal(-16)))
        CFI (cfiCond148) VB load(1, XDATA, add(CFA_XSP16, literal(-15)))
        CFI (cfiCond148) V0 load(1, XDATA, add(CFA_XSP16, literal(-14)))
        CFI (cfiCond148) V1 load(1, XDATA, add(CFA_XSP16, literal(-13)))
        CFI (cfiCond148) V2 load(1, XDATA, add(CFA_XSP16, literal(-12)))
        CFI (cfiCond148) V3 load(1, XDATA, add(CFA_XSP16, literal(-11)))
        CFI (cfiCond148) V4 load(1, XDATA, add(CFA_XSP16, literal(-10)))
        CFI (cfiCond148) V5 load(1, XDATA, add(CFA_XSP16, literal(-9)))
        CFI (cfiCond148) V6 load(1, XDATA, add(CFA_XSP16, literal(-8)))
        CFI (cfiCond148) V7 load(1, XDATA, add(CFA_XSP16, literal(-7)))
        CFI (cfiCond148) R7 load(1, XDATA, add(CFA_XSP16, literal(-6)))
        CFI (cfiCond148) ?RET_LOW load(1, XDATA, add(CFA_XSP16, literal(-5)))
        CFI (cfiCond148) ?RET_HIGH load(1, XDATA, add(CFA_XSP16, literal(-4)))
        CFI (cfiCond148) ?BRET_EXT load(1, XDATA, add(CFA_XSP16, literal(-3)))
        CFI (cfiCond148) DPL0 load(1, XDATA, add(CFA_XSP16, literal(-2)))
        CFI (cfiCond148) DPH0 load(1, XDATA, add(CFA_XSP16, literal(-1)))
        CFI (cfiCond148) CFA_SP SP+0
        CFI (cfiCond148) CFA_XSP16 add(XSP16, 35)
        CFI Block cfiCond149 Using cfiCommon0
        CFI (cfiCond149) NoFunction
        CFI (cfiCond149) Conditional ??CrossCallReturnLabel_124
        CFI (cfiCond149) R6 load(1, XDATA, add(CFA_XSP16, literal(-16)))
        CFI (cfiCond149) VB load(1, XDATA, add(CFA_XSP16, literal(-15)))
        CFI (cfiCond149) V0 load(1, XDATA, add(CFA_XSP16, literal(-14)))
        CFI (cfiCond149) V1 load(1, XDATA, add(CFA_XSP16, literal(-13)))
        CFI (cfiCond149) V2 load(1, XDATA, add(CFA_XSP16, literal(-12)))
        CFI (cfiCond149) V3 load(1, XDATA, add(CFA_XSP16, literal(-11)))
        CFI (cfiCond149) V4 load(1, XDATA, add(CFA_XSP16, literal(-10)))
        CFI (cfiCond149) V5 load(1, XDATA, add(CFA_XSP16, literal(-9)))
        CFI (cfiCond149) V6 load(1, XDATA, add(CFA_XSP16, literal(-8)))
        CFI (cfiCond149) V7 load(1, XDATA, add(CFA_XSP16, literal(-7)))
        CFI (cfiCond149) R7 load(1, XDATA, add(CFA_XSP16, literal(-6)))
        CFI (cfiCond149) ?RET_LOW load(1, XDATA, add(CFA_XSP16, literal(-5)))
        CFI (cfiCond149) ?RET_HIGH load(1, XDATA, add(CFA_XSP16, literal(-4)))
        CFI (cfiCond149) ?BRET_EXT load(1, XDATA, add(CFA_XSP16, literal(-3)))
        CFI (cfiCond149) DPL0 load(1, XDATA, add(CFA_XSP16, literal(-2)))
        CFI (cfiCond149) DPH0 load(1, XDATA, add(CFA_XSP16, literal(-1)))
        CFI (cfiCond149) CFA_SP SP+0
        CFI (cfiCond149) CFA_XSP16 add(XSP16, 35)
        CFI Block cfiCond150 Using cfiCommon0
        CFI (cfiCond150) NoFunction
        CFI (cfiCond150) Conditional ??CrossCallReturnLabel_125
        CFI (cfiCond150) R6 load(1, XDATA, add(CFA_XSP16, literal(-16)))
        CFI (cfiCond150) VB load(1, XDATA, add(CFA_XSP16, literal(-15)))
        CFI (cfiCond150) V0 load(1, XDATA, add(CFA_XSP16, literal(-14)))
        CFI (cfiCond150) V1 load(1, XDATA, add(CFA_XSP16, literal(-13)))
        CFI (cfiCond150) V2 load(1, XDATA, add(CFA_XSP16, literal(-12)))
        CFI (cfiCond150) V3 load(1, XDATA, add(CFA_XSP16, literal(-11)))
        CFI (cfiCond150) V4 load(1, XDATA, add(CFA_XSP16, literal(-10)))
        CFI (cfiCond150) V5 load(1, XDATA, add(CFA_XSP16, literal(-9)))
        CFI (cfiCond150) V6 load(1, XDATA, add(CFA_XSP16, literal(-8)))
        CFI (cfiCond150) V7 load(1, XDATA, add(CFA_XSP16, literal(-7)))
        CFI (cfiCond150) R7 load(1, XDATA, add(CFA_XSP16, literal(-6)))
        CFI (cfiCond150) ?RET_LOW load(1, XDATA, add(CFA_XSP16, literal(-5)))
        CFI (cfiCond150) ?RET_HIGH load(1, XDATA, add(CFA_XSP16, literal(-4)))
        CFI (cfiCond150) ?BRET_EXT load(1, XDATA, add(CFA_XSP16, literal(-3)))
        CFI (cfiCond150) DPL0 load(1, XDATA, add(CFA_XSP16, literal(-2)))
        CFI (cfiCond150) DPH0 load(1, XDATA, add(CFA_XSP16, literal(-1)))
        CFI (cfiCond150) CFA_SP SP+0
        CFI (cfiCond150) CFA_XSP16 add(XSP16, 34)
        CFI Block cfiPicker151 Using cfiCommon1
        CFI (cfiPicker151) NoFunction
        CFI (cfiPicker151) Picker
        ADDC    A,#0x0
        MOV     ?V0 + 1,A
        RET
        CFI EndBlock cfiCond144
        CFI EndBlock cfiCond145
        CFI EndBlock cfiCond146
        CFI EndBlock cfiCond147
        CFI EndBlock cfiCond148
        CFI EndBlock cfiCond149
        CFI EndBlock cfiCond150
        CFI EndBlock cfiPicker151

        RSEG BANKED_CODE:CODE:NOROOT(0)
?Subroutine30:
        CFI Block cfiCond152 Using cfiCommon0
        CFI NoFunction
        CFI Conditional ??CrossCallReturnLabel_49
        CFI R6 load(1, XDATA, add(CFA_XSP16, literal(-16)))
        CFI VB load(1, XDATA, add(CFA_XSP16, literal(-15)))
        CFI V0 load(1, XDATA, add(CFA_XSP16, literal(-14)))
        CFI V1 load(1, XDATA, add(CFA_XSP16, literal(-13)))
        CFI V2 load(1, XDATA, add(CFA_XSP16, literal(-12)))
        CFI V3 load(1, XDATA, add(CFA_XSP16, literal(-11)))
        CFI V4 load(1, XDATA, add(CFA_XSP16, literal(-10)))
        CFI V5 load(1, XDATA, add(CFA_XSP16, literal(-9)))
        CFI V6 load(1, XDATA, add(CFA_XSP16, literal(-8)))
        CFI V7 load(1, XDATA, add(CFA_XSP16, literal(-7)))
        CFI R7 load(1, XDATA, add(CFA_XSP16, literal(-6)))
        CFI ?RET_LOW load(1, XDATA, add(CFA_XSP16, literal(-5)))
        CFI ?RET_HIGH load(1, XDATA, add(CFA_XSP16, literal(-4)))
        CFI ?BRET_EXT load(1, XDATA, add(CFA_XSP16, literal(-3)))
        CFI DPL0 load(1, XDATA, add(CFA_XSP16, literal(-2)))
        CFI DPH0 load(1, XDATA, add(CFA_XSP16, literal(-1)))
        CFI CFA_SP SP+0
        CFI CFA_XSP16 add(XSP16, 35)
        CFI Block cfiCond153 Using cfiCommon0
        CFI (cfiCond153) NoFunction
        CFI (cfiCond153) Conditional ??CrossCallReturnLabel_50
        CFI (cfiCond153) R6 load(1, XDATA, add(CFA_XSP16, literal(-16)))
        CFI (cfiCond153) VB load(1, XDATA, add(CFA_XSP16, literal(-15)))
        CFI (cfiCond153) V0 load(1, XDATA, add(CFA_XSP16, literal(-14)))
        CFI (cfiCond153) V1 load(1, XDATA, add(CFA_XSP16, literal(-13)))
        CFI (cfiCond153) V2 load(1, XDATA, add(CFA_XSP16, literal(-12)))
        CFI (cfiCond153) V3 load(1, XDATA, add(CFA_XSP16, literal(-11)))
        CFI (cfiCond153) V4 load(1, XDATA, add(CFA_XSP16, literal(-10)))
        CFI (cfiCond153) V5 load(1, XDATA, add(CFA_XSP16, literal(-9)))
        CFI (cfiCond153) V6 load(1, XDATA, add(CFA_XSP16, literal(-8)))
        CFI (cfiCond153) V7 load(1, XDATA, add(CFA_XSP16, literal(-7)))
        CFI (cfiCond153) R7 load(1, XDATA, add(CFA_XSP16, literal(-6)))
        CFI (cfiCond153) ?RET_LOW load(1, XDATA, add(CFA_XSP16, literal(-5)))
        CFI (cfiCond153) ?RET_HIGH load(1, XDATA, add(CFA_XSP16, literal(-4)))
        CFI (cfiCond153) ?BRET_EXT load(1, XDATA, add(CFA_XSP16, literal(-3)))
        CFI (cfiCond153) DPL0 load(1, XDATA, add(CFA_XSP16, literal(-2)))
        CFI (cfiCond153) DPH0 load(1, XDATA, add(CFA_XSP16, literal(-1)))
        CFI (cfiCond153) CFA_SP SP+0
        CFI (cfiCond153) CFA_XSP16 add(XSP16, 25)
        CFI Block cfiCond154 Using cfiCommon0
        CFI (cfiCond154) NoFunction
        CFI (cfiCond154) Conditional ??CrossCallReturnLabel_51
        CFI (cfiCond154) R6 load(1, XDATA, add(CFA_XSP16, literal(-16)))
        CFI (cfiCond154) VB load(1, XDATA, add(CFA_XSP16, literal(-15)))
        CFI (cfiCond154) V0 load(1, XDATA, add(CFA_XSP16, literal(-14)))
        CFI (cfiCond154) V1 load(1, XDATA, add(CFA_XSP16, literal(-13)))
        CFI (cfiCond154) V2 load(1, XDATA, add(CFA_XSP16, literal(-12)))
        CFI (cfiCond154) V3 load(1, XDATA, add(CFA_XSP16, literal(-11)))
        CFI (cfiCond154) V4 load(1, XDATA, add(CFA_XSP16, literal(-10)))
        CFI (cfiCond154) V5 load(1, XDATA, add(CFA_XSP16, literal(-9)))
        CFI (cfiCond154) V6 load(1, XDATA, add(CFA_XSP16, literal(-8)))
        CFI (cfiCond154) V7 load(1, XDATA, add(CFA_XSP16, literal(-7)))
        CFI (cfiCond154) R7 load(1, XDATA, add(CFA_XSP16, literal(-6)))
        CFI (cfiCond154) ?RET_LOW load(1, XDATA, add(CFA_XSP16, literal(-5)))
        CFI (cfiCond154) ?RET_HIGH load(1, XDATA, add(CFA_XSP16, literal(-4)))
        CFI (cfiCond154) ?BRET_EXT load(1, XDATA, add(CFA_XSP16, literal(-3)))
        CFI (cfiCond154) DPL0 load(1, XDATA, add(CFA_XSP16, literal(-2)))
        CFI (cfiCond154) DPH0 load(1, XDATA, add(CFA_XSP16, literal(-1)))
        CFI (cfiCond154) CFA_SP SP+0
        CFI (cfiCond154) CFA_XSP16 add(XSP16, 21)
        CFI Block cfiPicker155 Using cfiCommon1
        CFI (cfiPicker155) NoFunction
        CFI (cfiPicker155) Picker
        ADDC    A,#0x0
        MOV     R3,A
        LCALL   ??osal_mem_alloc?relay
        RET
        CFI EndBlock cfiCond152
        CFI EndBlock cfiCond153
        CFI EndBlock cfiCond154
        CFI EndBlock cfiPicker155

        RSEG BANKED_CODE:CODE:NOROOT(0)
?Subroutine24:
        CFI Block cfiCond156 Using cfiCommon0
        CFI NoFunction
        CFI Conditional ??CrossCallReturnLabel_40
        CFI R6 load(1, XDATA, add(CFA_XSP16, literal(-16)))
        CFI VB load(1, XDATA, add(CFA_XSP16, literal(-15)))
        CFI V0 load(1, XDATA, add(CFA_XSP16, literal(-14)))
        CFI V1 load(1, XDATA, add(CFA_XSP16, literal(-13)))
        CFI V2 load(1, XDATA, add(CFA_XSP16, literal(-12)))
        CFI V3 load(1, XDATA, add(CFA_XSP16, literal(-11)))
        CFI V4 load(1, XDATA, add(CFA_XSP16, literal(-10)))
        CFI V5 load(1, XDATA, add(CFA_XSP16, literal(-9)))
        CFI V6 load(1, XDATA, add(CFA_XSP16, literal(-8)))
        CFI V7 load(1, XDATA, add(CFA_XSP16, literal(-7)))
        CFI R7 load(1, XDATA, add(CFA_XSP16, literal(-6)))
        CFI ?RET_LOW load(1, XDATA, add(CFA_XSP16, literal(-5)))
        CFI ?RET_HIGH load(1, XDATA, add(CFA_XSP16, literal(-4)))
        CFI ?BRET_EXT load(1, XDATA, add(CFA_XSP16, literal(-3)))
        CFI DPL0 load(1, XDATA, add(CFA_XSP16, literal(-2)))
        CFI DPH0 load(1, XDATA, add(CFA_XSP16, literal(-1)))
        CFI CFA_SP SP+0
        CFI CFA_XSP16 add(XSP16, 25)
        CFI Block cfiCond157 Using cfiCommon0
        CFI (cfiCond157) NoFunction
        CFI (cfiCond157) Conditional ??CrossCallReturnLabel_41
        CFI (cfiCond157) R6 load(1, XDATA, add(CFA_XSP16, literal(-16)))
        CFI (cfiCond157) VB load(1, XDATA, add(CFA_XSP16, literal(-15)))
        CFI (cfiCond157) V0 load(1, XDATA, add(CFA_XSP16, literal(-14)))
        CFI (cfiCond157) V1 load(1, XDATA, add(CFA_XSP16, literal(-13)))
        CFI (cfiCond157) V2 load(1, XDATA, add(CFA_XSP16, literal(-12)))
        CFI (cfiCond157) V3 load(1, XDATA, add(CFA_XSP16, literal(-11)))
        CFI (cfiCond157) V4 load(1, XDATA, add(CFA_XSP16, literal(-10)))
        CFI (cfiCond157) V5 load(1, XDATA, add(CFA_XSP16, literal(-9)))
        CFI (cfiCond157) V6 load(1, XDATA, add(CFA_XSP16, literal(-8)))
        CFI (cfiCond157) V7 load(1, XDATA, add(CFA_XSP16, literal(-7)))
        CFI (cfiCond157) R7 load(1, XDATA, add(CFA_XSP16, literal(-6)))
        CFI (cfiCond157) ?RET_LOW load(1, XDATA, add(CFA_XSP16, literal(-5)))
        CFI (cfiCond157) ?RET_HIGH load(1, XDATA, add(CFA_XSP16, literal(-4)))
        CFI (cfiCond157) ?BRET_EXT load(1, XDATA, add(CFA_XSP16, literal(-3)))
        CFI (cfiCond157) DPL0 load(1, XDATA, add(CFA_XSP16, literal(-2)))
        CFI (cfiCond157) DPH0 load(1, XDATA, add(CFA_XSP16, literal(-1)))
        CFI (cfiCond157) CFA_SP SP+0
        CFI (cfiCond157) CFA_XSP16 add(XSP16, 25)
        CFI Block cfiPicker158 Using cfiCommon1
        CFI (cfiPicker158) NoFunction
        CFI (cfiPicker158) Picker
        MOV     DPL,?V0 + 0
        MOV     DPH,?V0 + 1
        MOVX    A,@DPTR
        MOV     ?V0 + 0,A
        INC     DPTR
        MOVX    A,@DPTR
        MOV     ?V0 + 1,A
        MOV     R0,#?V0 + 0
        RET
        CFI EndBlock cfiCond156
        CFI EndBlock cfiCond157
        CFI EndBlock cfiPicker158

        RSEG BANKED_CODE:CODE:NOROOT(0)
?Subroutine21:
        CFI Block cfiCond159 Using cfiCommon0
        CFI NoFunction
        CFI Conditional ??CrossCallReturnLabel_134
        CFI R6 load(1, XDATA, add(CFA_XSP16, literal(-16)))
        CFI VB load(1, XDATA, add(CFA_XSP16, literal(-15)))
        CFI V0 load(1, XDATA, add(CFA_XSP16, literal(-14)))
        CFI V1 load(1, XDATA, add(CFA_XSP16, literal(-13)))
        CFI V2 load(1, XDATA, add(CFA_XSP16, literal(-12)))
        CFI V3 load(1, XDATA, add(CFA_XSP16, literal(-11)))
        CFI V4 load(1, XDATA, add(CFA_XSP16, literal(-10)))
        CFI V5 load(1, XDATA, add(CFA_XSP16, literal(-9)))
        CFI V6 load(1, XDATA, add(CFA_XSP16, literal(-8)))
        CFI V7 load(1, XDATA, add(CFA_XSP16, literal(-7)))
        CFI R7 load(1, XDATA, add(CFA_XSP16, literal(-6)))
        CFI ?RET_LOW load(1, XDATA, add(CFA_XSP16, literal(-5)))
        CFI ?RET_HIGH load(1, XDATA, add(CFA_XSP16, literal(-4)))
        CFI ?BRET_EXT load(1, XDATA, add(CFA_XSP16, literal(-3)))
        CFI DPL0 load(1, XDATA, add(CFA_XSP16, literal(-2)))
        CFI DPH0 load(1, XDATA, add(CFA_XSP16, literal(-1)))
        CFI CFA_SP SP+0
        CFI CFA_XSP16 add(XSP16, 25)
        CFI Block cfiCond160 Using cfiCommon0
        CFI (cfiCond160) NoFunction
        CFI (cfiCond160) Conditional ??CrossCallReturnLabel_135
        CFI (cfiCond160) R6 load(1, XDATA, add(CFA_XSP16, literal(-16)))
        CFI (cfiCond160) VB load(1, XDATA, add(CFA_XSP16, literal(-15)))
        CFI (cfiCond160) V0 load(1, XDATA, add(CFA_XSP16, literal(-14)))
        CFI (cfiCond160) V1 load(1, XDATA, add(CFA_XSP16, literal(-13)))
        CFI (cfiCond160) V2 load(1, XDATA, add(CFA_XSP16, literal(-12)))
        CFI (cfiCond160) V3 load(1, XDATA, add(CFA_XSP16, literal(-11)))
        CFI (cfiCond160) V4 load(1, XDATA, add(CFA_XSP16, literal(-10)))
        CFI (cfiCond160) V5 load(1, XDATA, add(CFA_XSP16, literal(-9)))
        CFI (cfiCond160) V6 load(1, XDATA, add(CFA_XSP16, literal(-8)))
        CFI (cfiCond160) V7 load(1, XDATA, add(CFA_XSP16, literal(-7)))
        CFI (cfiCond160) R7 load(1, XDATA, add(CFA_XSP16, literal(-6)))
        CFI (cfiCond160) ?RET_LOW load(1, XDATA, add(CFA_XSP16, literal(-5)))
        CFI (cfiCond160) ?RET_HIGH load(1, XDATA, add(CFA_XSP16, literal(-4)))
        CFI (cfiCond160) ?BRET_EXT load(1, XDATA, add(CFA_XSP16, literal(-3)))
        CFI (cfiCond160) DPL0 load(1, XDATA, add(CFA_XSP16, literal(-2)))
        CFI (cfiCond160) DPH0 load(1, XDATA, add(CFA_XSP16, literal(-1)))
        CFI (cfiCond160) CFA_SP SP+0
        CFI (cfiCond160) CFA_XSP16 add(XSP16, 21)
        CFI Block cfiPicker161 Using cfiCommon1
        CFI (cfiPicker161) NoFunction
        CFI (cfiPicker161) Picker
        MOV     DPTR,#pMtAfInMsgList
        CFI EndBlock cfiCond159
        CFI EndBlock cfiCond160
        CFI EndBlock cfiPicker161
        REQUIRE ??Subroutine69_0
        ; // Fall through to label ??Subroutine69_0

        RSEG BANKED_CODE:CODE:NOROOT(0)
??Subroutine69_0:
        CFI Block cfiCond162 Using cfiCommon0
        CFI NoFunction
        CFI Conditional ??CrossCallReturnLabel_131
        CFI R6 load(1, XDATA, add(CFA_XSP16, literal(-16)))
        CFI VB load(1, XDATA, add(CFA_XSP16, literal(-15)))
        CFI V0 load(1, XDATA, add(CFA_XSP16, literal(-14)))
        CFI V1 load(1, XDATA, add(CFA_XSP16, literal(-13)))
        CFI V2 load(1, XDATA, add(CFA_XSP16, literal(-12)))
        CFI V3 load(1, XDATA, add(CFA_XSP16, literal(-11)))
        CFI V4 load(1, XDATA, add(CFA_XSP16, literal(-10)))
        CFI V5 load(1, XDATA, add(CFA_XSP16, literal(-9)))
        CFI V6 load(1, XDATA, add(CFA_XSP16, literal(-8)))
        CFI V7 load(1, XDATA, add(CFA_XSP16, literal(-7)))
        CFI R7 load(1, XDATA, add(CFA_XSP16, literal(-6)))
        CFI ?RET_LOW load(1, XDATA, add(CFA_XSP16, literal(-5)))
        CFI ?RET_HIGH load(1, XDATA, add(CFA_XSP16, literal(-4)))
        CFI ?BRET_EXT load(1, XDATA, add(CFA_XSP16, literal(-3)))
        CFI DPL0 load(1, XDATA, add(CFA_XSP16, literal(-2)))
        CFI DPH0 load(1, XDATA, add(CFA_XSP16, literal(-1)))
        CFI CFA_SP SP+0
        CFI CFA_XSP16 add(XSP16, 35)
        CFI Block cfiCond163 Using cfiCommon0
        CFI (cfiCond163) NoFunction
        CFI (cfiCond163) Conditional ??CrossCallReturnLabel_132
        CFI (cfiCond163) R6 load(1, XDATA, add(CFA_XSP16, literal(-16)))
        CFI (cfiCond163) VB load(1, XDATA, add(CFA_XSP16, literal(-15)))
        CFI (cfiCond163) V0 load(1, XDATA, add(CFA_XSP16, literal(-14)))
        CFI (cfiCond163) V1 load(1, XDATA, add(CFA_XSP16, literal(-13)))
        CFI (cfiCond163) V2 load(1, XDATA, add(CFA_XSP16, literal(-12)))
        CFI (cfiCond163) V3 load(1, XDATA, add(CFA_XSP16, literal(-11)))
        CFI (cfiCond163) V4 load(1, XDATA, add(CFA_XSP16, literal(-10)))
        CFI (cfiCond163) V5 load(1, XDATA, add(CFA_XSP16, literal(-9)))
        CFI (cfiCond163) V6 load(1, XDATA, add(CFA_XSP16, literal(-8)))
        CFI (cfiCond163) V7 load(1, XDATA, add(CFA_XSP16, literal(-7)))
        CFI (cfiCond163) R7 load(1, XDATA, add(CFA_XSP16, literal(-6)))
        CFI (cfiCond163) ?RET_LOW load(1, XDATA, add(CFA_XSP16, literal(-5)))
        CFI (cfiCond163) ?RET_HIGH load(1, XDATA, add(CFA_XSP16, literal(-4)))
        CFI (cfiCond163) ?BRET_EXT load(1, XDATA, add(CFA_XSP16, literal(-3)))
        CFI (cfiCond163) DPL0 load(1, XDATA, add(CFA_XSP16, literal(-2)))
        CFI (cfiCond163) DPH0 load(1, XDATA, add(CFA_XSP16, literal(-1)))
        CFI (cfiCond163) CFA_SP SP+0
        CFI (cfiCond163) CFA_XSP16 add(XSP16, 35)
        CFI Block cfiCond164 Using cfiCommon0
        CFI (cfiCond164) NoFunction
        CFI (cfiCond164) Conditional ??CrossCallReturnLabel_133
        CFI (cfiCond164) R6 load(1, XDATA, add(CFA_XSP16, literal(-16)))
        CFI (cfiCond164) VB load(1, XDATA, add(CFA_XSP16, literal(-15)))
        CFI (cfiCond164) V0 load(1, XDATA, add(CFA_XSP16, literal(-14)))
        CFI (cfiCond164) V1 load(1, XDATA, add(CFA_XSP16, literal(-13)))
        CFI (cfiCond164) V2 load(1, XDATA, add(CFA_XSP16, literal(-12)))
        CFI (cfiCond164) V3 load(1, XDATA, add(CFA_XSP16, literal(-11)))
        CFI (cfiCond164) V4 load(1, XDATA, add(CFA_XSP16, literal(-10)))
        CFI (cfiCond164) V5 load(1, XDATA, add(CFA_XSP16, literal(-9)))
        CFI (cfiCond164) V6 load(1, XDATA, add(CFA_XSP16, literal(-8)))
        CFI (cfiCond164) V7 load(1, XDATA, add(CFA_XSP16, literal(-7)))
        CFI (cfiCond164) R7 load(1, XDATA, add(CFA_XSP16, literal(-6)))
        CFI (cfiCond164) ?RET_LOW load(1, XDATA, add(CFA_XSP16, literal(-5)))
        CFI (cfiCond164) ?RET_HIGH load(1, XDATA, add(CFA_XSP16, literal(-4)))
        CFI (cfiCond164) ?BRET_EXT load(1, XDATA, add(CFA_XSP16, literal(-3)))
        CFI (cfiCond164) DPL0 load(1, XDATA, add(CFA_XSP16, literal(-2)))
        CFI (cfiCond164) DPH0 load(1, XDATA, add(CFA_XSP16, literal(-1)))
        CFI (cfiCond164) CFA_SP SP+0
        CFI (cfiCond164) CFA_XSP16 add(XSP16, 34)
        CFI Block cfiCond165 Using cfiCommon0
        CFI (cfiCond165) NoFunction
        CFI (cfiCond165) Conditional ??CrossCallReturnLabel_134
        CFI (cfiCond165) R6 load(1, XDATA, add(CFA_XSP16, literal(-16)))
        CFI (cfiCond165) VB load(1, XDATA, add(CFA_XSP16, literal(-15)))
        CFI (cfiCond165) V0 load(1, XDATA, add(CFA_XSP16, literal(-14)))
        CFI (cfiCond165) V1 load(1, XDATA, add(CFA_XSP16, literal(-13)))
        CFI (cfiCond165) V2 load(1, XDATA, add(CFA_XSP16, literal(-12)))
        CFI (cfiCond165) V3 load(1, XDATA, add(CFA_XSP16, literal(-11)))
        CFI (cfiCond165) V4 load(1, XDATA, add(CFA_XSP16, literal(-10)))
        CFI (cfiCond165) V5 load(1, XDATA, add(CFA_XSP16, literal(-9)))
        CFI (cfiCond165) V6 load(1, XDATA, add(CFA_XSP16, literal(-8)))
        CFI (cfiCond165) V7 load(1, XDATA, add(CFA_XSP16, literal(-7)))
        CFI (cfiCond165) R7 load(1, XDATA, add(CFA_XSP16, literal(-6)))
        CFI (cfiCond165) ?RET_LOW load(1, XDATA, add(CFA_XSP16, literal(-5)))
        CFI (cfiCond165) ?RET_HIGH load(1, XDATA, add(CFA_XSP16, literal(-4)))
        CFI (cfiCond165) ?BRET_EXT load(1, XDATA, add(CFA_XSP16, literal(-3)))
        CFI (cfiCond165) DPL0 load(1, XDATA, add(CFA_XSP16, literal(-2)))
        CFI (cfiCond165) DPH0 load(1, XDATA, add(CFA_XSP16, literal(-1)))
        CFI (cfiCond165) CFA_SP SP+0
        CFI (cfiCond165) CFA_XSP16 add(XSP16, 25)
        CFI Block cfiCond166 Using cfiCommon0
        CFI (cfiCond166) NoFunction
        CFI (cfiCond166) Conditional ??CrossCallReturnLabel_135
        CFI (cfiCond166) R6 load(1, XDATA, add(CFA_XSP16, literal(-16)))
        CFI (cfiCond166) VB load(1, XDATA, add(CFA_XSP16, literal(-15)))
        CFI (cfiCond166) V0 load(1, XDATA, add(CFA_XSP16, literal(-14)))
        CFI (cfiCond166) V1 load(1, XDATA, add(CFA_XSP16, literal(-13)))
        CFI (cfiCond166) V2 load(1, XDATA, add(CFA_XSP16, literal(-12)))
        CFI (cfiCond166) V3 load(1, XDATA, add(CFA_XSP16, literal(-11)))
        CFI (cfiCond166) V4 load(1, XDATA, add(CFA_XSP16, literal(-10)))
        CFI (cfiCond166) V5 load(1, XDATA, add(CFA_XSP16, literal(-9)))
        CFI (cfiCond166) V6 load(1, XDATA, add(CFA_XSP16, literal(-8)))
        CFI (cfiCond166) V7 load(1, XDATA, add(CFA_XSP16, literal(-7)))
        CFI (cfiCond166) R7 load(1, XDATA, add(CFA_XSP16, literal(-6)))
        CFI (cfiCond166) ?RET_LOW load(1, XDATA, add(CFA_XSP16, literal(-5)))
        CFI (cfiCond166) ?RET_HIGH load(1, XDATA, add(CFA_XSP16, literal(-4)))
        CFI (cfiCond166) ?BRET_EXT load(1, XDATA, add(CFA_XSP16, literal(-3)))
        CFI (cfiCond166) DPL0 load(1, XDATA, add(CFA_XSP16, literal(-2)))
        CFI (cfiCond166) DPH0 load(1, XDATA, add(CFA_XSP16, literal(-1)))
        CFI (cfiCond166) CFA_SP SP+0
        CFI (cfiCond166) CFA_XSP16 add(XSP16, 21)
        CFI Block cfiPicker167 Using cfiCommon1
        CFI (cfiPicker167) NoFunction
        CFI (cfiPicker167) Picker
        LCALL   ?Subroutine58 & 0xFFFF
??CrossCallReturnLabel_141:
        MOV     R3,A
        RET
        CFI EndBlock cfiCond162
        CFI EndBlock cfiCond163
        CFI EndBlock cfiCond164
        CFI EndBlock cfiCond165
        CFI EndBlock cfiCond166
        CFI EndBlock cfiPicker167

        RSEG BANKED_CODE:CODE:NOROOT(0)
?Subroutine16:
        CFI Block cfiCond168 Using cfiCommon0
        CFI NoFunction
        CFI Conditional ??CrossCallReturnLabel_21
        CFI R6 load(1, XDATA, add(CFA_XSP16, literal(-9)))
        CFI VB load(1, XDATA, add(CFA_XSP16, literal(-8)))
        CFI V0 load(1, XDATA, add(CFA_XSP16, literal(-7)))
        CFI R7 load(1, XDATA, add(CFA_XSP16, literal(-6)))
        CFI ?RET_LOW load(1, XDATA, add(CFA_XSP16, literal(-5)))
        CFI ?RET_HIGH load(1, XDATA, add(CFA_XSP16, literal(-4)))
        CFI ?BRET_EXT load(1, XDATA, add(CFA_XSP16, literal(-3)))
        CFI DPL0 load(1, XDATA, add(CFA_XSP16, literal(-2)))
        CFI DPH0 load(1, XDATA, add(CFA_XSP16, literal(-1)))
        CFI CFA_SP SP+0
        CFI CFA_XSP16 add(XSP16, 9)
        CFI Block cfiCond169 Using cfiCommon0
        CFI (cfiCond169) NoFunction
        CFI (cfiCond169) Conditional ??CrossCallReturnLabel_22
        CFI (cfiCond169) R6 load(1, XDATA, add(CFA_XSP16, literal(-16)))
        CFI (cfiCond169) VB load(1, XDATA, add(CFA_XSP16, literal(-15)))
        CFI (cfiCond169) V0 load(1, XDATA, add(CFA_XSP16, literal(-14)))
        CFI (cfiCond169) V1 load(1, XDATA, add(CFA_XSP16, literal(-13)))
        CFI (cfiCond169) V2 load(1, XDATA, add(CFA_XSP16, literal(-12)))
        CFI (cfiCond169) V3 load(1, XDATA, add(CFA_XSP16, literal(-11)))
        CFI (cfiCond169) V4 load(1, XDATA, add(CFA_XSP16, literal(-10)))
        CFI (cfiCond169) V5 load(1, XDATA, add(CFA_XSP16, literal(-9)))
        CFI (cfiCond169) V6 load(1, XDATA, add(CFA_XSP16, literal(-8)))
        CFI (cfiCond169) V7 load(1, XDATA, add(CFA_XSP16, literal(-7)))
        CFI (cfiCond169) R7 load(1, XDATA, add(CFA_XSP16, literal(-6)))
        CFI (cfiCond169) ?RET_LOW load(1, XDATA, add(CFA_XSP16, literal(-5)))
        CFI (cfiCond169) ?RET_HIGH load(1, XDATA, add(CFA_XSP16, literal(-4)))
        CFI (cfiCond169) ?BRET_EXT load(1, XDATA, add(CFA_XSP16, literal(-3)))
        CFI (cfiCond169) DPL0 load(1, XDATA, add(CFA_XSP16, literal(-2)))
        CFI (cfiCond169) DPH0 load(1, XDATA, add(CFA_XSP16, literal(-1)))
        CFI (cfiCond169) CFA_SP SP+0
        CFI (cfiCond169) CFA_XSP16 add(XSP16, 44)
        CFI Block cfiCond170 Using cfiCommon0
        CFI (cfiCond170) NoFunction
        CFI (cfiCond170) Conditional ??CrossCallReturnLabel_23
        CFI (cfiCond170) R6 load(1, XDATA, add(CFA_XSP16, literal(-16)))
        CFI (cfiCond170) VB load(1, XDATA, add(CFA_XSP16, literal(-15)))
        CFI (cfiCond170) V0 load(1, XDATA, add(CFA_XSP16, literal(-14)))
        CFI (cfiCond170) V1 load(1, XDATA, add(CFA_XSP16, literal(-13)))
        CFI (cfiCond170) V2 load(1, XDATA, add(CFA_XSP16, literal(-12)))
        CFI (cfiCond170) V3 load(1, XDATA, add(CFA_XSP16, literal(-11)))
        CFI (cfiCond170) V4 load(1, XDATA, add(CFA_XSP16, literal(-10)))
        CFI (cfiCond170) V5 load(1, XDATA, add(CFA_XSP16, literal(-9)))
        CFI (cfiCond170) V6 load(1, XDATA, add(CFA_XSP16, literal(-8)))
        CFI (cfiCond170) V7 load(1, XDATA, add(CFA_XSP16, literal(-7)))
        CFI (cfiCond170) R7 load(1, XDATA, add(CFA_XSP16, literal(-6)))
        CFI (cfiCond170) ?RET_LOW load(1, XDATA, add(CFA_XSP16, literal(-5)))
        CFI (cfiCond170) ?RET_HIGH load(1, XDATA, add(CFA_XSP16, literal(-4)))
        CFI (cfiCond170) ?BRET_EXT load(1, XDATA, add(CFA_XSP16, literal(-3)))
        CFI (cfiCond170) DPL0 load(1, XDATA, add(CFA_XSP16, literal(-2)))
        CFI (cfiCond170) DPH0 load(1, XDATA, add(CFA_XSP16, literal(-1)))
        CFI (cfiCond170) CFA_SP SP+0
        CFI (cfiCond170) CFA_XSP16 add(XSP16, 46)
        CFI Block cfiCond171 Using cfiCommon0
        CFI (cfiCond171) NoFunction
        CFI (cfiCond171) Conditional ??CrossCallReturnLabel_24
        CFI (cfiCond171) R6 load(1, XDATA, add(CFA_XSP16, literal(-16)))
        CFI (cfiCond171) VB load(1, XDATA, add(CFA_XSP16, literal(-15)))
        CFI (cfiCond171) V0 load(1, XDATA, add(CFA_XSP16, literal(-14)))
        CFI (cfiCond171) V1 load(1, XDATA, add(CFA_XSP16, literal(-13)))
        CFI (cfiCond171) V2 load(1, XDATA, add(CFA_XSP16, literal(-12)))
        CFI (cfiCond171) V3 load(1, XDATA, add(CFA_XSP16, literal(-11)))
        CFI (cfiCond171) V4 load(1, XDATA, add(CFA_XSP16, literal(-10)))
        CFI (cfiCond171) V5 load(1, XDATA, add(CFA_XSP16, literal(-9)))
        CFI (cfiCond171) V6 load(1, XDATA, add(CFA_XSP16, literal(-8)))
        CFI (cfiCond171) V7 load(1, XDATA, add(CFA_XSP16, literal(-7)))
        CFI (cfiCond171) R7 load(1, XDATA, add(CFA_XSP16, literal(-6)))
        CFI (cfiCond171) ?RET_LOW load(1, XDATA, add(CFA_XSP16, literal(-5)))
        CFI (cfiCond171) ?RET_HIGH load(1, XDATA, add(CFA_XSP16, literal(-4)))
        CFI (cfiCond171) ?BRET_EXT load(1, XDATA, add(CFA_XSP16, literal(-3)))
        CFI (cfiCond171) DPL0 load(1, XDATA, add(CFA_XSP16, literal(-2)))
        CFI (cfiCond171) DPH0 load(1, XDATA, add(CFA_XSP16, literal(-1)))
        CFI (cfiCond171) CFA_SP SP+0
        CFI (cfiCond171) CFA_XSP16 add(XSP16, 25)
        CFI Block cfiCond172 Using cfiCommon0
        CFI (cfiCond172) NoFunction
        CFI (cfiCond172) Conditional ??CrossCallReturnLabel_25
        CFI (cfiCond172) R6 load(1, XDATA, add(CFA_XSP16, literal(-16)))
        CFI (cfiCond172) VB load(1, XDATA, add(CFA_XSP16, literal(-15)))
        CFI (cfiCond172) V0 load(1, XDATA, add(CFA_XSP16, literal(-14)))
        CFI (cfiCond172) V1 load(1, XDATA, add(CFA_XSP16, literal(-13)))
        CFI (cfiCond172) V2 load(1, XDATA, add(CFA_XSP16, literal(-12)))
        CFI (cfiCond172) V3 load(1, XDATA, add(CFA_XSP16, literal(-11)))
        CFI (cfiCond172) V4 load(1, XDATA, add(CFA_XSP16, literal(-10)))
        CFI (cfiCond172) V5 load(1, XDATA, add(CFA_XSP16, literal(-9)))
        CFI (cfiCond172) V6 load(1, XDATA, add(CFA_XSP16, literal(-8)))
        CFI (cfiCond172) V7 load(1, XDATA, add(CFA_XSP16, literal(-7)))
        CFI (cfiCond172) R7 load(1, XDATA, add(CFA_XSP16, literal(-6)))
        CFI (cfiCond172) ?RET_LOW load(1, XDATA, add(CFA_XSP16, literal(-5)))
        CFI (cfiCond172) ?RET_HIGH load(1, XDATA, add(CFA_XSP16, literal(-4)))
        CFI (cfiCond172) ?BRET_EXT load(1, XDATA, add(CFA_XSP16, literal(-3)))
        CFI (cfiCond172) DPL0 load(1, XDATA, add(CFA_XSP16, literal(-2)))
        CFI (cfiCond172) DPH0 load(1, XDATA, add(CFA_XSP16, literal(-1)))
        CFI (cfiCond172) CFA_SP SP+0
        CFI (cfiCond172) CFA_XSP16 add(XSP16, 21)
        CFI Block cfiCond173 Using cfiCommon0
        CFI (cfiCond173) NoFunction
        CFI (cfiCond173) Conditional ??CrossCallReturnLabel_26
        CFI (cfiCond173) R6 load(1, XDATA, add(CFA_XSP16, literal(-16)))
        CFI (cfiCond173) VB load(1, XDATA, add(CFA_XSP16, literal(-15)))
        CFI (cfiCond173) V0 load(1, XDATA, add(CFA_XSP16, literal(-14)))
        CFI (cfiCond173) V1 load(1, XDATA, add(CFA_XSP16, literal(-13)))
        CFI (cfiCond173) V2 load(1, XDATA, add(CFA_XSP16, literal(-12)))
        CFI (cfiCond173) V3 load(1, XDATA, add(CFA_XSP16, literal(-11)))
        CFI (cfiCond173) V4 load(1, XDATA, add(CFA_XSP16, literal(-10)))
        CFI (cfiCond173) V5 load(1, XDATA, add(CFA_XSP16, literal(-9)))
        CFI (cfiCond173) V6 load(1, XDATA, add(CFA_XSP16, literal(-8)))
        CFI (cfiCond173) V7 load(1, XDATA, add(CFA_XSP16, literal(-7)))
        CFI (cfiCond173) R7 load(1, XDATA, add(CFA_XSP16, literal(-6)))
        CFI (cfiCond173) ?RET_LOW load(1, XDATA, add(CFA_XSP16, literal(-5)))
        CFI (cfiCond173) ?RET_HIGH load(1, XDATA, add(CFA_XSP16, literal(-4)))
        CFI (cfiCond173) ?BRET_EXT load(1, XDATA, add(CFA_XSP16, literal(-3)))
        CFI (cfiCond173) DPL0 load(1, XDATA, add(CFA_XSP16, literal(-2)))
        CFI (cfiCond173) DPH0 load(1, XDATA, add(CFA_XSP16, literal(-1)))
        CFI (cfiCond173) CFA_SP SP+0
        CFI (cfiCond173) CFA_XSP16 add(XSP16, 26)
        CFI Block cfiPicker174 Using cfiCommon1
        CFI (cfiPicker174) NoFunction
        CFI (cfiPicker174) Picker
        MOVX    A,@DPTR
        MOV     R4,A
        INC     DPTR
        MOVX    A,@DPTR
        MOV     R5,A
        RET
        CFI EndBlock cfiCond168
        CFI EndBlock cfiCond169
        CFI EndBlock cfiCond170
        CFI EndBlock cfiCond171
        CFI EndBlock cfiCond172
        CFI EndBlock cfiCond173
        CFI EndBlock cfiPicker174

        RSEG BANKED_CODE:CODE:NOROOT(0)
?Subroutine12:
        CFI Block cfiCond175 Using cfiCommon0
        CFI NoFunction
        CFI Conditional ??CrossCallReturnLabel_143
        CFI R6 load(1, XDATA, add(CFA_XSP16, literal(-16)))
        CFI VB load(1, XDATA, add(CFA_XSP16, literal(-15)))
        CFI V0 load(1, XDATA, add(CFA_XSP16, literal(-14)))
        CFI V1 load(1, XDATA, add(CFA_XSP16, literal(-13)))
        CFI V2 load(1, XDATA, add(CFA_XSP16, literal(-12)))
        CFI V3 load(1, XDATA, add(CFA_XSP16, literal(-11)))
        CFI V4 load(1, XDATA, add(CFA_XSP16, literal(-10)))
        CFI V5 load(1, XDATA, add(CFA_XSP16, literal(-9)))
        CFI V6 load(1, XDATA, add(CFA_XSP16, literal(-8)))
        CFI V7 load(1, XDATA, add(CFA_XSP16, literal(-7)))
        CFI R7 load(1, XDATA, add(CFA_XSP16, literal(-6)))
        CFI ?RET_LOW load(1, XDATA, add(CFA_XSP16, literal(-5)))
        CFI ?RET_HIGH load(1, XDATA, add(CFA_XSP16, literal(-4)))
        CFI ?BRET_EXT load(1, XDATA, add(CFA_XSP16, literal(-3)))
        CFI DPL0 load(1, XDATA, add(CFA_XSP16, literal(-2)))
        CFI DPH0 load(1, XDATA, add(CFA_XSP16, literal(-1)))
        CFI CFA_SP SP+0
        CFI CFA_XSP16 add(XSP16, 25)
        CFI Block cfiCond176 Using cfiCommon0
        CFI (cfiCond176) NoFunction
        CFI (cfiCond176) Conditional ??CrossCallReturnLabel_144
        CFI (cfiCond176) R6 load(1, XDATA, add(CFA_XSP16, literal(-16)))
        CFI (cfiCond176) VB load(1, XDATA, add(CFA_XSP16, literal(-15)))
        CFI (cfiCond176) V0 load(1, XDATA, add(CFA_XSP16, literal(-14)))
        CFI (cfiCond176) V1 load(1, XDATA, add(CFA_XSP16, literal(-13)))
        CFI (cfiCond176) V2 load(1, XDATA, add(CFA_XSP16, literal(-12)))
        CFI (cfiCond176) V3 load(1, XDATA, add(CFA_XSP16, literal(-11)))
        CFI (cfiCond176) V4 load(1, XDATA, add(CFA_XSP16, literal(-10)))
        CFI (cfiCond176) V5 load(1, XDATA, add(CFA_XSP16, literal(-9)))
        CFI (cfiCond176) V6 load(1, XDATA, add(CFA_XSP16, literal(-8)))
        CFI (cfiCond176) V7 load(1, XDATA, add(CFA_XSP16, literal(-7)))
        CFI (cfiCond176) R7 load(1, XDATA, add(CFA_XSP16, literal(-6)))
        CFI (cfiCond176) ?RET_LOW load(1, XDATA, add(CFA_XSP16, literal(-5)))
        CFI (cfiCond176) ?RET_HIGH load(1, XDATA, add(CFA_XSP16, literal(-4)))
        CFI (cfiCond176) ?BRET_EXT load(1, XDATA, add(CFA_XSP16, literal(-3)))
        CFI (cfiCond176) DPL0 load(1, XDATA, add(CFA_XSP16, literal(-2)))
        CFI (cfiCond176) DPH0 load(1, XDATA, add(CFA_XSP16, literal(-1)))
        CFI (cfiCond176) CFA_SP SP+0
        CFI (cfiCond176) CFA_XSP16 add(XSP16, 25)
        CFI Block cfiPicker177 Using cfiCommon1
        CFI (cfiPicker177) NoFunction
        CFI (cfiPicker177) Picker
        MOV     DPL,R2
        MOV     DPH,R3
        CFI EndBlock cfiCond175
        CFI EndBlock cfiCond176
        CFI EndBlock cfiPicker177
        REQUIRE ??Subroutine70_0
        ; // Fall through to label ??Subroutine70_0

        RSEG BANKED_CODE:CODE:NOROOT(0)
??Subroutine70_0:
        CFI Block cfiCond178 Using cfiCommon0
        CFI NoFunction
        CFI Conditional ??CrossCallReturnLabel_142
        CFI R6 load(1, XDATA, add(CFA_XSP16, literal(-16)))
        CFI VB load(1, XDATA, add(CFA_XSP16, literal(-15)))
        CFI V0 load(1, XDATA, add(CFA_XSP16, literal(-14)))
        CFI V1 load(1, XDATA, add(CFA_XSP16, literal(-13)))
        CFI V2 load(1, XDATA, add(CFA_XSP16, literal(-12)))
        CFI V3 load(1, XDATA, add(CFA_XSP16, literal(-11)))
        CFI V4 load(1, XDATA, add(CFA_XSP16, literal(-10)))
        CFI V5 load(1, XDATA, add(CFA_XSP16, literal(-9)))
        CFI V6 load(1, XDATA, add(CFA_XSP16, literal(-8)))
        CFI V7 load(1, XDATA, add(CFA_XSP16, literal(-7)))
        CFI R7 load(1, XDATA, add(CFA_XSP16, literal(-6)))
        CFI ?RET_LOW load(1, XDATA, add(CFA_XSP16, literal(-5)))
        CFI ?RET_HIGH load(1, XDATA, add(CFA_XSP16, literal(-4)))
        CFI ?BRET_EXT load(1, XDATA, add(CFA_XSP16, literal(-3)))
        CFI DPL0 load(1, XDATA, add(CFA_XSP16, literal(-2)))
        CFI DPH0 load(1, XDATA, add(CFA_XSP16, literal(-1)))
        CFI CFA_SP SP+0
        CFI CFA_XSP16 add(XSP16, 25)
        CFI Block cfiCond179 Using cfiCommon0
        CFI (cfiCond179) NoFunction
        CFI (cfiCond179) Conditional ??CrossCallReturnLabel_143
        CFI (cfiCond179) R6 load(1, XDATA, add(CFA_XSP16, literal(-16)))
        CFI (cfiCond179) VB load(1, XDATA, add(CFA_XSP16, literal(-15)))
        CFI (cfiCond179) V0 load(1, XDATA, add(CFA_XSP16, literal(-14)))
        CFI (cfiCond179) V1 load(1, XDATA, add(CFA_XSP16, literal(-13)))
        CFI (cfiCond179) V2 load(1, XDATA, add(CFA_XSP16, literal(-12)))
        CFI (cfiCond179) V3 load(1, XDATA, add(CFA_XSP16, literal(-11)))
        CFI (cfiCond179) V4 load(1, XDATA, add(CFA_XSP16, literal(-10)))
        CFI (cfiCond179) V5 load(1, XDATA, add(CFA_XSP16, literal(-9)))
        CFI (cfiCond179) V6 load(1, XDATA, add(CFA_XSP16, literal(-8)))
        CFI (cfiCond179) V7 load(1, XDATA, add(CFA_XSP16, literal(-7)))
        CFI (cfiCond179) R7 load(1, XDATA, add(CFA_XSP16, literal(-6)))
        CFI (cfiCond179) ?RET_LOW load(1, XDATA, add(CFA_XSP16, literal(-5)))
        CFI (cfiCond179) ?RET_HIGH load(1, XDATA, add(CFA_XSP16, literal(-4)))
        CFI (cfiCond179) ?BRET_EXT load(1, XDATA, add(CFA_XSP16, literal(-3)))
        CFI (cfiCond179) DPL0 load(1, XDATA, add(CFA_XSP16, literal(-2)))
        CFI (cfiCond179) DPH0 load(1, XDATA, add(CFA_XSP16, literal(-1)))
        CFI (cfiCond179) CFA_SP SP+0
        CFI (cfiCond179) CFA_XSP16 add(XSP16, 25)
        CFI Block cfiCond180 Using cfiCommon0
        CFI (cfiCond180) NoFunction
        CFI (cfiCond180) Conditional ??CrossCallReturnLabel_144
        CFI (cfiCond180) R6 load(1, XDATA, add(CFA_XSP16, literal(-16)))
        CFI (cfiCond180) VB load(1, XDATA, add(CFA_XSP16, literal(-15)))
        CFI (cfiCond180) V0 load(1, XDATA, add(CFA_XSP16, literal(-14)))
        CFI (cfiCond180) V1 load(1, XDATA, add(CFA_XSP16, literal(-13)))
        CFI (cfiCond180) V2 load(1, XDATA, add(CFA_XSP16, literal(-12)))
        CFI (cfiCond180) V3 load(1, XDATA, add(CFA_XSP16, literal(-11)))
        CFI (cfiCond180) V4 load(1, XDATA, add(CFA_XSP16, literal(-10)))
        CFI (cfiCond180) V5 load(1, XDATA, add(CFA_XSP16, literal(-9)))
        CFI (cfiCond180) V6 load(1, XDATA, add(CFA_XSP16, literal(-8)))
        CFI (cfiCond180) V7 load(1, XDATA, add(CFA_XSP16, literal(-7)))
        CFI (cfiCond180) R7 load(1, XDATA, add(CFA_XSP16, literal(-6)))
        CFI (cfiCond180) ?RET_LOW load(1, XDATA, add(CFA_XSP16, literal(-5)))
        CFI (cfiCond180) ?RET_HIGH load(1, XDATA, add(CFA_XSP16, literal(-4)))
        CFI (cfiCond180) ?BRET_EXT load(1, XDATA, add(CFA_XSP16, literal(-3)))
        CFI (cfiCond180) DPL0 load(1, XDATA, add(CFA_XSP16, literal(-2)))
        CFI (cfiCond180) DPH0 load(1, XDATA, add(CFA_XSP16, literal(-1)))
        CFI (cfiCond180) CFA_SP SP+0
        CFI (cfiCond180) CFA_XSP16 add(XSP16, 25)
        CFI Block cfiPicker181 Using cfiCommon1
        CFI (cfiPicker181) NoFunction
        CFI (cfiPicker181) Picker
        LCALL   ?Subroutine53 & 0xFFFF
??CrossCallReturnLabel_167:
        MOVX    @DPTR,A
        INC     R6
        MOV     A,R1
        MOV     R7,A
        RET
        CFI EndBlock cfiCond178
        CFI EndBlock cfiCond179
        CFI EndBlock cfiCond180
        CFI EndBlock cfiPicker181

        RSEG BANKED_CODE:CODE:NOROOT(0)
?Subroutine53:
        CFI Block cfiCond182 Using cfiCommon0
        CFI NoFunction
        CFI Conditional ??CrossCallReturnLabel_165
        CFI R6 load(1, XDATA, add(CFA_XSP16, literal(-16)))
        CFI VB load(1, XDATA, add(CFA_XSP16, literal(-15)))
        CFI V0 load(1, XDATA, add(CFA_XSP16, literal(-14)))
        CFI V1 load(1, XDATA, add(CFA_XSP16, literal(-13)))
        CFI V2 load(1, XDATA, add(CFA_XSP16, literal(-12)))
        CFI V3 load(1, XDATA, add(CFA_XSP16, literal(-11)))
        CFI V4 load(1, XDATA, add(CFA_XSP16, literal(-10)))
        CFI V5 load(1, XDATA, add(CFA_XSP16, literal(-9)))
        CFI V6 load(1, XDATA, add(CFA_XSP16, literal(-8)))
        CFI V7 load(1, XDATA, add(CFA_XSP16, literal(-7)))
        CFI R7 load(1, XDATA, add(CFA_XSP16, literal(-6)))
        CFI ?RET_LOW load(1, XDATA, add(CFA_XSP16, literal(-5)))
        CFI ?RET_HIGH load(1, XDATA, add(CFA_XSP16, literal(-4)))
        CFI ?BRET_EXT load(1, XDATA, add(CFA_XSP16, literal(-3)))
        CFI DPL0 load(1, XDATA, add(CFA_XSP16, literal(-2)))
        CFI DPH0 load(1, XDATA, add(CFA_XSP16, literal(-1)))
        CFI CFA_SP SP+0
        CFI CFA_XSP16 add(XSP16, 25)
        CFI Block cfiCond183 Using cfiCommon0
        CFI (cfiCond183) NoFunction
        CFI (cfiCond183) Conditional ??CrossCallReturnLabel_166
        CFI (cfiCond183) R6 load(1, XDATA, add(CFA_XSP16, literal(-16)))
        CFI (cfiCond183) VB load(1, XDATA, add(CFA_XSP16, literal(-15)))
        CFI (cfiCond183) V0 load(1, XDATA, add(CFA_XSP16, literal(-14)))
        CFI (cfiCond183) V1 load(1, XDATA, add(CFA_XSP16, literal(-13)))
        CFI (cfiCond183) V2 load(1, XDATA, add(CFA_XSP16, literal(-12)))
        CFI (cfiCond183) V3 load(1, XDATA, add(CFA_XSP16, literal(-11)))
        CFI (cfiCond183) V4 load(1, XDATA, add(CFA_XSP16, literal(-10)))
        CFI (cfiCond183) V5 load(1, XDATA, add(CFA_XSP16, literal(-9)))
        CFI (cfiCond183) V6 load(1, XDATA, add(CFA_XSP16, literal(-8)))
        CFI (cfiCond183) V7 load(1, XDATA, add(CFA_XSP16, literal(-7)))
        CFI (cfiCond183) R7 load(1, XDATA, add(CFA_XSP16, literal(-6)))
        CFI (cfiCond183) ?RET_LOW load(1, XDATA, add(CFA_XSP16, literal(-5)))
        CFI (cfiCond183) ?RET_HIGH load(1, XDATA, add(CFA_XSP16, literal(-4)))
        CFI (cfiCond183) ?BRET_EXT load(1, XDATA, add(CFA_XSP16, literal(-3)))
        CFI (cfiCond183) DPL0 load(1, XDATA, add(CFA_XSP16, literal(-2)))
        CFI (cfiCond183) DPH0 load(1, XDATA, add(CFA_XSP16, literal(-1)))
        CFI (cfiCond183) CFA_SP SP+0
        CFI (cfiCond183) CFA_XSP16 add(XSP16, 25)
        CFI Block cfiCond184 Using cfiCommon0
        CFI (cfiCond184) NoFunction
        CFI (cfiCond184) Conditional ??CrossCallReturnLabel_167, ??CrossCallReturnLabel_143
        CFI (cfiCond184) R6 load(1, XDATA, add(CFA_XSP16, literal(-16)))
        CFI (cfiCond184) VB load(1, XDATA, add(CFA_XSP16, literal(-15)))
        CFI (cfiCond184) V0 load(1, XDATA, add(CFA_XSP16, literal(-14)))
        CFI (cfiCond184) V1 load(1, XDATA, add(CFA_XSP16, literal(-13)))
        CFI (cfiCond184) V2 load(1, XDATA, add(CFA_XSP16, literal(-12)))
        CFI (cfiCond184) V3 load(1, XDATA, add(CFA_XSP16, literal(-11)))
        CFI (cfiCond184) V4 load(1, XDATA, add(CFA_XSP16, literal(-10)))
        CFI (cfiCond184) V5 load(1, XDATA, add(CFA_XSP16, literal(-9)))
        CFI (cfiCond184) V6 load(1, XDATA, add(CFA_XSP16, literal(-8)))
        CFI (cfiCond184) V7 load(1, XDATA, add(CFA_XSP16, literal(-7)))
        CFI (cfiCond184) R7 load(1, XDATA, add(CFA_XSP16, literal(-6)))
        CFI (cfiCond184) ?RET_LOW load(1, XDATA, add(CFA_XSP16, literal(-5)))
        CFI (cfiCond184) ?RET_HIGH load(1, XDATA, add(CFA_XSP16, literal(-4)))
        CFI (cfiCond184) ?BRET_EXT load(1, XDATA, add(CFA_XSP16, literal(-3)))
        CFI (cfiCond184) DPL0 load(1, XDATA, add(CFA_XSP16, literal(-2)))
        CFI (cfiCond184) DPH0 load(1, XDATA, add(CFA_XSP16, literal(-1)))
        CFI (cfiCond184) CFA_SP SP+0
        CFI (cfiCond184) CFA_XSP16 add(XSP16, 25)
        CFI Block cfiCond185 Using cfiCommon0
        CFI (cfiCond185) NoFunction
        CFI (cfiCond185) Conditional ??CrossCallReturnLabel_167, ??CrossCallReturnLabel_144
        CFI (cfiCond185) R6 load(1, XDATA, add(CFA_XSP16, literal(-16)))
        CFI (cfiCond185) VB load(1, XDATA, add(CFA_XSP16, literal(-15)))
        CFI (cfiCond185) V0 load(1, XDATA, add(CFA_XSP16, literal(-14)))
        CFI (cfiCond185) V1 load(1, XDATA, add(CFA_XSP16, literal(-13)))
        CFI (cfiCond185) V2 load(1, XDATA, add(CFA_XSP16, literal(-12)))
        CFI (cfiCond185) V3 load(1, XDATA, add(CFA_XSP16, literal(-11)))
        CFI (cfiCond185) V4 load(1, XDATA, add(CFA_XSP16, literal(-10)))
        CFI (cfiCond185) V5 load(1, XDATA, add(CFA_XSP16, literal(-9)))
        CFI (cfiCond185) V6 load(1, XDATA, add(CFA_XSP16, literal(-8)))
        CFI (cfiCond185) V7 load(1, XDATA, add(CFA_XSP16, literal(-7)))
        CFI (cfiCond185) R7 load(1, XDATA, add(CFA_XSP16, literal(-6)))
        CFI (cfiCond185) ?RET_LOW load(1, XDATA, add(CFA_XSP16, literal(-5)))
        CFI (cfiCond185) ?RET_HIGH load(1, XDATA, add(CFA_XSP16, literal(-4)))
        CFI (cfiCond185) ?BRET_EXT load(1, XDATA, add(CFA_XSP16, literal(-3)))
        CFI (cfiCond185) DPL0 load(1, XDATA, add(CFA_XSP16, literal(-2)))
        CFI (cfiCond185) DPH0 load(1, XDATA, add(CFA_XSP16, literal(-1)))
        CFI (cfiCond185) CFA_SP SP+0
        CFI (cfiCond185) CFA_XSP16 add(XSP16, 25)
        CFI Block cfiCond186 Using cfiCommon0
        CFI (cfiCond186) NoFunction
        CFI (cfiCond186) Conditional ??CrossCallReturnLabel_167, ??CrossCallReturnLabel_142
        CFI (cfiCond186) R6 load(1, XDATA, add(CFA_XSP16, literal(-16)))
        CFI (cfiCond186) VB load(1, XDATA, add(CFA_XSP16, literal(-15)))
        CFI (cfiCond186) V0 load(1, XDATA, add(CFA_XSP16, literal(-14)))
        CFI (cfiCond186) V1 load(1, XDATA, add(CFA_XSP16, literal(-13)))
        CFI (cfiCond186) V2 load(1, XDATA, add(CFA_XSP16, literal(-12)))
        CFI (cfiCond186) V3 load(1, XDATA, add(CFA_XSP16, literal(-11)))
        CFI (cfiCond186) V4 load(1, XDATA, add(CFA_XSP16, literal(-10)))
        CFI (cfiCond186) V5 load(1, XDATA, add(CFA_XSP16, literal(-9)))
        CFI (cfiCond186) V6 load(1, XDATA, add(CFA_XSP16, literal(-8)))
        CFI (cfiCond186) V7 load(1, XDATA, add(CFA_XSP16, literal(-7)))
        CFI (cfiCond186) R7 load(1, XDATA, add(CFA_XSP16, literal(-6)))
        CFI (cfiCond186) ?RET_LOW load(1, XDATA, add(CFA_XSP16, literal(-5)))
        CFI (cfiCond186) ?RET_HIGH load(1, XDATA, add(CFA_XSP16, literal(-4)))
        CFI (cfiCond186) ?BRET_EXT load(1, XDATA, add(CFA_XSP16, literal(-3)))
        CFI (cfiCond186) DPL0 load(1, XDATA, add(CFA_XSP16, literal(-2)))
        CFI (cfiCond186) DPH0 load(1, XDATA, add(CFA_XSP16, literal(-1)))
        CFI (cfiCond186) CFA_SP SP+0
        CFI (cfiCond186) CFA_XSP16 add(XSP16, 25)
        CFI Block cfiCond187 Using cfiCommon0
        CFI (cfiCond187) NoFunction
        CFI (cfiCond187) Conditional ??CrossCallReturnLabel_168, ??CrossCallReturnLabel_163
        CFI (cfiCond187) R6 load(1, XDATA, add(CFA_XSP16, literal(-16)))
        CFI (cfiCond187) VB load(1, XDATA, add(CFA_XSP16, literal(-15)))
        CFI (cfiCond187) V0 load(1, XDATA, add(CFA_XSP16, literal(-14)))
        CFI (cfiCond187) V1 load(1, XDATA, add(CFA_XSP16, literal(-13)))
        CFI (cfiCond187) V2 load(1, XDATA, add(CFA_XSP16, literal(-12)))
        CFI (cfiCond187) V3 load(1, XDATA, add(CFA_XSP16, literal(-11)))
        CFI (cfiCond187) V4 load(1, XDATA, add(CFA_XSP16, literal(-10)))
        CFI (cfiCond187) V5 load(1, XDATA, add(CFA_XSP16, literal(-9)))
        CFI (cfiCond187) V6 load(1, XDATA, add(CFA_XSP16, literal(-8)))
        CFI (cfiCond187) V7 load(1, XDATA, add(CFA_XSP16, literal(-7)))
        CFI (cfiCond187) R7 load(1, XDATA, add(CFA_XSP16, literal(-6)))
        CFI (cfiCond187) ?RET_LOW load(1, XDATA, add(CFA_XSP16, literal(-5)))
        CFI (cfiCond187) ?RET_HIGH load(1, XDATA, add(CFA_XSP16, literal(-4)))
        CFI (cfiCond187) ?BRET_EXT load(1, XDATA, add(CFA_XSP16, literal(-3)))
        CFI (cfiCond187) DPL0 load(1, XDATA, add(CFA_XSP16, literal(-2)))
        CFI (cfiCond187) DPH0 load(1, XDATA, add(CFA_XSP16, literal(-1)))
        CFI (cfiCond187) CFA_SP SP+0
        CFI (cfiCond187) CFA_XSP16 add(XSP16, 25)
        CFI Block cfiCond188 Using cfiCommon0
        CFI (cfiCond188) NoFunction
        CFI (cfiCond188) Conditional ??CrossCallReturnLabel_168, ??CrossCallReturnLabel_164
        CFI (cfiCond188) R6 load(1, XDATA, add(CFA_XSP16, literal(-16)))
        CFI (cfiCond188) VB load(1, XDATA, add(CFA_XSP16, literal(-15)))
        CFI (cfiCond188) V0 load(1, XDATA, add(CFA_XSP16, literal(-14)))
        CFI (cfiCond188) V1 load(1, XDATA, add(CFA_XSP16, literal(-13)))
        CFI (cfiCond188) V2 load(1, XDATA, add(CFA_XSP16, literal(-12)))
        CFI (cfiCond188) V3 load(1, XDATA, add(CFA_XSP16, literal(-11)))
        CFI (cfiCond188) V4 load(1, XDATA, add(CFA_XSP16, literal(-10)))
        CFI (cfiCond188) V5 load(1, XDATA, add(CFA_XSP16, literal(-9)))
        CFI (cfiCond188) V6 load(1, XDATA, add(CFA_XSP16, literal(-8)))
        CFI (cfiCond188) V7 load(1, XDATA, add(CFA_XSP16, literal(-7)))
        CFI (cfiCond188) R7 load(1, XDATA, add(CFA_XSP16, literal(-6)))
        CFI (cfiCond188) ?RET_LOW load(1, XDATA, add(CFA_XSP16, literal(-5)))
        CFI (cfiCond188) ?RET_HIGH load(1, XDATA, add(CFA_XSP16, literal(-4)))
        CFI (cfiCond188) ?BRET_EXT load(1, XDATA, add(CFA_XSP16, literal(-3)))
        CFI (cfiCond188) DPL0 load(1, XDATA, add(CFA_XSP16, literal(-2)))
        CFI (cfiCond188) DPH0 load(1, XDATA, add(CFA_XSP16, literal(-1)))
        CFI (cfiCond188) CFA_SP SP+0
        CFI (cfiCond188) CFA_XSP16 add(XSP16, 25)
        CFI Block cfiCond189 Using cfiCommon0
        CFI (cfiCond189) NoFunction
        CFI (cfiCond189) Conditional ??CrossCallReturnLabel_168, ??CrossCallReturnLabel_162
        CFI (cfiCond189) R6 load(1, XDATA, add(CFA_XSP16, literal(-16)))
        CFI (cfiCond189) VB load(1, XDATA, add(CFA_XSP16, literal(-15)))
        CFI (cfiCond189) V0 load(1, XDATA, add(CFA_XSP16, literal(-14)))
        CFI (cfiCond189) V1 load(1, XDATA, add(CFA_XSP16, literal(-13)))
        CFI (cfiCond189) V2 load(1, XDATA, add(CFA_XSP16, literal(-12)))
        CFI (cfiCond189) V3 load(1, XDATA, add(CFA_XSP16, literal(-11)))
        CFI (cfiCond189) V4 load(1, XDATA, add(CFA_XSP16, literal(-10)))
        CFI (cfiCond189) V5 load(1, XDATA, add(CFA_XSP16, literal(-9)))
        CFI (cfiCond189) V6 load(1, XDATA, add(CFA_XSP16, literal(-8)))
        CFI (cfiCond189) V7 load(1, XDATA, add(CFA_XSP16, literal(-7)))
        CFI (cfiCond189) R7 load(1, XDATA, add(CFA_XSP16, literal(-6)))
        CFI (cfiCond189) ?RET_LOW load(1, XDATA, add(CFA_XSP16, literal(-5)))
        CFI (cfiCond189) ?RET_HIGH load(1, XDATA, add(CFA_XSP16, literal(-4)))
        CFI (cfiCond189) ?BRET_EXT load(1, XDATA, add(CFA_XSP16, literal(-3)))
        CFI (cfiCond189) DPL0 load(1, XDATA, add(CFA_XSP16, literal(-2)))
        CFI (cfiCond189) DPH0 load(1, XDATA, add(CFA_XSP16, literal(-1)))
        CFI (cfiCond189) CFA_SP SP+0
        CFI (cfiCond189) CFA_XSP16 add(XSP16, 25)
        CFI Block cfiCond190 Using cfiCommon0
        CFI (cfiCond190) NoFunction
        CFI (cfiCond190) Conditional ??CrossCallReturnLabel_168, ??CrossCallReturnLabel_161
        CFI (cfiCond190) R6 load(1, XDATA, add(CFA_XSP16, literal(-16)))
        CFI (cfiCond190) VB load(1, XDATA, add(CFA_XSP16, literal(-15)))
        CFI (cfiCond190) V0 load(1, XDATA, add(CFA_XSP16, literal(-14)))
        CFI (cfiCond190) V1 load(1, XDATA, add(CFA_XSP16, literal(-13)))
        CFI (cfiCond190) V2 load(1, XDATA, add(CFA_XSP16, literal(-12)))
        CFI (cfiCond190) V3 load(1, XDATA, add(CFA_XSP16, literal(-11)))
        CFI (cfiCond190) V4 load(1, XDATA, add(CFA_XSP16, literal(-10)))
        CFI (cfiCond190) V5 load(1, XDATA, add(CFA_XSP16, literal(-9)))
        CFI (cfiCond190) V6 load(1, XDATA, add(CFA_XSP16, literal(-8)))
        CFI (cfiCond190) V7 load(1, XDATA, add(CFA_XSP16, literal(-7)))
        CFI (cfiCond190) R7 load(1, XDATA, add(CFA_XSP16, literal(-6)))
        CFI (cfiCond190) ?RET_LOW load(1, XDATA, add(CFA_XSP16, literal(-5)))
        CFI (cfiCond190) ?RET_HIGH load(1, XDATA, add(CFA_XSP16, literal(-4)))
        CFI (cfiCond190) ?BRET_EXT load(1, XDATA, add(CFA_XSP16, literal(-3)))
        CFI (cfiCond190) DPL0 load(1, XDATA, add(CFA_XSP16, literal(-2)))
        CFI (cfiCond190) DPH0 load(1, XDATA, add(CFA_XSP16, literal(-1)))
        CFI (cfiCond190) CFA_SP SP+0
        CFI (cfiCond190) CFA_XSP16 add(XSP16, 25)
        CFI Block cfiPicker191 Using cfiCommon1
        CFI (cfiPicker191) NoFunction
        CFI (cfiPicker191) Picker
        MOVX    A,@DPTR
        MOV     DPL,R6
        MOV     DPH,R7
        RET
        CFI EndBlock cfiCond182
        CFI EndBlock cfiCond183
        CFI EndBlock cfiCond184
        CFI EndBlock cfiCond185
        CFI EndBlock cfiCond186
        CFI EndBlock cfiCond187
        CFI EndBlock cfiCond188
        CFI EndBlock cfiCond189
        CFI EndBlock cfiCond190
        CFI EndBlock cfiPicker191

        RSEG BANKED_CODE:CODE:NOROOT(0)
?Subroutine11:
        CFI Block cfiCond192 Using cfiCommon0
        CFI NoFunction
        CFI Conditional ??CrossCallReturnLabel_146
        CFI R6 load(1, XDATA, add(CFA_XSP16, literal(-16)))
        CFI VB load(1, XDATA, add(CFA_XSP16, literal(-15)))
        CFI V0 load(1, XDATA, add(CFA_XSP16, literal(-14)))
        CFI V1 load(1, XDATA, add(CFA_XSP16, literal(-13)))
        CFI V2 load(1, XDATA, add(CFA_XSP16, literal(-12)))
        CFI V3 load(1, XDATA, add(CFA_XSP16, literal(-11)))
        CFI V4 load(1, XDATA, add(CFA_XSP16, literal(-10)))
        CFI V5 load(1, XDATA, add(CFA_XSP16, literal(-9)))
        CFI V6 load(1, XDATA, add(CFA_XSP16, literal(-8)))
        CFI V7 load(1, XDATA, add(CFA_XSP16, literal(-7)))
        CFI R7 load(1, XDATA, add(CFA_XSP16, literal(-6)))
        CFI ?RET_LOW load(1, XDATA, add(CFA_XSP16, literal(-5)))
        CFI ?RET_HIGH load(1, XDATA, add(CFA_XSP16, literal(-4)))
        CFI ?BRET_EXT load(1, XDATA, add(CFA_XSP16, literal(-3)))
        CFI DPL0 load(1, XDATA, add(CFA_XSP16, literal(-2)))
        CFI DPH0 load(1, XDATA, add(CFA_XSP16, literal(-1)))
        CFI CFA_SP SP+0
        CFI CFA_XSP16 add(XSP16, 25)
        CFI Block cfiCond193 Using cfiCommon0
        CFI (cfiCond193) NoFunction
        CFI (cfiCond193) Conditional ??CrossCallReturnLabel_147
        CFI (cfiCond193) R6 load(1, XDATA, add(CFA_XSP16, literal(-16)))
        CFI (cfiCond193) VB load(1, XDATA, add(CFA_XSP16, literal(-15)))
        CFI (cfiCond193) V0 load(1, XDATA, add(CFA_XSP16, literal(-14)))
        CFI (cfiCond193) V1 load(1, XDATA, add(CFA_XSP16, literal(-13)))
        CFI (cfiCond193) V2 load(1, XDATA, add(CFA_XSP16, literal(-12)))
        CFI (cfiCond193) V3 load(1, XDATA, add(CFA_XSP16, literal(-11)))
        CFI (cfiCond193) V4 load(1, XDATA, add(CFA_XSP16, literal(-10)))
        CFI (cfiCond193) V5 load(1, XDATA, add(CFA_XSP16, literal(-9)))
        CFI (cfiCond193) V6 load(1, XDATA, add(CFA_XSP16, literal(-8)))
        CFI (cfiCond193) V7 load(1, XDATA, add(CFA_XSP16, literal(-7)))
        CFI (cfiCond193) R7 load(1, XDATA, add(CFA_XSP16, literal(-6)))
        CFI (cfiCond193) ?RET_LOW load(1, XDATA, add(CFA_XSP16, literal(-5)))
        CFI (cfiCond193) ?RET_HIGH load(1, XDATA, add(CFA_XSP16, literal(-4)))
        CFI (cfiCond193) ?BRET_EXT load(1, XDATA, add(CFA_XSP16, literal(-3)))
        CFI (cfiCond193) DPL0 load(1, XDATA, add(CFA_XSP16, literal(-2)))
        CFI (cfiCond193) DPH0 load(1, XDATA, add(CFA_XSP16, literal(-1)))
        CFI (cfiCond193) CFA_SP SP+0
        CFI (cfiCond193) CFA_XSP16 add(XSP16, 25)
        CFI Block cfiPicker194 Using cfiCommon1
        CFI (cfiPicker194) NoFunction
        CFI (cfiPicker194) Picker
        MOVX    A,@DPTR
        MOV     R0,A
        CFI EndBlock cfiCond192
        CFI EndBlock cfiCond193
        CFI EndBlock cfiPicker194
        REQUIRE ??Subroutine71_0
        ; // Fall through to label ??Subroutine71_0

        RSEG BANKED_CODE:CODE:NOROOT(0)
??Subroutine71_0:
        CFI Block cfiCond195 Using cfiCommon0
        CFI NoFunction
        CFI Conditional ??CrossCallReturnLabel_145
        CFI R6 load(1, XDATA, add(CFA_XSP16, literal(-16)))
        CFI VB load(1, XDATA, add(CFA_XSP16, literal(-15)))
        CFI V0 load(1, XDATA, add(CFA_XSP16, literal(-14)))
        CFI V1 load(1, XDATA, add(CFA_XSP16, literal(-13)))
        CFI V2 load(1, XDATA, add(CFA_XSP16, literal(-12)))
        CFI V3 load(1, XDATA, add(CFA_XSP16, literal(-11)))
        CFI V4 load(1, XDATA, add(CFA_XSP16, literal(-10)))
        CFI V5 load(1, XDATA, add(CFA_XSP16, literal(-9)))
        CFI V6 load(1, XDATA, add(CFA_XSP16, literal(-8)))
        CFI V7 load(1, XDATA, add(CFA_XSP16, literal(-7)))
        CFI R7 load(1, XDATA, add(CFA_XSP16, literal(-6)))
        CFI ?RET_LOW load(1, XDATA, add(CFA_XSP16, literal(-5)))
        CFI ?RET_HIGH load(1, XDATA, add(CFA_XSP16, literal(-4)))
        CFI ?BRET_EXT load(1, XDATA, add(CFA_XSP16, literal(-3)))
        CFI DPL0 load(1, XDATA, add(CFA_XSP16, literal(-2)))
        CFI DPH0 load(1, XDATA, add(CFA_XSP16, literal(-1)))
        CFI CFA_SP SP+0
        CFI CFA_XSP16 add(XSP16, 21)
        CFI Block cfiCond196 Using cfiCommon0
        CFI (cfiCond196) NoFunction
        CFI (cfiCond196) Conditional ??CrossCallReturnLabel_146
        CFI (cfiCond196) R6 load(1, XDATA, add(CFA_XSP16, literal(-16)))
        CFI (cfiCond196) VB load(1, XDATA, add(CFA_XSP16, literal(-15)))
        CFI (cfiCond196) V0 load(1, XDATA, add(CFA_XSP16, literal(-14)))
        CFI (cfiCond196) V1 load(1, XDATA, add(CFA_XSP16, literal(-13)))
        CFI (cfiCond196) V2 load(1, XDATA, add(CFA_XSP16, literal(-12)))
        CFI (cfiCond196) V3 load(1, XDATA, add(CFA_XSP16, literal(-11)))
        CFI (cfiCond196) V4 load(1, XDATA, add(CFA_XSP16, literal(-10)))
        CFI (cfiCond196) V5 load(1, XDATA, add(CFA_XSP16, literal(-9)))
        CFI (cfiCond196) V6 load(1, XDATA, add(CFA_XSP16, literal(-8)))
        CFI (cfiCond196) V7 load(1, XDATA, add(CFA_XSP16, literal(-7)))
        CFI (cfiCond196) R7 load(1, XDATA, add(CFA_XSP16, literal(-6)))
        CFI (cfiCond196) ?RET_LOW load(1, XDATA, add(CFA_XSP16, literal(-5)))
        CFI (cfiCond196) ?RET_HIGH load(1, XDATA, add(CFA_XSP16, literal(-4)))
        CFI (cfiCond196) ?BRET_EXT load(1, XDATA, add(CFA_XSP16, literal(-3)))
        CFI (cfiCond196) DPL0 load(1, XDATA, add(CFA_XSP16, literal(-2)))
        CFI (cfiCond196) DPH0 load(1, XDATA, add(CFA_XSP16, literal(-1)))
        CFI (cfiCond196) CFA_SP SP+0
        CFI (cfiCond196) CFA_XSP16 add(XSP16, 25)
        CFI Block cfiCond197 Using cfiCommon0
        CFI (cfiCond197) NoFunction
        CFI (cfiCond197) Conditional ??CrossCallReturnLabel_147
        CFI (cfiCond197) R6 load(1, XDATA, add(CFA_XSP16, literal(-16)))
        CFI (cfiCond197) VB load(1, XDATA, add(CFA_XSP16, literal(-15)))
        CFI (cfiCond197) V0 load(1, XDATA, add(CFA_XSP16, literal(-14)))
        CFI (cfiCond197) V1 load(1, XDATA, add(CFA_XSP16, literal(-13)))
        CFI (cfiCond197) V2 load(1, XDATA, add(CFA_XSP16, literal(-12)))
        CFI (cfiCond197) V3 load(1, XDATA, add(CFA_XSP16, literal(-11)))
        CFI (cfiCond197) V4 load(1, XDATA, add(CFA_XSP16, literal(-10)))
        CFI (cfiCond197) V5 load(1, XDATA, add(CFA_XSP16, literal(-9)))
        CFI (cfiCond197) V6 load(1, XDATA, add(CFA_XSP16, literal(-8)))
        CFI (cfiCond197) V7 load(1, XDATA, add(CFA_XSP16, literal(-7)))
        CFI (cfiCond197) R7 load(1, XDATA, add(CFA_XSP16, literal(-6)))
        CFI (cfiCond197) ?RET_LOW load(1, XDATA, add(CFA_XSP16, literal(-5)))
        CFI (cfiCond197) ?RET_HIGH load(1, XDATA, add(CFA_XSP16, literal(-4)))
        CFI (cfiCond197) ?BRET_EXT load(1, XDATA, add(CFA_XSP16, literal(-3)))
        CFI (cfiCond197) DPL0 load(1, XDATA, add(CFA_XSP16, literal(-2)))
        CFI (cfiCond197) DPH0 load(1, XDATA, add(CFA_XSP16, literal(-1)))
        CFI (cfiCond197) CFA_SP SP+0
        CFI (cfiCond197) CFA_XSP16 add(XSP16, 25)
        CFI Block cfiPicker198 Using cfiCommon1
        CFI (cfiPicker198) NoFunction
        CFI (cfiPicker198) Picker
        LCALL   ?Subroutine52 & 0xFFFF
??CrossCallReturnLabel_150:
        INC     DPTR
        INC     DPTR
        INC     DPTR
        RET
        CFI EndBlock cfiCond195
        CFI EndBlock cfiCond196
        CFI EndBlock cfiCond197
        CFI EndBlock cfiPicker198

        RSEG BANKED_CODE:CODE:NOROOT(0)
?Subroutine10:
        CFI Block cfiCond199 Using cfiCommon0
        CFI NoFunction
        CFI Conditional ??CrossCallReturnLabel_12
        CFI R6 load(1, XDATA, add(CFA_XSP16, literal(-16)))
        CFI VB load(1, XDATA, add(CFA_XSP16, literal(-15)))
        CFI V0 load(1, XDATA, add(CFA_XSP16, literal(-14)))
        CFI V1 load(1, XDATA, add(CFA_XSP16, literal(-13)))
        CFI V2 load(1, XDATA, add(CFA_XSP16, literal(-12)))
        CFI V3 load(1, XDATA, add(CFA_XSP16, literal(-11)))
        CFI V4 load(1, XDATA, add(CFA_XSP16, literal(-10)))
        CFI V5 load(1, XDATA, add(CFA_XSP16, literal(-9)))
        CFI V6 load(1, XDATA, add(CFA_XSP16, literal(-8)))
        CFI V7 load(1, XDATA, add(CFA_XSP16, literal(-7)))
        CFI R7 load(1, XDATA, add(CFA_XSP16, literal(-6)))
        CFI ?RET_LOW load(1, XDATA, add(CFA_XSP16, literal(-5)))
        CFI ?RET_HIGH load(1, XDATA, add(CFA_XSP16, literal(-4)))
        CFI ?BRET_EXT load(1, XDATA, add(CFA_XSP16, literal(-3)))
        CFI DPL0 load(1, XDATA, add(CFA_XSP16, literal(-2)))
        CFI DPH0 load(1, XDATA, add(CFA_XSP16, literal(-1)))
        CFI CFA_SP SP+0
        CFI CFA_XSP16 add(XSP16, 25)
        CFI Block cfiCond200 Using cfiCommon0
        CFI (cfiCond200) NoFunction
        CFI (cfiCond200) Conditional ??CrossCallReturnLabel_13
        CFI (cfiCond200) R6 load(1, XDATA, add(CFA_XSP16, literal(-16)))
        CFI (cfiCond200) VB load(1, XDATA, add(CFA_XSP16, literal(-15)))
        CFI (cfiCond200) V0 load(1, XDATA, add(CFA_XSP16, literal(-14)))
        CFI (cfiCond200) V1 load(1, XDATA, add(CFA_XSP16, literal(-13)))
        CFI (cfiCond200) V2 load(1, XDATA, add(CFA_XSP16, literal(-12)))
        CFI (cfiCond200) V3 load(1, XDATA, add(CFA_XSP16, literal(-11)))
        CFI (cfiCond200) V4 load(1, XDATA, add(CFA_XSP16, literal(-10)))
        CFI (cfiCond200) V5 load(1, XDATA, add(CFA_XSP16, literal(-9)))
        CFI (cfiCond200) V6 load(1, XDATA, add(CFA_XSP16, literal(-8)))
        CFI (cfiCond200) V7 load(1, XDATA, add(CFA_XSP16, literal(-7)))
        CFI (cfiCond200) R7 load(1, XDATA, add(CFA_XSP16, literal(-6)))
        CFI (cfiCond200) ?RET_LOW load(1, XDATA, add(CFA_XSP16, literal(-5)))
        CFI (cfiCond200) ?RET_HIGH load(1, XDATA, add(CFA_XSP16, literal(-4)))
        CFI (cfiCond200) ?BRET_EXT load(1, XDATA, add(CFA_XSP16, literal(-3)))
        CFI (cfiCond200) DPL0 load(1, XDATA, add(CFA_XSP16, literal(-2)))
        CFI (cfiCond200) DPH0 load(1, XDATA, add(CFA_XSP16, literal(-1)))
        CFI (cfiCond200) CFA_SP SP+0
        CFI (cfiCond200) CFA_XSP16 add(XSP16, 25)
        CFI Block cfiPicker201 Using cfiCommon1
        CFI (cfiPicker201) NoFunction
        CFI (cfiPicker201) Picker
        LCALL   ?Subroutine47 & 0xFFFF
??CrossCallReturnLabel_92:
        MOV     DPL,R6
        MOV     DPH,R7
        MOVX    @DPTR,A
        INC     DPTR
        RET
        CFI EndBlock cfiCond199
        CFI EndBlock cfiCond200
        CFI EndBlock cfiPicker201

        RSEG BANKED_CODE:CODE:NOROOT(0)
?Subroutine9:
        CFI Block cfiCond202 Using cfiCommon0
        CFI NoFunction
        CFI Conditional ??CrossCallReturnLabel_159
        CFI R6 load(1, XDATA, add(CFA_XSP16, literal(-16)))
        CFI VB load(1, XDATA, add(CFA_XSP16, literal(-15)))
        CFI V0 load(1, XDATA, add(CFA_XSP16, literal(-14)))
        CFI V1 load(1, XDATA, add(CFA_XSP16, literal(-13)))
        CFI V2 load(1, XDATA, add(CFA_XSP16, literal(-12)))
        CFI V3 load(1, XDATA, add(CFA_XSP16, literal(-11)))
        CFI V4 load(1, XDATA, add(CFA_XSP16, literal(-10)))
        CFI V5 load(1, XDATA, add(CFA_XSP16, literal(-9)))
        CFI V6 load(1, XDATA, add(CFA_XSP16, literal(-8)))
        CFI V7 load(1, XDATA, add(CFA_XSP16, literal(-7)))
        CFI R7 load(1, XDATA, add(CFA_XSP16, literal(-6)))
        CFI ?RET_LOW load(1, XDATA, add(CFA_XSP16, literal(-5)))
        CFI ?RET_HIGH load(1, XDATA, add(CFA_XSP16, literal(-4)))
        CFI ?BRET_EXT load(1, XDATA, add(CFA_XSP16, literal(-3)))
        CFI DPL0 load(1, XDATA, add(CFA_XSP16, literal(-2)))
        CFI DPH0 load(1, XDATA, add(CFA_XSP16, literal(-1)))
        CFI CFA_SP SP+0
        CFI CFA_XSP16 add(XSP16, 35)
        CFI Block cfiCond203 Using cfiCommon0
        CFI (cfiCond203) NoFunction
        CFI (cfiCond203) Conditional ??CrossCallReturnLabel_160
        CFI (cfiCond203) R6 load(1, XDATA, add(CFA_XSP16, literal(-16)))
        CFI (cfiCond203) VB load(1, XDATA, add(CFA_XSP16, literal(-15)))
        CFI (cfiCond203) V0 load(1, XDATA, add(CFA_XSP16, literal(-14)))
        CFI (cfiCond203) V1 load(1, XDATA, add(CFA_XSP16, literal(-13)))
        CFI (cfiCond203) V2 load(1, XDATA, add(CFA_XSP16, literal(-12)))
        CFI (cfiCond203) V3 load(1, XDATA, add(CFA_XSP16, literal(-11)))
        CFI (cfiCond203) V4 load(1, XDATA, add(CFA_XSP16, literal(-10)))
        CFI (cfiCond203) V5 load(1, XDATA, add(CFA_XSP16, literal(-9)))
        CFI (cfiCond203) V6 load(1, XDATA, add(CFA_XSP16, literal(-8)))
        CFI (cfiCond203) V7 load(1, XDATA, add(CFA_XSP16, literal(-7)))
        CFI (cfiCond203) R7 load(1, XDATA, add(CFA_XSP16, literal(-6)))
        CFI (cfiCond203) ?RET_LOW load(1, XDATA, add(CFA_XSP16, literal(-5)))
        CFI (cfiCond203) ?RET_HIGH load(1, XDATA, add(CFA_XSP16, literal(-4)))
        CFI (cfiCond203) ?BRET_EXT load(1, XDATA, add(CFA_XSP16, literal(-3)))
        CFI (cfiCond203) DPL0 load(1, XDATA, add(CFA_XSP16, literal(-2)))
        CFI (cfiCond203) DPH0 load(1, XDATA, add(CFA_XSP16, literal(-1)))
        CFI (cfiCond203) CFA_SP SP+0
        CFI (cfiCond203) CFA_XSP16 add(XSP16, 24)
        CFI Block cfiPicker204 Using cfiCommon1
        CFI (cfiPicker204) NoFunction
        CFI (cfiPicker204) Picker
        MOV     DPTR,#pMtAfDataReq
        MOVX    A,@DPTR
        ADD     A,#0x10
        CFI EndBlock cfiCond202
        CFI EndBlock cfiCond203
        CFI EndBlock cfiPicker204
        REQUIRE ??Subroutine72_0
        ; // Fall through to label ??Subroutine72_0

        RSEG BANKED_CODE:CODE:NOROOT(0)
??Subroutine72_0:
        CFI Block cfiCond205 Using cfiCommon0
        CFI NoFunction
        CFI Conditional ??CrossCallReturnLabel_151
        CFI R6 load(1, XDATA, add(CFA_XSP16, literal(-16)))
        CFI VB load(1, XDATA, add(CFA_XSP16, literal(-15)))
        CFI V0 load(1, XDATA, add(CFA_XSP16, literal(-14)))
        CFI V1 load(1, XDATA, add(CFA_XSP16, literal(-13)))
        CFI V2 load(1, XDATA, add(CFA_XSP16, literal(-12)))
        CFI V3 load(1, XDATA, add(CFA_XSP16, literal(-11)))
        CFI V4 load(1, XDATA, add(CFA_XSP16, literal(-10)))
        CFI V5 load(1, XDATA, add(CFA_XSP16, literal(-9)))
        CFI V6 load(1, XDATA, add(CFA_XSP16, literal(-8)))
        CFI V7 load(1, XDATA, add(CFA_XSP16, literal(-7)))
        CFI R7 load(1, XDATA, add(CFA_XSP16, literal(-6)))
        CFI ?RET_LOW load(1, XDATA, add(CFA_XSP16, literal(-5)))
        CFI ?RET_HIGH load(1, XDATA, add(CFA_XSP16, literal(-4)))
        CFI ?BRET_EXT load(1, XDATA, add(CFA_XSP16, literal(-3)))
        CFI DPL0 load(1, XDATA, add(CFA_XSP16, literal(-2)))
        CFI DPH0 load(1, XDATA, add(CFA_XSP16, literal(-1)))
        CFI CFA_SP SP+0
        CFI CFA_XSP16 add(XSP16, 35)
        CFI Block cfiCond206 Using cfiCommon0
        CFI (cfiCond206) NoFunction
        CFI (cfiCond206) Conditional ??CrossCallReturnLabel_152
        CFI (cfiCond206) R6 load(1, XDATA, add(CFA_XSP16, literal(-16)))
        CFI (cfiCond206) VB load(1, XDATA, add(CFA_XSP16, literal(-15)))
        CFI (cfiCond206) V0 load(1, XDATA, add(CFA_XSP16, literal(-14)))
        CFI (cfiCond206) V1 load(1, XDATA, add(CFA_XSP16, literal(-13)))
        CFI (cfiCond206) V2 load(1, XDATA, add(CFA_XSP16, literal(-12)))
        CFI (cfiCond206) V3 load(1, XDATA, add(CFA_XSP16, literal(-11)))
        CFI (cfiCond206) V4 load(1, XDATA, add(CFA_XSP16, literal(-10)))
        CFI (cfiCond206) V5 load(1, XDATA, add(CFA_XSP16, literal(-9)))
        CFI (cfiCond206) V6 load(1, XDATA, add(CFA_XSP16, literal(-8)))
        CFI (cfiCond206) V7 load(1, XDATA, add(CFA_XSP16, literal(-7)))
        CFI (cfiCond206) R7 load(1, XDATA, add(CFA_XSP16, literal(-6)))
        CFI (cfiCond206) ?RET_LOW load(1, XDATA, add(CFA_XSP16, literal(-5)))
        CFI (cfiCond206) ?RET_HIGH load(1, XDATA, add(CFA_XSP16, literal(-4)))
        CFI (cfiCond206) ?BRET_EXT load(1, XDATA, add(CFA_XSP16, literal(-3)))
        CFI (cfiCond206) DPL0 load(1, XDATA, add(CFA_XSP16, literal(-2)))
        CFI (cfiCond206) DPH0 load(1, XDATA, add(CFA_XSP16, literal(-1)))
        CFI (cfiCond206) CFA_SP SP+0
        CFI (cfiCond206) CFA_XSP16 add(XSP16, 35)
        CFI Block cfiCond207 Using cfiCommon0
        CFI (cfiCond207) NoFunction
        CFI (cfiCond207) Conditional ??CrossCallReturnLabel_153
        CFI (cfiCond207) R6 load(1, XDATA, add(CFA_XSP16, literal(-16)))
        CFI (cfiCond207) VB load(1, XDATA, add(CFA_XSP16, literal(-15)))
        CFI (cfiCond207) V0 load(1, XDATA, add(CFA_XSP16, literal(-14)))
        CFI (cfiCond207) V1 load(1, XDATA, add(CFA_XSP16, literal(-13)))
        CFI (cfiCond207) V2 load(1, XDATA, add(CFA_XSP16, literal(-12)))
        CFI (cfiCond207) V3 load(1, XDATA, add(CFA_XSP16, literal(-11)))
        CFI (cfiCond207) V4 load(1, XDATA, add(CFA_XSP16, literal(-10)))
        CFI (cfiCond207) V5 load(1, XDATA, add(CFA_XSP16, literal(-9)))
        CFI (cfiCond207) V6 load(1, XDATA, add(CFA_XSP16, literal(-8)))
        CFI (cfiCond207) V7 load(1, XDATA, add(CFA_XSP16, literal(-7)))
        CFI (cfiCond207) R7 load(1, XDATA, add(CFA_XSP16, literal(-6)))
        CFI (cfiCond207) ?RET_LOW load(1, XDATA, add(CFA_XSP16, literal(-5)))
        CFI (cfiCond207) ?RET_HIGH load(1, XDATA, add(CFA_XSP16, literal(-4)))
        CFI (cfiCond207) ?BRET_EXT load(1, XDATA, add(CFA_XSP16, literal(-3)))
        CFI (cfiCond207) DPL0 load(1, XDATA, add(CFA_XSP16, literal(-2)))
        CFI (cfiCond207) DPH0 load(1, XDATA, add(CFA_XSP16, literal(-1)))
        CFI (cfiCond207) CFA_SP SP+-1
        CFI (cfiCond207) CFA_XSP16 add(XSP16, 35)
        CFI Block cfiCond208 Using cfiCommon0
        CFI (cfiCond208) NoFunction
        CFI (cfiCond208) Conditional ??CrossCallReturnLabel_154
        CFI (cfiCond208) R6 load(1, XDATA, add(CFA_XSP16, literal(-16)))
        CFI (cfiCond208) VB load(1, XDATA, add(CFA_XSP16, literal(-15)))
        CFI (cfiCond208) V0 load(1, XDATA, add(CFA_XSP16, literal(-14)))
        CFI (cfiCond208) V1 load(1, XDATA, add(CFA_XSP16, literal(-13)))
        CFI (cfiCond208) V2 load(1, XDATA, add(CFA_XSP16, literal(-12)))
        CFI (cfiCond208) V3 load(1, XDATA, add(CFA_XSP16, literal(-11)))
        CFI (cfiCond208) V4 load(1, XDATA, add(CFA_XSP16, literal(-10)))
        CFI (cfiCond208) V5 load(1, XDATA, add(CFA_XSP16, literal(-9)))
        CFI (cfiCond208) V6 load(1, XDATA, add(CFA_XSP16, literal(-8)))
        CFI (cfiCond208) V7 load(1, XDATA, add(CFA_XSP16, literal(-7)))
        CFI (cfiCond208) R7 load(1, XDATA, add(CFA_XSP16, literal(-6)))
        CFI (cfiCond208) ?RET_LOW load(1, XDATA, add(CFA_XSP16, literal(-5)))
        CFI (cfiCond208) ?RET_HIGH load(1, XDATA, add(CFA_XSP16, literal(-4)))
        CFI (cfiCond208) ?BRET_EXT load(1, XDATA, add(CFA_XSP16, literal(-3)))
        CFI (cfiCond208) DPL0 load(1, XDATA, add(CFA_XSP16, literal(-2)))
        CFI (cfiCond208) DPH0 load(1, XDATA, add(CFA_XSP16, literal(-1)))
        CFI (cfiCond208) CFA_SP SP+-1
        CFI (cfiCond208) CFA_XSP16 add(XSP16, 35)
        CFI Block cfiCond209 Using cfiCommon0
        CFI (cfiCond209) NoFunction
        CFI (cfiCond209) Conditional ??CrossCallReturnLabel_155
        CFI (cfiCond209) R6 load(1, XDATA, add(CFA_XSP16, literal(-16)))
        CFI (cfiCond209) VB load(1, XDATA, add(CFA_XSP16, literal(-15)))
        CFI (cfiCond209) V0 load(1, XDATA, add(CFA_XSP16, literal(-14)))
        CFI (cfiCond209) V1 load(1, XDATA, add(CFA_XSP16, literal(-13)))
        CFI (cfiCond209) V2 load(1, XDATA, add(CFA_XSP16, literal(-12)))
        CFI (cfiCond209) V3 load(1, XDATA, add(CFA_XSP16, literal(-11)))
        CFI (cfiCond209) V4 load(1, XDATA, add(CFA_XSP16, literal(-10)))
        CFI (cfiCond209) V5 load(1, XDATA, add(CFA_XSP16, literal(-9)))
        CFI (cfiCond209) V6 load(1, XDATA, add(CFA_XSP16, literal(-8)))
        CFI (cfiCond209) V7 load(1, XDATA, add(CFA_XSP16, literal(-7)))
        CFI (cfiCond209) R7 load(1, XDATA, add(CFA_XSP16, literal(-6)))
        CFI (cfiCond209) ?RET_LOW load(1, XDATA, add(CFA_XSP16, literal(-5)))
        CFI (cfiCond209) ?RET_HIGH load(1, XDATA, add(CFA_XSP16, literal(-4)))
        CFI (cfiCond209) ?BRET_EXT load(1, XDATA, add(CFA_XSP16, literal(-3)))
        CFI (cfiCond209) DPL0 load(1, XDATA, add(CFA_XSP16, literal(-2)))
        CFI (cfiCond209) DPH0 load(1, XDATA, add(CFA_XSP16, literal(-1)))
        CFI (cfiCond209) CFA_SP SP+0
        CFI (cfiCond209) CFA_XSP16 add(XSP16, 35)
        CFI Block cfiCond210 Using cfiCommon0
        CFI (cfiCond210) NoFunction
        CFI (cfiCond210) Conditional ??CrossCallReturnLabel_156
        CFI (cfiCond210) R6 load(1, XDATA, add(CFA_XSP16, literal(-16)))
        CFI (cfiCond210) VB load(1, XDATA, add(CFA_XSP16, literal(-15)))
        CFI (cfiCond210) V0 load(1, XDATA, add(CFA_XSP16, literal(-14)))
        CFI (cfiCond210) V1 load(1, XDATA, add(CFA_XSP16, literal(-13)))
        CFI (cfiCond210) V2 load(1, XDATA, add(CFA_XSP16, literal(-12)))
        CFI (cfiCond210) V3 load(1, XDATA, add(CFA_XSP16, literal(-11)))
        CFI (cfiCond210) V4 load(1, XDATA, add(CFA_XSP16, literal(-10)))
        CFI (cfiCond210) V5 load(1, XDATA, add(CFA_XSP16, literal(-9)))
        CFI (cfiCond210) V6 load(1, XDATA, add(CFA_XSP16, literal(-8)))
        CFI (cfiCond210) V7 load(1, XDATA, add(CFA_XSP16, literal(-7)))
        CFI (cfiCond210) R7 load(1, XDATA, add(CFA_XSP16, literal(-6)))
        CFI (cfiCond210) ?RET_LOW load(1, XDATA, add(CFA_XSP16, literal(-5)))
        CFI (cfiCond210) ?RET_HIGH load(1, XDATA, add(CFA_XSP16, literal(-4)))
        CFI (cfiCond210) ?BRET_EXT load(1, XDATA, add(CFA_XSP16, literal(-3)))
        CFI (cfiCond210) DPL0 load(1, XDATA, add(CFA_XSP16, literal(-2)))
        CFI (cfiCond210) DPH0 load(1, XDATA, add(CFA_XSP16, literal(-1)))
        CFI (cfiCond210) CFA_SP SP+0
        CFI (cfiCond210) CFA_XSP16 add(XSP16, 35)
        CFI Block cfiCond211 Using cfiCommon0
        CFI (cfiCond211) NoFunction
        CFI (cfiCond211) Conditional ??CrossCallReturnLabel_157
        CFI (cfiCond211) R6 load(1, XDATA, add(CFA_XSP16, literal(-16)))
        CFI (cfiCond211) VB load(1, XDATA, add(CFA_XSP16, literal(-15)))
        CFI (cfiCond211) V0 load(1, XDATA, add(CFA_XSP16, literal(-14)))
        CFI (cfiCond211) V1 load(1, XDATA, add(CFA_XSP16, literal(-13)))
        CFI (cfiCond211) V2 load(1, XDATA, add(CFA_XSP16, literal(-12)))
        CFI (cfiCond211) V3 load(1, XDATA, add(CFA_XSP16, literal(-11)))
        CFI (cfiCond211) V4 load(1, XDATA, add(CFA_XSP16, literal(-10)))
        CFI (cfiCond211) V5 load(1, XDATA, add(CFA_XSP16, literal(-9)))
        CFI (cfiCond211) V6 load(1, XDATA, add(CFA_XSP16, literal(-8)))
        CFI (cfiCond211) V7 load(1, XDATA, add(CFA_XSP16, literal(-7)))
        CFI (cfiCond211) R7 load(1, XDATA, add(CFA_XSP16, literal(-6)))
        CFI (cfiCond211) ?RET_LOW load(1, XDATA, add(CFA_XSP16, literal(-5)))
        CFI (cfiCond211) ?RET_HIGH load(1, XDATA, add(CFA_XSP16, literal(-4)))
        CFI (cfiCond211) ?BRET_EXT load(1, XDATA, add(CFA_XSP16, literal(-3)))
        CFI (cfiCond211) DPL0 load(1, XDATA, add(CFA_XSP16, literal(-2)))
        CFI (cfiCond211) DPH0 load(1, XDATA, add(CFA_XSP16, literal(-1)))
        CFI (cfiCond211) CFA_SP SP+0
        CFI (cfiCond211) CFA_XSP16 add(XSP16, 25)
        CFI Block cfiCond212 Using cfiCommon0
        CFI (cfiCond212) NoFunction
        CFI (cfiCond212) Conditional ??CrossCallReturnLabel_158
        CFI (cfiCond212) R6 load(1, XDATA, add(CFA_XSP16, literal(-16)))
        CFI (cfiCond212) VB load(1, XDATA, add(CFA_XSP16, literal(-15)))
        CFI (cfiCond212) V0 load(1, XDATA, add(CFA_XSP16, literal(-14)))
        CFI (cfiCond212) V1 load(1, XDATA, add(CFA_XSP16, literal(-13)))
        CFI (cfiCond212) V2 load(1, XDATA, add(CFA_XSP16, literal(-12)))
        CFI (cfiCond212) V3 load(1, XDATA, add(CFA_XSP16, literal(-11)))
        CFI (cfiCond212) V4 load(1, XDATA, add(CFA_XSP16, literal(-10)))
        CFI (cfiCond212) V5 load(1, XDATA, add(CFA_XSP16, literal(-9)))
        CFI (cfiCond212) V6 load(1, XDATA, add(CFA_XSP16, literal(-8)))
        CFI (cfiCond212) V7 load(1, XDATA, add(CFA_XSP16, literal(-7)))
        CFI (cfiCond212) R7 load(1, XDATA, add(CFA_XSP16, literal(-6)))
        CFI (cfiCond212) ?RET_LOW load(1, XDATA, add(CFA_XSP16, literal(-5)))
        CFI (cfiCond212) ?RET_HIGH load(1, XDATA, add(CFA_XSP16, literal(-4)))
        CFI (cfiCond212) ?BRET_EXT load(1, XDATA, add(CFA_XSP16, literal(-3)))
        CFI (cfiCond212) DPL0 load(1, XDATA, add(CFA_XSP16, literal(-2)))
        CFI (cfiCond212) DPH0 load(1, XDATA, add(CFA_XSP16, literal(-1)))
        CFI (cfiCond212) CFA_SP SP+0
        CFI (cfiCond212) CFA_XSP16 add(XSP16, 22)
        CFI Block cfiCond213 Using cfiCommon0
        CFI (cfiCond213) NoFunction
        CFI (cfiCond213) Conditional ??CrossCallReturnLabel_159
        CFI (cfiCond213) R6 load(1, XDATA, add(CFA_XSP16, literal(-16)))
        CFI (cfiCond213) VB load(1, XDATA, add(CFA_XSP16, literal(-15)))
        CFI (cfiCond213) V0 load(1, XDATA, add(CFA_XSP16, literal(-14)))
        CFI (cfiCond213) V1 load(1, XDATA, add(CFA_XSP16, literal(-13)))
        CFI (cfiCond213) V2 load(1, XDATA, add(CFA_XSP16, literal(-12)))
        CFI (cfiCond213) V3 load(1, XDATA, add(CFA_XSP16, literal(-11)))
        CFI (cfiCond213) V4 load(1, XDATA, add(CFA_XSP16, literal(-10)))
        CFI (cfiCond213) V5 load(1, XDATA, add(CFA_XSP16, literal(-9)))
        CFI (cfiCond213) V6 load(1, XDATA, add(CFA_XSP16, literal(-8)))
        CFI (cfiCond213) V7 load(1, XDATA, add(CFA_XSP16, literal(-7)))
        CFI (cfiCond213) R7 load(1, XDATA, add(CFA_XSP16, literal(-6)))
        CFI (cfiCond213) ?RET_LOW load(1, XDATA, add(CFA_XSP16, literal(-5)))
        CFI (cfiCond213) ?RET_HIGH load(1, XDATA, add(CFA_XSP16, literal(-4)))
        CFI (cfiCond213) ?BRET_EXT load(1, XDATA, add(CFA_XSP16, literal(-3)))
        CFI (cfiCond213) DPL0 load(1, XDATA, add(CFA_XSP16, literal(-2)))
        CFI (cfiCond213) DPH0 load(1, XDATA, add(CFA_XSP16, literal(-1)))
        CFI (cfiCond213) CFA_SP SP+0
        CFI (cfiCond213) CFA_XSP16 add(XSP16, 35)
        CFI Block cfiCond214 Using cfiCommon0
        CFI (cfiCond214) NoFunction
        CFI (cfiCond214) Conditional ??CrossCallReturnLabel_160
        CFI (cfiCond214) R6 load(1, XDATA, add(CFA_XSP16, literal(-16)))
        CFI (cfiCond214) VB load(1, XDATA, add(CFA_XSP16, literal(-15)))
        CFI (cfiCond214) V0 load(1, XDATA, add(CFA_XSP16, literal(-14)))
        CFI (cfiCond214) V1 load(1, XDATA, add(CFA_XSP16, literal(-13)))
        CFI (cfiCond214) V2 load(1, XDATA, add(CFA_XSP16, literal(-12)))
        CFI (cfiCond214) V3 load(1, XDATA, add(CFA_XSP16, literal(-11)))
        CFI (cfiCond214) V4 load(1, XDATA, add(CFA_XSP16, literal(-10)))
        CFI (cfiCond214) V5 load(1, XDATA, add(CFA_XSP16, literal(-9)))
        CFI (cfiCond214) V6 load(1, XDATA, add(CFA_XSP16, literal(-8)))
        CFI (cfiCond214) V7 load(1, XDATA, add(CFA_XSP16, literal(-7)))
        CFI (cfiCond214) R7 load(1, XDATA, add(CFA_XSP16, literal(-6)))
        CFI (cfiCond214) ?RET_LOW load(1, XDATA, add(CFA_XSP16, literal(-5)))
        CFI (cfiCond214) ?RET_HIGH load(1, XDATA, add(CFA_XSP16, literal(-4)))
        CFI (cfiCond214) ?BRET_EXT load(1, XDATA, add(CFA_XSP16, literal(-3)))
        CFI (cfiCond214) DPL0 load(1, XDATA, add(CFA_XSP16, literal(-2)))
        CFI (cfiCond214) DPH0 load(1, XDATA, add(CFA_XSP16, literal(-1)))
        CFI (cfiCond214) CFA_SP SP+0
        CFI (cfiCond214) CFA_XSP16 add(XSP16, 24)
        CFI Block cfiPicker215 Using cfiCommon1
        CFI (cfiPicker215) NoFunction
        CFI (cfiPicker215) Picker
        LCALL   ?Subroutine54 & 0xFFFF
??CrossCallReturnLabel_212:
        RET
        CFI EndBlock cfiCond205
        CFI EndBlock cfiCond206
        CFI EndBlock cfiCond207
        CFI EndBlock cfiCond208
        CFI EndBlock cfiCond209
        CFI EndBlock cfiCond210
        CFI EndBlock cfiCond211
        CFI EndBlock cfiCond212
        CFI EndBlock cfiCond213
        CFI EndBlock cfiCond214
        CFI EndBlock cfiPicker215

        RSEG BANKED_CODE:CODE:NOROOT(0)
?Subroutine54:
        CFI Block cfiCond216 Using cfiCommon0
        CFI NoFunction
        CFI Conditional ??CrossCallReturnLabel_212, ??CrossCallReturnLabel_159
        CFI R6 load(1, XDATA, add(CFA_XSP16, literal(-16)))
        CFI VB load(1, XDATA, add(CFA_XSP16, literal(-15)))
        CFI V0 load(1, XDATA, add(CFA_XSP16, literal(-14)))
        CFI V1 load(1, XDATA, add(CFA_XSP16, literal(-13)))
        CFI V2 load(1, XDATA, add(CFA_XSP16, literal(-12)))
        CFI V3 load(1, XDATA, add(CFA_XSP16, literal(-11)))
        CFI V4 load(1, XDATA, add(CFA_XSP16, literal(-10)))
        CFI V5 load(1, XDATA, add(CFA_XSP16, literal(-9)))
        CFI V6 load(1, XDATA, add(CFA_XSP16, literal(-8)))
        CFI V7 load(1, XDATA, add(CFA_XSP16, literal(-7)))
        CFI R7 load(1, XDATA, add(CFA_XSP16, literal(-6)))
        CFI ?RET_LOW load(1, XDATA, add(CFA_XSP16, literal(-5)))
        CFI ?RET_HIGH load(1, XDATA, add(CFA_XSP16, literal(-4)))
        CFI ?BRET_EXT load(1, XDATA, add(CFA_XSP16, literal(-3)))
        CFI DPL0 load(1, XDATA, add(CFA_XSP16, literal(-2)))
        CFI DPH0 load(1, XDATA, add(CFA_XSP16, literal(-1)))
        CFI CFA_SP SP+0
        CFI CFA_XSP16 add(XSP16, 35)
        CFI Block cfiCond217 Using cfiCommon0
        CFI (cfiCond217) NoFunction
        CFI (cfiCond217) Conditional ??CrossCallReturnLabel_212, ??CrossCallReturnLabel_160
        CFI (cfiCond217) R6 load(1, XDATA, add(CFA_XSP16, literal(-16)))
        CFI (cfiCond217) VB load(1, XDATA, add(CFA_XSP16, literal(-15)))
        CFI (cfiCond217) V0 load(1, XDATA, add(CFA_XSP16, literal(-14)))
        CFI (cfiCond217) V1 load(1, XDATA, add(CFA_XSP16, literal(-13)))
        CFI (cfiCond217) V2 load(1, XDATA, add(CFA_XSP16, literal(-12)))
        CFI (cfiCond217) V3 load(1, XDATA, add(CFA_XSP16, literal(-11)))
        CFI (cfiCond217) V4 load(1, XDATA, add(CFA_XSP16, literal(-10)))
        CFI (cfiCond217) V5 load(1, XDATA, add(CFA_XSP16, literal(-9)))
        CFI (cfiCond217) V6 load(1, XDATA, add(CFA_XSP16, literal(-8)))
        CFI (cfiCond217) V7 load(1, XDATA, add(CFA_XSP16, literal(-7)))
        CFI (cfiCond217) R7 load(1, XDATA, add(CFA_XSP16, literal(-6)))
        CFI (cfiCond217) ?RET_LOW load(1, XDATA, add(CFA_XSP16, literal(-5)))
        CFI (cfiCond217) ?RET_HIGH load(1, XDATA, add(CFA_XSP16, literal(-4)))
        CFI (cfiCond217) ?BRET_EXT load(1, XDATA, add(CFA_XSP16, literal(-3)))
        CFI (cfiCond217) DPL0 load(1, XDATA, add(CFA_XSP16, literal(-2)))
        CFI (cfiCond217) DPH0 load(1, XDATA, add(CFA_XSP16, literal(-1)))
        CFI (cfiCond217) CFA_SP SP+0
        CFI (cfiCond217) CFA_XSP16 add(XSP16, 24)
        CFI Block cfiCond218 Using cfiCommon0
        CFI (cfiCond218) NoFunction
        CFI (cfiCond218) Conditional ??CrossCallReturnLabel_212, ??CrossCallReturnLabel_151
        CFI (cfiCond218) R6 load(1, XDATA, add(CFA_XSP16, literal(-16)))
        CFI (cfiCond218) VB load(1, XDATA, add(CFA_XSP16, literal(-15)))
        CFI (cfiCond218) V0 load(1, XDATA, add(CFA_XSP16, literal(-14)))
        CFI (cfiCond218) V1 load(1, XDATA, add(CFA_XSP16, literal(-13)))
        CFI (cfiCond218) V2 load(1, XDATA, add(CFA_XSP16, literal(-12)))
        CFI (cfiCond218) V3 load(1, XDATA, add(CFA_XSP16, literal(-11)))
        CFI (cfiCond218) V4 load(1, XDATA, add(CFA_XSP16, literal(-10)))
        CFI (cfiCond218) V5 load(1, XDATA, add(CFA_XSP16, literal(-9)))
        CFI (cfiCond218) V6 load(1, XDATA, add(CFA_XSP16, literal(-8)))
        CFI (cfiCond218) V7 load(1, XDATA, add(CFA_XSP16, literal(-7)))
        CFI (cfiCond218) R7 load(1, XDATA, add(CFA_XSP16, literal(-6)))
        CFI (cfiCond218) ?RET_LOW load(1, XDATA, add(CFA_XSP16, literal(-5)))
        CFI (cfiCond218) ?RET_HIGH load(1, XDATA, add(CFA_XSP16, literal(-4)))
        CFI (cfiCond218) ?BRET_EXT load(1, XDATA, add(CFA_XSP16, literal(-3)))
        CFI (cfiCond218) DPL0 load(1, XDATA, add(CFA_XSP16, literal(-2)))
        CFI (cfiCond218) DPH0 load(1, XDATA, add(CFA_XSP16, literal(-1)))
        CFI (cfiCond218) CFA_SP SP+0
        CFI (cfiCond218) CFA_XSP16 add(XSP16, 35)
        CFI Block cfiCond219 Using cfiCommon0
        CFI (cfiCond219) NoFunction
        CFI (cfiCond219) Conditional ??CrossCallReturnLabel_212, ??CrossCallReturnLabel_152
        CFI (cfiCond219) R6 load(1, XDATA, add(CFA_XSP16, literal(-16)))
        CFI (cfiCond219) VB load(1, XDATA, add(CFA_XSP16, literal(-15)))
        CFI (cfiCond219) V0 load(1, XDATA, add(CFA_XSP16, literal(-14)))
        CFI (cfiCond219) V1 load(1, XDATA, add(CFA_XSP16, literal(-13)))
        CFI (cfiCond219) V2 load(1, XDATA, add(CFA_XSP16, literal(-12)))
        CFI (cfiCond219) V3 load(1, XDATA, add(CFA_XSP16, literal(-11)))
        CFI (cfiCond219) V4 load(1, XDATA, add(CFA_XSP16, literal(-10)))
        CFI (cfiCond219) V5 load(1, XDATA, add(CFA_XSP16, literal(-9)))
        CFI (cfiCond219) V6 load(1, XDATA, add(CFA_XSP16, literal(-8)))
        CFI (cfiCond219) V7 load(1, XDATA, add(CFA_XSP16, literal(-7)))
        CFI (cfiCond219) R7 load(1, XDATA, add(CFA_XSP16, literal(-6)))
        CFI (cfiCond219) ?RET_LOW load(1, XDATA, add(CFA_XSP16, literal(-5)))
        CFI (cfiCond219) ?RET_HIGH load(1, XDATA, add(CFA_XSP16, literal(-4)))
        CFI (cfiCond219) ?BRET_EXT load(1, XDATA, add(CFA_XSP16, literal(-3)))
        CFI (cfiCond219) DPL0 load(1, XDATA, add(CFA_XSP16, literal(-2)))
        CFI (cfiCond219) DPH0 load(1, XDATA, add(CFA_XSP16, literal(-1)))
        CFI (cfiCond219) CFA_SP SP+0
        CFI (cfiCond219) CFA_XSP16 add(XSP16, 35)
        CFI Block cfiCond220 Using cfiCommon0
        CFI (cfiCond220) NoFunction
        CFI (cfiCond220) Conditional ??CrossCallReturnLabel_212, ??CrossCallReturnLabel_153
        CFI (cfiCond220) R6 load(1, XDATA, add(CFA_XSP16, literal(-16)))
        CFI (cfiCond220) VB load(1, XDATA, add(CFA_XSP16, literal(-15)))
        CFI (cfiCond220) V0 load(1, XDATA, add(CFA_XSP16, literal(-14)))
        CFI (cfiCond220) V1 load(1, XDATA, add(CFA_XSP16, literal(-13)))
        CFI (cfiCond220) V2 load(1, XDATA, add(CFA_XSP16, literal(-12)))
        CFI (cfiCond220) V3 load(1, XDATA, add(CFA_XSP16, literal(-11)))
        CFI (cfiCond220) V4 load(1, XDATA, add(CFA_XSP16, literal(-10)))
        CFI (cfiCond220) V5 load(1, XDATA, add(CFA_XSP16, literal(-9)))
        CFI (cfiCond220) V6 load(1, XDATA, add(CFA_XSP16, literal(-8)))
        CFI (cfiCond220) V7 load(1, XDATA, add(CFA_XSP16, literal(-7)))
        CFI (cfiCond220) R7 load(1, XDATA, add(CFA_XSP16, literal(-6)))
        CFI (cfiCond220) ?RET_LOW load(1, XDATA, add(CFA_XSP16, literal(-5)))
        CFI (cfiCond220) ?RET_HIGH load(1, XDATA, add(CFA_XSP16, literal(-4)))
        CFI (cfiCond220) ?BRET_EXT load(1, XDATA, add(CFA_XSP16, literal(-3)))
        CFI (cfiCond220) DPL0 load(1, XDATA, add(CFA_XSP16, literal(-2)))
        CFI (cfiCond220) DPH0 load(1, XDATA, add(CFA_XSP16, literal(-1)))
        CFI (cfiCond220) CFA_SP SP+-1
        CFI (cfiCond220) CFA_XSP16 add(XSP16, 35)
        CFI Block cfiCond221 Using cfiCommon0
        CFI (cfiCond221) NoFunction
        CFI (cfiCond221) Conditional ??CrossCallReturnLabel_212, ??CrossCallReturnLabel_154
        CFI (cfiCond221) R6 load(1, XDATA, add(CFA_XSP16, literal(-16)))
        CFI (cfiCond221) VB load(1, XDATA, add(CFA_XSP16, literal(-15)))
        CFI (cfiCond221) V0 load(1, XDATA, add(CFA_XSP16, literal(-14)))
        CFI (cfiCond221) V1 load(1, XDATA, add(CFA_XSP16, literal(-13)))
        CFI (cfiCond221) V2 load(1, XDATA, add(CFA_XSP16, literal(-12)))
        CFI (cfiCond221) V3 load(1, XDATA, add(CFA_XSP16, literal(-11)))
        CFI (cfiCond221) V4 load(1, XDATA, add(CFA_XSP16, literal(-10)))
        CFI (cfiCond221) V5 load(1, XDATA, add(CFA_XSP16, literal(-9)))
        CFI (cfiCond221) V6 load(1, XDATA, add(CFA_XSP16, literal(-8)))
        CFI (cfiCond221) V7 load(1, XDATA, add(CFA_XSP16, literal(-7)))
        CFI (cfiCond221) R7 load(1, XDATA, add(CFA_XSP16, literal(-6)))
        CFI (cfiCond221) ?RET_LOW load(1, XDATA, add(CFA_XSP16, literal(-5)))
        CFI (cfiCond221) ?RET_HIGH load(1, XDATA, add(CFA_XSP16, literal(-4)))
        CFI (cfiCond221) ?BRET_EXT load(1, XDATA, add(CFA_XSP16, literal(-3)))
        CFI (cfiCond221) DPL0 load(1, XDATA, add(CFA_XSP16, literal(-2)))
        CFI (cfiCond221) DPH0 load(1, XDATA, add(CFA_XSP16, literal(-1)))
        CFI (cfiCond221) CFA_SP SP+-1
        CFI (cfiCond221) CFA_XSP16 add(XSP16, 35)
        CFI Block cfiCond222 Using cfiCommon0
        CFI (cfiCond222) NoFunction
        CFI (cfiCond222) Conditional ??CrossCallReturnLabel_212, ??CrossCallReturnLabel_155
        CFI (cfiCond222) R6 load(1, XDATA, add(CFA_XSP16, literal(-16)))
        CFI (cfiCond222) VB load(1, XDATA, add(CFA_XSP16, literal(-15)))
        CFI (cfiCond222) V0 load(1, XDATA, add(CFA_XSP16, literal(-14)))
        CFI (cfiCond222) V1 load(1, XDATA, add(CFA_XSP16, literal(-13)))
        CFI (cfiCond222) V2 load(1, XDATA, add(CFA_XSP16, literal(-12)))
        CFI (cfiCond222) V3 load(1, XDATA, add(CFA_XSP16, literal(-11)))
        CFI (cfiCond222) V4 load(1, XDATA, add(CFA_XSP16, literal(-10)))
        CFI (cfiCond222) V5 load(1, XDATA, add(CFA_XSP16, literal(-9)))
        CFI (cfiCond222) V6 load(1, XDATA, add(CFA_XSP16, literal(-8)))
        CFI (cfiCond222) V7 load(1, XDATA, add(CFA_XSP16, literal(-7)))
        CFI (cfiCond222) R7 load(1, XDATA, add(CFA_XSP16, literal(-6)))
        CFI (cfiCond222) ?RET_LOW load(1, XDATA, add(CFA_XSP16, literal(-5)))
        CFI (cfiCond222) ?RET_HIGH load(1, XDATA, add(CFA_XSP16, literal(-4)))
        CFI (cfiCond222) ?BRET_EXT load(1, XDATA, add(CFA_XSP16, literal(-3)))
        CFI (cfiCond222) DPL0 load(1, XDATA, add(CFA_XSP16, literal(-2)))
        CFI (cfiCond222) DPH0 load(1, XDATA, add(CFA_XSP16, literal(-1)))
        CFI (cfiCond222) CFA_SP SP+0
        CFI (cfiCond222) CFA_XSP16 add(XSP16, 35)
        CFI Block cfiCond223 Using cfiCommon0
        CFI (cfiCond223) NoFunction
        CFI (cfiCond223) Conditional ??CrossCallReturnLabel_212, ??CrossCallReturnLabel_156
        CFI (cfiCond223) R6 load(1, XDATA, add(CFA_XSP16, literal(-16)))
        CFI (cfiCond223) VB load(1, XDATA, add(CFA_XSP16, literal(-15)))
        CFI (cfiCond223) V0 load(1, XDATA, add(CFA_XSP16, literal(-14)))
        CFI (cfiCond223) V1 load(1, XDATA, add(CFA_XSP16, literal(-13)))
        CFI (cfiCond223) V2 load(1, XDATA, add(CFA_XSP16, literal(-12)))
        CFI (cfiCond223) V3 load(1, XDATA, add(CFA_XSP16, literal(-11)))
        CFI (cfiCond223) V4 load(1, XDATA, add(CFA_XSP16, literal(-10)))
        CFI (cfiCond223) V5 load(1, XDATA, add(CFA_XSP16, literal(-9)))
        CFI (cfiCond223) V6 load(1, XDATA, add(CFA_XSP16, literal(-8)))
        CFI (cfiCond223) V7 load(1, XDATA, add(CFA_XSP16, literal(-7)))
        CFI (cfiCond223) R7 load(1, XDATA, add(CFA_XSP16, literal(-6)))
        CFI (cfiCond223) ?RET_LOW load(1, XDATA, add(CFA_XSP16, literal(-5)))
        CFI (cfiCond223) ?RET_HIGH load(1, XDATA, add(CFA_XSP16, literal(-4)))
        CFI (cfiCond223) ?BRET_EXT load(1, XDATA, add(CFA_XSP16, literal(-3)))
        CFI (cfiCond223) DPL0 load(1, XDATA, add(CFA_XSP16, literal(-2)))
        CFI (cfiCond223) DPH0 load(1, XDATA, add(CFA_XSP16, literal(-1)))
        CFI (cfiCond223) CFA_SP SP+0
        CFI (cfiCond223) CFA_XSP16 add(XSP16, 35)
        CFI Block cfiCond224 Using cfiCommon0
        CFI (cfiCond224) NoFunction
        CFI (cfiCond224) Conditional ??CrossCallReturnLabel_212, ??CrossCallReturnLabel_157
        CFI (cfiCond224) R6 load(1, XDATA, add(CFA_XSP16, literal(-16)))
        CFI (cfiCond224) VB load(1, XDATA, add(CFA_XSP16, literal(-15)))
        CFI (cfiCond224) V0 load(1, XDATA, add(CFA_XSP16, literal(-14)))
        CFI (cfiCond224) V1 load(1, XDATA, add(CFA_XSP16, literal(-13)))
        CFI (cfiCond224) V2 load(1, XDATA, add(CFA_XSP16, literal(-12)))
        CFI (cfiCond224) V3 load(1, XDATA, add(CFA_XSP16, literal(-11)))
        CFI (cfiCond224) V4 load(1, XDATA, add(CFA_XSP16, literal(-10)))
        CFI (cfiCond224) V5 load(1, XDATA, add(CFA_XSP16, literal(-9)))
        CFI (cfiCond224) V6 load(1, XDATA, add(CFA_XSP16, literal(-8)))
        CFI (cfiCond224) V7 load(1, XDATA, add(CFA_XSP16, literal(-7)))
        CFI (cfiCond224) R7 load(1, XDATA, add(CFA_XSP16, literal(-6)))
        CFI (cfiCond224) ?RET_LOW load(1, XDATA, add(CFA_XSP16, literal(-5)))
        CFI (cfiCond224) ?RET_HIGH load(1, XDATA, add(CFA_XSP16, literal(-4)))
        CFI (cfiCond224) ?BRET_EXT load(1, XDATA, add(CFA_XSP16, literal(-3)))
        CFI (cfiCond224) DPL0 load(1, XDATA, add(CFA_XSP16, literal(-2)))
        CFI (cfiCond224) DPH0 load(1, XDATA, add(CFA_XSP16, literal(-1)))
        CFI (cfiCond224) CFA_SP SP+0
        CFI (cfiCond224) CFA_XSP16 add(XSP16, 25)
        CFI Block cfiCond225 Using cfiCommon0
        CFI (cfiCond225) NoFunction
        CFI (cfiCond225) Conditional ??CrossCallReturnLabel_212, ??CrossCallReturnLabel_158
        CFI (cfiCond225) R6 load(1, XDATA, add(CFA_XSP16, literal(-16)))
        CFI (cfiCond225) VB load(1, XDATA, add(CFA_XSP16, literal(-15)))
        CFI (cfiCond225) V0 load(1, XDATA, add(CFA_XSP16, literal(-14)))
        CFI (cfiCond225) V1 load(1, XDATA, add(CFA_XSP16, literal(-13)))
        CFI (cfiCond225) V2 load(1, XDATA, add(CFA_XSP16, literal(-12)))
        CFI (cfiCond225) V3 load(1, XDATA, add(CFA_XSP16, literal(-11)))
        CFI (cfiCond225) V4 load(1, XDATA, add(CFA_XSP16, literal(-10)))
        CFI (cfiCond225) V5 load(1, XDATA, add(CFA_XSP16, literal(-9)))
        CFI (cfiCond225) V6 load(1, XDATA, add(CFA_XSP16, literal(-8)))
        CFI (cfiCond225) V7 load(1, XDATA, add(CFA_XSP16, literal(-7)))
        CFI (cfiCond225) R7 load(1, XDATA, add(CFA_XSP16, literal(-6)))
        CFI (cfiCond225) ?RET_LOW load(1, XDATA, add(CFA_XSP16, literal(-5)))
        CFI (cfiCond225) ?RET_HIGH load(1, XDATA, add(CFA_XSP16, literal(-4)))
        CFI (cfiCond225) ?BRET_EXT load(1, XDATA, add(CFA_XSP16, literal(-3)))
        CFI (cfiCond225) DPL0 load(1, XDATA, add(CFA_XSP16, literal(-2)))
        CFI (cfiCond225) DPH0 load(1, XDATA, add(CFA_XSP16, literal(-1)))
        CFI (cfiCond225) CFA_SP SP+0
        CFI (cfiCond225) CFA_XSP16 add(XSP16, 22)
        CFI Block cfiCond226 Using cfiCommon0
        CFI (cfiCond226) NoFunction
        CFI (cfiCond226) Conditional ??CrossCallReturnLabel_213, ??CrossCallReturnLabel_210
        CFI (cfiCond226) R6 load(1, XDATA, add(CFA_XSP16, literal(-9)))
        CFI (cfiCond226) VB load(1, XDATA, add(CFA_XSP16, literal(-8)))
        CFI (cfiCond226) V0 load(1, XDATA, add(CFA_XSP16, literal(-7)))
        CFI (cfiCond226) R7 load(1, XDATA, add(CFA_XSP16, literal(-6)))
        CFI (cfiCond226) ?RET_LOW load(1, XDATA, add(CFA_XSP16, literal(-5)))
        CFI (cfiCond226) ?RET_HIGH load(1, XDATA, add(CFA_XSP16, literal(-4)))
        CFI (cfiCond226) ?BRET_EXT load(1, XDATA, add(CFA_XSP16, literal(-3)))
        CFI (cfiCond226) DPL0 load(1, XDATA, add(CFA_XSP16, literal(-2)))
        CFI (cfiCond226) DPH0 load(1, XDATA, add(CFA_XSP16, literal(-1)))
        CFI (cfiCond226) CFA_SP SP+0
        CFI (cfiCond226) CFA_XSP16 add(XSP16, 9)
        CFI Block cfiCond227 Using cfiCommon0
        CFI (cfiCond227) NoFunction
        CFI (cfiCond227) Conditional ??CrossCallReturnLabel_213, ??CrossCallReturnLabel_211
        CFI (cfiCond227) R6 load(1, XDATA, add(CFA_XSP16, literal(-9)))
        CFI (cfiCond227) VB load(1, XDATA, add(CFA_XSP16, literal(-8)))
        CFI (cfiCond227) V0 load(1, XDATA, add(CFA_XSP16, literal(-7)))
        CFI (cfiCond227) R7 load(1, XDATA, add(CFA_XSP16, literal(-6)))
        CFI (cfiCond227) ?RET_LOW load(1, XDATA, add(CFA_XSP16, literal(-5)))
        CFI (cfiCond227) ?RET_HIGH load(1, XDATA, add(CFA_XSP16, literal(-4)))
        CFI (cfiCond227) ?BRET_EXT load(1, XDATA, add(CFA_XSP16, literal(-3)))
        CFI (cfiCond227) DPL0 load(1, XDATA, add(CFA_XSP16, literal(-2)))
        CFI (cfiCond227) DPH0 load(1, XDATA, add(CFA_XSP16, literal(-1)))
        CFI (cfiCond227) CFA_SP SP+0
        CFI (cfiCond227) CFA_XSP16 add(XSP16, 9)
        CFI Block cfiCond228 Using cfiCommon0
        CFI (cfiCond228) NoFunction
        CFI (cfiCond228) Conditional ??CrossCallReturnLabel_213, ??CrossCallReturnLabel_207
        CFI (cfiCond228) R6 load(1, XDATA, add(CFA_XSP16, literal(-16)))
        CFI (cfiCond228) VB load(1, XDATA, add(CFA_XSP16, literal(-15)))
        CFI (cfiCond228) V0 load(1, XDATA, add(CFA_XSP16, literal(-14)))
        CFI (cfiCond228) V1 load(1, XDATA, add(CFA_XSP16, literal(-13)))
        CFI (cfiCond228) V2 load(1, XDATA, add(CFA_XSP16, literal(-12)))
        CFI (cfiCond228) V3 load(1, XDATA, add(CFA_XSP16, literal(-11)))
        CFI (cfiCond228) V4 load(1, XDATA, add(CFA_XSP16, literal(-10)))
        CFI (cfiCond228) V5 load(1, XDATA, add(CFA_XSP16, literal(-9)))
        CFI (cfiCond228) V6 load(1, XDATA, add(CFA_XSP16, literal(-8)))
        CFI (cfiCond228) V7 load(1, XDATA, add(CFA_XSP16, literal(-7)))
        CFI (cfiCond228) R7 load(1, XDATA, add(CFA_XSP16, literal(-6)))
        CFI (cfiCond228) ?RET_LOW load(1, XDATA, add(CFA_XSP16, literal(-5)))
        CFI (cfiCond228) ?RET_HIGH load(1, XDATA, add(CFA_XSP16, literal(-4)))
        CFI (cfiCond228) ?BRET_EXT load(1, XDATA, add(CFA_XSP16, literal(-3)))
        CFI (cfiCond228) DPL0 load(1, XDATA, add(CFA_XSP16, literal(-2)))
        CFI (cfiCond228) DPH0 load(1, XDATA, add(CFA_XSP16, literal(-1)))
        CFI (cfiCond228) CFA_SP SP+0
        CFI (cfiCond228) CFA_XSP16 add(XSP16, 25)
        CFI Block cfiCond229 Using cfiCommon0
        CFI (cfiCond229) NoFunction
        CFI (cfiCond229) Conditional ??CrossCallReturnLabel_213, ??CrossCallReturnLabel_208
        CFI (cfiCond229) R6 load(1, XDATA, add(CFA_XSP16, literal(-16)))
        CFI (cfiCond229) VB load(1, XDATA, add(CFA_XSP16, literal(-15)))
        CFI (cfiCond229) V0 load(1, XDATA, add(CFA_XSP16, literal(-14)))
        CFI (cfiCond229) V1 load(1, XDATA, add(CFA_XSP16, literal(-13)))
        CFI (cfiCond229) V2 load(1, XDATA, add(CFA_XSP16, literal(-12)))
        CFI (cfiCond229) V3 load(1, XDATA, add(CFA_XSP16, literal(-11)))
        CFI (cfiCond229) V4 load(1, XDATA, add(CFA_XSP16, literal(-10)))
        CFI (cfiCond229) V5 load(1, XDATA, add(CFA_XSP16, literal(-9)))
        CFI (cfiCond229) V6 load(1, XDATA, add(CFA_XSP16, literal(-8)))
        CFI (cfiCond229) V7 load(1, XDATA, add(CFA_XSP16, literal(-7)))
        CFI (cfiCond229) R7 load(1, XDATA, add(CFA_XSP16, literal(-6)))
        CFI (cfiCond229) ?RET_LOW load(1, XDATA, add(CFA_XSP16, literal(-5)))
        CFI (cfiCond229) ?RET_HIGH load(1, XDATA, add(CFA_XSP16, literal(-4)))
        CFI (cfiCond229) ?BRET_EXT load(1, XDATA, add(CFA_XSP16, literal(-3)))
        CFI (cfiCond229) DPL0 load(1, XDATA, add(CFA_XSP16, literal(-2)))
        CFI (cfiCond229) DPH0 load(1, XDATA, add(CFA_XSP16, literal(-1)))
        CFI (cfiCond229) CFA_SP SP+0
        CFI (cfiCond229) CFA_XSP16 add(XSP16, 17)
        CFI Block cfiCond230 Using cfiCommon0
        CFI (cfiCond230) NoFunction
        CFI (cfiCond230) Conditional ??CrossCallReturnLabel_213, ??CrossCallReturnLabel_209
        CFI (cfiCond230) R6 load(1, XDATA, add(CFA_XSP16, literal(-16)))
        CFI (cfiCond230) VB load(1, XDATA, add(CFA_XSP16, literal(-15)))
        CFI (cfiCond230) V0 load(1, XDATA, add(CFA_XSP16, literal(-14)))
        CFI (cfiCond230) V1 load(1, XDATA, add(CFA_XSP16, literal(-13)))
        CFI (cfiCond230) V2 load(1, XDATA, add(CFA_XSP16, literal(-12)))
        CFI (cfiCond230) V3 load(1, XDATA, add(CFA_XSP16, literal(-11)))
        CFI (cfiCond230) V4 load(1, XDATA, add(CFA_XSP16, literal(-10)))
        CFI (cfiCond230) V5 load(1, XDATA, add(CFA_XSP16, literal(-9)))
        CFI (cfiCond230) V6 load(1, XDATA, add(CFA_XSP16, literal(-8)))
        CFI (cfiCond230) V7 load(1, XDATA, add(CFA_XSP16, literal(-7)))
        CFI (cfiCond230) R7 load(1, XDATA, add(CFA_XSP16, literal(-6)))
        CFI (cfiCond230) ?RET_LOW load(1, XDATA, add(CFA_XSP16, literal(-5)))
        CFI (cfiCond230) ?RET_HIGH load(1, XDATA, add(CFA_XSP16, literal(-4)))
        CFI (cfiCond230) ?BRET_EXT load(1, XDATA, add(CFA_XSP16, literal(-3)))
        CFI (cfiCond230) DPL0 load(1, XDATA, add(CFA_XSP16, literal(-2)))
        CFI (cfiCond230) DPH0 load(1, XDATA, add(CFA_XSP16, literal(-1)))
        CFI (cfiCond230) CFA_SP SP+0
        CFI (cfiCond230) CFA_XSP16 add(XSP16, 26)
        CFI Block cfiPicker231 Using cfiCommon1
        CFI (cfiPicker231) NoFunction
        CFI (cfiPicker231) Picker
        LCALL   ?Subroutine59 & 0xFFFF
??CrossCallReturnLabel_215:
        RET
        CFI EndBlock cfiCond216
        CFI EndBlock cfiCond217
        CFI EndBlock cfiCond218
        CFI EndBlock cfiCond219
        CFI EndBlock cfiCond220
        CFI EndBlock cfiCond221
        CFI EndBlock cfiCond222
        CFI EndBlock cfiCond223
        CFI EndBlock cfiCond224
        CFI EndBlock cfiCond225
        CFI EndBlock cfiCond226
        CFI EndBlock cfiCond227
        CFI EndBlock cfiCond228
        CFI EndBlock cfiCond229
        CFI EndBlock cfiCond230
        CFI EndBlock cfiPicker231

        RSEG BANKED_CODE:CODE:NOROOT(0)
?Subroutine59:
        CFI Block cfiCond232 Using cfiCommon0
        CFI NoFunction
        CFI Conditional ??CrossCallReturnLabel_215, ??CrossCallReturnLabel_212, ??CrossCallReturnLabel_159
        CFI R6 load(1, XDATA, add(CFA_XSP16, literal(-16)))
        CFI VB load(1, XDATA, add(CFA_XSP16, literal(-15)))
        CFI V0 load(1, XDATA, add(CFA_XSP16, literal(-14)))
        CFI V1 load(1, XDATA, add(CFA_XSP16, literal(-13)))
        CFI V2 load(1, XDATA, add(CFA_XSP16, literal(-12)))
        CFI V3 load(1, XDATA, add(CFA_XSP16, literal(-11)))
        CFI V4 load(1, XDATA, add(CFA_XSP16, literal(-10)))
        CFI V5 load(1, XDATA, add(CFA_XSP16, literal(-9)))
        CFI V6 load(1, XDATA, add(CFA_XSP16, literal(-8)))
        CFI V7 load(1, XDATA, add(CFA_XSP16, literal(-7)))
        CFI R7 load(1, XDATA, add(CFA_XSP16, literal(-6)))
        CFI ?RET_LOW load(1, XDATA, add(CFA_XSP16, literal(-5)))
        CFI ?RET_HIGH load(1, XDATA, add(CFA_XSP16, literal(-4)))
        CFI ?BRET_EXT load(1, XDATA, add(CFA_XSP16, literal(-3)))
        CFI DPL0 load(1, XDATA, add(CFA_XSP16, literal(-2)))
        CFI DPH0 load(1, XDATA, add(CFA_XSP16, literal(-1)))
        CFI CFA_SP SP+0
        CFI CFA_XSP16 add(XSP16, 35)
        CFI Block cfiCond233 Using cfiCommon0
        CFI (cfiCond233) NoFunction
        CFI (cfiCond233) Conditional ??CrossCallReturnLabel_215, ??CrossCallReturnLabel_212, ??CrossCallReturnLabel_160
        CFI (cfiCond233) R6 load(1, XDATA, add(CFA_XSP16, literal(-16)))
        CFI (cfiCond233) VB load(1, XDATA, add(CFA_XSP16, literal(-15)))
        CFI (cfiCond233) V0 load(1, XDATA, add(CFA_XSP16, literal(-14)))
        CFI (cfiCond233) V1 load(1, XDATA, add(CFA_XSP16, literal(-13)))
        CFI (cfiCond233) V2 load(1, XDATA, add(CFA_XSP16, literal(-12)))
        CFI (cfiCond233) V3 load(1, XDATA, add(CFA_XSP16, literal(-11)))
        CFI (cfiCond233) V4 load(1, XDATA, add(CFA_XSP16, literal(-10)))
        CFI (cfiCond233) V5 load(1, XDATA, add(CFA_XSP16, literal(-9)))
        CFI (cfiCond233) V6 load(1, XDATA, add(CFA_XSP16, literal(-8)))
        CFI (cfiCond233) V7 load(1, XDATA, add(CFA_XSP16, literal(-7)))
        CFI (cfiCond233) R7 load(1, XDATA, add(CFA_XSP16, literal(-6)))
        CFI (cfiCond233) ?RET_LOW load(1, XDATA, add(CFA_XSP16, literal(-5)))
        CFI (cfiCond233) ?RET_HIGH load(1, XDATA, add(CFA_XSP16, literal(-4)))
        CFI (cfiCond233) ?BRET_EXT load(1, XDATA, add(CFA_XSP16, literal(-3)))
        CFI (cfiCond233) DPL0 load(1, XDATA, add(CFA_XSP16, literal(-2)))
        CFI (cfiCond233) DPH0 load(1, XDATA, add(CFA_XSP16, literal(-1)))
        CFI (cfiCond233) CFA_SP SP+0
        CFI (cfiCond233) CFA_XSP16 add(XSP16, 24)
        CFI Block cfiCond234 Using cfiCommon0
        CFI (cfiCond234) NoFunction
        CFI (cfiCond234) Conditional ??CrossCallReturnLabel_215, ??CrossCallReturnLabel_212, ??CrossCallReturnLabel_151
        CFI (cfiCond234) R6 load(1, XDATA, add(CFA_XSP16, literal(-16)))
        CFI (cfiCond234) VB load(1, XDATA, add(CFA_XSP16, literal(-15)))
        CFI (cfiCond234) V0 load(1, XDATA, add(CFA_XSP16, literal(-14)))
        CFI (cfiCond234) V1 load(1, XDATA, add(CFA_XSP16, literal(-13)))
        CFI (cfiCond234) V2 load(1, XDATA, add(CFA_XSP16, literal(-12)))
        CFI (cfiCond234) V3 load(1, XDATA, add(CFA_XSP16, literal(-11)))
        CFI (cfiCond234) V4 load(1, XDATA, add(CFA_XSP16, literal(-10)))
        CFI (cfiCond234) V5 load(1, XDATA, add(CFA_XSP16, literal(-9)))
        CFI (cfiCond234) V6 load(1, XDATA, add(CFA_XSP16, literal(-8)))
        CFI (cfiCond234) V7 load(1, XDATA, add(CFA_XSP16, literal(-7)))
        CFI (cfiCond234) R7 load(1, XDATA, add(CFA_XSP16, literal(-6)))
        CFI (cfiCond234) ?RET_LOW load(1, XDATA, add(CFA_XSP16, literal(-5)))
        CFI (cfiCond234) ?RET_HIGH load(1, XDATA, add(CFA_XSP16, literal(-4)))
        CFI (cfiCond234) ?BRET_EXT load(1, XDATA, add(CFA_XSP16, literal(-3)))
        CFI (cfiCond234) DPL0 load(1, XDATA, add(CFA_XSP16, literal(-2)))
        CFI (cfiCond234) DPH0 load(1, XDATA, add(CFA_XSP16, literal(-1)))
        CFI (cfiCond234) CFA_SP SP+0
        CFI (cfiCond234) CFA_XSP16 add(XSP16, 35)
        CFI Block cfiCond235 Using cfiCommon0
        CFI (cfiCond235) NoFunction
        CFI (cfiCond235) Conditional ??CrossCallReturnLabel_215, ??CrossCallReturnLabel_212, ??CrossCallReturnLabel_152
        CFI (cfiCond235) R6 load(1, XDATA, add(CFA_XSP16, literal(-16)))
        CFI (cfiCond235) VB load(1, XDATA, add(CFA_XSP16, literal(-15)))
        CFI (cfiCond235) V0 load(1, XDATA, add(CFA_XSP16, literal(-14)))
        CFI (cfiCond235) V1 load(1, XDATA, add(CFA_XSP16, literal(-13)))
        CFI (cfiCond235) V2 load(1, XDATA, add(CFA_XSP16, literal(-12)))
        CFI (cfiCond235) V3 load(1, XDATA, add(CFA_XSP16, literal(-11)))
        CFI (cfiCond235) V4 load(1, XDATA, add(CFA_XSP16, literal(-10)))
        CFI (cfiCond235) V5 load(1, XDATA, add(CFA_XSP16, literal(-9)))
        CFI (cfiCond235) V6 load(1, XDATA, add(CFA_XSP16, literal(-8)))
        CFI (cfiCond235) V7 load(1, XDATA, add(CFA_XSP16, literal(-7)))
        CFI (cfiCond235) R7 load(1, XDATA, add(CFA_XSP16, literal(-6)))
        CFI (cfiCond235) ?RET_LOW load(1, XDATA, add(CFA_XSP16, literal(-5)))
        CFI (cfiCond235) ?RET_HIGH load(1, XDATA, add(CFA_XSP16, literal(-4)))
        CFI (cfiCond235) ?BRET_EXT load(1, XDATA, add(CFA_XSP16, literal(-3)))
        CFI (cfiCond235) DPL0 load(1, XDATA, add(CFA_XSP16, literal(-2)))
        CFI (cfiCond235) DPH0 load(1, XDATA, add(CFA_XSP16, literal(-1)))
        CFI (cfiCond235) CFA_SP SP+0
        CFI (cfiCond235) CFA_XSP16 add(XSP16, 35)
        CFI Block cfiCond236 Using cfiCommon0
        CFI (cfiCond236) NoFunction
        CFI (cfiCond236) Conditional ??CrossCallReturnLabel_215, ??CrossCallReturnLabel_212, ??CrossCallReturnLabel_153
        CFI (cfiCond236) R6 load(1, XDATA, add(CFA_XSP16, literal(-16)))
        CFI (cfiCond236) VB load(1, XDATA, add(CFA_XSP16, literal(-15)))
        CFI (cfiCond236) V0 load(1, XDATA, add(CFA_XSP16, literal(-14)))
        CFI (cfiCond236) V1 load(1, XDATA, add(CFA_XSP16, literal(-13)))
        CFI (cfiCond236) V2 load(1, XDATA, add(CFA_XSP16, literal(-12)))
        CFI (cfiCond236) V3 load(1, XDATA, add(CFA_XSP16, literal(-11)))
        CFI (cfiCond236) V4 load(1, XDATA, add(CFA_XSP16, literal(-10)))
        CFI (cfiCond236) V5 load(1, XDATA, add(CFA_XSP16, literal(-9)))
        CFI (cfiCond236) V6 load(1, XDATA, add(CFA_XSP16, literal(-8)))
        CFI (cfiCond236) V7 load(1, XDATA, add(CFA_XSP16, literal(-7)))
        CFI (cfiCond236) R7 load(1, XDATA, add(CFA_XSP16, literal(-6)))
        CFI (cfiCond236) ?RET_LOW load(1, XDATA, add(CFA_XSP16, literal(-5)))
        CFI (cfiCond236) ?RET_HIGH load(1, XDATA, add(CFA_XSP16, literal(-4)))
        CFI (cfiCond236) ?BRET_EXT load(1, XDATA, add(CFA_XSP16, literal(-3)))
        CFI (cfiCond236) DPL0 load(1, XDATA, add(CFA_XSP16, literal(-2)))
        CFI (cfiCond236) DPH0 load(1, XDATA, add(CFA_XSP16, literal(-1)))
        CFI (cfiCond236) CFA_SP SP+-1
        CFI (cfiCond236) CFA_XSP16 add(XSP16, 35)
        CFI Block cfiCond237 Using cfiCommon0
        CFI (cfiCond237) NoFunction
        CFI (cfiCond237) Conditional ??CrossCallReturnLabel_215, ??CrossCallReturnLabel_212, ??CrossCallReturnLabel_154
        CFI (cfiCond237) R6 load(1, XDATA, add(CFA_XSP16, literal(-16)))
        CFI (cfiCond237) VB load(1, XDATA, add(CFA_XSP16, literal(-15)))
        CFI (cfiCond237) V0 load(1, XDATA, add(CFA_XSP16, literal(-14)))
        CFI (cfiCond237) V1 load(1, XDATA, add(CFA_XSP16, literal(-13)))
        CFI (cfiCond237) V2 load(1, XDATA, add(CFA_XSP16, literal(-12)))
        CFI (cfiCond237) V3 load(1, XDATA, add(CFA_XSP16, literal(-11)))
        CFI (cfiCond237) V4 load(1, XDATA, add(CFA_XSP16, literal(-10)))
        CFI (cfiCond237) V5 load(1, XDATA, add(CFA_XSP16, literal(-9)))
        CFI (cfiCond237) V6 load(1, XDATA, add(CFA_XSP16, literal(-8)))
        CFI (cfiCond237) V7 load(1, XDATA, add(CFA_XSP16, literal(-7)))
        CFI (cfiCond237) R7 load(1, XDATA, add(CFA_XSP16, literal(-6)))
        CFI (cfiCond237) ?RET_LOW load(1, XDATA, add(CFA_XSP16, literal(-5)))
        CFI (cfiCond237) ?RET_HIGH load(1, XDATA, add(CFA_XSP16, literal(-4)))
        CFI (cfiCond237) ?BRET_EXT load(1, XDATA, add(CFA_XSP16, literal(-3)))
        CFI (cfiCond237) DPL0 load(1, XDATA, add(CFA_XSP16, literal(-2)))
        CFI (cfiCond237) DPH0 load(1, XDATA, add(CFA_XSP16, literal(-1)))
        CFI (cfiCond237) CFA_SP SP+-1
        CFI (cfiCond237) CFA_XSP16 add(XSP16, 35)
        CFI Block cfiCond238 Using cfiCommon0
        CFI (cfiCond238) NoFunction
        CFI (cfiCond238) Conditional ??CrossCallReturnLabel_215, ??CrossCallReturnLabel_212, ??CrossCallReturnLabel_155
        CFI (cfiCond238) R6 load(1, XDATA, add(CFA_XSP16, literal(-16)))
        CFI (cfiCond238) VB load(1, XDATA, add(CFA_XSP16, literal(-15)))
        CFI (cfiCond238) V0 load(1, XDATA, add(CFA_XSP16, literal(-14)))
        CFI (cfiCond238) V1 load(1, XDATA, add(CFA_XSP16, literal(-13)))
        CFI (cfiCond238) V2 load(1, XDATA, add(CFA_XSP16, literal(-12)))
        CFI (cfiCond238) V3 load(1, XDATA, add(CFA_XSP16, literal(-11)))
        CFI (cfiCond238) V4 load(1, XDATA, add(CFA_XSP16, literal(-10)))
        CFI (cfiCond238) V5 load(1, XDATA, add(CFA_XSP16, literal(-9)))
        CFI (cfiCond238) V6 load(1, XDATA, add(CFA_XSP16, literal(-8)))
        CFI (cfiCond238) V7 load(1, XDATA, add(CFA_XSP16, literal(-7)))
        CFI (cfiCond238) R7 load(1, XDATA, add(CFA_XSP16, literal(-6)))
        CFI (cfiCond238) ?RET_LOW load(1, XDATA, add(CFA_XSP16, literal(-5)))
        CFI (cfiCond238) ?RET_HIGH load(1, XDATA, add(CFA_XSP16, literal(-4)))
        CFI (cfiCond238) ?BRET_EXT load(1, XDATA, add(CFA_XSP16, literal(-3)))
        CFI (cfiCond238) DPL0 load(1, XDATA, add(CFA_XSP16, literal(-2)))
        CFI (cfiCond238) DPH0 load(1, XDATA, add(CFA_XSP16, literal(-1)))
        CFI (cfiCond238) CFA_SP SP+0
        CFI (cfiCond238) CFA_XSP16 add(XSP16, 35)
        CFI Block cfiCond239 Using cfiCommon0
        CFI (cfiCond239) NoFunction
        CFI (cfiCond239) Conditional ??CrossCallReturnLabel_215, ??CrossCallReturnLabel_212, ??CrossCallReturnLabel_156
        CFI (cfiCond239) R6 load(1, XDATA, add(CFA_XSP16, literal(-16)))
        CFI (cfiCond239) VB load(1, XDATA, add(CFA_XSP16, literal(-15)))
        CFI (cfiCond239) V0 load(1, XDATA, add(CFA_XSP16, literal(-14)))
        CFI (cfiCond239) V1 load(1, XDATA, add(CFA_XSP16, literal(-13)))
        CFI (cfiCond239) V2 load(1, XDATA, add(CFA_XSP16, literal(-12)))
        CFI (cfiCond239) V3 load(1, XDATA, add(CFA_XSP16, literal(-11)))
        CFI (cfiCond239) V4 load(1, XDATA, add(CFA_XSP16, literal(-10)))
        CFI (cfiCond239) V5 load(1, XDATA, add(CFA_XSP16, literal(-9)))
        CFI (cfiCond239) V6 load(1, XDATA, add(CFA_XSP16, literal(-8)))
        CFI (cfiCond239) V7 load(1, XDATA, add(CFA_XSP16, literal(-7)))
        CFI (cfiCond239) R7 load(1, XDATA, add(CFA_XSP16, literal(-6)))
        CFI (cfiCond239) ?RET_LOW load(1, XDATA, add(CFA_XSP16, literal(-5)))
        CFI (cfiCond239) ?RET_HIGH load(1, XDATA, add(CFA_XSP16, literal(-4)))
        CFI (cfiCond239) ?BRET_EXT load(1, XDATA, add(CFA_XSP16, literal(-3)))
        CFI (cfiCond239) DPL0 load(1, XDATA, add(CFA_XSP16, literal(-2)))
        CFI (cfiCond239) DPH0 load(1, XDATA, add(CFA_XSP16, literal(-1)))
        CFI (cfiCond239) CFA_SP SP+0
        CFI (cfiCond239) CFA_XSP16 add(XSP16, 35)
        CFI Block cfiCond240 Using cfiCommon0
        CFI (cfiCond240) NoFunction
        CFI (cfiCond240) Conditional ??CrossCallReturnLabel_215, ??CrossCallReturnLabel_212, ??CrossCallReturnLabel_157
        CFI (cfiCond240) R6 load(1, XDATA, add(CFA_XSP16, literal(-16)))
        CFI (cfiCond240) VB load(1, XDATA, add(CFA_XSP16, literal(-15)))
        CFI (cfiCond240) V0 load(1, XDATA, add(CFA_XSP16, literal(-14)))
        CFI (cfiCond240) V1 load(1, XDATA, add(CFA_XSP16, literal(-13)))
        CFI (cfiCond240) V2 load(1, XDATA, add(CFA_XSP16, literal(-12)))
        CFI (cfiCond240) V3 load(1, XDATA, add(CFA_XSP16, literal(-11)))
        CFI (cfiCond240) V4 load(1, XDATA, add(CFA_XSP16, literal(-10)))
        CFI (cfiCond240) V5 load(1, XDATA, add(CFA_XSP16, literal(-9)))
        CFI (cfiCond240) V6 load(1, XDATA, add(CFA_XSP16, literal(-8)))
        CFI (cfiCond240) V7 load(1, XDATA, add(CFA_XSP16, literal(-7)))
        CFI (cfiCond240) R7 load(1, XDATA, add(CFA_XSP16, literal(-6)))
        CFI (cfiCond240) ?RET_LOW load(1, XDATA, add(CFA_XSP16, literal(-5)))
        CFI (cfiCond240) ?RET_HIGH load(1, XDATA, add(CFA_XSP16, literal(-4)))
        CFI (cfiCond240) ?BRET_EXT load(1, XDATA, add(CFA_XSP16, literal(-3)))
        CFI (cfiCond240) DPL0 load(1, XDATA, add(CFA_XSP16, literal(-2)))
        CFI (cfiCond240) DPH0 load(1, XDATA, add(CFA_XSP16, literal(-1)))
        CFI (cfiCond240) CFA_SP SP+0
        CFI (cfiCond240) CFA_XSP16 add(XSP16, 25)
        CFI Block cfiCond241 Using cfiCommon0
        CFI (cfiCond241) NoFunction
        CFI (cfiCond241) Conditional ??CrossCallReturnLabel_215, ??CrossCallReturnLabel_212, ??CrossCallReturnLabel_158
        CFI (cfiCond241) R6 load(1, XDATA, add(CFA_XSP16, literal(-16)))
        CFI (cfiCond241) VB load(1, XDATA, add(CFA_XSP16, literal(-15)))
        CFI (cfiCond241) V0 load(1, XDATA, add(CFA_XSP16, literal(-14)))
        CFI (cfiCond241) V1 load(1, XDATA, add(CFA_XSP16, literal(-13)))
        CFI (cfiCond241) V2 load(1, XDATA, add(CFA_XSP16, literal(-12)))
        CFI (cfiCond241) V3 load(1, XDATA, add(CFA_XSP16, literal(-11)))
        CFI (cfiCond241) V4 load(1, XDATA, add(CFA_XSP16, literal(-10)))
        CFI (cfiCond241) V5 load(1, XDATA, add(CFA_XSP16, literal(-9)))
        CFI (cfiCond241) V6 load(1, XDATA, add(CFA_XSP16, literal(-8)))
        CFI (cfiCond241) V7 load(1, XDATA, add(CFA_XSP16, literal(-7)))
        CFI (cfiCond241) R7 load(1, XDATA, add(CFA_XSP16, literal(-6)))
        CFI (cfiCond241) ?RET_LOW load(1, XDATA, add(CFA_XSP16, literal(-5)))
        CFI (cfiCond241) ?RET_HIGH load(1, XDATA, add(CFA_XSP16, literal(-4)))
        CFI (cfiCond241) ?BRET_EXT load(1, XDATA, add(CFA_XSP16, literal(-3)))
        CFI (cfiCond241) DPL0 load(1, XDATA, add(CFA_XSP16, literal(-2)))
        CFI (cfiCond241) DPH0 load(1, XDATA, add(CFA_XSP16, literal(-1)))
        CFI (cfiCond241) CFA_SP SP+0
        CFI (cfiCond241) CFA_XSP16 add(XSP16, 22)
        CFI Block cfiCond242 Using cfiCommon0
        CFI (cfiCond242) NoFunction
        CFI (cfiCond242) Conditional ??CrossCallReturnLabel_215, ??CrossCallReturnLabel_213, ??CrossCallReturnLabel_210
        CFI (cfiCond242) R6 load(1, XDATA, add(CFA_XSP16, literal(-9)))
        CFI (cfiCond242) VB load(1, XDATA, add(CFA_XSP16, literal(-8)))
        CFI (cfiCond242) V0 load(1, XDATA, add(CFA_XSP16, literal(-7)))
        CFI (cfiCond242) R7 load(1, XDATA, add(CFA_XSP16, literal(-6)))
        CFI (cfiCond242) ?RET_LOW load(1, XDATA, add(CFA_XSP16, literal(-5)))
        CFI (cfiCond242) ?RET_HIGH load(1, XDATA, add(CFA_XSP16, literal(-4)))
        CFI (cfiCond242) ?BRET_EXT load(1, XDATA, add(CFA_XSP16, literal(-3)))
        CFI (cfiCond242) DPL0 load(1, XDATA, add(CFA_XSP16, literal(-2)))
        CFI (cfiCond242) DPH0 load(1, XDATA, add(CFA_XSP16, literal(-1)))
        CFI (cfiCond242) CFA_SP SP+0
        CFI (cfiCond242) CFA_XSP16 add(XSP16, 9)
        CFI Block cfiCond243 Using cfiCommon0
        CFI (cfiCond243) NoFunction
        CFI (cfiCond243) Conditional ??CrossCallReturnLabel_215, ??CrossCallReturnLabel_213, ??CrossCallReturnLabel_211
        CFI (cfiCond243) R6 load(1, XDATA, add(CFA_XSP16, literal(-9)))
        CFI (cfiCond243) VB load(1, XDATA, add(CFA_XSP16, literal(-8)))
        CFI (cfiCond243) V0 load(1, XDATA, add(CFA_XSP16, literal(-7)))
        CFI (cfiCond243) R7 load(1, XDATA, add(CFA_XSP16, literal(-6)))
        CFI (cfiCond243) ?RET_LOW load(1, XDATA, add(CFA_XSP16, literal(-5)))
        CFI (cfiCond243) ?RET_HIGH load(1, XDATA, add(CFA_XSP16, literal(-4)))
        CFI (cfiCond243) ?BRET_EXT load(1, XDATA, add(CFA_XSP16, literal(-3)))
        CFI (cfiCond243) DPL0 load(1, XDATA, add(CFA_XSP16, literal(-2)))
        CFI (cfiCond243) DPH0 load(1, XDATA, add(CFA_XSP16, literal(-1)))
        CFI (cfiCond243) CFA_SP SP+0
        CFI (cfiCond243) CFA_XSP16 add(XSP16, 9)
        CFI Block cfiCond244 Using cfiCommon0
        CFI (cfiCond244) NoFunction
        CFI (cfiCond244) Conditional ??CrossCallReturnLabel_215, ??CrossCallReturnLabel_213, ??CrossCallReturnLabel_207
        CFI (cfiCond244) R6 load(1, XDATA, add(CFA_XSP16, literal(-16)))
        CFI (cfiCond244) VB load(1, XDATA, add(CFA_XSP16, literal(-15)))
        CFI (cfiCond244) V0 load(1, XDATA, add(CFA_XSP16, literal(-14)))
        CFI (cfiCond244) V1 load(1, XDATA, add(CFA_XSP16, literal(-13)))
        CFI (cfiCond244) V2 load(1, XDATA, add(CFA_XSP16, literal(-12)))
        CFI (cfiCond244) V3 load(1, XDATA, add(CFA_XSP16, literal(-11)))
        CFI (cfiCond244) V4 load(1, XDATA, add(CFA_XSP16, literal(-10)))
        CFI (cfiCond244) V5 load(1, XDATA, add(CFA_XSP16, literal(-9)))
        CFI (cfiCond244) V6 load(1, XDATA, add(CFA_XSP16, literal(-8)))
        CFI (cfiCond244) V7 load(1, XDATA, add(CFA_XSP16, literal(-7)))
        CFI (cfiCond244) R7 load(1, XDATA, add(CFA_XSP16, literal(-6)))
        CFI (cfiCond244) ?RET_LOW load(1, XDATA, add(CFA_XSP16, literal(-5)))
        CFI (cfiCond244) ?RET_HIGH load(1, XDATA, add(CFA_XSP16, literal(-4)))
        CFI (cfiCond244) ?BRET_EXT load(1, XDATA, add(CFA_XSP16, literal(-3)))
        CFI (cfiCond244) DPL0 load(1, XDATA, add(CFA_XSP16, literal(-2)))
        CFI (cfiCond244) DPH0 load(1, XDATA, add(CFA_XSP16, literal(-1)))
        CFI (cfiCond244) CFA_SP SP+0
        CFI (cfiCond244) CFA_XSP16 add(XSP16, 25)
        CFI Block cfiCond245 Using cfiCommon0
        CFI (cfiCond245) NoFunction
        CFI (cfiCond245) Conditional ??CrossCallReturnLabel_215, ??CrossCallReturnLabel_213, ??CrossCallReturnLabel_208
        CFI (cfiCond245) R6 load(1, XDATA, add(CFA_XSP16, literal(-16)))
        CFI (cfiCond245) VB load(1, XDATA, add(CFA_XSP16, literal(-15)))
        CFI (cfiCond245) V0 load(1, XDATA, add(CFA_XSP16, literal(-14)))
        CFI (cfiCond245) V1 load(1, XDATA, add(CFA_XSP16, literal(-13)))
        CFI (cfiCond245) V2 load(1, XDATA, add(CFA_XSP16, literal(-12)))
        CFI (cfiCond245) V3 load(1, XDATA, add(CFA_XSP16, literal(-11)))
        CFI (cfiCond245) V4 load(1, XDATA, add(CFA_XSP16, literal(-10)))
        CFI (cfiCond245) V5 load(1, XDATA, add(CFA_XSP16, literal(-9)))
        CFI (cfiCond245) V6 load(1, XDATA, add(CFA_XSP16, literal(-8)))
        CFI (cfiCond245) V7 load(1, XDATA, add(CFA_XSP16, literal(-7)))
        CFI (cfiCond245) R7 load(1, XDATA, add(CFA_XSP16, literal(-6)))
        CFI (cfiCond245) ?RET_LOW load(1, XDATA, add(CFA_XSP16, literal(-5)))
        CFI (cfiCond245) ?RET_HIGH load(1, XDATA, add(CFA_XSP16, literal(-4)))
        CFI (cfiCond245) ?BRET_EXT load(1, XDATA, add(CFA_XSP16, literal(-3)))
        CFI (cfiCond245) DPL0 load(1, XDATA, add(CFA_XSP16, literal(-2)))
        CFI (cfiCond245) DPH0 load(1, XDATA, add(CFA_XSP16, literal(-1)))
        CFI (cfiCond245) CFA_SP SP+0
        CFI (cfiCond245) CFA_XSP16 add(XSP16, 17)
        CFI Block cfiCond246 Using cfiCommon0
        CFI (cfiCond246) NoFunction
        CFI (cfiCond246) Conditional ??CrossCallReturnLabel_215, ??CrossCallReturnLabel_213, ??CrossCallReturnLabel_209
        CFI (cfiCond246) R6 load(1, XDATA, add(CFA_XSP16, literal(-16)))
        CFI (cfiCond246) VB load(1, XDATA, add(CFA_XSP16, literal(-15)))
        CFI (cfiCond246) V0 load(1, XDATA, add(CFA_XSP16, literal(-14)))
        CFI (cfiCond246) V1 load(1, XDATA, add(CFA_XSP16, literal(-13)))
        CFI (cfiCond246) V2 load(1, XDATA, add(CFA_XSP16, literal(-12)))
        CFI (cfiCond246) V3 load(1, XDATA, add(CFA_XSP16, literal(-11)))
        CFI (cfiCond246) V4 load(1, XDATA, add(CFA_XSP16, literal(-10)))
        CFI (cfiCond246) V5 load(1, XDATA, add(CFA_XSP16, literal(-9)))
        CFI (cfiCond246) V6 load(1, XDATA, add(CFA_XSP16, literal(-8)))
        CFI (cfiCond246) V7 load(1, XDATA, add(CFA_XSP16, literal(-7)))
        CFI (cfiCond246) R7 load(1, XDATA, add(CFA_XSP16, literal(-6)))
        CFI (cfiCond246) ?RET_LOW load(1, XDATA, add(CFA_XSP16, literal(-5)))
        CFI (cfiCond246) ?RET_HIGH load(1, XDATA, add(CFA_XSP16, literal(-4)))
        CFI (cfiCond246) ?BRET_EXT load(1, XDATA, add(CFA_XSP16, literal(-3)))
        CFI (cfiCond246) DPL0 load(1, XDATA, add(CFA_XSP16, literal(-2)))
        CFI (cfiCond246) DPH0 load(1, XDATA, add(CFA_XSP16, literal(-1)))
        CFI (cfiCond246) CFA_SP SP+0
        CFI (cfiCond246) CFA_XSP16 add(XSP16, 26)
        CFI Block cfiCond247 Using cfiCommon0
        CFI (cfiCond247) NoFunction
        CFI (cfiCond247) Conditional ??CrossCallReturnLabel_214, ??CrossCallReturnLabel_96, ??CrossCallReturnLabel_10
        CFI (cfiCond247) R6 load(1, XDATA, add(CFA_XSP16, literal(-16)))
        CFI (cfiCond247) VB load(1, XDATA, add(CFA_XSP16, literal(-15)))
        CFI (cfiCond247) V0 load(1, XDATA, add(CFA_XSP16, literal(-14)))
        CFI (cfiCond247) V1 load(1, XDATA, add(CFA_XSP16, literal(-13)))
        CFI (cfiCond247) V2 load(1, XDATA, add(CFA_XSP16, literal(-12)))
        CFI (cfiCond247) V3 load(1, XDATA, add(CFA_XSP16, literal(-11)))
        CFI (cfiCond247) V4 load(1, XDATA, add(CFA_XSP16, literal(-10)))
        CFI (cfiCond247) V5 load(1, XDATA, add(CFA_XSP16, literal(-9)))
        CFI (cfiCond247) V6 load(1, XDATA, add(CFA_XSP16, literal(-8)))
        CFI (cfiCond247) V7 load(1, XDATA, add(CFA_XSP16, literal(-7)))
        CFI (cfiCond247) R7 load(1, XDATA, add(CFA_XSP16, literal(-6)))
        CFI (cfiCond247) ?RET_LOW load(1, XDATA, add(CFA_XSP16, literal(-5)))
        CFI (cfiCond247) ?RET_HIGH load(1, XDATA, add(CFA_XSP16, literal(-4)))
        CFI (cfiCond247) ?BRET_EXT load(1, XDATA, add(CFA_XSP16, literal(-3)))
        CFI (cfiCond247) DPL0 load(1, XDATA, add(CFA_XSP16, literal(-2)))
        CFI (cfiCond247) DPH0 load(1, XDATA, add(CFA_XSP16, literal(-1)))
        CFI (cfiCond247) CFA_SP SP+0
        CFI (cfiCond247) CFA_XSP16 add(XSP16, 25)
        CFI Block cfiCond248 Using cfiCommon0
        CFI (cfiCond248) NoFunction
        CFI (cfiCond248) Conditional ??CrossCallReturnLabel_214, ??CrossCallReturnLabel_96, ??CrossCallReturnLabel_11
        CFI (cfiCond248) R6 load(1, XDATA, add(CFA_XSP16, literal(-16)))
        CFI (cfiCond248) VB load(1, XDATA, add(CFA_XSP16, literal(-15)))
        CFI (cfiCond248) V0 load(1, XDATA, add(CFA_XSP16, literal(-14)))
        CFI (cfiCond248) V1 load(1, XDATA, add(CFA_XSP16, literal(-13)))
        CFI (cfiCond248) V2 load(1, XDATA, add(CFA_XSP16, literal(-12)))
        CFI (cfiCond248) V3 load(1, XDATA, add(CFA_XSP16, literal(-11)))
        CFI (cfiCond248) V4 load(1, XDATA, add(CFA_XSP16, literal(-10)))
        CFI (cfiCond248) V5 load(1, XDATA, add(CFA_XSP16, literal(-9)))
        CFI (cfiCond248) V6 load(1, XDATA, add(CFA_XSP16, literal(-8)))
        CFI (cfiCond248) V7 load(1, XDATA, add(CFA_XSP16, literal(-7)))
        CFI (cfiCond248) R7 load(1, XDATA, add(CFA_XSP16, literal(-6)))
        CFI (cfiCond248) ?RET_LOW load(1, XDATA, add(CFA_XSP16, literal(-5)))
        CFI (cfiCond248) ?RET_HIGH load(1, XDATA, add(CFA_XSP16, literal(-4)))
        CFI (cfiCond248) ?BRET_EXT load(1, XDATA, add(CFA_XSP16, literal(-3)))
        CFI (cfiCond248) DPL0 load(1, XDATA, add(CFA_XSP16, literal(-2)))
        CFI (cfiCond248) DPH0 load(1, XDATA, add(CFA_XSP16, literal(-1)))
        CFI (cfiCond248) CFA_SP SP+0
        CFI (cfiCond248) CFA_XSP16 add(XSP16, 25)
        CFI Block cfiCond249 Using cfiCommon0
        CFI (cfiCond249) NoFunction
        CFI (cfiCond249) Conditional ??CrossCallReturnLabel_214, ??CrossCallReturnLabel_95, ??CrossCallReturnLabel_0
        CFI (cfiCond249) R6 load(1, XDATA, add(CFA_XSP16, literal(-16)))
        CFI (cfiCond249) VB load(1, XDATA, add(CFA_XSP16, literal(-15)))
        CFI (cfiCond249) V0 load(1, XDATA, add(CFA_XSP16, literal(-14)))
        CFI (cfiCond249) V1 load(1, XDATA, add(CFA_XSP16, literal(-13)))
        CFI (cfiCond249) V2 load(1, XDATA, add(CFA_XSP16, literal(-12)))
        CFI (cfiCond249) V3 load(1, XDATA, add(CFA_XSP16, literal(-11)))
        CFI (cfiCond249) V4 load(1, XDATA, add(CFA_XSP16, literal(-10)))
        CFI (cfiCond249) V5 load(1, XDATA, add(CFA_XSP16, literal(-9)))
        CFI (cfiCond249) V6 load(1, XDATA, add(CFA_XSP16, literal(-8)))
        CFI (cfiCond249) V7 load(1, XDATA, add(CFA_XSP16, literal(-7)))
        CFI (cfiCond249) R7 load(1, XDATA, add(CFA_XSP16, literal(-6)))
        CFI (cfiCond249) ?RET_LOW load(1, XDATA, add(CFA_XSP16, literal(-5)))
        CFI (cfiCond249) ?RET_HIGH load(1, XDATA, add(CFA_XSP16, literal(-4)))
        CFI (cfiCond249) ?BRET_EXT load(1, XDATA, add(CFA_XSP16, literal(-3)))
        CFI (cfiCond249) DPL0 load(1, XDATA, add(CFA_XSP16, literal(-2)))
        CFI (cfiCond249) DPH0 load(1, XDATA, add(CFA_XSP16, literal(-1)))
        CFI (cfiCond249) CFA_SP SP+0
        CFI (cfiCond249) CFA_XSP16 add(XSP16, 25)
        CFI Block cfiCond250 Using cfiCommon0
        CFI (cfiCond250) NoFunction
        CFI (cfiCond250) Conditional ??CrossCallReturnLabel_214, ??CrossCallReturnLabel_95, ??CrossCallReturnLabel_1
        CFI (cfiCond250) R6 load(1, XDATA, add(CFA_XSP16, literal(-16)))
        CFI (cfiCond250) VB load(1, XDATA, add(CFA_XSP16, literal(-15)))
        CFI (cfiCond250) V0 load(1, XDATA, add(CFA_XSP16, literal(-14)))
        CFI (cfiCond250) V1 load(1, XDATA, add(CFA_XSP16, literal(-13)))
        CFI (cfiCond250) V2 load(1, XDATA, add(CFA_XSP16, literal(-12)))
        CFI (cfiCond250) V3 load(1, XDATA, add(CFA_XSP16, literal(-11)))
        CFI (cfiCond250) V4 load(1, XDATA, add(CFA_XSP16, literal(-10)))
        CFI (cfiCond250) V5 load(1, XDATA, add(CFA_XSP16, literal(-9)))
        CFI (cfiCond250) V6 load(1, XDATA, add(CFA_XSP16, literal(-8)))
        CFI (cfiCond250) V7 load(1, XDATA, add(CFA_XSP16, literal(-7)))
        CFI (cfiCond250) R7 load(1, XDATA, add(CFA_XSP16, literal(-6)))
        CFI (cfiCond250) ?RET_LOW load(1, XDATA, add(CFA_XSP16, literal(-5)))
        CFI (cfiCond250) ?RET_HIGH load(1, XDATA, add(CFA_XSP16, literal(-4)))
        CFI (cfiCond250) ?BRET_EXT load(1, XDATA, add(CFA_XSP16, literal(-3)))
        CFI (cfiCond250) DPL0 load(1, XDATA, add(CFA_XSP16, literal(-2)))
        CFI (cfiCond250) DPH0 load(1, XDATA, add(CFA_XSP16, literal(-1)))
        CFI (cfiCond250) CFA_SP SP+0
        CFI (cfiCond250) CFA_XSP16 add(XSP16, 25)
        CFI Block cfiCond251 Using cfiCommon0
        CFI (cfiCond251) NoFunction
        CFI (cfiCond251) Conditional ??CrossCallReturnLabel_214, ??CrossCallReturnLabel_95, ??CrossCallReturnLabel_2
        CFI (cfiCond251) R6 load(1, XDATA, add(CFA_XSP16, literal(-16)))
        CFI (cfiCond251) VB load(1, XDATA, add(CFA_XSP16, literal(-15)))
        CFI (cfiCond251) V0 load(1, XDATA, add(CFA_XSP16, literal(-14)))
        CFI (cfiCond251) V1 load(1, XDATA, add(CFA_XSP16, literal(-13)))
        CFI (cfiCond251) V2 load(1, XDATA, add(CFA_XSP16, literal(-12)))
        CFI (cfiCond251) V3 load(1, XDATA, add(CFA_XSP16, literal(-11)))
        CFI (cfiCond251) V4 load(1, XDATA, add(CFA_XSP16, literal(-10)))
        CFI (cfiCond251) V5 load(1, XDATA, add(CFA_XSP16, literal(-9)))
        CFI (cfiCond251) V6 load(1, XDATA, add(CFA_XSP16, literal(-8)))
        CFI (cfiCond251) V7 load(1, XDATA, add(CFA_XSP16, literal(-7)))
        CFI (cfiCond251) R7 load(1, XDATA, add(CFA_XSP16, literal(-6)))
        CFI (cfiCond251) ?RET_LOW load(1, XDATA, add(CFA_XSP16, literal(-5)))
        CFI (cfiCond251) ?RET_HIGH load(1, XDATA, add(CFA_XSP16, literal(-4)))
        CFI (cfiCond251) ?BRET_EXT load(1, XDATA, add(CFA_XSP16, literal(-3)))
        CFI (cfiCond251) DPL0 load(1, XDATA, add(CFA_XSP16, literal(-2)))
        CFI (cfiCond251) DPH0 load(1, XDATA, add(CFA_XSP16, literal(-1)))
        CFI (cfiCond251) CFA_SP SP+0
        CFI (cfiCond251) CFA_XSP16 add(XSP16, 25)
        CFI Block cfiPicker252 Using cfiCommon1
        CFI (cfiPicker252) NoFunction
        CFI (cfiPicker252) Picker
        MOV     R0,A
        INC     DPTR
        MOVX    A,@DPTR
        ADDC    A,#0x0
        MOV     R1,A
        MOV     DPL,R0
        MOV     DPH,R1
        RET
        CFI EndBlock cfiCond232
        CFI EndBlock cfiCond233
        CFI EndBlock cfiCond234
        CFI EndBlock cfiCond235
        CFI EndBlock cfiCond236
        CFI EndBlock cfiCond237
        CFI EndBlock cfiCond238
        CFI EndBlock cfiCond239
        CFI EndBlock cfiCond240
        CFI EndBlock cfiCond241
        CFI EndBlock cfiCond242
        CFI EndBlock cfiCond243
        CFI EndBlock cfiCond244
        CFI EndBlock cfiCond245
        CFI EndBlock cfiCond246
        CFI EndBlock cfiCond247
        CFI EndBlock cfiCond248
        CFI EndBlock cfiCond249
        CFI EndBlock cfiCond250
        CFI EndBlock cfiCond251
        CFI EndBlock cfiPicker252

        RSEG BANKED_CODE:CODE:NOROOT(0)
?Subroutine7:
        CFI Block cfiCond253 Using cfiCommon0
        CFI NoFunction
        CFI Conditional ??CrossCallReturnLabel_10
        CFI R6 load(1, XDATA, add(CFA_XSP16, literal(-16)))
        CFI VB load(1, XDATA, add(CFA_XSP16, literal(-15)))
        CFI V0 load(1, XDATA, add(CFA_XSP16, literal(-14)))
        CFI V1 load(1, XDATA, add(CFA_XSP16, literal(-13)))
        CFI V2 load(1, XDATA, add(CFA_XSP16, literal(-12)))
        CFI V3 load(1, XDATA, add(CFA_XSP16, literal(-11)))
        CFI V4 load(1, XDATA, add(CFA_XSP16, literal(-10)))
        CFI V5 load(1, XDATA, add(CFA_XSP16, literal(-9)))
        CFI V6 load(1, XDATA, add(CFA_XSP16, literal(-8)))
        CFI V7 load(1, XDATA, add(CFA_XSP16, literal(-7)))
        CFI R7 load(1, XDATA, add(CFA_XSP16, literal(-6)))
        CFI ?RET_LOW load(1, XDATA, add(CFA_XSP16, literal(-5)))
        CFI ?RET_HIGH load(1, XDATA, add(CFA_XSP16, literal(-4)))
        CFI ?BRET_EXT load(1, XDATA, add(CFA_XSP16, literal(-3)))
        CFI DPL0 load(1, XDATA, add(CFA_XSP16, literal(-2)))
        CFI DPH0 load(1, XDATA, add(CFA_XSP16, literal(-1)))
        CFI CFA_SP SP+0
        CFI CFA_XSP16 add(XSP16, 25)
        CFI Block cfiCond254 Using cfiCommon0
        CFI (cfiCond254) NoFunction
        CFI (cfiCond254) Conditional ??CrossCallReturnLabel_11
        CFI (cfiCond254) R6 load(1, XDATA, add(CFA_XSP16, literal(-16)))
        CFI (cfiCond254) VB load(1, XDATA, add(CFA_XSP16, literal(-15)))
        CFI (cfiCond254) V0 load(1, XDATA, add(CFA_XSP16, literal(-14)))
        CFI (cfiCond254) V1 load(1, XDATA, add(CFA_XSP16, literal(-13)))
        CFI (cfiCond254) V2 load(1, XDATA, add(CFA_XSP16, literal(-12)))
        CFI (cfiCond254) V3 load(1, XDATA, add(CFA_XSP16, literal(-11)))
        CFI (cfiCond254) V4 load(1, XDATA, add(CFA_XSP16, literal(-10)))
        CFI (cfiCond254) V5 load(1, XDATA, add(CFA_XSP16, literal(-9)))
        CFI (cfiCond254) V6 load(1, XDATA, add(CFA_XSP16, literal(-8)))
        CFI (cfiCond254) V7 load(1, XDATA, add(CFA_XSP16, literal(-7)))
        CFI (cfiCond254) R7 load(1, XDATA, add(CFA_XSP16, literal(-6)))
        CFI (cfiCond254) ?RET_LOW load(1, XDATA, add(CFA_XSP16, literal(-5)))
        CFI (cfiCond254) ?RET_HIGH load(1, XDATA, add(CFA_XSP16, literal(-4)))
        CFI (cfiCond254) ?BRET_EXT load(1, XDATA, add(CFA_XSP16, literal(-3)))
        CFI (cfiCond254) DPL0 load(1, XDATA, add(CFA_XSP16, literal(-2)))
        CFI (cfiCond254) DPH0 load(1, XDATA, add(CFA_XSP16, literal(-1)))
        CFI (cfiCond254) CFA_SP SP+0
        CFI (cfiCond254) CFA_XSP16 add(XSP16, 25)
        CFI Block cfiPicker255 Using cfiCommon1
        CFI (cfiPicker255) NoFunction
        CFI (cfiPicker255) Picker
        LCALL   ?Subroutine48 & 0xFFFF
??CrossCallReturnLabel_96:
        MOV     R6,DPL
        MOV     R7,DPH
        RET
        CFI EndBlock cfiCond253
        CFI EndBlock cfiCond254
        CFI EndBlock cfiPicker255

        RSEG BANKED_CODE:CODE:NOROOT(0)
?Subroutine5:
        CFI Block cfiCond256 Using cfiCommon0
        CFI NoFunction
        CFI Conditional ??CrossCallReturnLabel_163
        CFI R6 load(1, XDATA, add(CFA_XSP16, literal(-16)))
        CFI VB load(1, XDATA, add(CFA_XSP16, literal(-15)))
        CFI V0 load(1, XDATA, add(CFA_XSP16, literal(-14)))
        CFI V1 load(1, XDATA, add(CFA_XSP16, literal(-13)))
        CFI V2 load(1, XDATA, add(CFA_XSP16, literal(-12)))
        CFI V3 load(1, XDATA, add(CFA_XSP16, literal(-11)))
        CFI V4 load(1, XDATA, add(CFA_XSP16, literal(-10)))
        CFI V5 load(1, XDATA, add(CFA_XSP16, literal(-9)))
        CFI V6 load(1, XDATA, add(CFA_XSP16, literal(-8)))
        CFI V7 load(1, XDATA, add(CFA_XSP16, literal(-7)))
        CFI R7 load(1, XDATA, add(CFA_XSP16, literal(-6)))
        CFI ?RET_LOW load(1, XDATA, add(CFA_XSP16, literal(-5)))
        CFI ?RET_HIGH load(1, XDATA, add(CFA_XSP16, literal(-4)))
        CFI ?BRET_EXT load(1, XDATA, add(CFA_XSP16, literal(-3)))
        CFI DPL0 load(1, XDATA, add(CFA_XSP16, literal(-2)))
        CFI DPH0 load(1, XDATA, add(CFA_XSP16, literal(-1)))
        CFI CFA_SP SP+0
        CFI CFA_XSP16 add(XSP16, 25)
        CFI Block cfiCond257 Using cfiCommon0
        CFI (cfiCond257) NoFunction
        CFI (cfiCond257) Conditional ??CrossCallReturnLabel_164
        CFI (cfiCond257) R6 load(1, XDATA, add(CFA_XSP16, literal(-16)))
        CFI (cfiCond257) VB load(1, XDATA, add(CFA_XSP16, literal(-15)))
        CFI (cfiCond257) V0 load(1, XDATA, add(CFA_XSP16, literal(-14)))
        CFI (cfiCond257) V1 load(1, XDATA, add(CFA_XSP16, literal(-13)))
        CFI (cfiCond257) V2 load(1, XDATA, add(CFA_XSP16, literal(-12)))
        CFI (cfiCond257) V3 load(1, XDATA, add(CFA_XSP16, literal(-11)))
        CFI (cfiCond257) V4 load(1, XDATA, add(CFA_XSP16, literal(-10)))
        CFI (cfiCond257) V5 load(1, XDATA, add(CFA_XSP16, literal(-9)))
        CFI (cfiCond257) V6 load(1, XDATA, add(CFA_XSP16, literal(-8)))
        CFI (cfiCond257) V7 load(1, XDATA, add(CFA_XSP16, literal(-7)))
        CFI (cfiCond257) R7 load(1, XDATA, add(CFA_XSP16, literal(-6)))
        CFI (cfiCond257) ?RET_LOW load(1, XDATA, add(CFA_XSP16, literal(-5)))
        CFI (cfiCond257) ?RET_HIGH load(1, XDATA, add(CFA_XSP16, literal(-4)))
        CFI (cfiCond257) ?BRET_EXT load(1, XDATA, add(CFA_XSP16, literal(-3)))
        CFI (cfiCond257) DPL0 load(1, XDATA, add(CFA_XSP16, literal(-2)))
        CFI (cfiCond257) DPH0 load(1, XDATA, add(CFA_XSP16, literal(-1)))
        CFI (cfiCond257) CFA_SP SP+0
        CFI (cfiCond257) CFA_XSP16 add(XSP16, 25)
        CFI Block cfiPicker258 Using cfiCommon1
        CFI (cfiPicker258) NoFunction
        CFI (cfiPicker258) Picker
        MOV     DPL,R0
        MOV     DPH,R1
        CFI EndBlock cfiCond256
        CFI EndBlock cfiCond257
        CFI EndBlock cfiPicker258
        REQUIRE ??Subroutine73_0
        ; // Fall through to label ??Subroutine73_0

        RSEG BANKED_CODE:CODE:NOROOT(0)
??Subroutine73_0:
        CFI Block cfiCond259 Using cfiCommon0
        CFI NoFunction
        CFI Conditional ??CrossCallReturnLabel_162
        CFI R6 load(1, XDATA, add(CFA_XSP16, literal(-16)))
        CFI VB load(1, XDATA, add(CFA_XSP16, literal(-15)))
        CFI V0 load(1, XDATA, add(CFA_XSP16, literal(-14)))
        CFI V1 load(1, XDATA, add(CFA_XSP16, literal(-13)))
        CFI V2 load(1, XDATA, add(CFA_XSP16, literal(-12)))
        CFI V3 load(1, XDATA, add(CFA_XSP16, literal(-11)))
        CFI V4 load(1, XDATA, add(CFA_XSP16, literal(-10)))
        CFI V5 load(1, XDATA, add(CFA_XSP16, literal(-9)))
        CFI V6 load(1, XDATA, add(CFA_XSP16, literal(-8)))
        CFI V7 load(1, XDATA, add(CFA_XSP16, literal(-7)))
        CFI R7 load(1, XDATA, add(CFA_XSP16, literal(-6)))
        CFI ?RET_LOW load(1, XDATA, add(CFA_XSP16, literal(-5)))
        CFI ?RET_HIGH load(1, XDATA, add(CFA_XSP16, literal(-4)))
        CFI ?BRET_EXT load(1, XDATA, add(CFA_XSP16, literal(-3)))
        CFI DPL0 load(1, XDATA, add(CFA_XSP16, literal(-2)))
        CFI DPH0 load(1, XDATA, add(CFA_XSP16, literal(-1)))
        CFI CFA_SP SP+0
        CFI CFA_XSP16 add(XSP16, 25)
        CFI Block cfiCond260 Using cfiCommon0
        CFI (cfiCond260) NoFunction
        CFI (cfiCond260) Conditional ??CrossCallReturnLabel_163
        CFI (cfiCond260) R6 load(1, XDATA, add(CFA_XSP16, literal(-16)))
        CFI (cfiCond260) VB load(1, XDATA, add(CFA_XSP16, literal(-15)))
        CFI (cfiCond260) V0 load(1, XDATA, add(CFA_XSP16, literal(-14)))
        CFI (cfiCond260) V1 load(1, XDATA, add(CFA_XSP16, literal(-13)))
        CFI (cfiCond260) V2 load(1, XDATA, add(CFA_XSP16, literal(-12)))
        CFI (cfiCond260) V3 load(1, XDATA, add(CFA_XSP16, literal(-11)))
        CFI (cfiCond260) V4 load(1, XDATA, add(CFA_XSP16, literal(-10)))
        CFI (cfiCond260) V5 load(1, XDATA, add(CFA_XSP16, literal(-9)))
        CFI (cfiCond260) V6 load(1, XDATA, add(CFA_XSP16, literal(-8)))
        CFI (cfiCond260) V7 load(1, XDATA, add(CFA_XSP16, literal(-7)))
        CFI (cfiCond260) R7 load(1, XDATA, add(CFA_XSP16, literal(-6)))
        CFI (cfiCond260) ?RET_LOW load(1, XDATA, add(CFA_XSP16, literal(-5)))
        CFI (cfiCond260) ?RET_HIGH load(1, XDATA, add(CFA_XSP16, literal(-4)))
        CFI (cfiCond260) ?BRET_EXT load(1, XDATA, add(CFA_XSP16, literal(-3)))
        CFI (cfiCond260) DPL0 load(1, XDATA, add(CFA_XSP16, literal(-2)))
        CFI (cfiCond260) DPH0 load(1, XDATA, add(CFA_XSP16, literal(-1)))
        CFI (cfiCond260) CFA_SP SP+0
        CFI (cfiCond260) CFA_XSP16 add(XSP16, 25)
        CFI Block cfiCond261 Using cfiCommon0
        CFI (cfiCond261) NoFunction
        CFI (cfiCond261) Conditional ??CrossCallReturnLabel_164
        CFI (cfiCond261) R6 load(1, XDATA, add(CFA_XSP16, literal(-16)))
        CFI (cfiCond261) VB load(1, XDATA, add(CFA_XSP16, literal(-15)))
        CFI (cfiCond261) V0 load(1, XDATA, add(CFA_XSP16, literal(-14)))
        CFI (cfiCond261) V1 load(1, XDATA, add(CFA_XSP16, literal(-13)))
        CFI (cfiCond261) V2 load(1, XDATA, add(CFA_XSP16, literal(-12)))
        CFI (cfiCond261) V3 load(1, XDATA, add(CFA_XSP16, literal(-11)))
        CFI (cfiCond261) V4 load(1, XDATA, add(CFA_XSP16, literal(-10)))
        CFI (cfiCond261) V5 load(1, XDATA, add(CFA_XSP16, literal(-9)))
        CFI (cfiCond261) V6 load(1, XDATA, add(CFA_XSP16, literal(-8)))
        CFI (cfiCond261) V7 load(1, XDATA, add(CFA_XSP16, literal(-7)))
        CFI (cfiCond261) R7 load(1, XDATA, add(CFA_XSP16, literal(-6)))
        CFI (cfiCond261) ?RET_LOW load(1, XDATA, add(CFA_XSP16, literal(-5)))
        CFI (cfiCond261) ?RET_HIGH load(1, XDATA, add(CFA_XSP16, literal(-4)))
        CFI (cfiCond261) ?BRET_EXT load(1, XDATA, add(CFA_XSP16, literal(-3)))
        CFI (cfiCond261) DPL0 load(1, XDATA, add(CFA_XSP16, literal(-2)))
        CFI (cfiCond261) DPH0 load(1, XDATA, add(CFA_XSP16, literal(-1)))
        CFI (cfiCond261) CFA_SP SP+0
        CFI (cfiCond261) CFA_XSP16 add(XSP16, 25)
        CFI Block cfiPicker262 Using cfiCommon1
        CFI (cfiPicker262) NoFunction
        CFI (cfiPicker262) Picker
        INC     DPTR
        CFI EndBlock cfiCond259
        CFI EndBlock cfiCond260
        CFI EndBlock cfiCond261
        CFI EndBlock cfiPicker262
        REQUIRE ??Subroutine74_0
        ; // Fall through to label ??Subroutine74_0

        RSEG BANKED_CODE:CODE:NOROOT(0)
??Subroutine74_0:
        CFI Block cfiCond263 Using cfiCommon0
        CFI NoFunction
        CFI Conditional ??CrossCallReturnLabel_161
        CFI R6 load(1, XDATA, add(CFA_XSP16, literal(-16)))
        CFI VB load(1, XDATA, add(CFA_XSP16, literal(-15)))
        CFI V0 load(1, XDATA, add(CFA_XSP16, literal(-14)))
        CFI V1 load(1, XDATA, add(CFA_XSP16, literal(-13)))
        CFI V2 load(1, XDATA, add(CFA_XSP16, literal(-12)))
        CFI V3 load(1, XDATA, add(CFA_XSP16, literal(-11)))
        CFI V4 load(1, XDATA, add(CFA_XSP16, literal(-10)))
        CFI V5 load(1, XDATA, add(CFA_XSP16, literal(-9)))
        CFI V6 load(1, XDATA, add(CFA_XSP16, literal(-8)))
        CFI V7 load(1, XDATA, add(CFA_XSP16, literal(-7)))
        CFI R7 load(1, XDATA, add(CFA_XSP16, literal(-6)))
        CFI ?RET_LOW load(1, XDATA, add(CFA_XSP16, literal(-5)))
        CFI ?RET_HIGH load(1, XDATA, add(CFA_XSP16, literal(-4)))
        CFI ?BRET_EXT load(1, XDATA, add(CFA_XSP16, literal(-3)))
        CFI DPL0 load(1, XDATA, add(CFA_XSP16, literal(-2)))
        CFI DPH0 load(1, XDATA, add(CFA_XSP16, literal(-1)))
        CFI CFA_SP SP+0
        CFI CFA_XSP16 add(XSP16, 25)
        CFI Block cfiCond264 Using cfiCommon0
        CFI (cfiCond264) NoFunction
        CFI (cfiCond264) Conditional ??CrossCallReturnLabel_162
        CFI (cfiCond264) R6 load(1, XDATA, add(CFA_XSP16, literal(-16)))
        CFI (cfiCond264) VB load(1, XDATA, add(CFA_XSP16, literal(-15)))
        CFI (cfiCond264) V0 load(1, XDATA, add(CFA_XSP16, literal(-14)))
        CFI (cfiCond264) V1 load(1, XDATA, add(CFA_XSP16, literal(-13)))
        CFI (cfiCond264) V2 load(1, XDATA, add(CFA_XSP16, literal(-12)))
        CFI (cfiCond264) V3 load(1, XDATA, add(CFA_XSP16, literal(-11)))
        CFI (cfiCond264) V4 load(1, XDATA, add(CFA_XSP16, literal(-10)))
        CFI (cfiCond264) V5 load(1, XDATA, add(CFA_XSP16, literal(-9)))
        CFI (cfiCond264) V6 load(1, XDATA, add(CFA_XSP16, literal(-8)))
        CFI (cfiCond264) V7 load(1, XDATA, add(CFA_XSP16, literal(-7)))
        CFI (cfiCond264) R7 load(1, XDATA, add(CFA_XSP16, literal(-6)))
        CFI (cfiCond264) ?RET_LOW load(1, XDATA, add(CFA_XSP16, literal(-5)))
        CFI (cfiCond264) ?RET_HIGH load(1, XDATA, add(CFA_XSP16, literal(-4)))
        CFI (cfiCond264) ?BRET_EXT load(1, XDATA, add(CFA_XSP16, literal(-3)))
        CFI (cfiCond264) DPL0 load(1, XDATA, add(CFA_XSP16, literal(-2)))
        CFI (cfiCond264) DPH0 load(1, XDATA, add(CFA_XSP16, literal(-1)))
        CFI (cfiCond264) CFA_SP SP+0
        CFI (cfiCond264) CFA_XSP16 add(XSP16, 25)
        CFI Block cfiCond265 Using cfiCommon0
        CFI (cfiCond265) NoFunction
        CFI (cfiCond265) Conditional ??CrossCallReturnLabel_163
        CFI (cfiCond265) R6 load(1, XDATA, add(CFA_XSP16, literal(-16)))
        CFI (cfiCond265) VB load(1, XDATA, add(CFA_XSP16, literal(-15)))
        CFI (cfiCond265) V0 load(1, XDATA, add(CFA_XSP16, literal(-14)))
        CFI (cfiCond265) V1 load(1, XDATA, add(CFA_XSP16, literal(-13)))
        CFI (cfiCond265) V2 load(1, XDATA, add(CFA_XSP16, literal(-12)))
        CFI (cfiCond265) V3 load(1, XDATA, add(CFA_XSP16, literal(-11)))
        CFI (cfiCond265) V4 load(1, XDATA, add(CFA_XSP16, literal(-10)))
        CFI (cfiCond265) V5 load(1, XDATA, add(CFA_XSP16, literal(-9)))
        CFI (cfiCond265) V6 load(1, XDATA, add(CFA_XSP16, literal(-8)))
        CFI (cfiCond265) V7 load(1, XDATA, add(CFA_XSP16, literal(-7)))
        CFI (cfiCond265) R7 load(1, XDATA, add(CFA_XSP16, literal(-6)))
        CFI (cfiCond265) ?RET_LOW load(1, XDATA, add(CFA_XSP16, literal(-5)))
        CFI (cfiCond265) ?RET_HIGH load(1, XDATA, add(CFA_XSP16, literal(-4)))
        CFI (cfiCond265) ?BRET_EXT load(1, XDATA, add(CFA_XSP16, literal(-3)))
        CFI (cfiCond265) DPL0 load(1, XDATA, add(CFA_XSP16, literal(-2)))
        CFI (cfiCond265) DPH0 load(1, XDATA, add(CFA_XSP16, literal(-1)))
        CFI (cfiCond265) CFA_SP SP+0
        CFI (cfiCond265) CFA_XSP16 add(XSP16, 25)
        CFI Block cfiCond266 Using cfiCommon0
        CFI (cfiCond266) NoFunction
        CFI (cfiCond266) Conditional ??CrossCallReturnLabel_164
        CFI (cfiCond266) R6 load(1, XDATA, add(CFA_XSP16, literal(-16)))
        CFI (cfiCond266) VB load(1, XDATA, add(CFA_XSP16, literal(-15)))
        CFI (cfiCond266) V0 load(1, XDATA, add(CFA_XSP16, literal(-14)))
        CFI (cfiCond266) V1 load(1, XDATA, add(CFA_XSP16, literal(-13)))
        CFI (cfiCond266) V2 load(1, XDATA, add(CFA_XSP16, literal(-12)))
        CFI (cfiCond266) V3 load(1, XDATA, add(CFA_XSP16, literal(-11)))
        CFI (cfiCond266) V4 load(1, XDATA, add(CFA_XSP16, literal(-10)))
        CFI (cfiCond266) V5 load(1, XDATA, add(CFA_XSP16, literal(-9)))
        CFI (cfiCond266) V6 load(1, XDATA, add(CFA_XSP16, literal(-8)))
        CFI (cfiCond266) V7 load(1, XDATA, add(CFA_XSP16, literal(-7)))
        CFI (cfiCond266) R7 load(1, XDATA, add(CFA_XSP16, literal(-6)))
        CFI (cfiCond266) ?RET_LOW load(1, XDATA, add(CFA_XSP16, literal(-5)))
        CFI (cfiCond266) ?RET_HIGH load(1, XDATA, add(CFA_XSP16, literal(-4)))
        CFI (cfiCond266) ?BRET_EXT load(1, XDATA, add(CFA_XSP16, literal(-3)))
        CFI (cfiCond266) DPL0 load(1, XDATA, add(CFA_XSP16, literal(-2)))
        CFI (cfiCond266) DPH0 load(1, XDATA, add(CFA_XSP16, literal(-1)))
        CFI (cfiCond266) CFA_SP SP+0
        CFI (cfiCond266) CFA_XSP16 add(XSP16, 25)
        CFI Block cfiPicker267 Using cfiCommon1
        CFI (cfiPicker267) NoFunction
        CFI (cfiPicker267) Picker
        LCALL   ?Subroutine53 & 0xFFFF
??CrossCallReturnLabel_168:
        MOVX    @DPTR,A
        INC     DPTR
        INC     R6
        MOV     R7,DPH
        RET
        CFI EndBlock cfiCond263
        CFI EndBlock cfiCond264
        CFI EndBlock cfiCond265
        CFI EndBlock cfiCond266
        CFI EndBlock cfiPicker267

        RSEG BANKED_CODE:CODE:NOROOT(0)
?Subroutine4:
        CFI Block cfiCond268 Using cfiCommon0
        CFI NoFunction
        CFI Conditional ??CrossCallReturnLabel_3
        CFI R6 load(1, XDATA, add(CFA_XSP16, literal(-16)))
        CFI VB load(1, XDATA, add(CFA_XSP16, literal(-15)))
        CFI V0 load(1, XDATA, add(CFA_XSP16, literal(-14)))
        CFI V1 load(1, XDATA, add(CFA_XSP16, literal(-13)))
        CFI V2 load(1, XDATA, add(CFA_XSP16, literal(-12)))
        CFI V3 load(1, XDATA, add(CFA_XSP16, literal(-11)))
        CFI V4 load(1, XDATA, add(CFA_XSP16, literal(-10)))
        CFI V5 load(1, XDATA, add(CFA_XSP16, literal(-9)))
        CFI V6 load(1, XDATA, add(CFA_XSP16, literal(-8)))
        CFI V7 load(1, XDATA, add(CFA_XSP16, literal(-7)))
        CFI R7 load(1, XDATA, add(CFA_XSP16, literal(-6)))
        CFI ?RET_LOW load(1, XDATA, add(CFA_XSP16, literal(-5)))
        CFI ?RET_HIGH load(1, XDATA, add(CFA_XSP16, literal(-4)))
        CFI ?BRET_EXT load(1, XDATA, add(CFA_XSP16, literal(-3)))
        CFI DPL0 load(1, XDATA, add(CFA_XSP16, literal(-2)))
        CFI DPH0 load(1, XDATA, add(CFA_XSP16, literal(-1)))
        CFI CFA_SP SP+0
        CFI CFA_XSP16 add(XSP16, 25)
        CFI Block cfiCond269 Using cfiCommon0
        CFI (cfiCond269) NoFunction
        CFI (cfiCond269) Conditional ??CrossCallReturnLabel_4
        CFI (cfiCond269) R6 load(1, XDATA, add(CFA_XSP16, literal(-16)))
        CFI (cfiCond269) VB load(1, XDATA, add(CFA_XSP16, literal(-15)))
        CFI (cfiCond269) V0 load(1, XDATA, add(CFA_XSP16, literal(-14)))
        CFI (cfiCond269) V1 load(1, XDATA, add(CFA_XSP16, literal(-13)))
        CFI (cfiCond269) V2 load(1, XDATA, add(CFA_XSP16, literal(-12)))
        CFI (cfiCond269) V3 load(1, XDATA, add(CFA_XSP16, literal(-11)))
        CFI (cfiCond269) V4 load(1, XDATA, add(CFA_XSP16, literal(-10)))
        CFI (cfiCond269) V5 load(1, XDATA, add(CFA_XSP16, literal(-9)))
        CFI (cfiCond269) V6 load(1, XDATA, add(CFA_XSP16, literal(-8)))
        CFI (cfiCond269) V7 load(1, XDATA, add(CFA_XSP16, literal(-7)))
        CFI (cfiCond269) R7 load(1, XDATA, add(CFA_XSP16, literal(-6)))
        CFI (cfiCond269) ?RET_LOW load(1, XDATA, add(CFA_XSP16, literal(-5)))
        CFI (cfiCond269) ?RET_HIGH load(1, XDATA, add(CFA_XSP16, literal(-4)))
        CFI (cfiCond269) ?BRET_EXT load(1, XDATA, add(CFA_XSP16, literal(-3)))
        CFI (cfiCond269) DPL0 load(1, XDATA, add(CFA_XSP16, literal(-2)))
        CFI (cfiCond269) DPH0 load(1, XDATA, add(CFA_XSP16, literal(-1)))
        CFI (cfiCond269) CFA_SP SP+0
        CFI (cfiCond269) CFA_XSP16 add(XSP16, 25)
        CFI Block cfiCond270 Using cfiCommon0
        CFI (cfiCond270) NoFunction
        CFI (cfiCond270) Conditional ??CrossCallReturnLabel_5
        CFI (cfiCond270) R6 load(1, XDATA, add(CFA_XSP16, literal(-16)))
        CFI (cfiCond270) VB load(1, XDATA, add(CFA_XSP16, literal(-15)))
        CFI (cfiCond270) V0 load(1, XDATA, add(CFA_XSP16, literal(-14)))
        CFI (cfiCond270) V1 load(1, XDATA, add(CFA_XSP16, literal(-13)))
        CFI (cfiCond270) V2 load(1, XDATA, add(CFA_XSP16, literal(-12)))
        CFI (cfiCond270) V3 load(1, XDATA, add(CFA_XSP16, literal(-11)))
        CFI (cfiCond270) V4 load(1, XDATA, add(CFA_XSP16, literal(-10)))
        CFI (cfiCond270) V5 load(1, XDATA, add(CFA_XSP16, literal(-9)))
        CFI (cfiCond270) V6 load(1, XDATA, add(CFA_XSP16, literal(-8)))
        CFI (cfiCond270) V7 load(1, XDATA, add(CFA_XSP16, literal(-7)))
        CFI (cfiCond270) R7 load(1, XDATA, add(CFA_XSP16, literal(-6)))
        CFI (cfiCond270) ?RET_LOW load(1, XDATA, add(CFA_XSP16, literal(-5)))
        CFI (cfiCond270) ?RET_HIGH load(1, XDATA, add(CFA_XSP16, literal(-4)))
        CFI (cfiCond270) ?BRET_EXT load(1, XDATA, add(CFA_XSP16, literal(-3)))
        CFI (cfiCond270) DPL0 load(1, XDATA, add(CFA_XSP16, literal(-2)))
        CFI (cfiCond270) DPH0 load(1, XDATA, add(CFA_XSP16, literal(-1)))
        CFI (cfiCond270) CFA_SP SP+0
        CFI (cfiCond270) CFA_XSP16 add(XSP16, 25)
        CFI Block cfiCond271 Using cfiCommon0
        CFI (cfiCond271) NoFunction
        CFI (cfiCond271) Conditional ??CrossCallReturnLabel_6
        CFI (cfiCond271) R6 load(1, XDATA, add(CFA_XSP16, literal(-16)))
        CFI (cfiCond271) VB load(1, XDATA, add(CFA_XSP16, literal(-15)))
        CFI (cfiCond271) V0 load(1, XDATA, add(CFA_XSP16, literal(-14)))
        CFI (cfiCond271) V1 load(1, XDATA, add(CFA_XSP16, literal(-13)))
        CFI (cfiCond271) V2 load(1, XDATA, add(CFA_XSP16, literal(-12)))
        CFI (cfiCond271) V3 load(1, XDATA, add(CFA_XSP16, literal(-11)))
        CFI (cfiCond271) V4 load(1, XDATA, add(CFA_XSP16, literal(-10)))
        CFI (cfiCond271) V5 load(1, XDATA, add(CFA_XSP16, literal(-9)))
        CFI (cfiCond271) V6 load(1, XDATA, add(CFA_XSP16, literal(-8)))
        CFI (cfiCond271) V7 load(1, XDATA, add(CFA_XSP16, literal(-7)))
        CFI (cfiCond271) R7 load(1, XDATA, add(CFA_XSP16, literal(-6)))
        CFI (cfiCond271) ?RET_LOW load(1, XDATA, add(CFA_XSP16, literal(-5)))
        CFI (cfiCond271) ?RET_HIGH load(1, XDATA, add(CFA_XSP16, literal(-4)))
        CFI (cfiCond271) ?BRET_EXT load(1, XDATA, add(CFA_XSP16, literal(-3)))
        CFI (cfiCond271) DPL0 load(1, XDATA, add(CFA_XSP16, literal(-2)))
        CFI (cfiCond271) DPH0 load(1, XDATA, add(CFA_XSP16, literal(-1)))
        CFI (cfiCond271) CFA_SP SP+0
        CFI (cfiCond271) CFA_XSP16 add(XSP16, 25)
        CFI Block cfiPicker272 Using cfiCommon1
        CFI (cfiPicker272) NoFunction
        CFI (cfiPicker272) Picker
        LCALL   ?Subroutine49 & 0xFFFF
??CrossCallReturnLabel_97:
        MOV     R0,#?V0 + 0
        RET
        CFI EndBlock cfiCond268
        CFI EndBlock cfiCond269
        CFI EndBlock cfiCond270
        CFI EndBlock cfiCond271
        CFI EndBlock cfiPicker272

        RSEG BANKED_CODE:CODE:NOROOT(0)
?Subroutine2:
        CFI Block cfiCond273 Using cfiCommon0
        CFI NoFunction
        CFI Conditional ??CrossCallReturnLabel_0
        CFI R6 load(1, XDATA, add(CFA_XSP16, literal(-16)))
        CFI VB load(1, XDATA, add(CFA_XSP16, literal(-15)))
        CFI V0 load(1, XDATA, add(CFA_XSP16, literal(-14)))
        CFI V1 load(1, XDATA, add(CFA_XSP16, literal(-13)))
        CFI V2 load(1, XDATA, add(CFA_XSP16, literal(-12)))
        CFI V3 load(1, XDATA, add(CFA_XSP16, literal(-11)))
        CFI V4 load(1, XDATA, add(CFA_XSP16, literal(-10)))
        CFI V5 load(1, XDATA, add(CFA_XSP16, literal(-9)))
        CFI V6 load(1, XDATA, add(CFA_XSP16, literal(-8)))
        CFI V7 load(1, XDATA, add(CFA_XSP16, literal(-7)))
        CFI R7 load(1, XDATA, add(CFA_XSP16, literal(-6)))
        CFI ?RET_LOW load(1, XDATA, add(CFA_XSP16, literal(-5)))
        CFI ?RET_HIGH load(1, XDATA, add(CFA_XSP16, literal(-4)))
        CFI ?BRET_EXT load(1, XDATA, add(CFA_XSP16, literal(-3)))
        CFI DPL0 load(1, XDATA, add(CFA_XSP16, literal(-2)))
        CFI DPH0 load(1, XDATA, add(CFA_XSP16, literal(-1)))
        CFI CFA_SP SP+0
        CFI CFA_XSP16 add(XSP16, 25)
        CFI Block cfiCond274 Using cfiCommon0
        CFI (cfiCond274) NoFunction
        CFI (cfiCond274) Conditional ??CrossCallReturnLabel_1
        CFI (cfiCond274) R6 load(1, XDATA, add(CFA_XSP16, literal(-16)))
        CFI (cfiCond274) VB load(1, XDATA, add(CFA_XSP16, literal(-15)))
        CFI (cfiCond274) V0 load(1, XDATA, add(CFA_XSP16, literal(-14)))
        CFI (cfiCond274) V1 load(1, XDATA, add(CFA_XSP16, literal(-13)))
        CFI (cfiCond274) V2 load(1, XDATA, add(CFA_XSP16, literal(-12)))
        CFI (cfiCond274) V3 load(1, XDATA, add(CFA_XSP16, literal(-11)))
        CFI (cfiCond274) V4 load(1, XDATA, add(CFA_XSP16, literal(-10)))
        CFI (cfiCond274) V5 load(1, XDATA, add(CFA_XSP16, literal(-9)))
        CFI (cfiCond274) V6 load(1, XDATA, add(CFA_XSP16, literal(-8)))
        CFI (cfiCond274) V7 load(1, XDATA, add(CFA_XSP16, literal(-7)))
        CFI (cfiCond274) R7 load(1, XDATA, add(CFA_XSP16, literal(-6)))
        CFI (cfiCond274) ?RET_LOW load(1, XDATA, add(CFA_XSP16, literal(-5)))
        CFI (cfiCond274) ?RET_HIGH load(1, XDATA, add(CFA_XSP16, literal(-4)))
        CFI (cfiCond274) ?BRET_EXT load(1, XDATA, add(CFA_XSP16, literal(-3)))
        CFI (cfiCond274) DPL0 load(1, XDATA, add(CFA_XSP16, literal(-2)))
        CFI (cfiCond274) DPH0 load(1, XDATA, add(CFA_XSP16, literal(-1)))
        CFI (cfiCond274) CFA_SP SP+0
        CFI (cfiCond274) CFA_XSP16 add(XSP16, 25)
        CFI Block cfiCond275 Using cfiCommon0
        CFI (cfiCond275) NoFunction
        CFI (cfiCond275) Conditional ??CrossCallReturnLabel_2
        CFI (cfiCond275) R6 load(1, XDATA, add(CFA_XSP16, literal(-16)))
        CFI (cfiCond275) VB load(1, XDATA, add(CFA_XSP16, literal(-15)))
        CFI (cfiCond275) V0 load(1, XDATA, add(CFA_XSP16, literal(-14)))
        CFI (cfiCond275) V1 load(1, XDATA, add(CFA_XSP16, literal(-13)))
        CFI (cfiCond275) V2 load(1, XDATA, add(CFA_XSP16, literal(-12)))
        CFI (cfiCond275) V3 load(1, XDATA, add(CFA_XSP16, literal(-11)))
        CFI (cfiCond275) V4 load(1, XDATA, add(CFA_XSP16, literal(-10)))
        CFI (cfiCond275) V5 load(1, XDATA, add(CFA_XSP16, literal(-9)))
        CFI (cfiCond275) V6 load(1, XDATA, add(CFA_XSP16, literal(-8)))
        CFI (cfiCond275) V7 load(1, XDATA, add(CFA_XSP16, literal(-7)))
        CFI (cfiCond275) R7 load(1, XDATA, add(CFA_XSP16, literal(-6)))
        CFI (cfiCond275) ?RET_LOW load(1, XDATA, add(CFA_XSP16, literal(-5)))
        CFI (cfiCond275) ?RET_HIGH load(1, XDATA, add(CFA_XSP16, literal(-4)))
        CFI (cfiCond275) ?BRET_EXT load(1, XDATA, add(CFA_XSP16, literal(-3)))
        CFI (cfiCond275) DPL0 load(1, XDATA, add(CFA_XSP16, literal(-2)))
        CFI (cfiCond275) DPH0 load(1, XDATA, add(CFA_XSP16, literal(-1)))
        CFI (cfiCond275) CFA_SP SP+0
        CFI (cfiCond275) CFA_XSP16 add(XSP16, 25)
        CFI Block cfiPicker276 Using cfiCommon1
        CFI (cfiPicker276) NoFunction
        CFI (cfiPicker276) Picker
        LCALL   ?Subroutine48 & 0xFFFF
??CrossCallReturnLabel_95:
        INC     R6
        MOV     R7,DPH
        MOV     DPL,?XSP + 0
        MOV     DPH,?XSP + 1
        MOVX    A,@DPTR
        RET
        CFI EndBlock cfiCond273
        CFI EndBlock cfiCond274
        CFI EndBlock cfiCond275
        CFI EndBlock cfiPicker276

        RSEG BANKED_CODE:CODE:NOROOT(0)
?Subroutine48:
        CFI Block cfiCond277 Using cfiCommon0
        CFI NoFunction
        CFI Conditional ??CrossCallReturnLabel_96, ??CrossCallReturnLabel_10
        CFI R6 load(1, XDATA, add(CFA_XSP16, literal(-16)))
        CFI VB load(1, XDATA, add(CFA_XSP16, literal(-15)))
        CFI V0 load(1, XDATA, add(CFA_XSP16, literal(-14)))
        CFI V1 load(1, XDATA, add(CFA_XSP16, literal(-13)))
        CFI V2 load(1, XDATA, add(CFA_XSP16, literal(-12)))
        CFI V3 load(1, XDATA, add(CFA_XSP16, literal(-11)))
        CFI V4 load(1, XDATA, add(CFA_XSP16, literal(-10)))
        CFI V5 load(1, XDATA, add(CFA_XSP16, literal(-9)))
        CFI V6 load(1, XDATA, add(CFA_XSP16, literal(-8)))
        CFI V7 load(1, XDATA, add(CFA_XSP16, literal(-7)))
        CFI R7 load(1, XDATA, add(CFA_XSP16, literal(-6)))
        CFI ?RET_LOW load(1, XDATA, add(CFA_XSP16, literal(-5)))
        CFI ?RET_HIGH load(1, XDATA, add(CFA_XSP16, literal(-4)))
        CFI ?BRET_EXT load(1, XDATA, add(CFA_XSP16, literal(-3)))
        CFI DPL0 load(1, XDATA, add(CFA_XSP16, literal(-2)))
        CFI DPH0 load(1, XDATA, add(CFA_XSP16, literal(-1)))
        CFI CFA_SP SP+0
        CFI CFA_XSP16 add(XSP16, 25)
        CFI Block cfiCond278 Using cfiCommon0
        CFI (cfiCond278) NoFunction
        CFI (cfiCond278) Conditional ??CrossCallReturnLabel_96, ??CrossCallReturnLabel_11
        CFI (cfiCond278) R6 load(1, XDATA, add(CFA_XSP16, literal(-16)))
        CFI (cfiCond278) VB load(1, XDATA, add(CFA_XSP16, literal(-15)))
        CFI (cfiCond278) V0 load(1, XDATA, add(CFA_XSP16, literal(-14)))
        CFI (cfiCond278) V1 load(1, XDATA, add(CFA_XSP16, literal(-13)))
        CFI (cfiCond278) V2 load(1, XDATA, add(CFA_XSP16, literal(-12)))
        CFI (cfiCond278) V3 load(1, XDATA, add(CFA_XSP16, literal(-11)))
        CFI (cfiCond278) V4 load(1, XDATA, add(CFA_XSP16, literal(-10)))
        CFI (cfiCond278) V5 load(1, XDATA, add(CFA_XSP16, literal(-9)))
        CFI (cfiCond278) V6 load(1, XDATA, add(CFA_XSP16, literal(-8)))
        CFI (cfiCond278) V7 load(1, XDATA, add(CFA_XSP16, literal(-7)))
        CFI (cfiCond278) R7 load(1, XDATA, add(CFA_XSP16, literal(-6)))
        CFI (cfiCond278) ?RET_LOW load(1, XDATA, add(CFA_XSP16, literal(-5)))
        CFI (cfiCond278) ?RET_HIGH load(1, XDATA, add(CFA_XSP16, literal(-4)))
        CFI (cfiCond278) ?BRET_EXT load(1, XDATA, add(CFA_XSP16, literal(-3)))
        CFI (cfiCond278) DPL0 load(1, XDATA, add(CFA_XSP16, literal(-2)))
        CFI (cfiCond278) DPH0 load(1, XDATA, add(CFA_XSP16, literal(-1)))
        CFI (cfiCond278) CFA_SP SP+0
        CFI (cfiCond278) CFA_XSP16 add(XSP16, 25)
        CFI Block cfiCond279 Using cfiCommon0
        CFI (cfiCond279) NoFunction
        CFI (cfiCond279) Conditional ??CrossCallReturnLabel_95, ??CrossCallReturnLabel_0
        CFI (cfiCond279) R6 load(1, XDATA, add(CFA_XSP16, literal(-16)))
        CFI (cfiCond279) VB load(1, XDATA, add(CFA_XSP16, literal(-15)))
        CFI (cfiCond279) V0 load(1, XDATA, add(CFA_XSP16, literal(-14)))
        CFI (cfiCond279) V1 load(1, XDATA, add(CFA_XSP16, literal(-13)))
        CFI (cfiCond279) V2 load(1, XDATA, add(CFA_XSP16, literal(-12)))
        CFI (cfiCond279) V3 load(1, XDATA, add(CFA_XSP16, literal(-11)))
        CFI (cfiCond279) V4 load(1, XDATA, add(CFA_XSP16, literal(-10)))
        CFI (cfiCond279) V5 load(1, XDATA, add(CFA_XSP16, literal(-9)))
        CFI (cfiCond279) V6 load(1, XDATA, add(CFA_XSP16, literal(-8)))
        CFI (cfiCond279) V7 load(1, XDATA, add(CFA_XSP16, literal(-7)))
        CFI (cfiCond279) R7 load(1, XDATA, add(CFA_XSP16, literal(-6)))
        CFI (cfiCond279) ?RET_LOW load(1, XDATA, add(CFA_XSP16, literal(-5)))
        CFI (cfiCond279) ?RET_HIGH load(1, XDATA, add(CFA_XSP16, literal(-4)))
        CFI (cfiCond279) ?BRET_EXT load(1, XDATA, add(CFA_XSP16, literal(-3)))
        CFI (cfiCond279) DPL0 load(1, XDATA, add(CFA_XSP16, literal(-2)))
        CFI (cfiCond279) DPH0 load(1, XDATA, add(CFA_XSP16, literal(-1)))
        CFI (cfiCond279) CFA_SP SP+0
        CFI (cfiCond279) CFA_XSP16 add(XSP16, 25)
        CFI Block cfiCond280 Using cfiCommon0
        CFI (cfiCond280) NoFunction
        CFI (cfiCond280) Conditional ??CrossCallReturnLabel_95, ??CrossCallReturnLabel_1
        CFI (cfiCond280) R6 load(1, XDATA, add(CFA_XSP16, literal(-16)))
        CFI (cfiCond280) VB load(1, XDATA, add(CFA_XSP16, literal(-15)))
        CFI (cfiCond280) V0 load(1, XDATA, add(CFA_XSP16, literal(-14)))
        CFI (cfiCond280) V1 load(1, XDATA, add(CFA_XSP16, literal(-13)))
        CFI (cfiCond280) V2 load(1, XDATA, add(CFA_XSP16, literal(-12)))
        CFI (cfiCond280) V3 load(1, XDATA, add(CFA_XSP16, literal(-11)))
        CFI (cfiCond280) V4 load(1, XDATA, add(CFA_XSP16, literal(-10)))
        CFI (cfiCond280) V5 load(1, XDATA, add(CFA_XSP16, literal(-9)))
        CFI (cfiCond280) V6 load(1, XDATA, add(CFA_XSP16, literal(-8)))
        CFI (cfiCond280) V7 load(1, XDATA, add(CFA_XSP16, literal(-7)))
        CFI (cfiCond280) R7 load(1, XDATA, add(CFA_XSP16, literal(-6)))
        CFI (cfiCond280) ?RET_LOW load(1, XDATA, add(CFA_XSP16, literal(-5)))
        CFI (cfiCond280) ?RET_HIGH load(1, XDATA, add(CFA_XSP16, literal(-4)))
        CFI (cfiCond280) ?BRET_EXT load(1, XDATA, add(CFA_XSP16, literal(-3)))
        CFI (cfiCond280) DPL0 load(1, XDATA, add(CFA_XSP16, literal(-2)))
        CFI (cfiCond280) DPH0 load(1, XDATA, add(CFA_XSP16, literal(-1)))
        CFI (cfiCond280) CFA_SP SP+0
        CFI (cfiCond280) CFA_XSP16 add(XSP16, 25)
        CFI Block cfiCond281 Using cfiCommon0
        CFI (cfiCond281) NoFunction
        CFI (cfiCond281) Conditional ??CrossCallReturnLabel_95, ??CrossCallReturnLabel_2
        CFI (cfiCond281) R6 load(1, XDATA, add(CFA_XSP16, literal(-16)))
        CFI (cfiCond281) VB load(1, XDATA, add(CFA_XSP16, literal(-15)))
        CFI (cfiCond281) V0 load(1, XDATA, add(CFA_XSP16, literal(-14)))
        CFI (cfiCond281) V1 load(1, XDATA, add(CFA_XSP16, literal(-13)))
        CFI (cfiCond281) V2 load(1, XDATA, add(CFA_XSP16, literal(-12)))
        CFI (cfiCond281) V3 load(1, XDATA, add(CFA_XSP16, literal(-11)))
        CFI (cfiCond281) V4 load(1, XDATA, add(CFA_XSP16, literal(-10)))
        CFI (cfiCond281) V5 load(1, XDATA, add(CFA_XSP16, literal(-9)))
        CFI (cfiCond281) V6 load(1, XDATA, add(CFA_XSP16, literal(-8)))
        CFI (cfiCond281) V7 load(1, XDATA, add(CFA_XSP16, literal(-7)))
        CFI (cfiCond281) R7 load(1, XDATA, add(CFA_XSP16, literal(-6)))
        CFI (cfiCond281) ?RET_LOW load(1, XDATA, add(CFA_XSP16, literal(-5)))
        CFI (cfiCond281) ?RET_HIGH load(1, XDATA, add(CFA_XSP16, literal(-4)))
        CFI (cfiCond281) ?BRET_EXT load(1, XDATA, add(CFA_XSP16, literal(-3)))
        CFI (cfiCond281) DPL0 load(1, XDATA, add(CFA_XSP16, literal(-2)))
        CFI (cfiCond281) DPH0 load(1, XDATA, add(CFA_XSP16, literal(-1)))
        CFI (cfiCond281) CFA_SP SP+0
        CFI (cfiCond281) CFA_XSP16 add(XSP16, 25)
        CFI Block cfiPicker282 Using cfiCommon1
        CFI (cfiPicker282) NoFunction
        CFI (cfiPicker282) Picker
        LCALL   ?Subroutine59 & 0xFFFF
??CrossCallReturnLabel_214:
        MOVX    A,@DPTR
        MOV     DPL,R6
        MOV     DPH,R7
        MOVX    @DPTR,A
        INC     DPTR
        RET
        CFI EndBlock cfiCond277
        CFI EndBlock cfiCond278
        CFI EndBlock cfiCond279
        CFI EndBlock cfiCond280
        CFI EndBlock cfiCond281
        CFI EndBlock cfiPicker282
//  758 
//  759 /**************************************************************************************************
//  760  * @fn          MT_AfDataRetrieve
//  761  *
//  762  * @brief   Process AF Data Retrieve command to incrementally read out a very large
//  763  *          incoming AF message.
//  764  *
//  765  * input parameters
//  766  *
//  767  * @param pBuf - pointer to the received buffer
//  768  *
//  769  * output parameters
//  770  *
//  771  * @param rtrn - AF-Status of the operation.
//  772  *
//  773  * @return      None.
//  774  **************************************************************************************************
//  775  */

        RSEG BANKED_CODE:CODE:NOROOT(0)
//  776 void MT_AfDataRetrieve(uint8 *pBuf)
MT_AfDataRetrieve:
        CFI Block cfiBlock283 Using cfiCommon0
        CFI Function MT_AfDataRetrieve
        CODE
//  777 {
        FUNCALL MT_AfDataRetrieve, osal_mem_free
        LOCFRAME ISTACK, 0, STACK
        LOCFRAME PSTACK, 0, STACK
        LOCFRAME XSTACK, 21, STACK
        LOCFRAME IOVERLAY, 0, STATIC
        LOCFRAME DOVERLAY, 0, STATIC
        ARGFRAME ISTACK, 0, STACK
        ARGFRAME PSTACK, 0, STACK
        ARGFRAME XSTACK, 21, STACK
        ARGFRAME IOVERLAY, 0, STATIC
        ARGFRAME DOVERLAY, 0, STATIC
        FUNCALL MT_AfDataRetrieve, MT_BuildAndSendZToolResponse
        LOCFRAME ISTACK, 0, STACK
        LOCFRAME PSTACK, 0, STACK
        LOCFRAME XSTACK, 21, STACK
        LOCFRAME IOVERLAY, 0, STATIC
        LOCFRAME DOVERLAY, 0, STATIC
        ARGFRAME ISTACK, 0, STACK
        ARGFRAME PSTACK, 0, STACK
        ARGFRAME XSTACK, 21, STACK
        ARGFRAME IOVERLAY, 0, STATIC
        ARGFRAME DOVERLAY, 0, STATIC
        FUNCALL MT_AfDataRetrieve, osal_mem_alloc
        LOCFRAME ISTACK, 0, STACK
        LOCFRAME PSTACK, 0, STACK
        LOCFRAME XSTACK, 21, STACK
        LOCFRAME IOVERLAY, 0, STATIC
        LOCFRAME DOVERLAY, 0, STATIC
        ARGFRAME ISTACK, 0, STACK
        ARGFRAME PSTACK, 0, STACK
        ARGFRAME XSTACK, 21, STACK
        ARGFRAME IOVERLAY, 0, STATIC
        ARGFRAME DOVERLAY, 0, STATIC
        FUNCALL MT_AfDataRetrieve, osal_memcpy
        LOCFRAME ISTACK, 0, STACK
        LOCFRAME PSTACK, 0, STACK
        LOCFRAME XSTACK, 24, STACK
        LOCFRAME IOVERLAY, 0, STATIC
        LOCFRAME DOVERLAY, 0, STATIC
        ARGFRAME ISTACK, 0, STACK
        ARGFRAME PSTACK, 0, STACK
        ARGFRAME XSTACK, 24, STACK
        ARGFRAME IOVERLAY, 0, STATIC
        ARGFRAME DOVERLAY, 0, STATIC
        FUNCALL MT_AfDataRetrieve, MT_BuildAndSendZToolResponse
        LOCFRAME ISTACK, 0, STACK
        LOCFRAME PSTACK, 0, STACK
        LOCFRAME XSTACK, 21, STACK
        LOCFRAME IOVERLAY, 0, STATIC
        LOCFRAME DOVERLAY, 0, STATIC
        ARGFRAME ISTACK, 0, STACK
        ARGFRAME PSTACK, 0, STACK
        ARGFRAME XSTACK, 21, STACK
        ARGFRAME IOVERLAY, 0, STATIC
        ARGFRAME DOVERLAY, 0, STATIC
        FUNCALL MT_AfDataRetrieve, osal_mem_free
        LOCFRAME ISTACK, 0, STACK
        LOCFRAME PSTACK, 0, STACK
        LOCFRAME XSTACK, 21, STACK
        LOCFRAME IOVERLAY, 0, STATIC
        LOCFRAME DOVERLAY, 0, STATIC
        ARGFRAME ISTACK, 0, STACK
        ARGFRAME PSTACK, 0, STACK
        ARGFRAME XSTACK, 21, STACK
        ARGFRAME IOVERLAY, 0, STATIC
        ARGFRAME DOVERLAY, 0, STATIC
        MOV     A,#-0x10
        LCALL   ?BANKED_ENTER_XDATA
        CFI DPH0 load(1, XDATA, add(CFA_XSP16, literal(-1)))
        CFI DPL0 load(1, XDATA, add(CFA_XSP16, literal(-2)))
        CFI ?BRET_EXT load(1, XDATA, add(CFA_XSP16, literal(-3)))
        CFI ?RET_HIGH load(1, XDATA, add(CFA_XSP16, literal(-4)))
        CFI ?RET_LOW load(1, XDATA, add(CFA_XSP16, literal(-5)))
        CFI R7 load(1, XDATA, add(CFA_XSP16, literal(-6)))
        CFI V7 load(1, XDATA, add(CFA_XSP16, literal(-7)))
        CFI V6 load(1, XDATA, add(CFA_XSP16, literal(-8)))
        CFI V5 load(1, XDATA, add(CFA_XSP16, literal(-9)))
        CFI V4 load(1, XDATA, add(CFA_XSP16, literal(-10)))
        CFI V3 load(1, XDATA, add(CFA_XSP16, literal(-11)))
        CFI V2 load(1, XDATA, add(CFA_XSP16, literal(-12)))
        CFI V1 load(1, XDATA, add(CFA_XSP16, literal(-13)))
        CFI V0 load(1, XDATA, add(CFA_XSP16, literal(-14)))
        CFI VB load(1, XDATA, add(CFA_XSP16, literal(-15)))
        CFI R6 load(1, XDATA, add(CFA_XSP16, literal(-16)))
        CFI CFA_SP SP+0
        CFI CFA_XSP16 add(XSP16, 16)
        ; Saved register size: 16
        ; Auto size: 5
        MOV     A,#-0x5
        LCALL   ?ALLOC_XSTACK8
        CFI CFA_XSP16 add(XSP16, 21)
        MOV     A,#0x1
        LCALL   ?XSTACK_DISP0_8
        LCALL   ?Subroutine39 & 0xFFFF
//  778   #define MT_AF_RTV_HDR_SZ  2
//  779 
//  780   uint32 timestamp;
//  781   mtAfInMsgList_t *pPrev, *pItem = pMtAfInMsgList;
??CrossCallReturnLabel_71:
        MOV     DPTR,#pMtAfInMsgList
        LCALL   ?Subroutine51 & 0xFFFF
??CrossCallReturnLabel_198:
        MOV     A,#0x3
        LCALL   ?XSTACK_DISP0_8
        LCALL   ?Subroutine44 & 0xFFFF
//  782   uint8 rtrn = afStatus_FAILED;
??CrossCallReturnLabel_85:
        MOV     R2,#0x1
//  783   uint8 len = 0;
        MOV     DPL,?XSP + 0
        MOV     DPH,?XSP + 1
        CLR     A
        MOVX    @DPTR,A
//  784 
//  785   pBuf += MT_RPC_FRAME_HDR_SZ;
        INC     A
        LCALL   ?XSTACK_DISP0_8
        MOVX    A,@DPTR
        ADD     A,#0x3
        MOV     R0,A
        INC     DPTR
        MOVX    A,@DPTR
        ADDC    A,#0x0
        MOV     R1,A
        MOV     A,R2
        LCALL   ?XSTACK_DISP0_8
        LCALL   ?Subroutine44 & 0xFFFF
//  786   timestamp = BUILD_UINT32(pBuf[0], pBuf[1], pBuf[2], pBuf[3]);
??CrossCallReturnLabel_86:
        MOV     A,R2
        LCALL   ?XSTACK_DISP0_8
        LCALL   ?Subroutine15 & 0xFFFF
??CrossCallReturnLabel_18:
        MOV     ?V0 + 0,A
        CLR     A
        MOV     ?V0 + 1,A
        MOV     ?V0 + 2,A
        MOV     ?V0 + 3,A
        INC     A
        LCALL   ?XSTACK_DISP0_8
        LCALL   ?Subroutine52 & 0xFFFF
??CrossCallReturnLabel_148:
        MOVX    A,@DPTR
        MOV     ?V0 + 4,A
        CLR     A
        MOV     ?V0 + 5,A
        MOV     ?V0 + 6,A
        MOV     ?V0 + 7,A
        MOV     A,#0x8
        MOV     R0,#?V0 + 4
        LCALL   ?L_SHL
        MOV     R0,#?V0 + 0
        MOV     R1,#?V0 + 4
        LCALL   ?L_ADD
        MOV     A,R2
        LCALL   ?XSTACK_DISP0_8
        LCALL   ?Subroutine6 & 0xFFFF
??CrossCallReturnLabel_8:
        MOV     ?V0 + 4,A
        CLR     A
        MOV     ?V0 + 5,A
        MOV     A,#0x10
        MOV     R0,#?V0 + 4
        LCALL   ?L_SHL
        MOV     R0,#?V0 + 0
        MOV     R1,#?V0 + 4
        LCALL   ?L_ADD
        MOV     A,R2
        LCALL   ?XSTACK_DISP0_8
        MOVX    A,@DPTR
        MOV     R0,A
        LCALL   ?Subroutine18 & 0xFFFF
??CrossCallReturnLabel_31:
        INC     DPTR
        MOVX    A,@DPTR
        MOV     ?V0 + 4,A
        CLR     A
        MOV     ?V0 + 6,A
        MOV     A,#0x18
        MOV     R0,#?V0 + 4
        LCALL   ?L_SHL
        MOV     R0,#?V0 + 0
        MOV     R1,#?V0 + 4
        LCALL   ?L_ADD
        SJMP    ??CrossCallReturnLabel_87
//  787 
//  788   while (pItem != NULL)
//  789   {
//  790     pPrev = pItem;
//  791     if (pItem->timestamp == timestamp)
//  792     {
//  793       break;
//  794     }
//  795     pItem = pItem->next;
??MT_AfDataRetrieve_0:
        MOV     A,#0x3
        LCALL   ?XSTACK_DISP0_8
        LCALL   ?Subroutine14 & 0xFFFF
??CrossCallReturnLabel_16:
        MOV     A,#0x3
        LCALL   ?XSTACK_DISP0_8
        LCALL   ?Subroutine44 & 0xFFFF
??CrossCallReturnLabel_87:
        MOV     A,#0x3
        LCALL   ?XSTACK_DISP0_8
        LCALL   ??Subroutine78_0 & 0xFFFF
??CrossCallReturnLabel_190:
        JZ      ??MT_AfDataRetrieve_1
        MOV     A,R0
        MOV     R4,A
        MOV     A,R1
        MOV     R5,A
        MOV     A,#0x3
        LCALL   ?XSTACK_DISP0_8
        LCALL   ??Subroutine71_0 & 0xFFFF
//  796   }
??CrossCallReturnLabel_145:
        MOV     R0,#?V0 + 0
        LCALL   ?L_EQ_X
        JNZ     ??MT_AfDataRetrieve_0
//  797 
//  798   if (pItem != NULL)
//  799   {
//  800     uint16 idx;
//  801     uint8 *pRsp;
//  802 
//  803     pBuf += 4;
        MOV     A,R2
        LCALL   ?XSTACK_DISP0_8
        MOVX    A,@DPTR
        ADD     A,#0x4
        MOV     R0,A
        INC     DPTR
        MOVX    A,@DPTR
        ADDC    A,#0x0
        MOV     R1,A
        MOV     A,R2
        LCALL   ?XSTACK_DISP0_8
        LCALL   ?Subroutine44 & 0xFFFF
//  804     idx = BUILD_UINT16(pBuf[0], pBuf[1]);
??CrossCallReturnLabel_88:
        MOV     A,R2
        LCALL   ?XSTACK_DISP0_8
        LCALL   ?Subroutine15 & 0xFFFF
??CrossCallReturnLabel_19:
        MOV     R2,A
        MOV     A,#0x1
        LCALL   ?XSTACK_DISP0_8
        LCALL   ??Subroutine77_0 & 0xFFFF
??CrossCallReturnLabel_181:
        LCALL   ?Subroutine23 & 0xFFFF
//  805     len = pBuf[2];
??CrossCallReturnLabel_39:
        MOV     A,#0x1
        LCALL   ?XSTACK_DISP0_8
        LCALL   ?Subroutine18 & 0xFFFF
??CrossCallReturnLabel_32:
        LCALL   ?Subroutine28 & 0xFFFF
//  806 
//  807     if (len == 0)  // Indication to delete the afIncomingMSGPacket.
??CrossCallReturnLabel_48:
        JNZ     ??MT_AfDataRetrieve_2
//  808     {
//  809       if (pMtAfInMsgList == pItem)
        MOV     A,#0x3
        LCALL   ?XSTACK_DISP0_8
        LCALL   ?Subroutine14 & 0xFFFF
??CrossCallReturnLabel_17:
        LCALL   ?Subroutine21 & 0xFFFF
??CrossCallReturnLabel_135:
        MOV     A,#0x3
        LCALL   ?XSTACK_DISP0_8
        MOVX    A,@DPTR
        XRL     A,R2
        JNZ     ??MT_AfDataRetrieve_3
        INC     DPTR
        MOVX    A,@DPTR
        XRL     A,R3
??MT_AfDataRetrieve_3:
        JNZ     ??MT_AfDataRetrieve_4
//  810       {
//  811         pMtAfInMsgList = pItem->next;
        MOV     DPTR,#pMtAfInMsgList
        SJMP    ??MT_AfDataRetrieve_5
//  812       }
//  813       else
//  814       {
//  815         pPrev->next = pItem->next;
??MT_AfDataRetrieve_4:
        MOV     DPL,R4
        MOV     DPH,R5
//  816       }
??MT_AfDataRetrieve_5:
        LCALL   ?Subroutine44 & 0xFFFF
//  817       (void)osal_mem_free(pItem);
??CrossCallReturnLabel_89:
        ; Setup parameters for call to function osal_mem_free
        MOV     A,#0x3
        LCALL   ?XSTACK_DISP0_8
        LCALL   ?Subroutine20 & 0xFFFF
//  818       rtrn = afStatus_SUCCESS;
??CrossCallReturnLabel_37:
        MOV     R2,#0x0
//  819     }
//  820     else if ((pRsp = osal_mem_alloc(len + MT_AF_RTV_HDR_SZ)) == NULL)
//  821     {
//  822       rtrn = afStatus_MEM_FAIL;
//  823       len = 0;
//  824     }
//  825     else
//  826     {
//  827       pRsp[0] = ZSuccess;
//  828       pRsp[1] = len;
//  829       (void)osal_memcpy(pRsp + MT_AF_RTV_HDR_SZ, pItem->data+idx, len);
//  830       MT_BuildAndSendZToolResponse(((uint8)MT_RPC_CMD_SRSP | (uint8)MT_RPC_SYS_AF),
//  831                                            MT_AF_DATA_RETRIEVE, len + MT_AF_RTV_HDR_SZ, pRsp);
//  832       (void)osal_mem_free(pRsp);
//  833       return;
//  834     }
//  835   }
//  836 
//  837   pBuf[0] = rtrn;
??MT_AfDataRetrieve_1:
        MOV     A,#0x1
        LCALL   ?XSTACK_DISP0_8
        LCALL   ?Subroutine19 & 0xFFFF
??CrossCallReturnLabel_34:
        MOV     A,R2
        LCALL   ??Subroutine76_0 & 0xFFFF
//  838   pBuf[1] = len;
??CrossCallReturnLabel_177:
        PUSH    A
        CFI CFA_SP SP+-1
        MOV     A,#0x1
        LCALL   ?XSTACK_DISP0_8
        LCALL   ?Subroutine19 & 0xFFFF
??CrossCallReturnLabel_35:
        INC     DPTR
        POP     A
        CFI CFA_SP SP+0
        MOVX    @DPTR,A
//  839   MT_BuildAndSendZToolResponse(((uint8)MT_RPC_CMD_SRSP | (uint8)MT_RPC_SYS_AF),
//  840                                        MT_AF_DATA_RETRIEVE, MT_AF_RTV_HDR_SZ, pBuf);
        ; Setup parameters for call to function MT_BuildAndSendZToolResponse
        MOV     A,#0x1
        LCALL   ?XSTACK_DISP0_8
        LCALL   ?Subroutine16 & 0xFFFF
??CrossCallReturnLabel_25:
        MOV     R3,#0x2
        MOV     R2,#0x12
        MOV     R1,#0x64
        LCALL   ??MT_BuildAndSendZToolResponse?relay
//  841 }
??MT_AfDataRetrieve_6:
        MOV     A,#0x5
        LJMP    ?Subroutine1 & 0xFFFF
??MT_AfDataRetrieve_2:
        ; Setup parameters for call to function osal_mem_alloc
        ADD     A,#0x2
        MOV     R2,A
        CLR     A
        LCALL   ?Subroutine30 & 0xFFFF
??CrossCallReturnLabel_51:
        MOV     ?V0 + 0,R2
        MOV     ?V0 + 1,R3
        MOV     A,R2
        ORL     A,?V0 + 1
        JNZ     ??MT_AfDataRetrieve_7
        MOV     R2,#0x10
        MOV     DPL,?XSP + 0
        MOV     DPH,?XSP + 1
        CLR     A
        MOVX    @DPTR,A
        SJMP    ??MT_AfDataRetrieve_1
??MT_AfDataRetrieve_7:
        MOV     DPL,R2
        MOV     DPH,R3
        CLR     A
        LCALL   ??Subroutine76_0 & 0xFFFF
??CrossCallReturnLabel_178:
        MOV     DPL,R2
        MOV     DPH,R3
        INC     DPTR
        MOVX    @DPTR,A
        ; Setup parameters for call to function osal_memcpy
        MOV     A,#0x3
        LCALL   ?XSTACK_DISP0_8
        LCALL   ?Subroutine6 & 0xFFFF
??CrossCallReturnLabel_9:
        ADD     A,R6
        MOV     ?V0 + 4,A
        INC     DPTR
        MOVX    A,@DPTR
        ADDC    A,R7
        MOV     ?V0 + 5,A
        MOV     R0,#?V0 + 4
        LCALL   ?PUSH_XSTACK_I_THREE
        CFI CFA_XSP16 add(XSP16, 24)
        MOV     A,#0x3
        LCALL   ?XSTACK_DISP0_8
        MOVX    A,@DPTR
        MOV     R4,A
        MOV     R5,#0x0
        MOV     A,R2
        ADD     A,#0x2
        INC     R2
        INC     R2
        MOV     A,R3
        ADDC    A,#0x0
        LCALL   ?Subroutine45 & 0xFFFF
??CrossCallReturnLabel_171:
        LCALL   ?DEALLOC_XSTACK8
        CFI CFA_XSP16 add(XSP16, 21)
        ; Setup parameters for call to function MT_BuildAndSendZToolResponse
        MOV     R4,?V0 + 0
        MOV     R5,?V0 + 1
        MOV     DPL,?XSP + 0
        MOV     DPH,?XSP + 1
        MOVX    A,@DPTR
        ADD     A,#0x2
        MOV     R3,A
        MOV     R2,#0x12
        MOV     R1,#0x64
        LCALL   ??MT_BuildAndSendZToolResponse?relay
        ; Setup parameters for call to function osal_mem_free
        MOV     R2,?V0 + 0
        MOV     R3,?V0 + 1
        LCALL   ??osal_mem_free?relay
        SJMP    ??MT_AfDataRetrieve_6
        CFI EndBlock cfiBlock283

        RSEG BANKED_CODE:CODE:NOROOT(0)
?Subroutine52:
        CFI Block cfiCond284 Using cfiCommon0
        CFI NoFunction
        CFI Conditional ??CrossCallReturnLabel_150, ??CrossCallReturnLabel_146
        CFI R6 load(1, XDATA, add(CFA_XSP16, literal(-16)))
        CFI VB load(1, XDATA, add(CFA_XSP16, literal(-15)))
        CFI V0 load(1, XDATA, add(CFA_XSP16, literal(-14)))
        CFI V1 load(1, XDATA, add(CFA_XSP16, literal(-13)))
        CFI V2 load(1, XDATA, add(CFA_XSP16, literal(-12)))
        CFI V3 load(1, XDATA, add(CFA_XSP16, literal(-11)))
        CFI V4 load(1, XDATA, add(CFA_XSP16, literal(-10)))
        CFI V5 load(1, XDATA, add(CFA_XSP16, literal(-9)))
        CFI V6 load(1, XDATA, add(CFA_XSP16, literal(-8)))
        CFI V7 load(1, XDATA, add(CFA_XSP16, literal(-7)))
        CFI R7 load(1, XDATA, add(CFA_XSP16, literal(-6)))
        CFI ?RET_LOW load(1, XDATA, add(CFA_XSP16, literal(-5)))
        CFI ?RET_HIGH load(1, XDATA, add(CFA_XSP16, literal(-4)))
        CFI ?BRET_EXT load(1, XDATA, add(CFA_XSP16, literal(-3)))
        CFI DPL0 load(1, XDATA, add(CFA_XSP16, literal(-2)))
        CFI DPH0 load(1, XDATA, add(CFA_XSP16, literal(-1)))
        CFI CFA_SP SP+0
        CFI CFA_XSP16 add(XSP16, 25)
        CFI Block cfiCond285 Using cfiCommon0
        CFI (cfiCond285) NoFunction
        CFI (cfiCond285) Conditional ??CrossCallReturnLabel_150, ??CrossCallReturnLabel_147
        CFI (cfiCond285) R6 load(1, XDATA, add(CFA_XSP16, literal(-16)))
        CFI (cfiCond285) VB load(1, XDATA, add(CFA_XSP16, literal(-15)))
        CFI (cfiCond285) V0 load(1, XDATA, add(CFA_XSP16, literal(-14)))
        CFI (cfiCond285) V1 load(1, XDATA, add(CFA_XSP16, literal(-13)))
        CFI (cfiCond285) V2 load(1, XDATA, add(CFA_XSP16, literal(-12)))
        CFI (cfiCond285) V3 load(1, XDATA, add(CFA_XSP16, literal(-11)))
        CFI (cfiCond285) V4 load(1, XDATA, add(CFA_XSP16, literal(-10)))
        CFI (cfiCond285) V5 load(1, XDATA, add(CFA_XSP16, literal(-9)))
        CFI (cfiCond285) V6 load(1, XDATA, add(CFA_XSP16, literal(-8)))
        CFI (cfiCond285) V7 load(1, XDATA, add(CFA_XSP16, literal(-7)))
        CFI (cfiCond285) R7 load(1, XDATA, add(CFA_XSP16, literal(-6)))
        CFI (cfiCond285) ?RET_LOW load(1, XDATA, add(CFA_XSP16, literal(-5)))
        CFI (cfiCond285) ?RET_HIGH load(1, XDATA, add(CFA_XSP16, literal(-4)))
        CFI (cfiCond285) ?BRET_EXT load(1, XDATA, add(CFA_XSP16, literal(-3)))
        CFI (cfiCond285) DPL0 load(1, XDATA, add(CFA_XSP16, literal(-2)))
        CFI (cfiCond285) DPH0 load(1, XDATA, add(CFA_XSP16, literal(-1)))
        CFI (cfiCond285) CFA_SP SP+0
        CFI (cfiCond285) CFA_XSP16 add(XSP16, 25)
        CFI Block cfiCond286 Using cfiCommon0
        CFI (cfiCond286) NoFunction
        CFI (cfiCond286) Conditional ??CrossCallReturnLabel_150, ??CrossCallReturnLabel_145
        CFI (cfiCond286) R6 load(1, XDATA, add(CFA_XSP16, literal(-16)))
        CFI (cfiCond286) VB load(1, XDATA, add(CFA_XSP16, literal(-15)))
        CFI (cfiCond286) V0 load(1, XDATA, add(CFA_XSP16, literal(-14)))
        CFI (cfiCond286) V1 load(1, XDATA, add(CFA_XSP16, literal(-13)))
        CFI (cfiCond286) V2 load(1, XDATA, add(CFA_XSP16, literal(-12)))
        CFI (cfiCond286) V3 load(1, XDATA, add(CFA_XSP16, literal(-11)))
        CFI (cfiCond286) V4 load(1, XDATA, add(CFA_XSP16, literal(-10)))
        CFI (cfiCond286) V5 load(1, XDATA, add(CFA_XSP16, literal(-9)))
        CFI (cfiCond286) V6 load(1, XDATA, add(CFA_XSP16, literal(-8)))
        CFI (cfiCond286) V7 load(1, XDATA, add(CFA_XSP16, literal(-7)))
        CFI (cfiCond286) R7 load(1, XDATA, add(CFA_XSP16, literal(-6)))
        CFI (cfiCond286) ?RET_LOW load(1, XDATA, add(CFA_XSP16, literal(-5)))
        CFI (cfiCond286) ?RET_HIGH load(1, XDATA, add(CFA_XSP16, literal(-4)))
        CFI (cfiCond286) ?BRET_EXT load(1, XDATA, add(CFA_XSP16, literal(-3)))
        CFI (cfiCond286) DPL0 load(1, XDATA, add(CFA_XSP16, literal(-2)))
        CFI (cfiCond286) DPH0 load(1, XDATA, add(CFA_XSP16, literal(-1)))
        CFI (cfiCond286) CFA_SP SP+0
        CFI (cfiCond286) CFA_XSP16 add(XSP16, 21)
        CFI Block cfiCond287 Using cfiCommon0
        CFI (cfiCond287) NoFunction
        CFI (cfiCond287) Conditional ??CrossCallReturnLabel_148
        CFI (cfiCond287) R6 load(1, XDATA, add(CFA_XSP16, literal(-16)))
        CFI (cfiCond287) VB load(1, XDATA, add(CFA_XSP16, literal(-15)))
        CFI (cfiCond287) V0 load(1, XDATA, add(CFA_XSP16, literal(-14)))
        CFI (cfiCond287) V1 load(1, XDATA, add(CFA_XSP16, literal(-13)))
        CFI (cfiCond287) V2 load(1, XDATA, add(CFA_XSP16, literal(-12)))
        CFI (cfiCond287) V3 load(1, XDATA, add(CFA_XSP16, literal(-11)))
        CFI (cfiCond287) V4 load(1, XDATA, add(CFA_XSP16, literal(-10)))
        CFI (cfiCond287) V5 load(1, XDATA, add(CFA_XSP16, literal(-9)))
        CFI (cfiCond287) V6 load(1, XDATA, add(CFA_XSP16, literal(-8)))
        CFI (cfiCond287) V7 load(1, XDATA, add(CFA_XSP16, literal(-7)))
        CFI (cfiCond287) R7 load(1, XDATA, add(CFA_XSP16, literal(-6)))
        CFI (cfiCond287) ?RET_LOW load(1, XDATA, add(CFA_XSP16, literal(-5)))
        CFI (cfiCond287) ?RET_HIGH load(1, XDATA, add(CFA_XSP16, literal(-4)))
        CFI (cfiCond287) ?BRET_EXT load(1, XDATA, add(CFA_XSP16, literal(-3)))
        CFI (cfiCond287) DPL0 load(1, XDATA, add(CFA_XSP16, literal(-2)))
        CFI (cfiCond287) DPH0 load(1, XDATA, add(CFA_XSP16, literal(-1)))
        CFI (cfiCond287) CFA_SP SP+0
        CFI (cfiCond287) CFA_XSP16 add(XSP16, 21)
        CFI Block cfiCond288 Using cfiCommon0
        CFI (cfiCond288) NoFunction
        CFI (cfiCond288) Conditional ??CrossCallReturnLabel_149, ??CrossCallReturnLabel_30
        CFI (cfiCond288) R6 load(1, XDATA, add(CFA_XSP16, literal(-16)))
        CFI (cfiCond288) VB load(1, XDATA, add(CFA_XSP16, literal(-15)))
        CFI (cfiCond288) V0 load(1, XDATA, add(CFA_XSP16, literal(-14)))
        CFI (cfiCond288) V1 load(1, XDATA, add(CFA_XSP16, literal(-13)))
        CFI (cfiCond288) V2 load(1, XDATA, add(CFA_XSP16, literal(-12)))
        CFI (cfiCond288) V3 load(1, XDATA, add(CFA_XSP16, literal(-11)))
        CFI (cfiCond288) V4 load(1, XDATA, add(CFA_XSP16, literal(-10)))
        CFI (cfiCond288) V5 load(1, XDATA, add(CFA_XSP16, literal(-9)))
        CFI (cfiCond288) V6 load(1, XDATA, add(CFA_XSP16, literal(-8)))
        CFI (cfiCond288) V7 load(1, XDATA, add(CFA_XSP16, literal(-7)))
        CFI (cfiCond288) R7 load(1, XDATA, add(CFA_XSP16, literal(-6)))
        CFI (cfiCond288) ?RET_LOW load(1, XDATA, add(CFA_XSP16, literal(-5)))
        CFI (cfiCond288) ?RET_HIGH load(1, XDATA, add(CFA_XSP16, literal(-4)))
        CFI (cfiCond288) ?BRET_EXT load(1, XDATA, add(CFA_XSP16, literal(-3)))
        CFI (cfiCond288) DPL0 load(1, XDATA, add(CFA_XSP16, literal(-2)))
        CFI (cfiCond288) DPH0 load(1, XDATA, add(CFA_XSP16, literal(-1)))
        CFI (cfiCond288) CFA_SP SP+0
        CFI (cfiCond288) CFA_XSP16 add(XSP16, 25)
        CFI Block cfiCond289 Using cfiCommon0
        CFI (cfiCond289) NoFunction
        CFI (cfiCond289) Conditional ??CrossCallReturnLabel_149, ??CrossCallReturnLabel_31
        CFI (cfiCond289) R6 load(1, XDATA, add(CFA_XSP16, literal(-16)))
        CFI (cfiCond289) VB load(1, XDATA, add(CFA_XSP16, literal(-15)))
        CFI (cfiCond289) V0 load(1, XDATA, add(CFA_XSP16, literal(-14)))
        CFI (cfiCond289) V1 load(1, XDATA, add(CFA_XSP16, literal(-13)))
        CFI (cfiCond289) V2 load(1, XDATA, add(CFA_XSP16, literal(-12)))
        CFI (cfiCond289) V3 load(1, XDATA, add(CFA_XSP16, literal(-11)))
        CFI (cfiCond289) V4 load(1, XDATA, add(CFA_XSP16, literal(-10)))
        CFI (cfiCond289) V5 load(1, XDATA, add(CFA_XSP16, literal(-9)))
        CFI (cfiCond289) V6 load(1, XDATA, add(CFA_XSP16, literal(-8)))
        CFI (cfiCond289) V7 load(1, XDATA, add(CFA_XSP16, literal(-7)))
        CFI (cfiCond289) R7 load(1, XDATA, add(CFA_XSP16, literal(-6)))
        CFI (cfiCond289) ?RET_LOW load(1, XDATA, add(CFA_XSP16, literal(-5)))
        CFI (cfiCond289) ?RET_HIGH load(1, XDATA, add(CFA_XSP16, literal(-4)))
        CFI (cfiCond289) ?BRET_EXT load(1, XDATA, add(CFA_XSP16, literal(-3)))
        CFI (cfiCond289) DPL0 load(1, XDATA, add(CFA_XSP16, literal(-2)))
        CFI (cfiCond289) DPH0 load(1, XDATA, add(CFA_XSP16, literal(-1)))
        CFI (cfiCond289) CFA_SP SP+0
        CFI (cfiCond289) CFA_XSP16 add(XSP16, 21)
        CFI Block cfiCond290 Using cfiCommon0
        CFI (cfiCond290) NoFunction
        CFI (cfiCond290) Conditional ??CrossCallReturnLabel_149, ??CrossCallReturnLabel_32
        CFI (cfiCond290) R6 load(1, XDATA, add(CFA_XSP16, literal(-16)))
        CFI (cfiCond290) VB load(1, XDATA, add(CFA_XSP16, literal(-15)))
        CFI (cfiCond290) V0 load(1, XDATA, add(CFA_XSP16, literal(-14)))
        CFI (cfiCond290) V1 load(1, XDATA, add(CFA_XSP16, literal(-13)))
        CFI (cfiCond290) V2 load(1, XDATA, add(CFA_XSP16, literal(-12)))
        CFI (cfiCond290) V3 load(1, XDATA, add(CFA_XSP16, literal(-11)))
        CFI (cfiCond290) V4 load(1, XDATA, add(CFA_XSP16, literal(-10)))
        CFI (cfiCond290) V5 load(1, XDATA, add(CFA_XSP16, literal(-9)))
        CFI (cfiCond290) V6 load(1, XDATA, add(CFA_XSP16, literal(-8)))
        CFI (cfiCond290) V7 load(1, XDATA, add(CFA_XSP16, literal(-7)))
        CFI (cfiCond290) R7 load(1, XDATA, add(CFA_XSP16, literal(-6)))
        CFI (cfiCond290) ?RET_LOW load(1, XDATA, add(CFA_XSP16, literal(-5)))
        CFI (cfiCond290) ?RET_HIGH load(1, XDATA, add(CFA_XSP16, literal(-4)))
        CFI (cfiCond290) ?BRET_EXT load(1, XDATA, add(CFA_XSP16, literal(-3)))
        CFI (cfiCond290) DPL0 load(1, XDATA, add(CFA_XSP16, literal(-2)))
        CFI (cfiCond290) DPH0 load(1, XDATA, add(CFA_XSP16, literal(-1)))
        CFI (cfiCond290) CFA_SP SP+0
        CFI (cfiCond290) CFA_XSP16 add(XSP16, 21)
        CFI Block cfiPicker291 Using cfiCommon1
        CFI (cfiPicker291) NoFunction
        CFI (cfiPicker291) Picker
        LCALL   ??Subroutine77_0 & 0xFFFF
??CrossCallReturnLabel_184:
        INC     DPTR
        RET
        CFI EndBlock cfiCond284
        CFI EndBlock cfiCond285
        CFI EndBlock cfiCond286
        CFI EndBlock cfiCond287
        CFI EndBlock cfiCond288
        CFI EndBlock cfiCond289
        CFI EndBlock cfiCond290
        CFI EndBlock cfiPicker291

        RSEG BANKED_CODE:CODE:NOROOT(0)
?Subroutine51:
        CFI Block cfiCond292 Using cfiCommon0
        CFI NoFunction
        CFI Conditional ??CrossCallReturnLabel_196
        CFI R6 load(1, XDATA, add(CFA_XSP16, literal(-9)))
        CFI VB load(1, XDATA, add(CFA_XSP16, literal(-8)))
        CFI V0 load(1, XDATA, add(CFA_XSP16, literal(-7)))
        CFI R7 load(1, XDATA, add(CFA_XSP16, literal(-6)))
        CFI ?RET_LOW load(1, XDATA, add(CFA_XSP16, literal(-5)))
        CFI ?RET_HIGH load(1, XDATA, add(CFA_XSP16, literal(-4)))
        CFI ?BRET_EXT load(1, XDATA, add(CFA_XSP16, literal(-3)))
        CFI DPL0 load(1, XDATA, add(CFA_XSP16, literal(-2)))
        CFI DPH0 load(1, XDATA, add(CFA_XSP16, literal(-1)))
        CFI CFA_SP SP+0
        CFI CFA_XSP16 add(XSP16, 9)
        CFI Block cfiCond293 Using cfiCommon0
        CFI (cfiCond293) NoFunction
        CFI (cfiCond293) Conditional ??CrossCallReturnLabel_197
        CFI (cfiCond293) R6 load(1, XDATA, add(CFA_XSP16, literal(-16)))
        CFI (cfiCond293) VB load(1, XDATA, add(CFA_XSP16, literal(-15)))
        CFI (cfiCond293) V0 load(1, XDATA, add(CFA_XSP16, literal(-14)))
        CFI (cfiCond293) V1 load(1, XDATA, add(CFA_XSP16, literal(-13)))
        CFI (cfiCond293) V2 load(1, XDATA, add(CFA_XSP16, literal(-12)))
        CFI (cfiCond293) V3 load(1, XDATA, add(CFA_XSP16, literal(-11)))
        CFI (cfiCond293) V4 load(1, XDATA, add(CFA_XSP16, literal(-10)))
        CFI (cfiCond293) V5 load(1, XDATA, add(CFA_XSP16, literal(-9)))
        CFI (cfiCond293) V6 load(1, XDATA, add(CFA_XSP16, literal(-8)))
        CFI (cfiCond293) V7 load(1, XDATA, add(CFA_XSP16, literal(-7)))
        CFI (cfiCond293) R7 load(1, XDATA, add(CFA_XSP16, literal(-6)))
        CFI (cfiCond293) ?RET_LOW load(1, XDATA, add(CFA_XSP16, literal(-5)))
        CFI (cfiCond293) ?RET_HIGH load(1, XDATA, add(CFA_XSP16, literal(-4)))
        CFI (cfiCond293) ?BRET_EXT load(1, XDATA, add(CFA_XSP16, literal(-3)))
        CFI (cfiCond293) DPL0 load(1, XDATA, add(CFA_XSP16, literal(-2)))
        CFI (cfiCond293) DPH0 load(1, XDATA, add(CFA_XSP16, literal(-1)))
        CFI (cfiCond293) CFA_SP SP+0
        CFI (cfiCond293) CFA_XSP16 add(XSP16, 25)
        CFI Block cfiCond294 Using cfiCommon0
        CFI (cfiCond294) NoFunction
        CFI (cfiCond294) Conditional ??CrossCallReturnLabel_198
        CFI (cfiCond294) R6 load(1, XDATA, add(CFA_XSP16, literal(-16)))
        CFI (cfiCond294) VB load(1, XDATA, add(CFA_XSP16, literal(-15)))
        CFI (cfiCond294) V0 load(1, XDATA, add(CFA_XSP16, literal(-14)))
        CFI (cfiCond294) V1 load(1, XDATA, add(CFA_XSP16, literal(-13)))
        CFI (cfiCond294) V2 load(1, XDATA, add(CFA_XSP16, literal(-12)))
        CFI (cfiCond294) V3 load(1, XDATA, add(CFA_XSP16, literal(-11)))
        CFI (cfiCond294) V4 load(1, XDATA, add(CFA_XSP16, literal(-10)))
        CFI (cfiCond294) V5 load(1, XDATA, add(CFA_XSP16, literal(-9)))
        CFI (cfiCond294) V6 load(1, XDATA, add(CFA_XSP16, literal(-8)))
        CFI (cfiCond294) V7 load(1, XDATA, add(CFA_XSP16, literal(-7)))
        CFI (cfiCond294) R7 load(1, XDATA, add(CFA_XSP16, literal(-6)))
        CFI (cfiCond294) ?RET_LOW load(1, XDATA, add(CFA_XSP16, literal(-5)))
        CFI (cfiCond294) ?RET_HIGH load(1, XDATA, add(CFA_XSP16, literal(-4)))
        CFI (cfiCond294) ?BRET_EXT load(1, XDATA, add(CFA_XSP16, literal(-3)))
        CFI (cfiCond294) DPL0 load(1, XDATA, add(CFA_XSP16, literal(-2)))
        CFI (cfiCond294) DPH0 load(1, XDATA, add(CFA_XSP16, literal(-1)))
        CFI (cfiCond294) CFA_SP SP+0
        CFI (cfiCond294) CFA_XSP16 add(XSP16, 21)
        CFI Block cfiCond295 Using cfiCommon0
        CFI (cfiCond295) NoFunction
        CFI (cfiCond295) Conditional ??CrossCallReturnLabel_199, ??CrossCallReturnLabel_191
        CFI (cfiCond295) R6 load(1, XDATA, add(CFA_XSP16, literal(-9)))
        CFI (cfiCond295) VB load(1, XDATA, add(CFA_XSP16, literal(-8)))
        CFI (cfiCond295) V0 load(1, XDATA, add(CFA_XSP16, literal(-7)))
        CFI (cfiCond295) R7 load(1, XDATA, add(CFA_XSP16, literal(-6)))
        CFI (cfiCond295) ?RET_LOW load(1, XDATA, add(CFA_XSP16, literal(-5)))
        CFI (cfiCond295) ?RET_HIGH load(1, XDATA, add(CFA_XSP16, literal(-4)))
        CFI (cfiCond295) ?BRET_EXT load(1, XDATA, add(CFA_XSP16, literal(-3)))
        CFI (cfiCond295) DPL0 load(1, XDATA, add(CFA_XSP16, literal(-2)))
        CFI (cfiCond295) DPH0 load(1, XDATA, add(CFA_XSP16, literal(-1)))
        CFI (cfiCond295) CFA_SP SP+0
        CFI (cfiCond295) CFA_XSP16 add(XSP16, 9)
        CFI Block cfiCond296 Using cfiCommon0
        CFI (cfiCond296) NoFunction
        CFI (cfiCond296) Conditional ??CrossCallReturnLabel_199, ??CrossCallReturnLabel_192
        CFI (cfiCond296) R6 load(1, XDATA, add(CFA_XSP16, literal(-9)))
        CFI (cfiCond296) VB load(1, XDATA, add(CFA_XSP16, literal(-8)))
        CFI (cfiCond296) V0 load(1, XDATA, add(CFA_XSP16, literal(-7)))
        CFI (cfiCond296) R7 load(1, XDATA, add(CFA_XSP16, literal(-6)))
        CFI (cfiCond296) ?RET_LOW load(1, XDATA, add(CFA_XSP16, literal(-5)))
        CFI (cfiCond296) ?RET_HIGH load(1, XDATA, add(CFA_XSP16, literal(-4)))
        CFI (cfiCond296) ?BRET_EXT load(1, XDATA, add(CFA_XSP16, literal(-3)))
        CFI (cfiCond296) DPL0 load(1, XDATA, add(CFA_XSP16, literal(-2)))
        CFI (cfiCond296) DPH0 load(1, XDATA, add(CFA_XSP16, literal(-1)))
        CFI (cfiCond296) CFA_SP SP+0
        CFI (cfiCond296) CFA_XSP16 add(XSP16, 9)
        CFI Block cfiCond297 Using cfiCommon0
        CFI (cfiCond297) NoFunction
        CFI (cfiCond297) Conditional ??CrossCallReturnLabel_199, ??CrossCallReturnLabel_193
        CFI (cfiCond297) R6 load(1, XDATA, add(CFA_XSP16, literal(-16)))
        CFI (cfiCond297) VB load(1, XDATA, add(CFA_XSP16, literal(-15)))
        CFI (cfiCond297) V0 load(1, XDATA, add(CFA_XSP16, literal(-14)))
        CFI (cfiCond297) V1 load(1, XDATA, add(CFA_XSP16, literal(-13)))
        CFI (cfiCond297) V2 load(1, XDATA, add(CFA_XSP16, literal(-12)))
        CFI (cfiCond297) V3 load(1, XDATA, add(CFA_XSP16, literal(-11)))
        CFI (cfiCond297) V4 load(1, XDATA, add(CFA_XSP16, literal(-10)))
        CFI (cfiCond297) V5 load(1, XDATA, add(CFA_XSP16, literal(-9)))
        CFI (cfiCond297) V6 load(1, XDATA, add(CFA_XSP16, literal(-8)))
        CFI (cfiCond297) V7 load(1, XDATA, add(CFA_XSP16, literal(-7)))
        CFI (cfiCond297) R7 load(1, XDATA, add(CFA_XSP16, literal(-6)))
        CFI (cfiCond297) ?RET_LOW load(1, XDATA, add(CFA_XSP16, literal(-5)))
        CFI (cfiCond297) ?RET_HIGH load(1, XDATA, add(CFA_XSP16, literal(-4)))
        CFI (cfiCond297) ?BRET_EXT load(1, XDATA, add(CFA_XSP16, literal(-3)))
        CFI (cfiCond297) DPL0 load(1, XDATA, add(CFA_XSP16, literal(-2)))
        CFI (cfiCond297) DPH0 load(1, XDATA, add(CFA_XSP16, literal(-1)))
        CFI (cfiCond297) CFA_SP SP+0
        CFI (cfiCond297) CFA_XSP16 add(XSP16, 35)
        CFI Block cfiCond298 Using cfiCommon0
        CFI (cfiCond298) NoFunction
        CFI (cfiCond298) Conditional ??CrossCallReturnLabel_199, ??CrossCallReturnLabel_194
        CFI (cfiCond298) R6 load(1, XDATA, add(CFA_XSP16, literal(-16)))
        CFI (cfiCond298) VB load(1, XDATA, add(CFA_XSP16, literal(-15)))
        CFI (cfiCond298) V0 load(1, XDATA, add(CFA_XSP16, literal(-14)))
        CFI (cfiCond298) V1 load(1, XDATA, add(CFA_XSP16, literal(-13)))
        CFI (cfiCond298) V2 load(1, XDATA, add(CFA_XSP16, literal(-12)))
        CFI (cfiCond298) V3 load(1, XDATA, add(CFA_XSP16, literal(-11)))
        CFI (cfiCond298) V4 load(1, XDATA, add(CFA_XSP16, literal(-10)))
        CFI (cfiCond298) V5 load(1, XDATA, add(CFA_XSP16, literal(-9)))
        CFI (cfiCond298) V6 load(1, XDATA, add(CFA_XSP16, literal(-8)))
        CFI (cfiCond298) V7 load(1, XDATA, add(CFA_XSP16, literal(-7)))
        CFI (cfiCond298) R7 load(1, XDATA, add(CFA_XSP16, literal(-6)))
        CFI (cfiCond298) ?RET_LOW load(1, XDATA, add(CFA_XSP16, literal(-5)))
        CFI (cfiCond298) ?RET_HIGH load(1, XDATA, add(CFA_XSP16, literal(-4)))
        CFI (cfiCond298) ?BRET_EXT load(1, XDATA, add(CFA_XSP16, literal(-3)))
        CFI (cfiCond298) DPL0 load(1, XDATA, add(CFA_XSP16, literal(-2)))
        CFI (cfiCond298) DPH0 load(1, XDATA, add(CFA_XSP16, literal(-1)))
        CFI (cfiCond298) CFA_SP SP+0
        CFI (cfiCond298) CFA_XSP16 add(XSP16, 35)
        CFI Block cfiCond299 Using cfiCommon0
        CFI (cfiCond299) NoFunction
        CFI (cfiCond299) Conditional ??CrossCallReturnLabel_199, ??CrossCallReturnLabel_195
        CFI (cfiCond299) R6 load(1, XDATA, add(CFA_XSP16, literal(-16)))
        CFI (cfiCond299) VB load(1, XDATA, add(CFA_XSP16, literal(-15)))
        CFI (cfiCond299) V0 load(1, XDATA, add(CFA_XSP16, literal(-14)))
        CFI (cfiCond299) V1 load(1, XDATA, add(CFA_XSP16, literal(-13)))
        CFI (cfiCond299) V2 load(1, XDATA, add(CFA_XSP16, literal(-12)))
        CFI (cfiCond299) V3 load(1, XDATA, add(CFA_XSP16, literal(-11)))
        CFI (cfiCond299) V4 load(1, XDATA, add(CFA_XSP16, literal(-10)))
        CFI (cfiCond299) V5 load(1, XDATA, add(CFA_XSP16, literal(-9)))
        CFI (cfiCond299) V6 load(1, XDATA, add(CFA_XSP16, literal(-8)))
        CFI (cfiCond299) V7 load(1, XDATA, add(CFA_XSP16, literal(-7)))
        CFI (cfiCond299) R7 load(1, XDATA, add(CFA_XSP16, literal(-6)))
        CFI (cfiCond299) ?RET_LOW load(1, XDATA, add(CFA_XSP16, literal(-5)))
        CFI (cfiCond299) ?RET_HIGH load(1, XDATA, add(CFA_XSP16, literal(-4)))
        CFI (cfiCond299) ?BRET_EXT load(1, XDATA, add(CFA_XSP16, literal(-3)))
        CFI (cfiCond299) DPL0 load(1, XDATA, add(CFA_XSP16, literal(-2)))
        CFI (cfiCond299) DPH0 load(1, XDATA, add(CFA_XSP16, literal(-1)))
        CFI (cfiCond299) CFA_SP SP+0
        CFI (cfiCond299) CFA_XSP16 add(XSP16, 17)
        CFI Block cfiCond300 Using cfiCommon0
        CFI (cfiCond300) NoFunction
        CFI (cfiCond300) Conditional ??CrossCallReturnLabel_199, ??CrossCallReturnLabel_185
        CFI (cfiCond300) R6 load(1, XDATA, add(CFA_XSP16, literal(-9)))
        CFI (cfiCond300) VB load(1, XDATA, add(CFA_XSP16, literal(-8)))
        CFI (cfiCond300) V0 load(1, XDATA, add(CFA_XSP16, literal(-7)))
        CFI (cfiCond300) R7 load(1, XDATA, add(CFA_XSP16, literal(-6)))
        CFI (cfiCond300) ?RET_LOW load(1, XDATA, add(CFA_XSP16, literal(-5)))
        CFI (cfiCond300) ?RET_HIGH load(1, XDATA, add(CFA_XSP16, literal(-4)))
        CFI (cfiCond300) ?BRET_EXT load(1, XDATA, add(CFA_XSP16, literal(-3)))
        CFI (cfiCond300) DPL0 load(1, XDATA, add(CFA_XSP16, literal(-2)))
        CFI (cfiCond300) DPH0 load(1, XDATA, add(CFA_XSP16, literal(-1)))
        CFI (cfiCond300) CFA_SP SP+0
        CFI (cfiCond300) CFA_XSP16 add(XSP16, 9)
        CFI Block cfiCond301 Using cfiCommon0
        CFI (cfiCond301) NoFunction
        CFI (cfiCond301) Conditional ??CrossCallReturnLabel_199, ??CrossCallReturnLabel_186
        CFI (cfiCond301) R6 load(1, XDATA, add(CFA_XSP16, literal(-16)))
        CFI (cfiCond301) VB load(1, XDATA, add(CFA_XSP16, literal(-15)))
        CFI (cfiCond301) V0 load(1, XDATA, add(CFA_XSP16, literal(-14)))
        CFI (cfiCond301) V1 load(1, XDATA, add(CFA_XSP16, literal(-13)))
        CFI (cfiCond301) V2 load(1, XDATA, add(CFA_XSP16, literal(-12)))
        CFI (cfiCond301) V3 load(1, XDATA, add(CFA_XSP16, literal(-11)))
        CFI (cfiCond301) V4 load(1, XDATA, add(CFA_XSP16, literal(-10)))
        CFI (cfiCond301) V5 load(1, XDATA, add(CFA_XSP16, literal(-9)))
        CFI (cfiCond301) V6 load(1, XDATA, add(CFA_XSP16, literal(-8)))
        CFI (cfiCond301) V7 load(1, XDATA, add(CFA_XSP16, literal(-7)))
        CFI (cfiCond301) R7 load(1, XDATA, add(CFA_XSP16, literal(-6)))
        CFI (cfiCond301) ?RET_LOW load(1, XDATA, add(CFA_XSP16, literal(-5)))
        CFI (cfiCond301) ?RET_HIGH load(1, XDATA, add(CFA_XSP16, literal(-4)))
        CFI (cfiCond301) ?BRET_EXT load(1, XDATA, add(CFA_XSP16, literal(-3)))
        CFI (cfiCond301) DPL0 load(1, XDATA, add(CFA_XSP16, literal(-2)))
        CFI (cfiCond301) DPH0 load(1, XDATA, add(CFA_XSP16, literal(-1)))
        CFI (cfiCond301) CFA_SP SP+0
        CFI (cfiCond301) CFA_XSP16 add(XSP16, 25)
        CFI Block cfiCond302 Using cfiCommon0
        CFI (cfiCond302) NoFunction
        CFI (cfiCond302) Conditional ??CrossCallReturnLabel_199, ??CrossCallReturnLabel_187
        CFI (cfiCond302) R6 load(1, XDATA, add(CFA_XSP16, literal(-16)))
        CFI (cfiCond302) VB load(1, XDATA, add(CFA_XSP16, literal(-15)))
        CFI (cfiCond302) V0 load(1, XDATA, add(CFA_XSP16, literal(-14)))
        CFI (cfiCond302) V1 load(1, XDATA, add(CFA_XSP16, literal(-13)))
        CFI (cfiCond302) V2 load(1, XDATA, add(CFA_XSP16, literal(-12)))
        CFI (cfiCond302) V3 load(1, XDATA, add(CFA_XSP16, literal(-11)))
        CFI (cfiCond302) V4 load(1, XDATA, add(CFA_XSP16, literal(-10)))
        CFI (cfiCond302) V5 load(1, XDATA, add(CFA_XSP16, literal(-9)))
        CFI (cfiCond302) V6 load(1, XDATA, add(CFA_XSP16, literal(-8)))
        CFI (cfiCond302) V7 load(1, XDATA, add(CFA_XSP16, literal(-7)))
        CFI (cfiCond302) R7 load(1, XDATA, add(CFA_XSP16, literal(-6)))
        CFI (cfiCond302) ?RET_LOW load(1, XDATA, add(CFA_XSP16, literal(-5)))
        CFI (cfiCond302) ?RET_HIGH load(1, XDATA, add(CFA_XSP16, literal(-4)))
        CFI (cfiCond302) ?BRET_EXT load(1, XDATA, add(CFA_XSP16, literal(-3)))
        CFI (cfiCond302) DPL0 load(1, XDATA, add(CFA_XSP16, literal(-2)))
        CFI (cfiCond302) DPH0 load(1, XDATA, add(CFA_XSP16, literal(-1)))
        CFI (cfiCond302) CFA_SP SP+0
        CFI (cfiCond302) CFA_XSP16 add(XSP16, 25)
        CFI Block cfiCond303 Using cfiCommon0
        CFI (cfiCond303) NoFunction
        CFI (cfiCond303) Conditional ??CrossCallReturnLabel_199, ??CrossCallReturnLabel_188
        CFI (cfiCond303) R6 load(1, XDATA, add(CFA_XSP16, literal(-16)))
        CFI (cfiCond303) VB load(1, XDATA, add(CFA_XSP16, literal(-15)))
        CFI (cfiCond303) V0 load(1, XDATA, add(CFA_XSP16, literal(-14)))
        CFI (cfiCond303) V1 load(1, XDATA, add(CFA_XSP16, literal(-13)))
        CFI (cfiCond303) V2 load(1, XDATA, add(CFA_XSP16, literal(-12)))
        CFI (cfiCond303) V3 load(1, XDATA, add(CFA_XSP16, literal(-11)))
        CFI (cfiCond303) V4 load(1, XDATA, add(CFA_XSP16, literal(-10)))
        CFI (cfiCond303) V5 load(1, XDATA, add(CFA_XSP16, literal(-9)))
        CFI (cfiCond303) V6 load(1, XDATA, add(CFA_XSP16, literal(-8)))
        CFI (cfiCond303) V7 load(1, XDATA, add(CFA_XSP16, literal(-7)))
        CFI (cfiCond303) R7 load(1, XDATA, add(CFA_XSP16, literal(-6)))
        CFI (cfiCond303) ?RET_LOW load(1, XDATA, add(CFA_XSP16, literal(-5)))
        CFI (cfiCond303) ?RET_HIGH load(1, XDATA, add(CFA_XSP16, literal(-4)))
        CFI (cfiCond303) ?BRET_EXT load(1, XDATA, add(CFA_XSP16, literal(-3)))
        CFI (cfiCond303) DPL0 load(1, XDATA, add(CFA_XSP16, literal(-2)))
        CFI (cfiCond303) DPH0 load(1, XDATA, add(CFA_XSP16, literal(-1)))
        CFI (cfiCond303) CFA_SP SP+0
        CFI (cfiCond303) CFA_XSP16 add(XSP16, 25)
        CFI Block cfiCond304 Using cfiCommon0
        CFI (cfiCond304) NoFunction
        CFI (cfiCond304) Conditional ??CrossCallReturnLabel_199, ??CrossCallReturnLabel_189
        CFI (cfiCond304) R6 load(1, XDATA, add(CFA_XSP16, literal(-16)))
        CFI (cfiCond304) VB load(1, XDATA, add(CFA_XSP16, literal(-15)))
        CFI (cfiCond304) V0 load(1, XDATA, add(CFA_XSP16, literal(-14)))
        CFI (cfiCond304) V1 load(1, XDATA, add(CFA_XSP16, literal(-13)))
        CFI (cfiCond304) V2 load(1, XDATA, add(CFA_XSP16, literal(-12)))
        CFI (cfiCond304) V3 load(1, XDATA, add(CFA_XSP16, literal(-11)))
        CFI (cfiCond304) V4 load(1, XDATA, add(CFA_XSP16, literal(-10)))
        CFI (cfiCond304) V5 load(1, XDATA, add(CFA_XSP16, literal(-9)))
        CFI (cfiCond304) V6 load(1, XDATA, add(CFA_XSP16, literal(-8)))
        CFI (cfiCond304) V7 load(1, XDATA, add(CFA_XSP16, literal(-7)))
        CFI (cfiCond304) R7 load(1, XDATA, add(CFA_XSP16, literal(-6)))
        CFI (cfiCond304) ?RET_LOW load(1, XDATA, add(CFA_XSP16, literal(-5)))
        CFI (cfiCond304) ?RET_HIGH load(1, XDATA, add(CFA_XSP16, literal(-4)))
        CFI (cfiCond304) ?BRET_EXT load(1, XDATA, add(CFA_XSP16, literal(-3)))
        CFI (cfiCond304) DPL0 load(1, XDATA, add(CFA_XSP16, literal(-2)))
        CFI (cfiCond304) DPH0 load(1, XDATA, add(CFA_XSP16, literal(-1)))
        CFI (cfiCond304) CFA_SP SP+0
        CFI (cfiCond304) CFA_XSP16 add(XSP16, 25)
        CFI Block cfiCond305 Using cfiCommon0
        CFI (cfiCond305) NoFunction
        CFI (cfiCond305) Conditional ??CrossCallReturnLabel_199, ??CrossCallReturnLabel_190
        CFI (cfiCond305) R6 load(1, XDATA, add(CFA_XSP16, literal(-16)))
        CFI (cfiCond305) VB load(1, XDATA, add(CFA_XSP16, literal(-15)))
        CFI (cfiCond305) V0 load(1, XDATA, add(CFA_XSP16, literal(-14)))
        CFI (cfiCond305) V1 load(1, XDATA, add(CFA_XSP16, literal(-13)))
        CFI (cfiCond305) V2 load(1, XDATA, add(CFA_XSP16, literal(-12)))
        CFI (cfiCond305) V3 load(1, XDATA, add(CFA_XSP16, literal(-11)))
        CFI (cfiCond305) V4 load(1, XDATA, add(CFA_XSP16, literal(-10)))
        CFI (cfiCond305) V5 load(1, XDATA, add(CFA_XSP16, literal(-9)))
        CFI (cfiCond305) V6 load(1, XDATA, add(CFA_XSP16, literal(-8)))
        CFI (cfiCond305) V7 load(1, XDATA, add(CFA_XSP16, literal(-7)))
        CFI (cfiCond305) R7 load(1, XDATA, add(CFA_XSP16, literal(-6)))
        CFI (cfiCond305) ?RET_LOW load(1, XDATA, add(CFA_XSP16, literal(-5)))
        CFI (cfiCond305) ?RET_HIGH load(1, XDATA, add(CFA_XSP16, literal(-4)))
        CFI (cfiCond305) ?BRET_EXT load(1, XDATA, add(CFA_XSP16, literal(-3)))
        CFI (cfiCond305) DPL0 load(1, XDATA, add(CFA_XSP16, literal(-2)))
        CFI (cfiCond305) DPH0 load(1, XDATA, add(CFA_XSP16, literal(-1)))
        CFI (cfiCond305) CFA_SP SP+0
        CFI (cfiCond305) CFA_XSP16 add(XSP16, 21)
        CFI Block cfiPicker306 Using cfiCommon1
        CFI (cfiPicker306) NoFunction
        CFI (cfiPicker306) Picker
        MOVX    A,@DPTR
        MOV     R0,A
        INC     DPTR
        MOVX    A,@DPTR
        MOV     R1,A
        RET
        CFI EndBlock cfiCond292
        CFI EndBlock cfiCond293
        CFI EndBlock cfiCond294
        CFI EndBlock cfiCond295
        CFI EndBlock cfiCond296
        CFI EndBlock cfiCond297
        CFI EndBlock cfiCond298
        CFI EndBlock cfiCond299
        CFI EndBlock cfiCond300
        CFI EndBlock cfiCond301
        CFI EndBlock cfiCond302
        CFI EndBlock cfiCond303
        CFI EndBlock cfiCond304
        CFI EndBlock cfiCond305
        CFI EndBlock cfiPicker306

        RSEG BANKED_CODE:CODE:NOROOT(0)
?Subroutine45:
        CFI Block cfiCond307 Using cfiCommon0
        CFI NoFunction
        CFI Conditional ??CrossCallReturnLabel_169
        CFI R6 load(1, XDATA, add(CFA_XSP16, literal(-16)))
        CFI VB load(1, XDATA, add(CFA_XSP16, literal(-15)))
        CFI V0 load(1, XDATA, add(CFA_XSP16, literal(-14)))
        CFI V1 load(1, XDATA, add(CFA_XSP16, literal(-13)))
        CFI V2 load(1, XDATA, add(CFA_XSP16, literal(-12)))
        CFI V3 load(1, XDATA, add(CFA_XSP16, literal(-11)))
        CFI V4 load(1, XDATA, add(CFA_XSP16, literal(-10)))
        CFI V5 load(1, XDATA, add(CFA_XSP16, literal(-9)))
        CFI V6 load(1, XDATA, add(CFA_XSP16, literal(-8)))
        CFI V7 load(1, XDATA, add(CFA_XSP16, literal(-7)))
        CFI R7 load(1, XDATA, add(CFA_XSP16, literal(-6)))
        CFI ?RET_LOW load(1, XDATA, add(CFA_XSP16, literal(-5)))
        CFI ?RET_HIGH load(1, XDATA, add(CFA_XSP16, literal(-4)))
        CFI ?BRET_EXT load(1, XDATA, add(CFA_XSP16, literal(-3)))
        CFI DPL0 load(1, XDATA, add(CFA_XSP16, literal(-2)))
        CFI DPH0 load(1, XDATA, add(CFA_XSP16, literal(-1)))
        CFI CFA_SP SP+0
        CFI CFA_XSP16 add(XSP16, 28)
        CFI Block cfiCond308 Using cfiCommon0
        CFI (cfiCond308) NoFunction
        CFI (cfiCond308) Conditional ??CrossCallReturnLabel_170
        CFI (cfiCond308) R6 load(1, XDATA, add(CFA_XSP16, literal(-16)))
        CFI (cfiCond308) VB load(1, XDATA, add(CFA_XSP16, literal(-15)))
        CFI (cfiCond308) V0 load(1, XDATA, add(CFA_XSP16, literal(-14)))
        CFI (cfiCond308) V1 load(1, XDATA, add(CFA_XSP16, literal(-13)))
        CFI (cfiCond308) V2 load(1, XDATA, add(CFA_XSP16, literal(-12)))
        CFI (cfiCond308) V3 load(1, XDATA, add(CFA_XSP16, literal(-11)))
        CFI (cfiCond308) V4 load(1, XDATA, add(CFA_XSP16, literal(-10)))
        CFI (cfiCond308) V5 load(1, XDATA, add(CFA_XSP16, literal(-9)))
        CFI (cfiCond308) V6 load(1, XDATA, add(CFA_XSP16, literal(-8)))
        CFI (cfiCond308) V7 load(1, XDATA, add(CFA_XSP16, literal(-7)))
        CFI (cfiCond308) R7 load(1, XDATA, add(CFA_XSP16, literal(-6)))
        CFI (cfiCond308) ?RET_LOW load(1, XDATA, add(CFA_XSP16, literal(-5)))
        CFI (cfiCond308) ?RET_HIGH load(1, XDATA, add(CFA_XSP16, literal(-4)))
        CFI (cfiCond308) ?BRET_EXT load(1, XDATA, add(CFA_XSP16, literal(-3)))
        CFI (cfiCond308) DPL0 load(1, XDATA, add(CFA_XSP16, literal(-2)))
        CFI (cfiCond308) DPH0 load(1, XDATA, add(CFA_XSP16, literal(-1)))
        CFI (cfiCond308) CFA_SP SP+0
        CFI (cfiCond308) CFA_XSP16 add(XSP16, 28)
        CFI Block cfiCond309 Using cfiCommon0
        CFI (cfiCond309) NoFunction
        CFI (cfiCond309) Conditional ??CrossCallReturnLabel_171
        CFI (cfiCond309) R6 load(1, XDATA, add(CFA_XSP16, literal(-16)))
        CFI (cfiCond309) VB load(1, XDATA, add(CFA_XSP16, literal(-15)))
        CFI (cfiCond309) V0 load(1, XDATA, add(CFA_XSP16, literal(-14)))
        CFI (cfiCond309) V1 load(1, XDATA, add(CFA_XSP16, literal(-13)))
        CFI (cfiCond309) V2 load(1, XDATA, add(CFA_XSP16, literal(-12)))
        CFI (cfiCond309) V3 load(1, XDATA, add(CFA_XSP16, literal(-11)))
        CFI (cfiCond309) V4 load(1, XDATA, add(CFA_XSP16, literal(-10)))
        CFI (cfiCond309) V5 load(1, XDATA, add(CFA_XSP16, literal(-9)))
        CFI (cfiCond309) V6 load(1, XDATA, add(CFA_XSP16, literal(-8)))
        CFI (cfiCond309) V7 load(1, XDATA, add(CFA_XSP16, literal(-7)))
        CFI (cfiCond309) R7 load(1, XDATA, add(CFA_XSP16, literal(-6)))
        CFI (cfiCond309) ?RET_LOW load(1, XDATA, add(CFA_XSP16, literal(-5)))
        CFI (cfiCond309) ?RET_HIGH load(1, XDATA, add(CFA_XSP16, literal(-4)))
        CFI (cfiCond309) ?BRET_EXT load(1, XDATA, add(CFA_XSP16, literal(-3)))
        CFI (cfiCond309) DPL0 load(1, XDATA, add(CFA_XSP16, literal(-2)))
        CFI (cfiCond309) DPH0 load(1, XDATA, add(CFA_XSP16, literal(-1)))
        CFI (cfiCond309) CFA_SP SP+0
        CFI (cfiCond309) CFA_XSP16 add(XSP16, 24)
        CFI Block cfiCond310 Using cfiCommon0
        CFI (cfiCond310) NoFunction
        CFI (cfiCond310) Conditional ??CrossCallReturnLabel_172
        CFI (cfiCond310) R6 load(1, XDATA, add(CFA_XSP16, literal(-16)))
        CFI (cfiCond310) VB load(1, XDATA, add(CFA_XSP16, literal(-15)))
        CFI (cfiCond310) V0 load(1, XDATA, add(CFA_XSP16, literal(-14)))
        CFI (cfiCond310) V1 load(1, XDATA, add(CFA_XSP16, literal(-13)))
        CFI (cfiCond310) V2 load(1, XDATA, add(CFA_XSP16, literal(-12)))
        CFI (cfiCond310) V3 load(1, XDATA, add(CFA_XSP16, literal(-11)))
        CFI (cfiCond310) V4 load(1, XDATA, add(CFA_XSP16, literal(-10)))
        CFI (cfiCond310) V5 load(1, XDATA, add(CFA_XSP16, literal(-9)))
        CFI (cfiCond310) V6 load(1, XDATA, add(CFA_XSP16, literal(-8)))
        CFI (cfiCond310) V7 load(1, XDATA, add(CFA_XSP16, literal(-7)))
        CFI (cfiCond310) R7 load(1, XDATA, add(CFA_XSP16, literal(-6)))
        CFI (cfiCond310) ?RET_LOW load(1, XDATA, add(CFA_XSP16, literal(-5)))
        CFI (cfiCond310) ?RET_HIGH load(1, XDATA, add(CFA_XSP16, literal(-4)))
        CFI (cfiCond310) ?BRET_EXT load(1, XDATA, add(CFA_XSP16, literal(-3)))
        CFI (cfiCond310) DPL0 load(1, XDATA, add(CFA_XSP16, literal(-2)))
        CFI (cfiCond310) DPH0 load(1, XDATA, add(CFA_XSP16, literal(-1)))
        CFI (cfiCond310) CFA_SP SP+0
        CFI (cfiCond310) CFA_XSP16 add(XSP16, 20)
        CFI Block cfiPicker311 Using cfiCommon1
        CFI (cfiPicker311) NoFunction
        CFI (cfiPicker311) Picker
        MOV     R3,A
        CFI EndBlock cfiCond307
        CFI EndBlock cfiCond308
        CFI EndBlock cfiCond309
        CFI EndBlock cfiCond310
        CFI EndBlock cfiPicker311
        REQUIRE ??Subroutine75_0
        ; // Fall through to label ??Subroutine75_0

        RSEG BANKED_CODE:CODE:NOROOT(0)
??Subroutine75_0:
        CFI Block cfiCond312 Using cfiCommon0
        CFI NoFunction
        CFI Conditional ??CrossCallReturnLabel_173
        CFI R6 load(1, XDATA, add(CFA_XSP16, literal(-16)))
        CFI VB load(1, XDATA, add(CFA_XSP16, literal(-15)))
        CFI V0 load(1, XDATA, add(CFA_XSP16, literal(-14)))
        CFI V1 load(1, XDATA, add(CFA_XSP16, literal(-13)))
        CFI V2 load(1, XDATA, add(CFA_XSP16, literal(-12)))
        CFI V3 load(1, XDATA, add(CFA_XSP16, literal(-11)))
        CFI V4 load(1, XDATA, add(CFA_XSP16, literal(-10)))
        CFI V5 load(1, XDATA, add(CFA_XSP16, literal(-9)))
        CFI V6 load(1, XDATA, add(CFA_XSP16, literal(-8)))
        CFI V7 load(1, XDATA, add(CFA_XSP16, literal(-7)))
        CFI R7 load(1, XDATA, add(CFA_XSP16, literal(-6)))
        CFI ?RET_LOW load(1, XDATA, add(CFA_XSP16, literal(-5)))
        CFI ?RET_HIGH load(1, XDATA, add(CFA_XSP16, literal(-4)))
        CFI ?BRET_EXT load(1, XDATA, add(CFA_XSP16, literal(-3)))
        CFI DPL0 load(1, XDATA, add(CFA_XSP16, literal(-2)))
        CFI DPH0 load(1, XDATA, add(CFA_XSP16, literal(-1)))
        CFI CFA_SP SP+0
        CFI CFA_XSP16 add(XSP16, 38)
        CFI Block cfiCond313 Using cfiCommon0
        CFI (cfiCond313) NoFunction
        CFI (cfiCond313) Conditional ??CrossCallReturnLabel_174
        CFI (cfiCond313) R6 load(1, XDATA, add(CFA_XSP16, literal(-16)))
        CFI (cfiCond313) VB load(1, XDATA, add(CFA_XSP16, literal(-15)))
        CFI (cfiCond313) V0 load(1, XDATA, add(CFA_XSP16, literal(-14)))
        CFI (cfiCond313) V1 load(1, XDATA, add(CFA_XSP16, literal(-13)))
        CFI (cfiCond313) V2 load(1, XDATA, add(CFA_XSP16, literal(-12)))
        CFI (cfiCond313) V3 load(1, XDATA, add(CFA_XSP16, literal(-11)))
        CFI (cfiCond313) V4 load(1, XDATA, add(CFA_XSP16, literal(-10)))
        CFI (cfiCond313) V5 load(1, XDATA, add(CFA_XSP16, literal(-9)))
        CFI (cfiCond313) V6 load(1, XDATA, add(CFA_XSP16, literal(-8)))
        CFI (cfiCond313) V7 load(1, XDATA, add(CFA_XSP16, literal(-7)))
        CFI (cfiCond313) R7 load(1, XDATA, add(CFA_XSP16, literal(-6)))
        CFI (cfiCond313) ?RET_LOW load(1, XDATA, add(CFA_XSP16, literal(-5)))
        CFI (cfiCond313) ?RET_HIGH load(1, XDATA, add(CFA_XSP16, literal(-4)))
        CFI (cfiCond313) ?BRET_EXT load(1, XDATA, add(CFA_XSP16, literal(-3)))
        CFI (cfiCond313) DPL0 load(1, XDATA, add(CFA_XSP16, literal(-2)))
        CFI (cfiCond313) DPH0 load(1, XDATA, add(CFA_XSP16, literal(-1)))
        CFI (cfiCond313) CFA_SP SP+0
        CFI (cfiCond313) CFA_XSP16 add(XSP16, 38)
        CFI Block cfiCond314 Using cfiCommon0
        CFI (cfiCond314) NoFunction
        CFI (cfiCond314) Conditional ??CrossCallReturnLabel_169
        CFI (cfiCond314) R6 load(1, XDATA, add(CFA_XSP16, literal(-16)))
        CFI (cfiCond314) VB load(1, XDATA, add(CFA_XSP16, literal(-15)))
        CFI (cfiCond314) V0 load(1, XDATA, add(CFA_XSP16, literal(-14)))
        CFI (cfiCond314) V1 load(1, XDATA, add(CFA_XSP16, literal(-13)))
        CFI (cfiCond314) V2 load(1, XDATA, add(CFA_XSP16, literal(-12)))
        CFI (cfiCond314) V3 load(1, XDATA, add(CFA_XSP16, literal(-11)))
        CFI (cfiCond314) V4 load(1, XDATA, add(CFA_XSP16, literal(-10)))
        CFI (cfiCond314) V5 load(1, XDATA, add(CFA_XSP16, literal(-9)))
        CFI (cfiCond314) V6 load(1, XDATA, add(CFA_XSP16, literal(-8)))
        CFI (cfiCond314) V7 load(1, XDATA, add(CFA_XSP16, literal(-7)))
        CFI (cfiCond314) R7 load(1, XDATA, add(CFA_XSP16, literal(-6)))
        CFI (cfiCond314) ?RET_LOW load(1, XDATA, add(CFA_XSP16, literal(-5)))
        CFI (cfiCond314) ?RET_HIGH load(1, XDATA, add(CFA_XSP16, literal(-4)))
        CFI (cfiCond314) ?BRET_EXT load(1, XDATA, add(CFA_XSP16, literal(-3)))
        CFI (cfiCond314) DPL0 load(1, XDATA, add(CFA_XSP16, literal(-2)))
        CFI (cfiCond314) DPH0 load(1, XDATA, add(CFA_XSP16, literal(-1)))
        CFI (cfiCond314) CFA_SP SP+0
        CFI (cfiCond314) CFA_XSP16 add(XSP16, 28)
        CFI Block cfiCond315 Using cfiCommon0
        CFI (cfiCond315) NoFunction
        CFI (cfiCond315) Conditional ??CrossCallReturnLabel_170
        CFI (cfiCond315) R6 load(1, XDATA, add(CFA_XSP16, literal(-16)))
        CFI (cfiCond315) VB load(1, XDATA, add(CFA_XSP16, literal(-15)))
        CFI (cfiCond315) V0 load(1, XDATA, add(CFA_XSP16, literal(-14)))
        CFI (cfiCond315) V1 load(1, XDATA, add(CFA_XSP16, literal(-13)))
        CFI (cfiCond315) V2 load(1, XDATA, add(CFA_XSP16, literal(-12)))
        CFI (cfiCond315) V3 load(1, XDATA, add(CFA_XSP16, literal(-11)))
        CFI (cfiCond315) V4 load(1, XDATA, add(CFA_XSP16, literal(-10)))
        CFI (cfiCond315) V5 load(1, XDATA, add(CFA_XSP16, literal(-9)))
        CFI (cfiCond315) V6 load(1, XDATA, add(CFA_XSP16, literal(-8)))
        CFI (cfiCond315) V7 load(1, XDATA, add(CFA_XSP16, literal(-7)))
        CFI (cfiCond315) R7 load(1, XDATA, add(CFA_XSP16, literal(-6)))
        CFI (cfiCond315) ?RET_LOW load(1, XDATA, add(CFA_XSP16, literal(-5)))
        CFI (cfiCond315) ?RET_HIGH load(1, XDATA, add(CFA_XSP16, literal(-4)))
        CFI (cfiCond315) ?BRET_EXT load(1, XDATA, add(CFA_XSP16, literal(-3)))
        CFI (cfiCond315) DPL0 load(1, XDATA, add(CFA_XSP16, literal(-2)))
        CFI (cfiCond315) DPH0 load(1, XDATA, add(CFA_XSP16, literal(-1)))
        CFI (cfiCond315) CFA_SP SP+0
        CFI (cfiCond315) CFA_XSP16 add(XSP16, 28)
        CFI Block cfiCond316 Using cfiCommon0
        CFI (cfiCond316) NoFunction
        CFI (cfiCond316) Conditional ??CrossCallReturnLabel_171
        CFI (cfiCond316) R6 load(1, XDATA, add(CFA_XSP16, literal(-16)))
        CFI (cfiCond316) VB load(1, XDATA, add(CFA_XSP16, literal(-15)))
        CFI (cfiCond316) V0 load(1, XDATA, add(CFA_XSP16, literal(-14)))
        CFI (cfiCond316) V1 load(1, XDATA, add(CFA_XSP16, literal(-13)))
        CFI (cfiCond316) V2 load(1, XDATA, add(CFA_XSP16, literal(-12)))
        CFI (cfiCond316) V3 load(1, XDATA, add(CFA_XSP16, literal(-11)))
        CFI (cfiCond316) V4 load(1, XDATA, add(CFA_XSP16, literal(-10)))
        CFI (cfiCond316) V5 load(1, XDATA, add(CFA_XSP16, literal(-9)))
        CFI (cfiCond316) V6 load(1, XDATA, add(CFA_XSP16, literal(-8)))
        CFI (cfiCond316) V7 load(1, XDATA, add(CFA_XSP16, literal(-7)))
        CFI (cfiCond316) R7 load(1, XDATA, add(CFA_XSP16, literal(-6)))
        CFI (cfiCond316) ?RET_LOW load(1, XDATA, add(CFA_XSP16, literal(-5)))
        CFI (cfiCond316) ?RET_HIGH load(1, XDATA, add(CFA_XSP16, literal(-4)))
        CFI (cfiCond316) ?BRET_EXT load(1, XDATA, add(CFA_XSP16, literal(-3)))
        CFI (cfiCond316) DPL0 load(1, XDATA, add(CFA_XSP16, literal(-2)))
        CFI (cfiCond316) DPH0 load(1, XDATA, add(CFA_XSP16, literal(-1)))
        CFI (cfiCond316) CFA_SP SP+0
        CFI (cfiCond316) CFA_XSP16 add(XSP16, 24)
        CFI Block cfiCond317 Using cfiCommon0
        CFI (cfiCond317) NoFunction
        CFI (cfiCond317) Conditional ??CrossCallReturnLabel_172
        CFI (cfiCond317) R6 load(1, XDATA, add(CFA_XSP16, literal(-16)))
        CFI (cfiCond317) VB load(1, XDATA, add(CFA_XSP16, literal(-15)))
        CFI (cfiCond317) V0 load(1, XDATA, add(CFA_XSP16, literal(-14)))
        CFI (cfiCond317) V1 load(1, XDATA, add(CFA_XSP16, literal(-13)))
        CFI (cfiCond317) V2 load(1, XDATA, add(CFA_XSP16, literal(-12)))
        CFI (cfiCond317) V3 load(1, XDATA, add(CFA_XSP16, literal(-11)))
        CFI (cfiCond317) V4 load(1, XDATA, add(CFA_XSP16, literal(-10)))
        CFI (cfiCond317) V5 load(1, XDATA, add(CFA_XSP16, literal(-9)))
        CFI (cfiCond317) V6 load(1, XDATA, add(CFA_XSP16, literal(-8)))
        CFI (cfiCond317) V7 load(1, XDATA, add(CFA_XSP16, literal(-7)))
        CFI (cfiCond317) R7 load(1, XDATA, add(CFA_XSP16, literal(-6)))
        CFI (cfiCond317) ?RET_LOW load(1, XDATA, add(CFA_XSP16, literal(-5)))
        CFI (cfiCond317) ?RET_HIGH load(1, XDATA, add(CFA_XSP16, literal(-4)))
        CFI (cfiCond317) ?BRET_EXT load(1, XDATA, add(CFA_XSP16, literal(-3)))
        CFI (cfiCond317) DPL0 load(1, XDATA, add(CFA_XSP16, literal(-2)))
        CFI (cfiCond317) DPH0 load(1, XDATA, add(CFA_XSP16, literal(-1)))
        CFI (cfiCond317) CFA_SP SP+0
        CFI (cfiCond317) CFA_XSP16 add(XSP16, 20)
        CFI Block cfiPicker318 Using cfiCommon1
        CFI (cfiPicker318) NoFunction
        CFI (cfiPicker318) Picker
        LCALL   ??osal_memcpy?relay
        MOV     A,#0x3
        RET
        CFI EndBlock cfiCond312
        CFI EndBlock cfiCond313
        CFI EndBlock cfiCond314
        CFI EndBlock cfiCond315
        CFI EndBlock cfiCond316
        CFI EndBlock cfiCond317
        CFI EndBlock cfiPicker318

        RSEG BANKED_CODE:CODE:NOROOT(0)
?Subroutine33:
        CFI Block cfiCond319 Using cfiCommon0
        CFI NoFunction
        CFI Conditional ??CrossCallReturnLabel_175
        CFI R6 load(1, XDATA, add(CFA_XSP16, literal(-16)))
        CFI VB load(1, XDATA, add(CFA_XSP16, literal(-15)))
        CFI V0 load(1, XDATA, add(CFA_XSP16, literal(-14)))
        CFI V1 load(1, XDATA, add(CFA_XSP16, literal(-13)))
        CFI V2 load(1, XDATA, add(CFA_XSP16, literal(-12)))
        CFI V3 load(1, XDATA, add(CFA_XSP16, literal(-11)))
        CFI V4 load(1, XDATA, add(CFA_XSP16, literal(-10)))
        CFI V5 load(1, XDATA, add(CFA_XSP16, literal(-9)))
        CFI V6 load(1, XDATA, add(CFA_XSP16, literal(-8)))
        CFI V7 load(1, XDATA, add(CFA_XSP16, literal(-7)))
        CFI R7 load(1, XDATA, add(CFA_XSP16, literal(-6)))
        CFI ?RET_LOW load(1, XDATA, add(CFA_XSP16, literal(-5)))
        CFI ?RET_HIGH load(1, XDATA, add(CFA_XSP16, literal(-4)))
        CFI ?BRET_EXT load(1, XDATA, add(CFA_XSP16, literal(-3)))
        CFI DPL0 load(1, XDATA, add(CFA_XSP16, literal(-2)))
        CFI DPH0 load(1, XDATA, add(CFA_XSP16, literal(-1)))
        CFI CFA_SP SP+0
        CFI CFA_XSP16 add(XSP16, 25)
        CFI Block cfiCond320 Using cfiCommon0
        CFI (cfiCond320) NoFunction
        CFI (cfiCond320) Conditional ??CrossCallReturnLabel_179
        CFI (cfiCond320) R6 load(1, XDATA, add(CFA_XSP16, literal(-16)))
        CFI (cfiCond320) VB load(1, XDATA, add(CFA_XSP16, literal(-15)))
        CFI (cfiCond320) V0 load(1, XDATA, add(CFA_XSP16, literal(-14)))
        CFI (cfiCond320) V1 load(1, XDATA, add(CFA_XSP16, literal(-13)))
        CFI (cfiCond320) V2 load(1, XDATA, add(CFA_XSP16, literal(-12)))
        CFI (cfiCond320) V3 load(1, XDATA, add(CFA_XSP16, literal(-11)))
        CFI (cfiCond320) V4 load(1, XDATA, add(CFA_XSP16, literal(-10)))
        CFI (cfiCond320) V5 load(1, XDATA, add(CFA_XSP16, literal(-9)))
        CFI (cfiCond320) V6 load(1, XDATA, add(CFA_XSP16, literal(-8)))
        CFI (cfiCond320) V7 load(1, XDATA, add(CFA_XSP16, literal(-7)))
        CFI (cfiCond320) R7 load(1, XDATA, add(CFA_XSP16, literal(-6)))
        CFI (cfiCond320) ?RET_LOW load(1, XDATA, add(CFA_XSP16, literal(-5)))
        CFI (cfiCond320) ?RET_HIGH load(1, XDATA, add(CFA_XSP16, literal(-4)))
        CFI (cfiCond320) ?BRET_EXT load(1, XDATA, add(CFA_XSP16, literal(-3)))
        CFI (cfiCond320) DPL0 load(1, XDATA, add(CFA_XSP16, literal(-2)))
        CFI (cfiCond320) DPH0 load(1, XDATA, add(CFA_XSP16, literal(-1)))
        CFI (cfiCond320) CFA_SP SP+0
        CFI (cfiCond320) CFA_XSP16 add(XSP16, 25)
        CFI Block cfiPicker321 Using cfiCommon1
        CFI (cfiPicker321) NoFunction
        CFI (cfiPicker321) Picker
        MOV     A,R2
        MOVX    @DPTR,A
        INC     DPTR
        MOV     A,R3
        CFI EndBlock cfiCond319
        CFI EndBlock cfiCond320
        CFI EndBlock cfiPicker321
        REQUIRE ??Subroutine76_0
        ; // Fall through to label ??Subroutine76_0

        RSEG BANKED_CODE:CODE:NOROOT(0)
??Subroutine76_0:
        CFI Block cfiCond322 Using cfiCommon0
        CFI NoFunction
        CFI Conditional ??CrossCallReturnLabel_176
        CFI R6 load(1, XDATA, add(CFA_XSP16, literal(-16)))
        CFI VB load(1, XDATA, add(CFA_XSP16, literal(-15)))
        CFI V0 load(1, XDATA, add(CFA_XSP16, literal(-14)))
        CFI V1 load(1, XDATA, add(CFA_XSP16, literal(-13)))
        CFI V2 load(1, XDATA, add(CFA_XSP16, literal(-12)))
        CFI V3 load(1, XDATA, add(CFA_XSP16, literal(-11)))
        CFI V4 load(1, XDATA, add(CFA_XSP16, literal(-10)))
        CFI V5 load(1, XDATA, add(CFA_XSP16, literal(-9)))
        CFI V6 load(1, XDATA, add(CFA_XSP16, literal(-8)))
        CFI V7 load(1, XDATA, add(CFA_XSP16, literal(-7)))
        CFI R7 load(1, XDATA, add(CFA_XSP16, literal(-6)))
        CFI ?RET_LOW load(1, XDATA, add(CFA_XSP16, literal(-5)))
        CFI ?RET_HIGH load(1, XDATA, add(CFA_XSP16, literal(-4)))
        CFI ?BRET_EXT load(1, XDATA, add(CFA_XSP16, literal(-3)))
        CFI DPL0 load(1, XDATA, add(CFA_XSP16, literal(-2)))
        CFI DPH0 load(1, XDATA, add(CFA_XSP16, literal(-1)))
        CFI CFA_SP SP+0
        CFI CFA_XSP16 add(XSP16, 25)
        CFI Block cfiCond323 Using cfiCommon0
        CFI (cfiCond323) NoFunction
        CFI (cfiCond323) Conditional ??CrossCallReturnLabel_177
        CFI (cfiCond323) R6 load(1, XDATA, add(CFA_XSP16, literal(-16)))
        CFI (cfiCond323) VB load(1, XDATA, add(CFA_XSP16, literal(-15)))
        CFI (cfiCond323) V0 load(1, XDATA, add(CFA_XSP16, literal(-14)))
        CFI (cfiCond323) V1 load(1, XDATA, add(CFA_XSP16, literal(-13)))
        CFI (cfiCond323) V2 load(1, XDATA, add(CFA_XSP16, literal(-12)))
        CFI (cfiCond323) V3 load(1, XDATA, add(CFA_XSP16, literal(-11)))
        CFI (cfiCond323) V4 load(1, XDATA, add(CFA_XSP16, literal(-10)))
        CFI (cfiCond323) V5 load(1, XDATA, add(CFA_XSP16, literal(-9)))
        CFI (cfiCond323) V6 load(1, XDATA, add(CFA_XSP16, literal(-8)))
        CFI (cfiCond323) V7 load(1, XDATA, add(CFA_XSP16, literal(-7)))
        CFI (cfiCond323) R7 load(1, XDATA, add(CFA_XSP16, literal(-6)))
        CFI (cfiCond323) ?RET_LOW load(1, XDATA, add(CFA_XSP16, literal(-5)))
        CFI (cfiCond323) ?RET_HIGH load(1, XDATA, add(CFA_XSP16, literal(-4)))
        CFI (cfiCond323) ?BRET_EXT load(1, XDATA, add(CFA_XSP16, literal(-3)))
        CFI (cfiCond323) DPL0 load(1, XDATA, add(CFA_XSP16, literal(-2)))
        CFI (cfiCond323) DPH0 load(1, XDATA, add(CFA_XSP16, literal(-1)))
        CFI (cfiCond323) CFA_SP SP+0
        CFI (cfiCond323) CFA_XSP16 add(XSP16, 21)
        CFI Block cfiCond324 Using cfiCommon0
        CFI (cfiCond324) NoFunction
        CFI (cfiCond324) Conditional ??CrossCallReturnLabel_178
        CFI (cfiCond324) R6 load(1, XDATA, add(CFA_XSP16, literal(-16)))
        CFI (cfiCond324) VB load(1, XDATA, add(CFA_XSP16, literal(-15)))
        CFI (cfiCond324) V0 load(1, XDATA, add(CFA_XSP16, literal(-14)))
        CFI (cfiCond324) V1 load(1, XDATA, add(CFA_XSP16, literal(-13)))
        CFI (cfiCond324) V2 load(1, XDATA, add(CFA_XSP16, literal(-12)))
        CFI (cfiCond324) V3 load(1, XDATA, add(CFA_XSP16, literal(-11)))
        CFI (cfiCond324) V4 load(1, XDATA, add(CFA_XSP16, literal(-10)))
        CFI (cfiCond324) V5 load(1, XDATA, add(CFA_XSP16, literal(-9)))
        CFI (cfiCond324) V6 load(1, XDATA, add(CFA_XSP16, literal(-8)))
        CFI (cfiCond324) V7 load(1, XDATA, add(CFA_XSP16, literal(-7)))
        CFI (cfiCond324) R7 load(1, XDATA, add(CFA_XSP16, literal(-6)))
        CFI (cfiCond324) ?RET_LOW load(1, XDATA, add(CFA_XSP16, literal(-5)))
        CFI (cfiCond324) ?RET_HIGH load(1, XDATA, add(CFA_XSP16, literal(-4)))
        CFI (cfiCond324) ?BRET_EXT load(1, XDATA, add(CFA_XSP16, literal(-3)))
        CFI (cfiCond324) DPL0 load(1, XDATA, add(CFA_XSP16, literal(-2)))
        CFI (cfiCond324) DPH0 load(1, XDATA, add(CFA_XSP16, literal(-1)))
        CFI (cfiCond324) CFA_SP SP+0
        CFI (cfiCond324) CFA_XSP16 add(XSP16, 21)
        CFI Block cfiCond325 Using cfiCommon0
        CFI (cfiCond325) NoFunction
        CFI (cfiCond325) Conditional ??CrossCallReturnLabel_175
        CFI (cfiCond325) R6 load(1, XDATA, add(CFA_XSP16, literal(-16)))
        CFI (cfiCond325) VB load(1, XDATA, add(CFA_XSP16, literal(-15)))
        CFI (cfiCond325) V0 load(1, XDATA, add(CFA_XSP16, literal(-14)))
        CFI (cfiCond325) V1 load(1, XDATA, add(CFA_XSP16, literal(-13)))
        CFI (cfiCond325) V2 load(1, XDATA, add(CFA_XSP16, literal(-12)))
        CFI (cfiCond325) V3 load(1, XDATA, add(CFA_XSP16, literal(-11)))
        CFI (cfiCond325) V4 load(1, XDATA, add(CFA_XSP16, literal(-10)))
        CFI (cfiCond325) V5 load(1, XDATA, add(CFA_XSP16, literal(-9)))
        CFI (cfiCond325) V6 load(1, XDATA, add(CFA_XSP16, literal(-8)))
        CFI (cfiCond325) V7 load(1, XDATA, add(CFA_XSP16, literal(-7)))
        CFI (cfiCond325) R7 load(1, XDATA, add(CFA_XSP16, literal(-6)))
        CFI (cfiCond325) ?RET_LOW load(1, XDATA, add(CFA_XSP16, literal(-5)))
        CFI (cfiCond325) ?RET_HIGH load(1, XDATA, add(CFA_XSP16, literal(-4)))
        CFI (cfiCond325) ?BRET_EXT load(1, XDATA, add(CFA_XSP16, literal(-3)))
        CFI (cfiCond325) DPL0 load(1, XDATA, add(CFA_XSP16, literal(-2)))
        CFI (cfiCond325) DPH0 load(1, XDATA, add(CFA_XSP16, literal(-1)))
        CFI (cfiCond325) CFA_SP SP+0
        CFI (cfiCond325) CFA_XSP16 add(XSP16, 25)
        CFI Block cfiCond326 Using cfiCommon0
        CFI (cfiCond326) NoFunction
        CFI (cfiCond326) Conditional ??CrossCallReturnLabel_179
        CFI (cfiCond326) R6 load(1, XDATA, add(CFA_XSP16, literal(-16)))
        CFI (cfiCond326) VB load(1, XDATA, add(CFA_XSP16, literal(-15)))
        CFI (cfiCond326) V0 load(1, XDATA, add(CFA_XSP16, literal(-14)))
        CFI (cfiCond326) V1 load(1, XDATA, add(CFA_XSP16, literal(-13)))
        CFI (cfiCond326) V2 load(1, XDATA, add(CFA_XSP16, literal(-12)))
        CFI (cfiCond326) V3 load(1, XDATA, add(CFA_XSP16, literal(-11)))
        CFI (cfiCond326) V4 load(1, XDATA, add(CFA_XSP16, literal(-10)))
        CFI (cfiCond326) V5 load(1, XDATA, add(CFA_XSP16, literal(-9)))
        CFI (cfiCond326) V6 load(1, XDATA, add(CFA_XSP16, literal(-8)))
        CFI (cfiCond326) V7 load(1, XDATA, add(CFA_XSP16, literal(-7)))
        CFI (cfiCond326) R7 load(1, XDATA, add(CFA_XSP16, literal(-6)))
        CFI (cfiCond326) ?RET_LOW load(1, XDATA, add(CFA_XSP16, literal(-5)))
        CFI (cfiCond326) ?RET_HIGH load(1, XDATA, add(CFA_XSP16, literal(-4)))
        CFI (cfiCond326) ?BRET_EXT load(1, XDATA, add(CFA_XSP16, literal(-3)))
        CFI (cfiCond326) DPL0 load(1, XDATA, add(CFA_XSP16, literal(-2)))
        CFI (cfiCond326) DPH0 load(1, XDATA, add(CFA_XSP16, literal(-1)))
        CFI (cfiCond326) CFA_SP SP+0
        CFI (cfiCond326) CFA_XSP16 add(XSP16, 25)
        CFI Block cfiPicker327 Using cfiCommon1
        CFI (cfiPicker327) NoFunction
        CFI (cfiPicker327) Picker
        MOVX    @DPTR,A
        MOV     DPL,?XSP + 0
        MOV     DPH,?XSP + 1
        MOVX    A,@DPTR
        RET
        CFI EndBlock cfiCond322
        CFI EndBlock cfiCond323
        CFI EndBlock cfiCond324
        CFI EndBlock cfiCond325
        CFI EndBlock cfiCond326
        CFI EndBlock cfiPicker327

        RSEG BANKED_CODE:CODE:NOROOT(0)
?Subroutine28:
        CFI Block cfiCond328 Using cfiCommon0
        CFI NoFunction
        CFI Conditional ??CrossCallReturnLabel_47
        CFI DPL0 Frame(CFA_SP, 4)
        CFI DPH0 Frame(CFA_SP, 5)
        CFI CFA_SP SP+-5
        CFI CFA_XSP16 add(XSP16, 3)
        CFI Block cfiCond329 Using cfiCommon0
        CFI (cfiCond329) NoFunction
        CFI (cfiCond329) Conditional ??CrossCallReturnLabel_48
        CFI (cfiCond329) R6 load(1, XDATA, add(CFA_XSP16, literal(-16)))
        CFI (cfiCond329) VB load(1, XDATA, add(CFA_XSP16, literal(-15)))
        CFI (cfiCond329) V0 load(1, XDATA, add(CFA_XSP16, literal(-14)))
        CFI (cfiCond329) V1 load(1, XDATA, add(CFA_XSP16, literal(-13)))
        CFI (cfiCond329) V2 load(1, XDATA, add(CFA_XSP16, literal(-12)))
        CFI (cfiCond329) V3 load(1, XDATA, add(CFA_XSP16, literal(-11)))
        CFI (cfiCond329) V4 load(1, XDATA, add(CFA_XSP16, literal(-10)))
        CFI (cfiCond329) V5 load(1, XDATA, add(CFA_XSP16, literal(-9)))
        CFI (cfiCond329) V6 load(1, XDATA, add(CFA_XSP16, literal(-8)))
        CFI (cfiCond329) V7 load(1, XDATA, add(CFA_XSP16, literal(-7)))
        CFI (cfiCond329) R7 load(1, XDATA, add(CFA_XSP16, literal(-6)))
        CFI (cfiCond329) ?RET_LOW load(1, XDATA, add(CFA_XSP16, literal(-5)))
        CFI (cfiCond329) ?RET_HIGH load(1, XDATA, add(CFA_XSP16, literal(-4)))
        CFI (cfiCond329) ?BRET_EXT load(1, XDATA, add(CFA_XSP16, literal(-3)))
        CFI (cfiCond329) DPL0 load(1, XDATA, add(CFA_XSP16, literal(-2)))
        CFI (cfiCond329) DPH0 load(1, XDATA, add(CFA_XSP16, literal(-1)))
        CFI (cfiCond329) CFA_SP SP+0
        CFI (cfiCond329) CFA_XSP16 add(XSP16, 21)
        CFI Block cfiPicker330 Using cfiCommon1
        CFI (cfiPicker330) NoFunction
        CFI (cfiPicker330) Picker
        MOVX    A,@DPTR
        MOV     DPL,?XSP + 0
        MOV     DPH,?XSP + 1
        MOVX    @DPTR,A
        RET
        CFI EndBlock cfiCond328
        CFI EndBlock cfiCond329
        CFI EndBlock cfiPicker330

        RSEG BANKED_CODE:CODE:NOROOT(0)
?Subroutine23:
        CFI Block cfiCond331 Using cfiCommon0
        CFI NoFunction
        CFI Conditional ??CrossCallReturnLabel_38
        CFI R6 load(1, XDATA, add(CFA_XSP16, literal(-16)))
        CFI VB load(1, XDATA, add(CFA_XSP16, literal(-15)))
        CFI V0 load(1, XDATA, add(CFA_XSP16, literal(-14)))
        CFI V1 load(1, XDATA, add(CFA_XSP16, literal(-13)))
        CFI V2 load(1, XDATA, add(CFA_XSP16, literal(-12)))
        CFI V3 load(1, XDATA, add(CFA_XSP16, literal(-11)))
        CFI V4 load(1, XDATA, add(CFA_XSP16, literal(-10)))
        CFI V5 load(1, XDATA, add(CFA_XSP16, literal(-9)))
        CFI V6 load(1, XDATA, add(CFA_XSP16, literal(-8)))
        CFI V7 load(1, XDATA, add(CFA_XSP16, literal(-7)))
        CFI R7 load(1, XDATA, add(CFA_XSP16, literal(-6)))
        CFI ?RET_LOW load(1, XDATA, add(CFA_XSP16, literal(-5)))
        CFI ?RET_HIGH load(1, XDATA, add(CFA_XSP16, literal(-4)))
        CFI ?BRET_EXT load(1, XDATA, add(CFA_XSP16, literal(-3)))
        CFI DPL0 load(1, XDATA, add(CFA_XSP16, literal(-2)))
        CFI DPH0 load(1, XDATA, add(CFA_XSP16, literal(-1)))
        CFI CFA_SP SP+0
        CFI CFA_XSP16 add(XSP16, 34)
        CFI Block cfiCond332 Using cfiCommon0
        CFI (cfiCond332) NoFunction
        CFI (cfiCond332) Conditional ??CrossCallReturnLabel_39
        CFI (cfiCond332) R6 load(1, XDATA, add(CFA_XSP16, literal(-16)))
        CFI (cfiCond332) VB load(1, XDATA, add(CFA_XSP16, literal(-15)))
        CFI (cfiCond332) V0 load(1, XDATA, add(CFA_XSP16, literal(-14)))
        CFI (cfiCond332) V1 load(1, XDATA, add(CFA_XSP16, literal(-13)))
        CFI (cfiCond332) V2 load(1, XDATA, add(CFA_XSP16, literal(-12)))
        CFI (cfiCond332) V3 load(1, XDATA, add(CFA_XSP16, literal(-11)))
        CFI (cfiCond332) V4 load(1, XDATA, add(CFA_XSP16, literal(-10)))
        CFI (cfiCond332) V5 load(1, XDATA, add(CFA_XSP16, literal(-9)))
        CFI (cfiCond332) V6 load(1, XDATA, add(CFA_XSP16, literal(-8)))
        CFI (cfiCond332) V7 load(1, XDATA, add(CFA_XSP16, literal(-7)))
        CFI (cfiCond332) R7 load(1, XDATA, add(CFA_XSP16, literal(-6)))
        CFI (cfiCond332) ?RET_LOW load(1, XDATA, add(CFA_XSP16, literal(-5)))
        CFI (cfiCond332) ?RET_HIGH load(1, XDATA, add(CFA_XSP16, literal(-4)))
        CFI (cfiCond332) ?BRET_EXT load(1, XDATA, add(CFA_XSP16, literal(-3)))
        CFI (cfiCond332) DPL0 load(1, XDATA, add(CFA_XSP16, literal(-2)))
        CFI (cfiCond332) DPH0 load(1, XDATA, add(CFA_XSP16, literal(-1)))
        CFI (cfiCond332) CFA_SP SP+0
        CFI (cfiCond332) CFA_XSP16 add(XSP16, 21)
        CFI Block cfiPicker333 Using cfiCommon1
        CFI (cfiPicker333) NoFunction
        CFI (cfiPicker333) Picker
        INC     DPTR
        MOVX    A,@DPTR
        MOV     R1,A
        MOV     A,R2
        LCALL   ?Subroutine56 & 0xFFFF
??CrossCallReturnLabel_106:
        RET
        CFI EndBlock cfiCond331
        CFI EndBlock cfiCond332
        CFI EndBlock cfiPicker333

        RSEG BANKED_CODE:CODE:NOROOT(0)
?Subroutine56:
        CFI Block cfiCond334 Using cfiCommon0
        CFI NoFunction
        CFI Conditional ??CrossCallReturnLabel_104
        CFI R6 load(1, XDATA, add(CFA_XSP16, literal(-16)))
        CFI VB load(1, XDATA, add(CFA_XSP16, literal(-15)))
        CFI V0 load(1, XDATA, add(CFA_XSP16, literal(-14)))
        CFI V1 load(1, XDATA, add(CFA_XSP16, literal(-13)))
        CFI V2 load(1, XDATA, add(CFA_XSP16, literal(-12)))
        CFI V3 load(1, XDATA, add(CFA_XSP16, literal(-11)))
        CFI V4 load(1, XDATA, add(CFA_XSP16, literal(-10)))
        CFI V5 load(1, XDATA, add(CFA_XSP16, literal(-9)))
        CFI V6 load(1, XDATA, add(CFA_XSP16, literal(-8)))
        CFI V7 load(1, XDATA, add(CFA_XSP16, literal(-7)))
        CFI R7 load(1, XDATA, add(CFA_XSP16, literal(-6)))
        CFI ?RET_LOW load(1, XDATA, add(CFA_XSP16, literal(-5)))
        CFI ?RET_HIGH load(1, XDATA, add(CFA_XSP16, literal(-4)))
        CFI ?BRET_EXT load(1, XDATA, add(CFA_XSP16, literal(-3)))
        CFI DPL0 load(1, XDATA, add(CFA_XSP16, literal(-2)))
        CFI DPH0 load(1, XDATA, add(CFA_XSP16, literal(-1)))
        CFI CFA_SP SP+0
        CFI CFA_XSP16 add(XSP16, 35)
        CFI Block cfiCond335 Using cfiCommon0
        CFI (cfiCond335) NoFunction
        CFI (cfiCond335) Conditional ??CrossCallReturnLabel_106, ??CrossCallReturnLabel_38
        CFI (cfiCond335) R6 load(1, XDATA, add(CFA_XSP16, literal(-16)))
        CFI (cfiCond335) VB load(1, XDATA, add(CFA_XSP16, literal(-15)))
        CFI (cfiCond335) V0 load(1, XDATA, add(CFA_XSP16, literal(-14)))
        CFI (cfiCond335) V1 load(1, XDATA, add(CFA_XSP16, literal(-13)))
        CFI (cfiCond335) V2 load(1, XDATA, add(CFA_XSP16, literal(-12)))
        CFI (cfiCond335) V3 load(1, XDATA, add(CFA_XSP16, literal(-11)))
        CFI (cfiCond335) V4 load(1, XDATA, add(CFA_XSP16, literal(-10)))
        CFI (cfiCond335) V5 load(1, XDATA, add(CFA_XSP16, literal(-9)))
        CFI (cfiCond335) V6 load(1, XDATA, add(CFA_XSP16, literal(-8)))
        CFI (cfiCond335) V7 load(1, XDATA, add(CFA_XSP16, literal(-7)))
        CFI (cfiCond335) R7 load(1, XDATA, add(CFA_XSP16, literal(-6)))
        CFI (cfiCond335) ?RET_LOW load(1, XDATA, add(CFA_XSP16, literal(-5)))
        CFI (cfiCond335) ?RET_HIGH load(1, XDATA, add(CFA_XSP16, literal(-4)))
        CFI (cfiCond335) ?BRET_EXT load(1, XDATA, add(CFA_XSP16, literal(-3)))
        CFI (cfiCond335) DPL0 load(1, XDATA, add(CFA_XSP16, literal(-2)))
        CFI (cfiCond335) DPH0 load(1, XDATA, add(CFA_XSP16, literal(-1)))
        CFI (cfiCond335) CFA_SP SP+0
        CFI (cfiCond335) CFA_XSP16 add(XSP16, 34)
        CFI Block cfiCond336 Using cfiCommon0
        CFI (cfiCond336) NoFunction
        CFI (cfiCond336) Conditional ??CrossCallReturnLabel_106, ??CrossCallReturnLabel_39
        CFI (cfiCond336) R6 load(1, XDATA, add(CFA_XSP16, literal(-16)))
        CFI (cfiCond336) VB load(1, XDATA, add(CFA_XSP16, literal(-15)))
        CFI (cfiCond336) V0 load(1, XDATA, add(CFA_XSP16, literal(-14)))
        CFI (cfiCond336) V1 load(1, XDATA, add(CFA_XSP16, literal(-13)))
        CFI (cfiCond336) V2 load(1, XDATA, add(CFA_XSP16, literal(-12)))
        CFI (cfiCond336) V3 load(1, XDATA, add(CFA_XSP16, literal(-11)))
        CFI (cfiCond336) V4 load(1, XDATA, add(CFA_XSP16, literal(-10)))
        CFI (cfiCond336) V5 load(1, XDATA, add(CFA_XSP16, literal(-9)))
        CFI (cfiCond336) V6 load(1, XDATA, add(CFA_XSP16, literal(-8)))
        CFI (cfiCond336) V7 load(1, XDATA, add(CFA_XSP16, literal(-7)))
        CFI (cfiCond336) R7 load(1, XDATA, add(CFA_XSP16, literal(-6)))
        CFI (cfiCond336) ?RET_LOW load(1, XDATA, add(CFA_XSP16, literal(-5)))
        CFI (cfiCond336) ?RET_HIGH load(1, XDATA, add(CFA_XSP16, literal(-4)))
        CFI (cfiCond336) ?BRET_EXT load(1, XDATA, add(CFA_XSP16, literal(-3)))
        CFI (cfiCond336) DPL0 load(1, XDATA, add(CFA_XSP16, literal(-2)))
        CFI (cfiCond336) DPH0 load(1, XDATA, add(CFA_XSP16, literal(-1)))
        CFI (cfiCond336) CFA_SP SP+0
        CFI (cfiCond336) CFA_XSP16 add(XSP16, 21)
        CFI Block cfiCond337 Using cfiCommon0
        CFI (cfiCond337) NoFunction
        CFI (cfiCond337) Conditional ??CrossCallReturnLabel_105
        CFI (cfiCond337) R6 load(1, XDATA, add(CFA_XSP16, literal(-16)))
        CFI (cfiCond337) VB load(1, XDATA, add(CFA_XSP16, literal(-15)))
        CFI (cfiCond337) V0 load(1, XDATA, add(CFA_XSP16, literal(-14)))
        CFI (cfiCond337) V1 load(1, XDATA, add(CFA_XSP16, literal(-13)))
        CFI (cfiCond337) V2 load(1, XDATA, add(CFA_XSP16, literal(-12)))
        CFI (cfiCond337) V3 load(1, XDATA, add(CFA_XSP16, literal(-11)))
        CFI (cfiCond337) V4 load(1, XDATA, add(CFA_XSP16, literal(-10)))
        CFI (cfiCond337) V5 load(1, XDATA, add(CFA_XSP16, literal(-9)))
        CFI (cfiCond337) V6 load(1, XDATA, add(CFA_XSP16, literal(-8)))
        CFI (cfiCond337) V7 load(1, XDATA, add(CFA_XSP16, literal(-7)))
        CFI (cfiCond337) R7 load(1, XDATA, add(CFA_XSP16, literal(-6)))
        CFI (cfiCond337) ?RET_LOW load(1, XDATA, add(CFA_XSP16, literal(-5)))
        CFI (cfiCond337) ?RET_HIGH load(1, XDATA, add(CFA_XSP16, literal(-4)))
        CFI (cfiCond337) ?BRET_EXT load(1, XDATA, add(CFA_XSP16, literal(-3)))
        CFI (cfiCond337) DPL0 load(1, XDATA, add(CFA_XSP16, literal(-2)))
        CFI (cfiCond337) DPH0 load(1, XDATA, add(CFA_XSP16, literal(-1)))
        CFI (cfiCond337) CFA_SP SP+0
        CFI (cfiCond337) CFA_XSP16 add(XSP16, 17)
        CFI Block cfiPicker338 Using cfiCommon1
        CFI (cfiPicker338) NoFunction
        CFI (cfiPicker338) Picker
        ADD     A,#0x0
        MOV     R6,A
        CLR     A
        ADDC    A,R1
        MOV     R7,A
        RET
        CFI EndBlock cfiCond334
        CFI EndBlock cfiCond335
        CFI EndBlock cfiCond336
        CFI EndBlock cfiCond337
        CFI EndBlock cfiPicker338

        RSEG BANKED_CODE:CODE:NOROOT(0)
?Subroutine20:
        CFI Block cfiCond339 Using cfiCommon0
        CFI NoFunction
        CFI Conditional ??CrossCallReturnLabel_36
        CFI R6 load(1, XDATA, add(CFA_XSP16, literal(-16)))
        CFI VB load(1, XDATA, add(CFA_XSP16, literal(-15)))
        CFI V0 load(1, XDATA, add(CFA_XSP16, literal(-14)))
        CFI V1 load(1, XDATA, add(CFA_XSP16, literal(-13)))
        CFI V2 load(1, XDATA, add(CFA_XSP16, literal(-12)))
        CFI V3 load(1, XDATA, add(CFA_XSP16, literal(-11)))
        CFI V4 load(1, XDATA, add(CFA_XSP16, literal(-10)))
        CFI V5 load(1, XDATA, add(CFA_XSP16, literal(-9)))
        CFI V6 load(1, XDATA, add(CFA_XSP16, literal(-8)))
        CFI V7 load(1, XDATA, add(CFA_XSP16, literal(-7)))
        CFI R7 load(1, XDATA, add(CFA_XSP16, literal(-6)))
        CFI ?RET_LOW load(1, XDATA, add(CFA_XSP16, literal(-5)))
        CFI ?RET_HIGH load(1, XDATA, add(CFA_XSP16, literal(-4)))
        CFI ?BRET_EXT load(1, XDATA, add(CFA_XSP16, literal(-3)))
        CFI DPL0 load(1, XDATA, add(CFA_XSP16, literal(-2)))
        CFI DPH0 load(1, XDATA, add(CFA_XSP16, literal(-1)))
        CFI CFA_SP SP+0
        CFI CFA_XSP16 add(XSP16, 25)
        CFI Block cfiCond340 Using cfiCommon0
        CFI (cfiCond340) NoFunction
        CFI (cfiCond340) Conditional ??CrossCallReturnLabel_37
        CFI (cfiCond340) R6 load(1, XDATA, add(CFA_XSP16, literal(-16)))
        CFI (cfiCond340) VB load(1, XDATA, add(CFA_XSP16, literal(-15)))
        CFI (cfiCond340) V0 load(1, XDATA, add(CFA_XSP16, literal(-14)))
        CFI (cfiCond340) V1 load(1, XDATA, add(CFA_XSP16, literal(-13)))
        CFI (cfiCond340) V2 load(1, XDATA, add(CFA_XSP16, literal(-12)))
        CFI (cfiCond340) V3 load(1, XDATA, add(CFA_XSP16, literal(-11)))
        CFI (cfiCond340) V4 load(1, XDATA, add(CFA_XSP16, literal(-10)))
        CFI (cfiCond340) V5 load(1, XDATA, add(CFA_XSP16, literal(-9)))
        CFI (cfiCond340) V6 load(1, XDATA, add(CFA_XSP16, literal(-8)))
        CFI (cfiCond340) V7 load(1, XDATA, add(CFA_XSP16, literal(-7)))
        CFI (cfiCond340) R7 load(1, XDATA, add(CFA_XSP16, literal(-6)))
        CFI (cfiCond340) ?RET_LOW load(1, XDATA, add(CFA_XSP16, literal(-5)))
        CFI (cfiCond340) ?RET_HIGH load(1, XDATA, add(CFA_XSP16, literal(-4)))
        CFI (cfiCond340) ?BRET_EXT load(1, XDATA, add(CFA_XSP16, literal(-3)))
        CFI (cfiCond340) DPL0 load(1, XDATA, add(CFA_XSP16, literal(-2)))
        CFI (cfiCond340) DPH0 load(1, XDATA, add(CFA_XSP16, literal(-1)))
        CFI (cfiCond340) CFA_SP SP+0
        CFI (cfiCond340) CFA_XSP16 add(XSP16, 21)
        CFI Block cfiPicker341 Using cfiCommon1
        CFI (cfiPicker341) NoFunction
        CFI (cfiPicker341) Picker
        LCALL   ?Subroutine50 & 0xFFFF
??CrossCallReturnLabel_100:
        RET
        CFI EndBlock cfiCond339
        CFI EndBlock cfiCond340
        CFI EndBlock cfiPicker341

        RSEG BANKED_CODE:CODE:NOROOT(0)
?Subroutine50:
        CFI Block cfiCond342 Using cfiCommon0
        CFI NoFunction
        CFI Conditional ??CrossCallReturnLabel_100, ??CrossCallReturnLabel_36
        CFI R6 load(1, XDATA, add(CFA_XSP16, literal(-16)))
        CFI VB load(1, XDATA, add(CFA_XSP16, literal(-15)))
        CFI V0 load(1, XDATA, add(CFA_XSP16, literal(-14)))
        CFI V1 load(1, XDATA, add(CFA_XSP16, literal(-13)))
        CFI V2 load(1, XDATA, add(CFA_XSP16, literal(-12)))
        CFI V3 load(1, XDATA, add(CFA_XSP16, literal(-11)))
        CFI V4 load(1, XDATA, add(CFA_XSP16, literal(-10)))
        CFI V5 load(1, XDATA, add(CFA_XSP16, literal(-9)))
        CFI V6 load(1, XDATA, add(CFA_XSP16, literal(-8)))
        CFI V7 load(1, XDATA, add(CFA_XSP16, literal(-7)))
        CFI R7 load(1, XDATA, add(CFA_XSP16, literal(-6)))
        CFI ?RET_LOW load(1, XDATA, add(CFA_XSP16, literal(-5)))
        CFI ?RET_HIGH load(1, XDATA, add(CFA_XSP16, literal(-4)))
        CFI ?BRET_EXT load(1, XDATA, add(CFA_XSP16, literal(-3)))
        CFI DPL0 load(1, XDATA, add(CFA_XSP16, literal(-2)))
        CFI DPH0 load(1, XDATA, add(CFA_XSP16, literal(-1)))
        CFI CFA_SP SP+0
        CFI CFA_XSP16 add(XSP16, 25)
        CFI Block cfiCond343 Using cfiCommon0
        CFI (cfiCond343) NoFunction
        CFI (cfiCond343) Conditional ??CrossCallReturnLabel_100, ??CrossCallReturnLabel_37
        CFI (cfiCond343) R6 load(1, XDATA, add(CFA_XSP16, literal(-16)))
        CFI (cfiCond343) VB load(1, XDATA, add(CFA_XSP16, literal(-15)))
        CFI (cfiCond343) V0 load(1, XDATA, add(CFA_XSP16, literal(-14)))
        CFI (cfiCond343) V1 load(1, XDATA, add(CFA_XSP16, literal(-13)))
        CFI (cfiCond343) V2 load(1, XDATA, add(CFA_XSP16, literal(-12)))
        CFI (cfiCond343) V3 load(1, XDATA, add(CFA_XSP16, literal(-11)))
        CFI (cfiCond343) V4 load(1, XDATA, add(CFA_XSP16, literal(-10)))
        CFI (cfiCond343) V5 load(1, XDATA, add(CFA_XSP16, literal(-9)))
        CFI (cfiCond343) V6 load(1, XDATA, add(CFA_XSP16, literal(-8)))
        CFI (cfiCond343) V7 load(1, XDATA, add(CFA_XSP16, literal(-7)))
        CFI (cfiCond343) R7 load(1, XDATA, add(CFA_XSP16, literal(-6)))
        CFI (cfiCond343) ?RET_LOW load(1, XDATA, add(CFA_XSP16, literal(-5)))
        CFI (cfiCond343) ?RET_HIGH load(1, XDATA, add(CFA_XSP16, literal(-4)))
        CFI (cfiCond343) ?BRET_EXT load(1, XDATA, add(CFA_XSP16, literal(-3)))
        CFI (cfiCond343) DPL0 load(1, XDATA, add(CFA_XSP16, literal(-2)))
        CFI (cfiCond343) DPH0 load(1, XDATA, add(CFA_XSP16, literal(-1)))
        CFI (cfiCond343) CFA_SP SP+0
        CFI (cfiCond343) CFA_XSP16 add(XSP16, 21)
        CFI Block cfiCond344 Using cfiCommon0
        CFI (cfiCond344) NoFunction
        CFI (cfiCond344) Conditional ??CrossCallReturnLabel_101, ??CrossCallReturnLabel_14
        CFI (cfiCond344) R6 load(1, XDATA, add(CFA_XSP16, literal(-9)))
        CFI (cfiCond344) VB load(1, XDATA, add(CFA_XSP16, literal(-8)))
        CFI (cfiCond344) V0 load(1, XDATA, add(CFA_XSP16, literal(-7)))
        CFI (cfiCond344) R7 load(1, XDATA, add(CFA_XSP16, literal(-6)))
        CFI (cfiCond344) ?RET_LOW load(1, XDATA, add(CFA_XSP16, literal(-5)))
        CFI (cfiCond344) ?RET_HIGH load(1, XDATA, add(CFA_XSP16, literal(-4)))
        CFI (cfiCond344) ?BRET_EXT load(1, XDATA, add(CFA_XSP16, literal(-3)))
        CFI (cfiCond344) DPL0 load(1, XDATA, add(CFA_XSP16, literal(-2)))
        CFI (cfiCond344) DPH0 load(1, XDATA, add(CFA_XSP16, literal(-1)))
        CFI (cfiCond344) CFA_SP SP+0
        CFI (cfiCond344) CFA_XSP16 add(XSP16, 9)
        CFI Block cfiCond345 Using cfiCommon0
        CFI (cfiCond345) NoFunction
        CFI (cfiCond345) Conditional ??CrossCallReturnLabel_101, ??CrossCallReturnLabel_15
        CFI (cfiCond345) R6 load(1, XDATA, add(CFA_XSP16, literal(-16)))
        CFI (cfiCond345) VB load(1, XDATA, add(CFA_XSP16, literal(-15)))
        CFI (cfiCond345) V0 load(1, XDATA, add(CFA_XSP16, literal(-14)))
        CFI (cfiCond345) V1 load(1, XDATA, add(CFA_XSP16, literal(-13)))
        CFI (cfiCond345) V2 load(1, XDATA, add(CFA_XSP16, literal(-12)))
        CFI (cfiCond345) V3 load(1, XDATA, add(CFA_XSP16, literal(-11)))
        CFI (cfiCond345) V4 load(1, XDATA, add(CFA_XSP16, literal(-10)))
        CFI (cfiCond345) V5 load(1, XDATA, add(CFA_XSP16, literal(-9)))
        CFI (cfiCond345) V6 load(1, XDATA, add(CFA_XSP16, literal(-8)))
        CFI (cfiCond345) V7 load(1, XDATA, add(CFA_XSP16, literal(-7)))
        CFI (cfiCond345) R7 load(1, XDATA, add(CFA_XSP16, literal(-6)))
        CFI (cfiCond345) ?RET_LOW load(1, XDATA, add(CFA_XSP16, literal(-5)))
        CFI (cfiCond345) ?RET_HIGH load(1, XDATA, add(CFA_XSP16, literal(-4)))
        CFI (cfiCond345) ?BRET_EXT load(1, XDATA, add(CFA_XSP16, literal(-3)))
        CFI (cfiCond345) DPL0 load(1, XDATA, add(CFA_XSP16, literal(-2)))
        CFI (cfiCond345) DPH0 load(1, XDATA, add(CFA_XSP16, literal(-1)))
        CFI (cfiCond345) CFA_SP SP+0
        CFI (cfiCond345) CFA_XSP16 add(XSP16, 17)
        CFI Block cfiPicker346 Using cfiCommon1
        CFI (cfiPicker346) NoFunction
        CFI (cfiPicker346) Picker
        LCALL   ?Subroutine58 & 0xFFFF
??CrossCallReturnLabel_140:
        MOV     R3,A
        LCALL   ??osal_mem_free?relay
        RET
        CFI EndBlock cfiCond342
        CFI EndBlock cfiCond343
        CFI EndBlock cfiCond344
        CFI EndBlock cfiCond345
        CFI EndBlock cfiPicker346

        RSEG BANKED_CODE:CODE:NOROOT(0)
?Subroutine19:
        CFI Block cfiCond347 Using cfiCommon0
        CFI NoFunction
        CFI Conditional ??CrossCallReturnLabel_33
        CFI R6 load(1, XDATA, add(CFA_XSP16, literal(-16)))
        CFI VB load(1, XDATA, add(CFA_XSP16, literal(-15)))
        CFI V0 load(1, XDATA, add(CFA_XSP16, literal(-14)))
        CFI V1 load(1, XDATA, add(CFA_XSP16, literal(-13)))
        CFI V2 load(1, XDATA, add(CFA_XSP16, literal(-12)))
        CFI V3 load(1, XDATA, add(CFA_XSP16, literal(-11)))
        CFI V4 load(1, XDATA, add(CFA_XSP16, literal(-10)))
        CFI V5 load(1, XDATA, add(CFA_XSP16, literal(-9)))
        CFI V6 load(1, XDATA, add(CFA_XSP16, literal(-8)))
        CFI V7 load(1, XDATA, add(CFA_XSP16, literal(-7)))
        CFI R7 load(1, XDATA, add(CFA_XSP16, literal(-6)))
        CFI ?RET_LOW load(1, XDATA, add(CFA_XSP16, literal(-5)))
        CFI ?RET_HIGH load(1, XDATA, add(CFA_XSP16, literal(-4)))
        CFI ?BRET_EXT load(1, XDATA, add(CFA_XSP16, literal(-3)))
        CFI DPL0 load(1, XDATA, add(CFA_XSP16, literal(-2)))
        CFI DPH0 load(1, XDATA, add(CFA_XSP16, literal(-1)))
        CFI CFA_SP SP+0
        CFI CFA_XSP16 add(XSP16, 25)
        CFI Block cfiCond348 Using cfiCommon0
        CFI (cfiCond348) NoFunction
        CFI (cfiCond348) Conditional ??CrossCallReturnLabel_34
        CFI (cfiCond348) R6 load(1, XDATA, add(CFA_XSP16, literal(-16)))
        CFI (cfiCond348) VB load(1, XDATA, add(CFA_XSP16, literal(-15)))
        CFI (cfiCond348) V0 load(1, XDATA, add(CFA_XSP16, literal(-14)))
        CFI (cfiCond348) V1 load(1, XDATA, add(CFA_XSP16, literal(-13)))
        CFI (cfiCond348) V2 load(1, XDATA, add(CFA_XSP16, literal(-12)))
        CFI (cfiCond348) V3 load(1, XDATA, add(CFA_XSP16, literal(-11)))
        CFI (cfiCond348) V4 load(1, XDATA, add(CFA_XSP16, literal(-10)))
        CFI (cfiCond348) V5 load(1, XDATA, add(CFA_XSP16, literal(-9)))
        CFI (cfiCond348) V6 load(1, XDATA, add(CFA_XSP16, literal(-8)))
        CFI (cfiCond348) V7 load(1, XDATA, add(CFA_XSP16, literal(-7)))
        CFI (cfiCond348) R7 load(1, XDATA, add(CFA_XSP16, literal(-6)))
        CFI (cfiCond348) ?RET_LOW load(1, XDATA, add(CFA_XSP16, literal(-5)))
        CFI (cfiCond348) ?RET_HIGH load(1, XDATA, add(CFA_XSP16, literal(-4)))
        CFI (cfiCond348) ?BRET_EXT load(1, XDATA, add(CFA_XSP16, literal(-3)))
        CFI (cfiCond348) DPL0 load(1, XDATA, add(CFA_XSP16, literal(-2)))
        CFI (cfiCond348) DPH0 load(1, XDATA, add(CFA_XSP16, literal(-1)))
        CFI (cfiCond348) CFA_SP SP+0
        CFI (cfiCond348) CFA_XSP16 add(XSP16, 21)
        CFI Block cfiCond349 Using cfiCommon0
        CFI (cfiCond349) NoFunction
        CFI (cfiCond349) Conditional ??CrossCallReturnLabel_35
        CFI (cfiCond349) R6 load(1, XDATA, add(CFA_XSP16, literal(-16)))
        CFI (cfiCond349) VB load(1, XDATA, add(CFA_XSP16, literal(-15)))
        CFI (cfiCond349) V0 load(1, XDATA, add(CFA_XSP16, literal(-14)))
        CFI (cfiCond349) V1 load(1, XDATA, add(CFA_XSP16, literal(-13)))
        CFI (cfiCond349) V2 load(1, XDATA, add(CFA_XSP16, literal(-12)))
        CFI (cfiCond349) V3 load(1, XDATA, add(CFA_XSP16, literal(-11)))
        CFI (cfiCond349) V4 load(1, XDATA, add(CFA_XSP16, literal(-10)))
        CFI (cfiCond349) V5 load(1, XDATA, add(CFA_XSP16, literal(-9)))
        CFI (cfiCond349) V6 load(1, XDATA, add(CFA_XSP16, literal(-8)))
        CFI (cfiCond349) V7 load(1, XDATA, add(CFA_XSP16, literal(-7)))
        CFI (cfiCond349) R7 load(1, XDATA, add(CFA_XSP16, literal(-6)))
        CFI (cfiCond349) ?RET_LOW load(1, XDATA, add(CFA_XSP16, literal(-5)))
        CFI (cfiCond349) ?RET_HIGH load(1, XDATA, add(CFA_XSP16, literal(-4)))
        CFI (cfiCond349) ?BRET_EXT load(1, XDATA, add(CFA_XSP16, literal(-3)))
        CFI (cfiCond349) DPL0 load(1, XDATA, add(CFA_XSP16, literal(-2)))
        CFI (cfiCond349) DPH0 load(1, XDATA, add(CFA_XSP16, literal(-1)))
        CFI (cfiCond349) CFA_SP SP+-1
        CFI (cfiCond349) CFA_XSP16 add(XSP16, 21)
        CFI Block cfiPicker350 Using cfiCommon1
        CFI (cfiPicker350) NoFunction
        CFI (cfiPicker350) Picker
        LCALL   ?Subroutine49 & 0xFFFF
??CrossCallReturnLabel_99:
        RET
        CFI EndBlock cfiCond347
        CFI EndBlock cfiCond348
        CFI EndBlock cfiCond349
        CFI EndBlock cfiPicker350

        RSEG BANKED_CODE:CODE:NOROOT(0)
?Subroutine49:
        CFI Block cfiCond351 Using cfiCommon0
        CFI NoFunction
        CFI Conditional ??CrossCallReturnLabel_97, ??CrossCallReturnLabel_3
        CFI R6 load(1, XDATA, add(CFA_XSP16, literal(-16)))
        CFI VB load(1, XDATA, add(CFA_XSP16, literal(-15)))
        CFI V0 load(1, XDATA, add(CFA_XSP16, literal(-14)))
        CFI V1 load(1, XDATA, add(CFA_XSP16, literal(-13)))
        CFI V2 load(1, XDATA, add(CFA_XSP16, literal(-12)))
        CFI V3 load(1, XDATA, add(CFA_XSP16, literal(-11)))
        CFI V4 load(1, XDATA, add(CFA_XSP16, literal(-10)))
        CFI V5 load(1, XDATA, add(CFA_XSP16, literal(-9)))
        CFI V6 load(1, XDATA, add(CFA_XSP16, literal(-8)))
        CFI V7 load(1, XDATA, add(CFA_XSP16, literal(-7)))
        CFI R7 load(1, XDATA, add(CFA_XSP16, literal(-6)))
        CFI ?RET_LOW load(1, XDATA, add(CFA_XSP16, literal(-5)))
        CFI ?RET_HIGH load(1, XDATA, add(CFA_XSP16, literal(-4)))
        CFI ?BRET_EXT load(1, XDATA, add(CFA_XSP16, literal(-3)))
        CFI DPL0 load(1, XDATA, add(CFA_XSP16, literal(-2)))
        CFI DPH0 load(1, XDATA, add(CFA_XSP16, literal(-1)))
        CFI CFA_SP SP+0
        CFI CFA_XSP16 add(XSP16, 25)
        CFI Block cfiCond352 Using cfiCommon0
        CFI (cfiCond352) NoFunction
        CFI (cfiCond352) Conditional ??CrossCallReturnLabel_97, ??CrossCallReturnLabel_4
        CFI (cfiCond352) R6 load(1, XDATA, add(CFA_XSP16, literal(-16)))
        CFI (cfiCond352) VB load(1, XDATA, add(CFA_XSP16, literal(-15)))
        CFI (cfiCond352) V0 load(1, XDATA, add(CFA_XSP16, literal(-14)))
        CFI (cfiCond352) V1 load(1, XDATA, add(CFA_XSP16, literal(-13)))
        CFI (cfiCond352) V2 load(1, XDATA, add(CFA_XSP16, literal(-12)))
        CFI (cfiCond352) V3 load(1, XDATA, add(CFA_XSP16, literal(-11)))
        CFI (cfiCond352) V4 load(1, XDATA, add(CFA_XSP16, literal(-10)))
        CFI (cfiCond352) V5 load(1, XDATA, add(CFA_XSP16, literal(-9)))
        CFI (cfiCond352) V6 load(1, XDATA, add(CFA_XSP16, literal(-8)))
        CFI (cfiCond352) V7 load(1, XDATA, add(CFA_XSP16, literal(-7)))
        CFI (cfiCond352) R7 load(1, XDATA, add(CFA_XSP16, literal(-6)))
        CFI (cfiCond352) ?RET_LOW load(1, XDATA, add(CFA_XSP16, literal(-5)))
        CFI (cfiCond352) ?RET_HIGH load(1, XDATA, add(CFA_XSP16, literal(-4)))
        CFI (cfiCond352) ?BRET_EXT load(1, XDATA, add(CFA_XSP16, literal(-3)))
        CFI (cfiCond352) DPL0 load(1, XDATA, add(CFA_XSP16, literal(-2)))
        CFI (cfiCond352) DPH0 load(1, XDATA, add(CFA_XSP16, literal(-1)))
        CFI (cfiCond352) CFA_SP SP+0
        CFI (cfiCond352) CFA_XSP16 add(XSP16, 25)
        CFI Block cfiCond353 Using cfiCommon0
        CFI (cfiCond353) NoFunction
        CFI (cfiCond353) Conditional ??CrossCallReturnLabel_97, ??CrossCallReturnLabel_5
        CFI (cfiCond353) R6 load(1, XDATA, add(CFA_XSP16, literal(-16)))
        CFI (cfiCond353) VB load(1, XDATA, add(CFA_XSP16, literal(-15)))
        CFI (cfiCond353) V0 load(1, XDATA, add(CFA_XSP16, literal(-14)))
        CFI (cfiCond353) V1 load(1, XDATA, add(CFA_XSP16, literal(-13)))
        CFI (cfiCond353) V2 load(1, XDATA, add(CFA_XSP16, literal(-12)))
        CFI (cfiCond353) V3 load(1, XDATA, add(CFA_XSP16, literal(-11)))
        CFI (cfiCond353) V4 load(1, XDATA, add(CFA_XSP16, literal(-10)))
        CFI (cfiCond353) V5 load(1, XDATA, add(CFA_XSP16, literal(-9)))
        CFI (cfiCond353) V6 load(1, XDATA, add(CFA_XSP16, literal(-8)))
        CFI (cfiCond353) V7 load(1, XDATA, add(CFA_XSP16, literal(-7)))
        CFI (cfiCond353) R7 load(1, XDATA, add(CFA_XSP16, literal(-6)))
        CFI (cfiCond353) ?RET_LOW load(1, XDATA, add(CFA_XSP16, literal(-5)))
        CFI (cfiCond353) ?RET_HIGH load(1, XDATA, add(CFA_XSP16, literal(-4)))
        CFI (cfiCond353) ?BRET_EXT load(1, XDATA, add(CFA_XSP16, literal(-3)))
        CFI (cfiCond353) DPL0 load(1, XDATA, add(CFA_XSP16, literal(-2)))
        CFI (cfiCond353) DPH0 load(1, XDATA, add(CFA_XSP16, literal(-1)))
        CFI (cfiCond353) CFA_SP SP+0
        CFI (cfiCond353) CFA_XSP16 add(XSP16, 25)
        CFI Block cfiCond354 Using cfiCommon0
        CFI (cfiCond354) NoFunction
        CFI (cfiCond354) Conditional ??CrossCallReturnLabel_97, ??CrossCallReturnLabel_6
        CFI (cfiCond354) R6 load(1, XDATA, add(CFA_XSP16, literal(-16)))
        CFI (cfiCond354) VB load(1, XDATA, add(CFA_XSP16, literal(-15)))
        CFI (cfiCond354) V0 load(1, XDATA, add(CFA_XSP16, literal(-14)))
        CFI (cfiCond354) V1 load(1, XDATA, add(CFA_XSP16, literal(-13)))
        CFI (cfiCond354) V2 load(1, XDATA, add(CFA_XSP16, literal(-12)))
        CFI (cfiCond354) V3 load(1, XDATA, add(CFA_XSP16, literal(-11)))
        CFI (cfiCond354) V4 load(1, XDATA, add(CFA_XSP16, literal(-10)))
        CFI (cfiCond354) V5 load(1, XDATA, add(CFA_XSP16, literal(-9)))
        CFI (cfiCond354) V6 load(1, XDATA, add(CFA_XSP16, literal(-8)))
        CFI (cfiCond354) V7 load(1, XDATA, add(CFA_XSP16, literal(-7)))
        CFI (cfiCond354) R7 load(1, XDATA, add(CFA_XSP16, literal(-6)))
        CFI (cfiCond354) ?RET_LOW load(1, XDATA, add(CFA_XSP16, literal(-5)))
        CFI (cfiCond354) ?RET_HIGH load(1, XDATA, add(CFA_XSP16, literal(-4)))
        CFI (cfiCond354) ?BRET_EXT load(1, XDATA, add(CFA_XSP16, literal(-3)))
        CFI (cfiCond354) DPL0 load(1, XDATA, add(CFA_XSP16, literal(-2)))
        CFI (cfiCond354) DPH0 load(1, XDATA, add(CFA_XSP16, literal(-1)))
        CFI (cfiCond354) CFA_SP SP+0
        CFI (cfiCond354) CFA_XSP16 add(XSP16, 25)
        CFI Block cfiCond355 Using cfiCommon0
        CFI (cfiCond355) NoFunction
        CFI (cfiCond355) Conditional ??CrossCallReturnLabel_99, ??CrossCallReturnLabel_33
        CFI (cfiCond355) R6 load(1, XDATA, add(CFA_XSP16, literal(-16)))
        CFI (cfiCond355) VB load(1, XDATA, add(CFA_XSP16, literal(-15)))
        CFI (cfiCond355) V0 load(1, XDATA, add(CFA_XSP16, literal(-14)))
        CFI (cfiCond355) V1 load(1, XDATA, add(CFA_XSP16, literal(-13)))
        CFI (cfiCond355) V2 load(1, XDATA, add(CFA_XSP16, literal(-12)))
        CFI (cfiCond355) V3 load(1, XDATA, add(CFA_XSP16, literal(-11)))
        CFI (cfiCond355) V4 load(1, XDATA, add(CFA_XSP16, literal(-10)))
        CFI (cfiCond355) V5 load(1, XDATA, add(CFA_XSP16, literal(-9)))
        CFI (cfiCond355) V6 load(1, XDATA, add(CFA_XSP16, literal(-8)))
        CFI (cfiCond355) V7 load(1, XDATA, add(CFA_XSP16, literal(-7)))
        CFI (cfiCond355) R7 load(1, XDATA, add(CFA_XSP16, literal(-6)))
        CFI (cfiCond355) ?RET_LOW load(1, XDATA, add(CFA_XSP16, literal(-5)))
        CFI (cfiCond355) ?RET_HIGH load(1, XDATA, add(CFA_XSP16, literal(-4)))
        CFI (cfiCond355) ?BRET_EXT load(1, XDATA, add(CFA_XSP16, literal(-3)))
        CFI (cfiCond355) DPL0 load(1, XDATA, add(CFA_XSP16, literal(-2)))
        CFI (cfiCond355) DPH0 load(1, XDATA, add(CFA_XSP16, literal(-1)))
        CFI (cfiCond355) CFA_SP SP+0
        CFI (cfiCond355) CFA_XSP16 add(XSP16, 25)
        CFI Block cfiCond356 Using cfiCommon0
        CFI (cfiCond356) NoFunction
        CFI (cfiCond356) Conditional ??CrossCallReturnLabel_99, ??CrossCallReturnLabel_34
        CFI (cfiCond356) R6 load(1, XDATA, add(CFA_XSP16, literal(-16)))
        CFI (cfiCond356) VB load(1, XDATA, add(CFA_XSP16, literal(-15)))
        CFI (cfiCond356) V0 load(1, XDATA, add(CFA_XSP16, literal(-14)))
        CFI (cfiCond356) V1 load(1, XDATA, add(CFA_XSP16, literal(-13)))
        CFI (cfiCond356) V2 load(1, XDATA, add(CFA_XSP16, literal(-12)))
        CFI (cfiCond356) V3 load(1, XDATA, add(CFA_XSP16, literal(-11)))
        CFI (cfiCond356) V4 load(1, XDATA, add(CFA_XSP16, literal(-10)))
        CFI (cfiCond356) V5 load(1, XDATA, add(CFA_XSP16, literal(-9)))
        CFI (cfiCond356) V6 load(1, XDATA, add(CFA_XSP16, literal(-8)))
        CFI (cfiCond356) V7 load(1, XDATA, add(CFA_XSP16, literal(-7)))
        CFI (cfiCond356) R7 load(1, XDATA, add(CFA_XSP16, literal(-6)))
        CFI (cfiCond356) ?RET_LOW load(1, XDATA, add(CFA_XSP16, literal(-5)))
        CFI (cfiCond356) ?RET_HIGH load(1, XDATA, add(CFA_XSP16, literal(-4)))
        CFI (cfiCond356) ?BRET_EXT load(1, XDATA, add(CFA_XSP16, literal(-3)))
        CFI (cfiCond356) DPL0 load(1, XDATA, add(CFA_XSP16, literal(-2)))
        CFI (cfiCond356) DPH0 load(1, XDATA, add(CFA_XSP16, literal(-1)))
        CFI (cfiCond356) CFA_SP SP+0
        CFI (cfiCond356) CFA_XSP16 add(XSP16, 21)
        CFI Block cfiCond357 Using cfiCommon0
        CFI (cfiCond357) NoFunction
        CFI (cfiCond357) Conditional ??CrossCallReturnLabel_99, ??CrossCallReturnLabel_35
        CFI (cfiCond357) R6 load(1, XDATA, add(CFA_XSP16, literal(-16)))
        CFI (cfiCond357) VB load(1, XDATA, add(CFA_XSP16, literal(-15)))
        CFI (cfiCond357) V0 load(1, XDATA, add(CFA_XSP16, literal(-14)))
        CFI (cfiCond357) V1 load(1, XDATA, add(CFA_XSP16, literal(-13)))
        CFI (cfiCond357) V2 load(1, XDATA, add(CFA_XSP16, literal(-12)))
        CFI (cfiCond357) V3 load(1, XDATA, add(CFA_XSP16, literal(-11)))
        CFI (cfiCond357) V4 load(1, XDATA, add(CFA_XSP16, literal(-10)))
        CFI (cfiCond357) V5 load(1, XDATA, add(CFA_XSP16, literal(-9)))
        CFI (cfiCond357) V6 load(1, XDATA, add(CFA_XSP16, literal(-8)))
        CFI (cfiCond357) V7 load(1, XDATA, add(CFA_XSP16, literal(-7)))
        CFI (cfiCond357) R7 load(1, XDATA, add(CFA_XSP16, literal(-6)))
        CFI (cfiCond357) ?RET_LOW load(1, XDATA, add(CFA_XSP16, literal(-5)))
        CFI (cfiCond357) ?RET_HIGH load(1, XDATA, add(CFA_XSP16, literal(-4)))
        CFI (cfiCond357) ?BRET_EXT load(1, XDATA, add(CFA_XSP16, literal(-3)))
        CFI (cfiCond357) DPL0 load(1, XDATA, add(CFA_XSP16, literal(-2)))
        CFI (cfiCond357) DPH0 load(1, XDATA, add(CFA_XSP16, literal(-1)))
        CFI (cfiCond357) CFA_SP SP+-1
        CFI (cfiCond357) CFA_XSP16 add(XSP16, 21)
        CFI Block cfiCond358 Using cfiCommon0
        CFI (cfiCond358) NoFunction
        CFI (cfiCond358) Conditional ??CrossCallReturnLabel_98, ??CrossCallReturnLabel_7
        CFI (cfiCond358) R6 load(1, XDATA, add(CFA_XSP16, literal(-16)))
        CFI (cfiCond358) VB load(1, XDATA, add(CFA_XSP16, literal(-15)))
        CFI (cfiCond358) V0 load(1, XDATA, add(CFA_XSP16, literal(-14)))
        CFI (cfiCond358) V1 load(1, XDATA, add(CFA_XSP16, literal(-13)))
        CFI (cfiCond358) V2 load(1, XDATA, add(CFA_XSP16, literal(-12)))
        CFI (cfiCond358) V3 load(1, XDATA, add(CFA_XSP16, literal(-11)))
        CFI (cfiCond358) V4 load(1, XDATA, add(CFA_XSP16, literal(-10)))
        CFI (cfiCond358) V5 load(1, XDATA, add(CFA_XSP16, literal(-9)))
        CFI (cfiCond358) V6 load(1, XDATA, add(CFA_XSP16, literal(-8)))
        CFI (cfiCond358) V7 load(1, XDATA, add(CFA_XSP16, literal(-7)))
        CFI (cfiCond358) R7 load(1, XDATA, add(CFA_XSP16, literal(-6)))
        CFI (cfiCond358) ?RET_LOW load(1, XDATA, add(CFA_XSP16, literal(-5)))
        CFI (cfiCond358) ?RET_HIGH load(1, XDATA, add(CFA_XSP16, literal(-4)))
        CFI (cfiCond358) ?BRET_EXT load(1, XDATA, add(CFA_XSP16, literal(-3)))
        CFI (cfiCond358) DPL0 load(1, XDATA, add(CFA_XSP16, literal(-2)))
        CFI (cfiCond358) DPH0 load(1, XDATA, add(CFA_XSP16, literal(-1)))
        CFI (cfiCond358) CFA_SP SP+0
        CFI (cfiCond358) CFA_XSP16 add(XSP16, 28)
        CFI Block cfiCond359 Using cfiCommon0
        CFI (cfiCond359) NoFunction
        CFI (cfiCond359) Conditional ??CrossCallReturnLabel_98, ??CrossCallReturnLabel_8
        CFI (cfiCond359) R6 load(1, XDATA, add(CFA_XSP16, literal(-16)))
        CFI (cfiCond359) VB load(1, XDATA, add(CFA_XSP16, literal(-15)))
        CFI (cfiCond359) V0 load(1, XDATA, add(CFA_XSP16, literal(-14)))
        CFI (cfiCond359) V1 load(1, XDATA, add(CFA_XSP16, literal(-13)))
        CFI (cfiCond359) V2 load(1, XDATA, add(CFA_XSP16, literal(-12)))
        CFI (cfiCond359) V3 load(1, XDATA, add(CFA_XSP16, literal(-11)))
        CFI (cfiCond359) V4 load(1, XDATA, add(CFA_XSP16, literal(-10)))
        CFI (cfiCond359) V5 load(1, XDATA, add(CFA_XSP16, literal(-9)))
        CFI (cfiCond359) V6 load(1, XDATA, add(CFA_XSP16, literal(-8)))
        CFI (cfiCond359) V7 load(1, XDATA, add(CFA_XSP16, literal(-7)))
        CFI (cfiCond359) R7 load(1, XDATA, add(CFA_XSP16, literal(-6)))
        CFI (cfiCond359) ?RET_LOW load(1, XDATA, add(CFA_XSP16, literal(-5)))
        CFI (cfiCond359) ?RET_HIGH load(1, XDATA, add(CFA_XSP16, literal(-4)))
        CFI (cfiCond359) ?BRET_EXT load(1, XDATA, add(CFA_XSP16, literal(-3)))
        CFI (cfiCond359) DPL0 load(1, XDATA, add(CFA_XSP16, literal(-2)))
        CFI (cfiCond359) DPH0 load(1, XDATA, add(CFA_XSP16, literal(-1)))
        CFI (cfiCond359) CFA_SP SP+0
        CFI (cfiCond359) CFA_XSP16 add(XSP16, 21)
        CFI Block cfiCond360 Using cfiCommon0
        CFI (cfiCond360) NoFunction
        CFI (cfiCond360) Conditional ??CrossCallReturnLabel_98, ??CrossCallReturnLabel_9
        CFI (cfiCond360) R6 load(1, XDATA, add(CFA_XSP16, literal(-16)))
        CFI (cfiCond360) VB load(1, XDATA, add(CFA_XSP16, literal(-15)))
        CFI (cfiCond360) V0 load(1, XDATA, add(CFA_XSP16, literal(-14)))
        CFI (cfiCond360) V1 load(1, XDATA, add(CFA_XSP16, literal(-13)))
        CFI (cfiCond360) V2 load(1, XDATA, add(CFA_XSP16, literal(-12)))
        CFI (cfiCond360) V3 load(1, XDATA, add(CFA_XSP16, literal(-11)))
        CFI (cfiCond360) V4 load(1, XDATA, add(CFA_XSP16, literal(-10)))
        CFI (cfiCond360) V5 load(1, XDATA, add(CFA_XSP16, literal(-9)))
        CFI (cfiCond360) V6 load(1, XDATA, add(CFA_XSP16, literal(-8)))
        CFI (cfiCond360) V7 load(1, XDATA, add(CFA_XSP16, literal(-7)))
        CFI (cfiCond360) R7 load(1, XDATA, add(CFA_XSP16, literal(-6)))
        CFI (cfiCond360) ?RET_LOW load(1, XDATA, add(CFA_XSP16, literal(-5)))
        CFI (cfiCond360) ?RET_HIGH load(1, XDATA, add(CFA_XSP16, literal(-4)))
        CFI (cfiCond360) ?BRET_EXT load(1, XDATA, add(CFA_XSP16, literal(-3)))
        CFI (cfiCond360) DPL0 load(1, XDATA, add(CFA_XSP16, literal(-2)))
        CFI (cfiCond360) DPH0 load(1, XDATA, add(CFA_XSP16, literal(-1)))
        CFI (cfiCond360) CFA_SP SP+0
        CFI (cfiCond360) CFA_XSP16 add(XSP16, 21)
        CFI Block cfiPicker361 Using cfiCommon1
        CFI (cfiPicker361) NoFunction
        CFI (cfiPicker361) Picker
        LCALL   ?Subroutine57 & 0xFFFF
??CrossCallReturnLabel_183:
        RET
        CFI EndBlock cfiCond351
        CFI EndBlock cfiCond352
        CFI EndBlock cfiCond353
        CFI EndBlock cfiCond354
        CFI EndBlock cfiCond355
        CFI EndBlock cfiCond356
        CFI EndBlock cfiCond357
        CFI EndBlock cfiCond358
        CFI EndBlock cfiCond359
        CFI EndBlock cfiCond360
        CFI EndBlock cfiPicker361

        RSEG BANKED_CODE:CODE:NOROOT(0)
?Subroutine57:
        CFI Block cfiCond362 Using cfiCommon0
        CFI NoFunction
        CFI Conditional ??CrossCallReturnLabel_183, ??CrossCallReturnLabel_97, ??CrossCallReturnLabel_3
        CFI R6 load(1, XDATA, add(CFA_XSP16, literal(-16)))
        CFI VB load(1, XDATA, add(CFA_XSP16, literal(-15)))
        CFI V0 load(1, XDATA, add(CFA_XSP16, literal(-14)))
        CFI V1 load(1, XDATA, add(CFA_XSP16, literal(-13)))
        CFI V2 load(1, XDATA, add(CFA_XSP16, literal(-12)))
        CFI V3 load(1, XDATA, add(CFA_XSP16, literal(-11)))
        CFI V4 load(1, XDATA, add(CFA_XSP16, literal(-10)))
        CFI V5 load(1, XDATA, add(CFA_XSP16, literal(-9)))
        CFI V6 load(1, XDATA, add(CFA_XSP16, literal(-8)))
        CFI V7 load(1, XDATA, add(CFA_XSP16, literal(-7)))
        CFI R7 load(1, XDATA, add(CFA_XSP16, literal(-6)))
        CFI ?RET_LOW load(1, XDATA, add(CFA_XSP16, literal(-5)))
        CFI ?RET_HIGH load(1, XDATA, add(CFA_XSP16, literal(-4)))
        CFI ?BRET_EXT load(1, XDATA, add(CFA_XSP16, literal(-3)))
        CFI DPL0 load(1, XDATA, add(CFA_XSP16, literal(-2)))
        CFI DPH0 load(1, XDATA, add(CFA_XSP16, literal(-1)))
        CFI CFA_SP SP+0
        CFI CFA_XSP16 add(XSP16, 25)
        CFI Block cfiCond363 Using cfiCommon0
        CFI (cfiCond363) NoFunction
        CFI (cfiCond363) Conditional ??CrossCallReturnLabel_183, ??CrossCallReturnLabel_97, ??CrossCallReturnLabel_4
        CFI (cfiCond363) R6 load(1, XDATA, add(CFA_XSP16, literal(-16)))
        CFI (cfiCond363) VB load(1, XDATA, add(CFA_XSP16, literal(-15)))
        CFI (cfiCond363) V0 load(1, XDATA, add(CFA_XSP16, literal(-14)))
        CFI (cfiCond363) V1 load(1, XDATA, add(CFA_XSP16, literal(-13)))
        CFI (cfiCond363) V2 load(1, XDATA, add(CFA_XSP16, literal(-12)))
        CFI (cfiCond363) V3 load(1, XDATA, add(CFA_XSP16, literal(-11)))
        CFI (cfiCond363) V4 load(1, XDATA, add(CFA_XSP16, literal(-10)))
        CFI (cfiCond363) V5 load(1, XDATA, add(CFA_XSP16, literal(-9)))
        CFI (cfiCond363) V6 load(1, XDATA, add(CFA_XSP16, literal(-8)))
        CFI (cfiCond363) V7 load(1, XDATA, add(CFA_XSP16, literal(-7)))
        CFI (cfiCond363) R7 load(1, XDATA, add(CFA_XSP16, literal(-6)))
        CFI (cfiCond363) ?RET_LOW load(1, XDATA, add(CFA_XSP16, literal(-5)))
        CFI (cfiCond363) ?RET_HIGH load(1, XDATA, add(CFA_XSP16, literal(-4)))
        CFI (cfiCond363) ?BRET_EXT load(1, XDATA, add(CFA_XSP16, literal(-3)))
        CFI (cfiCond363) DPL0 load(1, XDATA, add(CFA_XSP16, literal(-2)))
        CFI (cfiCond363) DPH0 load(1, XDATA, add(CFA_XSP16, literal(-1)))
        CFI (cfiCond363) CFA_SP SP+0
        CFI (cfiCond363) CFA_XSP16 add(XSP16, 25)
        CFI Block cfiCond364 Using cfiCommon0
        CFI (cfiCond364) NoFunction
        CFI (cfiCond364) Conditional ??CrossCallReturnLabel_183, ??CrossCallReturnLabel_97, ??CrossCallReturnLabel_5
        CFI (cfiCond364) R6 load(1, XDATA, add(CFA_XSP16, literal(-16)))
        CFI (cfiCond364) VB load(1, XDATA, add(CFA_XSP16, literal(-15)))
        CFI (cfiCond364) V0 load(1, XDATA, add(CFA_XSP16, literal(-14)))
        CFI (cfiCond364) V1 load(1, XDATA, add(CFA_XSP16, literal(-13)))
        CFI (cfiCond364) V2 load(1, XDATA, add(CFA_XSP16, literal(-12)))
        CFI (cfiCond364) V3 load(1, XDATA, add(CFA_XSP16, literal(-11)))
        CFI (cfiCond364) V4 load(1, XDATA, add(CFA_XSP16, literal(-10)))
        CFI (cfiCond364) V5 load(1, XDATA, add(CFA_XSP16, literal(-9)))
        CFI (cfiCond364) V6 load(1, XDATA, add(CFA_XSP16, literal(-8)))
        CFI (cfiCond364) V7 load(1, XDATA, add(CFA_XSP16, literal(-7)))
        CFI (cfiCond364) R7 load(1, XDATA, add(CFA_XSP16, literal(-6)))
        CFI (cfiCond364) ?RET_LOW load(1, XDATA, add(CFA_XSP16, literal(-5)))
        CFI (cfiCond364) ?RET_HIGH load(1, XDATA, add(CFA_XSP16, literal(-4)))
        CFI (cfiCond364) ?BRET_EXT load(1, XDATA, add(CFA_XSP16, literal(-3)))
        CFI (cfiCond364) DPL0 load(1, XDATA, add(CFA_XSP16, literal(-2)))
        CFI (cfiCond364) DPH0 load(1, XDATA, add(CFA_XSP16, literal(-1)))
        CFI (cfiCond364) CFA_SP SP+0
        CFI (cfiCond364) CFA_XSP16 add(XSP16, 25)
        CFI Block cfiCond365 Using cfiCommon0
        CFI (cfiCond365) NoFunction
        CFI (cfiCond365) Conditional ??CrossCallReturnLabel_183, ??CrossCallReturnLabel_97, ??CrossCallReturnLabel_6
        CFI (cfiCond365) R6 load(1, XDATA, add(CFA_XSP16, literal(-16)))
        CFI (cfiCond365) VB load(1, XDATA, add(CFA_XSP16, literal(-15)))
        CFI (cfiCond365) V0 load(1, XDATA, add(CFA_XSP16, literal(-14)))
        CFI (cfiCond365) V1 load(1, XDATA, add(CFA_XSP16, literal(-13)))
        CFI (cfiCond365) V2 load(1, XDATA, add(CFA_XSP16, literal(-12)))
        CFI (cfiCond365) V3 load(1, XDATA, add(CFA_XSP16, literal(-11)))
        CFI (cfiCond365) V4 load(1, XDATA, add(CFA_XSP16, literal(-10)))
        CFI (cfiCond365) V5 load(1, XDATA, add(CFA_XSP16, literal(-9)))
        CFI (cfiCond365) V6 load(1, XDATA, add(CFA_XSP16, literal(-8)))
        CFI (cfiCond365) V7 load(1, XDATA, add(CFA_XSP16, literal(-7)))
        CFI (cfiCond365) R7 load(1, XDATA, add(CFA_XSP16, literal(-6)))
        CFI (cfiCond365) ?RET_LOW load(1, XDATA, add(CFA_XSP16, literal(-5)))
        CFI (cfiCond365) ?RET_HIGH load(1, XDATA, add(CFA_XSP16, literal(-4)))
        CFI (cfiCond365) ?BRET_EXT load(1, XDATA, add(CFA_XSP16, literal(-3)))
        CFI (cfiCond365) DPL0 load(1, XDATA, add(CFA_XSP16, literal(-2)))
        CFI (cfiCond365) DPH0 load(1, XDATA, add(CFA_XSP16, literal(-1)))
        CFI (cfiCond365) CFA_SP SP+0
        CFI (cfiCond365) CFA_XSP16 add(XSP16, 25)
        CFI Block cfiCond366 Using cfiCommon0
        CFI (cfiCond366) NoFunction
        CFI (cfiCond366) Conditional ??CrossCallReturnLabel_183, ??CrossCallReturnLabel_99, ??CrossCallReturnLabel_33
        CFI (cfiCond366) R6 load(1, XDATA, add(CFA_XSP16, literal(-16)))
        CFI (cfiCond366) VB load(1, XDATA, add(CFA_XSP16, literal(-15)))
        CFI (cfiCond366) V0 load(1, XDATA, add(CFA_XSP16, literal(-14)))
        CFI (cfiCond366) V1 load(1, XDATA, add(CFA_XSP16, literal(-13)))
        CFI (cfiCond366) V2 load(1, XDATA, add(CFA_XSP16, literal(-12)))
        CFI (cfiCond366) V3 load(1, XDATA, add(CFA_XSP16, literal(-11)))
        CFI (cfiCond366) V4 load(1, XDATA, add(CFA_XSP16, literal(-10)))
        CFI (cfiCond366) V5 load(1, XDATA, add(CFA_XSP16, literal(-9)))
        CFI (cfiCond366) V6 load(1, XDATA, add(CFA_XSP16, literal(-8)))
        CFI (cfiCond366) V7 load(1, XDATA, add(CFA_XSP16, literal(-7)))
        CFI (cfiCond366) R7 load(1, XDATA, add(CFA_XSP16, literal(-6)))
        CFI (cfiCond366) ?RET_LOW load(1, XDATA, add(CFA_XSP16, literal(-5)))
        CFI (cfiCond366) ?RET_HIGH load(1, XDATA, add(CFA_XSP16, literal(-4)))
        CFI (cfiCond366) ?BRET_EXT load(1, XDATA, add(CFA_XSP16, literal(-3)))
        CFI (cfiCond366) DPL0 load(1, XDATA, add(CFA_XSP16, literal(-2)))
        CFI (cfiCond366) DPH0 load(1, XDATA, add(CFA_XSP16, literal(-1)))
        CFI (cfiCond366) CFA_SP SP+0
        CFI (cfiCond366) CFA_XSP16 add(XSP16, 25)
        CFI Block cfiCond367 Using cfiCommon0
        CFI (cfiCond367) NoFunction
        CFI (cfiCond367) Conditional ??CrossCallReturnLabel_183, ??CrossCallReturnLabel_99, ??CrossCallReturnLabel_34
        CFI (cfiCond367) R6 load(1, XDATA, add(CFA_XSP16, literal(-16)))
        CFI (cfiCond367) VB load(1, XDATA, add(CFA_XSP16, literal(-15)))
        CFI (cfiCond367) V0 load(1, XDATA, add(CFA_XSP16, literal(-14)))
        CFI (cfiCond367) V1 load(1, XDATA, add(CFA_XSP16, literal(-13)))
        CFI (cfiCond367) V2 load(1, XDATA, add(CFA_XSP16, literal(-12)))
        CFI (cfiCond367) V3 load(1, XDATA, add(CFA_XSP16, literal(-11)))
        CFI (cfiCond367) V4 load(1, XDATA, add(CFA_XSP16, literal(-10)))
        CFI (cfiCond367) V5 load(1, XDATA, add(CFA_XSP16, literal(-9)))
        CFI (cfiCond367) V6 load(1, XDATA, add(CFA_XSP16, literal(-8)))
        CFI (cfiCond367) V7 load(1, XDATA, add(CFA_XSP16, literal(-7)))
        CFI (cfiCond367) R7 load(1, XDATA, add(CFA_XSP16, literal(-6)))
        CFI (cfiCond367) ?RET_LOW load(1, XDATA, add(CFA_XSP16, literal(-5)))
        CFI (cfiCond367) ?RET_HIGH load(1, XDATA, add(CFA_XSP16, literal(-4)))
        CFI (cfiCond367) ?BRET_EXT load(1, XDATA, add(CFA_XSP16, literal(-3)))
        CFI (cfiCond367) DPL0 load(1, XDATA, add(CFA_XSP16, literal(-2)))
        CFI (cfiCond367) DPH0 load(1, XDATA, add(CFA_XSP16, literal(-1)))
        CFI (cfiCond367) CFA_SP SP+0
        CFI (cfiCond367) CFA_XSP16 add(XSP16, 21)
        CFI Block cfiCond368 Using cfiCommon0
        CFI (cfiCond368) NoFunction
        CFI (cfiCond368) Conditional ??CrossCallReturnLabel_183, ??CrossCallReturnLabel_99, ??CrossCallReturnLabel_35
        CFI (cfiCond368) R6 load(1, XDATA, add(CFA_XSP16, literal(-16)))
        CFI (cfiCond368) VB load(1, XDATA, add(CFA_XSP16, literal(-15)))
        CFI (cfiCond368) V0 load(1, XDATA, add(CFA_XSP16, literal(-14)))
        CFI (cfiCond368) V1 load(1, XDATA, add(CFA_XSP16, literal(-13)))
        CFI (cfiCond368) V2 load(1, XDATA, add(CFA_XSP16, literal(-12)))
        CFI (cfiCond368) V3 load(1, XDATA, add(CFA_XSP16, literal(-11)))
        CFI (cfiCond368) V4 load(1, XDATA, add(CFA_XSP16, literal(-10)))
        CFI (cfiCond368) V5 load(1, XDATA, add(CFA_XSP16, literal(-9)))
        CFI (cfiCond368) V6 load(1, XDATA, add(CFA_XSP16, literal(-8)))
        CFI (cfiCond368) V7 load(1, XDATA, add(CFA_XSP16, literal(-7)))
        CFI (cfiCond368) R7 load(1, XDATA, add(CFA_XSP16, literal(-6)))
        CFI (cfiCond368) ?RET_LOW load(1, XDATA, add(CFA_XSP16, literal(-5)))
        CFI (cfiCond368) ?RET_HIGH load(1, XDATA, add(CFA_XSP16, literal(-4)))
        CFI (cfiCond368) ?BRET_EXT load(1, XDATA, add(CFA_XSP16, literal(-3)))
        CFI (cfiCond368) DPL0 load(1, XDATA, add(CFA_XSP16, literal(-2)))
        CFI (cfiCond368) DPH0 load(1, XDATA, add(CFA_XSP16, literal(-1)))
        CFI (cfiCond368) CFA_SP SP+-1
        CFI (cfiCond368) CFA_XSP16 add(XSP16, 21)
        CFI Block cfiCond369 Using cfiCommon0
        CFI (cfiCond369) NoFunction
        CFI (cfiCond369) Conditional ??CrossCallReturnLabel_183, ??CrossCallReturnLabel_98, ??CrossCallReturnLabel_7
        CFI (cfiCond369) R6 load(1, XDATA, add(CFA_XSP16, literal(-16)))
        CFI (cfiCond369) VB load(1, XDATA, add(CFA_XSP16, literal(-15)))
        CFI (cfiCond369) V0 load(1, XDATA, add(CFA_XSP16, literal(-14)))
        CFI (cfiCond369) V1 load(1, XDATA, add(CFA_XSP16, literal(-13)))
        CFI (cfiCond369) V2 load(1, XDATA, add(CFA_XSP16, literal(-12)))
        CFI (cfiCond369) V3 load(1, XDATA, add(CFA_XSP16, literal(-11)))
        CFI (cfiCond369) V4 load(1, XDATA, add(CFA_XSP16, literal(-10)))
        CFI (cfiCond369) V5 load(1, XDATA, add(CFA_XSP16, literal(-9)))
        CFI (cfiCond369) V6 load(1, XDATA, add(CFA_XSP16, literal(-8)))
        CFI (cfiCond369) V7 load(1, XDATA, add(CFA_XSP16, literal(-7)))
        CFI (cfiCond369) R7 load(1, XDATA, add(CFA_XSP16, literal(-6)))
        CFI (cfiCond369) ?RET_LOW load(1, XDATA, add(CFA_XSP16, literal(-5)))
        CFI (cfiCond369) ?RET_HIGH load(1, XDATA, add(CFA_XSP16, literal(-4)))
        CFI (cfiCond369) ?BRET_EXT load(1, XDATA, add(CFA_XSP16, literal(-3)))
        CFI (cfiCond369) DPL0 load(1, XDATA, add(CFA_XSP16, literal(-2)))
        CFI (cfiCond369) DPH0 load(1, XDATA, add(CFA_XSP16, literal(-1)))
        CFI (cfiCond369) CFA_SP SP+0
        CFI (cfiCond369) CFA_XSP16 add(XSP16, 28)
        CFI Block cfiCond370 Using cfiCommon0
        CFI (cfiCond370) NoFunction
        CFI (cfiCond370) Conditional ??CrossCallReturnLabel_183, ??CrossCallReturnLabel_98, ??CrossCallReturnLabel_8
        CFI (cfiCond370) R6 load(1, XDATA, add(CFA_XSP16, literal(-16)))
        CFI (cfiCond370) VB load(1, XDATA, add(CFA_XSP16, literal(-15)))
        CFI (cfiCond370) V0 load(1, XDATA, add(CFA_XSP16, literal(-14)))
        CFI (cfiCond370) V1 load(1, XDATA, add(CFA_XSP16, literal(-13)))
        CFI (cfiCond370) V2 load(1, XDATA, add(CFA_XSP16, literal(-12)))
        CFI (cfiCond370) V3 load(1, XDATA, add(CFA_XSP16, literal(-11)))
        CFI (cfiCond370) V4 load(1, XDATA, add(CFA_XSP16, literal(-10)))
        CFI (cfiCond370) V5 load(1, XDATA, add(CFA_XSP16, literal(-9)))
        CFI (cfiCond370) V6 load(1, XDATA, add(CFA_XSP16, literal(-8)))
        CFI (cfiCond370) V7 load(1, XDATA, add(CFA_XSP16, literal(-7)))
        CFI (cfiCond370) R7 load(1, XDATA, add(CFA_XSP16, literal(-6)))
        CFI (cfiCond370) ?RET_LOW load(1, XDATA, add(CFA_XSP16, literal(-5)))
        CFI (cfiCond370) ?RET_HIGH load(1, XDATA, add(CFA_XSP16, literal(-4)))
        CFI (cfiCond370) ?BRET_EXT load(1, XDATA, add(CFA_XSP16, literal(-3)))
        CFI (cfiCond370) DPL0 load(1, XDATA, add(CFA_XSP16, literal(-2)))
        CFI (cfiCond370) DPH0 load(1, XDATA, add(CFA_XSP16, literal(-1)))
        CFI (cfiCond370) CFA_SP SP+0
        CFI (cfiCond370) CFA_XSP16 add(XSP16, 21)
        CFI Block cfiCond371 Using cfiCommon0
        CFI (cfiCond371) NoFunction
        CFI (cfiCond371) Conditional ??CrossCallReturnLabel_183, ??CrossCallReturnLabel_98, ??CrossCallReturnLabel_9
        CFI (cfiCond371) R6 load(1, XDATA, add(CFA_XSP16, literal(-16)))
        CFI (cfiCond371) VB load(1, XDATA, add(CFA_XSP16, literal(-15)))
        CFI (cfiCond371) V0 load(1, XDATA, add(CFA_XSP16, literal(-14)))
        CFI (cfiCond371) V1 load(1, XDATA, add(CFA_XSP16, literal(-13)))
        CFI (cfiCond371) V2 load(1, XDATA, add(CFA_XSP16, literal(-12)))
        CFI (cfiCond371) V3 load(1, XDATA, add(CFA_XSP16, literal(-11)))
        CFI (cfiCond371) V4 load(1, XDATA, add(CFA_XSP16, literal(-10)))
        CFI (cfiCond371) V5 load(1, XDATA, add(CFA_XSP16, literal(-9)))
        CFI (cfiCond371) V6 load(1, XDATA, add(CFA_XSP16, literal(-8)))
        CFI (cfiCond371) V7 load(1, XDATA, add(CFA_XSP16, literal(-7)))
        CFI (cfiCond371) R7 load(1, XDATA, add(CFA_XSP16, literal(-6)))
        CFI (cfiCond371) ?RET_LOW load(1, XDATA, add(CFA_XSP16, literal(-5)))
        CFI (cfiCond371) ?RET_HIGH load(1, XDATA, add(CFA_XSP16, literal(-4)))
        CFI (cfiCond371) ?BRET_EXT load(1, XDATA, add(CFA_XSP16, literal(-3)))
        CFI (cfiCond371) DPL0 load(1, XDATA, add(CFA_XSP16, literal(-2)))
        CFI (cfiCond371) DPH0 load(1, XDATA, add(CFA_XSP16, literal(-1)))
        CFI (cfiCond371) CFA_SP SP+0
        CFI (cfiCond371) CFA_XSP16 add(XSP16, 21)
        CFI Block cfiCond372 Using cfiCommon0
        CFI (cfiCond372) NoFunction
        CFI (cfiCond372) Conditional ??CrossCallReturnLabel_182, ??CrossCallReturnLabel_92, ??CrossCallReturnLabel_12
        CFI (cfiCond372) R6 load(1, XDATA, add(CFA_XSP16, literal(-16)))
        CFI (cfiCond372) VB load(1, XDATA, add(CFA_XSP16, literal(-15)))
        CFI (cfiCond372) V0 load(1, XDATA, add(CFA_XSP16, literal(-14)))
        CFI (cfiCond372) V1 load(1, XDATA, add(CFA_XSP16, literal(-13)))
        CFI (cfiCond372) V2 load(1, XDATA, add(CFA_XSP16, literal(-12)))
        CFI (cfiCond372) V3 load(1, XDATA, add(CFA_XSP16, literal(-11)))
        CFI (cfiCond372) V4 load(1, XDATA, add(CFA_XSP16, literal(-10)))
        CFI (cfiCond372) V5 load(1, XDATA, add(CFA_XSP16, literal(-9)))
        CFI (cfiCond372) V6 load(1, XDATA, add(CFA_XSP16, literal(-8)))
        CFI (cfiCond372) V7 load(1, XDATA, add(CFA_XSP16, literal(-7)))
        CFI (cfiCond372) R7 load(1, XDATA, add(CFA_XSP16, literal(-6)))
        CFI (cfiCond372) ?RET_LOW load(1, XDATA, add(CFA_XSP16, literal(-5)))
        CFI (cfiCond372) ?RET_HIGH load(1, XDATA, add(CFA_XSP16, literal(-4)))
        CFI (cfiCond372) ?BRET_EXT load(1, XDATA, add(CFA_XSP16, literal(-3)))
        CFI (cfiCond372) DPL0 load(1, XDATA, add(CFA_XSP16, literal(-2)))
        CFI (cfiCond372) DPH0 load(1, XDATA, add(CFA_XSP16, literal(-1)))
        CFI (cfiCond372) CFA_SP SP+0
        CFI (cfiCond372) CFA_XSP16 add(XSP16, 25)
        CFI Block cfiCond373 Using cfiCommon0
        CFI (cfiCond373) NoFunction
        CFI (cfiCond373) Conditional ??CrossCallReturnLabel_182, ??CrossCallReturnLabel_92, ??CrossCallReturnLabel_13
        CFI (cfiCond373) R6 load(1, XDATA, add(CFA_XSP16, literal(-16)))
        CFI (cfiCond373) VB load(1, XDATA, add(CFA_XSP16, literal(-15)))
        CFI (cfiCond373) V0 load(1, XDATA, add(CFA_XSP16, literal(-14)))
        CFI (cfiCond373) V1 load(1, XDATA, add(CFA_XSP16, literal(-13)))
        CFI (cfiCond373) V2 load(1, XDATA, add(CFA_XSP16, literal(-12)))
        CFI (cfiCond373) V3 load(1, XDATA, add(CFA_XSP16, literal(-11)))
        CFI (cfiCond373) V4 load(1, XDATA, add(CFA_XSP16, literal(-10)))
        CFI (cfiCond373) V5 load(1, XDATA, add(CFA_XSP16, literal(-9)))
        CFI (cfiCond373) V6 load(1, XDATA, add(CFA_XSP16, literal(-8)))
        CFI (cfiCond373) V7 load(1, XDATA, add(CFA_XSP16, literal(-7)))
        CFI (cfiCond373) R7 load(1, XDATA, add(CFA_XSP16, literal(-6)))
        CFI (cfiCond373) ?RET_LOW load(1, XDATA, add(CFA_XSP16, literal(-5)))
        CFI (cfiCond373) ?RET_HIGH load(1, XDATA, add(CFA_XSP16, literal(-4)))
        CFI (cfiCond373) ?BRET_EXT load(1, XDATA, add(CFA_XSP16, literal(-3)))
        CFI (cfiCond373) DPL0 load(1, XDATA, add(CFA_XSP16, literal(-2)))
        CFI (cfiCond373) DPH0 load(1, XDATA, add(CFA_XSP16, literal(-1)))
        CFI (cfiCond373) CFA_SP SP+0
        CFI (cfiCond373) CFA_XSP16 add(XSP16, 25)
        CFI Block cfiCond374 Using cfiCommon0
        CFI (cfiCond374) NoFunction
        CFI (cfiCond374) Conditional ??CrossCallReturnLabel_182, ??CrossCallReturnLabel_93, ??CrossCallReturnLabel_16
        CFI (cfiCond374) R6 load(1, XDATA, add(CFA_XSP16, literal(-16)))
        CFI (cfiCond374) VB load(1, XDATA, add(CFA_XSP16, literal(-15)))
        CFI (cfiCond374) V0 load(1, XDATA, add(CFA_XSP16, literal(-14)))
        CFI (cfiCond374) V1 load(1, XDATA, add(CFA_XSP16, literal(-13)))
        CFI (cfiCond374) V2 load(1, XDATA, add(CFA_XSP16, literal(-12)))
        CFI (cfiCond374) V3 load(1, XDATA, add(CFA_XSP16, literal(-11)))
        CFI (cfiCond374) V4 load(1, XDATA, add(CFA_XSP16, literal(-10)))
        CFI (cfiCond374) V5 load(1, XDATA, add(CFA_XSP16, literal(-9)))
        CFI (cfiCond374) V6 load(1, XDATA, add(CFA_XSP16, literal(-8)))
        CFI (cfiCond374) V7 load(1, XDATA, add(CFA_XSP16, literal(-7)))
        CFI (cfiCond374) R7 load(1, XDATA, add(CFA_XSP16, literal(-6)))
        CFI (cfiCond374) ?RET_LOW load(1, XDATA, add(CFA_XSP16, literal(-5)))
        CFI (cfiCond374) ?RET_HIGH load(1, XDATA, add(CFA_XSP16, literal(-4)))
        CFI (cfiCond374) ?BRET_EXT load(1, XDATA, add(CFA_XSP16, literal(-3)))
        CFI (cfiCond374) DPL0 load(1, XDATA, add(CFA_XSP16, literal(-2)))
        CFI (cfiCond374) DPH0 load(1, XDATA, add(CFA_XSP16, literal(-1)))
        CFI (cfiCond374) CFA_SP SP+0
        CFI (cfiCond374) CFA_XSP16 add(XSP16, 21)
        CFI Block cfiCond375 Using cfiCommon0
        CFI (cfiCond375) NoFunction
        CFI (cfiCond375) Conditional ??CrossCallReturnLabel_182, ??CrossCallReturnLabel_93, ??CrossCallReturnLabel_17
        CFI (cfiCond375) R6 load(1, XDATA, add(CFA_XSP16, literal(-16)))
        CFI (cfiCond375) VB load(1, XDATA, add(CFA_XSP16, literal(-15)))
        CFI (cfiCond375) V0 load(1, XDATA, add(CFA_XSP16, literal(-14)))
        CFI (cfiCond375) V1 load(1, XDATA, add(CFA_XSP16, literal(-13)))
        CFI (cfiCond375) V2 load(1, XDATA, add(CFA_XSP16, literal(-12)))
        CFI (cfiCond375) V3 load(1, XDATA, add(CFA_XSP16, literal(-11)))
        CFI (cfiCond375) V4 load(1, XDATA, add(CFA_XSP16, literal(-10)))
        CFI (cfiCond375) V5 load(1, XDATA, add(CFA_XSP16, literal(-9)))
        CFI (cfiCond375) V6 load(1, XDATA, add(CFA_XSP16, literal(-8)))
        CFI (cfiCond375) V7 load(1, XDATA, add(CFA_XSP16, literal(-7)))
        CFI (cfiCond375) R7 load(1, XDATA, add(CFA_XSP16, literal(-6)))
        CFI (cfiCond375) ?RET_LOW load(1, XDATA, add(CFA_XSP16, literal(-5)))
        CFI (cfiCond375) ?RET_HIGH load(1, XDATA, add(CFA_XSP16, literal(-4)))
        CFI (cfiCond375) ?BRET_EXT load(1, XDATA, add(CFA_XSP16, literal(-3)))
        CFI (cfiCond375) DPL0 load(1, XDATA, add(CFA_XSP16, literal(-2)))
        CFI (cfiCond375) DPH0 load(1, XDATA, add(CFA_XSP16, literal(-1)))
        CFI (cfiCond375) CFA_SP SP+0
        CFI (cfiCond375) CFA_XSP16 add(XSP16, 21)
        CFI Block cfiCond376 Using cfiCommon0
        CFI (cfiCond376) NoFunction
        CFI (cfiCond376) Conditional ??CrossCallReturnLabel_182, ??CrossCallReturnLabel_94, ??CrossCallReturnLabel_18
        CFI (cfiCond376) R6 load(1, XDATA, add(CFA_XSP16, literal(-16)))
        CFI (cfiCond376) VB load(1, XDATA, add(CFA_XSP16, literal(-15)))
        CFI (cfiCond376) V0 load(1, XDATA, add(CFA_XSP16, literal(-14)))
        CFI (cfiCond376) V1 load(1, XDATA, add(CFA_XSP16, literal(-13)))
        CFI (cfiCond376) V2 load(1, XDATA, add(CFA_XSP16, literal(-12)))
        CFI (cfiCond376) V3 load(1, XDATA, add(CFA_XSP16, literal(-11)))
        CFI (cfiCond376) V4 load(1, XDATA, add(CFA_XSP16, literal(-10)))
        CFI (cfiCond376) V5 load(1, XDATA, add(CFA_XSP16, literal(-9)))
        CFI (cfiCond376) V6 load(1, XDATA, add(CFA_XSP16, literal(-8)))
        CFI (cfiCond376) V7 load(1, XDATA, add(CFA_XSP16, literal(-7)))
        CFI (cfiCond376) R7 load(1, XDATA, add(CFA_XSP16, literal(-6)))
        CFI (cfiCond376) ?RET_LOW load(1, XDATA, add(CFA_XSP16, literal(-5)))
        CFI (cfiCond376) ?RET_HIGH load(1, XDATA, add(CFA_XSP16, literal(-4)))
        CFI (cfiCond376) ?BRET_EXT load(1, XDATA, add(CFA_XSP16, literal(-3)))
        CFI (cfiCond376) DPL0 load(1, XDATA, add(CFA_XSP16, literal(-2)))
        CFI (cfiCond376) DPH0 load(1, XDATA, add(CFA_XSP16, literal(-1)))
        CFI (cfiCond376) CFA_SP SP+0
        CFI (cfiCond376) CFA_XSP16 add(XSP16, 21)
        CFI Block cfiCond377 Using cfiCommon0
        CFI (cfiCond377) NoFunction
        CFI (cfiCond377) Conditional ??CrossCallReturnLabel_182, ??CrossCallReturnLabel_94, ??CrossCallReturnLabel_19
        CFI (cfiCond377) R6 load(1, XDATA, add(CFA_XSP16, literal(-16)))
        CFI (cfiCond377) VB load(1, XDATA, add(CFA_XSP16, literal(-15)))
        CFI (cfiCond377) V0 load(1, XDATA, add(CFA_XSP16, literal(-14)))
        CFI (cfiCond377) V1 load(1, XDATA, add(CFA_XSP16, literal(-13)))
        CFI (cfiCond377) V2 load(1, XDATA, add(CFA_XSP16, literal(-12)))
        CFI (cfiCond377) V3 load(1, XDATA, add(CFA_XSP16, literal(-11)))
        CFI (cfiCond377) V4 load(1, XDATA, add(CFA_XSP16, literal(-10)))
        CFI (cfiCond377) V5 load(1, XDATA, add(CFA_XSP16, literal(-9)))
        CFI (cfiCond377) V6 load(1, XDATA, add(CFA_XSP16, literal(-8)))
        CFI (cfiCond377) V7 load(1, XDATA, add(CFA_XSP16, literal(-7)))
        CFI (cfiCond377) R7 load(1, XDATA, add(CFA_XSP16, literal(-6)))
        CFI (cfiCond377) ?RET_LOW load(1, XDATA, add(CFA_XSP16, literal(-5)))
        CFI (cfiCond377) ?RET_HIGH load(1, XDATA, add(CFA_XSP16, literal(-4)))
        CFI (cfiCond377) ?BRET_EXT load(1, XDATA, add(CFA_XSP16, literal(-3)))
        CFI (cfiCond377) DPL0 load(1, XDATA, add(CFA_XSP16, literal(-2)))
        CFI (cfiCond377) DPH0 load(1, XDATA, add(CFA_XSP16, literal(-1)))
        CFI (cfiCond377) CFA_SP SP+0
        CFI (cfiCond377) CFA_XSP16 add(XSP16, 21)
        CFI Block cfiCond378 Using cfiCommon0
        CFI (cfiCond378) NoFunction
        CFI (cfiCond378) Conditional ??CrossCallReturnLabel_182, ??CrossCallReturnLabel_94, ??CrossCallReturnLabel_20
        CFI (cfiCond378) R6 load(1, XDATA, add(CFA_XSP16, literal(-16)))
        CFI (cfiCond378) VB load(1, XDATA, add(CFA_XSP16, literal(-15)))
        CFI (cfiCond378) V0 load(1, XDATA, add(CFA_XSP16, literal(-14)))
        CFI (cfiCond378) V1 load(1, XDATA, add(CFA_XSP16, literal(-13)))
        CFI (cfiCond378) V2 load(1, XDATA, add(CFA_XSP16, literal(-12)))
        CFI (cfiCond378) V3 load(1, XDATA, add(CFA_XSP16, literal(-11)))
        CFI (cfiCond378) V4 load(1, XDATA, add(CFA_XSP16, literal(-10)))
        CFI (cfiCond378) V5 load(1, XDATA, add(CFA_XSP16, literal(-9)))
        CFI (cfiCond378) V6 load(1, XDATA, add(CFA_XSP16, literal(-8)))
        CFI (cfiCond378) V7 load(1, XDATA, add(CFA_XSP16, literal(-7)))
        CFI (cfiCond378) R7 load(1, XDATA, add(CFA_XSP16, literal(-6)))
        CFI (cfiCond378) ?RET_LOW load(1, XDATA, add(CFA_XSP16, literal(-5)))
        CFI (cfiCond378) ?RET_HIGH load(1, XDATA, add(CFA_XSP16, literal(-4)))
        CFI (cfiCond378) ?BRET_EXT load(1, XDATA, add(CFA_XSP16, literal(-3)))
        CFI (cfiCond378) DPL0 load(1, XDATA, add(CFA_XSP16, literal(-2)))
        CFI (cfiCond378) DPH0 load(1, XDATA, add(CFA_XSP16, literal(-1)))
        CFI (cfiCond378) CFA_SP SP+0
        CFI (cfiCond378) CFA_XSP16 add(XSP16, 17)
        CFI Block cfiPicker379 Using cfiCommon1
        CFI (cfiPicker379) NoFunction
        CFI (cfiPicker379) Picker
        MOVX    A,@DPTR
        MOV     R0,A
        CFI EndBlock cfiCond362
        CFI EndBlock cfiCond363
        CFI EndBlock cfiCond364
        CFI EndBlock cfiCond365
        CFI EndBlock cfiCond366
        CFI EndBlock cfiCond367
        CFI EndBlock cfiCond368
        CFI EndBlock cfiCond369
        CFI EndBlock cfiCond370
        CFI EndBlock cfiCond371
        CFI EndBlock cfiCond372
        CFI EndBlock cfiCond373
        CFI EndBlock cfiCond374
        CFI EndBlock cfiCond375
        CFI EndBlock cfiCond376
        CFI EndBlock cfiCond377
        CFI EndBlock cfiCond378
        CFI EndBlock cfiPicker379
        REQUIRE ??Subroutine77_0
        ; // Fall through to label ??Subroutine77_0

        RSEG BANKED_CODE:CODE:NOROOT(0)
??Subroutine77_0:
        CFI Block cfiCond380 Using cfiCommon0
        CFI NoFunction
        CFI Conditional ??CrossCallReturnLabel_180
        CFI R6 load(1, XDATA, add(CFA_XSP16, literal(-16)))
        CFI VB load(1, XDATA, add(CFA_XSP16, literal(-15)))
        CFI V0 load(1, XDATA, add(CFA_XSP16, literal(-14)))
        CFI V1 load(1, XDATA, add(CFA_XSP16, literal(-13)))
        CFI V2 load(1, XDATA, add(CFA_XSP16, literal(-12)))
        CFI V3 load(1, XDATA, add(CFA_XSP16, literal(-11)))
        CFI V4 load(1, XDATA, add(CFA_XSP16, literal(-10)))
        CFI V5 load(1, XDATA, add(CFA_XSP16, literal(-9)))
        CFI V6 load(1, XDATA, add(CFA_XSP16, literal(-8)))
        CFI V7 load(1, XDATA, add(CFA_XSP16, literal(-7)))
        CFI R7 load(1, XDATA, add(CFA_XSP16, literal(-6)))
        CFI ?RET_LOW load(1, XDATA, add(CFA_XSP16, literal(-5)))
        CFI ?RET_HIGH load(1, XDATA, add(CFA_XSP16, literal(-4)))
        CFI ?BRET_EXT load(1, XDATA, add(CFA_XSP16, literal(-3)))
        CFI DPL0 load(1, XDATA, add(CFA_XSP16, literal(-2)))
        CFI DPH0 load(1, XDATA, add(CFA_XSP16, literal(-1)))
        CFI CFA_SP SP+0
        CFI CFA_XSP16 add(XSP16, 25)
        CFI Block cfiCond381 Using cfiCommon0
        CFI (cfiCond381) NoFunction
        CFI (cfiCond381) Conditional ??CrossCallReturnLabel_181
        CFI (cfiCond381) R6 load(1, XDATA, add(CFA_XSP16, literal(-16)))
        CFI (cfiCond381) VB load(1, XDATA, add(CFA_XSP16, literal(-15)))
        CFI (cfiCond381) V0 load(1, XDATA, add(CFA_XSP16, literal(-14)))
        CFI (cfiCond381) V1 load(1, XDATA, add(CFA_XSP16, literal(-13)))
        CFI (cfiCond381) V2 load(1, XDATA, add(CFA_XSP16, literal(-12)))
        CFI (cfiCond381) V3 load(1, XDATA, add(CFA_XSP16, literal(-11)))
        CFI (cfiCond381) V4 load(1, XDATA, add(CFA_XSP16, literal(-10)))
        CFI (cfiCond381) V5 load(1, XDATA, add(CFA_XSP16, literal(-9)))
        CFI (cfiCond381) V6 load(1, XDATA, add(CFA_XSP16, literal(-8)))
        CFI (cfiCond381) V7 load(1, XDATA, add(CFA_XSP16, literal(-7)))
        CFI (cfiCond381) R7 load(1, XDATA, add(CFA_XSP16, literal(-6)))
        CFI (cfiCond381) ?RET_LOW load(1, XDATA, add(CFA_XSP16, literal(-5)))
        CFI (cfiCond381) ?RET_HIGH load(1, XDATA, add(CFA_XSP16, literal(-4)))
        CFI (cfiCond381) ?BRET_EXT load(1, XDATA, add(CFA_XSP16, literal(-3)))
        CFI (cfiCond381) DPL0 load(1, XDATA, add(CFA_XSP16, literal(-2)))
        CFI (cfiCond381) DPH0 load(1, XDATA, add(CFA_XSP16, literal(-1)))
        CFI (cfiCond381) CFA_SP SP+0
        CFI (cfiCond381) CFA_XSP16 add(XSP16, 21)
        CFI Block cfiCond382 Using cfiCommon0
        CFI (cfiCond382) NoFunction
        CFI (cfiCond382) Conditional ??CrossCallReturnLabel_184, ??CrossCallReturnLabel_150, ??CrossCallReturnLabel_146
        CFI (cfiCond382) R6 load(1, XDATA, add(CFA_XSP16, literal(-16)))
        CFI (cfiCond382) VB load(1, XDATA, add(CFA_XSP16, literal(-15)))
        CFI (cfiCond382) V0 load(1, XDATA, add(CFA_XSP16, literal(-14)))
        CFI (cfiCond382) V1 load(1, XDATA, add(CFA_XSP16, literal(-13)))
        CFI (cfiCond382) V2 load(1, XDATA, add(CFA_XSP16, literal(-12)))
        CFI (cfiCond382) V3 load(1, XDATA, add(CFA_XSP16, literal(-11)))
        CFI (cfiCond382) V4 load(1, XDATA, add(CFA_XSP16, literal(-10)))
        CFI (cfiCond382) V5 load(1, XDATA, add(CFA_XSP16, literal(-9)))
        CFI (cfiCond382) V6 load(1, XDATA, add(CFA_XSP16, literal(-8)))
        CFI (cfiCond382) V7 load(1, XDATA, add(CFA_XSP16, literal(-7)))
        CFI (cfiCond382) R7 load(1, XDATA, add(CFA_XSP16, literal(-6)))
        CFI (cfiCond382) ?RET_LOW load(1, XDATA, add(CFA_XSP16, literal(-5)))
        CFI (cfiCond382) ?RET_HIGH load(1, XDATA, add(CFA_XSP16, literal(-4)))
        CFI (cfiCond382) ?BRET_EXT load(1, XDATA, add(CFA_XSP16, literal(-3)))
        CFI (cfiCond382) DPL0 load(1, XDATA, add(CFA_XSP16, literal(-2)))
        CFI (cfiCond382) DPH0 load(1, XDATA, add(CFA_XSP16, literal(-1)))
        CFI (cfiCond382) CFA_SP SP+0
        CFI (cfiCond382) CFA_XSP16 add(XSP16, 25)
        CFI Block cfiCond383 Using cfiCommon0
        CFI (cfiCond383) NoFunction
        CFI (cfiCond383) Conditional ??CrossCallReturnLabel_184, ??CrossCallReturnLabel_150, ??CrossCallReturnLabel_147
        CFI (cfiCond383) R6 load(1, XDATA, add(CFA_XSP16, literal(-16)))
        CFI (cfiCond383) VB load(1, XDATA, add(CFA_XSP16, literal(-15)))
        CFI (cfiCond383) V0 load(1, XDATA, add(CFA_XSP16, literal(-14)))
        CFI (cfiCond383) V1 load(1, XDATA, add(CFA_XSP16, literal(-13)))
        CFI (cfiCond383) V2 load(1, XDATA, add(CFA_XSP16, literal(-12)))
        CFI (cfiCond383) V3 load(1, XDATA, add(CFA_XSP16, literal(-11)))
        CFI (cfiCond383) V4 load(1, XDATA, add(CFA_XSP16, literal(-10)))
        CFI (cfiCond383) V5 load(1, XDATA, add(CFA_XSP16, literal(-9)))
        CFI (cfiCond383) V6 load(1, XDATA, add(CFA_XSP16, literal(-8)))
        CFI (cfiCond383) V7 load(1, XDATA, add(CFA_XSP16, literal(-7)))
        CFI (cfiCond383) R7 load(1, XDATA, add(CFA_XSP16, literal(-6)))
        CFI (cfiCond383) ?RET_LOW load(1, XDATA, add(CFA_XSP16, literal(-5)))
        CFI (cfiCond383) ?RET_HIGH load(1, XDATA, add(CFA_XSP16, literal(-4)))
        CFI (cfiCond383) ?BRET_EXT load(1, XDATA, add(CFA_XSP16, literal(-3)))
        CFI (cfiCond383) DPL0 load(1, XDATA, add(CFA_XSP16, literal(-2)))
        CFI (cfiCond383) DPH0 load(1, XDATA, add(CFA_XSP16, literal(-1)))
        CFI (cfiCond383) CFA_SP SP+0
        CFI (cfiCond383) CFA_XSP16 add(XSP16, 25)
        CFI Block cfiCond384 Using cfiCommon0
        CFI (cfiCond384) NoFunction
        CFI (cfiCond384) Conditional ??CrossCallReturnLabel_184, ??CrossCallReturnLabel_150, ??CrossCallReturnLabel_145
        CFI (cfiCond384) R6 load(1, XDATA, add(CFA_XSP16, literal(-16)))
        CFI (cfiCond384) VB load(1, XDATA, add(CFA_XSP16, literal(-15)))
        CFI (cfiCond384) V0 load(1, XDATA, add(CFA_XSP16, literal(-14)))
        CFI (cfiCond384) V1 load(1, XDATA, add(CFA_XSP16, literal(-13)))
        CFI (cfiCond384) V2 load(1, XDATA, add(CFA_XSP16, literal(-12)))
        CFI (cfiCond384) V3 load(1, XDATA, add(CFA_XSP16, literal(-11)))
        CFI (cfiCond384) V4 load(1, XDATA, add(CFA_XSP16, literal(-10)))
        CFI (cfiCond384) V5 load(1, XDATA, add(CFA_XSP16, literal(-9)))
        CFI (cfiCond384) V6 load(1, XDATA, add(CFA_XSP16, literal(-8)))
        CFI (cfiCond384) V7 load(1, XDATA, add(CFA_XSP16, literal(-7)))
        CFI (cfiCond384) R7 load(1, XDATA, add(CFA_XSP16, literal(-6)))
        CFI (cfiCond384) ?RET_LOW load(1, XDATA, add(CFA_XSP16, literal(-5)))
        CFI (cfiCond384) ?RET_HIGH load(1, XDATA, add(CFA_XSP16, literal(-4)))
        CFI (cfiCond384) ?BRET_EXT load(1, XDATA, add(CFA_XSP16, literal(-3)))
        CFI (cfiCond384) DPL0 load(1, XDATA, add(CFA_XSP16, literal(-2)))
        CFI (cfiCond384) DPH0 load(1, XDATA, add(CFA_XSP16, literal(-1)))
        CFI (cfiCond384) CFA_SP SP+0
        CFI (cfiCond384) CFA_XSP16 add(XSP16, 21)
        CFI Block cfiCond385 Using cfiCommon0
        CFI (cfiCond385) NoFunction
        CFI (cfiCond385) Conditional ??CrossCallReturnLabel_184, ??CrossCallReturnLabel_148
        CFI (cfiCond385) R6 load(1, XDATA, add(CFA_XSP16, literal(-16)))
        CFI (cfiCond385) VB load(1, XDATA, add(CFA_XSP16, literal(-15)))
        CFI (cfiCond385) V0 load(1, XDATA, add(CFA_XSP16, literal(-14)))
        CFI (cfiCond385) V1 load(1, XDATA, add(CFA_XSP16, literal(-13)))
        CFI (cfiCond385) V2 load(1, XDATA, add(CFA_XSP16, literal(-12)))
        CFI (cfiCond385) V3 load(1, XDATA, add(CFA_XSP16, literal(-11)))
        CFI (cfiCond385) V4 load(1, XDATA, add(CFA_XSP16, literal(-10)))
        CFI (cfiCond385) V5 load(1, XDATA, add(CFA_XSP16, literal(-9)))
        CFI (cfiCond385) V6 load(1, XDATA, add(CFA_XSP16, literal(-8)))
        CFI (cfiCond385) V7 load(1, XDATA, add(CFA_XSP16, literal(-7)))
        CFI (cfiCond385) R7 load(1, XDATA, add(CFA_XSP16, literal(-6)))
        CFI (cfiCond385) ?RET_LOW load(1, XDATA, add(CFA_XSP16, literal(-5)))
        CFI (cfiCond385) ?RET_HIGH load(1, XDATA, add(CFA_XSP16, literal(-4)))
        CFI (cfiCond385) ?BRET_EXT load(1, XDATA, add(CFA_XSP16, literal(-3)))
        CFI (cfiCond385) DPL0 load(1, XDATA, add(CFA_XSP16, literal(-2)))
        CFI (cfiCond385) DPH0 load(1, XDATA, add(CFA_XSP16, literal(-1)))
        CFI (cfiCond385) CFA_SP SP+0
        CFI (cfiCond385) CFA_XSP16 add(XSP16, 21)
        CFI Block cfiCond386 Using cfiCommon0
        CFI (cfiCond386) NoFunction
        CFI (cfiCond386) Conditional ??CrossCallReturnLabel_184, ??CrossCallReturnLabel_149, ??CrossCallReturnLabel_30
        CFI (cfiCond386) R6 load(1, XDATA, add(CFA_XSP16, literal(-16)))
        CFI (cfiCond386) VB load(1, XDATA, add(CFA_XSP16, literal(-15)))
        CFI (cfiCond386) V0 load(1, XDATA, add(CFA_XSP16, literal(-14)))
        CFI (cfiCond386) V1 load(1, XDATA, add(CFA_XSP16, literal(-13)))
        CFI (cfiCond386) V2 load(1, XDATA, add(CFA_XSP16, literal(-12)))
        CFI (cfiCond386) V3 load(1, XDATA, add(CFA_XSP16, literal(-11)))
        CFI (cfiCond386) V4 load(1, XDATA, add(CFA_XSP16, literal(-10)))
        CFI (cfiCond386) V5 load(1, XDATA, add(CFA_XSP16, literal(-9)))
        CFI (cfiCond386) V6 load(1, XDATA, add(CFA_XSP16, literal(-8)))
        CFI (cfiCond386) V7 load(1, XDATA, add(CFA_XSP16, literal(-7)))
        CFI (cfiCond386) R7 load(1, XDATA, add(CFA_XSP16, literal(-6)))
        CFI (cfiCond386) ?RET_LOW load(1, XDATA, add(CFA_XSP16, literal(-5)))
        CFI (cfiCond386) ?RET_HIGH load(1, XDATA, add(CFA_XSP16, literal(-4)))
        CFI (cfiCond386) ?BRET_EXT load(1, XDATA, add(CFA_XSP16, literal(-3)))
        CFI (cfiCond386) DPL0 load(1, XDATA, add(CFA_XSP16, literal(-2)))
        CFI (cfiCond386) DPH0 load(1, XDATA, add(CFA_XSP16, literal(-1)))
        CFI (cfiCond386) CFA_SP SP+0
        CFI (cfiCond386) CFA_XSP16 add(XSP16, 25)
        CFI Block cfiCond387 Using cfiCommon0
        CFI (cfiCond387) NoFunction
        CFI (cfiCond387) Conditional ??CrossCallReturnLabel_184, ??CrossCallReturnLabel_149, ??CrossCallReturnLabel_31
        CFI (cfiCond387) R6 load(1, XDATA, add(CFA_XSP16, literal(-16)))
        CFI (cfiCond387) VB load(1, XDATA, add(CFA_XSP16, literal(-15)))
        CFI (cfiCond387) V0 load(1, XDATA, add(CFA_XSP16, literal(-14)))
        CFI (cfiCond387) V1 load(1, XDATA, add(CFA_XSP16, literal(-13)))
        CFI (cfiCond387) V2 load(1, XDATA, add(CFA_XSP16, literal(-12)))
        CFI (cfiCond387) V3 load(1, XDATA, add(CFA_XSP16, literal(-11)))
        CFI (cfiCond387) V4 load(1, XDATA, add(CFA_XSP16, literal(-10)))
        CFI (cfiCond387) V5 load(1, XDATA, add(CFA_XSP16, literal(-9)))
        CFI (cfiCond387) V6 load(1, XDATA, add(CFA_XSP16, literal(-8)))
        CFI (cfiCond387) V7 load(1, XDATA, add(CFA_XSP16, literal(-7)))
        CFI (cfiCond387) R7 load(1, XDATA, add(CFA_XSP16, literal(-6)))
        CFI (cfiCond387) ?RET_LOW load(1, XDATA, add(CFA_XSP16, literal(-5)))
        CFI (cfiCond387) ?RET_HIGH load(1, XDATA, add(CFA_XSP16, literal(-4)))
        CFI (cfiCond387) ?BRET_EXT load(1, XDATA, add(CFA_XSP16, literal(-3)))
        CFI (cfiCond387) DPL0 load(1, XDATA, add(CFA_XSP16, literal(-2)))
        CFI (cfiCond387) DPH0 load(1, XDATA, add(CFA_XSP16, literal(-1)))
        CFI (cfiCond387) CFA_SP SP+0
        CFI (cfiCond387) CFA_XSP16 add(XSP16, 21)
        CFI Block cfiCond388 Using cfiCommon0
        CFI (cfiCond388) NoFunction
        CFI (cfiCond388) Conditional ??CrossCallReturnLabel_184, ??CrossCallReturnLabel_149, ??CrossCallReturnLabel_32
        CFI (cfiCond388) R6 load(1, XDATA, add(CFA_XSP16, literal(-16)))
        CFI (cfiCond388) VB load(1, XDATA, add(CFA_XSP16, literal(-15)))
        CFI (cfiCond388) V0 load(1, XDATA, add(CFA_XSP16, literal(-14)))
        CFI (cfiCond388) V1 load(1, XDATA, add(CFA_XSP16, literal(-13)))
        CFI (cfiCond388) V2 load(1, XDATA, add(CFA_XSP16, literal(-12)))
        CFI (cfiCond388) V3 load(1, XDATA, add(CFA_XSP16, literal(-11)))
        CFI (cfiCond388) V4 load(1, XDATA, add(CFA_XSP16, literal(-10)))
        CFI (cfiCond388) V5 load(1, XDATA, add(CFA_XSP16, literal(-9)))
        CFI (cfiCond388) V6 load(1, XDATA, add(CFA_XSP16, literal(-8)))
        CFI (cfiCond388) V7 load(1, XDATA, add(CFA_XSP16, literal(-7)))
        CFI (cfiCond388) R7 load(1, XDATA, add(CFA_XSP16, literal(-6)))
        CFI (cfiCond388) ?RET_LOW load(1, XDATA, add(CFA_XSP16, literal(-5)))
        CFI (cfiCond388) ?RET_HIGH load(1, XDATA, add(CFA_XSP16, literal(-4)))
        CFI (cfiCond388) ?BRET_EXT load(1, XDATA, add(CFA_XSP16, literal(-3)))
        CFI (cfiCond388) DPL0 load(1, XDATA, add(CFA_XSP16, literal(-2)))
        CFI (cfiCond388) DPH0 load(1, XDATA, add(CFA_XSP16, literal(-1)))
        CFI (cfiCond388) CFA_SP SP+0
        CFI (cfiCond388) CFA_XSP16 add(XSP16, 21)
        CFI Block cfiCond389 Using cfiCommon0
        CFI (cfiCond389) NoFunction
        CFI (cfiCond389) Conditional ??CrossCallReturnLabel_183, ??CrossCallReturnLabel_97, ??CrossCallReturnLabel_3
        CFI (cfiCond389) R6 load(1, XDATA, add(CFA_XSP16, literal(-16)))
        CFI (cfiCond389) VB load(1, XDATA, add(CFA_XSP16, literal(-15)))
        CFI (cfiCond389) V0 load(1, XDATA, add(CFA_XSP16, literal(-14)))
        CFI (cfiCond389) V1 load(1, XDATA, add(CFA_XSP16, literal(-13)))
        CFI (cfiCond389) V2 load(1, XDATA, add(CFA_XSP16, literal(-12)))
        CFI (cfiCond389) V3 load(1, XDATA, add(CFA_XSP16, literal(-11)))
        CFI (cfiCond389) V4 load(1, XDATA, add(CFA_XSP16, literal(-10)))
        CFI (cfiCond389) V5 load(1, XDATA, add(CFA_XSP16, literal(-9)))
        CFI (cfiCond389) V6 load(1, XDATA, add(CFA_XSP16, literal(-8)))
        CFI (cfiCond389) V7 load(1, XDATA, add(CFA_XSP16, literal(-7)))
        CFI (cfiCond389) R7 load(1, XDATA, add(CFA_XSP16, literal(-6)))
        CFI (cfiCond389) ?RET_LOW load(1, XDATA, add(CFA_XSP16, literal(-5)))
        CFI (cfiCond389) ?RET_HIGH load(1, XDATA, add(CFA_XSP16, literal(-4)))
        CFI (cfiCond389) ?BRET_EXT load(1, XDATA, add(CFA_XSP16, literal(-3)))
        CFI (cfiCond389) DPL0 load(1, XDATA, add(CFA_XSP16, literal(-2)))
        CFI (cfiCond389) DPH0 load(1, XDATA, add(CFA_XSP16, literal(-1)))
        CFI (cfiCond389) CFA_SP SP+0
        CFI (cfiCond389) CFA_XSP16 add(XSP16, 25)
        CFI Block cfiCond390 Using cfiCommon0
        CFI (cfiCond390) NoFunction
        CFI (cfiCond390) Conditional ??CrossCallReturnLabel_183, ??CrossCallReturnLabel_97, ??CrossCallReturnLabel_4
        CFI (cfiCond390) R6 load(1, XDATA, add(CFA_XSP16, literal(-16)))
        CFI (cfiCond390) VB load(1, XDATA, add(CFA_XSP16, literal(-15)))
        CFI (cfiCond390) V0 load(1, XDATA, add(CFA_XSP16, literal(-14)))
        CFI (cfiCond390) V1 load(1, XDATA, add(CFA_XSP16, literal(-13)))
        CFI (cfiCond390) V2 load(1, XDATA, add(CFA_XSP16, literal(-12)))
        CFI (cfiCond390) V3 load(1, XDATA, add(CFA_XSP16, literal(-11)))
        CFI (cfiCond390) V4 load(1, XDATA, add(CFA_XSP16, literal(-10)))
        CFI (cfiCond390) V5 load(1, XDATA, add(CFA_XSP16, literal(-9)))
        CFI (cfiCond390) V6 load(1, XDATA, add(CFA_XSP16, literal(-8)))
        CFI (cfiCond390) V7 load(1, XDATA, add(CFA_XSP16, literal(-7)))
        CFI (cfiCond390) R7 load(1, XDATA, add(CFA_XSP16, literal(-6)))
        CFI (cfiCond390) ?RET_LOW load(1, XDATA, add(CFA_XSP16, literal(-5)))
        CFI (cfiCond390) ?RET_HIGH load(1, XDATA, add(CFA_XSP16, literal(-4)))
        CFI (cfiCond390) ?BRET_EXT load(1, XDATA, add(CFA_XSP16, literal(-3)))
        CFI (cfiCond390) DPL0 load(1, XDATA, add(CFA_XSP16, literal(-2)))
        CFI (cfiCond390) DPH0 load(1, XDATA, add(CFA_XSP16, literal(-1)))
        CFI (cfiCond390) CFA_SP SP+0
        CFI (cfiCond390) CFA_XSP16 add(XSP16, 25)
        CFI Block cfiCond391 Using cfiCommon0
        CFI (cfiCond391) NoFunction
        CFI (cfiCond391) Conditional ??CrossCallReturnLabel_183, ??CrossCallReturnLabel_97, ??CrossCallReturnLabel_5
        CFI (cfiCond391) R6 load(1, XDATA, add(CFA_XSP16, literal(-16)))
        CFI (cfiCond391) VB load(1, XDATA, add(CFA_XSP16, literal(-15)))
        CFI (cfiCond391) V0 load(1, XDATA, add(CFA_XSP16, literal(-14)))
        CFI (cfiCond391) V1 load(1, XDATA, add(CFA_XSP16, literal(-13)))
        CFI (cfiCond391) V2 load(1, XDATA, add(CFA_XSP16, literal(-12)))
        CFI (cfiCond391) V3 load(1, XDATA, add(CFA_XSP16, literal(-11)))
        CFI (cfiCond391) V4 load(1, XDATA, add(CFA_XSP16, literal(-10)))
        CFI (cfiCond391) V5 load(1, XDATA, add(CFA_XSP16, literal(-9)))
        CFI (cfiCond391) V6 load(1, XDATA, add(CFA_XSP16, literal(-8)))
        CFI (cfiCond391) V7 load(1, XDATA, add(CFA_XSP16, literal(-7)))
        CFI (cfiCond391) R7 load(1, XDATA, add(CFA_XSP16, literal(-6)))
        CFI (cfiCond391) ?RET_LOW load(1, XDATA, add(CFA_XSP16, literal(-5)))
        CFI (cfiCond391) ?RET_HIGH load(1, XDATA, add(CFA_XSP16, literal(-4)))
        CFI (cfiCond391) ?BRET_EXT load(1, XDATA, add(CFA_XSP16, literal(-3)))
        CFI (cfiCond391) DPL0 load(1, XDATA, add(CFA_XSP16, literal(-2)))
        CFI (cfiCond391) DPH0 load(1, XDATA, add(CFA_XSP16, literal(-1)))
        CFI (cfiCond391) CFA_SP SP+0
        CFI (cfiCond391) CFA_XSP16 add(XSP16, 25)
        CFI Block cfiCond392 Using cfiCommon0
        CFI (cfiCond392) NoFunction
        CFI (cfiCond392) Conditional ??CrossCallReturnLabel_183, ??CrossCallReturnLabel_97, ??CrossCallReturnLabel_6
        CFI (cfiCond392) R6 load(1, XDATA, add(CFA_XSP16, literal(-16)))
        CFI (cfiCond392) VB load(1, XDATA, add(CFA_XSP16, literal(-15)))
        CFI (cfiCond392) V0 load(1, XDATA, add(CFA_XSP16, literal(-14)))
        CFI (cfiCond392) V1 load(1, XDATA, add(CFA_XSP16, literal(-13)))
        CFI (cfiCond392) V2 load(1, XDATA, add(CFA_XSP16, literal(-12)))
        CFI (cfiCond392) V3 load(1, XDATA, add(CFA_XSP16, literal(-11)))
        CFI (cfiCond392) V4 load(1, XDATA, add(CFA_XSP16, literal(-10)))
        CFI (cfiCond392) V5 load(1, XDATA, add(CFA_XSP16, literal(-9)))
        CFI (cfiCond392) V6 load(1, XDATA, add(CFA_XSP16, literal(-8)))
        CFI (cfiCond392) V7 load(1, XDATA, add(CFA_XSP16, literal(-7)))
        CFI (cfiCond392) R7 load(1, XDATA, add(CFA_XSP16, literal(-6)))
        CFI (cfiCond392) ?RET_LOW load(1, XDATA, add(CFA_XSP16, literal(-5)))
        CFI (cfiCond392) ?RET_HIGH load(1, XDATA, add(CFA_XSP16, literal(-4)))
        CFI (cfiCond392) ?BRET_EXT load(1, XDATA, add(CFA_XSP16, literal(-3)))
        CFI (cfiCond392) DPL0 load(1, XDATA, add(CFA_XSP16, literal(-2)))
        CFI (cfiCond392) DPH0 load(1, XDATA, add(CFA_XSP16, literal(-1)))
        CFI (cfiCond392) CFA_SP SP+0
        CFI (cfiCond392) CFA_XSP16 add(XSP16, 25)
        CFI Block cfiCond393 Using cfiCommon0
        CFI (cfiCond393) NoFunction
        CFI (cfiCond393) Conditional ??CrossCallReturnLabel_183, ??CrossCallReturnLabel_99, ??CrossCallReturnLabel_33
        CFI (cfiCond393) R6 load(1, XDATA, add(CFA_XSP16, literal(-16)))
        CFI (cfiCond393) VB load(1, XDATA, add(CFA_XSP16, literal(-15)))
        CFI (cfiCond393) V0 load(1, XDATA, add(CFA_XSP16, literal(-14)))
        CFI (cfiCond393) V1 load(1, XDATA, add(CFA_XSP16, literal(-13)))
        CFI (cfiCond393) V2 load(1, XDATA, add(CFA_XSP16, literal(-12)))
        CFI (cfiCond393) V3 load(1, XDATA, add(CFA_XSP16, literal(-11)))
        CFI (cfiCond393) V4 load(1, XDATA, add(CFA_XSP16, literal(-10)))
        CFI (cfiCond393) V5 load(1, XDATA, add(CFA_XSP16, literal(-9)))
        CFI (cfiCond393) V6 load(1, XDATA, add(CFA_XSP16, literal(-8)))
        CFI (cfiCond393) V7 load(1, XDATA, add(CFA_XSP16, literal(-7)))
        CFI (cfiCond393) R7 load(1, XDATA, add(CFA_XSP16, literal(-6)))
        CFI (cfiCond393) ?RET_LOW load(1, XDATA, add(CFA_XSP16, literal(-5)))
        CFI (cfiCond393) ?RET_HIGH load(1, XDATA, add(CFA_XSP16, literal(-4)))
        CFI (cfiCond393) ?BRET_EXT load(1, XDATA, add(CFA_XSP16, literal(-3)))
        CFI (cfiCond393) DPL0 load(1, XDATA, add(CFA_XSP16, literal(-2)))
        CFI (cfiCond393) DPH0 load(1, XDATA, add(CFA_XSP16, literal(-1)))
        CFI (cfiCond393) CFA_SP SP+0
        CFI (cfiCond393) CFA_XSP16 add(XSP16, 25)
        CFI Block cfiCond394 Using cfiCommon0
        CFI (cfiCond394) NoFunction
        CFI (cfiCond394) Conditional ??CrossCallReturnLabel_183, ??CrossCallReturnLabel_99, ??CrossCallReturnLabel_34
        CFI (cfiCond394) R6 load(1, XDATA, add(CFA_XSP16, literal(-16)))
        CFI (cfiCond394) VB load(1, XDATA, add(CFA_XSP16, literal(-15)))
        CFI (cfiCond394) V0 load(1, XDATA, add(CFA_XSP16, literal(-14)))
        CFI (cfiCond394) V1 load(1, XDATA, add(CFA_XSP16, literal(-13)))
        CFI (cfiCond394) V2 load(1, XDATA, add(CFA_XSP16, literal(-12)))
        CFI (cfiCond394) V3 load(1, XDATA, add(CFA_XSP16, literal(-11)))
        CFI (cfiCond394) V4 load(1, XDATA, add(CFA_XSP16, literal(-10)))
        CFI (cfiCond394) V5 load(1, XDATA, add(CFA_XSP16, literal(-9)))
        CFI (cfiCond394) V6 load(1, XDATA, add(CFA_XSP16, literal(-8)))
        CFI (cfiCond394) V7 load(1, XDATA, add(CFA_XSP16, literal(-7)))
        CFI (cfiCond394) R7 load(1, XDATA, add(CFA_XSP16, literal(-6)))
        CFI (cfiCond394) ?RET_LOW load(1, XDATA, add(CFA_XSP16, literal(-5)))
        CFI (cfiCond394) ?RET_HIGH load(1, XDATA, add(CFA_XSP16, literal(-4)))
        CFI (cfiCond394) ?BRET_EXT load(1, XDATA, add(CFA_XSP16, literal(-3)))
        CFI (cfiCond394) DPL0 load(1, XDATA, add(CFA_XSP16, literal(-2)))
        CFI (cfiCond394) DPH0 load(1, XDATA, add(CFA_XSP16, literal(-1)))
        CFI (cfiCond394) CFA_SP SP+0
        CFI (cfiCond394) CFA_XSP16 add(XSP16, 21)
        CFI Block cfiCond395 Using cfiCommon0
        CFI (cfiCond395) NoFunction
        CFI (cfiCond395) Conditional ??CrossCallReturnLabel_183, ??CrossCallReturnLabel_99, ??CrossCallReturnLabel_35
        CFI (cfiCond395) R6 load(1, XDATA, add(CFA_XSP16, literal(-16)))
        CFI (cfiCond395) VB load(1, XDATA, add(CFA_XSP16, literal(-15)))
        CFI (cfiCond395) V0 load(1, XDATA, add(CFA_XSP16, literal(-14)))
        CFI (cfiCond395) V1 load(1, XDATA, add(CFA_XSP16, literal(-13)))
        CFI (cfiCond395) V2 load(1, XDATA, add(CFA_XSP16, literal(-12)))
        CFI (cfiCond395) V3 load(1, XDATA, add(CFA_XSP16, literal(-11)))
        CFI (cfiCond395) V4 load(1, XDATA, add(CFA_XSP16, literal(-10)))
        CFI (cfiCond395) V5 load(1, XDATA, add(CFA_XSP16, literal(-9)))
        CFI (cfiCond395) V6 load(1, XDATA, add(CFA_XSP16, literal(-8)))
        CFI (cfiCond395) V7 load(1, XDATA, add(CFA_XSP16, literal(-7)))
        CFI (cfiCond395) R7 load(1, XDATA, add(CFA_XSP16, literal(-6)))
        CFI (cfiCond395) ?RET_LOW load(1, XDATA, add(CFA_XSP16, literal(-5)))
        CFI (cfiCond395) ?RET_HIGH load(1, XDATA, add(CFA_XSP16, literal(-4)))
        CFI (cfiCond395) ?BRET_EXT load(1, XDATA, add(CFA_XSP16, literal(-3)))
        CFI (cfiCond395) DPL0 load(1, XDATA, add(CFA_XSP16, literal(-2)))
        CFI (cfiCond395) DPH0 load(1, XDATA, add(CFA_XSP16, literal(-1)))
        CFI (cfiCond395) CFA_SP SP+-1
        CFI (cfiCond395) CFA_XSP16 add(XSP16, 21)
        CFI Block cfiCond396 Using cfiCommon0
        CFI (cfiCond396) NoFunction
        CFI (cfiCond396) Conditional ??CrossCallReturnLabel_183, ??CrossCallReturnLabel_98, ??CrossCallReturnLabel_7
        CFI (cfiCond396) R6 load(1, XDATA, add(CFA_XSP16, literal(-16)))
        CFI (cfiCond396) VB load(1, XDATA, add(CFA_XSP16, literal(-15)))
        CFI (cfiCond396) V0 load(1, XDATA, add(CFA_XSP16, literal(-14)))
        CFI (cfiCond396) V1 load(1, XDATA, add(CFA_XSP16, literal(-13)))
        CFI (cfiCond396) V2 load(1, XDATA, add(CFA_XSP16, literal(-12)))
        CFI (cfiCond396) V3 load(1, XDATA, add(CFA_XSP16, literal(-11)))
        CFI (cfiCond396) V4 load(1, XDATA, add(CFA_XSP16, literal(-10)))
        CFI (cfiCond396) V5 load(1, XDATA, add(CFA_XSP16, literal(-9)))
        CFI (cfiCond396) V6 load(1, XDATA, add(CFA_XSP16, literal(-8)))
        CFI (cfiCond396) V7 load(1, XDATA, add(CFA_XSP16, literal(-7)))
        CFI (cfiCond396) R7 load(1, XDATA, add(CFA_XSP16, literal(-6)))
        CFI (cfiCond396) ?RET_LOW load(1, XDATA, add(CFA_XSP16, literal(-5)))
        CFI (cfiCond396) ?RET_HIGH load(1, XDATA, add(CFA_XSP16, literal(-4)))
        CFI (cfiCond396) ?BRET_EXT load(1, XDATA, add(CFA_XSP16, literal(-3)))
        CFI (cfiCond396) DPL0 load(1, XDATA, add(CFA_XSP16, literal(-2)))
        CFI (cfiCond396) DPH0 load(1, XDATA, add(CFA_XSP16, literal(-1)))
        CFI (cfiCond396) CFA_SP SP+0
        CFI (cfiCond396) CFA_XSP16 add(XSP16, 28)
        CFI Block cfiCond397 Using cfiCommon0
        CFI (cfiCond397) NoFunction
        CFI (cfiCond397) Conditional ??CrossCallReturnLabel_183, ??CrossCallReturnLabel_98, ??CrossCallReturnLabel_8
        CFI (cfiCond397) R6 load(1, XDATA, add(CFA_XSP16, literal(-16)))
        CFI (cfiCond397) VB load(1, XDATA, add(CFA_XSP16, literal(-15)))
        CFI (cfiCond397) V0 load(1, XDATA, add(CFA_XSP16, literal(-14)))
        CFI (cfiCond397) V1 load(1, XDATA, add(CFA_XSP16, literal(-13)))
        CFI (cfiCond397) V2 load(1, XDATA, add(CFA_XSP16, literal(-12)))
        CFI (cfiCond397) V3 load(1, XDATA, add(CFA_XSP16, literal(-11)))
        CFI (cfiCond397) V4 load(1, XDATA, add(CFA_XSP16, literal(-10)))
        CFI (cfiCond397) V5 load(1, XDATA, add(CFA_XSP16, literal(-9)))
        CFI (cfiCond397) V6 load(1, XDATA, add(CFA_XSP16, literal(-8)))
        CFI (cfiCond397) V7 load(1, XDATA, add(CFA_XSP16, literal(-7)))
        CFI (cfiCond397) R7 load(1, XDATA, add(CFA_XSP16, literal(-6)))
        CFI (cfiCond397) ?RET_LOW load(1, XDATA, add(CFA_XSP16, literal(-5)))
        CFI (cfiCond397) ?RET_HIGH load(1, XDATA, add(CFA_XSP16, literal(-4)))
        CFI (cfiCond397) ?BRET_EXT load(1, XDATA, add(CFA_XSP16, literal(-3)))
        CFI (cfiCond397) DPL0 load(1, XDATA, add(CFA_XSP16, literal(-2)))
        CFI (cfiCond397) DPH0 load(1, XDATA, add(CFA_XSP16, literal(-1)))
        CFI (cfiCond397) CFA_SP SP+0
        CFI (cfiCond397) CFA_XSP16 add(XSP16, 21)
        CFI Block cfiCond398 Using cfiCommon0
        CFI (cfiCond398) NoFunction
        CFI (cfiCond398) Conditional ??CrossCallReturnLabel_183, ??CrossCallReturnLabel_98, ??CrossCallReturnLabel_9
        CFI (cfiCond398) R6 load(1, XDATA, add(CFA_XSP16, literal(-16)))
        CFI (cfiCond398) VB load(1, XDATA, add(CFA_XSP16, literal(-15)))
        CFI (cfiCond398) V0 load(1, XDATA, add(CFA_XSP16, literal(-14)))
        CFI (cfiCond398) V1 load(1, XDATA, add(CFA_XSP16, literal(-13)))
        CFI (cfiCond398) V2 load(1, XDATA, add(CFA_XSP16, literal(-12)))
        CFI (cfiCond398) V3 load(1, XDATA, add(CFA_XSP16, literal(-11)))
        CFI (cfiCond398) V4 load(1, XDATA, add(CFA_XSP16, literal(-10)))
        CFI (cfiCond398) V5 load(1, XDATA, add(CFA_XSP16, literal(-9)))
        CFI (cfiCond398) V6 load(1, XDATA, add(CFA_XSP16, literal(-8)))
        CFI (cfiCond398) V7 load(1, XDATA, add(CFA_XSP16, literal(-7)))
        CFI (cfiCond398) R7 load(1, XDATA, add(CFA_XSP16, literal(-6)))
        CFI (cfiCond398) ?RET_LOW load(1, XDATA, add(CFA_XSP16, literal(-5)))
        CFI (cfiCond398) ?RET_HIGH load(1, XDATA, add(CFA_XSP16, literal(-4)))
        CFI (cfiCond398) ?BRET_EXT load(1, XDATA, add(CFA_XSP16, literal(-3)))
        CFI (cfiCond398) DPL0 load(1, XDATA, add(CFA_XSP16, literal(-2)))
        CFI (cfiCond398) DPH0 load(1, XDATA, add(CFA_XSP16, literal(-1)))
        CFI (cfiCond398) CFA_SP SP+0
        CFI (cfiCond398) CFA_XSP16 add(XSP16, 21)
        CFI Block cfiCond399 Using cfiCommon0
        CFI (cfiCond399) NoFunction
        CFI (cfiCond399) Conditional ??CrossCallReturnLabel_182, ??CrossCallReturnLabel_92, ??CrossCallReturnLabel_12
        CFI (cfiCond399) R6 load(1, XDATA, add(CFA_XSP16, literal(-16)))
        CFI (cfiCond399) VB load(1, XDATA, add(CFA_XSP16, literal(-15)))
        CFI (cfiCond399) V0 load(1, XDATA, add(CFA_XSP16, literal(-14)))
        CFI (cfiCond399) V1 load(1, XDATA, add(CFA_XSP16, literal(-13)))
        CFI (cfiCond399) V2 load(1, XDATA, add(CFA_XSP16, literal(-12)))
        CFI (cfiCond399) V3 load(1, XDATA, add(CFA_XSP16, literal(-11)))
        CFI (cfiCond399) V4 load(1, XDATA, add(CFA_XSP16, literal(-10)))
        CFI (cfiCond399) V5 load(1, XDATA, add(CFA_XSP16, literal(-9)))
        CFI (cfiCond399) V6 load(1, XDATA, add(CFA_XSP16, literal(-8)))
        CFI (cfiCond399) V7 load(1, XDATA, add(CFA_XSP16, literal(-7)))
        CFI (cfiCond399) R7 load(1, XDATA, add(CFA_XSP16, literal(-6)))
        CFI (cfiCond399) ?RET_LOW load(1, XDATA, add(CFA_XSP16, literal(-5)))
        CFI (cfiCond399) ?RET_HIGH load(1, XDATA, add(CFA_XSP16, literal(-4)))
        CFI (cfiCond399) ?BRET_EXT load(1, XDATA, add(CFA_XSP16, literal(-3)))
        CFI (cfiCond399) DPL0 load(1, XDATA, add(CFA_XSP16, literal(-2)))
        CFI (cfiCond399) DPH0 load(1, XDATA, add(CFA_XSP16, literal(-1)))
        CFI (cfiCond399) CFA_SP SP+0
        CFI (cfiCond399) CFA_XSP16 add(XSP16, 25)
        CFI Block cfiCond400 Using cfiCommon0
        CFI (cfiCond400) NoFunction
        CFI (cfiCond400) Conditional ??CrossCallReturnLabel_182, ??CrossCallReturnLabel_92, ??CrossCallReturnLabel_13
        CFI (cfiCond400) R6 load(1, XDATA, add(CFA_XSP16, literal(-16)))
        CFI (cfiCond400) VB load(1, XDATA, add(CFA_XSP16, literal(-15)))
        CFI (cfiCond400) V0 load(1, XDATA, add(CFA_XSP16, literal(-14)))
        CFI (cfiCond400) V1 load(1, XDATA, add(CFA_XSP16, literal(-13)))
        CFI (cfiCond400) V2 load(1, XDATA, add(CFA_XSP16, literal(-12)))
        CFI (cfiCond400) V3 load(1, XDATA, add(CFA_XSP16, literal(-11)))
        CFI (cfiCond400) V4 load(1, XDATA, add(CFA_XSP16, literal(-10)))
        CFI (cfiCond400) V5 load(1, XDATA, add(CFA_XSP16, literal(-9)))
        CFI (cfiCond400) V6 load(1, XDATA, add(CFA_XSP16, literal(-8)))
        CFI (cfiCond400) V7 load(1, XDATA, add(CFA_XSP16, literal(-7)))
        CFI (cfiCond400) R7 load(1, XDATA, add(CFA_XSP16, literal(-6)))
        CFI (cfiCond400) ?RET_LOW load(1, XDATA, add(CFA_XSP16, literal(-5)))
        CFI (cfiCond400) ?RET_HIGH load(1, XDATA, add(CFA_XSP16, literal(-4)))
        CFI (cfiCond400) ?BRET_EXT load(1, XDATA, add(CFA_XSP16, literal(-3)))
        CFI (cfiCond400) DPL0 load(1, XDATA, add(CFA_XSP16, literal(-2)))
        CFI (cfiCond400) DPH0 load(1, XDATA, add(CFA_XSP16, literal(-1)))
        CFI (cfiCond400) CFA_SP SP+0
        CFI (cfiCond400) CFA_XSP16 add(XSP16, 25)
        CFI Block cfiCond401 Using cfiCommon0
        CFI (cfiCond401) NoFunction
        CFI (cfiCond401) Conditional ??CrossCallReturnLabel_182, ??CrossCallReturnLabel_93, ??CrossCallReturnLabel_16
        CFI (cfiCond401) R6 load(1, XDATA, add(CFA_XSP16, literal(-16)))
        CFI (cfiCond401) VB load(1, XDATA, add(CFA_XSP16, literal(-15)))
        CFI (cfiCond401) V0 load(1, XDATA, add(CFA_XSP16, literal(-14)))
        CFI (cfiCond401) V1 load(1, XDATA, add(CFA_XSP16, literal(-13)))
        CFI (cfiCond401) V2 load(1, XDATA, add(CFA_XSP16, literal(-12)))
        CFI (cfiCond401) V3 load(1, XDATA, add(CFA_XSP16, literal(-11)))
        CFI (cfiCond401) V4 load(1, XDATA, add(CFA_XSP16, literal(-10)))
        CFI (cfiCond401) V5 load(1, XDATA, add(CFA_XSP16, literal(-9)))
        CFI (cfiCond401) V6 load(1, XDATA, add(CFA_XSP16, literal(-8)))
        CFI (cfiCond401) V7 load(1, XDATA, add(CFA_XSP16, literal(-7)))
        CFI (cfiCond401) R7 load(1, XDATA, add(CFA_XSP16, literal(-6)))
        CFI (cfiCond401) ?RET_LOW load(1, XDATA, add(CFA_XSP16, literal(-5)))
        CFI (cfiCond401) ?RET_HIGH load(1, XDATA, add(CFA_XSP16, literal(-4)))
        CFI (cfiCond401) ?BRET_EXT load(1, XDATA, add(CFA_XSP16, literal(-3)))
        CFI (cfiCond401) DPL0 load(1, XDATA, add(CFA_XSP16, literal(-2)))
        CFI (cfiCond401) DPH0 load(1, XDATA, add(CFA_XSP16, literal(-1)))
        CFI (cfiCond401) CFA_SP SP+0
        CFI (cfiCond401) CFA_XSP16 add(XSP16, 21)
        CFI Block cfiCond402 Using cfiCommon0
        CFI (cfiCond402) NoFunction
        CFI (cfiCond402) Conditional ??CrossCallReturnLabel_182, ??CrossCallReturnLabel_93, ??CrossCallReturnLabel_17
        CFI (cfiCond402) R6 load(1, XDATA, add(CFA_XSP16, literal(-16)))
        CFI (cfiCond402) VB load(1, XDATA, add(CFA_XSP16, literal(-15)))
        CFI (cfiCond402) V0 load(1, XDATA, add(CFA_XSP16, literal(-14)))
        CFI (cfiCond402) V1 load(1, XDATA, add(CFA_XSP16, literal(-13)))
        CFI (cfiCond402) V2 load(1, XDATA, add(CFA_XSP16, literal(-12)))
        CFI (cfiCond402) V3 load(1, XDATA, add(CFA_XSP16, literal(-11)))
        CFI (cfiCond402) V4 load(1, XDATA, add(CFA_XSP16, literal(-10)))
        CFI (cfiCond402) V5 load(1, XDATA, add(CFA_XSP16, literal(-9)))
        CFI (cfiCond402) V6 load(1, XDATA, add(CFA_XSP16, literal(-8)))
        CFI (cfiCond402) V7 load(1, XDATA, add(CFA_XSP16, literal(-7)))
        CFI (cfiCond402) R7 load(1, XDATA, add(CFA_XSP16, literal(-6)))
        CFI (cfiCond402) ?RET_LOW load(1, XDATA, add(CFA_XSP16, literal(-5)))
        CFI (cfiCond402) ?RET_HIGH load(1, XDATA, add(CFA_XSP16, literal(-4)))
        CFI (cfiCond402) ?BRET_EXT load(1, XDATA, add(CFA_XSP16, literal(-3)))
        CFI (cfiCond402) DPL0 load(1, XDATA, add(CFA_XSP16, literal(-2)))
        CFI (cfiCond402) DPH0 load(1, XDATA, add(CFA_XSP16, literal(-1)))
        CFI (cfiCond402) CFA_SP SP+0
        CFI (cfiCond402) CFA_XSP16 add(XSP16, 21)
        CFI Block cfiCond403 Using cfiCommon0
        CFI (cfiCond403) NoFunction
        CFI (cfiCond403) Conditional ??CrossCallReturnLabel_182, ??CrossCallReturnLabel_94, ??CrossCallReturnLabel_18
        CFI (cfiCond403) R6 load(1, XDATA, add(CFA_XSP16, literal(-16)))
        CFI (cfiCond403) VB load(1, XDATA, add(CFA_XSP16, literal(-15)))
        CFI (cfiCond403) V0 load(1, XDATA, add(CFA_XSP16, literal(-14)))
        CFI (cfiCond403) V1 load(1, XDATA, add(CFA_XSP16, literal(-13)))
        CFI (cfiCond403) V2 load(1, XDATA, add(CFA_XSP16, literal(-12)))
        CFI (cfiCond403) V3 load(1, XDATA, add(CFA_XSP16, literal(-11)))
        CFI (cfiCond403) V4 load(1, XDATA, add(CFA_XSP16, literal(-10)))
        CFI (cfiCond403) V5 load(1, XDATA, add(CFA_XSP16, literal(-9)))
        CFI (cfiCond403) V6 load(1, XDATA, add(CFA_XSP16, literal(-8)))
        CFI (cfiCond403) V7 load(1, XDATA, add(CFA_XSP16, literal(-7)))
        CFI (cfiCond403) R7 load(1, XDATA, add(CFA_XSP16, literal(-6)))
        CFI (cfiCond403) ?RET_LOW load(1, XDATA, add(CFA_XSP16, literal(-5)))
        CFI (cfiCond403) ?RET_HIGH load(1, XDATA, add(CFA_XSP16, literal(-4)))
        CFI (cfiCond403) ?BRET_EXT load(1, XDATA, add(CFA_XSP16, literal(-3)))
        CFI (cfiCond403) DPL0 load(1, XDATA, add(CFA_XSP16, literal(-2)))
        CFI (cfiCond403) DPH0 load(1, XDATA, add(CFA_XSP16, literal(-1)))
        CFI (cfiCond403) CFA_SP SP+0
        CFI (cfiCond403) CFA_XSP16 add(XSP16, 21)
        CFI Block cfiCond404 Using cfiCommon0
        CFI (cfiCond404) NoFunction
        CFI (cfiCond404) Conditional ??CrossCallReturnLabel_182, ??CrossCallReturnLabel_94, ??CrossCallReturnLabel_19
        CFI (cfiCond404) R6 load(1, XDATA, add(CFA_XSP16, literal(-16)))
        CFI (cfiCond404) VB load(1, XDATA, add(CFA_XSP16, literal(-15)))
        CFI (cfiCond404) V0 load(1, XDATA, add(CFA_XSP16, literal(-14)))
        CFI (cfiCond404) V1 load(1, XDATA, add(CFA_XSP16, literal(-13)))
        CFI (cfiCond404) V2 load(1, XDATA, add(CFA_XSP16, literal(-12)))
        CFI (cfiCond404) V3 load(1, XDATA, add(CFA_XSP16, literal(-11)))
        CFI (cfiCond404) V4 load(1, XDATA, add(CFA_XSP16, literal(-10)))
        CFI (cfiCond404) V5 load(1, XDATA, add(CFA_XSP16, literal(-9)))
        CFI (cfiCond404) V6 load(1, XDATA, add(CFA_XSP16, literal(-8)))
        CFI (cfiCond404) V7 load(1, XDATA, add(CFA_XSP16, literal(-7)))
        CFI (cfiCond404) R7 load(1, XDATA, add(CFA_XSP16, literal(-6)))
        CFI (cfiCond404) ?RET_LOW load(1, XDATA, add(CFA_XSP16, literal(-5)))
        CFI (cfiCond404) ?RET_HIGH load(1, XDATA, add(CFA_XSP16, literal(-4)))
        CFI (cfiCond404) ?BRET_EXT load(1, XDATA, add(CFA_XSP16, literal(-3)))
        CFI (cfiCond404) DPL0 load(1, XDATA, add(CFA_XSP16, literal(-2)))
        CFI (cfiCond404) DPH0 load(1, XDATA, add(CFA_XSP16, literal(-1)))
        CFI (cfiCond404) CFA_SP SP+0
        CFI (cfiCond404) CFA_XSP16 add(XSP16, 21)
        CFI Block cfiCond405 Using cfiCommon0
        CFI (cfiCond405) NoFunction
        CFI (cfiCond405) Conditional ??CrossCallReturnLabel_182, ??CrossCallReturnLabel_94, ??CrossCallReturnLabel_20
        CFI (cfiCond405) R6 load(1, XDATA, add(CFA_XSP16, literal(-16)))
        CFI (cfiCond405) VB load(1, XDATA, add(CFA_XSP16, literal(-15)))
        CFI (cfiCond405) V0 load(1, XDATA, add(CFA_XSP16, literal(-14)))
        CFI (cfiCond405) V1 load(1, XDATA, add(CFA_XSP16, literal(-13)))
        CFI (cfiCond405) V2 load(1, XDATA, add(CFA_XSP16, literal(-12)))
        CFI (cfiCond405) V3 load(1, XDATA, add(CFA_XSP16, literal(-11)))
        CFI (cfiCond405) V4 load(1, XDATA, add(CFA_XSP16, literal(-10)))
        CFI (cfiCond405) V5 load(1, XDATA, add(CFA_XSP16, literal(-9)))
        CFI (cfiCond405) V6 load(1, XDATA, add(CFA_XSP16, literal(-8)))
        CFI (cfiCond405) V7 load(1, XDATA, add(CFA_XSP16, literal(-7)))
        CFI (cfiCond405) R7 load(1, XDATA, add(CFA_XSP16, literal(-6)))
        CFI (cfiCond405) ?RET_LOW load(1, XDATA, add(CFA_XSP16, literal(-5)))
        CFI (cfiCond405) ?RET_HIGH load(1, XDATA, add(CFA_XSP16, literal(-4)))
        CFI (cfiCond405) ?BRET_EXT load(1, XDATA, add(CFA_XSP16, literal(-3)))
        CFI (cfiCond405) DPL0 load(1, XDATA, add(CFA_XSP16, literal(-2)))
        CFI (cfiCond405) DPH0 load(1, XDATA, add(CFA_XSP16, literal(-1)))
        CFI (cfiCond405) CFA_SP SP+0
        CFI (cfiCond405) CFA_XSP16 add(XSP16, 17)
        CFI Block cfiPicker406 Using cfiCommon1
        CFI (cfiPicker406) NoFunction
        CFI (cfiPicker406) Picker
        INC     DPTR
        MOVX    A,@DPTR
        MOV     DPH,A
        MOV     DPL,R0
        RET
        CFI EndBlock cfiCond380
        CFI EndBlock cfiCond381
        CFI EndBlock cfiCond382
        CFI EndBlock cfiCond383
        CFI EndBlock cfiCond384
        CFI EndBlock cfiCond385
        CFI EndBlock cfiCond386
        CFI EndBlock cfiCond387
        CFI EndBlock cfiCond388
        CFI EndBlock cfiCond389
        CFI EndBlock cfiCond390
        CFI EndBlock cfiCond391
        CFI EndBlock cfiCond392
        CFI EndBlock cfiCond393
        CFI EndBlock cfiCond394
        CFI EndBlock cfiCond395
        CFI EndBlock cfiCond396
        CFI EndBlock cfiCond397
        CFI EndBlock cfiCond398
        CFI EndBlock cfiCond399
        CFI EndBlock cfiCond400
        CFI EndBlock cfiCond401
        CFI EndBlock cfiCond402
        CFI EndBlock cfiCond403
        CFI EndBlock cfiCond404
        CFI EndBlock cfiCond405
        CFI EndBlock cfiPicker406

        RSEG BANKED_CODE:CODE:NOROOT(0)
?Subroutine18:
        CFI Block cfiCond407 Using cfiCommon0
        CFI NoFunction
        CFI Conditional ??CrossCallReturnLabel_30
        CFI R6 load(1, XDATA, add(CFA_XSP16, literal(-16)))
        CFI VB load(1, XDATA, add(CFA_XSP16, literal(-15)))
        CFI V0 load(1, XDATA, add(CFA_XSP16, literal(-14)))
        CFI V1 load(1, XDATA, add(CFA_XSP16, literal(-13)))
        CFI V2 load(1, XDATA, add(CFA_XSP16, literal(-12)))
        CFI V3 load(1, XDATA, add(CFA_XSP16, literal(-11)))
        CFI V4 load(1, XDATA, add(CFA_XSP16, literal(-10)))
        CFI V5 load(1, XDATA, add(CFA_XSP16, literal(-9)))
        CFI V6 load(1, XDATA, add(CFA_XSP16, literal(-8)))
        CFI V7 load(1, XDATA, add(CFA_XSP16, literal(-7)))
        CFI R7 load(1, XDATA, add(CFA_XSP16, literal(-6)))
        CFI ?RET_LOW load(1, XDATA, add(CFA_XSP16, literal(-5)))
        CFI ?RET_HIGH load(1, XDATA, add(CFA_XSP16, literal(-4)))
        CFI ?BRET_EXT load(1, XDATA, add(CFA_XSP16, literal(-3)))
        CFI DPL0 load(1, XDATA, add(CFA_XSP16, literal(-2)))
        CFI DPH0 load(1, XDATA, add(CFA_XSP16, literal(-1)))
        CFI CFA_SP SP+0
        CFI CFA_XSP16 add(XSP16, 25)
        CFI Block cfiCond408 Using cfiCommon0
        CFI (cfiCond408) NoFunction
        CFI (cfiCond408) Conditional ??CrossCallReturnLabel_31
        CFI (cfiCond408) R6 load(1, XDATA, add(CFA_XSP16, literal(-16)))
        CFI (cfiCond408) VB load(1, XDATA, add(CFA_XSP16, literal(-15)))
        CFI (cfiCond408) V0 load(1, XDATA, add(CFA_XSP16, literal(-14)))
        CFI (cfiCond408) V1 load(1, XDATA, add(CFA_XSP16, literal(-13)))
        CFI (cfiCond408) V2 load(1, XDATA, add(CFA_XSP16, literal(-12)))
        CFI (cfiCond408) V3 load(1, XDATA, add(CFA_XSP16, literal(-11)))
        CFI (cfiCond408) V4 load(1, XDATA, add(CFA_XSP16, literal(-10)))
        CFI (cfiCond408) V5 load(1, XDATA, add(CFA_XSP16, literal(-9)))
        CFI (cfiCond408) V6 load(1, XDATA, add(CFA_XSP16, literal(-8)))
        CFI (cfiCond408) V7 load(1, XDATA, add(CFA_XSP16, literal(-7)))
        CFI (cfiCond408) R7 load(1, XDATA, add(CFA_XSP16, literal(-6)))
        CFI (cfiCond408) ?RET_LOW load(1, XDATA, add(CFA_XSP16, literal(-5)))
        CFI (cfiCond408) ?RET_HIGH load(1, XDATA, add(CFA_XSP16, literal(-4)))
        CFI (cfiCond408) ?BRET_EXT load(1, XDATA, add(CFA_XSP16, literal(-3)))
        CFI (cfiCond408) DPL0 load(1, XDATA, add(CFA_XSP16, literal(-2)))
        CFI (cfiCond408) DPH0 load(1, XDATA, add(CFA_XSP16, literal(-1)))
        CFI (cfiCond408) CFA_SP SP+0
        CFI (cfiCond408) CFA_XSP16 add(XSP16, 21)
        CFI Block cfiCond409 Using cfiCommon0
        CFI (cfiCond409) NoFunction
        CFI (cfiCond409) Conditional ??CrossCallReturnLabel_32
        CFI (cfiCond409) R6 load(1, XDATA, add(CFA_XSP16, literal(-16)))
        CFI (cfiCond409) VB load(1, XDATA, add(CFA_XSP16, literal(-15)))
        CFI (cfiCond409) V0 load(1, XDATA, add(CFA_XSP16, literal(-14)))
        CFI (cfiCond409) V1 load(1, XDATA, add(CFA_XSP16, literal(-13)))
        CFI (cfiCond409) V2 load(1, XDATA, add(CFA_XSP16, literal(-12)))
        CFI (cfiCond409) V3 load(1, XDATA, add(CFA_XSP16, literal(-11)))
        CFI (cfiCond409) V4 load(1, XDATA, add(CFA_XSP16, literal(-10)))
        CFI (cfiCond409) V5 load(1, XDATA, add(CFA_XSP16, literal(-9)))
        CFI (cfiCond409) V6 load(1, XDATA, add(CFA_XSP16, literal(-8)))
        CFI (cfiCond409) V7 load(1, XDATA, add(CFA_XSP16, literal(-7)))
        CFI (cfiCond409) R7 load(1, XDATA, add(CFA_XSP16, literal(-6)))
        CFI (cfiCond409) ?RET_LOW load(1, XDATA, add(CFA_XSP16, literal(-5)))
        CFI (cfiCond409) ?RET_HIGH load(1, XDATA, add(CFA_XSP16, literal(-4)))
        CFI (cfiCond409) ?BRET_EXT load(1, XDATA, add(CFA_XSP16, literal(-3)))
        CFI (cfiCond409) DPL0 load(1, XDATA, add(CFA_XSP16, literal(-2)))
        CFI (cfiCond409) DPH0 load(1, XDATA, add(CFA_XSP16, literal(-1)))
        CFI (cfiCond409) CFA_SP SP+0
        CFI (cfiCond409) CFA_XSP16 add(XSP16, 21)
        CFI Block cfiPicker410 Using cfiCommon1
        CFI (cfiPicker410) NoFunction
        CFI (cfiPicker410) Picker
        LCALL   ?Subroutine52 & 0xFFFF
??CrossCallReturnLabel_149:
        INC     DPTR
        RET
        CFI EndBlock cfiCond407
        CFI EndBlock cfiCond408
        CFI EndBlock cfiCond409
        CFI EndBlock cfiPicker410

        RSEG BANKED_CODE:CODE:NOROOT(0)
?Subroutine14:
        CFI Block cfiCond411 Using cfiCommon0
        CFI NoFunction
        CFI Conditional ??CrossCallReturnLabel_16
        CFI R6 load(1, XDATA, add(CFA_XSP16, literal(-16)))
        CFI VB load(1, XDATA, add(CFA_XSP16, literal(-15)))
        CFI V0 load(1, XDATA, add(CFA_XSP16, literal(-14)))
        CFI V1 load(1, XDATA, add(CFA_XSP16, literal(-13)))
        CFI V2 load(1, XDATA, add(CFA_XSP16, literal(-12)))
        CFI V3 load(1, XDATA, add(CFA_XSP16, literal(-11)))
        CFI V4 load(1, XDATA, add(CFA_XSP16, literal(-10)))
        CFI V5 load(1, XDATA, add(CFA_XSP16, literal(-9)))
        CFI V6 load(1, XDATA, add(CFA_XSP16, literal(-8)))
        CFI V7 load(1, XDATA, add(CFA_XSP16, literal(-7)))
        CFI R7 load(1, XDATA, add(CFA_XSP16, literal(-6)))
        CFI ?RET_LOW load(1, XDATA, add(CFA_XSP16, literal(-5)))
        CFI ?RET_HIGH load(1, XDATA, add(CFA_XSP16, literal(-4)))
        CFI ?BRET_EXT load(1, XDATA, add(CFA_XSP16, literal(-3)))
        CFI DPL0 load(1, XDATA, add(CFA_XSP16, literal(-2)))
        CFI DPH0 load(1, XDATA, add(CFA_XSP16, literal(-1)))
        CFI CFA_SP SP+0
        CFI CFA_XSP16 add(XSP16, 21)
        CFI Block cfiCond412 Using cfiCommon0
        CFI (cfiCond412) NoFunction
        CFI (cfiCond412) Conditional ??CrossCallReturnLabel_17
        CFI (cfiCond412) R6 load(1, XDATA, add(CFA_XSP16, literal(-16)))
        CFI (cfiCond412) VB load(1, XDATA, add(CFA_XSP16, literal(-15)))
        CFI (cfiCond412) V0 load(1, XDATA, add(CFA_XSP16, literal(-14)))
        CFI (cfiCond412) V1 load(1, XDATA, add(CFA_XSP16, literal(-13)))
        CFI (cfiCond412) V2 load(1, XDATA, add(CFA_XSP16, literal(-12)))
        CFI (cfiCond412) V3 load(1, XDATA, add(CFA_XSP16, literal(-11)))
        CFI (cfiCond412) V4 load(1, XDATA, add(CFA_XSP16, literal(-10)))
        CFI (cfiCond412) V5 load(1, XDATA, add(CFA_XSP16, literal(-9)))
        CFI (cfiCond412) V6 load(1, XDATA, add(CFA_XSP16, literal(-8)))
        CFI (cfiCond412) V7 load(1, XDATA, add(CFA_XSP16, literal(-7)))
        CFI (cfiCond412) R7 load(1, XDATA, add(CFA_XSP16, literal(-6)))
        CFI (cfiCond412) ?RET_LOW load(1, XDATA, add(CFA_XSP16, literal(-5)))
        CFI (cfiCond412) ?RET_HIGH load(1, XDATA, add(CFA_XSP16, literal(-4)))
        CFI (cfiCond412) ?BRET_EXT load(1, XDATA, add(CFA_XSP16, literal(-3)))
        CFI (cfiCond412) DPL0 load(1, XDATA, add(CFA_XSP16, literal(-2)))
        CFI (cfiCond412) DPH0 load(1, XDATA, add(CFA_XSP16, literal(-1)))
        CFI (cfiCond412) CFA_SP SP+0
        CFI (cfiCond412) CFA_XSP16 add(XSP16, 21)
        CFI Block cfiPicker413 Using cfiCommon1
        CFI (cfiPicker413) NoFunction
        CFI (cfiPicker413) Picker
        LCALL   ?Subroutine47 & 0xFFFF
??CrossCallReturnLabel_93:
        MOV     R0,A
        INC     DPTR
        MOVX    A,@DPTR
        MOV     R1,A
        RET
        CFI EndBlock cfiCond411
        CFI EndBlock cfiCond412
        CFI EndBlock cfiPicker413

        RSEG BANKED_CODE:CODE:NOROOT(0)
?Subroutine6:
        CFI Block cfiCond414 Using cfiCommon0
        CFI NoFunction
        CFI Conditional ??CrossCallReturnLabel_7
        CFI R6 load(1, XDATA, add(CFA_XSP16, literal(-16)))
        CFI VB load(1, XDATA, add(CFA_XSP16, literal(-15)))
        CFI V0 load(1, XDATA, add(CFA_XSP16, literal(-14)))
        CFI V1 load(1, XDATA, add(CFA_XSP16, literal(-13)))
        CFI V2 load(1, XDATA, add(CFA_XSP16, literal(-12)))
        CFI V3 load(1, XDATA, add(CFA_XSP16, literal(-11)))
        CFI V4 load(1, XDATA, add(CFA_XSP16, literal(-10)))
        CFI V5 load(1, XDATA, add(CFA_XSP16, literal(-9)))
        CFI V6 load(1, XDATA, add(CFA_XSP16, literal(-8)))
        CFI V7 load(1, XDATA, add(CFA_XSP16, literal(-7)))
        CFI R7 load(1, XDATA, add(CFA_XSP16, literal(-6)))
        CFI ?RET_LOW load(1, XDATA, add(CFA_XSP16, literal(-5)))
        CFI ?RET_HIGH load(1, XDATA, add(CFA_XSP16, literal(-4)))
        CFI ?BRET_EXT load(1, XDATA, add(CFA_XSP16, literal(-3)))
        CFI DPL0 load(1, XDATA, add(CFA_XSP16, literal(-2)))
        CFI DPH0 load(1, XDATA, add(CFA_XSP16, literal(-1)))
        CFI CFA_SP SP+0
        CFI CFA_XSP16 add(XSP16, 28)
        CFI Block cfiCond415 Using cfiCommon0
        CFI (cfiCond415) NoFunction
        CFI (cfiCond415) Conditional ??CrossCallReturnLabel_8
        CFI (cfiCond415) R6 load(1, XDATA, add(CFA_XSP16, literal(-16)))
        CFI (cfiCond415) VB load(1, XDATA, add(CFA_XSP16, literal(-15)))
        CFI (cfiCond415) V0 load(1, XDATA, add(CFA_XSP16, literal(-14)))
        CFI (cfiCond415) V1 load(1, XDATA, add(CFA_XSP16, literal(-13)))
        CFI (cfiCond415) V2 load(1, XDATA, add(CFA_XSP16, literal(-12)))
        CFI (cfiCond415) V3 load(1, XDATA, add(CFA_XSP16, literal(-11)))
        CFI (cfiCond415) V4 load(1, XDATA, add(CFA_XSP16, literal(-10)))
        CFI (cfiCond415) V5 load(1, XDATA, add(CFA_XSP16, literal(-9)))
        CFI (cfiCond415) V6 load(1, XDATA, add(CFA_XSP16, literal(-8)))
        CFI (cfiCond415) V7 load(1, XDATA, add(CFA_XSP16, literal(-7)))
        CFI (cfiCond415) R7 load(1, XDATA, add(CFA_XSP16, literal(-6)))
        CFI (cfiCond415) ?RET_LOW load(1, XDATA, add(CFA_XSP16, literal(-5)))
        CFI (cfiCond415) ?RET_HIGH load(1, XDATA, add(CFA_XSP16, literal(-4)))
        CFI (cfiCond415) ?BRET_EXT load(1, XDATA, add(CFA_XSP16, literal(-3)))
        CFI (cfiCond415) DPL0 load(1, XDATA, add(CFA_XSP16, literal(-2)))
        CFI (cfiCond415) DPH0 load(1, XDATA, add(CFA_XSP16, literal(-1)))
        CFI (cfiCond415) CFA_SP SP+0
        CFI (cfiCond415) CFA_XSP16 add(XSP16, 21)
        CFI Block cfiCond416 Using cfiCommon0
        CFI (cfiCond416) NoFunction
        CFI (cfiCond416) Conditional ??CrossCallReturnLabel_9
        CFI (cfiCond416) R6 load(1, XDATA, add(CFA_XSP16, literal(-16)))
        CFI (cfiCond416) VB load(1, XDATA, add(CFA_XSP16, literal(-15)))
        CFI (cfiCond416) V0 load(1, XDATA, add(CFA_XSP16, literal(-14)))
        CFI (cfiCond416) V1 load(1, XDATA, add(CFA_XSP16, literal(-13)))
        CFI (cfiCond416) V2 load(1, XDATA, add(CFA_XSP16, literal(-12)))
        CFI (cfiCond416) V3 load(1, XDATA, add(CFA_XSP16, literal(-11)))
        CFI (cfiCond416) V4 load(1, XDATA, add(CFA_XSP16, literal(-10)))
        CFI (cfiCond416) V5 load(1, XDATA, add(CFA_XSP16, literal(-9)))
        CFI (cfiCond416) V6 load(1, XDATA, add(CFA_XSP16, literal(-8)))
        CFI (cfiCond416) V7 load(1, XDATA, add(CFA_XSP16, literal(-7)))
        CFI (cfiCond416) R7 load(1, XDATA, add(CFA_XSP16, literal(-6)))
        CFI (cfiCond416) ?RET_LOW load(1, XDATA, add(CFA_XSP16, literal(-5)))
        CFI (cfiCond416) ?RET_HIGH load(1, XDATA, add(CFA_XSP16, literal(-4)))
        CFI (cfiCond416) ?BRET_EXT load(1, XDATA, add(CFA_XSP16, literal(-3)))
        CFI (cfiCond416) DPL0 load(1, XDATA, add(CFA_XSP16, literal(-2)))
        CFI (cfiCond416) DPH0 load(1, XDATA, add(CFA_XSP16, literal(-1)))
        CFI (cfiCond416) CFA_SP SP+0
        CFI (cfiCond416) CFA_XSP16 add(XSP16, 21)
        CFI Block cfiPicker417 Using cfiCommon1
        CFI (cfiPicker417) NoFunction
        CFI (cfiPicker417) Picker
        LCALL   ?Subroutine49 & 0xFFFF
??CrossCallReturnLabel_98:
        INC     DPTR
        INC     DPTR
        MOVX    A,@DPTR
        RET
        CFI EndBlock cfiCond414
        CFI EndBlock cfiCond415
        CFI EndBlock cfiCond416
        CFI EndBlock cfiPicker417

        RSEG BANKED_CODE:CODE:NOROOT(0)
?Subroutine3:
        CFI Block cfiCond418 Using cfiCommon0
        CFI NoFunction
        CFI Conditional ??CrossCallReturnLabel_191
        CFI R6 load(1, XDATA, add(CFA_XSP16, literal(-9)))
        CFI VB load(1, XDATA, add(CFA_XSP16, literal(-8)))
        CFI V0 load(1, XDATA, add(CFA_XSP16, literal(-7)))
        CFI R7 load(1, XDATA, add(CFA_XSP16, literal(-6)))
        CFI ?RET_LOW load(1, XDATA, add(CFA_XSP16, literal(-5)))
        CFI ?RET_HIGH load(1, XDATA, add(CFA_XSP16, literal(-4)))
        CFI ?BRET_EXT load(1, XDATA, add(CFA_XSP16, literal(-3)))
        CFI DPL0 load(1, XDATA, add(CFA_XSP16, literal(-2)))
        CFI DPH0 load(1, XDATA, add(CFA_XSP16, literal(-1)))
        CFI CFA_SP SP+0
        CFI CFA_XSP16 add(XSP16, 9)
        CFI Block cfiCond419 Using cfiCommon0
        CFI (cfiCond419) NoFunction
        CFI (cfiCond419) Conditional ??CrossCallReturnLabel_192
        CFI (cfiCond419) R6 load(1, XDATA, add(CFA_XSP16, literal(-9)))
        CFI (cfiCond419) VB load(1, XDATA, add(CFA_XSP16, literal(-8)))
        CFI (cfiCond419) V0 load(1, XDATA, add(CFA_XSP16, literal(-7)))
        CFI (cfiCond419) R7 load(1, XDATA, add(CFA_XSP16, literal(-6)))
        CFI (cfiCond419) ?RET_LOW load(1, XDATA, add(CFA_XSP16, literal(-5)))
        CFI (cfiCond419) ?RET_HIGH load(1, XDATA, add(CFA_XSP16, literal(-4)))
        CFI (cfiCond419) ?BRET_EXT load(1, XDATA, add(CFA_XSP16, literal(-3)))
        CFI (cfiCond419) DPL0 load(1, XDATA, add(CFA_XSP16, literal(-2)))
        CFI (cfiCond419) DPH0 load(1, XDATA, add(CFA_XSP16, literal(-1)))
        CFI (cfiCond419) CFA_SP SP+0
        CFI (cfiCond419) CFA_XSP16 add(XSP16, 9)
        CFI Block cfiCond420 Using cfiCommon0
        CFI (cfiCond420) NoFunction
        CFI (cfiCond420) Conditional ??CrossCallReturnLabel_193
        CFI (cfiCond420) R6 load(1, XDATA, add(CFA_XSP16, literal(-16)))
        CFI (cfiCond420) VB load(1, XDATA, add(CFA_XSP16, literal(-15)))
        CFI (cfiCond420) V0 load(1, XDATA, add(CFA_XSP16, literal(-14)))
        CFI (cfiCond420) V1 load(1, XDATA, add(CFA_XSP16, literal(-13)))
        CFI (cfiCond420) V2 load(1, XDATA, add(CFA_XSP16, literal(-12)))
        CFI (cfiCond420) V3 load(1, XDATA, add(CFA_XSP16, literal(-11)))
        CFI (cfiCond420) V4 load(1, XDATA, add(CFA_XSP16, literal(-10)))
        CFI (cfiCond420) V5 load(1, XDATA, add(CFA_XSP16, literal(-9)))
        CFI (cfiCond420) V6 load(1, XDATA, add(CFA_XSP16, literal(-8)))
        CFI (cfiCond420) V7 load(1, XDATA, add(CFA_XSP16, literal(-7)))
        CFI (cfiCond420) R7 load(1, XDATA, add(CFA_XSP16, literal(-6)))
        CFI (cfiCond420) ?RET_LOW load(1, XDATA, add(CFA_XSP16, literal(-5)))
        CFI (cfiCond420) ?RET_HIGH load(1, XDATA, add(CFA_XSP16, literal(-4)))
        CFI (cfiCond420) ?BRET_EXT load(1, XDATA, add(CFA_XSP16, literal(-3)))
        CFI (cfiCond420) DPL0 load(1, XDATA, add(CFA_XSP16, literal(-2)))
        CFI (cfiCond420) DPH0 load(1, XDATA, add(CFA_XSP16, literal(-1)))
        CFI (cfiCond420) CFA_SP SP+0
        CFI (cfiCond420) CFA_XSP16 add(XSP16, 35)
        CFI Block cfiCond421 Using cfiCommon0
        CFI (cfiCond421) NoFunction
        CFI (cfiCond421) Conditional ??CrossCallReturnLabel_194
        CFI (cfiCond421) R6 load(1, XDATA, add(CFA_XSP16, literal(-16)))
        CFI (cfiCond421) VB load(1, XDATA, add(CFA_XSP16, literal(-15)))
        CFI (cfiCond421) V0 load(1, XDATA, add(CFA_XSP16, literal(-14)))
        CFI (cfiCond421) V1 load(1, XDATA, add(CFA_XSP16, literal(-13)))
        CFI (cfiCond421) V2 load(1, XDATA, add(CFA_XSP16, literal(-12)))
        CFI (cfiCond421) V3 load(1, XDATA, add(CFA_XSP16, literal(-11)))
        CFI (cfiCond421) V4 load(1, XDATA, add(CFA_XSP16, literal(-10)))
        CFI (cfiCond421) V5 load(1, XDATA, add(CFA_XSP16, literal(-9)))
        CFI (cfiCond421) V6 load(1, XDATA, add(CFA_XSP16, literal(-8)))
        CFI (cfiCond421) V7 load(1, XDATA, add(CFA_XSP16, literal(-7)))
        CFI (cfiCond421) R7 load(1, XDATA, add(CFA_XSP16, literal(-6)))
        CFI (cfiCond421) ?RET_LOW load(1, XDATA, add(CFA_XSP16, literal(-5)))
        CFI (cfiCond421) ?RET_HIGH load(1, XDATA, add(CFA_XSP16, literal(-4)))
        CFI (cfiCond421) ?BRET_EXT load(1, XDATA, add(CFA_XSP16, literal(-3)))
        CFI (cfiCond421) DPL0 load(1, XDATA, add(CFA_XSP16, literal(-2)))
        CFI (cfiCond421) DPH0 load(1, XDATA, add(CFA_XSP16, literal(-1)))
        CFI (cfiCond421) CFA_SP SP+0
        CFI (cfiCond421) CFA_XSP16 add(XSP16, 35)
        CFI Block cfiCond422 Using cfiCommon0
        CFI (cfiCond422) NoFunction
        CFI (cfiCond422) Conditional ??CrossCallReturnLabel_195
        CFI (cfiCond422) R6 load(1, XDATA, add(CFA_XSP16, literal(-16)))
        CFI (cfiCond422) VB load(1, XDATA, add(CFA_XSP16, literal(-15)))
        CFI (cfiCond422) V0 load(1, XDATA, add(CFA_XSP16, literal(-14)))
        CFI (cfiCond422) V1 load(1, XDATA, add(CFA_XSP16, literal(-13)))
        CFI (cfiCond422) V2 load(1, XDATA, add(CFA_XSP16, literal(-12)))
        CFI (cfiCond422) V3 load(1, XDATA, add(CFA_XSP16, literal(-11)))
        CFI (cfiCond422) V4 load(1, XDATA, add(CFA_XSP16, literal(-10)))
        CFI (cfiCond422) V5 load(1, XDATA, add(CFA_XSP16, literal(-9)))
        CFI (cfiCond422) V6 load(1, XDATA, add(CFA_XSP16, literal(-8)))
        CFI (cfiCond422) V7 load(1, XDATA, add(CFA_XSP16, literal(-7)))
        CFI (cfiCond422) R7 load(1, XDATA, add(CFA_XSP16, literal(-6)))
        CFI (cfiCond422) ?RET_LOW load(1, XDATA, add(CFA_XSP16, literal(-5)))
        CFI (cfiCond422) ?RET_HIGH load(1, XDATA, add(CFA_XSP16, literal(-4)))
        CFI (cfiCond422) ?BRET_EXT load(1, XDATA, add(CFA_XSP16, literal(-3)))
        CFI (cfiCond422) DPL0 load(1, XDATA, add(CFA_XSP16, literal(-2)))
        CFI (cfiCond422) DPH0 load(1, XDATA, add(CFA_XSP16, literal(-1)))
        CFI (cfiCond422) CFA_SP SP+0
        CFI (cfiCond422) CFA_XSP16 add(XSP16, 17)
        CFI Block cfiPicker423 Using cfiCommon1
        CFI (cfiPicker423) NoFunction
        CFI (cfiPicker423) Picker
        MOV     DPTR,#pMtAfDataReq
        CFI EndBlock cfiCond418
        CFI EndBlock cfiCond419
        CFI EndBlock cfiCond420
        CFI EndBlock cfiCond421
        CFI EndBlock cfiCond422
        CFI EndBlock cfiPicker423
        REQUIRE ??Subroutine78_0
        ; // Fall through to label ??Subroutine78_0

        RSEG BANKED_CODE:CODE:NOROOT(0)
??Subroutine78_0:
        CFI Block cfiCond424 Using cfiCommon0
        CFI NoFunction
        CFI Conditional ??CrossCallReturnLabel_185
        CFI R6 load(1, XDATA, add(CFA_XSP16, literal(-9)))
        CFI VB load(1, XDATA, add(CFA_XSP16, literal(-8)))
        CFI V0 load(1, XDATA, add(CFA_XSP16, literal(-7)))
        CFI R7 load(1, XDATA, add(CFA_XSP16, literal(-6)))
        CFI ?RET_LOW load(1, XDATA, add(CFA_XSP16, literal(-5)))
        CFI ?RET_HIGH load(1, XDATA, add(CFA_XSP16, literal(-4)))
        CFI ?BRET_EXT load(1, XDATA, add(CFA_XSP16, literal(-3)))
        CFI DPL0 load(1, XDATA, add(CFA_XSP16, literal(-2)))
        CFI DPH0 load(1, XDATA, add(CFA_XSP16, literal(-1)))
        CFI CFA_SP SP+0
        CFI CFA_XSP16 add(XSP16, 9)
        CFI Block cfiCond425 Using cfiCommon0
        CFI (cfiCond425) NoFunction
        CFI (cfiCond425) Conditional ??CrossCallReturnLabel_186
        CFI (cfiCond425) R6 load(1, XDATA, add(CFA_XSP16, literal(-16)))
        CFI (cfiCond425) VB load(1, XDATA, add(CFA_XSP16, literal(-15)))
        CFI (cfiCond425) V0 load(1, XDATA, add(CFA_XSP16, literal(-14)))
        CFI (cfiCond425) V1 load(1, XDATA, add(CFA_XSP16, literal(-13)))
        CFI (cfiCond425) V2 load(1, XDATA, add(CFA_XSP16, literal(-12)))
        CFI (cfiCond425) V3 load(1, XDATA, add(CFA_XSP16, literal(-11)))
        CFI (cfiCond425) V4 load(1, XDATA, add(CFA_XSP16, literal(-10)))
        CFI (cfiCond425) V5 load(1, XDATA, add(CFA_XSP16, literal(-9)))
        CFI (cfiCond425) V6 load(1, XDATA, add(CFA_XSP16, literal(-8)))
        CFI (cfiCond425) V7 load(1, XDATA, add(CFA_XSP16, literal(-7)))
        CFI (cfiCond425) R7 load(1, XDATA, add(CFA_XSP16, literal(-6)))
        CFI (cfiCond425) ?RET_LOW load(1, XDATA, add(CFA_XSP16, literal(-5)))
        CFI (cfiCond425) ?RET_HIGH load(1, XDATA, add(CFA_XSP16, literal(-4)))
        CFI (cfiCond425) ?BRET_EXT load(1, XDATA, add(CFA_XSP16, literal(-3)))
        CFI (cfiCond425) DPL0 load(1, XDATA, add(CFA_XSP16, literal(-2)))
        CFI (cfiCond425) DPH0 load(1, XDATA, add(CFA_XSP16, literal(-1)))
        CFI (cfiCond425) CFA_SP SP+0
        CFI (cfiCond425) CFA_XSP16 add(XSP16, 25)
        CFI Block cfiCond426 Using cfiCommon0
        CFI (cfiCond426) NoFunction
        CFI (cfiCond426) Conditional ??CrossCallReturnLabel_187
        CFI (cfiCond426) R6 load(1, XDATA, add(CFA_XSP16, literal(-16)))
        CFI (cfiCond426) VB load(1, XDATA, add(CFA_XSP16, literal(-15)))
        CFI (cfiCond426) V0 load(1, XDATA, add(CFA_XSP16, literal(-14)))
        CFI (cfiCond426) V1 load(1, XDATA, add(CFA_XSP16, literal(-13)))
        CFI (cfiCond426) V2 load(1, XDATA, add(CFA_XSP16, literal(-12)))
        CFI (cfiCond426) V3 load(1, XDATA, add(CFA_XSP16, literal(-11)))
        CFI (cfiCond426) V4 load(1, XDATA, add(CFA_XSP16, literal(-10)))
        CFI (cfiCond426) V5 load(1, XDATA, add(CFA_XSP16, literal(-9)))
        CFI (cfiCond426) V6 load(1, XDATA, add(CFA_XSP16, literal(-8)))
        CFI (cfiCond426) V7 load(1, XDATA, add(CFA_XSP16, literal(-7)))
        CFI (cfiCond426) R7 load(1, XDATA, add(CFA_XSP16, literal(-6)))
        CFI (cfiCond426) ?RET_LOW load(1, XDATA, add(CFA_XSP16, literal(-5)))
        CFI (cfiCond426) ?RET_HIGH load(1, XDATA, add(CFA_XSP16, literal(-4)))
        CFI (cfiCond426) ?BRET_EXT load(1, XDATA, add(CFA_XSP16, literal(-3)))
        CFI (cfiCond426) DPL0 load(1, XDATA, add(CFA_XSP16, literal(-2)))
        CFI (cfiCond426) DPH0 load(1, XDATA, add(CFA_XSP16, literal(-1)))
        CFI (cfiCond426) CFA_SP SP+0
        CFI (cfiCond426) CFA_XSP16 add(XSP16, 25)
        CFI Block cfiCond427 Using cfiCommon0
        CFI (cfiCond427) NoFunction
        CFI (cfiCond427) Conditional ??CrossCallReturnLabel_188
        CFI (cfiCond427) R6 load(1, XDATA, add(CFA_XSP16, literal(-16)))
        CFI (cfiCond427) VB load(1, XDATA, add(CFA_XSP16, literal(-15)))
        CFI (cfiCond427) V0 load(1, XDATA, add(CFA_XSP16, literal(-14)))
        CFI (cfiCond427) V1 load(1, XDATA, add(CFA_XSP16, literal(-13)))
        CFI (cfiCond427) V2 load(1, XDATA, add(CFA_XSP16, literal(-12)))
        CFI (cfiCond427) V3 load(1, XDATA, add(CFA_XSP16, literal(-11)))
        CFI (cfiCond427) V4 load(1, XDATA, add(CFA_XSP16, literal(-10)))
        CFI (cfiCond427) V5 load(1, XDATA, add(CFA_XSP16, literal(-9)))
        CFI (cfiCond427) V6 load(1, XDATA, add(CFA_XSP16, literal(-8)))
        CFI (cfiCond427) V7 load(1, XDATA, add(CFA_XSP16, literal(-7)))
        CFI (cfiCond427) R7 load(1, XDATA, add(CFA_XSP16, literal(-6)))
        CFI (cfiCond427) ?RET_LOW load(1, XDATA, add(CFA_XSP16, literal(-5)))
        CFI (cfiCond427) ?RET_HIGH load(1, XDATA, add(CFA_XSP16, literal(-4)))
        CFI (cfiCond427) ?BRET_EXT load(1, XDATA, add(CFA_XSP16, literal(-3)))
        CFI (cfiCond427) DPL0 load(1, XDATA, add(CFA_XSP16, literal(-2)))
        CFI (cfiCond427) DPH0 load(1, XDATA, add(CFA_XSP16, literal(-1)))
        CFI (cfiCond427) CFA_SP SP+0
        CFI (cfiCond427) CFA_XSP16 add(XSP16, 25)
        CFI Block cfiCond428 Using cfiCommon0
        CFI (cfiCond428) NoFunction
        CFI (cfiCond428) Conditional ??CrossCallReturnLabel_189
        CFI (cfiCond428) R6 load(1, XDATA, add(CFA_XSP16, literal(-16)))
        CFI (cfiCond428) VB load(1, XDATA, add(CFA_XSP16, literal(-15)))
        CFI (cfiCond428) V0 load(1, XDATA, add(CFA_XSP16, literal(-14)))
        CFI (cfiCond428) V1 load(1, XDATA, add(CFA_XSP16, literal(-13)))
        CFI (cfiCond428) V2 load(1, XDATA, add(CFA_XSP16, literal(-12)))
        CFI (cfiCond428) V3 load(1, XDATA, add(CFA_XSP16, literal(-11)))
        CFI (cfiCond428) V4 load(1, XDATA, add(CFA_XSP16, literal(-10)))
        CFI (cfiCond428) V5 load(1, XDATA, add(CFA_XSP16, literal(-9)))
        CFI (cfiCond428) V6 load(1, XDATA, add(CFA_XSP16, literal(-8)))
        CFI (cfiCond428) V7 load(1, XDATA, add(CFA_XSP16, literal(-7)))
        CFI (cfiCond428) R7 load(1, XDATA, add(CFA_XSP16, literal(-6)))
        CFI (cfiCond428) ?RET_LOW load(1, XDATA, add(CFA_XSP16, literal(-5)))
        CFI (cfiCond428) ?RET_HIGH load(1, XDATA, add(CFA_XSP16, literal(-4)))
        CFI (cfiCond428) ?BRET_EXT load(1, XDATA, add(CFA_XSP16, literal(-3)))
        CFI (cfiCond428) DPL0 load(1, XDATA, add(CFA_XSP16, literal(-2)))
        CFI (cfiCond428) DPH0 load(1, XDATA, add(CFA_XSP16, literal(-1)))
        CFI (cfiCond428) CFA_SP SP+0
        CFI (cfiCond428) CFA_XSP16 add(XSP16, 25)
        CFI Block cfiCond429 Using cfiCommon0
        CFI (cfiCond429) NoFunction
        CFI (cfiCond429) Conditional ??CrossCallReturnLabel_190
        CFI (cfiCond429) R6 load(1, XDATA, add(CFA_XSP16, literal(-16)))
        CFI (cfiCond429) VB load(1, XDATA, add(CFA_XSP16, literal(-15)))
        CFI (cfiCond429) V0 load(1, XDATA, add(CFA_XSP16, literal(-14)))
        CFI (cfiCond429) V1 load(1, XDATA, add(CFA_XSP16, literal(-13)))
        CFI (cfiCond429) V2 load(1, XDATA, add(CFA_XSP16, literal(-12)))
        CFI (cfiCond429) V3 load(1, XDATA, add(CFA_XSP16, literal(-11)))
        CFI (cfiCond429) V4 load(1, XDATA, add(CFA_XSP16, literal(-10)))
        CFI (cfiCond429) V5 load(1, XDATA, add(CFA_XSP16, literal(-9)))
        CFI (cfiCond429) V6 load(1, XDATA, add(CFA_XSP16, literal(-8)))
        CFI (cfiCond429) V7 load(1, XDATA, add(CFA_XSP16, literal(-7)))
        CFI (cfiCond429) R7 load(1, XDATA, add(CFA_XSP16, literal(-6)))
        CFI (cfiCond429) ?RET_LOW load(1, XDATA, add(CFA_XSP16, literal(-5)))
        CFI (cfiCond429) ?RET_HIGH load(1, XDATA, add(CFA_XSP16, literal(-4)))
        CFI (cfiCond429) ?BRET_EXT load(1, XDATA, add(CFA_XSP16, literal(-3)))
        CFI (cfiCond429) DPL0 load(1, XDATA, add(CFA_XSP16, literal(-2)))
        CFI (cfiCond429) DPH0 load(1, XDATA, add(CFA_XSP16, literal(-1)))
        CFI (cfiCond429) CFA_SP SP+0
        CFI (cfiCond429) CFA_XSP16 add(XSP16, 21)
        CFI Block cfiCond430 Using cfiCommon0
        CFI (cfiCond430) NoFunction
        CFI (cfiCond430) Conditional ??CrossCallReturnLabel_191
        CFI (cfiCond430) R6 load(1, XDATA, add(CFA_XSP16, literal(-9)))
        CFI (cfiCond430) VB load(1, XDATA, add(CFA_XSP16, literal(-8)))
        CFI (cfiCond430) V0 load(1, XDATA, add(CFA_XSP16, literal(-7)))
        CFI (cfiCond430) R7 load(1, XDATA, add(CFA_XSP16, literal(-6)))
        CFI (cfiCond430) ?RET_LOW load(1, XDATA, add(CFA_XSP16, literal(-5)))
        CFI (cfiCond430) ?RET_HIGH load(1, XDATA, add(CFA_XSP16, literal(-4)))
        CFI (cfiCond430) ?BRET_EXT load(1, XDATA, add(CFA_XSP16, literal(-3)))
        CFI (cfiCond430) DPL0 load(1, XDATA, add(CFA_XSP16, literal(-2)))
        CFI (cfiCond430) DPH0 load(1, XDATA, add(CFA_XSP16, literal(-1)))
        CFI (cfiCond430) CFA_SP SP+0
        CFI (cfiCond430) CFA_XSP16 add(XSP16, 9)
        CFI Block cfiCond431 Using cfiCommon0
        CFI (cfiCond431) NoFunction
        CFI (cfiCond431) Conditional ??CrossCallReturnLabel_192
        CFI (cfiCond431) R6 load(1, XDATA, add(CFA_XSP16, literal(-9)))
        CFI (cfiCond431) VB load(1, XDATA, add(CFA_XSP16, literal(-8)))
        CFI (cfiCond431) V0 load(1, XDATA, add(CFA_XSP16, literal(-7)))
        CFI (cfiCond431) R7 load(1, XDATA, add(CFA_XSP16, literal(-6)))
        CFI (cfiCond431) ?RET_LOW load(1, XDATA, add(CFA_XSP16, literal(-5)))
        CFI (cfiCond431) ?RET_HIGH load(1, XDATA, add(CFA_XSP16, literal(-4)))
        CFI (cfiCond431) ?BRET_EXT load(1, XDATA, add(CFA_XSP16, literal(-3)))
        CFI (cfiCond431) DPL0 load(1, XDATA, add(CFA_XSP16, literal(-2)))
        CFI (cfiCond431) DPH0 load(1, XDATA, add(CFA_XSP16, literal(-1)))
        CFI (cfiCond431) CFA_SP SP+0
        CFI (cfiCond431) CFA_XSP16 add(XSP16, 9)
        CFI Block cfiCond432 Using cfiCommon0
        CFI (cfiCond432) NoFunction
        CFI (cfiCond432) Conditional ??CrossCallReturnLabel_193
        CFI (cfiCond432) R6 load(1, XDATA, add(CFA_XSP16, literal(-16)))
        CFI (cfiCond432) VB load(1, XDATA, add(CFA_XSP16, literal(-15)))
        CFI (cfiCond432) V0 load(1, XDATA, add(CFA_XSP16, literal(-14)))
        CFI (cfiCond432) V1 load(1, XDATA, add(CFA_XSP16, literal(-13)))
        CFI (cfiCond432) V2 load(1, XDATA, add(CFA_XSP16, literal(-12)))
        CFI (cfiCond432) V3 load(1, XDATA, add(CFA_XSP16, literal(-11)))
        CFI (cfiCond432) V4 load(1, XDATA, add(CFA_XSP16, literal(-10)))
        CFI (cfiCond432) V5 load(1, XDATA, add(CFA_XSP16, literal(-9)))
        CFI (cfiCond432) V6 load(1, XDATA, add(CFA_XSP16, literal(-8)))
        CFI (cfiCond432) V7 load(1, XDATA, add(CFA_XSP16, literal(-7)))
        CFI (cfiCond432) R7 load(1, XDATA, add(CFA_XSP16, literal(-6)))
        CFI (cfiCond432) ?RET_LOW load(1, XDATA, add(CFA_XSP16, literal(-5)))
        CFI (cfiCond432) ?RET_HIGH load(1, XDATA, add(CFA_XSP16, literal(-4)))
        CFI (cfiCond432) ?BRET_EXT load(1, XDATA, add(CFA_XSP16, literal(-3)))
        CFI (cfiCond432) DPL0 load(1, XDATA, add(CFA_XSP16, literal(-2)))
        CFI (cfiCond432) DPH0 load(1, XDATA, add(CFA_XSP16, literal(-1)))
        CFI (cfiCond432) CFA_SP SP+0
        CFI (cfiCond432) CFA_XSP16 add(XSP16, 35)
        CFI Block cfiCond433 Using cfiCommon0
        CFI (cfiCond433) NoFunction
        CFI (cfiCond433) Conditional ??CrossCallReturnLabel_194
        CFI (cfiCond433) R6 load(1, XDATA, add(CFA_XSP16, literal(-16)))
        CFI (cfiCond433) VB load(1, XDATA, add(CFA_XSP16, literal(-15)))
        CFI (cfiCond433) V0 load(1, XDATA, add(CFA_XSP16, literal(-14)))
        CFI (cfiCond433) V1 load(1, XDATA, add(CFA_XSP16, literal(-13)))
        CFI (cfiCond433) V2 load(1, XDATA, add(CFA_XSP16, literal(-12)))
        CFI (cfiCond433) V3 load(1, XDATA, add(CFA_XSP16, literal(-11)))
        CFI (cfiCond433) V4 load(1, XDATA, add(CFA_XSP16, literal(-10)))
        CFI (cfiCond433) V5 load(1, XDATA, add(CFA_XSP16, literal(-9)))
        CFI (cfiCond433) V6 load(1, XDATA, add(CFA_XSP16, literal(-8)))
        CFI (cfiCond433) V7 load(1, XDATA, add(CFA_XSP16, literal(-7)))
        CFI (cfiCond433) R7 load(1, XDATA, add(CFA_XSP16, literal(-6)))
        CFI (cfiCond433) ?RET_LOW load(1, XDATA, add(CFA_XSP16, literal(-5)))
        CFI (cfiCond433) ?RET_HIGH load(1, XDATA, add(CFA_XSP16, literal(-4)))
        CFI (cfiCond433) ?BRET_EXT load(1, XDATA, add(CFA_XSP16, literal(-3)))
        CFI (cfiCond433) DPL0 load(1, XDATA, add(CFA_XSP16, literal(-2)))
        CFI (cfiCond433) DPH0 load(1, XDATA, add(CFA_XSP16, literal(-1)))
        CFI (cfiCond433) CFA_SP SP+0
        CFI (cfiCond433) CFA_XSP16 add(XSP16, 35)
        CFI Block cfiCond434 Using cfiCommon0
        CFI (cfiCond434) NoFunction
        CFI (cfiCond434) Conditional ??CrossCallReturnLabel_195
        CFI (cfiCond434) R6 load(1, XDATA, add(CFA_XSP16, literal(-16)))
        CFI (cfiCond434) VB load(1, XDATA, add(CFA_XSP16, literal(-15)))
        CFI (cfiCond434) V0 load(1, XDATA, add(CFA_XSP16, literal(-14)))
        CFI (cfiCond434) V1 load(1, XDATA, add(CFA_XSP16, literal(-13)))
        CFI (cfiCond434) V2 load(1, XDATA, add(CFA_XSP16, literal(-12)))
        CFI (cfiCond434) V3 load(1, XDATA, add(CFA_XSP16, literal(-11)))
        CFI (cfiCond434) V4 load(1, XDATA, add(CFA_XSP16, literal(-10)))
        CFI (cfiCond434) V5 load(1, XDATA, add(CFA_XSP16, literal(-9)))
        CFI (cfiCond434) V6 load(1, XDATA, add(CFA_XSP16, literal(-8)))
        CFI (cfiCond434) V7 load(1, XDATA, add(CFA_XSP16, literal(-7)))
        CFI (cfiCond434) R7 load(1, XDATA, add(CFA_XSP16, literal(-6)))
        CFI (cfiCond434) ?RET_LOW load(1, XDATA, add(CFA_XSP16, literal(-5)))
        CFI (cfiCond434) ?RET_HIGH load(1, XDATA, add(CFA_XSP16, literal(-4)))
        CFI (cfiCond434) ?BRET_EXT load(1, XDATA, add(CFA_XSP16, literal(-3)))
        CFI (cfiCond434) DPL0 load(1, XDATA, add(CFA_XSP16, literal(-2)))
        CFI (cfiCond434) DPH0 load(1, XDATA, add(CFA_XSP16, literal(-1)))
        CFI (cfiCond434) CFA_SP SP+0
        CFI (cfiCond434) CFA_XSP16 add(XSP16, 17)
        CFI Block cfiPicker435 Using cfiCommon1
        CFI (cfiPicker435) NoFunction
        CFI (cfiPicker435) Picker
        LCALL   ?Subroutine51 & 0xFFFF
??CrossCallReturnLabel_199:
        MOV     A,R0
        ORL     A,R1
        RET
        CFI EndBlock cfiCond424
        CFI EndBlock cfiCond425
        CFI EndBlock cfiCond426
        CFI EndBlock cfiCond427
        CFI EndBlock cfiCond428
        CFI EndBlock cfiCond429
        CFI EndBlock cfiCond430
        CFI EndBlock cfiCond431
        CFI EndBlock cfiCond432
        CFI EndBlock cfiCond433
        CFI EndBlock cfiCond434
        CFI EndBlock cfiPicker435
//  842 
//  843 /**************************************************************************************************
//  844  * @fn          MT_AfDataStore
//  845  *
//  846  * @brief   Process AF Data Store command to incrementally store the data buffer for very large
//  847  *          outgoing AF message.
//  848  *
//  849  * input parameters
//  850  *
//  851  * @param pBuf - pointer to the received buffer
//  852  *
//  853  * output parameters
//  854  *
//  855  * @param rtrn - AF-Status of the operation.
//  856  *
//  857  * @return      None.
//  858  **************************************************************************************************
//  859  */

        RSEG BANKED_CODE:CODE:NOROOT(0)
//  860 void MT_AfDataStore(uint8 *pBuf)
MT_AfDataStore:
        CFI Block cfiBlock436 Using cfiCommon0
        CFI Function MT_AfDataStore
        CODE
//  861 {
        FUNCALL MT_AfDataStore, AF_DataRequest
        LOCFRAME ISTACK, 0, STACK
        LOCFRAME PSTACK, 0, STACK
        LOCFRAME XSTACK, 26, STACK
        LOCFRAME IOVERLAY, 0, STATIC
        LOCFRAME DOVERLAY, 0, STATIC
        ARGFRAME ISTACK, 0, STACK
        ARGFRAME PSTACK, 0, STACK
        ARGFRAME XSTACK, 26, STACK
        ARGFRAME IOVERLAY, 0, STATIC
        ARGFRAME DOVERLAY, 0, STATIC
        FUNCALL MT_AfDataStore, osal_mem_free
        LOCFRAME ISTACK, 0, STACK
        LOCFRAME PSTACK, 0, STACK
        LOCFRAME XSTACK, 17, STACK
        LOCFRAME IOVERLAY, 0, STATIC
        LOCFRAME DOVERLAY, 0, STATIC
        ARGFRAME ISTACK, 0, STACK
        ARGFRAME PSTACK, 0, STACK
        ARGFRAME XSTACK, 17, STACK
        ARGFRAME IOVERLAY, 0, STATIC
        ARGFRAME DOVERLAY, 0, STATIC
        FUNCALL MT_AfDataStore, osal_memcpy
        LOCFRAME ISTACK, 0, STACK
        LOCFRAME PSTACK, 0, STACK
        LOCFRAME XSTACK, 20, STACK
        LOCFRAME IOVERLAY, 0, STATIC
        LOCFRAME DOVERLAY, 0, STATIC
        ARGFRAME ISTACK, 0, STACK
        ARGFRAME PSTACK, 0, STACK
        ARGFRAME XSTACK, 20, STACK
        ARGFRAME IOVERLAY, 0, STATIC
        ARGFRAME DOVERLAY, 0, STATIC
        FUNCALL MT_AfDataStore, MT_BuildAndSendZToolResponse
        LOCFRAME ISTACK, 0, STACK
        LOCFRAME PSTACK, 0, STACK
        LOCFRAME XSTACK, 17, STACK
        LOCFRAME IOVERLAY, 0, STATIC
        LOCFRAME DOVERLAY, 0, STATIC
        ARGFRAME ISTACK, 0, STACK
        ARGFRAME PSTACK, 0, STACK
        ARGFRAME XSTACK, 17, STACK
        ARGFRAME IOVERLAY, 0, STATIC
        ARGFRAME DOVERLAY, 0, STATIC
        MOV     A,#-0x10
        LCALL   ?BANKED_ENTER_XDATA
        CFI DPH0 load(1, XDATA, add(CFA_XSP16, literal(-1)))
        CFI DPL0 load(1, XDATA, add(CFA_XSP16, literal(-2)))
        CFI ?BRET_EXT load(1, XDATA, add(CFA_XSP16, literal(-3)))
        CFI ?RET_HIGH load(1, XDATA, add(CFA_XSP16, literal(-4)))
        CFI ?RET_LOW load(1, XDATA, add(CFA_XSP16, literal(-5)))
        CFI R7 load(1, XDATA, add(CFA_XSP16, literal(-6)))
        CFI V7 load(1, XDATA, add(CFA_XSP16, literal(-7)))
        CFI V6 load(1, XDATA, add(CFA_XSP16, literal(-8)))
        CFI V5 load(1, XDATA, add(CFA_XSP16, literal(-9)))
        CFI V4 load(1, XDATA, add(CFA_XSP16, literal(-10)))
        CFI V3 load(1, XDATA, add(CFA_XSP16, literal(-11)))
        CFI V2 load(1, XDATA, add(CFA_XSP16, literal(-12)))
        CFI V1 load(1, XDATA, add(CFA_XSP16, literal(-13)))
        CFI V0 load(1, XDATA, add(CFA_XSP16, literal(-14)))
        CFI VB load(1, XDATA, add(CFA_XSP16, literal(-15)))
        CFI R6 load(1, XDATA, add(CFA_XSP16, literal(-16)))
        CFI CFA_SP SP+0
        CFI CFA_XSP16 add(XSP16, 16)
        ; Saved register size: 16
        ; Auto size: 1
        MOV     A,#-0x1
        LCALL   ?ALLOC_XSTACK8
        CFI CFA_XSP16 add(XSP16, 17)
//  862   uint16 idx;
//  863   uint8 len, rtrn = afStatus_FAILED;
        MOV     DPL,?XSP + 0
        MOV     DPH,?XSP + 1
        MOV     A,#0x1
        MOVX    @DPTR,A
//  864 
//  865   pBuf += MT_RPC_FRAME_HDR_SZ;
        LCALL   ?Subroutine46 & 0xFFFF
//  866   idx = BUILD_UINT16(pBuf[0], pBuf[1]);
??CrossCallReturnLabel_90:
        MOV     DPL,R2
        MOV     DPH,R3
        MOVX    A,@DPTR
        MOV     R4,A
        INC     DPTR
        MOVX    A,@DPTR
        MOV     R1,A
        MOV     A,R4
        LCALL   ?Subroutine56 & 0xFFFF
//  867   len = pBuf[2];
??CrossCallReturnLabel_105:
        MOV     DPL,R2
        MOV     DPH,R3
        INC     DPTR
        INC     DPTR
        MOVX    A,@DPTR
        MOV     ?V0 + 6,A
//  868   pBuf += 3;
        LCALL   ?Subroutine46 & 0xFFFF
//  869 
//  870   if (pMtAfDataReq == NULL)
??CrossCallReturnLabel_91:
        LCALL   ?Subroutine3 & 0xFFFF
??CrossCallReturnLabel_195:
        JNZ     ??MT_AfDataStore_0
//  871   {
//  872     rtrn = afStatus_MEM_FAIL;
        MOV     DPL,?XSP + 0
        MOV     DPH,?XSP + 1
        MOV     A,#0x10
        LJMP    ??MT_AfDataStore_1 & 0xFFFF
//  873   }
//  874   else if (len == 0)  // Indication to send the message.
??MT_AfDataStore_0:
        MOV     DPTR,#pMtAfDataReq
        LCALL   ?Subroutine15 & 0xFFFF
??CrossCallReturnLabel_20:
        MOV     ?V0 + 4,A
        INC     DPTR
        MOVX    A,@DPTR
        MOV     ?V0 + 5,A
        MOV     A,?V0 + 6
        JNZ     ??MT_AfDataStore_2
//  875   {
//  876     rtrn = AF_DataRequest(&(pMtAfDataReq->dstAddr), pMtAfDataReq->epDesc, pMtAfDataReq->cId,
//  877                             pMtAfDataReq->dataLen,  pMtAfDataReq->data,
//  878                           &(pMtAfDataReq->transId), pMtAfDataReq->txOpts, pMtAfDataReq->radius);
        ; Setup parameters for call to function AF_DataRequest
        MOV     DPTR,#pMtAfDataReq
        MOVX    A,@DPTR
        ADD     A,#0x16
        LCALL   ??Subroutine80_0 & 0xFFFF
??CrossCallReturnLabel_208:
        MOV     ?V0 + 0,A
        MOV     R0,#?V0 + 0
        LCALL   ?PUSH_XSTACK_I_ONE
        CFI CFA_XSP16 add(XSP16, 18)
        MOV     DPTR,#pMtAfDataReq
        MOVX    A,@DPTR
        ADD     A,#0x14
        MOV     ?V0 + 0,A
        INC     DPTR
        MOVX    A,@DPTR
        LCALL   ??Subroutine68_0 & 0xFFFF
??CrossCallReturnLabel_129:
        MOV     R0,#?V0 + 0
        LCALL   ?PUSH_XSTACK_I_TWO
        CFI CFA_XSP16 add(XSP16, 20)
        MOV     R0,#?V0 + 4
        LCALL   ?PUSH_XSTACK_I_TWO
        CFI CFA_XSP16 add(XSP16, 22)
        MOV     DPTR,#pMtAfDataReq
        MOVX    A,@DPTR
        ADD     A,#0x12
        LCALL   ??Subroutine72_0 & 0xFFFF
??CrossCallReturnLabel_158:
        LCALL   ?PUSH_XSTACK8_X_TWO
        CFI CFA_XSP16 add(XSP16, 24)
        LCALL   ?Subroutine9 & 0xFFFF
??CrossCallReturnLabel_160:
        LCALL   ?PUSH_XSTACK8_X_TWO
        CFI CFA_XSP16 add(XSP16, 26)
        MOV     DPTR,#pMtAfDataReq
        MOVX    A,@DPTR
        ADD     A,#0x15
        LCALL   ??Subroutine80_0 & 0xFFFF
??CrossCallReturnLabel_209:
        MOV     R1,A
        MOV     DPTR,#pMtAfDataReq
        MOVX    A,@DPTR
        ADD     A,#0xe
        LCALL   ??Subroutine79_0 & 0xFFFF
??CrossCallReturnLabel_204:
        MOV     DPL,R2
        MOV     DPH,R3
        LCALL   ?Subroutine16 & 0xFFFF
??CrossCallReturnLabel_26:
        LCALL   ?Subroutine25 & 0xFFFF
??CrossCallReturnLabel_206:
        LCALL   ??AF_DataRequest?relay
        MOV     A,#0x9
        LCALL   ?DEALLOC_XSTACK8
        CFI CFA_XSP16 add(XSP16, 17)
        MOV     A,R1
        MOV     DPL,?XSP + 0
        MOV     DPH,?XSP + 1
        MOVX    @DPTR,A
//  879     (void)osal_mem_free(pMtAfDataReq);
        ; Setup parameters for call to function osal_mem_free
        LCALL   ?Subroutine13 & 0xFFFF
//  880     pMtAfDataReq = NULL;
//  881   }
??CrossCallReturnLabel_15:
        SJMP    ??MT_AfDataStore_1
//  882   else
//  883   {
//  884     (void)osal_memcpy(pMtAfDataReq->data+idx, pBuf, len);
??MT_AfDataStore_2:
        ; Setup parameters for call to function osal_memcpy
        MOV     ?V0 + 0,R2
        MOV     ?V0 + 1,R3
        MOV     ?V0 + 2,#0x0
        MOV     R0,#?V0 + 0
        LCALL   ?PUSH_XSTACK_I_THREE
        CFI CFA_XSP16 add(XSP16, 20)
        MOV     R4,?V0 + 6
        MOV     R5,#0x0
        MOV     A,?V0 + 4
        ADD     A,R6
        MOV     R2,A
        MOV     A,?V0 + 5
        ADDC    A,R7
        LCALL   ?Subroutine45 & 0xFFFF
??CrossCallReturnLabel_172:
        LCALL   ?DEALLOC_XSTACK8
        CFI CFA_XSP16 add(XSP16, 17)
//  885     rtrn = afStatus_SUCCESS;
        MOV     DPL,?XSP + 0
        MOV     DPH,?XSP + 1
        CLR     A
//  886   }
??MT_AfDataStore_1:
        LCALL   ?Subroutine38 & 0xFFFF
//  887 
//  888   MT_BuildAndSendZToolResponse(((uint8)MT_RPC_CMD_SRSP | (uint8)MT_RPC_SYS_AF),
//  889                                                                 MT_AF_DATA_STORE, 1, &rtrn);
??CrossCallReturnLabel_63:
        MOV     R3,#0x1
        MOV     R2,#0x11
        MOV     R1,#0x64
        LCALL   ??MT_BuildAndSendZToolResponse?relay
//  890 }
        MOV     A,#0x1
        LJMP    ?Subroutine1 & 0xFFFF
        CFI EndBlock cfiBlock436

        RSEG BANKED_CODE:CODE:NOROOT(0)
?Subroutine46:
        CFI Block cfiCond437 Using cfiCommon0
        CFI NoFunction
        CFI Conditional ??CrossCallReturnLabel_90
        CFI R6 load(1, XDATA, add(CFA_XSP16, literal(-16)))
        CFI VB load(1, XDATA, add(CFA_XSP16, literal(-15)))
        CFI V0 load(1, XDATA, add(CFA_XSP16, literal(-14)))
        CFI V1 load(1, XDATA, add(CFA_XSP16, literal(-13)))
        CFI V2 load(1, XDATA, add(CFA_XSP16, literal(-12)))
        CFI V3 load(1, XDATA, add(CFA_XSP16, literal(-11)))
        CFI V4 load(1, XDATA, add(CFA_XSP16, literal(-10)))
        CFI V5 load(1, XDATA, add(CFA_XSP16, literal(-9)))
        CFI V6 load(1, XDATA, add(CFA_XSP16, literal(-8)))
        CFI V7 load(1, XDATA, add(CFA_XSP16, literal(-7)))
        CFI R7 load(1, XDATA, add(CFA_XSP16, literal(-6)))
        CFI ?RET_LOW load(1, XDATA, add(CFA_XSP16, literal(-5)))
        CFI ?RET_HIGH load(1, XDATA, add(CFA_XSP16, literal(-4)))
        CFI ?BRET_EXT load(1, XDATA, add(CFA_XSP16, literal(-3)))
        CFI DPL0 load(1, XDATA, add(CFA_XSP16, literal(-2)))
        CFI DPH0 load(1, XDATA, add(CFA_XSP16, literal(-1)))
        CFI CFA_SP SP+0
        CFI CFA_XSP16 add(XSP16, 17)
        CFI Block cfiCond438 Using cfiCommon0
        CFI (cfiCond438) NoFunction
        CFI (cfiCond438) Conditional ??CrossCallReturnLabel_91
        CFI (cfiCond438) R6 load(1, XDATA, add(CFA_XSP16, literal(-16)))
        CFI (cfiCond438) VB load(1, XDATA, add(CFA_XSP16, literal(-15)))
        CFI (cfiCond438) V0 load(1, XDATA, add(CFA_XSP16, literal(-14)))
        CFI (cfiCond438) V1 load(1, XDATA, add(CFA_XSP16, literal(-13)))
        CFI (cfiCond438) V2 load(1, XDATA, add(CFA_XSP16, literal(-12)))
        CFI (cfiCond438) V3 load(1, XDATA, add(CFA_XSP16, literal(-11)))
        CFI (cfiCond438) V4 load(1, XDATA, add(CFA_XSP16, literal(-10)))
        CFI (cfiCond438) V5 load(1, XDATA, add(CFA_XSP16, literal(-9)))
        CFI (cfiCond438) V6 load(1, XDATA, add(CFA_XSP16, literal(-8)))
        CFI (cfiCond438) V7 load(1, XDATA, add(CFA_XSP16, literal(-7)))
        CFI (cfiCond438) R7 load(1, XDATA, add(CFA_XSP16, literal(-6)))
        CFI (cfiCond438) ?RET_LOW load(1, XDATA, add(CFA_XSP16, literal(-5)))
        CFI (cfiCond438) ?RET_HIGH load(1, XDATA, add(CFA_XSP16, literal(-4)))
        CFI (cfiCond438) ?BRET_EXT load(1, XDATA, add(CFA_XSP16, literal(-3)))
        CFI (cfiCond438) DPL0 load(1, XDATA, add(CFA_XSP16, literal(-2)))
        CFI (cfiCond438) DPH0 load(1, XDATA, add(CFA_XSP16, literal(-1)))
        CFI (cfiCond438) CFA_SP SP+0
        CFI (cfiCond438) CFA_XSP16 add(XSP16, 17)
        CFI Block cfiPicker439 Using cfiCommon1
        CFI (cfiPicker439) NoFunction
        CFI (cfiPicker439) Picker
        MOV     A,R2
        ADD     A,#0x3
        INC     R2
        INC     R2
        INC     R2
        MOV     A,R3
        ADDC    A,#0x0
        MOV     R3,A
        RET
        CFI EndBlock cfiCond437
        CFI EndBlock cfiCond438
        CFI EndBlock cfiPicker439

        RSEG BANKED_CODE:CODE:NOROOT(0)
?Subroutine38:
        CFI Block cfiCond440 Using cfiCommon0
        CFI NoFunction
        CFI Conditional ??CrossCallReturnLabel_62
        CFI DPL0 Frame(CFA_SP, 4)
        CFI DPH0 Frame(CFA_SP, 5)
        CFI CFA_SP SP+-5
        CFI CFA_XSP16 add(XSP16, 3)
        CFI Block cfiCond441 Using cfiCommon0
        CFI (cfiCond441) NoFunction
        CFI (cfiCond441) Conditional ??CrossCallReturnLabel_63
        CFI (cfiCond441) R6 load(1, XDATA, add(CFA_XSP16, literal(-16)))
        CFI (cfiCond441) VB load(1, XDATA, add(CFA_XSP16, literal(-15)))
        CFI (cfiCond441) V0 load(1, XDATA, add(CFA_XSP16, literal(-14)))
        CFI (cfiCond441) V1 load(1, XDATA, add(CFA_XSP16, literal(-13)))
        CFI (cfiCond441) V2 load(1, XDATA, add(CFA_XSP16, literal(-12)))
        CFI (cfiCond441) V3 load(1, XDATA, add(CFA_XSP16, literal(-11)))
        CFI (cfiCond441) V4 load(1, XDATA, add(CFA_XSP16, literal(-10)))
        CFI (cfiCond441) V5 load(1, XDATA, add(CFA_XSP16, literal(-9)))
        CFI (cfiCond441) V6 load(1, XDATA, add(CFA_XSP16, literal(-8)))
        CFI (cfiCond441) V7 load(1, XDATA, add(CFA_XSP16, literal(-7)))
        CFI (cfiCond441) R7 load(1, XDATA, add(CFA_XSP16, literal(-6)))
        CFI (cfiCond441) ?RET_LOW load(1, XDATA, add(CFA_XSP16, literal(-5)))
        CFI (cfiCond441) ?RET_HIGH load(1, XDATA, add(CFA_XSP16, literal(-4)))
        CFI (cfiCond441) ?BRET_EXT load(1, XDATA, add(CFA_XSP16, literal(-3)))
        CFI (cfiCond441) DPL0 load(1, XDATA, add(CFA_XSP16, literal(-2)))
        CFI (cfiCond441) DPH0 load(1, XDATA, add(CFA_XSP16, literal(-1)))
        CFI (cfiCond441) CFA_SP SP+0
        CFI (cfiCond441) CFA_XSP16 add(XSP16, 17)
        CFI Block cfiPicker442 Using cfiCommon1
        CFI (cfiPicker442) NoFunction
        CFI (cfiPicker442) Picker
        MOVX    @DPTR,A
        ; Setup parameters for call to function MT_BuildAndSendZToolResponse
        ; Setup parameters for call to function MT_BuildAndSendZToolResponse
        MOV     DPL,?XSP + 0
        MOV     DPH,?XSP + 1
        MOV     R4,DPL
        MOV     R5,DPH
        RET
        CFI EndBlock cfiCond440
        CFI EndBlock cfiCond441
        CFI EndBlock cfiPicker442

        RSEG BANKED_CODE:CODE:NOROOT(0)
?Subroutine25:
        CFI Block cfiCond443 Using cfiCommon0
        CFI NoFunction
        CFI Conditional ??CrossCallReturnLabel_205
        CFI R6 load(1, XDATA, add(CFA_XSP16, literal(-16)))
        CFI VB load(1, XDATA, add(CFA_XSP16, literal(-15)))
        CFI V0 load(1, XDATA, add(CFA_XSP16, literal(-14)))
        CFI V1 load(1, XDATA, add(CFA_XSP16, literal(-13)))
        CFI V2 load(1, XDATA, add(CFA_XSP16, literal(-12)))
        CFI V3 load(1, XDATA, add(CFA_XSP16, literal(-11)))
        CFI V4 load(1, XDATA, add(CFA_XSP16, literal(-10)))
        CFI V5 load(1, XDATA, add(CFA_XSP16, literal(-9)))
        CFI V6 load(1, XDATA, add(CFA_XSP16, literal(-8)))
        CFI V7 load(1, XDATA, add(CFA_XSP16, literal(-7)))
        CFI R7 load(1, XDATA, add(CFA_XSP16, literal(-6)))
        CFI ?RET_LOW load(1, XDATA, add(CFA_XSP16, literal(-5)))
        CFI ?RET_HIGH load(1, XDATA, add(CFA_XSP16, literal(-4)))
        CFI ?BRET_EXT load(1, XDATA, add(CFA_XSP16, literal(-3)))
        CFI DPL0 load(1, XDATA, add(CFA_XSP16, literal(-2)))
        CFI DPH0 load(1, XDATA, add(CFA_XSP16, literal(-1)))
        CFI CFA_SP SP+0
        CFI CFA_XSP16 add(XSP16, 38)
        CFI Block cfiCond444 Using cfiCommon0
        CFI (cfiCond444) NoFunction
        CFI (cfiCond444) Conditional ??CrossCallReturnLabel_206
        CFI (cfiCond444) R6 load(1, XDATA, add(CFA_XSP16, literal(-16)))
        CFI (cfiCond444) VB load(1, XDATA, add(CFA_XSP16, literal(-15)))
        CFI (cfiCond444) V0 load(1, XDATA, add(CFA_XSP16, literal(-14)))
        CFI (cfiCond444) V1 load(1, XDATA, add(CFA_XSP16, literal(-13)))
        CFI (cfiCond444) V2 load(1, XDATA, add(CFA_XSP16, literal(-12)))
        CFI (cfiCond444) V3 load(1, XDATA, add(CFA_XSP16, literal(-11)))
        CFI (cfiCond444) V4 load(1, XDATA, add(CFA_XSP16, literal(-10)))
        CFI (cfiCond444) V5 load(1, XDATA, add(CFA_XSP16, literal(-9)))
        CFI (cfiCond444) V6 load(1, XDATA, add(CFA_XSP16, literal(-8)))
        CFI (cfiCond444) V7 load(1, XDATA, add(CFA_XSP16, literal(-7)))
        CFI (cfiCond444) R7 load(1, XDATA, add(CFA_XSP16, literal(-6)))
        CFI (cfiCond444) ?RET_LOW load(1, XDATA, add(CFA_XSP16, literal(-5)))
        CFI (cfiCond444) ?RET_HIGH load(1, XDATA, add(CFA_XSP16, literal(-4)))
        CFI (cfiCond444) ?BRET_EXT load(1, XDATA, add(CFA_XSP16, literal(-3)))
        CFI (cfiCond444) DPL0 load(1, XDATA, add(CFA_XSP16, literal(-2)))
        CFI (cfiCond444) DPH0 load(1, XDATA, add(CFA_XSP16, literal(-1)))
        CFI (cfiCond444) CFA_SP SP+0
        CFI (cfiCond444) CFA_XSP16 add(XSP16, 26)
        CFI Block cfiPicker445 Using cfiCommon1
        CFI (cfiPicker445) NoFunction
        CFI (cfiPicker445) Picker
        MOV     DPTR,#pMtAfDataReq
        MOVX    A,@DPTR
        ADD     A,#0x2
        CFI EndBlock cfiCond443
        CFI EndBlock cfiCond444
        CFI EndBlock cfiPicker445
        REQUIRE ??Subroutine79_0
        ; // Fall through to label ??Subroutine79_0

        RSEG BANKED_CODE:CODE:NOROOT(0)
??Subroutine79_0:
        CFI Block cfiCond446 Using cfiCommon0
        CFI NoFunction
        CFI Conditional ??CrossCallReturnLabel_200
        CFI R6 load(1, XDATA, add(CFA_XSP16, literal(-16)))
        CFI VB load(1, XDATA, add(CFA_XSP16, literal(-15)))
        CFI V0 load(1, XDATA, add(CFA_XSP16, literal(-14)))
        CFI V1 load(1, XDATA, add(CFA_XSP16, literal(-13)))
        CFI V2 load(1, XDATA, add(CFA_XSP16, literal(-12)))
        CFI V3 load(1, XDATA, add(CFA_XSP16, literal(-11)))
        CFI V4 load(1, XDATA, add(CFA_XSP16, literal(-10)))
        CFI V5 load(1, XDATA, add(CFA_XSP16, literal(-9)))
        CFI V6 load(1, XDATA, add(CFA_XSP16, literal(-8)))
        CFI V7 load(1, XDATA, add(CFA_XSP16, literal(-7)))
        CFI R7 load(1, XDATA, add(CFA_XSP16, literal(-6)))
        CFI ?RET_LOW load(1, XDATA, add(CFA_XSP16, literal(-5)))
        CFI ?RET_HIGH load(1, XDATA, add(CFA_XSP16, literal(-4)))
        CFI ?BRET_EXT load(1, XDATA, add(CFA_XSP16, literal(-3)))
        CFI DPL0 load(1, XDATA, add(CFA_XSP16, literal(-2)))
        CFI DPH0 load(1, XDATA, add(CFA_XSP16, literal(-1)))
        CFI CFA_SP SP+0
        CFI CFA_XSP16 add(XSP16, 25)
        CFI Block cfiCond447 Using cfiCommon0
        CFI (cfiCond447) NoFunction
        CFI (cfiCond447) Conditional ??CrossCallReturnLabel_201
        CFI (cfiCond447) R6 load(1, XDATA, add(CFA_XSP16, literal(-16)))
        CFI (cfiCond447) VB load(1, XDATA, add(CFA_XSP16, literal(-15)))
        CFI (cfiCond447) V0 load(1, XDATA, add(CFA_XSP16, literal(-14)))
        CFI (cfiCond447) V1 load(1, XDATA, add(CFA_XSP16, literal(-13)))
        CFI (cfiCond447) V2 load(1, XDATA, add(CFA_XSP16, literal(-12)))
        CFI (cfiCond447) V3 load(1, XDATA, add(CFA_XSP16, literal(-11)))
        CFI (cfiCond447) V4 load(1, XDATA, add(CFA_XSP16, literal(-10)))
        CFI (cfiCond447) V5 load(1, XDATA, add(CFA_XSP16, literal(-9)))
        CFI (cfiCond447) V6 load(1, XDATA, add(CFA_XSP16, literal(-8)))
        CFI (cfiCond447) V7 load(1, XDATA, add(CFA_XSP16, literal(-7)))
        CFI (cfiCond447) R7 load(1, XDATA, add(CFA_XSP16, literal(-6)))
        CFI (cfiCond447) ?RET_LOW load(1, XDATA, add(CFA_XSP16, literal(-5)))
        CFI (cfiCond447) ?RET_HIGH load(1, XDATA, add(CFA_XSP16, literal(-4)))
        CFI (cfiCond447) ?BRET_EXT load(1, XDATA, add(CFA_XSP16, literal(-3)))
        CFI (cfiCond447) DPL0 load(1, XDATA, add(CFA_XSP16, literal(-2)))
        CFI (cfiCond447) DPH0 load(1, XDATA, add(CFA_XSP16, literal(-1)))
        CFI (cfiCond447) CFA_SP SP+0
        CFI (cfiCond447) CFA_XSP16 add(XSP16, 25)
        CFI Block cfiCond448 Using cfiCommon0
        CFI (cfiCond448) NoFunction
        CFI (cfiCond448) Conditional ??CrossCallReturnLabel_202
        CFI (cfiCond448) R6 load(1, XDATA, add(CFA_XSP16, literal(-16)))
        CFI (cfiCond448) VB load(1, XDATA, add(CFA_XSP16, literal(-15)))
        CFI (cfiCond448) V0 load(1, XDATA, add(CFA_XSP16, literal(-14)))
        CFI (cfiCond448) V1 load(1, XDATA, add(CFA_XSP16, literal(-13)))
        CFI (cfiCond448) V2 load(1, XDATA, add(CFA_XSP16, literal(-12)))
        CFI (cfiCond448) V3 load(1, XDATA, add(CFA_XSP16, literal(-11)))
        CFI (cfiCond448) V4 load(1, XDATA, add(CFA_XSP16, literal(-10)))
        CFI (cfiCond448) V5 load(1, XDATA, add(CFA_XSP16, literal(-9)))
        CFI (cfiCond448) V6 load(1, XDATA, add(CFA_XSP16, literal(-8)))
        CFI (cfiCond448) V7 load(1, XDATA, add(CFA_XSP16, literal(-7)))
        CFI (cfiCond448) R7 load(1, XDATA, add(CFA_XSP16, literal(-6)))
        CFI (cfiCond448) ?RET_LOW load(1, XDATA, add(CFA_XSP16, literal(-5)))
        CFI (cfiCond448) ?RET_HIGH load(1, XDATA, add(CFA_XSP16, literal(-4)))
        CFI (cfiCond448) ?BRET_EXT load(1, XDATA, add(CFA_XSP16, literal(-3)))
        CFI (cfiCond448) DPL0 load(1, XDATA, add(CFA_XSP16, literal(-2)))
        CFI (cfiCond448) DPH0 load(1, XDATA, add(CFA_XSP16, literal(-1)))
        CFI (cfiCond448) CFA_SP SP+0
        CFI (cfiCond448) CFA_XSP16 add(XSP16, 25)
        CFI Block cfiCond449 Using cfiCommon0
        CFI (cfiCond449) NoFunction
        CFI (cfiCond449) Conditional ??CrossCallReturnLabel_203
        CFI (cfiCond449) R6 load(1, XDATA, add(CFA_XSP16, literal(-16)))
        CFI (cfiCond449) VB load(1, XDATA, add(CFA_XSP16, literal(-15)))
        CFI (cfiCond449) V0 load(1, XDATA, add(CFA_XSP16, literal(-14)))
        CFI (cfiCond449) V1 load(1, XDATA, add(CFA_XSP16, literal(-13)))
        CFI (cfiCond449) V2 load(1, XDATA, add(CFA_XSP16, literal(-12)))
        CFI (cfiCond449) V3 load(1, XDATA, add(CFA_XSP16, literal(-11)))
        CFI (cfiCond449) V4 load(1, XDATA, add(CFA_XSP16, literal(-10)))
        CFI (cfiCond449) V5 load(1, XDATA, add(CFA_XSP16, literal(-9)))
        CFI (cfiCond449) V6 load(1, XDATA, add(CFA_XSP16, literal(-8)))
        CFI (cfiCond449) V7 load(1, XDATA, add(CFA_XSP16, literal(-7)))
        CFI (cfiCond449) R7 load(1, XDATA, add(CFA_XSP16, literal(-6)))
        CFI (cfiCond449) ?RET_LOW load(1, XDATA, add(CFA_XSP16, literal(-5)))
        CFI (cfiCond449) ?RET_HIGH load(1, XDATA, add(CFA_XSP16, literal(-4)))
        CFI (cfiCond449) ?BRET_EXT load(1, XDATA, add(CFA_XSP16, literal(-3)))
        CFI (cfiCond449) DPL0 load(1, XDATA, add(CFA_XSP16, literal(-2)))
        CFI (cfiCond449) DPH0 load(1, XDATA, add(CFA_XSP16, literal(-1)))
        CFI (cfiCond449) CFA_SP SP+0
        CFI (cfiCond449) CFA_XSP16 add(XSP16, 25)
        CFI Block cfiCond450 Using cfiCommon0
        CFI (cfiCond450) NoFunction
        CFI (cfiCond450) Conditional ??CrossCallReturnLabel_204
        CFI (cfiCond450) R6 load(1, XDATA, add(CFA_XSP16, literal(-16)))
        CFI (cfiCond450) VB load(1, XDATA, add(CFA_XSP16, literal(-15)))
        CFI (cfiCond450) V0 load(1, XDATA, add(CFA_XSP16, literal(-14)))
        CFI (cfiCond450) V1 load(1, XDATA, add(CFA_XSP16, literal(-13)))
        CFI (cfiCond450) V2 load(1, XDATA, add(CFA_XSP16, literal(-12)))
        CFI (cfiCond450) V3 load(1, XDATA, add(CFA_XSP16, literal(-11)))
        CFI (cfiCond450) V4 load(1, XDATA, add(CFA_XSP16, literal(-10)))
        CFI (cfiCond450) V5 load(1, XDATA, add(CFA_XSP16, literal(-9)))
        CFI (cfiCond450) V6 load(1, XDATA, add(CFA_XSP16, literal(-8)))
        CFI (cfiCond450) V7 load(1, XDATA, add(CFA_XSP16, literal(-7)))
        CFI (cfiCond450) R7 load(1, XDATA, add(CFA_XSP16, literal(-6)))
        CFI (cfiCond450) ?RET_LOW load(1, XDATA, add(CFA_XSP16, literal(-5)))
        CFI (cfiCond450) ?RET_HIGH load(1, XDATA, add(CFA_XSP16, literal(-4)))
        CFI (cfiCond450) ?BRET_EXT load(1, XDATA, add(CFA_XSP16, literal(-3)))
        CFI (cfiCond450) DPL0 load(1, XDATA, add(CFA_XSP16, literal(-2)))
        CFI (cfiCond450) DPH0 load(1, XDATA, add(CFA_XSP16, literal(-1)))
        CFI (cfiCond450) CFA_SP SP+0
        CFI (cfiCond450) CFA_XSP16 add(XSP16, 26)
        CFI Block cfiCond451 Using cfiCommon0
        CFI (cfiCond451) NoFunction
        CFI (cfiCond451) Conditional ??CrossCallReturnLabel_205
        CFI (cfiCond451) R6 load(1, XDATA, add(CFA_XSP16, literal(-16)))
        CFI (cfiCond451) VB load(1, XDATA, add(CFA_XSP16, literal(-15)))
        CFI (cfiCond451) V0 load(1, XDATA, add(CFA_XSP16, literal(-14)))
        CFI (cfiCond451) V1 load(1, XDATA, add(CFA_XSP16, literal(-13)))
        CFI (cfiCond451) V2 load(1, XDATA, add(CFA_XSP16, literal(-12)))
        CFI (cfiCond451) V3 load(1, XDATA, add(CFA_XSP16, literal(-11)))
        CFI (cfiCond451) V4 load(1, XDATA, add(CFA_XSP16, literal(-10)))
        CFI (cfiCond451) V5 load(1, XDATA, add(CFA_XSP16, literal(-9)))
        CFI (cfiCond451) V6 load(1, XDATA, add(CFA_XSP16, literal(-8)))
        CFI (cfiCond451) V7 load(1, XDATA, add(CFA_XSP16, literal(-7)))
        CFI (cfiCond451) R7 load(1, XDATA, add(CFA_XSP16, literal(-6)))
        CFI (cfiCond451) ?RET_LOW load(1, XDATA, add(CFA_XSP16, literal(-5)))
        CFI (cfiCond451) ?RET_HIGH load(1, XDATA, add(CFA_XSP16, literal(-4)))
        CFI (cfiCond451) ?BRET_EXT load(1, XDATA, add(CFA_XSP16, literal(-3)))
        CFI (cfiCond451) DPL0 load(1, XDATA, add(CFA_XSP16, literal(-2)))
        CFI (cfiCond451) DPH0 load(1, XDATA, add(CFA_XSP16, literal(-1)))
        CFI (cfiCond451) CFA_SP SP+0
        CFI (cfiCond451) CFA_XSP16 add(XSP16, 38)
        CFI Block cfiCond452 Using cfiCommon0
        CFI (cfiCond452) NoFunction
        CFI (cfiCond452) Conditional ??CrossCallReturnLabel_206
        CFI (cfiCond452) R6 load(1, XDATA, add(CFA_XSP16, literal(-16)))
        CFI (cfiCond452) VB load(1, XDATA, add(CFA_XSP16, literal(-15)))
        CFI (cfiCond452) V0 load(1, XDATA, add(CFA_XSP16, literal(-14)))
        CFI (cfiCond452) V1 load(1, XDATA, add(CFA_XSP16, literal(-13)))
        CFI (cfiCond452) V2 load(1, XDATA, add(CFA_XSP16, literal(-12)))
        CFI (cfiCond452) V3 load(1, XDATA, add(CFA_XSP16, literal(-11)))
        CFI (cfiCond452) V4 load(1, XDATA, add(CFA_XSP16, literal(-10)))
        CFI (cfiCond452) V5 load(1, XDATA, add(CFA_XSP16, literal(-9)))
        CFI (cfiCond452) V6 load(1, XDATA, add(CFA_XSP16, literal(-8)))
        CFI (cfiCond452) V7 load(1, XDATA, add(CFA_XSP16, literal(-7)))
        CFI (cfiCond452) R7 load(1, XDATA, add(CFA_XSP16, literal(-6)))
        CFI (cfiCond452) ?RET_LOW load(1, XDATA, add(CFA_XSP16, literal(-5)))
        CFI (cfiCond452) ?RET_HIGH load(1, XDATA, add(CFA_XSP16, literal(-4)))
        CFI (cfiCond452) ?BRET_EXT load(1, XDATA, add(CFA_XSP16, literal(-3)))
        CFI (cfiCond452) DPL0 load(1, XDATA, add(CFA_XSP16, literal(-2)))
        CFI (cfiCond452) DPH0 load(1, XDATA, add(CFA_XSP16, literal(-1)))
        CFI (cfiCond452) CFA_SP SP+0
        CFI (cfiCond452) CFA_XSP16 add(XSP16, 26)
        CFI Block cfiPicker453 Using cfiCommon1
        CFI (cfiPicker453) NoFunction
        CFI (cfiPicker453) Picker
        MOV     R2,A
        INC     DPTR
        MOVX    A,@DPTR
        ADDC    A,#0x0
        MOV     R3,A
        RET
        CFI EndBlock cfiCond446
        CFI EndBlock cfiCond447
        CFI EndBlock cfiCond448
        CFI EndBlock cfiCond449
        CFI EndBlock cfiCond450
        CFI EndBlock cfiCond451
        CFI EndBlock cfiCond452
        CFI EndBlock cfiPicker453

        RSEG BANKED_CODE:CODE:NOROOT(0)
?Subroutine15:
        CFI Block cfiCond454 Using cfiCommon0
        CFI NoFunction
        CFI Conditional ??CrossCallReturnLabel_18
        CFI R6 load(1, XDATA, add(CFA_XSP16, literal(-16)))
        CFI VB load(1, XDATA, add(CFA_XSP16, literal(-15)))
        CFI V0 load(1, XDATA, add(CFA_XSP16, literal(-14)))
        CFI V1 load(1, XDATA, add(CFA_XSP16, literal(-13)))
        CFI V2 load(1, XDATA, add(CFA_XSP16, literal(-12)))
        CFI V3 load(1, XDATA, add(CFA_XSP16, literal(-11)))
        CFI V4 load(1, XDATA, add(CFA_XSP16, literal(-10)))
        CFI V5 load(1, XDATA, add(CFA_XSP16, literal(-9)))
        CFI V6 load(1, XDATA, add(CFA_XSP16, literal(-8)))
        CFI V7 load(1, XDATA, add(CFA_XSP16, literal(-7)))
        CFI R7 load(1, XDATA, add(CFA_XSP16, literal(-6)))
        CFI ?RET_LOW load(1, XDATA, add(CFA_XSP16, literal(-5)))
        CFI ?RET_HIGH load(1, XDATA, add(CFA_XSP16, literal(-4)))
        CFI ?BRET_EXT load(1, XDATA, add(CFA_XSP16, literal(-3)))
        CFI DPL0 load(1, XDATA, add(CFA_XSP16, literal(-2)))
        CFI DPH0 load(1, XDATA, add(CFA_XSP16, literal(-1)))
        CFI CFA_SP SP+0
        CFI CFA_XSP16 add(XSP16, 21)
        CFI Block cfiCond455 Using cfiCommon0
        CFI (cfiCond455) NoFunction
        CFI (cfiCond455) Conditional ??CrossCallReturnLabel_19
        CFI (cfiCond455) R6 load(1, XDATA, add(CFA_XSP16, literal(-16)))
        CFI (cfiCond455) VB load(1, XDATA, add(CFA_XSP16, literal(-15)))
        CFI (cfiCond455) V0 load(1, XDATA, add(CFA_XSP16, literal(-14)))
        CFI (cfiCond455) V1 load(1, XDATA, add(CFA_XSP16, literal(-13)))
        CFI (cfiCond455) V2 load(1, XDATA, add(CFA_XSP16, literal(-12)))
        CFI (cfiCond455) V3 load(1, XDATA, add(CFA_XSP16, literal(-11)))
        CFI (cfiCond455) V4 load(1, XDATA, add(CFA_XSP16, literal(-10)))
        CFI (cfiCond455) V5 load(1, XDATA, add(CFA_XSP16, literal(-9)))
        CFI (cfiCond455) V6 load(1, XDATA, add(CFA_XSP16, literal(-8)))
        CFI (cfiCond455) V7 load(1, XDATA, add(CFA_XSP16, literal(-7)))
        CFI (cfiCond455) R7 load(1, XDATA, add(CFA_XSP16, literal(-6)))
        CFI (cfiCond455) ?RET_LOW load(1, XDATA, add(CFA_XSP16, literal(-5)))
        CFI (cfiCond455) ?RET_HIGH load(1, XDATA, add(CFA_XSP16, literal(-4)))
        CFI (cfiCond455) ?BRET_EXT load(1, XDATA, add(CFA_XSP16, literal(-3)))
        CFI (cfiCond455) DPL0 load(1, XDATA, add(CFA_XSP16, literal(-2)))
        CFI (cfiCond455) DPH0 load(1, XDATA, add(CFA_XSP16, literal(-1)))
        CFI (cfiCond455) CFA_SP SP+0
        CFI (cfiCond455) CFA_XSP16 add(XSP16, 21)
        CFI Block cfiCond456 Using cfiCommon0
        CFI (cfiCond456) NoFunction
        CFI (cfiCond456) Conditional ??CrossCallReturnLabel_20
        CFI (cfiCond456) R6 load(1, XDATA, add(CFA_XSP16, literal(-16)))
        CFI (cfiCond456) VB load(1, XDATA, add(CFA_XSP16, literal(-15)))
        CFI (cfiCond456) V0 load(1, XDATA, add(CFA_XSP16, literal(-14)))
        CFI (cfiCond456) V1 load(1, XDATA, add(CFA_XSP16, literal(-13)))
        CFI (cfiCond456) V2 load(1, XDATA, add(CFA_XSP16, literal(-12)))
        CFI (cfiCond456) V3 load(1, XDATA, add(CFA_XSP16, literal(-11)))
        CFI (cfiCond456) V4 load(1, XDATA, add(CFA_XSP16, literal(-10)))
        CFI (cfiCond456) V5 load(1, XDATA, add(CFA_XSP16, literal(-9)))
        CFI (cfiCond456) V6 load(1, XDATA, add(CFA_XSP16, literal(-8)))
        CFI (cfiCond456) V7 load(1, XDATA, add(CFA_XSP16, literal(-7)))
        CFI (cfiCond456) R7 load(1, XDATA, add(CFA_XSP16, literal(-6)))
        CFI (cfiCond456) ?RET_LOW load(1, XDATA, add(CFA_XSP16, literal(-5)))
        CFI (cfiCond456) ?RET_HIGH load(1, XDATA, add(CFA_XSP16, literal(-4)))
        CFI (cfiCond456) ?BRET_EXT load(1, XDATA, add(CFA_XSP16, literal(-3)))
        CFI (cfiCond456) DPL0 load(1, XDATA, add(CFA_XSP16, literal(-2)))
        CFI (cfiCond456) DPH0 load(1, XDATA, add(CFA_XSP16, literal(-1)))
        CFI (cfiCond456) CFA_SP SP+0
        CFI (cfiCond456) CFA_XSP16 add(XSP16, 17)
        CFI Block cfiPicker457 Using cfiCommon1
        CFI (cfiPicker457) NoFunction
        CFI (cfiPicker457) Picker
        LCALL   ?Subroutine47 & 0xFFFF
??CrossCallReturnLabel_94:
        RET
        CFI EndBlock cfiCond454
        CFI EndBlock cfiCond455
        CFI EndBlock cfiCond456
        CFI EndBlock cfiPicker457

        RSEG BANKED_CODE:CODE:NOROOT(0)
?Subroutine47:
        CFI Block cfiCond458 Using cfiCommon0
        CFI NoFunction
        CFI Conditional ??CrossCallReturnLabel_92, ??CrossCallReturnLabel_12
        CFI R6 load(1, XDATA, add(CFA_XSP16, literal(-16)))
        CFI VB load(1, XDATA, add(CFA_XSP16, literal(-15)))
        CFI V0 load(1, XDATA, add(CFA_XSP16, literal(-14)))
        CFI V1 load(1, XDATA, add(CFA_XSP16, literal(-13)))
        CFI V2 load(1, XDATA, add(CFA_XSP16, literal(-12)))
        CFI V3 load(1, XDATA, add(CFA_XSP16, literal(-11)))
        CFI V4 load(1, XDATA, add(CFA_XSP16, literal(-10)))
        CFI V5 load(1, XDATA, add(CFA_XSP16, literal(-9)))
        CFI V6 load(1, XDATA, add(CFA_XSP16, literal(-8)))
        CFI V7 load(1, XDATA, add(CFA_XSP16, literal(-7)))
        CFI R7 load(1, XDATA, add(CFA_XSP16, literal(-6)))
        CFI ?RET_LOW load(1, XDATA, add(CFA_XSP16, literal(-5)))
        CFI ?RET_HIGH load(1, XDATA, add(CFA_XSP16, literal(-4)))
        CFI ?BRET_EXT load(1, XDATA, add(CFA_XSP16, literal(-3)))
        CFI DPL0 load(1, XDATA, add(CFA_XSP16, literal(-2)))
        CFI DPH0 load(1, XDATA, add(CFA_XSP16, literal(-1)))
        CFI CFA_SP SP+0
        CFI CFA_XSP16 add(XSP16, 25)
        CFI Block cfiCond459 Using cfiCommon0
        CFI (cfiCond459) NoFunction
        CFI (cfiCond459) Conditional ??CrossCallReturnLabel_92, ??CrossCallReturnLabel_13
        CFI (cfiCond459) R6 load(1, XDATA, add(CFA_XSP16, literal(-16)))
        CFI (cfiCond459) VB load(1, XDATA, add(CFA_XSP16, literal(-15)))
        CFI (cfiCond459) V0 load(1, XDATA, add(CFA_XSP16, literal(-14)))
        CFI (cfiCond459) V1 load(1, XDATA, add(CFA_XSP16, literal(-13)))
        CFI (cfiCond459) V2 load(1, XDATA, add(CFA_XSP16, literal(-12)))
        CFI (cfiCond459) V3 load(1, XDATA, add(CFA_XSP16, literal(-11)))
        CFI (cfiCond459) V4 load(1, XDATA, add(CFA_XSP16, literal(-10)))
        CFI (cfiCond459) V5 load(1, XDATA, add(CFA_XSP16, literal(-9)))
        CFI (cfiCond459) V6 load(1, XDATA, add(CFA_XSP16, literal(-8)))
        CFI (cfiCond459) V7 load(1, XDATA, add(CFA_XSP16, literal(-7)))
        CFI (cfiCond459) R7 load(1, XDATA, add(CFA_XSP16, literal(-6)))
        CFI (cfiCond459) ?RET_LOW load(1, XDATA, add(CFA_XSP16, literal(-5)))
        CFI (cfiCond459) ?RET_HIGH load(1, XDATA, add(CFA_XSP16, literal(-4)))
        CFI (cfiCond459) ?BRET_EXT load(1, XDATA, add(CFA_XSP16, literal(-3)))
        CFI (cfiCond459) DPL0 load(1, XDATA, add(CFA_XSP16, literal(-2)))
        CFI (cfiCond459) DPH0 load(1, XDATA, add(CFA_XSP16, literal(-1)))
        CFI (cfiCond459) CFA_SP SP+0
        CFI (cfiCond459) CFA_XSP16 add(XSP16, 25)
        CFI Block cfiCond460 Using cfiCommon0
        CFI (cfiCond460) NoFunction
        CFI (cfiCond460) Conditional ??CrossCallReturnLabel_93, ??CrossCallReturnLabel_16
        CFI (cfiCond460) R6 load(1, XDATA, add(CFA_XSP16, literal(-16)))
        CFI (cfiCond460) VB load(1, XDATA, add(CFA_XSP16, literal(-15)))
        CFI (cfiCond460) V0 load(1, XDATA, add(CFA_XSP16, literal(-14)))
        CFI (cfiCond460) V1 load(1, XDATA, add(CFA_XSP16, literal(-13)))
        CFI (cfiCond460) V2 load(1, XDATA, add(CFA_XSP16, literal(-12)))
        CFI (cfiCond460) V3 load(1, XDATA, add(CFA_XSP16, literal(-11)))
        CFI (cfiCond460) V4 load(1, XDATA, add(CFA_XSP16, literal(-10)))
        CFI (cfiCond460) V5 load(1, XDATA, add(CFA_XSP16, literal(-9)))
        CFI (cfiCond460) V6 load(1, XDATA, add(CFA_XSP16, literal(-8)))
        CFI (cfiCond460) V7 load(1, XDATA, add(CFA_XSP16, literal(-7)))
        CFI (cfiCond460) R7 load(1, XDATA, add(CFA_XSP16, literal(-6)))
        CFI (cfiCond460) ?RET_LOW load(1, XDATA, add(CFA_XSP16, literal(-5)))
        CFI (cfiCond460) ?RET_HIGH load(1, XDATA, add(CFA_XSP16, literal(-4)))
        CFI (cfiCond460) ?BRET_EXT load(1, XDATA, add(CFA_XSP16, literal(-3)))
        CFI (cfiCond460) DPL0 load(1, XDATA, add(CFA_XSP16, literal(-2)))
        CFI (cfiCond460) DPH0 load(1, XDATA, add(CFA_XSP16, literal(-1)))
        CFI (cfiCond460) CFA_SP SP+0
        CFI (cfiCond460) CFA_XSP16 add(XSP16, 21)
        CFI Block cfiCond461 Using cfiCommon0
        CFI (cfiCond461) NoFunction
        CFI (cfiCond461) Conditional ??CrossCallReturnLabel_93, ??CrossCallReturnLabel_17
        CFI (cfiCond461) R6 load(1, XDATA, add(CFA_XSP16, literal(-16)))
        CFI (cfiCond461) VB load(1, XDATA, add(CFA_XSP16, literal(-15)))
        CFI (cfiCond461) V0 load(1, XDATA, add(CFA_XSP16, literal(-14)))
        CFI (cfiCond461) V1 load(1, XDATA, add(CFA_XSP16, literal(-13)))
        CFI (cfiCond461) V2 load(1, XDATA, add(CFA_XSP16, literal(-12)))
        CFI (cfiCond461) V3 load(1, XDATA, add(CFA_XSP16, literal(-11)))
        CFI (cfiCond461) V4 load(1, XDATA, add(CFA_XSP16, literal(-10)))
        CFI (cfiCond461) V5 load(1, XDATA, add(CFA_XSP16, literal(-9)))
        CFI (cfiCond461) V6 load(1, XDATA, add(CFA_XSP16, literal(-8)))
        CFI (cfiCond461) V7 load(1, XDATA, add(CFA_XSP16, literal(-7)))
        CFI (cfiCond461) R7 load(1, XDATA, add(CFA_XSP16, literal(-6)))
        CFI (cfiCond461) ?RET_LOW load(1, XDATA, add(CFA_XSP16, literal(-5)))
        CFI (cfiCond461) ?RET_HIGH load(1, XDATA, add(CFA_XSP16, literal(-4)))
        CFI (cfiCond461) ?BRET_EXT load(1, XDATA, add(CFA_XSP16, literal(-3)))
        CFI (cfiCond461) DPL0 load(1, XDATA, add(CFA_XSP16, literal(-2)))
        CFI (cfiCond461) DPH0 load(1, XDATA, add(CFA_XSP16, literal(-1)))
        CFI (cfiCond461) CFA_SP SP+0
        CFI (cfiCond461) CFA_XSP16 add(XSP16, 21)
        CFI Block cfiCond462 Using cfiCommon0
        CFI (cfiCond462) NoFunction
        CFI (cfiCond462) Conditional ??CrossCallReturnLabel_94, ??CrossCallReturnLabel_18
        CFI (cfiCond462) R6 load(1, XDATA, add(CFA_XSP16, literal(-16)))
        CFI (cfiCond462) VB load(1, XDATA, add(CFA_XSP16, literal(-15)))
        CFI (cfiCond462) V0 load(1, XDATA, add(CFA_XSP16, literal(-14)))
        CFI (cfiCond462) V1 load(1, XDATA, add(CFA_XSP16, literal(-13)))
        CFI (cfiCond462) V2 load(1, XDATA, add(CFA_XSP16, literal(-12)))
        CFI (cfiCond462) V3 load(1, XDATA, add(CFA_XSP16, literal(-11)))
        CFI (cfiCond462) V4 load(1, XDATA, add(CFA_XSP16, literal(-10)))
        CFI (cfiCond462) V5 load(1, XDATA, add(CFA_XSP16, literal(-9)))
        CFI (cfiCond462) V6 load(1, XDATA, add(CFA_XSP16, literal(-8)))
        CFI (cfiCond462) V7 load(1, XDATA, add(CFA_XSP16, literal(-7)))
        CFI (cfiCond462) R7 load(1, XDATA, add(CFA_XSP16, literal(-6)))
        CFI (cfiCond462) ?RET_LOW load(1, XDATA, add(CFA_XSP16, literal(-5)))
        CFI (cfiCond462) ?RET_HIGH load(1, XDATA, add(CFA_XSP16, literal(-4)))
        CFI (cfiCond462) ?BRET_EXT load(1, XDATA, add(CFA_XSP16, literal(-3)))
        CFI (cfiCond462) DPL0 load(1, XDATA, add(CFA_XSP16, literal(-2)))
        CFI (cfiCond462) DPH0 load(1, XDATA, add(CFA_XSP16, literal(-1)))
        CFI (cfiCond462) CFA_SP SP+0
        CFI (cfiCond462) CFA_XSP16 add(XSP16, 21)
        CFI Block cfiCond463 Using cfiCommon0
        CFI (cfiCond463) NoFunction
        CFI (cfiCond463) Conditional ??CrossCallReturnLabel_94, ??CrossCallReturnLabel_19
        CFI (cfiCond463) R6 load(1, XDATA, add(CFA_XSP16, literal(-16)))
        CFI (cfiCond463) VB load(1, XDATA, add(CFA_XSP16, literal(-15)))
        CFI (cfiCond463) V0 load(1, XDATA, add(CFA_XSP16, literal(-14)))
        CFI (cfiCond463) V1 load(1, XDATA, add(CFA_XSP16, literal(-13)))
        CFI (cfiCond463) V2 load(1, XDATA, add(CFA_XSP16, literal(-12)))
        CFI (cfiCond463) V3 load(1, XDATA, add(CFA_XSP16, literal(-11)))
        CFI (cfiCond463) V4 load(1, XDATA, add(CFA_XSP16, literal(-10)))
        CFI (cfiCond463) V5 load(1, XDATA, add(CFA_XSP16, literal(-9)))
        CFI (cfiCond463) V6 load(1, XDATA, add(CFA_XSP16, literal(-8)))
        CFI (cfiCond463) V7 load(1, XDATA, add(CFA_XSP16, literal(-7)))
        CFI (cfiCond463) R7 load(1, XDATA, add(CFA_XSP16, literal(-6)))
        CFI (cfiCond463) ?RET_LOW load(1, XDATA, add(CFA_XSP16, literal(-5)))
        CFI (cfiCond463) ?RET_HIGH load(1, XDATA, add(CFA_XSP16, literal(-4)))
        CFI (cfiCond463) ?BRET_EXT load(1, XDATA, add(CFA_XSP16, literal(-3)))
        CFI (cfiCond463) DPL0 load(1, XDATA, add(CFA_XSP16, literal(-2)))
        CFI (cfiCond463) DPH0 load(1, XDATA, add(CFA_XSP16, literal(-1)))
        CFI (cfiCond463) CFA_SP SP+0
        CFI (cfiCond463) CFA_XSP16 add(XSP16, 21)
        CFI Block cfiCond464 Using cfiCommon0
        CFI (cfiCond464) NoFunction
        CFI (cfiCond464) Conditional ??CrossCallReturnLabel_94, ??CrossCallReturnLabel_20
        CFI (cfiCond464) R6 load(1, XDATA, add(CFA_XSP16, literal(-16)))
        CFI (cfiCond464) VB load(1, XDATA, add(CFA_XSP16, literal(-15)))
        CFI (cfiCond464) V0 load(1, XDATA, add(CFA_XSP16, literal(-14)))
        CFI (cfiCond464) V1 load(1, XDATA, add(CFA_XSP16, literal(-13)))
        CFI (cfiCond464) V2 load(1, XDATA, add(CFA_XSP16, literal(-12)))
        CFI (cfiCond464) V3 load(1, XDATA, add(CFA_XSP16, literal(-11)))
        CFI (cfiCond464) V4 load(1, XDATA, add(CFA_XSP16, literal(-10)))
        CFI (cfiCond464) V5 load(1, XDATA, add(CFA_XSP16, literal(-9)))
        CFI (cfiCond464) V6 load(1, XDATA, add(CFA_XSP16, literal(-8)))
        CFI (cfiCond464) V7 load(1, XDATA, add(CFA_XSP16, literal(-7)))
        CFI (cfiCond464) R7 load(1, XDATA, add(CFA_XSP16, literal(-6)))
        CFI (cfiCond464) ?RET_LOW load(1, XDATA, add(CFA_XSP16, literal(-5)))
        CFI (cfiCond464) ?RET_HIGH load(1, XDATA, add(CFA_XSP16, literal(-4)))
        CFI (cfiCond464) ?BRET_EXT load(1, XDATA, add(CFA_XSP16, literal(-3)))
        CFI (cfiCond464) DPL0 load(1, XDATA, add(CFA_XSP16, literal(-2)))
        CFI (cfiCond464) DPH0 load(1, XDATA, add(CFA_XSP16, literal(-1)))
        CFI (cfiCond464) CFA_SP SP+0
        CFI (cfiCond464) CFA_XSP16 add(XSP16, 17)
        CFI Block cfiPicker465 Using cfiCommon1
        CFI (cfiPicker465) NoFunction
        CFI (cfiPicker465) Picker
        LCALL   ?Subroutine57 & 0xFFFF
??CrossCallReturnLabel_182:
        MOVX    A,@DPTR
        RET
        CFI EndBlock cfiCond458
        CFI EndBlock cfiCond459
        CFI EndBlock cfiCond460
        CFI EndBlock cfiCond461
        CFI EndBlock cfiCond462
        CFI EndBlock cfiCond463
        CFI EndBlock cfiCond464
        CFI EndBlock cfiPicker465

        RSEG BANKED_CODE:CODE:NOROOT(0)
?Subroutine13:
        CFI Block cfiCond466 Using cfiCommon0
        CFI NoFunction
        CFI Conditional ??CrossCallReturnLabel_14
        CFI R6 load(1, XDATA, add(CFA_XSP16, literal(-9)))
        CFI VB load(1, XDATA, add(CFA_XSP16, literal(-8)))
        CFI V0 load(1, XDATA, add(CFA_XSP16, literal(-7)))
        CFI R7 load(1, XDATA, add(CFA_XSP16, literal(-6)))
        CFI ?RET_LOW load(1, XDATA, add(CFA_XSP16, literal(-5)))
        CFI ?RET_HIGH load(1, XDATA, add(CFA_XSP16, literal(-4)))
        CFI ?BRET_EXT load(1, XDATA, add(CFA_XSP16, literal(-3)))
        CFI DPL0 load(1, XDATA, add(CFA_XSP16, literal(-2)))
        CFI DPH0 load(1, XDATA, add(CFA_XSP16, literal(-1)))
        CFI CFA_SP SP+0
        CFI CFA_XSP16 add(XSP16, 9)
        CFI Block cfiCond467 Using cfiCommon0
        CFI (cfiCond467) NoFunction
        CFI (cfiCond467) Conditional ??CrossCallReturnLabel_15
        CFI (cfiCond467) R6 load(1, XDATA, add(CFA_XSP16, literal(-16)))
        CFI (cfiCond467) VB load(1, XDATA, add(CFA_XSP16, literal(-15)))
        CFI (cfiCond467) V0 load(1, XDATA, add(CFA_XSP16, literal(-14)))
        CFI (cfiCond467) V1 load(1, XDATA, add(CFA_XSP16, literal(-13)))
        CFI (cfiCond467) V2 load(1, XDATA, add(CFA_XSP16, literal(-12)))
        CFI (cfiCond467) V3 load(1, XDATA, add(CFA_XSP16, literal(-11)))
        CFI (cfiCond467) V4 load(1, XDATA, add(CFA_XSP16, literal(-10)))
        CFI (cfiCond467) V5 load(1, XDATA, add(CFA_XSP16, literal(-9)))
        CFI (cfiCond467) V6 load(1, XDATA, add(CFA_XSP16, literal(-8)))
        CFI (cfiCond467) V7 load(1, XDATA, add(CFA_XSP16, literal(-7)))
        CFI (cfiCond467) R7 load(1, XDATA, add(CFA_XSP16, literal(-6)))
        CFI (cfiCond467) ?RET_LOW load(1, XDATA, add(CFA_XSP16, literal(-5)))
        CFI (cfiCond467) ?RET_HIGH load(1, XDATA, add(CFA_XSP16, literal(-4)))
        CFI (cfiCond467) ?BRET_EXT load(1, XDATA, add(CFA_XSP16, literal(-3)))
        CFI (cfiCond467) DPL0 load(1, XDATA, add(CFA_XSP16, literal(-2)))
        CFI (cfiCond467) DPH0 load(1, XDATA, add(CFA_XSP16, literal(-1)))
        CFI (cfiCond467) CFA_SP SP+0
        CFI (cfiCond467) CFA_XSP16 add(XSP16, 17)
        CFI Block cfiPicker468 Using cfiCommon1
        CFI (cfiPicker468) NoFunction
        CFI (cfiPicker468) Picker
        MOV     DPTR,#pMtAfDataReq
        LCALL   ?Subroutine50 & 0xFFFF
??CrossCallReturnLabel_101:
        MOV     DPTR,#pMtAfDataReq
        CLR     A
        MOVX    @DPTR,A
        INC     DPTR
        RET
        CFI EndBlock cfiCond466
        CFI EndBlock cfiCond467
        CFI EndBlock cfiPicker468

        RSEG BANKED_CODE:CODE:NOROOT(0)
?Subroutine8:
        CFI Block cfiCond469 Using cfiCommon0
        CFI NoFunction
        CFI Conditional ??CrossCallReturnLabel_210
        CFI R6 load(1, XDATA, add(CFA_XSP16, literal(-9)))
        CFI VB load(1, XDATA, add(CFA_XSP16, literal(-8)))
        CFI V0 load(1, XDATA, add(CFA_XSP16, literal(-7)))
        CFI R7 load(1, XDATA, add(CFA_XSP16, literal(-6)))
        CFI ?RET_LOW load(1, XDATA, add(CFA_XSP16, literal(-5)))
        CFI ?RET_HIGH load(1, XDATA, add(CFA_XSP16, literal(-4)))
        CFI ?BRET_EXT load(1, XDATA, add(CFA_XSP16, literal(-3)))
        CFI DPL0 load(1, XDATA, add(CFA_XSP16, literal(-2)))
        CFI DPH0 load(1, XDATA, add(CFA_XSP16, literal(-1)))
        CFI CFA_SP SP+0
        CFI CFA_XSP16 add(XSP16, 9)
        CFI Block cfiCond470 Using cfiCommon0
        CFI (cfiCond470) NoFunction
        CFI (cfiCond470) Conditional ??CrossCallReturnLabel_211
        CFI (cfiCond470) R6 load(1, XDATA, add(CFA_XSP16, literal(-9)))
        CFI (cfiCond470) VB load(1, XDATA, add(CFA_XSP16, literal(-8)))
        CFI (cfiCond470) V0 load(1, XDATA, add(CFA_XSP16, literal(-7)))
        CFI (cfiCond470) R7 load(1, XDATA, add(CFA_XSP16, literal(-6)))
        CFI (cfiCond470) ?RET_LOW load(1, XDATA, add(CFA_XSP16, literal(-5)))
        CFI (cfiCond470) ?RET_HIGH load(1, XDATA, add(CFA_XSP16, literal(-4)))
        CFI (cfiCond470) ?BRET_EXT load(1, XDATA, add(CFA_XSP16, literal(-3)))
        CFI (cfiCond470) DPL0 load(1, XDATA, add(CFA_XSP16, literal(-2)))
        CFI (cfiCond470) DPH0 load(1, XDATA, add(CFA_XSP16, literal(-1)))
        CFI (cfiCond470) CFA_SP SP+0
        CFI (cfiCond470) CFA_XSP16 add(XSP16, 9)
        CFI Block cfiPicker471 Using cfiCommon1
        CFI (cfiPicker471) NoFunction
        CFI (cfiPicker471) Picker
        MOV     DPTR,#pMtAfDataReq
        MOVX    A,@DPTR
        ADD     A,#0x17
        CFI EndBlock cfiCond469
        CFI EndBlock cfiCond470
        CFI EndBlock cfiPicker471
        REQUIRE ??Subroutine80_0
        ; // Fall through to label ??Subroutine80_0

        RSEG BANKED_CODE:CODE:NOROOT(0)
??Subroutine80_0:
        CFI Block cfiCond472 Using cfiCommon0
        CFI NoFunction
        CFI Conditional ??CrossCallReturnLabel_207
        CFI R6 load(1, XDATA, add(CFA_XSP16, literal(-16)))
        CFI VB load(1, XDATA, add(CFA_XSP16, literal(-15)))
        CFI V0 load(1, XDATA, add(CFA_XSP16, literal(-14)))
        CFI V1 load(1, XDATA, add(CFA_XSP16, literal(-13)))
        CFI V2 load(1, XDATA, add(CFA_XSP16, literal(-12)))
        CFI V3 load(1, XDATA, add(CFA_XSP16, literal(-11)))
        CFI V4 load(1, XDATA, add(CFA_XSP16, literal(-10)))
        CFI V5 load(1, XDATA, add(CFA_XSP16, literal(-9)))
        CFI V6 load(1, XDATA, add(CFA_XSP16, literal(-8)))
        CFI V7 load(1, XDATA, add(CFA_XSP16, literal(-7)))
        CFI R7 load(1, XDATA, add(CFA_XSP16, literal(-6)))
        CFI ?RET_LOW load(1, XDATA, add(CFA_XSP16, literal(-5)))
        CFI ?RET_HIGH load(1, XDATA, add(CFA_XSP16, literal(-4)))
        CFI ?BRET_EXT load(1, XDATA, add(CFA_XSP16, literal(-3)))
        CFI DPL0 load(1, XDATA, add(CFA_XSP16, literal(-2)))
        CFI DPH0 load(1, XDATA, add(CFA_XSP16, literal(-1)))
        CFI CFA_SP SP+0
        CFI CFA_XSP16 add(XSP16, 25)
        CFI Block cfiCond473 Using cfiCommon0
        CFI (cfiCond473) NoFunction
        CFI (cfiCond473) Conditional ??CrossCallReturnLabel_208
        CFI (cfiCond473) R6 load(1, XDATA, add(CFA_XSP16, literal(-16)))
        CFI (cfiCond473) VB load(1, XDATA, add(CFA_XSP16, literal(-15)))
        CFI (cfiCond473) V0 load(1, XDATA, add(CFA_XSP16, literal(-14)))
        CFI (cfiCond473) V1 load(1, XDATA, add(CFA_XSP16, literal(-13)))
        CFI (cfiCond473) V2 load(1, XDATA, add(CFA_XSP16, literal(-12)))
        CFI (cfiCond473) V3 load(1, XDATA, add(CFA_XSP16, literal(-11)))
        CFI (cfiCond473) V4 load(1, XDATA, add(CFA_XSP16, literal(-10)))
        CFI (cfiCond473) V5 load(1, XDATA, add(CFA_XSP16, literal(-9)))
        CFI (cfiCond473) V6 load(1, XDATA, add(CFA_XSP16, literal(-8)))
        CFI (cfiCond473) V7 load(1, XDATA, add(CFA_XSP16, literal(-7)))
        CFI (cfiCond473) R7 load(1, XDATA, add(CFA_XSP16, literal(-6)))
        CFI (cfiCond473) ?RET_LOW load(1, XDATA, add(CFA_XSP16, literal(-5)))
        CFI (cfiCond473) ?RET_HIGH load(1, XDATA, add(CFA_XSP16, literal(-4)))
        CFI (cfiCond473) ?BRET_EXT load(1, XDATA, add(CFA_XSP16, literal(-3)))
        CFI (cfiCond473) DPL0 load(1, XDATA, add(CFA_XSP16, literal(-2)))
        CFI (cfiCond473) DPH0 load(1, XDATA, add(CFA_XSP16, literal(-1)))
        CFI (cfiCond473) CFA_SP SP+0
        CFI (cfiCond473) CFA_XSP16 add(XSP16, 17)
        CFI Block cfiCond474 Using cfiCommon0
        CFI (cfiCond474) NoFunction
        CFI (cfiCond474) Conditional ??CrossCallReturnLabel_209
        CFI (cfiCond474) R6 load(1, XDATA, add(CFA_XSP16, literal(-16)))
        CFI (cfiCond474) VB load(1, XDATA, add(CFA_XSP16, literal(-15)))
        CFI (cfiCond474) V0 load(1, XDATA, add(CFA_XSP16, literal(-14)))
        CFI (cfiCond474) V1 load(1, XDATA, add(CFA_XSP16, literal(-13)))
        CFI (cfiCond474) V2 load(1, XDATA, add(CFA_XSP16, literal(-12)))
        CFI (cfiCond474) V3 load(1, XDATA, add(CFA_XSP16, literal(-11)))
        CFI (cfiCond474) V4 load(1, XDATA, add(CFA_XSP16, literal(-10)))
        CFI (cfiCond474) V5 load(1, XDATA, add(CFA_XSP16, literal(-9)))
        CFI (cfiCond474) V6 load(1, XDATA, add(CFA_XSP16, literal(-8)))
        CFI (cfiCond474) V7 load(1, XDATA, add(CFA_XSP16, literal(-7)))
        CFI (cfiCond474) R7 load(1, XDATA, add(CFA_XSP16, literal(-6)))
        CFI (cfiCond474) ?RET_LOW load(1, XDATA, add(CFA_XSP16, literal(-5)))
        CFI (cfiCond474) ?RET_HIGH load(1, XDATA, add(CFA_XSP16, literal(-4)))
        CFI (cfiCond474) ?BRET_EXT load(1, XDATA, add(CFA_XSP16, literal(-3)))
        CFI (cfiCond474) DPL0 load(1, XDATA, add(CFA_XSP16, literal(-2)))
        CFI (cfiCond474) DPH0 load(1, XDATA, add(CFA_XSP16, literal(-1)))
        CFI (cfiCond474) CFA_SP SP+0
        CFI (cfiCond474) CFA_XSP16 add(XSP16, 26)
        CFI Block cfiCond475 Using cfiCommon0
        CFI (cfiCond475) NoFunction
        CFI (cfiCond475) Conditional ??CrossCallReturnLabel_210
        CFI (cfiCond475) R6 load(1, XDATA, add(CFA_XSP16, literal(-9)))
        CFI (cfiCond475) VB load(1, XDATA, add(CFA_XSP16, literal(-8)))
        CFI (cfiCond475) V0 load(1, XDATA, add(CFA_XSP16, literal(-7)))
        CFI (cfiCond475) R7 load(1, XDATA, add(CFA_XSP16, literal(-6)))
        CFI (cfiCond475) ?RET_LOW load(1, XDATA, add(CFA_XSP16, literal(-5)))
        CFI (cfiCond475) ?RET_HIGH load(1, XDATA, add(CFA_XSP16, literal(-4)))
        CFI (cfiCond475) ?BRET_EXT load(1, XDATA, add(CFA_XSP16, literal(-3)))
        CFI (cfiCond475) DPL0 load(1, XDATA, add(CFA_XSP16, literal(-2)))
        CFI (cfiCond475) DPH0 load(1, XDATA, add(CFA_XSP16, literal(-1)))
        CFI (cfiCond475) CFA_SP SP+0
        CFI (cfiCond475) CFA_XSP16 add(XSP16, 9)
        CFI Block cfiCond476 Using cfiCommon0
        CFI (cfiCond476) NoFunction
        CFI (cfiCond476) Conditional ??CrossCallReturnLabel_211
        CFI (cfiCond476) R6 load(1, XDATA, add(CFA_XSP16, literal(-9)))
        CFI (cfiCond476) VB load(1, XDATA, add(CFA_XSP16, literal(-8)))
        CFI (cfiCond476) V0 load(1, XDATA, add(CFA_XSP16, literal(-7)))
        CFI (cfiCond476) R7 load(1, XDATA, add(CFA_XSP16, literal(-6)))
        CFI (cfiCond476) ?RET_LOW load(1, XDATA, add(CFA_XSP16, literal(-5)))
        CFI (cfiCond476) ?RET_HIGH load(1, XDATA, add(CFA_XSP16, literal(-4)))
        CFI (cfiCond476) ?BRET_EXT load(1, XDATA, add(CFA_XSP16, literal(-3)))
        CFI (cfiCond476) DPL0 load(1, XDATA, add(CFA_XSP16, literal(-2)))
        CFI (cfiCond476) DPH0 load(1, XDATA, add(CFA_XSP16, literal(-1)))
        CFI (cfiCond476) CFA_SP SP+0
        CFI (cfiCond476) CFA_XSP16 add(XSP16, 9)
        CFI Block cfiPicker477 Using cfiCommon1
        CFI (cfiPicker477) NoFunction
        CFI (cfiPicker477) Picker
        LCALL   ?Subroutine54 & 0xFFFF
??CrossCallReturnLabel_213:
        MOVX    A,@DPTR
        RET
        CFI EndBlock cfiCond472
        CFI EndBlock cfiCond473
        CFI EndBlock cfiCond474
        CFI EndBlock cfiCond475
        CFI EndBlock cfiCond476
        CFI EndBlock cfiPicker477

        RSEG BANK_RELAYS:CODE:REORDER:NOROOT(0)
??MT_AfExec?relay:
        LCALL   ?BDISPATCH
        DATA
        DC24    MT_AfExec

        RSEG BANK_RELAYS:CODE:REORDER:NOROOT(0)
??MT_AfCommandProcessing?relay:
        LCALL   ?BDISPATCH
        DATA
        DC24    MT_AfCommandProcessing

        RSEG BANK_RELAYS:CODE:REORDER:NOROOT(0)
??MT_AfRegister?relay:
        LCALL   ?BDISPATCH
        DATA
        DC24    MT_AfRegister

        RSEG BANK_RELAYS:CODE:REORDER:NOROOT(0)
??MT_AfDataRequest?relay:
        LCALL   ?BDISPATCH
        DATA
        DC24    MT_AfDataRequest

        RSEG BANK_RELAYS:CODE:REORDER:NOROOT(0)
??MT_AfDataRequestSrcRtg?relay:
        LCALL   ?BDISPATCH
        DATA
        DC24    MT_AfDataRequestSrcRtg

        RSEG BANK_RELAYS:CODE:REORDER:NOROOT(0)
??MT_AfDataConfirm?relay:
        LCALL   ?BDISPATCH
        DATA
        DC24    MT_AfDataConfirm

        RSEG BANK_RELAYS:CODE:REORDER:NOROOT(0)
??MT_AfIncomingMsg?relay:
        LCALL   ?BDISPATCH
        DATA
        DC24    MT_AfIncomingMsg

        RSEG BANK_RELAYS:CODE:REORDER:NOROOT(0)
??MT_AfDataRetrieve?relay:
        LCALL   ?BDISPATCH
        DATA
        DC24    MT_AfDataRetrieve

        RSEG BANK_RELAYS:CODE:REORDER:NOROOT(0)
??MT_AfDataStore?relay:
        LCALL   ?BDISPATCH
        DATA
        DC24    MT_AfDataStore

        END
//  891 
//  892 /**************************************************************************************************
//  893  * @fn          MT_AfAPSF_ConfigSet
//  894  *
//  895  * @brief       This function is the MT proxy for afAPSF_ConfigSet().
//  896  *
//  897  * input parameters
//  898  *
//  899  * @param       pBuf - Pointer to the received buffer.
//  900  *
//  901  * output parameters
//  902  *
//  903  * None.
//  904  *
//  905  * @return      None.
//  906  */
//  907 static void MT_AfAPSF_ConfigSet(uint8 *pBuf)
//  908 {
//  909   afAPSF_Config_t cfg = { pBuf[MT_RPC_POS_DAT0+1], pBuf[MT_RPC_POS_DAT0+2] };
//  910   afStatus_t rtrn = afAPSF_ConfigSet(pBuf[MT_RPC_POS_DAT0], &cfg);
//  911 
//  912   MT_BuildAndSendZToolResponse(((uint8)MT_RPC_CMD_SRSP | (uint8)MT_RPC_SYS_AF),
//  913                                        MT_AF_APSF_CONFIG_SET, 1, (uint8 *)&rtrn);
//  914 }
//  915 
//  916 /***************************************************************************************************
//  917 ***************************************************************************************************/
// 
// 3 677 bytes in segment BANKED_CODE
//    54 bytes in segment BANK_RELAYS
//     4 bytes in segment XDATA_Z
// 
// 3 731 bytes of CODE  memory
//     4 bytes of XDATA memory
//
//Errors: none
//Warnings: none
