###############################################################################
#                                                                             #
# IAR C/C++ Compiler V8.10.1.40194/W32 for 8051         25/Dec/2013  17:58:28 #
# Copyright 2004-2011 IAR Systems AB.                                         #
#                                                                             #
#    Core               =  plain                                              #
#    Code model         =  banked                                             #
#    Data model         =  large                                              #
#    Calling convention =  xdata reentrant                                    #
#    Constant location  =  data_rom                                           #
#    Dptr setup         =  1,16                                               #
#    Source file        =  E:\wise-house\Components\osal\mcu\cc2530\OSAL_Nv.c #
#    Command line       =  -f E:\wise-house\Projects\zstack\Samples\WSN_senso #
#                          rs\CC2530DB\..\..\..\Tools\CC2530DB\f8wCoord.cfg   #
#                          (-DCPU32MHZ -DROOT=__near_func                     #
#                          -DMAC_CFG_APP_PENDING_QUEUE=TRUE                   #
#                          -DMAC_CFG_TX_DATA_MAX=5 -DMAC_CFG_TX_MAX=8         #
#                          -DMAC_CFG_RX_MAX=5 -DZDO_COORDINATOR -DRTR_NWK)    #
#                          -f E:\wise-house\Projects\zstack\Samples\WSN_senso #
#                          rs\CC2530DB\..\..\..\Tools\CC2530DB\f8wConfig.cfg  #
#                          (-DZIGBEEPRO -DSECURE=0 -DZG_SECURE_DYNAMIC=0      #
#                          -DREFLECTOR -DDEFAULT_CHANLIST=0x00000800          #
#                          -DZDAPP_CONFIG_PAN_ID=0xFFFF                       #
#                          -DNWK_START_DELAY=100 -DEXTENDED_JOINING_RANDOM_MA #
#                          SK=0x007F -DBEACON_REQUEST_DELAY=100               #
#                          -DBEACON_REQ_DELAY_MASK=0x00FF                     #
#                          -DLINK_STATUS_JITTER_MASK=0x007F                   #
#                          -DROUTE_EXPIRY_TIME=30 -DAPSC_ACK_WAIT_DURATION_PO #
#                          LLED=3000 -DNWK_INDIRECT_MSG_TIMEOUT=7             #
#                          -DMAX_RREQ_ENTRIES=8 -DAPSC_MAX_FRAME_RETRIES=3    #
#                          -DNWK_MAX_DATA_RETRIES=2                           #
#                          -DMAX_POLL_FAILURE_RETRIES=2 -DMAX_BCAST=9         #
#                          -DAPS_MAX_GROUPS=16 -DMAX_RTG_ENTRIES=40           #
#                          -DNWK_MAX_BINDING_ENTRIES=4                        #
#                          -DMAX_BINDING_CLUSTER_IDS=4 "-DDEFAULT_KEY={0x01,  #
#                          0x03, 0x05, 0x07, 0x09, 0x0B, 0x0D, 0x0F, 0x00,    #
#                          0x02, 0x04, 0x06, 0x08, 0x0A, 0x0C, 0x0D}"         #
#                          -DMAC_MAX_FRAME_SIZE=116                           #
#                          -DZDNWKMGR_MIN_TRANSMISSIONS=20 "-DCONST=const     #
#                          __code" -DGENERIC=__generic                        #
#                          -DRFD_RCVC_ALWAYS_ON=FALSE -DPOLL_RATE=1000        #
#                          -DQUEUED_POLL_RATE=100 -DRESPONSE_POLL_RATE=100)   #
#                          -DREJOIN_POLL_RATE=440 E:\wise-house\Components\os #
#                          al\mcu\cc2530\OSAL_Nv.c -D ZIGBEEPRO -D ZTOOL_P1   #
#                          -D MT_TASK -D MT_SYS_FUNC -D MT_ZDO_FUNC -D        #
#                          LCD_SUPPORTED=DEBUG -lC E:\wise-house\Projects\zst #
#                          ack\Samples\WSN_sensors\CC2530DB\CoordinatorEB-Pro #
#                          \List\ -lA E:\wise-house\Projects\zstack\Samples\W #
#                          SN_sensors\CC2530DB\CoordinatorEB-Pro\List\        #
#                          --diag_suppress Pe001,Pa010 -o                     #
#                          E:\wise-house\Projects\zstack\Samples\WSN_sensors\ #
#                          CC2530DB\CoordinatorEB-Pro\Obj\ -e --debug         #
#                          --core=plain --dptr=16,1 --data_model=large        #
#                          --code_model=banked --calling_convention=xdata_ree #
#                          ntrant --place_constants=data_rom                  #
#                          --nr_virtual_regs 8 -I E:\wise-house\Projects\zsta #
#                          ck\Samples\WSN_sensors\CC2530DB\ -I                #
#                          E:\wise-house\Projects\zstack\Samples\WSN_sensors\ #
#                          CC2530DB\..\SOURCE\ -I E:\wise-house\Projects\zsta #
#                          ck\Samples\WSN_sensors\CC2530DB\..\..\..\ZMAIN\TI2 #
#                          530DB\ -I E:\wise-house\Projects\zstack\Samples\WS #
#                          N_sensors\CC2530DB\..\..\..\..\..\COMPONENTS\MT\   #
#                          -I E:\wise-house\Projects\zstack\Samples\WSN_senso #
#                          rs\CC2530DB\..\..\..\..\..\COMPONENTS\HAL\INCLUDE\ #
#                           -I E:\wise-house\Projects\zstack\Samples\WSN_sens #
#                          ors\CC2530DB\..\..\..\..\..\COMPONENTS\HAL\TARGET\ #
#                          CC2530EB\ -I E:\wise-house\Projects\zstack\Samples #
#                          \WSN_sensors\CC2530DB\..\..\..\..\..\COMPONENTS\OS #
#                          AL\MCU\CCSOC\ -I E:\wise-house\Projects\zstack\Sam #
#                          ples\WSN_sensors\CC2530DB\..\..\..\..\..\COMPONENT #
#                          S\OSAL\INCLUDE\ -I E:\wise-house\Projects\zstack\S #
#                          amples\WSN_sensors\CC2530DB\..\..\..\..\..\COMPONE #
#                          NTS\STACK\AF\ -I E:\wise-house\Projects\zstack\Sam #
#                          ples\WSN_sensors\CC2530DB\..\..\..\..\..\COMPONENT #
#                          S\STACK\NWK\ -I E:\wise-house\Projects\zstack\Samp #
#                          les\WSN_sensors\CC2530DB\..\..\..\..\..\COMPONENTS #
#                          \STACK\SEC\ -I E:\wise-house\Projects\zstack\Sampl #
#                          es\WSN_sensors\CC2530DB\..\..\..\..\..\COMPONENTS\ #
#                          STACK\SAPI\ -I E:\wise-house\Projects\zstack\Sampl #
#                          es\WSN_sensors\CC2530DB\..\..\..\..\..\COMPONENTS\ #
#                          STACK\SYS\ -I E:\wise-house\Projects\zstack\Sample #
#                          s\WSN_sensors\CC2530DB\..\..\..\..\..\COMPONENTS\S #
#                          TACK\ZDO\ -I E:\wise-house\Projects\zstack\Samples #
#                          \WSN_sensors\CC2530DB\..\..\..\..\..\COMPONENTS\ZM #
#                          AC\F8W\ -I E:\wise-house\Projects\zstack\Samples\W #
#                          SN_sensors\CC2530DB\..\..\..\..\..\COMPONENTS\ZMAC #
#                          \ -I E:\wise-house\Projects\zstack\Samples\WSN_sen #
#                          sors\CC2530DB\..\..\..\..\..\COMPONENTS\SERVICES\S #
#                          ADDR\ -I E:\wise-house\Projects\zstack\Samples\WSN #
#                          _sensors\CC2530DB\..\..\..\..\..\COMPONENTS\SERVIC #
#                          ES\SDATA\ -I E:\wise-house\Projects\zstack\Samples #
#                          \WSN_sensors\CC2530DB\..\..\..\..\..\COMPONENTS\MA #
#                          C\INCLUDE\ -I E:\wise-house\Projects\zstack\Sample #
#                          s\WSN_sensors\CC2530DB\..\..\..\..\..\COMPONENTS\M #
#                          AC\HIGH_LEVEL\ -I E:\wise-house\Projects\zstack\Sa #
#                          mples\WSN_sensors\CC2530DB\..\..\..\..\..\COMPONEN #
#                          TS\MAC\LOW_LEVEL\srf04\ -I                         #
#                          E:\wise-house\Projects\zstack\Samples\WSN_sensors\ #
#                          CC2530DB\..\..\..\..\..\COMPONENTS\MAC\LOW_LEVEL\s #
#                          rf04\SINGLE_CHIP\ -Ohz --require_prototypes        #
#    List file          =  E:\wise-house\Projects\zstack\Samples\WSN_sensors\ #
#                          CC2530DB\CoordinatorEB-Pro\List\OSAL_Nv.lst        #
#    Object file        =  E:\wise-house\Projects\zstack\Samples\WSN_sensors\ #
#                          CC2530DB\CoordinatorEB-Pro\Obj\OSAL_Nv.r51         #
#                                                                             #
#                                                                             #
###############################################################################

E:\wise-house\Components\osal\mcu\cc2530\OSAL_Nv.c
      1          /******************************************************************************
      2            Filename:       OSAL_Nv.c
      3            Revised:        $Date: 2011-06-05 18:52:21 -0700 (Sun, 05 Jun 2011) $
      4            Revision:       $Revision: 26212 $
      5          
      6            Description:    This module contains the OSAL non-volatile memory functions.
      7          
      8          
      9            Copyright 2006-2011 Texas Instruments Incorporated. All rights reserved.
     10          
     11            IMPORTANT: Your use of this Software is limited to those specific rights
     12            granted under the terms of a software license agreement between the user
     13            who downloaded the software, his/her employer (which must be your employer)
     14            and Texas Instruments Incorporated (the "License"). You may not use this
     15            Software unless you agree to abide by the terms of the License. The License
     16            limits your use, and you acknowledge, that the Software may not be modified,
     17            copied or distributed unless embedded on a Texas Instruments microcontroller
     18            or used solely and exclusively in conjunction with a Texas Instruments radio
     19            frequency transceiver, which is integrated into your product. Other than for
     20            the foregoing purpose, you may not use, reproduce, copy, prepare derivative
     21            works of, modify, distribute, perform, display or sell this Software and/or
     22            its documentation for any purpose.
     23          
     24            YOU FURTHER ACKNOWLEDGE AND AGREE THAT THE SOFTWARE AND DOCUMENTATION ARE
     25            PROVIDED “AS IS” WITHOUT WARRANTY OF ANY KIND, EITHER EXPRESS OR IMPLIED,
     26            INCLUDING WITHOUT LIMITATION, ANY WARRANTY OF MERCHANTABILITY, TITLE,
     27            NON-INFRINGEMENT AND FITNESS FOR A PARTICULAR PURPOSE. IN NO EVENT SHALL
     28            TEXAS INSTRUMENTS OR ITS LICENSORS BE LIABLE OR OBLIGATED UNDER CONTRACT,
     29            NEGLIGENCE, STRICT LIABILITY, CONTRIBUTION, BREACH OF WARRANTY, OR OTHER
     30            LEGAL EQUITABLE THEORY ANY DIRECT OR INDIRECT DAMAGES OR EXPENSES
     31            INCLUDING BUT NOT LIMITED TO ANY INCIDENTAL, SPECIAL, INDIRECT, PUNITIVE
     32            OR CONSEQUENTIAL DAMAGES, LOST PROFITS OR LOST DATA, COST OF PROCUREMENT
     33            OF SUBSTITUTE GOODS, TECHNOLOGY, SERVICES, OR ANY CLAIMS BY THIRD PARTIES
     34            (INCLUDING BUT NOT LIMITED TO ANY DEFENSE THEREOF), OR OTHER SIMILAR COSTS.
     35          
     36            Should you have any questions regarding your right to use this Software,
     37            contact Texas Instruments Incorporated at www.TI.com.
     38          ******************************************************************************/
     39          
     40          /******************************************************************************
     41            Notes:
     42              - A trick buried deep in initPage() requires that the MSB of the NV Item Id
     43                is to be reserved for use by this module.
     44          ******************************************************************************/
     45          
     46          /*********************************************************************
     47           * INCLUDES
     48           */
     49          
     50          #include "hal_adc.h"
     51          #include "hal_flash.h"
     52          #include "hal_types.h"
     53          #include "OSAL_Nv.h"
     54          #include "ZComDef.h"
     55          
     56          /*********************************************************************
     57           * CONSTANTS
     58           */
     59          
     60          #define OSAL_NV_PAGE_SIZE       HAL_FLASH_PAGE_SIZE
     61          #define OSAL_NV_PAGES_USED      HAL_NV_PAGE_CNT
     62          #define OSAL_NV_PAGE_BEG        HAL_NV_PAGE_BEG
     63          #define OSAL_NV_PAGE_END       (OSAL_NV_PAGE_BEG + OSAL_NV_PAGES_USED - 1)
     64          
     65          #define OSAL_NV_ACTIVE          0x00
     66          #define OSAL_NV_ERASED          0xFF
     67          #define OSAL_NV_ERASED_ID       0xFFFF
     68          #define OSAL_NV_ZEROED_ID       0x0000
     69          // Reserve MSB of Id to signal a search for the "old" source copy (new write interrupted/failed.)
     70          #define OSAL_NV_SOURCE_ID       0x8000
     71          
     72          // In case pages 0-1 are ever used, define a null page value.
     73          #define OSAL_NV_PAGE_NULL       0
     74          
     75          // In case item Id 0 is ever used, define a null item value.
     76          #define OSAL_NV_ITEM_NULL       0
     77          
     78          #define OSAL_NV_WORD_SIZE       HAL_FLASH_WORD_SIZE
     79          
     80          #define OSAL_NV_PAGE_HDR_OFFSET 0
     81          
     82          #define OSAL_NV_MAX_HOT         3

   \                                 In  segment XDATA_ROM_C, align 1
     83          static const uint16 hotIds[OSAL_NV_MAX_HOT] = {
   \                     hotIds:
   \   000000   8200         DW 130
   \   000002   3A00         DW 58
   \   000004   3B00         DW 59
     84            ZCD_NV_NWKKEY,
     85            ZCD_NV_NWK_ACTIVE_KEY_INFO,
     86            ZCD_NV_NWK_ALTERN_KEY_INFO,
     87          };
     88          
     89          /*********************************************************************
     90           * MACROS
     91           */
     92          
     93          #define OSAL_NV_CHECK_BUS_VOLTAGE  HalAdcCheckVdd(VDD_MIN_NV)
     94          
     95          #define OSAL_NV_DATA_SIZE( LEN )                      \
     96            (((LEN) >= ((uint16)(65536UL - OSAL_NV_WORD_SIZE))) ? \
     97                       ((uint16)(65536UL - OSAL_NV_WORD_SIZE))  : \
     98                       ((((LEN) + OSAL_NV_WORD_SIZE - 1) / OSAL_NV_WORD_SIZE) * OSAL_NV_WORD_SIZE))
     99          
    100          #define OSAL_NV_ITEM_SIZE( LEN )                                         \
    101            (((LEN) >= ((uint16)(65536UL - OSAL_NV_WORD_SIZE - OSAL_NV_HDR_SIZE))) ? \
    102                       ((uint16)(65536UL - OSAL_NV_WORD_SIZE))                     : \
    103            (((((LEN) + OSAL_NV_WORD_SIZE - 1) / OSAL_NV_WORD_SIZE) * OSAL_NV_WORD_SIZE) + OSAL_NV_HDR_SIZE))
    104          
    105          #define COMPACT_PAGE_CLEANUP( COM_PG ) st ( \
    106            /* In order to recover from a page compaction that is interrupted,\
    107             * the logic in osal_nv_init() depends upon the following order:\
    108             * 1. State of the target of compaction is changed to ePgInUse.\
    109             * 2. Compacted page is erased.\
    110             */\
    111            setPageUse( pgRes, TRUE );  /* Mark the reserve page as being in use. */\
    112            erasePage( (COM_PG) ); \
    113            \
    114            pgRes = (COM_PG);           /* Set the reserve page to be the newly erased page. */\
    115          )
    116          
    117          /*********************************************************************
    118           * TYPEDEFS
    119           */
    120          
    121          typedef struct
    122          {
    123            uint16 id;
    124            uint16 len;   // Enforce Flash-WORD size on len.
    125            uint16 chk;   // Byte-wise checksum of the 'len' data bytes of the item.
    126            uint16 stat;  // Item status.
    127          } osalNvHdr_t;
    128          // Struct member offsets.
    129          #define OSAL_NV_HDR_ID    0
    130          #define OSAL_NV_HDR_LEN   2
    131          #define OSAL_NV_HDR_CHK   4
    132          #define OSAL_NV_HDR_STAT  6
    133          
    134          #define OSAL_NV_HDR_ITEM  2  // Length of any item of a header struct.
    135          #define OSAL_NV_HDR_SIZE  8
    136          #define OSAL_NV_HDR_HALF (OSAL_NV_HDR_SIZE / 2)
    137          
    138          typedef struct
    139          {
    140            uint16 active;
    141            uint16 inUse;
    142            uint16 xfer;
    143            uint16 spare;
    144          } osalNvPgHdr_t;
    145          // Struct member offsets.
    146          #define OSAL_NV_PG_ACTIVE 0
    147          #define OSAL_NV_PG_INUSE  2
    148          #define OSAL_NV_PG_XFER   4
    149          #define OSAL_NV_PG_SPARE  6
    150          
    151          #define OSAL_NV_PAGE_HDR_SIZE  8
    152          #define OSAL_NV_PAGE_HDR_HALF (OSAL_NV_PAGE_HDR_SIZE / 2)
    153          
    154          typedef enum
    155          {
    156            eNvXfer,
    157            eNvZero
    158          } eNvHdrEnum;
    159          
    160          typedef enum
    161          {
    162            ePgActive,
    163            ePgInUse,
    164            ePgXfer,
    165            ePgSpare
    166          } ePgHdrEnum;
    167          
    168          /*********************************************************************
    169           * GLOBAL VARIABLES
    170           */
    171          
    172          #ifndef OAD_KEEP_NV_PAGES
    173          // When NV pages are to remain intact during OAD download,
    174          // the image itself should not include NV pages.
    175          #pragma location="ZIGNV_ADDRESS_SPACE"

   \                                 In  segment ZIGNV_ADDRESS_SPACE, align 1
    176          __no_init uint8 _nvBuf[OSAL_NV_PAGES_USED * OSAL_NV_PAGE_SIZE];
   \                     _nvBuf:
   \   000000                DS 12288
    177          #pragma required=_nvBuf
    178          #endif // OAD_KEEP_NV_PAGES
    179          
    180          /*********************************************************************
    181           * LOCAL VARIABLES
    182           */
    183          
    184          // Offset into the page of the first available erased space.

   \                                 In  segment XDATA_Z, align 1, keep-with-next
    185          static uint16 pgOff[OSAL_NV_PAGES_USED];
   \                     pgOff:
   \   000000                DS 12
   \   00000C                REQUIRE __INIT_XDATA_Z
   \   00000C                REQUIRE _nvBuf
    186          
    187          // Count of the bytes lost for the zeroed-out items.

   \                                 In  segment XDATA_Z, align 1, keep-with-next
    188          static uint16 pgLost[OSAL_NV_PAGES_USED];
   \                     pgLost:
   \   000000                DS 12
   \   00000C                REQUIRE __INIT_XDATA_Z
    189          

   \                                 In  segment XDATA_Z, align 1, keep-with-next
    190          static uint8 pgRes;  // Page reserved for item compacting transfer.
   \                     pgRes:
   \   000000                DS 1
   \   000001                REQUIRE __INIT_XDATA_Z
    191          
    192          // Saving ~100 code bytes to move a uint8* parameter/return value from findItem() to a global.

   \                                 In  segment XDATA_Z, align 1, keep-with-next
    193          static uint8 findPg;
   \                     findPg:
   \   000000                DS 1
   \   000001                REQUIRE __INIT_XDATA_Z
    194          
    195          // NV page and offsets for hot items.

   \                                 In  segment XDATA_Z, align 1, keep-with-next
    196          static uint8 hotPg[OSAL_NV_MAX_HOT];
   \                     hotPg:
   \   000000                DS 3
   \   000003                REQUIRE __INIT_XDATA_Z

   \                                 In  segment XDATA_Z, align 1, keep-with-next
    197          static uint16 hotOff[OSAL_NV_MAX_HOT];
   \                     hotOff:
   \   000000                DS 6
   \   000006                REQUIRE __INIT_XDATA_Z
    198          
    199          /*********************************************************************
    200           * LOCAL FUNCTIONS
    201           */
    202          
    203          static uint8  initNV( void );
    204          
    205          static void   setPageUse( uint8 pg, uint8 inUse );
    206          static uint16 initPage( uint8 pg, uint16 id, uint8 findDups );
    207          static void   erasePage( uint8 pg );
    208          static uint8  compactPage( uint8 srcPg, uint16 skipId );
    209          
    210          static uint16 findItem( uint16 id );
    211          static uint8  initItem( uint8 flag, uint16 id, uint16 len, void *buf );
    212          static void   setItem( uint8 pg, uint16 offset, eNvHdrEnum stat );
    213          static uint16 setChk( uint8 pg, uint16 offset, uint16 chk );
    214          
    215          static uint16 calcChkB( uint16 len, uint8 *buf );
    216          static uint16 calcChkF( uint8 pg, uint16 offset, uint16 len );
    217          
    218          static void   writeWord( uint8 pg, uint16 offset, uint8 *buf );
    219          static void   writeWordH( uint8 pg, uint16 offset, uint8 *buf );
    220          static void   writeWordM( uint8 pg, uint16 offset, uint8 *buf, uint16 cnt );
    221          static void   writeBuf( uint8 pg, uint16 offset, uint16 len, uint8 *buf );
    222          static void   xferBuf( uint8 srcPg, uint16 srcOff, uint8 dstPg, uint16 dstOff, uint16 len );
    223          
    224          static uint8  writeItem( uint8 pg, uint16 id, uint16 len, void *buf, uint8 flag );
    225          static uint8  hotItem(uint16 id);
    226          static void   hotItemUpdate(uint8 pg, uint16 off, uint16 id);
    227          
    228          /*********************************************************************
    229           * @fn      initNV
    230           *
    231           * @brief   Initialize the NV flash pages.
    232           *
    233           * @param   none
    234           *
    235           * @return  TRUE
    236           */

   \                                 In  segment BANKED_CODE, align 1, keep-with-next
    237          static uint8 initNV( void )
   \                     initNV:
    238          {
   \   000000   74F4         MOV     A,#-0xc
   \   000002   12....       LCALL   ?BANKED_ENTER_XDATA
   \   000005                ; Saved register size: 12
   \   000005                ; Auto size: 8
   \   000005   74F8         MOV     A,#-0x8
   \   000007   12....       LCALL   ?ALLOC_XSTACK8
    239            osalNvPgHdr_t pgHdr;
    240            uint8 oldPg = OSAL_NV_PAGE_NULL;
   \   00000A   7E00         MOV     R6,#0x0
    241            uint8 findDups = FALSE;
   \   00000C   8E..         MOV     ?V0 + 0,R6
    242            uint8 pg;
    243          
    244            pgRes = OSAL_NV_PAGE_NULL;
   \   00000E   90....       MOV     DPTR,#pgRes
   \   000011   E4           CLR     A
   \   000012   F0           MOVX    @DPTR,A
    245          
    246            for ( pg = OSAL_NV_PAGE_BEG; pg <= OSAL_NV_PAGE_END; pg++ )
   \   000013   7F79         MOV     R7,#0x79
    247            {
    248              HalFlashRead(pg, OSAL_NV_PAGE_HDR_OFFSET, (uint8 *)(&pgHdr), OSAL_NV_HDR_SIZE);
   \                     ??initNV_0:
   \   000015                ; Setup parameters for call to function HalFlashRead
   \   000015   75..08       MOV     ?V0 + 2,#0x8
   \   000018   75..00       MOV     ?V0 + 3,#0x0
   \   00001B   78..         MOV     R0,#?V0 + 2
   \   00001D   12....       LCALL   ?PUSH_XSTACK_I_TWO
   \   000020   7402         MOV     A,#0x2
   \   000022   12....       LCALL   ?XSTACK_DISP0_8
   \   000025   AC82         MOV     R4,DPL
   \   000027   AD83         MOV     R5,DPH
   \   000029   7A00         MOV     R2,#0x0
   \   00002B   7B00         MOV     R3,#0x0
   \   00002D   EF           MOV     A,R7
   \   00002E   F9           MOV     R1,A
   \   00002F   12....       LCALL   ??Subroutine65_0 & 0xFFFF
   \                     ??CrossCallReturnLabel_125:
   \   000032   12....       LCALL   ?DEALLOC_XSTACK8
    249          
    250              if ( pgHdr.active == OSAL_NV_ERASED_ID )
   \   000035   85..82       MOV     DPL,?XSP + 0
   \   000038   85..83       MOV     DPH,?XSP + 1
   \   00003B   E0           MOVX    A,@DPTR
   \   00003C   F4           CPL     A
   \   00003D   7003         JNZ     ??initNV_1
   \   00003F   A3           INC     DPTR
   \   000040   E0           MOVX    A,@DPTR
   \   000041   F4           CPL     A
   \                     ??initNV_1:
   \   000042   7013         JNZ     ??initNV_2
    251              {
    252                if ( pgRes == OSAL_NV_PAGE_NULL )
   \   000044   90....       MOV     DPTR,#pgRes
   \   000047   E0           MOVX    A,@DPTR
   \   000048   7004         JNZ     ??initNV_3
    253                {
    254                  pgRes = pg;
   \   00004A   EF           MOV     A,R7
   \   00004B   F0           MOVX    @DPTR,A
   \   00004C   8019         SJMP    ??initNV_4
    255                }
    256                else
    257                {
    258                  setPageUse( pg, TRUE );
   \                     ??initNV_3:
   \   00004E                ; Setup parameters for call to function setPageUse
   \   00004E   7A01         MOV     R2,#0x1
   \   000050   EF           MOV     A,R7
   \   000051   F9           MOV     R1,A
   \   000052   12....       LCALL   ??setPageUse?relay
   \   000055   8010         SJMP    ??initNV_4
    259                }
    260              }
    261              // An Xfer from this page was in progress.
    262              else if ( pgHdr.xfer != OSAL_NV_ERASED_ID )
   \                     ??initNV_2:
   \   000057   7404         MOV     A,#0x4
   \   000059   12....       LCALL   ?XSTACK_DISP0_8
   \   00005C   E0           MOVX    A,@DPTR
   \   00005D   F4           CPL     A
   \   00005E   7003         JNZ     ??initNV_5
   \   000060   A3           INC     DPTR
   \   000061   E0           MOVX    A,@DPTR
   \   000062   F4           CPL     A
   \                     ??initNV_5:
   \   000063   6002         JZ      ??initNV_4
    263              {
    264                oldPg = pg;
   \   000065   EF           MOV     A,R7
   \   000066   FE           MOV     R6,A
    265              }
    266            }
   \                     ??initNV_4:
   \   000067   0F           INC     R7
   \   000068   EF           MOV     A,R7
   \   000069   C3           CLR     C
   \   00006A   947F         SUBB    A,#0x7f
   \   00006C   40A7         JC      ??initNV_0
    267          
    268            // If a page compaction was interrupted before the old page was erased.
    269            if ( oldPg != OSAL_NV_PAGE_NULL )
   \   00006E   EE           MOV     A,R6
   \   00006F   90....       MOV     DPTR,#pgRes
   \   000072   601E         JZ      ??initNV_6
    270            {
    271              /* Interrupted compaction before the target of compaction was put in use;
    272               * so erase the target of compaction and start again.
    273               */
    274              if ( pgRes != OSAL_NV_PAGE_NULL )
   \   000074   E0           MOVX    A,@DPTR
   \   000075   600F         JZ      ??initNV_7
    275              {
    276                erasePage( pgRes );
   \   000077                ; Setup parameters for call to function erasePage
   \   000077   F9           MOV     R1,A
   \   000078   12....       LCALL   ??erasePage?relay
    277                (void)compactPage( oldPg, OSAL_NV_ITEM_NULL );
   \   00007B                ; Setup parameters for call to function compactPage
   \   00007B   7A00         MOV     R2,#0x0
   \   00007D   7B00         MOV     R3,#0x0
   \   00007F   EE           MOV     A,R6
   \   000080   F9           MOV     R1,A
   \   000081   12....       LCALL   ??compactPage?relay
   \   000084   8013         SJMP    ??initNV_8
    278              }
    279              /* Interrupted compaction after the target of compaction was put in use,
    280               * but before the old page was erased; so erase it now and create a new reserve page.
    281               */
    282              else
    283              {
    284                erasePage( oldPg );
   \                     ??initNV_7:
   \   000086                ; Setup parameters for call to function erasePage
   \   000086   EE           MOV     A,R6
   \   000087   F9           MOV     R1,A
   \   000088   12....       LCALL   ??erasePage?relay
    285                pgRes = oldPg;
   \   00008B   EE           MOV     A,R6
   \   00008C   90....       MOV     DPTR,#pgRes
   \   00008F   F0           MOVX    @DPTR,A
   \   000090   8007         SJMP    ??initNV_8
    286              }
    287            }
    288            else if ( pgRes != OSAL_NV_PAGE_NULL )
   \                     ??initNV_6:
   \   000092   E0           MOVX    A,@DPTR
   \   000093   6004         JZ      ??initNV_8
    289            {
    290              erasePage( pgRes );  // The last page erase could have been interrupted by a power-cycle.
   \   000095                ; Setup parameters for call to function erasePage
   \   000095   F9           MOV     R1,A
   \   000096   12....       LCALL   ??erasePage?relay
    291            }
    292            /* else if there is no reserve page, COMPACT_PAGE_CLEANUP() must have succeeded to put the old
    293             * reserve page (i.e. the target of the compacted items) into use but got interrupted by a reset
    294             * while trying to erase the page to be compacted. Such a page should only contain duplicate items
    295             * (i.e. all items will be marked 'Xfer') and thus should have the lost count equal to the page
    296             * size less the page header.
    297             */
    298          
    299            for ( pg = OSAL_NV_PAGE_BEG; pg <= OSAL_NV_PAGE_END; pg++ )
   \                     ??initNV_8:
   \   000099   7F79         MOV     R7,#0x79
    300            {
    301              // Calculate page offset and lost bytes - any "old" item triggers an N^2 re-scan from start.
    302              if ( initPage( pg, OSAL_NV_ITEM_NULL, findDups ) != OSAL_NV_ITEM_NULL )
   \                     ??initNV_9:
   \   00009B                ; Setup parameters for call to function initPage
   \   00009B   AC..         MOV     R4,?V0 + 0
   \   00009D   7A00         MOV     R2,#0x0
   \   00009F   7B00         MOV     R3,#0x0
   \   0000A1   EF           MOV     A,R7
   \   0000A2   F9           MOV     R1,A
   \   0000A3   12....       LCALL   ??initPage?relay
   \   0000A6   8B..         MOV     ?V0 + 3,R3
   \   0000A8   EA           MOV     A,R2
   \   0000A9   45..         ORL     A,?V0 + 3
   \   0000AB   6005         JZ      ??initNV_10
    303              {
    304                findDups = TRUE;
   \   0000AD   75..01       MOV     ?V0 + 0,#0x1
    305                pg = (OSAL_NV_PAGE_BEG - 1);  // Pre-decrement so that loop increment will start over at zero.
   \   0000B0   7F78         MOV     R7,#0x78
    306                continue;
    307              }
    308            }
   \                     ??initNV_10:
   \   0000B2   0F           INC     R7
   \   0000B3   EF           MOV     A,R7
   \   0000B4   C3           CLR     C
   \   0000B5   947F         SUBB    A,#0x7f
   \   0000B7   40E2         JC      ??initNV_9
    309          
    310            if (findDups)
   \   0000B9   E5..         MOV     A,?V0 + 0
   \   0000BB   A2E0         MOV     C,0xE0 /* A   */.0
   \   0000BD   5014         JNC     ??initNV_11
    311            {
    312              // Final pass to calculate page lost after invalidating duplicate items.
    313              for ( pg = OSAL_NV_PAGE_BEG; pg <= OSAL_NV_PAGE_END; pg++ )
   \   0000BF   7F79         MOV     R7,#0x79
    314              {
    315                (void)initPage( pg, OSAL_NV_ITEM_NULL, FALSE );
   \                     ??initNV_12:
   \   0000C1                ; Setup parameters for call to function initPage
   \   0000C1   7C00         MOV     R4,#0x0
   \   0000C3   7A00         MOV     R2,#0x0
   \   0000C5   7B00         MOV     R3,#0x0
   \   0000C7   EF           MOV     A,R7
   \   0000C8   F9           MOV     R1,A
   \   0000C9   12....       LCALL   ??initPage?relay
    316              }
   \   0000CC   0F           INC     R7
   \   0000CD   EF           MOV     A,R7
   \   0000CE   C3           CLR     C
   \   0000CF   947F         SUBB    A,#0x7f
   \   0000D1   40EE         JC      ??initNV_12
    317            }
    318          
    319            if ( pgRes == OSAL_NV_PAGE_NULL )
   \                     ??initNV_11:
   \   0000D3   90....       MOV     DPTR,#pgRes
   \   0000D6   E0           MOVX    A,@DPTR
   \   0000D7   7049         JNZ     ??initNV_13
    320            {
    321              uint8 idx, mostLost = 0;
   \   0000D9   7F00         MOV     R7,#0x0
    322          
    323              for ( idx = 0; idx < OSAL_NV_PAGES_USED; idx++ )
   \   0000DB   7C00         MOV     R4,#0x0
    324              {
    325                // Is this the page that was compacted?
    326                if (pgLost[idx] == (OSAL_NV_PAGE_SIZE - OSAL_NV_PAGE_HDR_SIZE))
   \                     ??initNV_14:
   \   0000DD   EC           MOV     A,R4
   \   0000DE   C3           CLR     C
   \   0000DF   33           RLC     A
   \   0000E0   F8           MOV     R0,A
   \   0000E1   E4           CLR     A
   \   0000E2   33           RLC     A
   \   0000E3   F9           MOV     R1,A
   \   0000E4   74..         MOV     A,#pgLost & 0xff
   \   0000E6   28           ADD     A,R0
   \   0000E7   F582         MOV     DPL,A
   \   0000E9   74..         MOV     A,#(pgLost >> 8) & 0xff
   \   0000EB   12....       LCALL   ?Subroutine13 & 0xFFFF
   \                     ??CrossCallReturnLabel_158:
   \   0000EE   74F8         MOV     A,#-0x8
   \   0000F0   6A           XRL     A,R2
   \   0000F1   7003         JNZ     ??initNV_15
   \   0000F3   7407         MOV     A,#0x7
   \   0000F5   6B           XRL     A,R3
   \                     ??initNV_15:
   \   0000F6   7004         JNZ     ??initNV_16
    327                {
    328                  mostLost = idx;
   \   0000F8   EC           MOV     A,R4
   \   0000F9   FF           MOV     R7,A
    329                  break;
   \   0000FA   801B         SJMP    ??initNV_17
    330                }
    331                /* This check is not expected to be necessary because the above test should always succeed
    332                 * with an early loop exit.
    333                 */
    334                else if (pgLost[idx] > pgLost[mostLost])
   \                     ??initNV_16:
   \   0000FC   EF           MOV     A,R7
   \   0000FD   C3           CLR     C
   \   0000FE   33           RLC     A
   \   0000FF   F8           MOV     R0,A
   \   000100   E4           CLR     A
   \   000101   33           RLC     A
   \   000102   F9           MOV     R1,A
   \   000103   12....       LCALL   ?Subroutine33 & 0xFFFF
   \                     ??CrossCallReturnLabel_60:
   \   000106   C3           CLR     C
   \   000107   E0           MOVX    A,@DPTR
   \   000108   9A           SUBB    A,R2
   \   000109   A3           INC     DPTR
   \   00010A   E0           MOVX    A,@DPTR
   \   00010B   9B           SUBB    A,R3
   \   00010C   5002         JNC     ??initNV_18
    335                {
    336                  mostLost = idx;
   \   00010E   EC           MOV     A,R4
   \   00010F   FF           MOV     R7,A
    337                }
    338              }
   \                     ??initNV_18:
   \   000110   0C           INC     R4
   \   000111   EC           MOV     A,R4
   \   000112   C3           CLR     C
   \   000113   9406         SUBB    A,#0x6
   \   000115   40C6         JC      ??initNV_14
    339          
    340              pgRes = mostLost + OSAL_NV_PAGE_BEG;
   \                     ??initNV_17:
   \   000117   7479         MOV     A,#0x79
   \   000119   2F           ADD     A,R7
   \   00011A   90....       MOV     DPTR,#pgRes
   \   00011D   F0           MOVX    @DPTR,A
    341              erasePage( pgRes );  // The last page erase had been interrupted by a power-cycle.
   \   00011E                ; Setup parameters for call to function erasePage
   \   00011E   F9           MOV     R1,A
   \   00011F   12....       LCALL   ??erasePage?relay
    342            }
    343          
    344            return TRUE;
   \                     ??initNV_13:
   \   000122   7901         MOV     R1,#0x1
   \   000124   02....       LJMP    ?Subroutine0 & 0xFFFF
    345          }

   \                                 In  segment BANKED_CODE, align 1, keep-with-next
   \                     ?Subroutine33:
   \   000000   74..         MOV     A,#pgLost & 0xff
   \   000002   28           ADD     A,R0
   \   000003   F582         MOV     DPL,A
   \   000005   74..         MOV     A,#(pgLost >> 8) & 0xff
   \   000007   39           ADDC    A,R1
   \   000008   F583         MOV     DPH,A
   \   00000A   22           RET

   \                                 In  segment BANKED_CODE, align 1, keep-with-next
   \                     ?Subroutine0:
   \   000000   7408         MOV     A,#0x8
   \   000002                REQUIRE ??Subroutine61_0
   \   000002                ; // Fall through to label ??Subroutine61_0

   \                                 In  segment BANKED_CODE, align 1, keep-with-next
   \                     ??Subroutine61_0:
   \   000000   12....       LCALL   ?DEALLOC_XSTACK8
   \   000003                REQUIRE ??Subroutine62_0
   \   000003                ; // Fall through to label ??Subroutine62_0

   \                                 In  segment BANKED_CODE, align 1, keep-with-next
   \                     ??Subroutine62_0:
   \   000000   7F04         MOV     R7,#0x4
   \   000002   02....       LJMP    ?BANKED_LEAVE_XDATA

   \                                 In  segment BANKED_CODE, align 1, keep-with-next
   \                     ??Subroutine65_0:
   \   000000   12....       LCALL   ??HalFlashRead?relay
   \   000003   7402         MOV     A,#0x2
   \   000005   22           RET

   \                                 In  segment BANKED_CODE, align 1, keep-with-next
   \                     ?Subroutine13:
   \   000000   39           ADDC    A,R1
   \   000001   F583         MOV     DPH,A
   \   000003                REQUIRE ??Subroutine69_0
   \   000003                ; // Fall through to label ??Subroutine69_0

   \                                 In  segment BANKED_CODE, align 1, keep-with-next
   \                     ??Subroutine69_0:
   \   000000   E0           MOVX    A,@DPTR
   \   000001   FA           MOV     R2,A
   \   000002   A3           INC     DPTR
   \   000003   E0           MOVX    A,@DPTR
   \   000004   FB           MOV     R3,A
   \   000005   22           RET
    346          
    347          /*********************************************************************
    348           * @fn      setPageUse
    349           *
    350           * @brief   Set page header active/inUse state according to 'inUse'.
    351           *
    352           * @param   pg - Valid NV page to verify and init.
    353           * @param   inUse - Boolean TRUE if inUse, FALSE if only active.
    354           *
    355           * @return  none
    356           */

   \                                 In  segment BANKED_CODE, align 1, keep-with-next
    357          static void setPageUse( uint8 pg, uint8 inUse )
   \                     setPageUse:
    358          {
   \   000000   74F7         MOV     A,#-0x9
   \   000002   12....       LCALL   ?BANKED_ENTER_XDATA
   \   000005                ; Saved register size: 9
   \   000005                ; Auto size: 8
   \   000005   74F8         MOV     A,#-0x8
   \   000007   12....       LCALL   ?ALLOC_XSTACK8
   \   00000A   EA           MOV     A,R2
   \   00000B   FF           MOV     R7,A
    359            osalNvPgHdr_t pgHdr;
    360          
    361            pgHdr.active = OSAL_NV_ZEROED_ID;
   \   00000C   85..82       MOV     DPL,?XSP + 0
   \   00000F   85..83       MOV     DPH,?XSP + 1
   \   000012   E4           CLR     A
   \   000013   F0           MOVX    @DPTR,A
   \   000014   A3           INC     DPTR
   \   000015   F0           MOVX    @DPTR,A
    362          
    363            if ( inUse )
   \   000016   EF           MOV     A,R7
   \   000017   6008         JZ      ??setPageUse_0
    364            {
    365              pgHdr.inUse = OSAL_NV_ZEROED_ID;
   \   000019   7402         MOV     A,#0x2
   \   00001B   12....       LCALL   ?XSTACK_DISP0_8
   \   00001E   E4           CLR     A
   \   00001F   8007         SJMP    ??setPageUse_1
    366            }
    367            else
    368            {
    369              pgHdr.inUse = OSAL_NV_ERASED_ID;
   \                     ??setPageUse_0:
   \   000021   7402         MOV     A,#0x2
   \   000023   12....       LCALL   ?XSTACK_DISP0_8
   \   000026   74FF         MOV     A,#-0x1
    370            }
   \                     ??setPageUse_1:
   \   000028   12....       LCALL   ??Subroutine58_0 & 0xFFFF
    371          
    372            writeWord( pg, OSAL_NV_PAGE_HDR_OFFSET, (uint8*)(&pgHdr) );
   \                     ??CrossCallReturnLabel_111:
   \   00002B   7A00         MOV     R2,#0x0
   \   00002D   7B00         MOV     R3,#0x0
   \   00002F   12....       LCALL   ??writeWord?relay
    373          }
   \   000032   7408         MOV     A,#0x8
   \   000034   02....       LJMP    ?Subroutine1 & 0xFFFF

   \                                 In  segment BANKED_CODE, align 1, keep-with-next
   \                     ?Subroutine1:
   \   000000   12....       LCALL   ?DEALLOC_XSTACK8
   \   000003                REQUIRE ??Subroutine56_0
   \   000003                ; // Fall through to label ??Subroutine56_0

   \                                 In  segment BANKED_CODE, align 1, keep-with-next
   \                     ??Subroutine56_0:
   \   000000   7F01         MOV     R7,#0x1
   \   000002   02....       LJMP    ?BANKED_LEAVE_XDATA

   \                                 In  segment BANKED_CODE, align 1, keep-with-next
   \                     ??Subroutine58_0:
   \   000000   F0           MOVX    @DPTR,A
   \   000001   A3           INC     DPTR
   \   000002                REQUIRE ??Subroutine59_0
   \   000002                ; // Fall through to label ??Subroutine59_0

   \                                 In  segment BANKED_CODE, align 1, keep-with-next
   \                     ??Subroutine59_0:
   \   000000   F0           MOVX    @DPTR,A
   \   000001                ; Setup parameters for call to function writeWordH
   \   000001                ; Setup parameters for call to function writeWord
   \   000001                ; Setup parameters for call to function writeWord
   \   000001                ; Setup parameters for call to function writeWord
   \   000001   85..82       MOV     DPL,?XSP + 0
   \   000004   85..83       MOV     DPH,?XSP + 1
   \   000007   AC82         MOV     R4,DPL
   \   000009   AD83         MOV     R5,DPH
   \   00000B   22           RET
    374          
    375          /*********************************************************************
    376           * @fn      initPage
    377           *
    378           * @brief   Walk the page items; calculate checksums, lost bytes & page offset.
    379           *
    380           * @param   pg - Valid NV page to verify and init.
    381           * @param   id - Valid NV item Id to use function as a "findItem".
    382           *               If set to NULL then just perform the page initialization.
    383           * @param   findDups - TRUE on recursive call from initNV() to find and zero-out duplicate items
    384           *                     left from a write that is interrupted by a reset/power-cycle.
    385           *                     FALSE otherwise.
    386           *
    387           * @return  If 'id' is non-NULL and good checksums are found, return the offset
    388           *          of the data corresponding to item Id; else OSAL_NV_ITEM_NULL.
    389           */

   \                                 In  segment BANKED_CODE, align 1, keep-with-next
    390          static uint16 initPage( uint8 pg, uint16 id, uint8 findDups )
   \                     initPage:
    391          {
   \   000000   74F0         MOV     A,#-0x10
   \   000002   12....       LCALL   ?BANKED_ENTER_XDATA
   \   000005                ; Saved register size: 16
   \   000005                ; Auto size: 10
   \   000005   74F6         MOV     A,#-0xa
   \   000007   12....       LCALL   ?ALLOC_XSTACK8
   \   00000A   85..82       MOV     DPL,?XSP + 0
   \   00000D   85..83       MOV     DPH,?XSP + 1
   \   000010   12....       LCALL   ?Subroutine11 & 0xFFFF
   \                     ??CrossCallReturnLabel_13:
   \   000013   8C..         MOV     ?V0 + 7,R4
    392            uint16 offset = OSAL_NV_PAGE_HDR_SIZE;
   \   000015   75..08       MOV     ?V0 + 2,#0x8
   \   000018   75..00       MOV     ?V0 + 3,#0x0
    393            uint16 sz, lost = 0;
   \   00001B   7E00         MOV     R6,#0x0
   \   00001D   7F00         MOV     R7,#0x0
    394            osalNvHdr_t hdr;
    395          
    396            do
    397            {
    398              HalFlashRead(pg, offset, (uint8 *)(&hdr), OSAL_NV_HDR_SIZE);
   \                     ??initPage_0:
   \   00001F                ; Setup parameters for call to function HalFlashRead
   \   00001F   75..08       MOV     ?V0 + 0,#0x8
   \   000022   75..00       MOV     ?V0 + 1,#0x0
   \   000025   78..         MOV     R0,#?V0 + 0
   \   000027   12....       LCALL   ?PUSH_XSTACK_I_TWO
   \   00002A   7404         MOV     A,#0x4
   \   00002C   12....       LCALL   ?XSTACK_DISP0_8
   \   00002F   12....       LCALL   ?Subroutine12 & 0xFFFF
   \                     ??CrossCallReturnLabel_121:
   \   000032   12....       LCALL   ?DEALLOC_XSTACK8
    399          
    400              if ( hdr.id == OSAL_NV_ERASED_ID )
   \   000035   7402         MOV     A,#0x2
   \   000037   12....       LCALL   ?XSTACK_DISP0_8
   \   00003A   E0           MOVX    A,@DPTR
   \   00003B   F4           CPL     A
   \   00003C   7003         JNZ     ??initPage_1
   \   00003E   A3           INC     DPTR
   \   00003F   E0           MOVX    A,@DPTR
   \   000040   F4           CPL     A
   \                     ??initPage_1:
   \   000041   7003         JNZ     $+5
   \   000043   02....       LJMP    ??initPage_2 & 0xFFFF
    401              {
    402                break;
    403              }
    404          
    405              // Get the actual size in bytes which is the ceiling(hdr.len)
    406              sz = OSAL_NV_DATA_SIZE( hdr.len );
   \   000046   7404         MOV     A,#0x4
   \   000048   12....       LCALL   ?XSTACK_DISP0_8
   \   00004B   12....       LCALL   ?Subroutine19 & 0xFFFF
   \                     ??CrossCallReturnLabel_29:
   \   00004E   4008         JC      ??initPage_3
   \   000050   75..FC       MOV     ?V0 + 0,#-0x4
   \   000053   75..FF       MOV     ?V0 + 1,#-0x1
   \   000056   8008         SJMP    ??initPage_4
   \                     ??initPage_3:
   \   000058   12....       LCALL   ?Subroutine35 & 0xFFFF
   \                     ??CrossCallReturnLabel_62:
   \   00005B   F5..         MOV     ?V0 + 0,A
   \   00005D   E9           MOV     A,R1
   \   00005E   F5..         MOV     ?V0 + 1,A
    407          
    408              // A bad 'len' write has blown away the rest of the page.
    409              if (sz > (OSAL_NV_PAGE_SIZE - OSAL_NV_HDR_SIZE - offset))
   \                     ??initPage_4:
   \   000060   12....       LCALL   ?Subroutine37 & 0xFFFF
   \                     ??CrossCallReturnLabel_68:
   \   000063   95..         SUBB    A,?V0 + 0
   \   000065   E9           MOV     A,R1
   \   000066   95..         SUBB    A,?V0 + 1
   \   000068   501A         JNC     ??initPage_5
    410              {
    411                lost += (OSAL_NV_PAGE_SIZE - offset);
   \   00006A   EE           MOV     A,R6
   \   00006B   2400         ADD     A,#0x0
   \   00006D   F8           MOV     R0,A
   \   00006E   EF           MOV     A,R7
   \   00006F   3408         ADDC    A,#0x8
   \   000071   F9           MOV     R1,A
   \   000072   E8           MOV     A,R0
   \   000073   C3           CLR     C
   \   000074   95..         SUBB    A,?V0 + 2
   \   000076   FE           MOV     R6,A
   \   000077   E9           MOV     A,R1
   \   000078   95..         SUBB    A,?V0 + 3
   \   00007A   FF           MOV     R7,A
    412                offset = OSAL_NV_PAGE_SIZE;
   \   00007B   75..00       MOV     ?V0 + 2,#0x0
   \   00007E   75..08       MOV     ?V0 + 3,#0x8
    413                break;
   \   000081   02....       LJMP    ??initPage_2 & 0xFFFF
    414              }
    415          
    416              offset += OSAL_NV_HDR_SIZE;
   \                     ??initPage_5:
   \   000084   12....       LCALL   ?Subroutine36 & 0xFFFF
    417          
    418              if ( hdr.id != OSAL_NV_ZEROED_ID )
   \                     ??CrossCallReturnLabel_65:
   \   000087   7402         MOV     A,#0x2
   \   000089   12....       LCALL   ?XSTACK_DISP0_8
   \   00008C   12....       LCALL   ?Subroutine14 & 0xFFFF
   \                     ??CrossCallReturnLabel_16:
   \   00008F   7003         JNZ     $+5
   \   000091   02....       LJMP    ??initPage_6 & 0xFFFF
    419              {
    420                /* This trick allows function to do double duty for findItem() without
    421                 * compromising its essential functionality at powerup initialization.
    422                 */
    423                if ( id != OSAL_NV_ITEM_NULL )
   \   000094   85..82       MOV     DPL,?XSP + 0
   \   000097   85..83       MOV     DPH,?XSP + 1
   \   00009A   12....       LCALL   ?Subroutine14 & 0xFFFF
   \                     ??CrossCallReturnLabel_17:
   \   00009D   604D         JZ      ??initPage_7
    424                {
    425                  /* This trick allows asking to find the old/transferred item in case
    426                   * of a successful new item write that gets interrupted before the
    427                   * old item can be zeroed out.
    428                   */
    429                  if ( (id & 0x7fff) == hdr.id )
   \   00009F   85..82       MOV     DPL,?XSP + 0
   \   0000A2   85..83       MOV     DPH,?XSP + 1
   \   0000A5   A3           INC     DPTR
   \   0000A6   E0           MOVX    A,@DPTR
   \   0000A7   547F         ANL     A,#0x7f
   \   0000A9   F9           MOV     R1,A
   \   0000AA   7402         MOV     A,#0x2
   \   0000AC   12....       LCALL   ?XSTACK_DISP0_8
   \   0000AF   E0           MOVX    A,@DPTR
   \   0000B0   68           XRL     A,R0
   \   0000B1   7003         JNZ     ??initPage_8
   \   0000B3   A3           INC     DPTR
   \   0000B4   E0           MOVX    A,@DPTR
   \   0000B5   69           XRL     A,R1
   \                     ??initPage_8:
   \   0000B6   6003         JZ      $+5
   \   0000B8   02....       LJMP    ??initPage_9 & 0xFFFF
    430                  {
    431                    if ( (((id & OSAL_NV_SOURCE_ID) == 0) && (hdr.stat == OSAL_NV_ERASED_ID)) ||
    432                         (((id & OSAL_NV_SOURCE_ID) != 0) && (hdr.stat != OSAL_NV_ERASED_ID)) )
   \   0000BB   7408         MOV     A,#0x8
   \   0000BD   12....       LCALL   ?XSTACK_DISP0_8
   \   0000C0   12....       LCALL   ??Subroutine69_0 & 0xFFFF
   \                     ??CrossCallReturnLabel_147:
   \   0000C3   85..82       MOV     DPL,?XSP + 0
   \   0000C6   85..83       MOV     DPH,?XSP + 1
   \   0000C9   A3           INC     DPTR
   \   0000CA   E0           MOVX    A,@DPTR
   \   0000CB   5480         ANL     A,#0x80
   \   0000CD   700C         JNZ     ??initPage_10
   \   0000CF   74FF         MOV     A,#-0x1
   \   0000D1   6A           XRL     A,R2
   \   0000D2   7003         JNZ     ??initPage_11
   \   0000D4   74FF         MOV     A,#-0x1
   \   0000D6   6B           XRL     A,R3
   \                     ??initPage_11:
   \   0000D7   707F         JNZ     ??initPage_9
   \   0000D9   800A         SJMP    ??initPage_12
   \                     ??initPage_10:
   \   0000DB   74FF         MOV     A,#-0x1
   \   0000DD   6A           XRL     A,R2
   \   0000DE   7003         JNZ     ??initPage_13
   \   0000E0   74FF         MOV     A,#-0x1
   \   0000E2   6B           XRL     A,R3
   \                     ??initPage_13:
   \   0000E3   6073         JZ      ??initPage_9
    433                    {
    434                      return offset;
   \                     ??initPage_12:
   \   0000E5   AA..         MOV     R2,?V0 + 2
   \   0000E7   AB..         MOV     R3,?V0 + 3
   \   0000E9   02....       LJMP    ??initPage_14 & 0xFFFF
    435                    }
    436                  }
    437                }
    438                // When invoked from the osal_nv_init(), verify checksums and find & zero any duplicates.
    439                else
    440                {
    441                  if ( hdr.chk == calcChkF( pg, offset, hdr.len ) )
   \                     ??initPage_7:
   \   0000EC                ; Setup parameters for call to function calcChkF
   \   0000EC   12....       LCALL   ?Subroutine39 & 0xFFFF
   \                     ??CrossCallReturnLabel_72:
   \   0000EF   7406         MOV     A,#0x6
   \   0000F1   12....       LCALL   ?XSTACK_DISP0_8
   \   0000F4   E0           MOVX    A,@DPTR
   \   0000F5   68           XRL     A,R0
   \   0000F6   7003         JNZ     ??initPage_15
   \   0000F8   A3           INC     DPTR
   \   0000F9   E0           MOVX    A,@DPTR
   \   0000FA   69           XRL     A,R1
   \                     ??initPage_15:
   \   0000FB   7040         JNZ     ??initPage_16
    442                  {
    443                    if ( findDups )
   \   0000FD   7408         MOV     A,#0x8
   \   0000FF   12....       LCALL   ?XSTACK_DISP0_8
   \   000102   12....       LCALL   ?Subroutine23 & 0xFFFF
   \                     ??CrossCallReturnLabel_38:
   \   000105   E5..         MOV     A,?V0 + 7
   \   000107   6024         JZ      ??initPage_17
    444                    {
    445                      if ( hdr.stat == OSAL_NV_ERASED_ID )
   \   000109   74FF         MOV     A,#-0x1
   \   00010B   68           XRL     A,R0
   \   00010C   7003         JNZ     ??initPage_18
   \   00010E   74FF         MOV     A,#-0x1
   \   000110   69           XRL     A,R1
   \                     ??initPage_18:
   \   000111   7045         JNZ     ??initPage_9
    446                      {
    447                        /* The trick of setting the MSB of the item Id causes the logic
    448                         * immediately above to return a valid page only if the header 'stat'
    449                         * indicates that it was the older item being transferred.
    450                         */
    451                        uint16 off = findItem( (hdr.id | OSAL_NV_SOURCE_ID) );
   \   000113                ; Setup parameters for call to function findItem
   \   000113   7402         MOV     A,#0x2
   \   000115   12....       LCALL   ?XSTACK_DISP0_8
   \   000118   E0           MOVX    A,@DPTR
   \   000119   FA           MOV     R2,A
   \   00011A   A3           INC     DPTR
   \   00011B   E0           MOVX    A,@DPTR
   \   00011C   4480         ORL     A,#0x80
   \   00011E   FB           MOV     R3,A
   \   00011F   12....       LCALL   ??findItem?relay
    452          
    453                        if ( off != OSAL_NV_ITEM_NULL )
   \   000122   EA           MOV     A,R2
   \   000123   4B           ORL     A,R3
   \   000124   6032         JZ      ??initPage_9
    454                        {
    455                          setItem( findPg, off, eNvZero );  // Mark old duplicate as invalid.
   \   000126                ; Setup parameters for call to function setItem
   \   000126   7C01         MOV     R4,#0x1
   \   000128   12....       LCALL   ?Subroutine24 & 0xFFFF
    456                        }
    457                      }
    458                    }
   \                     ??CrossCallReturnLabel_97:
   \   00012B   802B         SJMP    ??initPage_9
    459                    // Any "old" item immediately exits and triggers the N^2 exhaustive initialization.
    460                    else if ( hdr.stat != OSAL_NV_ERASED_ID )
   \                     ??initPage_17:
   \   00012D   74FF         MOV     A,#-0x1
   \   00012F   68           XRL     A,R0
   \   000130   7003         JNZ     ??initPage_19
   \   000132   74FF         MOV     A,#-0x1
   \   000134   69           XRL     A,R1
   \                     ??initPage_19:
   \   000135   6021         JZ      ??initPage_9
    461                    {
    462                      return OSAL_NV_ERASED_ID;
   \   000137   7AFF         MOV     R2,#-0x1
   \   000139   7BFF         MOV     R3,#-0x1
   \   00013B   804C         SJMP    ??initPage_14
    463                    }
    464                  }
    465                  else
    466                  {
    467                    setItem( pg, offset, eNvZero );  // Mark bad checksum as invalid.
   \                     ??initPage_16:
   \   00013D                ; Setup parameters for call to function setItem
   \   00013D   7C01         MOV     R4,#0x1
   \   00013F   AA..         MOV     R2,?V0 + 2
   \   000141   AB..         MOV     R3,?V0 + 3
   \   000143   A9..         MOV     R1,?V0 + 6
   \   000145   12....       LCALL   ??setItem?relay
    468                    lost += (OSAL_NV_HDR_SIZE + sz);
    469                  }
    470                }
    471              }
    472              else
    473              {
    474                lost += (OSAL_NV_HDR_SIZE + sz);
   \                     ??initPage_6:
   \   000148   E5..         MOV     A,?V0 + 0
   \   00014A   2408         ADD     A,#0x8
   \   00014C   F8           MOV     R0,A
   \   00014D   E5..         MOV     A,?V0 + 1
   \   00014F   3400         ADDC    A,#0x0
   \   000151   F9           MOV     R1,A
   \   000152   EE           MOV     A,R6
   \   000153   28           ADD     A,R0
   \   000154   FE           MOV     R6,A
   \   000155   EF           MOV     A,R7
   \   000156   39           ADDC    A,R1
   \   000157   FF           MOV     R7,A
    475              }
    476              offset += sz;
   \                     ??initPage_9:
   \   000158   E5..         MOV     A,?V0 + 2
   \   00015A   25..         ADD     A,?V0 + 0
   \   00015C   F5..         MOV     ?V0 + 2,A
   \   00015E   E5..         MOV     A,?V0 + 3
   \   000160   35..         ADDC    A,?V0 + 1
   \   000162   F5..         MOV     ?V0 + 3,A
    477          
    478            } while (offset < (OSAL_NV_PAGE_SIZE - OSAL_NV_HDR_SIZE));
   \   000164   C3           CLR     C
   \   000165   E5..         MOV     A,?V0 + 2
   \   000167   94F8         SUBB    A,#-0x8
   \   000169   E5..         MOV     A,?V0 + 3
   \   00016B   9407         SUBB    A,#0x7
   \   00016D   5003         JNC     $+5
   \   00016F   02....       LJMP    ??initPage_0 & 0xFFFF
    479          
    480            pgOff[pg - OSAL_NV_PAGE_BEG] = offset;
   \                     ??initPage_2:
   \   000172   E5..         MOV     A,?V0 + 6
   \   000174   12....       LCALL   ??Subroutine55_0 & 0xFFFF
   \                     ??CrossCallReturnLabel_101:
   \   000177   E5..         MOV     A,?V0 + 2
   \   000179   F0           MOVX    @DPTR,A
   \   00017A   A3           INC     DPTR
   \   00017B   E5..         MOV     A,?V0 + 3
   \   00017D   12....       LCALL   ?Subroutine10 & 0xFFFF
    481            pgLost[pg - OSAL_NV_PAGE_BEG] = lost;
   \                     ??CrossCallReturnLabel_11:
   \   000180   EE           MOV     A,R6
   \   000181   F0           MOVX    @DPTR,A
   \   000182   A3           INC     DPTR
   \   000183   EF           MOV     A,R7
   \   000184   F0           MOVX    @DPTR,A
    482          
    483            return OSAL_NV_ITEM_NULL;
   \   000185   7A00         MOV     R2,#0x0
   \   000187   7B00         MOV     R3,#0x0
   \                     ??initPage_14:
   \   000189   02....       LJMP    ?Subroutine2 & 0xFFFF
    484          }

   \                                 In  segment BANKED_CODE, align 1, keep-with-next
   \                     ?Subroutine24:
   \   000000   90....       MOV     DPTR,#findPg
   \   000003                REQUIRE ??Subroutine54_0
   \   000003                ; // Fall through to label ??Subroutine54_0

   \                                 In  segment BANKED_CODE, align 1, keep-with-next
   \                     ??Subroutine54_0:
   \   000000   E0           MOVX    A,@DPTR
   \   000001   F9           MOV     R1,A
   \   000002   12....       LCALL   ??setItem?relay
   \   000005   22           RET

   \                                 In  segment BANKED_CODE, align 1, keep-with-next
   \                     ??Subroutine55_0:
   \   000000   C3           CLR     C
   \   000001   33           RLC     A
   \   000002   F8           MOV     R0,A
   \   000003   E4           CLR     A
   \   000004   33           RLC     A
   \   000005   F9           MOV     R1,A
   \   000006   74..         MOV     A,#(pgOff + 14) & 0xff
   \   000008   28           ADD     A,R0
   \   000009   F582         MOV     DPL,A
   \   00000B   74..         MOV     A,#((pgOff - 242) >> 8) & 0xff
   \   00000D   39           ADDC    A,R1
   \   00000E   F583         MOV     DPH,A
   \   000010   22           RET

   \                                 In  segment BANKED_CODE, align 1, keep-with-next
   \                     ?Subroutine10:
   \   000000   F0           MOVX    @DPTR,A
   \   000001   74..         MOV     A,#(pgLost + 14) & 0xff
   \   000003   28           ADD     A,R0
   \   000004   F582         MOV     DPL,A
   \   000006   74..         MOV     A,#((pgLost - 242) >> 8) & 0xff
   \   000008   39           ADDC    A,R1
   \   000009   F583         MOV     DPH,A
   \   00000B   22           RET

   \                                 In  segment BANKED_CODE, align 1, keep-with-next
   \                     ?Subroutine39:
   \   000000   AA..         MOV     R2,?V0 + 2
   \   000002   AB..         MOV     R3,?V0 + 3
   \   000004   A9..         MOV     R1,?V0 + 6
   \   000006   12....       LCALL   ??calcChkF?relay
   \   000009   8A..         MOV     ?V0 + 4,R2
   \   00000B   8B..         MOV     ?V0 + 5,R3
   \   00000D   A8..         MOV     R0,?V0 + 4
   \   00000F   A9..         MOV     R1,?V0 + 5
   \   000011   22           RET

   \                                 In  segment BANKED_CODE, align 1, keep-with-next
   \                     ?Subroutine37:
   \   000000   74F8         MOV     A,#-0x8
   \   000002   C3           CLR     C
   \   000003   95..         SUBB    A,?V0 + 2
   \   000005   F8           MOV     R0,A
   \   000006   7407         MOV     A,#0x7
   \   000008   95..         SUBB    A,?V0 + 3
   \   00000A   F9           MOV     R1,A
   \   00000B   C3           CLR     C
   \   00000C   E8           MOV     A,R0
   \   00000D   22           RET

   \                                 In  segment BANKED_CODE, align 1, keep-with-next
   \                     ?Subroutine36:
   \   000000   E5..         MOV     A,?V0 + 2
   \   000002   2408         ADD     A,#0x8
   \   000004   F5..         MOV     ?V0 + 2,A
   \   000006   E5..         MOV     A,?V0 + 3
   \   000008   3400         ADDC    A,#0x0
   \   00000A   F5..         MOV     ?V0 + 3,A
   \   00000C   22           RET

   \                                 In  segment BANKED_CODE, align 1, keep-with-next
   \                     ?Subroutine35:
   \   000000   EC           MOV     A,R4
   \   000001   2403         ADD     A,#0x3
   \   000003   F8           MOV     R0,A
   \   000004   ED           MOV     A,R5
   \   000005   12....       LCALL   ?Subroutine51 & 0xFFFF
   \                     ??CrossCallReturnLabel_145:
   \   000008   22           RET

   \                                 In  segment BANKED_CODE, align 1, keep-with-next
   \                     ?Subroutine51:
   \   000000   3400         ADDC    A,#0x0
   \   000002   F9           MOV     R1,A
   \   000003   E8           MOV     A,R0
   \   000004   54FC         ANL     A,#0xfc
   \   000006   22           RET

   \                                 In  segment BANKED_CODE, align 1, keep-with-next
   \                     ?Subroutine19:
   \   000000   12....       LCALL   ?Subroutine47 & 0xFFFF
   \                     ??CrossCallReturnLabel_90:
   \   000003   C3           CLR     C
   \   000004   EC           MOV     A,R4
   \   000005   94FC         SUBB    A,#-0x4
   \   000007   ED           MOV     A,R5
   \   000008   94FF         SUBB    A,#-0x1
   \   00000A   22           RET

   \                                 In  segment BANKED_CODE, align 1, keep-with-next
   \                     ?Subroutine11:
   \   000000   EA           MOV     A,R2
   \   000001   F0           MOVX    @DPTR,A
   \   000002   A3           INC     DPTR
   \   000003   EB           MOV     A,R3
   \   000004   F0           MOVX    @DPTR,A
   \   000005   89..         MOV     ?V0 + 6,R1
   \   000007   22           RET

   \                                 In  segment BANKED_CODE, align 1, keep-with-next
   \                     ?Subroutine12:
   \   000000   AC82         MOV     R4,DPL
   \   000002   AD83         MOV     R5,DPH
   \   000004   AA..         MOV     R2,?V0 + 2
   \   000006   AB..         MOV     R3,?V0 + 3
   \   000008                REQUIRE ??Subroutine64_0
   \   000008                ; // Fall through to label ??Subroutine64_0

   \                                 In  segment BANKED_CODE, align 1, keep-with-next
   \                     ??Subroutine64_0:
   \   000000   A9..         MOV     R1,?V0 + 6
   \   000002                REQUIRE ??Subroutine65_0
   \   000002                ; // Fall through to label ??Subroutine65_0

   \                                 In  segment BANKED_CODE, align 1, keep-with-next
   \                     ?Subroutine2:
   \   000000   740A         MOV     A,#0xa
   \   000002                REQUIRE ??Subroutine66_0
   \   000002                ; // Fall through to label ??Subroutine66_0

   \                                 In  segment BANKED_CODE, align 1, keep-with-next
   \                     ??Subroutine66_0:
   \   000000   12....       LCALL   ?DEALLOC_XSTACK8
   \   000003                REQUIRE ??Subroutine67_0
   \   000003                ; // Fall through to label ??Subroutine67_0

   \                                 In  segment BANKED_CODE, align 1, keep-with-next
   \                     ??Subroutine67_0:
   \   000000   7F08         MOV     R7,#0x8
   \   000002   02....       LJMP    ?BANKED_LEAVE_XDATA

   \                                 In  segment BANKED_CODE, align 1, keep-with-next
   \                     ?Subroutine47:
   \   000000   E0           MOVX    A,@DPTR
   \   000001   FC           MOV     R4,A
   \   000002   A3           INC     DPTR
   \   000003   E0           MOVX    A,@DPTR
   \   000004   FD           MOV     R5,A
   \   000005   22           RET

   \                                 In  segment BANKED_CODE, align 1, keep-with-next
   \                     ?Subroutine23:
   \   000000   E0           MOVX    A,@DPTR
   \   000001   F8           MOV     R0,A
   \   000002   A3           INC     DPTR
   \   000003   E0           MOVX    A,@DPTR
   \   000004   F9           MOV     R1,A
   \   000005   22           RET

   \                                 In  segment BANKED_CODE, align 1, keep-with-next
   \                     ?Subroutine14:
   \   000000   E0           MOVX    A,@DPTR
   \   000001   F8           MOV     R0,A
   \   000002   A3           INC     DPTR
   \   000003   E0           MOVX    A,@DPTR
   \   000004   F9           MOV     R1,A
   \   000005   E8           MOV     A,R0
   \   000006   49           ORL     A,R1
   \   000007   22           RET
    485          
    486          /*********************************************************************
    487           * @fn      erasePage
    488           *
    489           * @brief   Erases a page in Flash.
    490           *
    491           * @param   pg - Valid NV page to erase.
    492           *
    493           * @return  none
    494           */

   \                                 In  segment BANKED_CODE, align 1, keep-with-next
    495          static void erasePage( uint8 pg )
   \                     erasePage:
    496          {
   \   000000   74F7         MOV     A,#-0x9
   \   000002   12....       LCALL   ?BANKED_ENTER_XDATA
   \   000005                ; Saved register size: 9
   \   000005                ; Auto size: 0
   \   000005   E9           MOV     A,R1
   \   000006   FE           MOV     R6,A
    497            HalFlashErase(pg);
   \   000007                ; Setup parameters for call to function HalFlashErase
   \   000007   12....       LCALL   ??HalFlashErase?relay
    498          
    499            pgOff[pg - OSAL_NV_PAGE_BEG] = OSAL_NV_PAGE_HDR_SIZE;
   \   00000A   12....       LCALL   ?Subroutine31 & 0xFFFF
   \                     ??CrossCallReturnLabel_103:
   \   00000D   7408         MOV     A,#0x8
   \   00000F   F0           MOVX    @DPTR,A
   \   000010   A3           INC     DPTR
   \   000011   E4           CLR     A
   \   000012   12....       LCALL   ?Subroutine10 & 0xFFFF
    500            pgLost[pg - OSAL_NV_PAGE_BEG] = 0;
   \                     ??CrossCallReturnLabel_12:
   \   000015   E4           CLR     A
   \   000016   F0           MOVX    @DPTR,A
   \   000017   A3           INC     DPTR
   \   000018   F0           MOVX    @DPTR,A
    501          }
   \   000019   80..         SJMP    ??Subroutine56_0

   \                                 In  segment BANKED_CODE, align 1, keep-with-next
   \                     ?Subroutine31:
   \   000000   EE           MOV     A,R6
   \   000001                REQUIRE ??Subroutine55_0
   \   000001                ; // Fall through to label ??Subroutine55_0
    502          
    503          /*********************************************************************
    504           * @fn      compactPage
    505           *
    506           * @brief   Compacts the page specified.
    507           *
    508           * @param   srcPg - Valid NV page to erase.
    509           * @param   skipId - Item Id to not compact.
    510           *
    511           * @return  TRUE if valid items from 'srcPg' are successully compacted onto the 'pgRes';
    512           *          FALSE otherwise.
    513           *          Note that on a failure, this could loop, re-erasing the 'pgRes' and re-compacting with
    514           *          the risk of infinitely looping on HAL flash failure.
    515           *          Worst case scenario: HAL flash starts failing in general, perhaps low Vdd?
    516           *          All page compactions will fail which will cause all osal_nv_write() calls to return
    517           *          NV_OPER_FAILED.
    518           *          Eventually, all pages in use may also be in the state of "pending compaction" where
    519           *          the page header member OSAL_NV_PG_XFER is zeroed out.
    520           *          During this "HAL flash brown-out", the code will run and OTA should work (until low Vdd
    521           *          causes an actual chip brown-out, of course.) Although no new NV items will be created
    522           *          or written, the last value written with a return value of SUCCESS can continue to be
    523           *          read successfully.
    524           *          If eventually HAL flash starts working again, all of the pages marked as
    525           *          "pending compaction" may or may not be eventually compacted. But, initNV() will
    526           *          deterministically clean-up one page pending compaction per power-cycle
    527           *          (if HAL flash is working.) Nevertheless, one erased reserve page will be maintained
    528           *          through such a scenario.
    529           */

   \                                 In  segment BANKED_CODE, align 1, keep-with-next
    530          static uint8 compactPage( uint8 srcPg, uint16 skipId )
   \                     compactPage:
    531          {
   \   000000   74F1         MOV     A,#-0xf
   \   000002   12....       LCALL   ?BANKED_ENTER_XDATA
   \   000005                ; Saved register size: 15
   \   000005                ; Auto size: 11
   \   000005   74F5         MOV     A,#-0xb
   \   000007   12....       LCALL   ?ALLOC_XSTACK8
   \   00000A   7409         MOV     A,#0x9
   \   00000C   12....       LCALL   ?XSTACK_DISP0_8
   \   00000F   12....       LCALL   ?Subroutine11 & 0xFFFF
    532            uint16 srcOff;
    533            uint8 rtrn;
    534          
    535            // To minimize code size, only check for a clean page here where it's absolutely required.
    536            for (srcOff = 0; srcOff < OSAL_NV_PAGE_SIZE; srcOff++)
   \                     ??CrossCallReturnLabel_14:
   \   000012   75..00       MOV     ?V0 + 2,#0x0
   \   000015   75..00       MOV     ?V0 + 3,#0x0
    537            {
    538              HalFlashRead(pgRes, srcOff, &rtrn, 1);
   \                     ??compactPage_0:
   \   000018                ; Setup parameters for call to function HalFlashRead
   \   000018   75..01       MOV     ?V0 + 0,#0x1
   \   00001B   75..00       MOV     ?V0 + 1,#0x0
   \   00001E   78..         MOV     R0,#?V0 + 0
   \   000020   12....       LCALL   ?PUSH_XSTACK_I_TWO
   \   000023   7402         MOV     A,#0x2
   \   000025   12....       LCALL   ?XSTACK_DISP0_8
   \   000028   AC82         MOV     R4,DPL
   \   00002A   AD83         MOV     R5,DPH
   \   00002C   AA..         MOV     R2,?V0 + 2
   \   00002E   AB..         MOV     R3,?V0 + 3
   \   000030   90....       MOV     DPTR,#pgRes
   \   000033   E0           MOVX    A,@DPTR
   \   000034   F9           MOV     R1,A
   \   000035   12....       LCALL   ??Subroutine65_0 & 0xFFFF
   \                     ??CrossCallReturnLabel_126:
   \   000038   12....       LCALL   ?DEALLOC_XSTACK8
    539              if (rtrn != OSAL_NV_ERASED)
   \   00003B   85..82       MOV     DPL,?XSP + 0
   \   00003E   85..83       MOV     DPH,?XSP + 1
   \   000041   E0           MOVX    A,@DPTR
   \   000042   F4           CPL     A
   \   000043   6008         JZ      ??compactPage_1
    540              {
    541                erasePage(pgRes);
   \   000045                ; Setup parameters for call to function erasePage
   \   000045   12....       LCALL   ?Subroutine25 & 0xFFFF
    542                return FALSE;
   \                     ??CrossCallReturnLabel_105:
   \   000048   7900         MOV     R1,#0x0
   \   00004A   02....       LJMP    ??compactPage_2 & 0xFFFF
    543              }
    544            }
   \                     ??compactPage_1:
   \   00004D   12....       LCALL   ?Subroutine41 & 0xFFFF
   \                     ??CrossCallReturnLabel_76:
   \   000050   C3           CLR     C
   \   000051   9408         SUBB    A,#0x8
   \   000053   40C3         JC      ??compactPage_0
    545          
    546            srcOff = OSAL_NV_PAGE_HDR_SIZE;
   \   000055   75..08       MOV     ?V0 + 2,#0x8
   \   000058   75..00       MOV     ?V0 + 3,#0x0
    547            rtrn = TRUE;
   \   00005B   7401         MOV     A,#0x1
   \   00005D   F0           MOVX    @DPTR,A
    548          
    549            while ( srcOff < (OSAL_NV_PAGE_SIZE - OSAL_NV_HDR_SIZE ) )
    550            {
    551              osalNvHdr_t hdr;
    552              uint16 sz, dstOff = pgOff[pgRes-OSAL_NV_PAGE_BEG];
   \                     ??compactPage_3:
   \   00005E   90....       MOV     DPTR,#pgRes
   \   000061   E0           MOVX    A,@DPTR
   \   000062   12....       LCALL   ??Subroutine55_0 & 0xFFFF
   \                     ??CrossCallReturnLabel_102:
   \   000065   E0           MOVX    A,@DPTR
   \   000066   F5..         MOV     ?V0 + 0,A
   \   000068   A3           INC     DPTR
   \   000069   E0           MOVX    A,@DPTR
   \   00006A   F5..         MOV     ?V0 + 1,A
    553          
    554              HalFlashRead(srcPg, srcOff, (uint8 *)(&hdr), OSAL_NV_HDR_SIZE);
   \   00006C                ; Setup parameters for call to function HalFlashRead
   \   00006C   75..08       MOV     ?V0 + 4,#0x8
   \   00006F   75..00       MOV     ?V0 + 5,#0x0
   \   000072   78..         MOV     R0,#?V0 + 4
   \   000074   12....       LCALL   ?PUSH_XSTACK_I_TWO
   \   000077   7403         MOV     A,#0x3
   \   000079   12....       LCALL   ?XSTACK_DISP0_8
   \   00007C   12....       LCALL   ?Subroutine12 & 0xFFFF
   \                     ??CrossCallReturnLabel_122:
   \   00007F   12....       LCALL   ?DEALLOC_XSTACK8
    555          
    556              if ( hdr.id == OSAL_NV_ERASED_ID )
   \   000082   7401         MOV     A,#0x1
   \   000084   12....       LCALL   ?XSTACK_DISP0_8
   \   000087   E0           MOVX    A,@DPTR
   \   000088   F4           CPL     A
   \   000089   7003         JNZ     ??compactPage_4
   \   00008B   A3           INC     DPTR
   \   00008C   E0           MOVX    A,@DPTR
   \   00008D   F4           CPL     A
   \                     ??compactPage_4:
   \   00008E   7003         JNZ     $+5
   \   000090   02....       LJMP    ??compactPage_5 & 0xFFFF
    557              {
    558                break;
    559              }
    560          
    561              // Get the actual size in bytes which is the ceiling(hdr.len)
    562              sz = OSAL_NV_DATA_SIZE( hdr.len );
   \   000093   7403         MOV     A,#0x3
   \   000095   12....       LCALL   ?XSTACK_DISP0_8
   \   000098   12....       LCALL   ?Subroutine19 & 0xFFFF
   \                     ??CrossCallReturnLabel_30:
   \   00009B   4006         JC      ??compactPage_6
   \   00009D   7EFC         MOV     R6,#-0x4
   \   00009F   7FFF         MOV     R7,#-0x1
   \   0000A1   8006         SJMP    ??compactPage_7
   \                     ??compactPage_6:
   \   0000A3   12....       LCALL   ?Subroutine35 & 0xFFFF
   \                     ??CrossCallReturnLabel_63:
   \   0000A6   FE           MOV     R6,A
   \   0000A7   E9           MOV     A,R1
   \   0000A8   FF           MOV     R7,A
    563          
    564              if ( sz > (OSAL_NV_PAGE_SIZE - OSAL_NV_HDR_SIZE - srcOff) )
   \                     ??compactPage_7:
   \   0000A9   12....       LCALL   ?Subroutine37 & 0xFFFF
   \                     ??CrossCallReturnLabel_69:
   \   0000AC   9E           SUBB    A,R6
   \   0000AD   E9           MOV     A,R1
   \   0000AE   9F           SUBB    A,R7
   \   0000AF   5003         JNC     $+5
   \   0000B1   02....       LJMP    ??compactPage_5 & 0xFFFF
    565              {
    566                break;
    567              }
    568          
    569              if ( sz > (OSAL_NV_PAGE_SIZE - OSAL_NV_HDR_SIZE - dstOff) )
   \   0000B4   74F8         MOV     A,#-0x8
   \   0000B6   C3           CLR     C
   \   0000B7   95..         SUBB    A,?V0 + 0
   \   0000B9   F8           MOV     R0,A
   \   0000BA   7407         MOV     A,#0x7
   \   0000BC   95..         SUBB    A,?V0 + 1
   \   0000BE   F9           MOV     R1,A
   \   0000BF   C3           CLR     C
   \   0000C0   E8           MOV     A,R0
   \   0000C1   9E           SUBB    A,R6
   \   0000C2   E9           MOV     A,R1
   \   0000C3   9F           SUBB    A,R7
   \   0000C4   500B         JNC     ??compactPage_8
    570              {
    571                rtrn = FALSE;
   \                     ??compactPage_9:
   \   0000C6   85..82       MOV     DPL,?XSP + 0
   \   0000C9   85..83       MOV     DPH,?XSP + 1
   \   0000CC   E4           CLR     A
   \   0000CD   F0           MOVX    @DPTR,A
    572                break;
   \   0000CE   02....       LJMP    ??compactPage_10 & 0xFFFF
    573              }
    574          
    575              srcOff += OSAL_NV_HDR_SIZE;
   \                     ??compactPage_8:
   \   0000D1   12....       LCALL   ?Subroutine36 & 0xFFFF
    576          
    577              if ( (hdr.id != OSAL_NV_ZEROED_ID) && (hdr.id != skipId) )
   \                     ??CrossCallReturnLabel_66:
   \   0000D4   7401         MOV     A,#0x1
   \   0000D6   12....       LCALL   ?XSTACK_DISP0_8
   \   0000D9   12....       LCALL   ?Subroutine14 & 0xFFFF
   \                     ??CrossCallReturnLabel_18:
   \   0000DC   7003         JNZ     $+5
   \   0000DE   02....       LJMP    ??compactPage_11 & 0xFFFF
   \   0000E1   7409         MOV     A,#0x9
   \   0000E3   12....       LCALL   ?XSTACK_DISP0_8
   \   0000E6   E0           MOVX    A,@DPTR
   \   0000E7   68           XRL     A,R0
   \   0000E8   7003         JNZ     ??compactPage_12
   \   0000EA   A3           INC     DPTR
   \   0000EB   E0           MOVX    A,@DPTR
   \   0000EC   69           XRL     A,R1
   \                     ??compactPage_12:
   \   0000ED   7003         JNZ     $+5
   \   0000EF   02....       LJMP    ??compactPage_11 & 0xFFFF
    578              {
    579                if ( hdr.chk == calcChkF( srcPg, srcOff, hdr.len ) )
   \   0000F2                ; Setup parameters for call to function calcChkF
   \   0000F2   12....       LCALL   ?Subroutine39 & 0xFFFF
   \                     ??CrossCallReturnLabel_73:
   \   0000F5   7405         MOV     A,#0x5
   \   0000F7   12....       LCALL   ?XSTACK_DISP0_8
   \   0000FA   E0           MOVX    A,@DPTR
   \   0000FB   68           XRL     A,R0
   \   0000FC   7003         JNZ     ??compactPage_13
   \   0000FE   A3           INC     DPTR
   \   0000FF   E0           MOVX    A,@DPTR
   \   000100   69           XRL     A,R1
   \                     ??compactPage_13:
   \   000101   6003         JZ      $+5
   \   000103   02....       LJMP    ??compactPage_11 & 0xFFFF
    580                {
    581                  /* Prevent excessive re-writes to item header caused by numerous, rapid, & successive
    582                   * OSAL_Nv interruptions caused by resets.
    583                   */
    584                  if ( hdr.stat == OSAL_NV_ERASED_ID )
   \   000106   7407         MOV     A,#0x7
   \   000108   12....       LCALL   ?XSTACK_DISP0_8
   \   00010B   E0           MOVX    A,@DPTR
   \   00010C   F4           CPL     A
   \   00010D   7003         JNZ     ??compactPage_14
   \   00010F   A3           INC     DPTR
   \   000110   E0           MOVX    A,@DPTR
   \   000111   F4           CPL     A
   \                     ??compactPage_14:
   \   000112   700B         JNZ     ??compactPage_15
    585                  {
    586                    setItem( srcPg, srcOff, eNvXfer );
   \   000114                ; Setup parameters for call to function setItem
   \   000114   7C00         MOV     R4,#0x0
   \   000116   AA..         MOV     R2,?V0 + 2
   \   000118   AB..         MOV     R3,?V0 + 3
   \   00011A   A9..         MOV     R1,?V0 + 6
   \   00011C   12....       LCALL   ??setItem?relay
    587                  }
    588          
    589                  if ( writeItem( pgRes, hdr.id, hdr.len, NULL, FALSE ) )
   \                     ??compactPage_15:
   \   00011F                ; Setup parameters for call to function writeItem
   \   00011F   75..00       MOV     ?V0 + 4,#0x0
   \   000122   78..         MOV     R0,#?V0 + 4
   \   000124   12....       LCALL   ?PUSH_XSTACK_I_ONE
   \   000127   E4           CLR     A
   \   000128   F5..         MOV     ?V0 + 5,A
   \   00012A   78..         MOV     R0,#?V0 + 4
   \   00012C   12....       LCALL   ?PUSH_XSTACK_I_TWO
   \   00012F   7406         MOV     A,#0x6
   \   000131   12....       LCALL   ?XSTACK_DISP0_8
   \   000134   12....       LCALL   ?Subroutine27 & 0xFFFF
   \                     ??CrossCallReturnLabel_49:
   \   000137   7404         MOV     A,#0x4
   \   000139   12....       LCALL   ?XSTACK_DISP0_8
   \   00013C   12....       LCALL   ??Subroutine69_0 & 0xFFFF
   \                     ??CrossCallReturnLabel_148:
   \   00013F   90....       MOV     DPTR,#pgRes
   \   000142   E0           MOVX    A,@DPTR
   \   000143   F9           MOV     R1,A
   \   000144   12....       LCALL   ??writeItem?relay
   \   000147   7403         MOV     A,#0x3
   \   000149   12....       LCALL   ?DEALLOC_XSTACK8
   \   00014C   E9           MOV     A,R1
   \   00014D   7003         JNZ     $+5
   \   00014F   02....       LJMP    ??compactPage_9 & 0xFFFF
    590                  {
    591                    dstOff += OSAL_NV_HDR_SIZE;
   \   000152   E5..         MOV     A,?V0 + 0
   \   000154   2408         ADD     A,#0x8
   \   000156   F5..         MOV     ?V0 + 0,A
   \   000158   E5..         MOV     A,?V0 + 1
   \   00015A   3400         ADDC    A,#0x0
   \   00015C   F5..         MOV     ?V0 + 1,A
    592                    xferBuf( srcPg, srcOff, pgRes, dstOff, sz );
   \   00015E                ; Setup parameters for call to function xferBuf
   \   00015E   8E..         MOV     ?V0 + 4,R6
   \   000160   8F..         MOV     ?V0 + 5,R7
   \   000162   78..         MOV     R0,#?V0 + 4
   \   000164   12....       LCALL   ?PUSH_XSTACK_I_TWO
   \   000167   78..         MOV     R0,#?V0 + 0
   \   000169   12....       LCALL   ?PUSH_XSTACK_I_TWO
   \   00016C   90....       MOV     DPTR,#pgRes
   \   00016F   E0           MOVX    A,@DPTR
   \   000170   FC           MOV     R4,A
   \   000171   AA..         MOV     R2,?V0 + 2
   \   000173   AB..         MOV     R3,?V0 + 3
   \   000175   A9..         MOV     R1,?V0 + 6
   \   000177   12....       LCALL   ??xferBuf?relay
   \   00017A   7404         MOV     A,#0x4
   \   00017C   12....       LCALL   ?DEALLOC_XSTACK8
    593                    // Calculate and write the new checksum.
    594                    if (hdr.chk == calcChkF(pgRes, dstOff, hdr.len))
   \   00017F                ; Setup parameters for call to function calcChkF
   \   00017F   7403         MOV     A,#0x3
   \   000181   12....       LCALL   ?XSTACK_DISP0_8
   \   000184   12....       LCALL   ?Subroutine18 & 0xFFFF
   \                     ??CrossCallReturnLabel_27:
   \   000187   12....       LCALL   ??calcChkF?relay
   \   00018A   7405         MOV     A,#0x5
   \   00018C   12....       LCALL   ?XSTACK_DISP0_8
   \   00018F   12....       LCALL   ?Subroutine20 & 0xFFFF
   \                     ??CrossCallReturnLabel_31:
   \   000192   7002         JNZ     ??compactPage_16
   \   000194   EB           MOV     A,R3
   \   000195   6D           XRL     A,R5
   \                     ??compactPage_16:
   \   000196   6003         JZ      $+5
   \   000198   02....       LJMP    ??compactPage_9 & 0xFFFF
    595                    {
    596                      if ( hdr.chk != setChk( pgRes, dstOff, hdr.chk ) )
   \   00019B                ; Setup parameters for call to function setChk
   \   00019B   AA..         MOV     R2,?V0 + 0
   \   00019D   AB..         MOV     R3,?V0 + 1
   \   00019F   90....       MOV     DPTR,#pgRes
   \   0001A2   E0           MOVX    A,@DPTR
   \   0001A3   F9           MOV     R1,A
   \   0001A4   12....       LCALL   ??setChk?relay
   \   0001A7   8A..         MOV     ?V0 + 4,R2
   \   0001A9   8B..         MOV     ?V0 + 5,R3
   \   0001AB   A8..         MOV     R0,?V0 + 4
   \   0001AD   A9..         MOV     R1,?V0 + 5
   \   0001AF   7405         MOV     A,#0x5
   \   0001B1   12....       LCALL   ?XSTACK_DISP0_8
   \   0001B4   E0           MOVX    A,@DPTR
   \   0001B5   68           XRL     A,R0
   \   0001B6   7003         JNZ     ??compactPage_17
   \   0001B8   A3           INC     DPTR
   \   0001B9   E0           MOVX    A,@DPTR
   \   0001BA   69           XRL     A,R1
   \                     ??compactPage_17:
   \   0001BB   6003         JZ      $+5
   \   0001BD   02....       LJMP    ??compactPage_9 & 0xFFFF
    597                      {
    598                        rtrn = FALSE;
    599                        break;
    600                      }
    601                      else
    602                      {
    603                        hotItemUpdate(pgRes, dstOff, hdr.id);
   \   0001C0                ; Setup parameters for call to function hotItemUpdate
   \   0001C0   7401         MOV     A,#0x1
   \   0001C2   12....       LCALL   ?XSTACK_DISP0_8
   \   0001C5   12....       LCALL   ?Subroutine18 & 0xFFFF
    604                      }
    605                    }
    606                    else
    607                    {
    608                      rtrn = FALSE;
    609                      break;
    610                    }
    611                  }
    612                  else
    613                  {
    614                    rtrn = FALSE;
    615                    break;
    616                  }
    617                }
    618              }
   \                     ??CrossCallReturnLabel_28:
   \   0001C8   12....       LCALL   ??hotItemUpdate?relay
    619          
    620              srcOff += sz;
   \                     ??compactPage_11:
   \   0001CB   E5..         MOV     A,?V0 + 2
   \   0001CD   2E           ADD     A,R6
   \   0001CE   F5..         MOV     ?V0 + 2,A
   \   0001D0   E5..         MOV     A,?V0 + 3
   \   0001D2   3F           ADDC    A,R7
   \   0001D3   F5..         MOV     ?V0 + 3,A
    621            }
   \   0001D5   C3           CLR     C
   \   0001D6   E5..         MOV     A,?V0 + 2
   \   0001D8   94F8         SUBB    A,#-0x8
   \   0001DA   E5..         MOV     A,?V0 + 3
   \   0001DC   9407         SUBB    A,#0x7
   \   0001DE   5003         JNC     $+5
   \   0001E0   02....       LJMP    ??compactPage_3 & 0xFFFF
    622          
    623            if (rtrn == FALSE)
   \                     ??compactPage_5:
   \   0001E3   85..82       MOV     DPL,?XSP + 0
   \   0001E6   85..83       MOV     DPH,?XSP + 1
   \   0001E9   E0           MOVX    A,@DPTR
   \   0001EA   7005         JNZ     ??compactPage_18
    624            {
    625              erasePage(pgRes);
   \                     ??compactPage_10:
   \   0001EC                ; Setup parameters for call to function erasePage
   \   0001EC   12....       LCALL   ?Subroutine25 & 0xFFFF
    626            }
   \                     ??CrossCallReturnLabel_106:
   \   0001EF   8018         SJMP    ??compactPage_19
    627            else if (skipId == OSAL_NV_ITEM_NULL)
   \                     ??compactPage_18:
   \   0001F1   7409         MOV     A,#0x9
   \   0001F3   12....       LCALL   ?XSTACK_DISP0_8
   \   0001F6   12....       LCALL   ?Subroutine14 & 0xFFFF
   \                     ??CrossCallReturnLabel_19:
   \   0001F9   700E         JNZ     ??compactPage_19
    628            {
    629              COMPACT_PAGE_CLEANUP(srcPg);
   \   0001FB                ; Setup parameters for call to function setPageUse
   \   0001FB   12....       LCALL   ?Subroutine29 & 0xFFFF
   \                     ??CrossCallReturnLabel_55:
   \   0001FE                ; Setup parameters for call to function erasePage
   \   0001FE   A9..         MOV     R1,?V0 + 6
   \   000200   12....       LCALL   ??erasePage?relay
   \   000203   E5..         MOV     A,?V0 + 6
   \   000205   90....       MOV     DPTR,#pgRes
   \   000208   F0           MOVX    @DPTR,A
    630            }
    631            // else invoking function must cleanup.
    632          
    633            return rtrn;
   \                     ??compactPage_19:
   \   000209   85..82       MOV     DPL,?XSP + 0
   \   00020C   85..83       MOV     DPH,?XSP + 1
   \   00020F   E0           MOVX    A,@DPTR
   \   000210   F9           MOV     R1,A
   \                     ??compactPage_2:
   \   000211   740B         MOV     A,#0xb
   \   000213                REQUIRE ?Subroutine3
   \   000213                ; // Fall through to label ?Subroutine3
    634          }

   \                                 In  segment BANKED_CODE, align 1, keep-with-next
   \                     ?Subroutine3:
   \   000000   12....       LCALL   ?DEALLOC_XSTACK8
   \   000003   7F07         MOV     R7,#0x7
   \   000005   02....       LJMP    ?BANKED_LEAVE_XDATA

   \                                 In  segment BANKED_CODE, align 1, keep-with-next
   \                     ?Subroutine25:
   \   000000   90....       MOV     DPTR,#pgRes
   \   000003                REQUIRE ??Subroutine57_0
   \   000003                ; // Fall through to label ??Subroutine57_0

   \                                 In  segment BANKED_CODE, align 1, keep-with-next
   \                     ??Subroutine57_0:
   \   000000   E0           MOVX    A,@DPTR
   \   000001   F9           MOV     R1,A
   \   000002   12....       LCALL   ??erasePage?relay
   \   000005   22           RET

   \                                 In  segment BANKED_CODE, align 1, keep-with-next
   \                     ?Subroutine18:
   \   000000   12....       LCALL   ?Subroutine47 & 0xFFFF
   \                     ??CrossCallReturnLabel_89:
   \   000003   AA..         MOV     R2,?V0 + 0
   \   000005   AB..         MOV     R3,?V0 + 1
   \   000007   90....       MOV     DPTR,#pgRes
   \   00000A   E0           MOVX    A,@DPTR
   \   00000B   F9           MOV     R1,A
   \   00000C   22           RET

   \                                 In  segment BANKED_CODE, align 1, keep-with-next
   \                     ?Subroutine29:
   \   000000   7A01         MOV     R2,#0x1
   \   000002   90....       MOV     DPTR,#pgRes
   \   000005   E0           MOVX    A,@DPTR
   \   000006   F9           MOV     R1,A
   \   000007   12....       LCALL   ??setPageUse?relay
   \   00000A   22           RET

   \                                 In  segment BANKED_CODE, align 1, keep-with-next
   \                     ?Subroutine27:
   \   000000   12....       LCALL   ?Subroutine47 & 0xFFFF
   \                     ??CrossCallReturnLabel_92:
   \   000003   22           RET

   \                                 In  segment BANKED_CODE, align 1, keep-with-next
   \                     ?Subroutine20:
   \   000000   12....       LCALL   ?Subroutine47 & 0xFFFF
   \                     ??CrossCallReturnLabel_91:
   \   000003   EA           MOV     A,R2
   \   000004   6C           XRL     A,R4
   \   000005   22           RET

   \                                 In  segment BANKED_CODE, align 1, keep-with-next
   \                     ?Subroutine41:
   \   000000   E5..         MOV     A,?V0 + 2
   \   000002   2401         ADD     A,#0x1
   \   000004   F5..         MOV     ?V0 + 2,A
   \   000006   E5..         MOV     A,?V0 + 3
   \   000008   3400         ADDC    A,#0x0
   \   00000A   F5..         MOV     ?V0 + 3,A
   \   00000C   22           RET
    635          
    636          /*********************************************************************
    637           * @fn      findItem
    638           *
    639           * @brief   Find an item Id in NV and return the page and offset to its data.
    640           *
    641           * @param   id - Valid NV item Id.
    642           *
    643           * @return  Offset of data corresponding to item Id, if found;
    644           *          otherwise OSAL_NV_ITEM_NULL.
    645           *
    646           *          The page containing the item, if found;
    647           *          otherwise no valid assignment made - left equal to item Id.
    648           *
    649           */

   \                                 In  segment BANKED_CODE, align 1, keep-with-next
    650          static uint16 findItem( uint16 id )
   \                     findItem:
    651          {
   \   000000   74F4         MOV     A,#-0xc
   \   000002   12....       LCALL   ?BANKED_ENTER_XDATA
   \   000005                ; Saved register size: 12
   \   000005                ; Auto size: 0
   \   000005   EA           MOV     A,R2
   \   000006   FE           MOV     R6,A
   \   000007   EB           MOV     A,R3
   \   000008   8003         SJMP    ??findItem_0
    652            uint16 off;
    653            uint8 pg;
    654          
    655            for ( pg = OSAL_NV_PAGE_BEG; pg <= OSAL_NV_PAGE_END; pg++ )
    656            {
    657              if ( (off = initPage( pg, id, FALSE )) != OSAL_NV_ITEM_NULL )
    658              {
    659                findPg = pg;
    660                return off;
    661              }
    662            }
    663          
    664            // Now attempt to find the item as the "old" item of a failed/interrupted NV write.
    665            if ( (id & OSAL_NV_SOURCE_ID) == 0 )
    666            {
    667              return findItem( id | OSAL_NV_SOURCE_ID );
   \                     ??findItem_1:
   \   00000A   7480         MOV     A,#-0x80
   \   00000C   4F           ORL     A,R7
   \                     ??findItem_0:
   \   00000D   FF           MOV     R7,A
    668            }
   \   00000E   75..79       MOV     ?V0 + 0,#0x79
   \                     ??findItem_2:
   \   000011                ; Setup parameters for call to function initPage
   \   000011   7C00         MOV     R4,#0x0
   \   000013   EE           MOV     A,R6
   \   000014   FA           MOV     R2,A
   \   000015   EF           MOV     A,R7
   \   000016   FB           MOV     R3,A
   \   000017   A9..         MOV     R1,?V0 + 0
   \   000019   12....       LCALL   ??initPage?relay
   \   00001C   8B..         MOV     ?V0 + 3,R3
   \   00001E   A9..         MOV     R1,?V0 + 3
   \   000020   EA           MOV     A,R2
   \   000021   49           ORL     A,R1
   \   000022   6008         JZ      ??findItem_3
   \   000024   E5..         MOV     A,?V0 + 0
   \   000026   90....       MOV     DPTR,#findPg
   \   000029   F0           MOVX    @DPTR,A
   \   00002A   8015         SJMP    ??findItem_4
   \                     ??findItem_3:
   \   00002C   05..         INC     ?V0 + 0
   \   00002E   E5..         MOV     A,?V0 + 0
   \   000030   C3           CLR     C
   \   000031   947F         SUBB    A,#0x7f
   \   000033   40DC         JC      ??findItem_2
   \   000035   EF           MOV     A,R7
   \   000036   5480         ANL     A,#0x80
   \   000038   60D0         JZ      ??findItem_1
    669            else
    670            {
    671              findPg = OSAL_NV_PAGE_NULL;
   \   00003A   90....       MOV     DPTR,#findPg
   \   00003D   E4           CLR     A
   \   00003E   F0           MOVX    @DPTR,A
    672              return OSAL_NV_ITEM_NULL;
   \   00003F   FA           MOV     R2,A
   \   000040   FB           MOV     R3,A
    673            }
   \                     ??findItem_4:
   \   000041   02....       LJMP    ??Subroutine62_0 & 0xFFFF
    674          }
    675          
    676          /*********************************************************************
    677           * @fn      initItem
    678           *
    679           * @brief   An NV item is created and initialized with the data passed to the function, if any.
    680           *
    681           * @param   flag - TRUE if the 'buf' parameter contains data for the call to writeItem().
    682           *                 (i.e. if invoked from osal_nv_item_init() ).
    683           *                 FALSE if writeItem() should just write the header and the 'buf' parameter
    684           *                 is ok to use as a return value of the page number to be cleaned with
    685           *                 COMPACT_PAGE_CLEANUP().
    686           *                 (i.e. if invoked from osal_nv_write() ).
    687           * @param   id  - Valid NV item Id.
    688           * @param   len - Item data length.
    689           * @param  *buf - Pointer to item initalization data. Set to NULL if none.
    690           *
    691           * @return  The OSAL Nv page number if item write and read back checksums ok;
    692           *          OSAL_NV_PAGE_NULL otherwise.
    693           */

   \                                 In  segment BANKED_CODE, align 1, keep-with-next
    694          static uint8 initItem( uint8 flag, uint16 id, uint16 len, void *buf )
   \                     initItem:
    695          {
   \   000000   74F0         MOV     A,#-0x10
   \   000002   12....       LCALL   ?BANKED_ENTER_XDATA
   \   000005                ; Saved register size: 16
   \   000005                ; Auto size: 10
   \   000005   74F6         MOV     A,#-0xa
   \   000007   12....       LCALL   ?ALLOC_XSTACK8
   \   00000A   89..         MOV     ?V0 + 4,R1
   \   00000C   8A..         MOV     ?V0 + 6,R2
   \   00000E   8B..         MOV     ?V0 + 7,R3
   \   000010   8C..         MOV     ?V0 + 0,R4
   \   000012   8D..         MOV     ?V0 + 1,R5
    696            uint16 sz = OSAL_NV_ITEM_SIZE( len );
   \   000014   C3           CLR     C
   \   000015   EC           MOV     A,R4
   \   000016   94F4         SUBB    A,#-0xc
   \   000018   ED           MOV     A,R5
   \   000019   94FF         SUBB    A,#-0x1
   \   00001B   400E         JC      ??initItem_0
   \   00001D   85..82       MOV     DPL,?XSP + 0
   \   000020   85..83       MOV     DPH,?XSP + 1
   \   000023   74FC         MOV     A,#-0x4
   \   000025   F0           MOVX    @DPTR,A
   \   000026   A3           INC     DPTR
   \   000027   74FF         MOV     A,#-0x1
   \   000029   8014         SJMP    ??initItem_1
   \                     ??initItem_0:
   \   00002B   12....       LCALL   ?Subroutine35 & 0xFFFF
   \                     ??CrossCallReturnLabel_64:
   \   00002E   2408         ADD     A,#0x8
   \   000030   F8           MOV     R0,A
   \   000031   E9           MOV     A,R1
   \   000032   3400         ADDC    A,#0x0
   \   000034   F9           MOV     R1,A
   \   000035   85..82       MOV     DPL,?XSP + 0
   \   000038   85..83       MOV     DPH,?XSP + 1
   \   00003B   E8           MOV     A,R0
   \   00003C   F0           MOVX    @DPTR,A
   \   00003D   A3           INC     DPTR
   \   00003E   E9           MOV     A,R1
   \                     ??initItem_1:
   \   00003F   F0           MOVX    @DPTR,A
    697            uint8 rtrn = OSAL_NV_PAGE_NULL;
   \   000040   7F00         MOV     R7,#0x0
    698            uint8 cnt = OSAL_NV_PAGES_USED;
   \   000042   7C06         MOV     R4,#0x6
    699            uint8 pg = pgRes+1;  // Set to 1 after the reserve page to even wear across all available pages.
   \   000044   90....       MOV     DPTR,#pgRes
   \   000047   E0           MOVX    A,@DPTR
   \   000048   04           INC     A
   \   000049   FE           MOV     R6,A
    700          
    701            do {
    702              if (pg >= OSAL_NV_PAGE_BEG+OSAL_NV_PAGES_USED)
   \                     ??initItem_2:
   \   00004A   EE           MOV     A,R6
   \   00004B   C3           CLR     C
   \   00004C   947F         SUBB    A,#0x7f
   \   00004E   4002         JC      ??initItem_3
    703              {
    704                pg = OSAL_NV_PAGE_BEG;
   \   000050   7E79         MOV     R6,#0x79
    705              }
    706              if ( pg != pgRes )
   \                     ??initItem_3:
   \   000052   90....       MOV     DPTR,#pgRes
   \   000055   E0           MOVX    A,@DPTR
   \   000056   6E           XRL     A,R6
   \   000057   6029         JZ      ??initItem_4
    707              {
    708                uint8 idx = pg - OSAL_NV_PAGE_BEG;
   \   000059   7487         MOV     A,#-0x79
   \   00005B   2E           ADD     A,R6
    709                if ( sz <= (OSAL_NV_PAGE_SIZE - pgOff[idx] + pgLost[idx]) )
   \   00005C   C3           CLR     C
   \   00005D   33           RLC     A
   \   00005E   F8           MOV     R0,A
   \   00005F   E4           CLR     A
   \   000060   33           RLC     A
   \   000061   F9           MOV     R1,A
   \   000062   74..         MOV     A,#pgOff & 0xff
   \   000064   28           ADD     A,R0
   \   000065   F582         MOV     DPL,A
   \   000067   74..         MOV     A,#(pgOff >> 8) & 0xff
   \   000069   12....       LCALL   ?Subroutine13 & 0xFFFF
    710                {
    711                  break;
    712                }
    713              }
   \                     ??CrossCallReturnLabel_159:
   \   00006C   E4           CLR     A
   \   00006D   C3           CLR     C
   \   00006E   9A           SUBB    A,R2
   \   00006F   FA           MOV     R2,A
   \   000070   7408         MOV     A,#0x8
   \   000072   9B           SUBB    A,R3
   \   000073   FB           MOV     R3,A
   \   000074   12....       LCALL   ?Subroutine33 & 0xFFFF
   \                     ??CrossCallReturnLabel_61:
   \   000077   E0           MOVX    A,@DPTR
   \   000078   2A           ADD     A,R2
   \   000079   FA           MOV     R2,A
   \   00007A   A3           INC     DPTR
   \   00007B   E0           MOVX    A,@DPTR
   \   00007C   3B           ADDC    A,R3
   \   00007D   12....       LCALL   ?Subroutine22 & 0xFFFF
   \                     ??CrossCallReturnLabel_36:
   \   000080   5008         JNC     ??initItem_5
    714              pg++;
   \                     ??initItem_4:
   \   000082   0E           INC     R6
    715            } while (--cnt);
   \   000083   1C           DEC     R4
   \   000084   EC           MOV     A,R4
   \   000085   70C3         JNZ     ??initItem_2
   \   000087   02....       LJMP    ??initItem_6 & 0xFFFF
    716          
    717            if (cnt)
   \                     ??initItem_5:
   \   00008A   EC           MOV     A,R4
   \   00008B   7003         JNZ     $+5
   \   00008D   02....       LJMP    ??initItem_6 & 0xFFFF
    718            {
    719              // Item fits if an old page is compacted.
    720              if ( sz > (OSAL_NV_PAGE_SIZE - pgOff[pg - OSAL_NV_PAGE_BEG]) )
   \   000090   12....       LCALL   ?Subroutine31 & 0xFFFF
   \                     ??CrossCallReturnLabel_104:
   \   000093   12....       LCALL   ?Subroutine23 & 0xFFFF
   \                     ??CrossCallReturnLabel_39:
   \   000096   E4           CLR     A
   \   000097   C3           CLR     C
   \   000098   98           SUBB    A,R0
   \   000099   FA           MOV     R2,A
   \   00009A   7408         MOV     A,#0x8
   \   00009C   99           SUBB    A,R1
   \   00009D   12....       LCALL   ?Subroutine22 & 0xFFFF
   \                     ??CrossCallReturnLabel_37:
   \   0000A0   4003         JC      $+5
   \   0000A2   02....       LJMP    ??initItem_7 & 0xFFFF
    721              {
    722                osalNvPgHdr_t pgHdr;
    723          
    724                /* Prevent excessive re-writes to page header caused by numerous, rapid, & successive
    725                 * OSAL_Nv interruptions caused by resets.
    726                 */
    727                HalFlashRead(pg, OSAL_NV_PAGE_HDR_OFFSET, (uint8 *)(&pgHdr), OSAL_NV_PAGE_HDR_SIZE);
   \   0000A5                ; Setup parameters for call to function HalFlashRead
   \   0000A5   75..08       MOV     ?V0 + 2,#0x8
   \   0000A8   8F..         MOV     ?V0 + 3,R7
   \   0000AA   78..         MOV     R0,#?V0 + 2
   \   0000AC   12....       LCALL   ?PUSH_XSTACK_I_TWO
   \   0000AF   7404         MOV     A,#0x4
   \   0000B1   12....       LCALL   ?XSTACK_DISP0_8
   \   0000B4   AC82         MOV     R4,DPL
   \   0000B6   AD83         MOV     R5,DPH
   \   0000B8   7A00         MOV     R2,#0x0
   \   0000BA   7B00         MOV     R3,#0x0
   \   0000BC   EE           MOV     A,R6
   \   0000BD   F9           MOV     R1,A
   \   0000BE   12....       LCALL   ??Subroutine65_0 & 0xFFFF
   \                     ??CrossCallReturnLabel_127:
   \   0000C1   12....       LCALL   ?DEALLOC_XSTACK8
    728                if ( pgHdr.xfer == OSAL_NV_ERASED_ID )
   \   0000C4   7406         MOV     A,#0x6
   \   0000C6   12....       LCALL   ?XSTACK_DISP0_8
   \   0000C9   E0           MOVX    A,@DPTR
   \   0000CA   F4           CPL     A
   \   0000CB   7003         JNZ     ??initItem_8
   \   0000CD   A3           INC     DPTR
   \   0000CE   E0           MOVX    A,@DPTR
   \   0000CF   F4           CPL     A
   \                     ??initItem_8:
   \   0000D0   700B         JNZ     ??initItem_9
    729                {
    730                  // Mark the old page as being in process of compaction.
    731                  sz = OSAL_NV_ZEROED_ID;
   \   0000D2   12....       LCALL   ?Subroutine7 & 0xFFFF
    732                  writeWordH( pg, OSAL_NV_PG_XFER, (uint8*)(&sz) );
    733                }
   \                     ??CrossCallReturnLabel_109:
   \   0000D5   7A04         MOV     R2,#0x4
   \   0000D7   FB           MOV     R3,A
   \   0000D8   EE           MOV     A,R6
   \   0000D9   F9           MOV     R1,A
   \   0000DA   12....       LCALL   ??writeWordH?relay
    734          
    735                /* First the old page is compacted, then the new item will be the last one written to what
    736                 * had been the reserved page.
    737                 */
    738                if (compactPage( pg, id ))
   \                     ??initItem_9:
   \   0000DD                ; Setup parameters for call to function compactPage
   \   0000DD   AA..         MOV     R2,?V0 + 6
   \   0000DF   AB..         MOV     R3,?V0 + 7
   \   0000E1   EE           MOV     A,R6
   \   0000E2   F9           MOV     R1,A
   \   0000E3   12....       LCALL   ??compactPage?relay
   \   0000E6   E9           MOV     A,R1
   \   0000E7   6072         JZ      ??initItem_6
    739                {
    740                  if ( writeItem( pgRes, id, len, buf, flag ) )
   \   0000E9                ; Setup parameters for call to function writeItem
   \   0000E9   E5..         MOV     A,?V0 + 4
   \   0000EB   F5..         MOV     ?V0 + 2,A
   \   0000ED   78..         MOV     R0,#?V0 + 2
   \   0000EF   12....       LCALL   ?PUSH_XSTACK_I_ONE
   \   0000F2   741B         MOV     A,#0x1b
   \   0000F4   12....       LCALL   ?XSTACK_DISP0_8
   \   0000F7   12....       LCALL   ?PUSH_XSTACK8_X_TWO
   \   0000FA   AC..         MOV     R4,?V0 + 0
   \   0000FC   AD..         MOV     R5,?V0 + 1
   \   0000FE   AA..         MOV     R2,?V0 + 6
   \   000100   AB..         MOV     R3,?V0 + 7
   \   000102   90....       MOV     DPTR,#pgRes
   \   000105   E0           MOVX    A,@DPTR
   \   000106   F9           MOV     R1,A
   \   000107   12....       LCALL   ??writeItem?relay
   \   00010A   7403         MOV     A,#0x3
   \   00010C   12....       LCALL   ?DEALLOC_XSTACK8
   \   00010F   E9           MOV     A,R1
   \   000110   6005         JZ      ??initItem_10
    741                  {
    742                    rtrn = pgRes;
   \   000112   90....       MOV     DPTR,#pgRes
   \   000115   E0           MOVX    A,@DPTR
   \   000116   FF           MOV     R7,A
    743                  }
    744          
    745                  if ( flag == FALSE )
   \                     ??initItem_10:
   \   000117   E5..         MOV     A,?V0 + 4
   \   000119   700C         JNZ     ??initItem_11
    746                  {
    747                    /* Overload 'buf' as an OUT parameter to pass back to the calling function
    748                     * the old page to be cleaned up.
    749                     */
    750                    *(uint8 *)buf = pg;
   \   00011B   741A         MOV     A,#0x1a
   \   00011D   12....       LCALL   ?XSTACK_DISP0_8
   \   000120   12....       LCALL   ?Subroutine53 & 0xFFFF
    751                  }
   \                     ??CrossCallReturnLabel_169:
   \   000123   EE           MOV     A,R6
   \                     ??initItem_12:
   \   000124   F0           MOVX    @DPTR,A
   \   000125   8034         SJMP    ??initItem_6
    752                  else
    753                  {
    754                    /* Safe to do the compacted page cleanup even if writeItem() above failed because the
    755                     * item does not yet exist since this call with flag==TRUE is from osal_nv_item_init().
    756                     */
    757                    COMPACT_PAGE_CLEANUP( pg );
   \                     ??initItem_11:
   \   000127                ; Setup parameters for call to function setPageUse
   \   000127   12....       LCALL   ?Subroutine29 & 0xFFFF
   \                     ??CrossCallReturnLabel_56:
   \   00012A                ; Setup parameters for call to function erasePage
   \   00012A   EE           MOV     A,R6
   \   00012B   F9           MOV     R1,A
   \   00012C   12....       LCALL   ??erasePage?relay
   \   00012F   EE           MOV     A,R6
   \   000130   90....       MOV     DPTR,#pgRes
   \   000133   80EF         SJMP    ??initItem_12
    758                  }
    759                }
    760              }
    761              else
    762              {
    763                if ( writeItem( pg, id, len, buf, flag ) )
   \                     ??initItem_7:
   \   000135                ; Setup parameters for call to function writeItem
   \   000135   E5..         MOV     A,?V0 + 4
   \   000137   F5..         MOV     ?V0 + 2,A
   \   000139   78..         MOV     R0,#?V0 + 2
   \   00013B   12....       LCALL   ?PUSH_XSTACK_I_ONE
   \   00013E   741B         MOV     A,#0x1b
   \   000140   12....       LCALL   ?XSTACK_DISP0_8
   \   000143   12....       LCALL   ?PUSH_XSTACK8_X_TWO
   \   000146   AC..         MOV     R4,?V0 + 0
   \   000148   AA..         MOV     R2,?V0 + 6
   \   00014A   AB..         MOV     R3,?V0 + 7
   \   00014C   EE           MOV     A,R6
   \   00014D   F9           MOV     R1,A
   \   00014E   12....       LCALL   ??writeItem?relay
   \   000151   7403         MOV     A,#0x3
   \   000153   12....       LCALL   ?DEALLOC_XSTACK8
   \   000156   E9           MOV     A,R1
   \   000157   6002         JZ      ??initItem_6
    764                {
    765                  rtrn = pg;
   \   000159   EE           MOV     A,R6
   \   00015A   FF           MOV     R7,A
    766                }
    767              }
    768            }
    769          
    770            return rtrn;
   \                     ??initItem_6:
   \   00015B   EF           MOV     A,R7
   \   00015C   F9           MOV     R1,A
   \   00015D   02....       LJMP    ?Subroutine2 & 0xFFFF
    771          }

   \                                 In  segment BANKED_CODE, align 1, keep-with-next
   \                     ?Subroutine22:
   \   000000   FB           MOV     R3,A
   \   000001   85..82       MOV     DPL,?XSP + 0
   \   000004   85..83       MOV     DPH,?XSP + 1
   \   000007   E0           MOVX    A,@DPTR
   \   000008   F8           MOV     R0,A
   \   000009   A3           INC     DPTR
   \   00000A   E0           MOVX    A,@DPTR
   \   00000B   F9           MOV     R1,A
   \   00000C   C3           CLR     C
   \   00000D   EA           MOV     A,R2
   \   00000E   98           SUBB    A,R0
   \   00000F   EB           MOV     A,R3
   \   000010   99           SUBB    A,R1
   \   000011   22           RET

   \                                 In  segment BANKED_CODE, align 1, keep-with-next
   \                     ?Subroutine7:
   \   000000   85..82       MOV     DPL,?XSP + 0
   \   000003   85..83       MOV     DPH,?XSP + 1
   \   000006   E4           CLR     A
   \   000007                REQUIRE ??Subroutine58_0
   \   000007                ; // Fall through to label ??Subroutine58_0

   \                                 In  segment BANKED_CODE, align 1, keep-with-next
   \                     ?Subroutine53:
   \   000000   E0           MOVX    A,@DPTR
   \   000001   F8           MOV     R0,A
   \   000002   A3           INC     DPTR
   \   000003   E0           MOVX    A,@DPTR
   \   000004   F583         MOV     DPH,A
   \   000006   8882         MOV     DPL,R0
   \   000008   22           RET
    772          
    773          /*********************************************************************
    774           * @fn      setItem
    775           *
    776           * @brief   Set an item Id or status to mark its state.
    777           *
    778           * @param   pg - Valid NV page.
    779           * @param   offset - Valid offset into the page of the item data - the header
    780           *                   offset is calculated from this.
    781           * @param   stat - Valid enum value for the item status.
    782           *
    783           * @return  none
    784           */

   \                                 In  segment BANKED_CODE, align 1, keep-with-next
    785          static void setItem( uint8 pg, uint16 offset, eNvHdrEnum stat )
   \                     setItem:
    786          {
   \   000000   74F2         MOV     A,#-0xe
   \   000002   12....       LCALL   ?BANKED_ENTER_XDATA
   \   000005                ; Saved register size: 14
   \   000005                ; Auto size: 8
   \   000005   74F8         MOV     A,#-0x8
   \   000007   12....       LCALL   ?ALLOC_XSTACK8
   \   00000A   89..         MOV     ?V0 + 2,R1
   \   00000C   8C..         MOV     ?V0 + 3,R4
    787            osalNvHdr_t hdr;
    788          
    789            offset -= OSAL_NV_HDR_SIZE;
   \   00000E   EA           MOV     A,R2
   \   00000F   24F8         ADD     A,#-0x8
   \   000011   F5..         MOV     ?V0 + 0,A
   \   000013   EB           MOV     A,R3
   \   000014   34FF         ADDC    A,#-0x1
   \   000016   F5..         MOV     ?V0 + 1,A
    790            HalFlashRead(pg, offset, (uint8 *)(&hdr), OSAL_NV_HDR_SIZE);
   \   000018                ; Setup parameters for call to function HalFlashRead
   \   000018   75..08       MOV     ?V0 + 4,#0x8
   \   00001B   75..00       MOV     ?V0 + 5,#0x0
   \   00001E   78..         MOV     R0,#?V0 + 4
   \   000020   12....       LCALL   ?PUSH_XSTACK_I_TWO
   \   000023   7402         MOV     A,#0x2
   \   000025   12....       LCALL   ?XSTACK_DISP0_8
   \   000028   AC82         MOV     R4,DPL
   \   00002A   AD83         MOV     R5,DPH
   \   00002C   AA..         MOV     R2,?V0 + 0
   \   00002E   AB..         MOV     R3,?V0 + 1
   \   000030   12....       LCALL   ??Subroutine65_0 & 0xFFFF
   \                     ??CrossCallReturnLabel_128:
   \   000033   12....       LCALL   ?DEALLOC_XSTACK8
    791          
    792            if ( stat == eNvXfer )
   \   000036   E5..         MOV     A,?V0 + 3
   \   000038   7023         JNZ     ??setItem_0
    793            {
    794              hdr.stat = OSAL_NV_ACTIVE;
   \   00003A   7406         MOV     A,#0x6
   \   00003C   12....       LCALL   ?XSTACK_DISP0_8
   \   00003F   E4           CLR     A
   \   000040   F0           MOVX    @DPTR,A
   \   000041   A3           INC     DPTR
   \   000042   F0           MOVX    @DPTR,A
    795              writeWord( pg, offset+OSAL_NV_HDR_CHK, (uint8*)(&(hdr.chk)) );
   \   000043                ; Setup parameters for call to function writeWord
   \   000043   7404         MOV     A,#0x4
   \   000045   12....       LCALL   ?XSTACK_DISP0_8
   \   000048   AC82         MOV     R4,DPL
   \   00004A   AD83         MOV     R5,DPH
   \   00004C   E5..         MOV     A,?V0 + 0
   \   00004E   2404         ADD     A,#0x4
   \   000050   FA           MOV     R2,A
   \   000051   E5..         MOV     A,?V0 + 1
   \   000053   3400         ADDC    A,#0x0
   \   000055   FB           MOV     R3,A
   \   000056   A9..         MOV     R1,?V0 + 2
   \   000058   12....       LCALL   ??writeWord?relay
   \   00005B   802D         SJMP    ??CrossCallReturnLabel_114
    796            }
    797            else // if ( stat == eNvZero )
    798            {
    799              uint16 sz = ((hdr.len + (OSAL_NV_WORD_SIZE-1)) / OSAL_NV_WORD_SIZE) * OSAL_NV_WORD_SIZE +
    800                                                                                    OSAL_NV_HDR_SIZE;
   \                     ??setItem_0:
   \   00005D   7402         MOV     A,#0x2
   \   00005F   12....       LCALL   ?XSTACK_DISP0_8
   \   000062   E0           MOVX    A,@DPTR
   \   000063   2403         ADD     A,#0x3
   \   000065   F8           MOV     R0,A
   \   000066   A3           INC     DPTR
   \   000067   E0           MOVX    A,@DPTR
   \   000068   12....       LCALL   ??Subroutine68_0 & 0xFFFF
    801              hdr.id = 0;
   \                     ??CrossCallReturnLabel_141:
   \   00006B   12....       LCALL   ?Subroutine7 & 0xFFFF
    802              writeWord( pg, offset, (uint8 *)(&hdr) );
   \                     ??CrossCallReturnLabel_110:
   \   00006E   AA..         MOV     R2,?V0 + 0
   \   000070   AB..         MOV     R3,?V0 + 1
   \   000072   A9..         MOV     R1,?V0 + 2
   \   000074   12....       LCALL   ??writeWord?relay
    803              pgLost[pg-OSAL_NV_PAGE_BEG] += sz;
   \   000077   E5..         MOV     A,?V0 + 2
   \   000079   C3           CLR     C
   \   00007A   33           RLC     A
   \   00007B   F8           MOV     R0,A
   \   00007C   E4           CLR     A
   \   00007D   33           RLC     A
   \   00007E   F9           MOV     R1,A
   \   00007F   74..         MOV     A,#(pgLost + 14) & 0xff
   \   000081   28           ADD     A,R0
   \   000082   F582         MOV     DPL,A
   \   000084   74..         MOV     A,#((pgLost - 242) >> 8) & 0xff
   \   000086   39           ADDC    A,R1
   \   000087   12....       LCALL   ?Subroutine46 & 0xFFFF
    804            }
    805          }
   \                     ??CrossCallReturnLabel_114:
   \   00008A   7408         MOV     A,#0x8
   \   00008C   12....       LCALL   ?DEALLOC_XSTACK8
   \   00008F                REQUIRE ?Subroutine4
   \   00008F                ; // Fall through to label ?Subroutine4

   \                                 In  segment BANKED_CODE, align 1, keep-with-next
   \                     ?Subroutine4:
   \   000000   7F06         MOV     R7,#0x6
   \   000002   02....       LJMP    ?BANKED_LEAVE_XDATA

   \                                 In  segment BANKED_CODE, align 1, keep-with-next
   \                     ?Subroutine46:
   \   000000   F583         MOV     DPH,A
   \   000002   E0           MOVX    A,@DPTR
   \   000003                REQUIRE ??Subroutine60_0
   \   000003                ; // Fall through to label ??Subroutine60_0

   \                                 In  segment BANKED_CODE, align 1, keep-with-next
   \                     ??Subroutine60_0:
   \   000000   2E           ADD     A,R6
   \   000001   F0           MOVX    @DPTR,A
   \   000002   A3           INC     DPTR
   \   000003   E0           MOVX    A,@DPTR
   \   000004   3F           ADDC    A,R7
   \   000005   F0           MOVX    @DPTR,A
   \   000006   22           RET

   \                                 In  segment BANKED_CODE, align 1, keep-with-next
   \                     ??Subroutine68_0:
   \   000000   12....       LCALL   ?Subroutine51 & 0xFFFF
   \                     ??CrossCallReturnLabel_146:
   \   000003   2408         ADD     A,#0x8
   \   000005   FE           MOV     R6,A
   \   000006   E9           MOV     A,R1
   \   000007   3400         ADDC    A,#0x0
   \   000009   FF           MOV     R7,A
   \   00000A   22           RET
    806          
    807          /*********************************************************************
    808           * @fn      setChk
    809           *
    810           * @brief   Set the item header checksum given the data buffer offset.
    811           *
    812           * @param   pg - Valid NV page.
    813           * @param   offset - Valid offset into the page of the item data - the header
    814           *                   offset is calculated from this.
    815           * @param   chk - The checksum to set.
    816           *
    817           * @return  The checksum read back.
    818           */

   \                                 In  segment BANKED_CODE, align 1, keep-with-next
    819          static uint16 setChk( uint8 pg, uint16 offset, uint16 chk )
   \                     setChk:
    820          {
   \   000000   74F4         MOV     A,#-0xc
   \   000002   12....       LCALL   ?BANKED_ENTER_XDATA
   \   000005                ; Saved register size: 12
   \   000005                ; Auto size: 2
   \   000005   74FE         MOV     A,#-0x2
   \   000007   12....       LCALL   ?ALLOC_XSTACK8
   \   00000A   85..82       MOV     DPL,?XSP + 0
   \   00000D   85..83       MOV     DPH,?XSP + 1
   \   000010   EC           MOV     A,R4
   \   000011   F0           MOVX    @DPTR,A
   \   000012   A3           INC     DPTR
   \   000013   ED           MOV     A,R5
   \   000014   F0           MOVX    @DPTR,A
   \   000015   89..         MOV     ?V0 + 0,R1
   \   000017   EA           MOV     A,R2
   \   000018   FE           MOV     R6,A
   \   000019   EB           MOV     A,R3
   \   00001A   FF           MOV     R7,A
    821            offset -= OSAL_NV_WORD_SIZE;
   \   00001B   EE           MOV     A,R6
   \   00001C   24FC         ADD     A,#-0x4
   \   00001E   FE           MOV     R6,A
   \   00001F   EF           MOV     A,R7
   \   000020   34FF         ADDC    A,#-0x1
   \   000022   FF           MOV     R7,A
    822            writeWordH( pg, offset, (uint8 *)&chk );
   \   000023                ; Setup parameters for call to function writeWordH
   \   000023   85..82       MOV     DPL,?XSP + 0
   \   000026   85..83       MOV     DPH,?XSP + 1
   \   000029   AC82         MOV     R4,DPL
   \   00002B   AD83         MOV     R5,DPH
   \   00002D   EE           MOV     A,R6
   \   00002E   FA           MOV     R2,A
   \   00002F   EF           MOV     A,R7
   \   000030   FB           MOV     R3,A
   \   000031   12....       LCALL   ??writeWordH?relay
    823            HalFlashRead( pg, offset, (uint8 *)(&chk), sizeof( chk ) );
   \   000034                ; Setup parameters for call to function HalFlashRead
   \   000034   75..02       MOV     ?V0 + 2,#0x2
   \   000037   75..00       MOV     ?V0 + 3,#0x0
   \   00003A   78..         MOV     R0,#?V0 + 2
   \   00003C   12....       LCALL   ?PUSH_XSTACK_I_TWO
   \   00003F   7402         MOV     A,#0x2
   \   000041   12....       LCALL   ?XSTACK_DISP0_8
   \   000044   AC82         MOV     R4,DPL
   \   000046   AD83         MOV     R5,DPH
   \   000048   EE           MOV     A,R6
   \   000049   FA           MOV     R2,A
   \   00004A   EF           MOV     A,R7
   \   00004B   FB           MOV     R3,A
   \   00004C   A9..         MOV     R1,?V0 + 0
   \   00004E   12....       LCALL   ??Subroutine65_0 & 0xFFFF
   \                     ??CrossCallReturnLabel_129:
   \   000051   12....       LCALL   ?DEALLOC_XSTACK8
    824          
    825            return chk;
   \   000054   85..82       MOV     DPL,?XSP + 0
   \   000057   85..83       MOV     DPH,?XSP + 1
   \   00005A   12....       LCALL   ??Subroutine69_0 & 0xFFFF
   \                     ??CrossCallReturnLabel_149:
   \   00005D                REQUIRE ?Subroutine6
   \   00005D                ; // Fall through to label ?Subroutine6
    826          }

   \                                 In  segment BANKED_CODE, align 1, keep-with-next
   \                     ?Subroutine6:
   \   000000   7402         MOV     A,#0x2
   \   000002   02....       LJMP    ??Subroutine61_0 & 0xFFFF
    827          
    828          /*********************************************************************
    829           * @fn      calcChkB
    830           *
    831           * @brief   Calculates the data checksum over the 'buf' parameter.
    832           *
    833           * @param   len - Byte count of the data to be checksummed.
    834           * @param   buf - Data buffer to be checksummed.
    835           *
    836           * @return  Calculated checksum of the data bytes.
    837           */
    838          static uint16 calcChkB( uint16 len, uint8 *buf )
    839          {
    840            uint8 fill = len % OSAL_NV_WORD_SIZE;
    841            uint16 chk;
    842          
    843            if ( !buf )
    844            {
    845              chk = len * OSAL_NV_ERASED;
    846            }
    847            else
    848            {
    849              chk = 0;
    850              while ( len-- )
    851              {
    852                chk += *buf++;
    853              }
    854            }
    855          
    856            // calcChkF() will calculate over OSAL_NV_WORD_SIZE alignment.
    857            if ( fill )
    858            {
    859              chk += (OSAL_NV_WORD_SIZE - fill) * OSAL_NV_ERASED;
    860            }
    861          
    862            return chk;
    863          }
    864          
    865          /*********************************************************************
    866           * @fn      calcChkF
    867           *
    868           * @brief   Calculates the data checksum by reading the data bytes from NV.
    869           *
    870           * @param   pg - A valid NV Flash page.
    871           * @param   offset - A valid offset into the page.
    872           * @param   len - Byte count of the data to be checksummed.
    873           *
    874           * @return  Calculated checksum of the data bytes.
    875           */

   \                                 In  segment BANKED_CODE, align 1, keep-with-next
    876          static uint16 calcChkF( uint8 pg, uint16 offset, uint16 len )
   \                     calcChkF:
    877          {
   \   000000   74F1         MOV     A,#-0xf
   \   000002   12....       LCALL   ?BANKED_ENTER_XDATA
   \   000005                ; Saved register size: 15
   \   000005                ; Auto size: 4
   \   000005   74FC         MOV     A,#-0x4
   \   000007   12....       LCALL   ?ALLOC_XSTACK8
   \   00000A   89..         MOV     ?V0 + 6,R1
   \   00000C   8A..         MOV     ?V0 + 0,R2
   \   00000E   8B..         MOV     ?V0 + 1,R3
   \   000010   EC           MOV     A,R4
   \   000011   FE           MOV     R6,A
   \   000012   ED           MOV     A,R5
   \   000013   FF           MOV     R7,A
    878            uint16 chk = 0;
   \   000014   75..00       MOV     ?V0 + 2,#0x0
   \   000017   75..00       MOV     ?V0 + 3,#0x0
    879          
    880            len = (len + (OSAL_NV_WORD_SIZE-1)) / OSAL_NV_WORD_SIZE;
   \   00001A   EE           MOV     A,R6
   \   00001B   2403         ADD     A,#0x3
   \   00001D   F5..         MOV     ?V0 + 4,A
   \   00001F   EF           MOV     A,R7
   \   000020   3400         ADDC    A,#0x0
   \   000022   F5..         MOV     ?V0 + 5,A
   \   000024   7402         MOV     A,#0x2
   \   000026   78..         MOV     R0,#?V0 + 4
   \   000028   12....       LCALL   ?US_SHR
   \   00002B   AE..         MOV     R6,?V0 + 4
   \   00002D   AF..         MOV     R7,?V0 + 5
    881          
    882            while ( len-- )
   \                     ??calcChkF_0:
   \   00002F   12....       LCALL   ?Subroutine43 & 0xFFFF
   \                     ??CrossCallReturnLabel_80:
   \   000032   604D         JZ      ??calcChkF_1
    883            {
    884              uint8 cnt, tmp[OSAL_NV_WORD_SIZE];
    885          
    886              HalFlashRead(pg, offset, tmp, OSAL_NV_WORD_SIZE);
   \   000034                ; Setup parameters for call to function HalFlashRead
   \   000034   75..04       MOV     ?V0 + 4,#0x4
   \   000037   75..00       MOV     ?V0 + 5,#0x0
   \   00003A   78..         MOV     R0,#?V0 + 4
   \   00003C   12....       LCALL   ?PUSH_XSTACK_I_TWO
   \   00003F   7402         MOV     A,#0x2
   \   000041   12....       LCALL   ?XSTACK_DISP0_8
   \   000044   AC82         MOV     R4,DPL
   \   000046   AD83         MOV     R5,DPH
   \   000048   AA..         MOV     R2,?V0 + 0
   \   00004A   AB..         MOV     R3,?V0 + 1
   \   00004C   12....       LCALL   ??Subroutine64_0 & 0xFFFF
   \                     ??CrossCallReturnLabel_124:
   \   00004F   12....       LCALL   ?DEALLOC_XSTACK8
    887              offset += OSAL_NV_WORD_SIZE;
   \   000052   12....       LCALL   ?Subroutine52 & 0xFFFF
    888          
    889              for ( cnt = 0; cnt < OSAL_NV_WORD_SIZE; cnt++ )
   \                     ??CrossCallReturnLabel_119:
   \   000055   7800         MOV     R0,#0x0
    890              {
    891                chk += tmp[cnt];
   \                     ??calcChkF_2:
   \   000057   88..         MOV     ?V0 + 4,R0
   \   000059   85..82       MOV     DPL,?XSP + 0
   \   00005C   85..83       MOV     DPH,?XSP + 1
   \   00005F   E582         MOV     A,DPL
   \   000061   25..         ADD     A,?V0 + 4
   \   000063   F582         MOV     DPL,A
   \   000065   E583         MOV     A,DPH
   \   000067   3400         ADDC    A,#0x0
   \   000069   F583         MOV     DPH,A
   \   00006B   E0           MOVX    A,@DPTR
   \   00006C   FA           MOV     R2,A
   \   00006D   E5..         MOV     A,?V0 + 2
   \   00006F   2A           ADD     A,R2
   \   000070   F5..         MOV     ?V0 + 2,A
   \   000072   E5..         MOV     A,?V0 + 3
   \   000074   3400         ADDC    A,#0x0
   \   000076   F5..         MOV     ?V0 + 3,A
    892              }
   \   000078   08           INC     R0
   \   000079   E8           MOV     A,R0
   \   00007A   C3           CLR     C
   \   00007B   9404         SUBB    A,#0x4
   \   00007D   50B0         JNC     ??calcChkF_0
   \   00007F   80D6         SJMP    ??calcChkF_2
    893            }
    894          
    895            return chk;
   \                     ??calcChkF_1:
   \   000081   AA..         MOV     R2,?V0 + 2
   \   000083   AB..         MOV     R3,?V0 + 3
   \   000085   7404         MOV     A,#0x4
   \   000087   02....       LJMP    ?Subroutine3 & 0xFFFF
    896          }

   \                                 In  segment BANKED_CODE, align 1, keep-with-next
   \                     ?Subroutine43:
   \   000000   EE           MOV     A,R6
   \   000001   F8           MOV     R0,A
   \   000002   EF           MOV     A,R7
   \   000003   F9           MOV     R1,A
   \   000004   E8           MOV     A,R0
   \   000005   24FF         ADD     A,#-0x1
   \   000007   1E           DEC     R6
   \   000008   E9           MOV     A,R1
   \   000009   34FF         ADDC    A,#-0x1
   \   00000B   FF           MOV     R7,A
   \   00000C   E8           MOV     A,R0
   \   00000D   49           ORL     A,R1
   \   00000E   22           RET

   \                                 In  segment BANKED_CODE, align 1, keep-with-next
   \                     ?Subroutine52:
   \   000000   E5..         MOV     A,?V0 + 0
   \   000002   2404         ADD     A,#0x4
   \   000004   F5..         MOV     ?V0 + 0,A
   \   000006   E5..         MOV     A,?V0 + 1
   \   000008   3400         ADDC    A,#0x0
   \   00000A   F5..         MOV     ?V0 + 1,A
   \   00000C   22           RET
    897          
    898          /*********************************************************************
    899           * @fn      writeWord
    900           *
    901           * @brief   Writes a Flash-WORD to NV.
    902           *
    903           * @param   pg - A valid NV Flash page.
    904           * @param   offset - A valid offset into the page.
    905           * @param   buf - Pointer to source buffer.
    906           *
    907           * @return  none
    908           */

   \                                 In  segment BANKED_CODE, align 1, keep-with-next
    909          static void writeWord( uint8 pg, uint16 offset, uint8 *buf )
   \                     writeWord:
    910          {
   \   000000   74F4         MOV     A,#-0xc
   \   000002   12....       LCALL   ?BANKED_ENTER_XDATA
   \   000005                ; Saved register size: 12
   \   000005                ; Auto size: 0
   \   000005   E9           MOV     A,R1
   \   000006   FE           MOV     R6,A
    911            offset = (offset / HAL_FLASH_WORD_SIZE) +
    912                    ((uint16)pg * (HAL_FLASH_PAGE_SIZE / HAL_FLASH_WORD_SIZE));
    913          
    914            HalFlashWrite(offset, buf, 1);
   \   000007                ; Setup parameters for call to function HalFlashWrite
   \   000007   75..01       MOV     ?V0 + 0,#0x1
   \   00000A   75..00       MOV     ?V0 + 1,#0x0
   \   00000D   78..         MOV     R0,#?V0 + 0
   \   00000F   12....       LCALL   ?PUSH_XSTACK_I_TWO
   \   000012   8A..         MOV     ?V0 + 0,R2
   \   000014   8B..         MOV     ?V0 + 1,R3
   \   000016   7402         MOV     A,#0x2
   \   000018   78..         MOV     R0,#?V0 + 0
   \   00001A   12....       LCALL   ?US_SHR
   \   00001D   8E..         MOV     ?V0 + 2,R6
   \   00001F   F5..         MOV     ?V0 + 3,A
   \   000021   7409         MOV     A,#0x9
   \   000023   78..         MOV     R0,#?V0 + 2
   \   000025   12....       LCALL   ?S_SHL
   \   000028   E5..         MOV     A,?V0 + 0
   \   00002A   2400         ADD     A,#0x0
   \   00002C   FA           MOV     R2,A
   \   00002D   E5..         MOV     A,?V0 + 1
   \   00002F   35..         ADDC    A,?V0 + 3
   \   000031   FB           MOV     R3,A
   \   000032   12....       LCALL   ??HalFlashWrite?relay
   \   000035   02....       LJMP    ?Subroutine6 & 0xFFFF
    915          }
    916          
    917          /*********************************************************************
    918           * @fn      writeWordM
    919           *
    920           * @brief   Writes multiple Flash-WORDs to NV.
    921           *
    922           * @param   pg - A valid NV Flash page.
    923           * @param   offset - A valid offset into the page.
    924           * @param   buf - Pointer to source buffer.
    925           * @param   cnt - Number of 4-byte blocks to write.
    926           *
    927           * @return  none
    928           */
    929          static void writeWordM( uint8 pg, uint16 offset, uint8 *buf, uint16 cnt )
    930          {
    931            offset = (offset / HAL_FLASH_WORD_SIZE) +
    932                    ((uint16)pg * (HAL_FLASH_PAGE_SIZE / HAL_FLASH_WORD_SIZE));
    933            HalFlashWrite(offset, buf, cnt);
    934          }
    935          
    936          /*********************************************************************
    937           * @fn      writeWordH
    938           *
    939           * @brief   Writes the 1st half of a Flash-WORD to NV (filling 2nd half with 0xffff).
    940           *
    941           * @param   pg - A valid NV Flash page.
    942           * @param   offset - A valid offset into the page.
    943           * @param   buf - Pointer to source buffer.
    944           *
    945           * @return  none
    946           */

   \                                 In  segment BANKED_CODE, align 1, keep-with-next
    947          static void writeWordH( uint8 pg, uint16 offset, uint8 *buf )
   \                     writeWordH:
    948          {
   \   000000   74F7         MOV     A,#-0x9
   \   000002   12....       LCALL   ?BANKED_ENTER_XDATA
   \   000005                ; Saved register size: 9
   \   000005                ; Auto size: 4
   \   000005   74FC         MOV     A,#-0x4
   \   000007   12....       LCALL   ?ALLOC_XSTACK8
    949            uint8 tmp[4];
    950          
    951            tmp[0] = buf[0];
   \   00000A   8C82         MOV     DPL,R4
   \   00000C   8D83         MOV     DPH,R5
   \   00000E   E0           MOVX    A,@DPTR
   \   00000F   85..82       MOV     DPL,?XSP + 0
   \   000012   85..83       MOV     DPH,?XSP + 1
   \   000015   F0           MOVX    @DPTR,A
    952            tmp[1] = buf[1];
   \   000016   8C82         MOV     DPL,R4
   \   000018   8D83         MOV     DPH,R5
   \   00001A   A3           INC     DPTR
   \   00001B   E0           MOVX    A,@DPTR
   \   00001C   C0E0         PUSH    A
   \   00001E   7401         MOV     A,#0x1
   \   000020   12....       LCALL   ?XSTACK_DISP0_8
   \   000023   D0E0         POP     A
   \   000025   F0           MOVX    @DPTR,A
    953            tmp[2] = OSAL_NV_ERASED;
   \   000026   7402         MOV     A,#0x2
   \   000028   12....       LCALL   ?XSTACK_DISP0_8
   \   00002B   74FF         MOV     A,#-0x1
   \   00002D   F0           MOVX    @DPTR,A
    954            tmp[3] = OSAL_NV_ERASED;
   \   00002E   7403         MOV     A,#0x3
   \   000030   12....       LCALL   ?XSTACK_DISP0_8
   \   000033   74FF         MOV     A,#-0x1
   \   000035   12....       LCALL   ??Subroutine59_0 & 0xFFFF
    955          
    956            writeWord( pg, offset, tmp );
   \                     ??CrossCallReturnLabel_112:
   \   000038   12....       LCALL   ??writeWord?relay
    957          }
   \   00003B   7404         MOV     A,#0x4
   \   00003D   02....       LJMP    ?Subroutine1 & 0xFFFF
    958          
    959          /*********************************************************************
    960           * @fn      writeBuf
    961           *
    962           * @brief   Writes a data buffer to NV.
    963           *
    964           * @param   dstPg - A valid NV Flash page.
    965           * @param   offset - A valid offset into the page.
    966           * @param   len  - Byte count of the data to write.
    967           * @param   buf  - The data to write.
    968           *
    969           * @return  TRUE if data buf checksum matches read back checksum, else FALSE.
    970           */

   \                                 In  segment BANKED_CODE, align 1, keep-with-next
    971          static void writeBuf( uint8 dstPg, uint16 dstOff, uint16 len, uint8 *buf )
   \                     writeBuf:
    972          {
   \   000000   74F0         MOV     A,#-0x10
   \   000002   12....       LCALL   ?BANKED_ENTER_XDATA
   \   000005                ; Saved register size: 16
   \   000005                ; Auto size: 4
   \   000005   74FC         MOV     A,#-0x4
   \   000007   12....       LCALL   ?ALLOC_XSTACK8
   \   00000A   89..         MOV     ?V0 + 7,R1
   \   00000C   8A..         MOV     ?V0 + 0,R2
   \   00000E   8B..         MOV     ?V0 + 1,R3
   \   000010   EC           MOV     A,R4
   \   000011   FE           MOV     R6,A
   \   000012   ED           MOV     A,R5
   \   000013   FF           MOV     R7,A
    973            uint8 rem = dstOff % OSAL_NV_WORD_SIZE;
   \   000014   EA           MOV     A,R2
   \   000015   5403         ANL     A,#0x3
   \   000017   F5..         MOV     ?V0 + 6,A
    974            uint8 tmp[OSAL_NV_WORD_SIZE];
    975          
    976            if ( rem )
   \   000019   606B         JZ      ??CrossCallReturnLabel_118
    977            {
    978              dstOff = (dstOff / OSAL_NV_WORD_SIZE) * OSAL_NV_WORD_SIZE;
   \   00001B   74FC         MOV     A,#-0x4
   \   00001D   55..         ANL     A,?V0 + 0
   \   00001F   F5..         MOV     ?V0 + 0,A
    979              HalFlashRead(dstPg, dstOff, tmp, OSAL_NV_WORD_SIZE);
   \   000021                ; Setup parameters for call to function HalFlashRead
   \   000021   75..04       MOV     ?V0 + 2,#0x4
   \   000024   75..00       MOV     ?V0 + 3,#0x0
   \   000027   78..         MOV     R0,#?V0 + 2
   \   000029   12....       LCALL   ?PUSH_XSTACK_I_TWO
   \   00002C   7402         MOV     A,#0x2
   \   00002E   12....       LCALL   ?XSTACK_DISP0_8
   \   000031   AC82         MOV     R4,DPL
   \   000033   AD83         MOV     R5,DPH
   \   000035   AA..         MOV     R2,?V0 + 0
   \   000037   12....       LCALL   ??Subroutine65_0 & 0xFFFF
   \                     ??CrossCallReturnLabel_130:
   \   00003A   12....       LCALL   ?DEALLOC_XSTACK8
   \                     ??writeBuf_0:
   \   00003D   EE           MOV     A,R6
   \   00003E   4F           ORL     A,R7
   \   00003F   6032         JZ      ??writeBuf_1
    980          
    981              while ( (rem < OSAL_NV_WORD_SIZE) && len )
    982              {
    983                tmp[rem++] = *buf++;
   \   000041   7414         MOV     A,#0x14
   \   000043   12....       LCALL   ?XSTACK_DISP0_8
   \   000046   12....       LCALL   ??Subroutine70_0 & 0xFFFF
   \                     ??CrossCallReturnLabel_160:
   \   000049   C0E0         PUSH    A
   \   00004B   85....       MOV     ?V0 + 2,?V0 + 6
   \   00004E   12....       LCALL   ?Subroutine45 & 0xFFFF
   \                     ??CrossCallReturnLabel_86:
   \   000051   D0E0         POP     A
   \   000053   F0           MOVX    @DPTR,A
   \   000054   7414         MOV     A,#0x14
   \   000056   12....       LCALL   ?XSTACK_DISP0_8
   \   000059   12....       LCALL   ?Subroutine21 & 0xFFFF
   \                     ??CrossCallReturnLabel_34:
   \   00005C   12....       LCALL   ?XSTACK_DISP0_8
   \   00005F   12....       LCALL   ?Subroutine9 & 0xFFFF
   \                     ??CrossCallReturnLabel_2:
   \   000062   05..         INC     ?V0 + 6
    984                len--;
   \   000064   EE           MOV     A,R6
   \   000065   24FF         ADD     A,#-0x1
   \   000067   1E           DEC     R6
   \   000068   EF           MOV     A,R7
   \   000069   34FF         ADDC    A,#-0x1
   \   00006B   FF           MOV     R7,A
    985              }
   \   00006C   E5..         MOV     A,?V0 + 6
   \   00006E   C3           CLR     C
   \   00006F   9404         SUBB    A,#0x4
   \   000071   40CA         JC      ??writeBuf_0
    986          
    987              writeWord( dstPg, dstOff, tmp );
   \                     ??writeBuf_1:
   \   000073                ; Setup parameters for call to function writeWord
   \   000073   85..82       MOV     DPL,?XSP + 0
   \   000076   85..83       MOV     DPH,?XSP + 1
   \   000079   AC82         MOV     R4,DPL
   \   00007B   AD83         MOV     R5,DPH
   \   00007D   AA..         MOV     R2,?V0 + 0
   \   00007F   AB..         MOV     R3,?V0 + 1
   \   000081   A9..         MOV     R1,?V0 + 7
   \   000083   12....       LCALL   ??Subroutine63_0 & 0xFFFF
    988              dstOff += OSAL_NV_WORD_SIZE;
    989            }
    990          
    991            rem = len % OSAL_NV_WORD_SIZE;
   \                     ??CrossCallReturnLabel_118:
   \   000086   EE           MOV     A,R6
   \   000087   5403         ANL     A,#0x3
   \   000089   F5..         MOV     ?V0 + 6,A
    992            len /= OSAL_NV_WORD_SIZE;
   \   00008B   8E..         MOV     ?V0 + 2,R6
   \   00008D   8F..         MOV     ?V0 + 3,R7
   \   00008F   7402         MOV     A,#0x2
   \   000091   78..         MOV     R0,#?V0 + 2
   \   000093   12....       LCALL   ?US_SHR
   \   000096   AE..         MOV     R6,?V0 + 2
   \   000098   AF..         MOV     R7,?V0 + 3
    993          
    994            if ( len )
   \   00009A   EE           MOV     A,R6
   \   00009B   4F           ORL     A,R7
   \   00009C   6065         JZ      ??CrossCallReturnLabel_3
    995            {
    996              writeWordM( dstPg, dstOff, buf, len );
   \   00009E                ; Setup parameters for call to function HalFlashWrite
   \   00009E   78..         MOV     R0,#?V0 + 2
   \   0000A0   12....       LCALL   ?PUSH_XSTACK_I_TWO
   \   0000A3   7416         MOV     A,#0x16
   \   0000A5   12....       LCALL   ?XSTACK_DISP0_8
   \   0000A8   12....       LCALL   ?Subroutine27 & 0xFFFF
   \                     ??CrossCallReturnLabel_50:
   \   0000AB   85....       MOV     ?V0 + 2,?V0 + 0
   \   0000AE   85....       MOV     ?V0 + 3,?V0 + 1
   \   0000B1   7402         MOV     A,#0x2
   \   0000B3   78..         MOV     R0,#?V0 + 2
   \   0000B5   12....       LCALL   ?US_SHR
   \   0000B8   85....       MOV     ?V0 + 4,?V0 + 7
   \   0000BB   F5..         MOV     ?V0 + 5,A
   \   0000BD   7409         MOV     A,#0x9
   \   0000BF   78..         MOV     R0,#?V0 + 4
   \   0000C1   12....       LCALL   ?S_SHL
   \   0000C4   E5..         MOV     A,?V0 + 2
   \   0000C6   2400         ADD     A,#0x0
   \   0000C8   FA           MOV     R2,A
   \   0000C9   E5..         MOV     A,?V0 + 3
   \   0000CB   35..         ADDC    A,?V0 + 5
   \   0000CD   FB           MOV     R3,A
   \   0000CE   12....       LCALL   ??HalFlashWrite?relay
   \   0000D1   7402         MOV     A,#0x2
   \   0000D3   12....       LCALL   ?DEALLOC_XSTACK8
    997              dstOff += OSAL_NV_WORD_SIZE * len;
   \   0000D6   8E..         MOV     ?V0 + 2,R6
   \   0000D8   8F..         MOV     ?V0 + 3,R7
   \   0000DA   7402         MOV     A,#0x2
   \   0000DC   78..         MOV     R0,#?V0 + 2
   \   0000DE   12....       LCALL   ?S_SHL
   \   0000E1   A8..         MOV     R0,?V0 + 2
   \   0000E3   A9..         MOV     R1,?V0 + 3
   \   0000E5   E5..         MOV     A,?V0 + 0
   \   0000E7   28           ADD     A,R0
   \   0000E8   F5..         MOV     ?V0 + 0,A
   \   0000EA   E5..         MOV     A,?V0 + 1
   \   0000EC   39           ADDC    A,R1
   \   0000ED   F5..         MOV     ?V0 + 1,A
    998              buf += OSAL_NV_WORD_SIZE * len;
   \   0000EF   7414         MOV     A,#0x14
   \   0000F1   12....       LCALL   ?XSTACK_DISP0_8
   \   0000F4   E0           MOVX    A,@DPTR
   \   0000F5   28           ADD     A,R0
   \   0000F6   F8           MOV     R0,A
   \   0000F7   A3           INC     DPTR
   \   0000F8   E0           MOVX    A,@DPTR
   \   0000F9   39           ADDC    A,R1
   \   0000FA   F9           MOV     R1,A
   \   0000FB   7414         MOV     A,#0x14
   \   0000FD   12....       LCALL   ?XSTACK_DISP0_8
   \   000100   12....       LCALL   ?Subroutine9 & 0xFFFF
    999            }
   1000          
   1001            if ( rem )
   \                     ??CrossCallReturnLabel_3:
   \   000103   E5..         MOV     A,?V0 + 6
   \   000105   6061         JZ      ??writeBuf_2
   1002            {
   1003              uint8 idx = 0;
   \   000107   7E00         MOV     R6,#0x0
   1004              HalFlashRead(dstPg, dstOff, tmp, OSAL_NV_WORD_SIZE);
   \   000109                ; Setup parameters for call to function HalFlashRead
   \   000109   75..04       MOV     ?V0 + 2,#0x4
   \   00010C   8E..         MOV     ?V0 + 3,R6
   \   00010E   78..         MOV     R0,#?V0 + 2
   \   000110   12....       LCALL   ?PUSH_XSTACK_I_TWO
   \   000113   7402         MOV     A,#0x2
   \   000115   12....       LCALL   ?XSTACK_DISP0_8
   \   000118   AC82         MOV     R4,DPL
   \   00011A   AD83         MOV     R5,DPH
   \   00011C   AA..         MOV     R2,?V0 + 0
   \   00011E   AB..         MOV     R3,?V0 + 1
   \   000120   A9..         MOV     R1,?V0 + 7
   \   000122   12....       LCALL   ??Subroutine65_0 & 0xFFFF
   \                     ??CrossCallReturnLabel_131:
   \   000125   12....       LCALL   ?DEALLOC_XSTACK8
   \   000128   8021         SJMP    ??writeBuf_3
   1005              while ( rem-- )
   1006              {
   1007                tmp[idx++] = *buf++;
   \                     ??writeBuf_4:
   \   00012A   7414         MOV     A,#0x14
   \   00012C   12....       LCALL   ?XSTACK_DISP0_8
   \   00012F   12....       LCALL   ??Subroutine70_0 & 0xFFFF
   1008              }
   \                     ??CrossCallReturnLabel_161:
   \   000132   C0E0         PUSH    A
   \   000134   8E..         MOV     ?V0 + 2,R6
   \   000136   12....       LCALL   ?Subroutine45 & 0xFFFF
   \                     ??CrossCallReturnLabel_87:
   \   000139   D0E0         POP     A
   \   00013B   F0           MOVX    @DPTR,A
   \   00013C   7414         MOV     A,#0x14
   \   00013E   12....       LCALL   ?XSTACK_DISP0_8
   \   000141   12....       LCALL   ?Subroutine21 & 0xFFFF
   \                     ??CrossCallReturnLabel_35:
   \   000144   12....       LCALL   ?XSTACK_DISP0_8
   \   000147   12....       LCALL   ?Subroutine9 & 0xFFFF
   \                     ??CrossCallReturnLabel_4:
   \   00014A   0E           INC     R6
   \                     ??writeBuf_3:
   \   00014B   AF..         MOV     R7,?V0 + 6
   \   00014D   74FF         MOV     A,#-0x1
   \   00014F   2F           ADD     A,R7
   \   000150   F5..         MOV     ?V0 + 6,A
   \   000152   04           INC     A
   \   000153   70D5         JNZ     ??writeBuf_4
   1009              writeWord( dstPg, dstOff, tmp );
   \   000155                ; Setup parameters for call to function writeWord
   \   000155   85..82       MOV     DPL,?XSP + 0
   \   000158   85..83       MOV     DPH,?XSP + 1
   \   00015B   AC82         MOV     R4,DPL
   \   00015D   AD83         MOV     R5,DPH
   \   00015F   AA..         MOV     R2,?V0 + 0
   \   000161   AB..         MOV     R3,?V0 + 1
   \   000163   A9..         MOV     R1,?V0 + 7
   \   000165   12....       LCALL   ??writeWord?relay
   1010            }
   1011          }
   \                     ??writeBuf_2:
   \   000168   7404         MOV     A,#0x4
   \   00016A   02....       LJMP    ??Subroutine66_0 & 0xFFFF

   \                                 In  segment BANKED_CODE, align 1, keep-with-next
   \                     ?Subroutine45:
   \   000000   85..82       MOV     DPL,?XSP + 0
   \   000003   85..83       MOV     DPH,?XSP + 1
   \   000006   E582         MOV     A,DPL
   \   000008   25..         ADD     A,?V0 + 2
   \   00000A   F582         MOV     DPL,A
   \   00000C   E583         MOV     A,DPH
   \   00000E   3400         ADDC    A,#0x0
   \   000010   F583         MOV     DPH,A
   \   000012   22           RET

   \                                 In  segment BANKED_CODE, align 1, keep-with-next
   \                     ?Subroutine21:
   \   000000   12....       LCALL   ?Subroutine49 & 0xFFFF
   \                     ??CrossCallReturnLabel_94:
   \   000003   7414         MOV     A,#0x14
   \   000005   22           RET

   \                                 In  segment BANKED_CODE, align 1, keep-with-next
   \                     ??Subroutine63_0:
   \   000000   12....       LCALL   ??writeWord?relay
   \   000003   12....       LCALL   ?Subroutine52 & 0xFFFF
   \                     ??CrossCallReturnLabel_120:
   \   000006   22           RET

   \                                 In  segment BANKED_CODE, align 1, keep-with-next
   \                     ?Subroutine9:
   \   000000   E8           MOV     A,R0
   \   000001   F0           MOVX    @DPTR,A
   \   000002   A3           INC     DPTR
   \   000003   E9           MOV     A,R1
   \   000004   F0           MOVX    @DPTR,A
   \   000005   22           RET

   \                                 In  segment BANKED_CODE, align 1, keep-with-next
   \                     ?Subroutine49:
   \   000000   E0           MOVX    A,@DPTR
   \   000001   2401         ADD     A,#0x1
   \   000003   F8           MOV     R0,A
   \   000004   A3           INC     DPTR
   \   000005   E0           MOVX    A,@DPTR
   \   000006   3400         ADDC    A,#0x0
   \   000008   F9           MOV     R1,A
   \   000009   22           RET

   \                                 In  segment BANKED_CODE, align 1, keep-with-next
   \                     ??Subroutine70_0:
   \   000000   12....       LCALL   ?Subroutine48 & 0xFFFF
   \                     ??CrossCallReturnLabel_168:
   \   000003   22           RET

   \                                 In  segment BANKED_CODE, align 1, keep-with-next
   \                     ?Subroutine48:
   \   000000   12....       LCALL   ?Subroutine53 & 0xFFFF
   \                     ??CrossCallReturnLabel_170:
   \   000003   E0           MOVX    A,@DPTR
   \   000004   22           RET
   1012          
   1013          /*********************************************************************
   1014           * @fn      xferBuf
   1015           *
   1016           * @brief   Xfers an NV buffer from one location to another, enforcing OSAL_NV_WORD_SIZE writes.
   1017           *
   1018           * @return  none
   1019           */

   \                                 In  segment BANKED_CODE, align 1, keep-with-next
   1020          static void xferBuf( uint8 srcPg, uint16 srcOff, uint8 dstPg, uint16 dstOff, uint16 len )
   \                     xferBuf:
   1021          {
   \   000000   74F0         MOV     A,#-0x10
   \   000002   12....       LCALL   ?BANKED_ENTER_XDATA
   \   000005                ; Saved register size: 16
   \   000005                ; Auto size: 5
   \   000005   74FB         MOV     A,#-0x5
   \   000007   12....       LCALL   ?ALLOC_XSTACK8
   \   00000A   E9           MOV     A,R1
   \   00000B   85..82       MOV     DPL,?XSP + 0
   \   00000E   85..83       MOV     DPH,?XSP + 1
   \   000011   F0           MOVX    @DPTR,A
   \   000012   8A..         MOV     ?V0 + 6,R2
   \   000014   8B..         MOV     ?V0 + 7,R3
   \   000016   8C..         MOV     ?V0 + 3,R4
   \   000018   7415         MOV     A,#0x15
   \   00001A   12....       LCALL   ?XSTACK_DISP0_8
   \   00001D   E0           MOVX    A,@DPTR
   \   00001E   F5..         MOV     ?V0 + 0,A
   \   000020   A3           INC     DPTR
   \   000021   E0           MOVX    A,@DPTR
   \   000022   F5..         MOV     ?V0 + 1,A
   \   000024   7417         MOV     A,#0x17
   \   000026   12....       LCALL   ?XSTACK_DISP0_8
   \   000029   E0           MOVX    A,@DPTR
   \   00002A   FE           MOV     R6,A
   \   00002B   A3           INC     DPTR
   \   00002C   E0           MOVX    A,@DPTR
   \   00002D   FF           MOV     R7,A
   1022            uint8 rem = dstOff % OSAL_NV_WORD_SIZE;
   \   00002E   E5..         MOV     A,?V0 + 0
   \   000030   5403         ANL     A,#0x3
   \   000032   F5..         MOV     ?V0 + 2,A
   1023            uint8 tmp[OSAL_NV_WORD_SIZE];
   1024          
   1025            if ( rem )
   \   000034   606D         JZ      ??CrossCallReturnLabel_116
   1026            {
   1027              dstOff -= rem;
   \   000036   F5..         MOV     ?V0 + 4,A
   \   000038   C3           CLR     C
   \   000039   E5..         MOV     A,?V0 + 0
   \   00003B   95..         SUBB    A,?V0 + 4
   \   00003D   F5..         MOV     ?V0 + 0,A
   \   00003F   E5..         MOV     A,?V0 + 1
   \   000041   9400         SUBB    A,#0x0
   \   000043   F5..         MOV     ?V0 + 1,A
   1028              HalFlashRead(dstPg, dstOff, tmp, OSAL_NV_WORD_SIZE);
   \   000045                ; Setup parameters for call to function HalFlashRead
   \   000045   75..04       MOV     ?V0 + 4,#0x4
   \   000048   75..00       MOV     ?V0 + 5,#0x0
   \   00004B   78..         MOV     R0,#?V0 + 4
   \   00004D   12....       LCALL   ?PUSH_XSTACK_I_TWO
   \   000050   7403         MOV     A,#0x3
   \   000052   12....       LCALL   ?XSTACK_DISP0_8
   \   000055   AC82         MOV     R4,DPL
   \   000057   AD83         MOV     R5,DPH
   \   000059   AA..         MOV     R2,?V0 + 0
   \   00005B   AB..         MOV     R3,?V0 + 1
   \   00005D   A9..         MOV     R1,?V0 + 3
   \   00005F   12....       LCALL   ??Subroutine65_0 & 0xFFFF
   \                     ??CrossCallReturnLabel_132:
   \   000062   12....       LCALL   ?DEALLOC_XSTACK8
   \                     ??xferBuf_0:
   \   000065   EE           MOV     A,R6
   \   000066   4F           ORL     A,R7
   \   000067   6032         JZ      ??xferBuf_1
   1029          
   1030              while ( (rem < OSAL_NV_WORD_SIZE) && len )
   1031              {
   1032                HalFlashRead(srcPg, srcOff, tmp+rem, 1);
   \   000069                ; Setup parameters for call to function HalFlashRead
   \   000069   75..01       MOV     ?V0 + 4,#0x1
   \   00006C   78..         MOV     R0,#?V0 + 4
   \   00006E   12....       LCALL   ?PUSH_XSTACK_I_TWO
   \   000071   85....       MOV     ?V0 + 4,?V0 + 2
   \   000074   7403         MOV     A,#0x3
   \   000076   12....       LCALL   ?XSTACK_DISP0_8
   \   000079   12....       LCALL   ?Subroutine38 & 0xFFFF
   \                     ??CrossCallReturnLabel_70:
   \   00007C   12....       LCALL   ?XSTACK_DISP0_8
   \   00007F   E0           MOVX    A,@DPTR
   \   000080   F9           MOV     R1,A
   \   000081   12....       LCALL   ??Subroutine65_0 & 0xFFFF
   \                     ??CrossCallReturnLabel_133:
   \   000084   12....       LCALL   ?DEALLOC_XSTACK8
   1033                srcOff++;
   \   000087   12....       LCALL   ?Subroutine42 & 0xFFFF
   1034                rem++;
   \                     ??CrossCallReturnLabel_78:
   \   00008A   05..         INC     ?V0 + 2
   1035                len--;
   \   00008C   EE           MOV     A,R6
   \   00008D   24FF         ADD     A,#-0x1
   \   00008F   1E           DEC     R6
   \   000090   EF           MOV     A,R7
   \   000091   34FF         ADDC    A,#-0x1
   \   000093   FF           MOV     R7,A
   1036              }
   \   000094   E5..         MOV     A,?V0 + 2
   \   000096   C3           CLR     C
   \   000097   9404         SUBB    A,#0x4
   \   000099   40CA         JC      ??xferBuf_0
   1037          
   1038              writeWord( dstPg, dstOff, tmp );
   \                     ??xferBuf_1:
   \   00009B                ; Setup parameters for call to function writeWord
   \   00009B   7401         MOV     A,#0x1
   \   00009D   12....       LCALL   ?XSTACK_DISP0_8
   \   0000A0   12....       LCALL   ?Subroutine30 & 0xFFFF
   1039              dstOff += OSAL_NV_WORD_SIZE;
   1040            }
   1041          
   1042            rem = len % OSAL_NV_WORD_SIZE;
   \                     ??CrossCallReturnLabel_116:
   \   0000A3   EE           MOV     A,R6
   \   0000A4   5403         ANL     A,#0x3
   \   0000A6   F5..         MOV     ?V0 + 2,A
   1043            len /= OSAL_NV_WORD_SIZE;
   \   0000A8   8E..         MOV     ?V0 + 4,R6
   \   0000AA   8F..         MOV     ?V0 + 5,R7
   \   0000AC   7402         MOV     A,#0x2
   \   0000AE   78..         MOV     R0,#?V0 + 4
   \   0000B0   12....       LCALL   ?US_SHR
   \   0000B3   AE..         MOV     R6,?V0 + 4
   \   0000B5   AF..         MOV     R7,?V0 + 5
   \   0000B7   8039         SJMP    ??CrossCallReturnLabel_117
   1044          
   1045            while ( len-- )
   1046            {
   1047              HalFlashRead(srcPg, srcOff, tmp, OSAL_NV_WORD_SIZE);
   \                     ??xferBuf_2:
   \   0000B9                ; Setup parameters for call to function HalFlashRead
   \   0000B9   75..04       MOV     ?V0 + 4,#0x4
   \   0000BC   75..00       MOV     ?V0 + 5,#0x0
   \   0000BF   78..         MOV     R0,#?V0 + 4
   \   0000C1   12....       LCALL   ?PUSH_XSTACK_I_TWO
   \   0000C4   7403         MOV     A,#0x3
   \   0000C6   12....       LCALL   ?XSTACK_DISP0_8
   \   0000C9   AC82         MOV     R4,DPL
   \   0000CB   AD83         MOV     R5,DPH
   \   0000CD   AA..         MOV     R2,?V0 + 6
   \   0000CF   AB..         MOV     R3,?V0 + 7
   \   0000D1   7402         MOV     A,#0x2
   \   0000D3   12....       LCALL   ?XSTACK_DISP0_8
   \   0000D6   E0           MOVX    A,@DPTR
   \   0000D7   F9           MOV     R1,A
   \   0000D8   12....       LCALL   ??Subroutine65_0 & 0xFFFF
   \                     ??CrossCallReturnLabel_134:
   \   0000DB   12....       LCALL   ?DEALLOC_XSTACK8
   1048              srcOff += OSAL_NV_WORD_SIZE;
   \   0000DE   E5..         MOV     A,?V0 + 6
   \   0000E0   2404         ADD     A,#0x4
   \   0000E2   F5..         MOV     ?V0 + 6,A
   \   0000E4   E5..         MOV     A,?V0 + 7
   \   0000E6   3400         ADDC    A,#0x0
   \   0000E8   F5..         MOV     ?V0 + 7,A
   1049              writeWord( dstPg, dstOff, tmp );
   \   0000EA                ; Setup parameters for call to function writeWord
   \   0000EA   7401         MOV     A,#0x1
   \   0000EC   12....       LCALL   ?XSTACK_DISP0_8
   \   0000EF   12....       LCALL   ?Subroutine30 & 0xFFFF
   1050              dstOff += OSAL_NV_WORD_SIZE;
   1051            }
   \                     ??CrossCallReturnLabel_117:
   \   0000F2   12....       LCALL   ?Subroutine43 & 0xFFFF
   \                     ??CrossCallReturnLabel_81:
   \   0000F5   70C2         JNZ     ??xferBuf_2
   1052          
   1053            if ( rem )
   \   0000F7   E5..         MOV     A,?V0 + 2
   \   0000F9   6060         JZ      ??xferBuf_3
   1054            {
   1055              uint8 idx = 0;
   \   0000FB   7E00         MOV     R6,#0x0
   1056              HalFlashRead(dstPg, dstOff, tmp, OSAL_NV_WORD_SIZE);
   \   0000FD                ; Setup parameters for call to function HalFlashRead
   \   0000FD   75..04       MOV     ?V0 + 4,#0x4
   \   000100   8E..         MOV     ?V0 + 5,R6
   \   000102   78..         MOV     R0,#?V0 + 4
   \   000104   12....       LCALL   ?PUSH_XSTACK_I_TWO
   \   000107   7403         MOV     A,#0x3
   \   000109   12....       LCALL   ?XSTACK_DISP0_8
   \   00010C   AC82         MOV     R4,DPL
   \   00010E   AD83         MOV     R5,DPH
   \   000110   AA..         MOV     R2,?V0 + 0
   \   000112   AB..         MOV     R3,?V0 + 1
   \   000114   A9..         MOV     R1,?V0 + 3
   \   000116   12....       LCALL   ??Subroutine65_0 & 0xFFFF
   \                     ??CrossCallReturnLabel_135:
   \   000119   12....       LCALL   ?DEALLOC_XSTACK8
   \   00011C   8021         SJMP    ??xferBuf_4
   1057              while ( rem-- )
   1058              {
   1059                HalFlashRead(srcPg, srcOff, tmp+idx, 1);
   \                     ??xferBuf_5:
   \   00011E                ; Setup parameters for call to function HalFlashRead
   \   00011E   75..01       MOV     ?V0 + 4,#0x1
   \   000121   78..         MOV     R0,#?V0 + 4
   \   000123   12....       LCALL   ?PUSH_XSTACK_I_TWO
   \   000126   8E..         MOV     ?V0 + 4,R6
   \   000128   7403         MOV     A,#0x3
   \   00012A   12....       LCALL   ?XSTACK_DISP0_8
   \   00012D   12....       LCALL   ?Subroutine38 & 0xFFFF
   \                     ??CrossCallReturnLabel_71:
   \   000130   12....       LCALL   ?XSTACK_DISP0_8
   \   000133   E0           MOVX    A,@DPTR
   \   000134   F9           MOV     R1,A
   \   000135   12....       LCALL   ??Subroutine65_0 & 0xFFFF
   \                     ??CrossCallReturnLabel_136:
   \   000138   12....       LCALL   ?DEALLOC_XSTACK8
   1060                srcOff++;
   \   00013B   12....       LCALL   ?Subroutine42 & 0xFFFF
   1061                idx++;
   \                     ??CrossCallReturnLabel_79:
   \   00013E   0E           INC     R6
   1062              }
   \                     ??xferBuf_4:
   \   00013F   AF..         MOV     R7,?V0 + 2
   \   000141   74FF         MOV     A,#-0x1
   \   000143   2F           ADD     A,R7
   \   000144   F5..         MOV     ?V0 + 2,A
   \   000146   04           INC     A
   \   000147   70D5         JNZ     ??xferBuf_5
   1063              writeWord( dstPg, dstOff, tmp );
   \   000149                ; Setup parameters for call to function writeWord
   \   000149   7401         MOV     A,#0x1
   \   00014B   12....       LCALL   ?XSTACK_DISP0_8
   \   00014E   AC82         MOV     R4,DPL
   \   000150   AD83         MOV     R5,DPH
   \   000152   AA..         MOV     R2,?V0 + 0
   \   000154   AB..         MOV     R3,?V0 + 1
   \   000156   A9..         MOV     R1,?V0 + 3
   \   000158   12....       LCALL   ??writeWord?relay
   1064            }
   1065          }
   \                     ??xferBuf_3:
   \   00015B   7405         MOV     A,#0x5
   \   00015D   80..         SJMP    ??Subroutine66_0

   \                                 In  segment BANKED_CODE, align 1, keep-with-next
   \                     ?Subroutine42:
   \   000000   E5..         MOV     A,?V0 + 6
   \   000002   2401         ADD     A,#0x1
   \   000004   F5..         MOV     ?V0 + 6,A
   \   000006   E5..         MOV     A,?V0 + 7
   \   000008   3400         ADDC    A,#0x0
   \   00000A   F5..         MOV     ?V0 + 7,A
   \   00000C   22           RET

   \                                 In  segment BANKED_CODE, align 1, keep-with-next
   \                     ?Subroutine38:
   \   000000   E582         MOV     A,DPL
   \   000002   25..         ADD     A,?V0 + 4
   \   000004   FC           MOV     R4,A
   \   000005   E583         MOV     A,DPH
   \   000007   3400         ADDC    A,#0x0
   \   000009   FD           MOV     R5,A
   \   00000A   AA..         MOV     R2,?V0 + 6
   \   00000C   AB..         MOV     R3,?V0 + 7
   \   00000E   7402         MOV     A,#0x2
   \   000010   22           RET

   \                                 In  segment BANKED_CODE, align 1, keep-with-next
   \                     ?Subroutine30:
   \   000000   AC82         MOV     R4,DPL
   \   000002   AD83         MOV     R5,DPH
   \   000004   AA..         MOV     R2,?V0 + 0
   \   000006   AB..         MOV     R3,?V0 + 1
   \   000008   A9..         MOV     R1,?V0 + 3
   \   00000A                REQUIRE ??Subroutine63_0
   \   00000A                ; // Fall through to label ??Subroutine63_0
   1066          
   1067          /*********************************************************************
   1068           * @fn      writeItem
   1069           *
   1070           * @brief   Writes an item header/data combo to the specified NV page.
   1071           *
   1072           * @param   pg - Valid NV Flash page.
   1073           * @param   id - Valid NV item Id.
   1074           * @param   len  - Byte count of the data to write.
   1075           * @param   buf  - The data to write. If NULL, no data/checksum write.
   1076           * @param   flag - TRUE if the checksum should be written, FALSE otherwise.
   1077           *
   1078           * @return  TRUE if header/data to write matches header/data read back, else FALSE.
   1079           */

   \                                 In  segment BANKED_CODE, align 1, keep-with-next
   1080          static uint8 writeItem( uint8 pg, uint16 id, uint16 len, void *buf, uint8 flag )
   \                     writeItem:
   1081          {
   \   000000   74F0         MOV     A,#-0x10
   \   000002   12....       LCALL   ?BANKED_ENTER_XDATA
   \   000005                ; Saved register size: 16
   \   000005                ; Auto size: 12
   \   000005   74F4         MOV     A,#-0xc
   \   000007   12....       LCALL   ?ALLOC_XSTACK8
   \   00000A   740A         MOV     A,#0xa
   \   00000C   12....       LCALL   ?XSTACK_DISP0_8
   \   00000F   12....       LCALL   ?Subroutine11 & 0xFFFF
   \                     ??CrossCallReturnLabel_15:
   \   000012   EC           MOV     A,R4
   \   000013   FE           MOV     R6,A
   \   000014   ED           MOV     A,R5
   \   000015   FF           MOV     R7,A
   1082            uint16 offset = pgOff[pg-OSAL_NV_PAGE_BEG];
   \   000016   E9           MOV     A,R1
   \   000017   C3           CLR     C
   \   000018   33           RLC     A
   \   000019   F5..         MOV     ?V0 + 0,A
   \   00001B   E4           CLR     A
   \   00001C   33           RLC     A
   \   00001D   F5..         MOV     ?V0 + 1,A
   \   00001F   74..         MOV     A,#(pgOff + 14) & 0xff
   \   000021   25..         ADD     A,?V0 + 0
   \   000023   F8           MOV     R0,A
   \   000024   74..         MOV     A,#((pgOff - 242) >> 8) & 0xff
   \   000026   35..         ADDC    A,?V0 + 1
   \   000028   F9           MOV     R1,A
   \   000029   85..82       MOV     DPL,?XSP + 0
   \   00002C   85..83       MOV     DPH,?XSP + 1
   \   00002F   12....       LCALL   ?Subroutine9 & 0xFFFF
   \                     ??CrossCallReturnLabel_5:
   \   000032   12....       LCALL   ?Subroutine17 & 0xFFFF
   \                     ??CrossCallReturnLabel_164:
   \   000035   F5..         MOV     ?V0 + 2,A
   \   000037   A3           INC     DPTR
   \   000038   E0           MOVX    A,@DPTR
   \   000039   F5..         MOV     ?V0 + 3,A
   1083            uint8 rtrn = FALSE;
   \   00003B   75..00       MOV     ?V0 + 7,#0x0
   1084            osalNvHdr_t hdr;
   1085          
   1086            hdr.id = id;
   \   00003E   740A         MOV     A,#0xa
   \   000040   12....       LCALL   ?XSTACK_DISP0_8
   \   000043   12....       LCALL   ?Subroutine23 & 0xFFFF
   \                     ??CrossCallReturnLabel_40:
   \   000046   7402         MOV     A,#0x2
   \   000048   12....       LCALL   ?XSTACK_DISP0_8
   \   00004B   12....       LCALL   ?Subroutine9 & 0xFFFF
   1087            hdr.len = len;
   \                     ??CrossCallReturnLabel_6:
   \   00004E   7404         MOV     A,#0x4
   \   000050   12....       LCALL   ?XSTACK_DISP0_8
   \   000053   EE           MOV     A,R6
   \   000054   F0           MOVX    @DPTR,A
   \   000055   A3           INC     DPTR
   \   000056   EF           MOV     A,R7
   \   000057   F0           MOVX    @DPTR,A
   1088          
   1089            writeWord( pg, offset, (uint8 *)&hdr );
   \   000058                ; Setup parameters for call to function writeWord
   \   000058   7402         MOV     A,#0x2
   \   00005A   12....       LCALL   ?XSTACK_DISP0_8
   \   00005D   AC82         MOV     R4,DPL
   \   00005F   AD83         MOV     R5,DPH
   \   000061   AA..         MOV     R2,?V0 + 2
   \   000063   AB..         MOV     R3,?V0 + 3
   \   000065   A9..         MOV     R1,?V0 + 6
   \   000067   12....       LCALL   ??writeWord?relay
   1090            HalFlashRead(pg, offset, (uint8 *)(&hdr), OSAL_NV_HDR_SIZE);
   \   00006A                ; Setup parameters for call to function HalFlashRead
   \   00006A   75..08       MOV     ?V0 + 4,#0x8
   \   00006D   75..00       MOV     ?V0 + 5,#0x0
   \   000070   78..         MOV     R0,#?V0 + 4
   \   000072   12....       LCALL   ?PUSH_XSTACK_I_TWO
   \   000075   7404         MOV     A,#0x4
   \   000077   12....       LCALL   ?XSTACK_DISP0_8
   \   00007A   12....       LCALL   ?Subroutine12 & 0xFFFF
   \                     ??CrossCallReturnLabel_123:
   \   00007D   12....       LCALL   ?DEALLOC_XSTACK8
   1091          
   1092            if ( (hdr.id == id) && (hdr.len == len) )
   \   000080   7404         MOV     A,#0x4
   \   000082   12....       LCALL   ?XSTACK_DISP0_8
   \   000085   12....       LCALL   ?Subroutine23 & 0xFFFF
   \                     ??CrossCallReturnLabel_41:
   \   000088   7402         MOV     A,#0x2
   \   00008A   12....       LCALL   ?XSTACK_DISP0_8
   \   00008D   12....       LCALL   ??Subroutine69_0 & 0xFFFF
   \                     ??CrossCallReturnLabel_150:
   \   000090   740A         MOV     A,#0xa
   \   000092   12....       LCALL   ?XSTACK_DISP0_8
   \   000095   E0           MOVX    A,@DPTR
   \   000096   6A           XRL     A,R2
   \   000097   7003         JNZ     ??writeItem_0
   \   000099   A3           INC     DPTR
   \   00009A   E0           MOVX    A,@DPTR
   \   00009B   6B           XRL     A,R3
   \                     ??writeItem_0:
   \   00009C   6003         JZ      $+5
   \   00009E   02....       LJMP    ??writeItem_1 & 0xFFFF
   \   0000A1   EE           MOV     A,R6
   \   0000A2   68           XRL     A,R0
   \   0000A3   7002         JNZ     ??writeItem_2
   \   0000A5   EF           MOV     A,R7
   \   0000A6   69           XRL     A,R1
   \                     ??writeItem_2:
   \   0000A7   6003         JZ      $+5
   \   0000A9   02....       LJMP    ??writeItem_1 & 0xFFFF
   1093            {
   1094              if ( flag )
   \   0000AC   741E         MOV     A,#0x1e
   \   0000AE   12....       LCALL   ?XSTACK_DISP0_8
   \   0000B1   E0           MOVX    A,@DPTR
   \   0000B2   7003         JNZ     $+5
   \   0000B4   02....       LJMP    ??writeItem_3 & 0xFFFF
   1095              {
   1096                hdr.chk = calcChkB( len, buf );
   \   0000B7   741C         MOV     A,#0x1c
   \   0000B9   12....       LCALL   ?XSTACK_DISP0_8
   \   0000BC   12....       LCALL   ?Subroutine23 & 0xFFFF
   \                     ??CrossCallReturnLabel_42:
   \   0000BF   8882         MOV     DPL,R0
   \   0000C1   8983         MOV     DPH,R1
   \   0000C3   EE           MOV     A,R6
   \   0000C4   F8           MOV     R0,A
   \   0000C5   EF           MOV     A,R7
   \   0000C6   F9           MOV     R1,A
   \   0000C7   E8           MOV     A,R0
   \   0000C8   5403         ANL     A,#0x3
   \   0000CA   F5..         MOV     ?V0 + 0,A
   \   0000CC   E582         MOV     A,DPL
   \   0000CE   4583         ORL     A,DPH
   \   0000D0   7015         JNZ     ??writeItem_4
   \   0000D2   E8           MOV     A,R0
   \   0000D3   75F0FF       MOV     B,#-0x1
   \   0000D6   A4           MUL     AB
   \   0000D7   F8           MOV     R0,A
   \   0000D8   AAF0         MOV     R2,B
   \   0000DA   75F0FF       MOV     B,#-0x1
   \   0000DD   E9           MOV     A,R1
   \   0000DE   A4           MUL     AB
   \   0000DF   2A           ADD     A,R2
   \   0000E0   F9           MOV     R1,A
   \   0000E1   E8           MOV     A,R0
   \   0000E2   FA           MOV     R2,A
   \   0000E3   E9           MOV     A,R1
   \   0000E4   FB           MOV     R3,A
   \   0000E5   8020         SJMP    ??writeItem_5
   \                     ??writeItem_4:
   \   0000E7   7A00         MOV     R2,#0x0
   \   0000E9   7B00         MOV     R3,#0x0
   \   0000EB   800A         SJMP    ??writeItem_6
   \                     ??writeItem_7:
   \   0000ED   E0           MOVX    A,@DPTR
   \   0000EE   FC           MOV     R4,A
   \   0000EF   EA           MOV     A,R2
   \   0000F0   2C           ADD     A,R4
   \   0000F1   FA           MOV     R2,A
   \   0000F2   EB           MOV     A,R3
   \   0000F3   3400         ADDC    A,#0x0
   \   0000F5   FB           MOV     R3,A
   \   0000F6   A3           INC     DPTR
   \                     ??writeItem_6:
   \   0000F7   E8           MOV     A,R0
   \   0000F8   FC           MOV     R4,A
   \   0000F9   E9           MOV     A,R1
   \   0000FA   FD           MOV     R5,A
   \   0000FB   EC           MOV     A,R4
   \   0000FC   24FF         ADD     A,#-0x1
   \   0000FE   18           DEC     R0
   \   0000FF   ED           MOV     A,R5
   \   000100   34FF         ADDC    A,#-0x1
   \   000102   F9           MOV     R1,A
   \   000103   EC           MOV     A,R4
   \   000104   4D           ORL     A,R5
   \   000105   70E6         JNZ     ??writeItem_7
   \                     ??writeItem_5:
   \   000107   E5..         MOV     A,?V0 + 0
   \   000109   601E         JZ      ??writeItem_8
   \   00010B   7404         MOV     A,#0x4
   \   00010D   C3           CLR     C
   \   00010E   95..         SUBB    A,?V0 + 0
   \   000110   F8           MOV     R0,A
   \   000111   95E0         SUBB    A,0xE0 /* A   */
   \   000113   F9           MOV     R1,A
   \   000114   E8           MOV     A,R0
   \   000115   75F0FF       MOV     B,#-0x1
   \   000118   A4           MUL     AB
   \   000119   F8           MOV     R0,A
   \   00011A   ACF0         MOV     R4,B
   \   00011C   75F0FF       MOV     B,#-0x1
   \   00011F   E9           MOV     A,R1
   \   000120   A4           MUL     AB
   \   000121   2C           ADD     A,R4
   \   000122   F9           MOV     R1,A
   \   000123   EA           MOV     A,R2
   \   000124   28           ADD     A,R0
   \   000125   FA           MOV     R2,A
   \   000126   EB           MOV     A,R3
   \   000127   39           ADDC    A,R1
   \   000128   FB           MOV     R3,A
   \                     ??writeItem_8:
   \   000129   7406         MOV     A,#0x6
   \   00012B   12....       LCALL   ?XSTACK_DISP0_8
   \   00012E   EA           MOV     A,R2
   \   00012F   F0           MOVX    @DPTR,A
   \   000130   A3           INC     DPTR
   \   000131   EB           MOV     A,R3
   \   000132   F0           MOVX    @DPTR,A
   1097          
   1098                offset += OSAL_NV_HDR_SIZE;
   \   000133   12....       LCALL   ?Subroutine36 & 0xFFFF
   1099                if ( buf != NULL )
   \                     ??CrossCallReturnLabel_67:
   \   000136   741C         MOV     A,#0x1c
   \   000138   12....       LCALL   ?XSTACK_DISP0_8
   \   00013B   12....       LCALL   ?Subroutine14 & 0xFFFF
   \                     ??CrossCallReturnLabel_20:
   \   00013E   601A         JZ      ??writeItem_9
   1100                {
   1101                  writeBuf( pg, offset, len, buf );
   \   000140                ; Setup parameters for call to function writeBuf
   \   000140   741C         MOV     A,#0x1c
   \   000142   12....       LCALL   ?XSTACK_DISP0_8
   \   000145   12....       LCALL   ?PUSH_XSTACK8_X_TWO
   \   000148   EE           MOV     A,R6
   \   000149   FC           MOV     R4,A
   \   00014A   EF           MOV     A,R7
   \   00014B   FD           MOV     R5,A
   \   00014C   AA..         MOV     R2,?V0 + 2
   \   00014E   AB..         MOV     R3,?V0 + 3
   \   000150   A9..         MOV     R1,?V0 + 6
   \   000152   12....       LCALL   ??writeBuf?relay
   \   000155   7402         MOV     A,#0x2
   \   000157   12....       LCALL   ?DEALLOC_XSTACK8
   1102                }
   1103          
   1104                if ( hdr.chk == calcChkF( pg, offset, len ) )
   \                     ??writeItem_9:
   \   00015A                ; Setup parameters for call to function calcChkF
   \   00015A   EE           MOV     A,R6
   \   00015B   FC           MOV     R4,A
   \   00015C   EF           MOV     A,R7
   \   00015D   FD           MOV     R5,A
   \   00015E   AA..         MOV     R2,?V0 + 2
   \   000160   AB..         MOV     R3,?V0 + 3
   \   000162   A9..         MOV     R1,?V0 + 6
   \   000164   12....       LCALL   ??calcChkF?relay
   \   000167   7406         MOV     A,#0x6
   \   000169   12....       LCALL   ?XSTACK_DISP0_8
   \   00016C   12....       LCALL   ?Subroutine20 & 0xFFFF
   \                     ??CrossCallReturnLabel_32:
   \   00016F   7002         JNZ     ??writeItem_10
   \   000171   EB           MOV     A,R3
   \   000172   6D           XRL     A,R5
   \                     ??writeItem_10:
   \   000173   702B         JNZ     ??writeItem_11
   1105                {
   1106                  if ( hdr.chk == setChk( pg, offset, hdr.chk ) )
   \   000175                ; Setup parameters for call to function setChk
   \   000175   AA..         MOV     R2,?V0 + 2
   \   000177   AB..         MOV     R3,?V0 + 3
   \   000179   A9..         MOV     R1,?V0 + 6
   \   00017B   12....       LCALL   ?Subroutine40 & 0xFFFF
   \                     ??CrossCallReturnLabel_74:
   \   00017E   7406         MOV     A,#0x6
   \   000180   12....       LCALL   ?XSTACK_DISP0_8
   \   000183   E0           MOVX    A,@DPTR
   \   000184   68           XRL     A,R0
   \   000185   7003         JNZ     ??writeItem_12
   \   000187   A3           INC     DPTR
   \   000188   E0           MOVX    A,@DPTR
   \   000189   69           XRL     A,R1
   \                     ??writeItem_12:
   \   00018A   7014         JNZ     ??writeItem_11
   1107                  {
   1108                    hotItemUpdate(pg, offset, hdr.id);
   \   00018C                ; Setup parameters for call to function hotItemUpdate
   \   00018C   7402         MOV     A,#0x2
   \   00018E   12....       LCALL   ?XSTACK_DISP0_8
   \   000191   12....       LCALL   ?Subroutine27 & 0xFFFF
   \                     ??CrossCallReturnLabel_51:
   \   000194   AA..         MOV     R2,?V0 + 2
   \   000196   AB..         MOV     R3,?V0 + 3
   \   000198   A9..         MOV     R1,?V0 + 6
   \   00019A   12....       LCALL   ??hotItemUpdate?relay
   1109                    rtrn = TRUE;
   1110                  }
   1111                }
   1112              }
   1113              else
   1114              {
   1115                rtrn = TRUE;
   \                     ??writeItem_3:
   \   00019D   75..01       MOV     ?V0 + 7,#0x1
   1116              }
   1117          
   1118              len = OSAL_NV_ITEM_SIZE( hdr.len );
   \                     ??writeItem_11:
   \   0001A0   7404         MOV     A,#0x4
   \   0001A2   12....       LCALL   ?XSTACK_DISP0_8
   \   0001A5   12....       LCALL   ?Subroutine23 & 0xFFFF
   1119            }
   \                     ??CrossCallReturnLabel_43:
   \   0001A8   C3           CLR     C
   \   0001A9   E8           MOV     A,R0
   \   0001AA   94F4         SUBB    A,#-0xc
   \   0001AC   E9           MOV     A,R1
   \   0001AD   94FF         SUBB    A,#-0x1
   \   0001AF   4006         JC      ??writeItem_13
   \   0001B1   7EFC         MOV     R6,#-0x4
   \   0001B3   7FFF         MOV     R7,#-0x1
   \   0001B5   803E         SJMP    ??CrossCallReturnLabel_115
   \                     ??writeItem_13:
   \   0001B7   12....       LCALL   ?Subroutine34 & 0xFFFF
   \                     ??CrossCallReturnLabel_142:
   \   0001BA   8039         SJMP    ??CrossCallReturnLabel_115
   1120            else
   1121            {
   1122              len = OSAL_NV_ITEM_SIZE( hdr.len );
   \                     ??writeItem_1:
   \   0001BC   C3           CLR     C
   \   0001BD   E8           MOV     A,R0
   \   0001BE   94F4         SUBB    A,#-0xc
   \   0001C0   E9           MOV     A,R1
   \   0001C1   94FF         SUBB    A,#-0x1
   \   0001C3   4006         JC      ??writeItem_14
   \   0001C5   7EFC         MOV     R6,#-0x4
   \   0001C7   7FFF         MOV     R7,#-0x1
   \   0001C9   8003         SJMP    ??CrossCallReturnLabel_143
   \                     ??writeItem_14:
   \   0001CB   12....       LCALL   ?Subroutine34 & 0xFFFF
   1123          
   1124              if (len > (OSAL_NV_PAGE_SIZE - pgOff[pg - OSAL_NV_PAGE_BEG]))
   \                     ??CrossCallReturnLabel_143:
   \   0001CE   12....       LCALL   ?Subroutine17 & 0xFFFF
   \                     ??CrossCallReturnLabel_165:
   \   0001D1   F8           MOV     R0,A
   \   0001D2   A3           INC     DPTR
   \   0001D3   E0           MOVX    A,@DPTR
   \   0001D4   F9           MOV     R1,A
   \   0001D5   E4           CLR     A
   \   0001D6   C3           CLR     C
   \   0001D7   98           SUBB    A,R0
   \   0001D8   F8           MOV     R0,A
   \   0001D9   7408         MOV     A,#0x8
   \   0001DB   99           SUBB    A,R1
   \   0001DC   F9           MOV     R1,A
   \   0001DD   C3           CLR     C
   \   0001DE   E8           MOV     A,R0
   \   0001DF   9E           SUBB    A,R6
   \   0001E0   E9           MOV     A,R1
   \   0001E1   9F           SUBB    A,R7
   \   0001E2   5004         JNC     ??writeItem_15
   1125              {
   1126                len = (OSAL_NV_PAGE_SIZE - pgOff[pg - OSAL_NV_PAGE_BEG]);
   \   0001E4   E8           MOV     A,R0
   \   0001E5   FE           MOV     R6,A
   \   0001E6   E9           MOV     A,R1
   \   0001E7   FF           MOV     R7,A
   1127              }
   1128          
   1129              pgLost[pg - OSAL_NV_PAGE_BEG] += len;
   \                     ??writeItem_15:
   \   0001E8   74..         MOV     A,#(pgLost + 14) & 0xff
   \   0001EA   25..         ADD     A,?V0 + 0
   \   0001EC   F582         MOV     DPL,A
   \   0001EE   74..         MOV     A,#((pgLost - 242) >> 8) & 0xff
   \   0001F0   35..         ADDC    A,?V0 + 1
   \   0001F2   12....       LCALL   ?Subroutine46 & 0xFFFF
   1130            }
   1131            pgOff[pg - OSAL_NV_PAGE_BEG] += len;
   \                     ??CrossCallReturnLabel_115:
   \   0001F5   12....       LCALL   ?Subroutine17 & 0xFFFF
   \                     ??CrossCallReturnLabel_166:
   \   0001F8   12....       LCALL   ??Subroutine60_0 & 0xFFFF
   1132          
   1133            return rtrn;
   \                     ??CrossCallReturnLabel_113:
   \   0001FB   A9..         MOV     R1,?V0 + 7
   \   0001FD   740C         MOV     A,#0xc
   \   0001FF   02....       LJMP    ??Subroutine66_0 & 0xFFFF
   1134          }

   \                                 In  segment BANKED_CODE, align 1, keep-with-next
   \                     ?Subroutine34:
   \   000000   E8           MOV     A,R0
   \   000001   2403         ADD     A,#0x3
   \   000003   08           INC     R0
   \   000004   08           INC     R0
   \   000005   08           INC     R0
   \   000006   E9           MOV     A,R1
   \   000007                REQUIRE ??Subroutine68_0
   \   000007                ; // Fall through to label ??Subroutine68_0

   \                                 In  segment BANKED_CODE, align 1, keep-with-next
   \                     ?Subroutine40:
   \   000000   12....       LCALL   ??setChk?relay
   \   000003   8A..         MOV     ?V0 + 0,R2
   \   000005   8B..         MOV     ?V0 + 1,R3
   \   000007   A8..         MOV     R0,?V0 + 0
   \   000009   A9..         MOV     R1,?V0 + 1
   \   00000B   22           RET

   \                                 In  segment BANKED_CODE, align 1, keep-with-next
   \                     ?Subroutine17:
   \   000000   85..82       MOV     DPL,?XSP + 0
   \   000003   85..83       MOV     DPH,?XSP + 1
   \   000006                REQUIRE ??Subroutine70_0
   \   000006                ; // Fall through to label ??Subroutine70_0
   1135          
   1136          /*********************************************************************
   1137           * @fn      hotItem
   1138           *
   1139           * @brief   Look for the parameter 'id' in the hot items array.
   1140           *
   1141           * @param   id - A valid NV item Id.
   1142           *
   1143           * @return  A valid index into the hot items if the item is hot; OSAL_NV_MAX_HOT if not.
   1144           */

   \                                 In  segment BANKED_CODE, align 1, keep-with-next
   1145          static uint8 hotItem(uint16 id)
   \                     hotItem:
   1146          {
   \   000000   C082         PUSH    DPL
   \   000002   C083         PUSH    DPH
   \   000004                ; Saved register size: 2
   \   000004                ; Auto size: 0
   1147            uint8 hotIdx;
   1148          
   1149            for (hotIdx = 0; hotIdx < OSAL_NV_MAX_HOT; hotIdx++)
   \   000004   7900         MOV     R1,#0x0
   1150            {
   1151              if (hotIds[hotIdx] == id)
   \                     ??hotItem_0:
   \   000006   E9           MOV     A,R1
   \   000007   C3           CLR     C
   \   000008   33           RLC     A
   \   000009   FC           MOV     R4,A
   \   00000A   E4           CLR     A
   \   00000B   33           RLC     A
   \   00000C   FD           MOV     R5,A
   \   00000D   74..         MOV     A,#hotIds & 0xff
   \   00000F   2C           ADD     A,R4
   \   000010   F582         MOV     DPL,A
   \   000012   74..         MOV     A,#(hotIds >> 8) & 0xff
   \   000014   3D           ADDC    A,R5
   \   000015   F583         MOV     DPH,A
   \   000017   E0           MOVX    A,@DPTR
   \   000018   6A           XRL     A,R2
   \   000019   7003         JNZ     ??hotItem_1
   \   00001B   A3           INC     DPTR
   \   00001C   E0           MOVX    A,@DPTR
   \   00001D   6B           XRL     A,R3
   \                     ??hotItem_1:
   \   00001E   6007         JZ      ??hotItem_2
   1152              {
   1153                break;
   1154              }
   1155            }
   \   000020   09           INC     R1
   \   000021   E9           MOV     A,R1
   \   000022   C3           CLR     C
   \   000023   9403         SUBB    A,#0x3
   \   000025   40DF         JC      ??hotItem_0
   1156          
   1157            return hotIdx;
   \                     ??hotItem_2:
   \   000027                REQUIRE ?Subroutine5
   \   000027                ; // Fall through to label ?Subroutine5
   1158          }

   \                                 In  segment BANKED_CODE, align 1, keep-with-next
   \                     ?Subroutine5:
   \   000000   D083         POP     DPH
   \   000002   D082         POP     DPL
   \   000004   02....       LJMP    ?BRET
   1159          
   1160          /*********************************************************************
   1161           * @fn      hotItemUpdate
   1162           *
   1163           * @brief   If the parameter 'id' is a hot item, update the corresponding hot item data.
   1164           *
   1165           * @param   pg - The new NV page corresponding to the hot item.
   1166           * @param   off - The new NV page offset corresponding to the hot item.
   1167           * @param   id - A valid NV item Id.
   1168           *
   1169           * @return  none
   1170           */

   \                                 In  segment BANKED_CODE, align 1, keep-with-next
   1171          static void hotItemUpdate(uint8 pg, uint16 off, uint16 id)
   \                     hotItemUpdate:
   1172          {
   \   000000   74F7         MOV     A,#-0x9
   \   000002   12....       LCALL   ?BANKED_ENTER_XDATA
   \   000005                ; Saved register size: 9
   \   000005                ; Auto size: 0
   \   000005   89..         MOV     ?V0 + 0,R1
   \   000007   EA           MOV     A,R2
   \   000008   FE           MOV     R6,A
   \   000009   EB           MOV     A,R3
   \   00000A   FF           MOV     R7,A
   \   00000B   EC           MOV     A,R4
   \   00000C   FA           MOV     R2,A
   \   00000D   ED           MOV     A,R5
   \   00000E   FB           MOV     R3,A
   1173            uint8 hotIdx = hotItem(id);
   \   00000F                ; Setup parameters for call to function hotItem
   \   00000F   12....       LCALL   ?Subroutine44 & 0xFFFF
   1174          
   1175            if (hotIdx < OSAL_NV_MAX_HOT)
   \                     ??CrossCallReturnLabel_83:
   \   000012   500D         JNC     ??hotItemUpdate_0
   1176            {
   1177              {
   1178                hotPg[hotIdx] = pg;
   \   000014   12....       LCALL   ?Subroutine32 & 0xFFFF
   1179                hotOff[hotIdx] = off;
   1180              }
   1181            }
   \                     ??CrossCallReturnLabel_58:
   \   000017   E5..         MOV     A,?V0 + 0
   \   000019   12....       LCALL   ?Subroutine8 & 0xFFFF
   \                     ??CrossCallReturnLabel_0:
   \   00001C   EE           MOV     A,R6
   \   00001D   F0           MOVX    @DPTR,A
   \   00001E   A3           INC     DPTR
   \   00001F   EF           MOV     A,R7
   \   000020   F0           MOVX    @DPTR,A
   1182          }
   \                     ??hotItemUpdate_0:
   \   000021   02....       LJMP    ??Subroutine56_0 & 0xFFFF

   \                                 In  segment BANKED_CODE, align 1, keep-with-next
   \                     ?Subroutine44:
   \   000000   12....       LCALL   ??hotItem?relay
   \   000003   E9           MOV     A,R1
   \   000004   F8           MOV     R0,A
   \   000005   C3           CLR     C
   \   000006   9403         SUBB    A,#0x3
   \   000008   22           RET

   \                                 In  segment BANKED_CODE, align 1, keep-with-next
   \                     ?Subroutine32:
   \   000000   74..         MOV     A,#hotPg & 0xff
   \   000002   28           ADD     A,R0
   \   000003   F582         MOV     DPL,A
   \   000005   74..         MOV     A,#(hotPg >> 8) & 0xff
   \   000007   3400         ADDC    A,#0x0
   \   000009   F583         MOV     DPH,A
   \   00000B   22           RET

   \                                 In  segment BANKED_CODE, align 1, keep-with-next
   \                     ?Subroutine8:
   \   000000   F0           MOVX    @DPTR,A
   \   000001   E8           MOV     A,R0
   \   000002   12....       LCALL   ?Subroutine50 & 0xFFFF
   \                     ??CrossCallReturnLabel_96:
   \   000005   22           RET

   \                                 In  segment BANKED_CODE, align 1, keep-with-next
   \                     ?Subroutine50:
   \   000000   C3           CLR     C
   \   000001   33           RLC     A
   \   000002   F8           MOV     R0,A
   \   000003   E4           CLR     A
   \   000004   33           RLC     A
   \   000005   F9           MOV     R1,A
   \   000006   74..         MOV     A,#hotOff & 0xff
   \   000008   28           ADD     A,R0
   \   000009   F582         MOV     DPL,A
   \   00000B   74..         MOV     A,#(hotOff >> 8) & 0xff
   \   00000D   39           ADDC    A,R1
   \   00000E   F583         MOV     DPH,A
   \   000010   22           RET
   1183          
   1184          /*********************************************************************
   1185           * @fn      osal_nv_init
   1186           *
   1187           * @brief   Initialize NV service.
   1188           *
   1189           * @param   p - Not used.
   1190           *
   1191           * @return  none
   1192           */

   \                                 In  segment BANKED_CODE, align 1, keep-with-next
   1193          void osal_nv_init( void *p )
   \                     osal_nv_init:
   1194          {
   \   000000   C082         PUSH    DPL
   \   000002   C083         PUSH    DPH
   \   000004                ; Saved register size: 2
   \   000004                ; Auto size: 0
   1195            (void)p;  // Suppress Lint warning.
   1196            (void)initNV();  // Always returns TRUE after pages have been erased.
   \   000004                ; Setup parameters for call to function initNV
   \   000004   12....       LCALL   ??initNV?relay
   1197          }
   \   000007   80..         SJMP    ?Subroutine5
   1198          
   1199          /*********************************************************************
   1200           * @fn      osal_nv_item_init
   1201           *
   1202           * @brief   If the NV item does not already exist, it is created and
   1203           *          initialized with the data passed to the function, if any.
   1204           *          This function must be called before calling osal_nv_read() or
   1205           *          osal_nv_write().
   1206           *
   1207           * @param   id  - Valid NV item Id.
   1208           * @param   len - Item length.
   1209           * @param  *buf - Pointer to item initalization data. Set to NULL if none.
   1210           *
   1211           * @return  NV_ITEM_UNINIT - Id did not exist and was created successfully.
   1212           *          SUCCESS        - Id already existed, no action taken.
   1213           *          NV_OPER_FAILED - Failure to find or create Id.
   1214           */

   \                                 In  segment BANKED_CODE, align 1, keep-with-next
   1215          uint8 osal_nv_item_init( uint16 id, uint16 len, void *buf )
   \                     osal_nv_item_init:
   1216          {
   \   000000   74F2         MOV     A,#-0xe
   \   000002   12....       LCALL   ?BANKED_ENTER_XDATA
   \   000005                ; Saved register size: 14
   \   000005                ; Auto size: 0
   \   000005   EA           MOV     A,R2
   \   000006   FE           MOV     R6,A
   \   000007   EB           MOV     A,R3
   \   000008   FF           MOV     R7,A
   \   000009   8C..         MOV     ?V0 + 0,R4
   \   00000B   8D..         MOV     ?V0 + 1,R5
   \   00000D   740E         MOV     A,#0xe
   \   00000F   12....       LCALL   ?XSTACK_DISP0_8
   \   000012   E0           MOVX    A,@DPTR
   \   000013   F5..         MOV     ?V0 + 2,A
   \   000015   A3           INC     DPTR
   \   000016   E0           MOVX    A,@DPTR
   \   000017   F5..         MOV     ?V0 + 3,A
   1217            uint16 offset;
   1218          
   1219            if ( !OSAL_NV_CHECK_BUS_VOLTAGE )
   \   000019                ; Setup parameters for call to function HalAdcCheckVdd
   \   000019   794E         MOV     R1,#0x4e
   \   00001B   12....       LCALL   ??HalAdcCheckVdd?relay
   \   00001E   E9           MOV     A,R1
   \   00001F   7004         JNZ     ??osal_nv_item_init_0
   1220            {
   1221              return NV_OPER_FAILED;
   \                     ??osal_nv_item_init_1:
   \   000021   790A         MOV     R1,#0xa
   \   000023   8037         SJMP    ??osal_nv_item_init_2
   1222            }
   1223            else if ((offset = findItem(id)) != OSAL_NV_ITEM_NULL)
   \                     ??osal_nv_item_init_0:
   \   000025                ; Setup parameters for call to function findItem
   \   000025   EE           MOV     A,R6
   \   000026   FA           MOV     R2,A
   \   000027   EF           MOV     A,R7
   \   000028   FB           MOV     R3,A
   \   000029   12....       LCALL   ??findItem?relay
   \   00002C   EA           MOV     A,R2
   \   00002D   4B           ORL     A,R3
   \   00002E   6010         JZ      ??osal_nv_item_init_3
   1224            {
   1225              // Re-populate the NV hot item data if the corresponding items are already established.
   1226              hotItemUpdate(findPg, offset, id);
   \   000030                ; Setup parameters for call to function hotItemUpdate
   \   000030   EE           MOV     A,R6
   \   000031   FC           MOV     R4,A
   \   000032   EF           MOV     A,R7
   \   000033   FD           MOV     R5,A
   \   000034   90....       MOV     DPTR,#findPg
   \   000037   E0           MOVX    A,@DPTR
   \   000038   F9           MOV     R1,A
   \   000039   12....       LCALL   ??hotItemUpdate?relay
   1227          
   1228              return SUCCESS;
   \   00003C   7900         MOV     R1,#0x0
   \   00003E   801C         SJMP    ??osal_nv_item_init_2
   1229            }
   1230            else if ( initItem( TRUE, id, len, buf ) != OSAL_NV_PAGE_NULL )
   \                     ??osal_nv_item_init_3:
   \   000040                ; Setup parameters for call to function initItem
   \   000040   78..         MOV     R0,#?V0 + 2
   \   000042   12....       LCALL   ?PUSH_XSTACK_I_TWO
   \   000045   AC..         MOV     R4,?V0 + 0
   \   000047   AD..         MOV     R5,?V0 + 1
   \   000049   EE           MOV     A,R6
   \   00004A   FA           MOV     R2,A
   \   00004B   EF           MOV     A,R7
   \   00004C   FB           MOV     R3,A
   \   00004D   7901         MOV     R1,#0x1
   \   00004F   12....       LCALL   ??initItem?relay
   \   000052   7402         MOV     A,#0x2
   \   000054   12....       LCALL   ?DEALLOC_XSTACK8
   \   000057   E9           MOV     A,R1
   \   000058   60C7         JZ      ??osal_nv_item_init_1
   1231            {
   1232              return NV_ITEM_UNINIT;
   \   00005A   7909         MOV     R1,#0x9
   1233            }
   \                     ??osal_nv_item_init_2:
   \   00005C   02....       LJMP    ?Subroutine4 & 0xFFFF
   1234            else
   1235            {
   1236              return NV_OPER_FAILED;
   1237            }
   1238          }
   1239          
   1240          /*********************************************************************
   1241           * @fn      osal_nv_item_len
   1242           *
   1243           * @brief   Get the data length of the item stored in NV memory.
   1244           *
   1245           * @param   id  - Valid NV item Id.
   1246           *
   1247           * @return  Item length, if found; zero otherwise.
   1248           */

   \                                 In  segment BANKED_CODE, align 1, keep-with-next
   1249          uint16 osal_nv_item_len( uint16 id )
   \                     osal_nv_item_len:
   1250          {
   \   000000   74F4         MOV     A,#-0xc
   \   000002   12....       LCALL   ?BANKED_ENTER_XDATA
   \   000005                ; Saved register size: 12
   \   000005                ; Auto size: 8
   \   000005   74F8         MOV     A,#-0x8
   \   000007   12....       LCALL   ?ALLOC_XSTACK8
   \   00000A   EA           MOV     A,R2
   \   00000B   FE           MOV     R6,A
   \   00000C   EB           MOV     A,R3
   \   00000D   FF           MOV     R7,A
   1251            osalNvHdr_t hdr;
   1252            uint16 offset;
   1253            uint8 hotIdx;
   1254          
   1255            if ((hotIdx = hotItem(id)) < OSAL_NV_MAX_HOT)
   \   00000E                ; Setup parameters for call to function hotItem
   \   00000E   12....       LCALL   ?Subroutine44 & 0xFFFF
   \                     ??CrossCallReturnLabel_84:
   \   000011   503F         JNC     ??osal_nv_item_len_0
   1256            {
   1257              findPg = hotPg[hotIdx];
   \   000013   12....       LCALL   ?Subroutine32 & 0xFFFF
   1258              offset = hotOff[hotIdx];
   1259            }
   \                     ??CrossCallReturnLabel_59:
   \   000016   E0           MOVX    A,@DPTR
   \   000017   90....       MOV     DPTR,#findPg
   \   00001A   12....       LCALL   ?Subroutine8 & 0xFFFF
   \                     ??CrossCallReturnLabel_1:
   \   00001D   12....       LCALL   ??Subroutine69_0 & 0xFFFF
   1260            else if ((offset = findItem(id)) == OSAL_NV_ITEM_NULL)
   1261            {
   1262              return 0;
   1263            }
   1264          
   1265            HalFlashRead(findPg, (offset - OSAL_NV_HDR_SIZE), (uint8 *)(&hdr), OSAL_NV_HDR_SIZE);
   \                     ??CrossCallReturnLabel_151:
   \   000020                ; Setup parameters for call to function HalFlashRead
   \   000020   75..08       MOV     ?V0 + 2,#0x8
   \   000023   75..00       MOV     ?V0 + 3,#0x0
   \   000026   78..         MOV     R0,#?V0 + 2
   \   000028   12....       LCALL   ?PUSH_XSTACK_I_TWO
   \   00002B   7402         MOV     A,#0x2
   \   00002D   12....       LCALL   ?XSTACK_DISP0_8
   \   000030   AC82         MOV     R4,DPL
   \   000032   AD83         MOV     R5,DPH
   \   000034   EA           MOV     A,R2
   \   000035   24F8         ADD     A,#-0x8
   \   000037   FA           MOV     R2,A
   \   000038   EB           MOV     A,R3
   \   000039   34FF         ADDC    A,#-0x1
   \   00003B   FB           MOV     R3,A
   \   00003C   90....       MOV     DPTR,#findPg
   \   00003F   E0           MOVX    A,@DPTR
   \   000040   F9           MOV     R1,A
   \   000041   12....       LCALL   ??Subroutine65_0 & 0xFFFF
   \                     ??CrossCallReturnLabel_137:
   \   000044   12....       LCALL   ?DEALLOC_XSTACK8
   1266            return hdr.len;
   \   000047   7402         MOV     A,#0x2
   \   000049   12....       LCALL   ?XSTACK_DISP0_8
   \   00004C   12....       LCALL   ??Subroutine69_0 & 0xFFFF
   \                     ??CrossCallReturnLabel_152:
   \   00004F   02....       LJMP    ?Subroutine0 & 0xFFFF
   \                     ??osal_nv_item_len_0:
   \   000052                ; Setup parameters for call to function findItem
   \   000052   EE           MOV     A,R6
   \   000053   FA           MOV     R2,A
   \   000054   EF           MOV     A,R7
   \   000055   FB           MOV     R3,A
   \   000056   12....       LCALL   ??findItem?relay
   \   000059   8B..         MOV     ?V0 + 3,R3
   \   00005B   A9..         MOV     R1,?V0 + 3
   \   00005D   EA           MOV     A,R2
   \   00005E   49           ORL     A,R1
   \   00005F   70BF         JNZ     ??CrossCallReturnLabel_151
   \   000061   7A00         MOV     R2,#0x0
   \   000063   7B00         MOV     R3,#0x0
   \   000065   80E8         SJMP    ??CrossCallReturnLabel_152
   1267          }
   1268          
   1269          /*********************************************************************
   1270           * @fn      osal_nv_write
   1271           *
   1272           * @brief   Write a data item to NV. Function can write an entire item to NV or
   1273           *          an element of an item by indexing into the item with an offset.
   1274           *
   1275           * @param   id  - Valid NV item Id.
   1276           * @param   ndx - Index offset into item
   1277           * @param   len - Length of data to write.
   1278           * @param  *buf - Data to write.
   1279           *
   1280           * @return  SUCCESS if successful, NV_ITEM_UNINIT if item did not
   1281           *          exist in NV and offset is non-zero, NV_OPER_FAILED if failure.
   1282           */

   \                                 In  segment BANKED_CODE, align 1, keep-with-next
   1283          uint8 osal_nv_write( uint16 id, uint16 ndx, uint16 len, void *buf )
   \                     osal_nv_write:
   1284          {
   \   000000   74F0         MOV     A,#-0x10
   \   000002   12....       LCALL   ?BANKED_ENTER_XDATA
   \   000005                ; Saved register size: 16
   \   000005                ; Auto size: 17
   \   000005   74EF         MOV     A,#-0x11
   \   000007   12....       LCALL   ?ALLOC_XSTACK8
   \   00000A   740F         MOV     A,#0xf
   \   00000C   12....       LCALL   ?XSTACK_DISP0_8
   \   00000F   EA           MOV     A,R2
   \   000010   F0           MOVX    @DPTR,A
   \   000011   A3           INC     DPTR
   \   000012   EB           MOV     A,R3
   \   000013   F0           MOVX    @DPTR,A
   \   000014   8C..         MOV     ?V0 + 6,R4
   \   000016   8D..         MOV     ?V0 + 7,R5
   1285            uint8 rtrn = SUCCESS;
   \   000018   7402         MOV     A,#0x2
   \   00001A   12....       LCALL   ?XSTACK_DISP0_8
   \   00001D   E4           CLR     A
   \   00001E   F0           MOVX    @DPTR,A
   1286          
   1287            if ( !OSAL_NV_CHECK_BUS_VOLTAGE )
   \   00001F                ; Setup parameters for call to function HalAdcCheckVdd
   \   00001F   794E         MOV     R1,#0x4e
   \   000021   12....       LCALL   ??HalAdcCheckVdd?relay
   \   000024   E9           MOV     A,R1
   \   000025   7005         JNZ     ??osal_nv_write_0
   1288            {
   1289              return NV_OPER_FAILED;
   \                     ??osal_nv_write_1:
   \   000027   790A         MOV     R1,#0xa
   \   000029   02....       LJMP    ??osal_nv_write_2 & 0xFFFF
   1290            }
   1291            else if ( len != 0 )
   \                     ??osal_nv_write_0:
   \   00002C   7421         MOV     A,#0x21
   \   00002E   12....       LCALL   ?XSTACK_DISP0_8
   \   000031   12....       LCALL   ?Subroutine14 & 0xFFFF
   \                     ??CrossCallReturnLabel_21:
   \   000034   7003         JNZ     $+5
   \   000036   02....       LJMP    ??CrossCallReturnLabel_100 & 0xFFFF
   1292            {
   1293              osalNvHdr_t hdr;
   1294              uint16 origOff, srcOff;
   1295              uint16 cnt, chk;
   1296              uint8 *ptr, srcPg;
   1297          
   1298              origOff = srcOff = findItem( id );
   \   000039                ; Setup parameters for call to function findItem
   \   000039   740F         MOV     A,#0xf
   \   00003B   12....       LCALL   ?XSTACK_DISP0_8
   \   00003E   12....       LCALL   ??Subroutine69_0 & 0xFFFF
   \                     ??CrossCallReturnLabel_153:
   \   000041   12....       LCALL   ??findItem?relay
   \   000044   8A..         MOV     ?V0 + 0,R2
   \   000046   8B..         MOV     ?V0 + 1,R3
   \   000048   A8..         MOV     R0,?V0 + 0
   \   00004A   A9..         MOV     R1,?V0 + 1
   \   00004C   88..         MOV     ?V0 + 2,R0
   \   00004E   89..         MOV     ?V0 + 3,R1
   \   000050   7405         MOV     A,#0x5
   \   000052   12....       LCALL   ?XSTACK_DISP0_8
   \   000055   12....       LCALL   ?Subroutine9 & 0xFFFF
   1299              srcPg = findPg;
   \                     ??CrossCallReturnLabel_7:
   \   000058   90....       MOV     DPTR,#findPg
   \   00005B   E0           MOVX    A,@DPTR
   \   00005C   C0E0         PUSH    A
   \   00005E   7401         MOV     A,#0x1
   \   000060   12....       LCALL   ?XSTACK_DISP0_8
   \   000063   D0E0         POP     A
   \   000065   F0           MOVX    @DPTR,A
   1300              if ( srcOff == OSAL_NV_ITEM_NULL )
   \   000066   E8           MOV     A,R0
   \   000067   45..         ORL     A,?V0 + 3
   \   000069   7005         JNZ     ??osal_nv_write_3
   1301              {
   1302                return NV_ITEM_UNINIT;
   \   00006B   7909         MOV     R1,#0x9
   \   00006D   02....       LJMP    ??osal_nv_write_2 & 0xFFFF
   1303              }
   1304          
   1305              HalFlashRead(srcPg, (srcOff - OSAL_NV_HDR_SIZE), (uint8 *)(&hdr), OSAL_NV_HDR_SIZE);
   \                     ??osal_nv_write_3:
   \   000070                ; Setup parameters for call to function HalFlashRead
   \   000070   75..08       MOV     ?V0 + 0,#0x8
   \   000073   75..00       MOV     ?V0 + 1,#0x0
   \   000076   78..         MOV     R0,#?V0 + 0
   \   000078   12....       LCALL   ?PUSH_XSTACK_I_TWO
   \   00007B   7409         MOV     A,#0x9
   \   00007D   12....       LCALL   ?XSTACK_DISP0_8
   \   000080   AC82         MOV     R4,DPL
   \   000082   AD83         MOV     R5,DPH
   \   000084   EA           MOV     A,R2
   \   000085   24F8         ADD     A,#-0x8
   \   000087   FA           MOV     R2,A
   \   000088   E9           MOV     A,R1
   \   000089   34FF         ADDC    A,#-0x1
   \   00008B   FB           MOV     R3,A
   \   00008C   7403         MOV     A,#0x3
   \   00008E   12....       LCALL   ?XSTACK_DISP0_8
   \   000091   E0           MOVX    A,@DPTR
   \   000092   F9           MOV     R1,A
   \   000093   12....       LCALL   ??Subroutine65_0 & 0xFFFF
   \                     ??CrossCallReturnLabel_138:
   \   000096   12....       LCALL   ?DEALLOC_XSTACK8
   1306              if ( hdr.len < (ndx + len) )
   \   000099   7409         MOV     A,#0x9
   \   00009B   12....       LCALL   ?XSTACK_DISP0_8
   \   00009E   C082         PUSH    DPL
   \   0000A0   C083         PUSH    DPH
   \   0000A2   7421         MOV     A,#0x21
   \   0000A4   12....       LCALL   ?XSTACK_DISP0_8
   \   0000A7   12....       LCALL   ?Subroutine28 & 0xFFFF
   \                     ??CrossCallReturnLabel_53:
   \   0000AA   D083         POP     DPH
   \   0000AC   D082         POP     DPL
   \   0000AE   C3           CLR     C
   \   0000AF   E0           MOVX    A,@DPTR
   \   0000B0   98           SUBB    A,R0
   \   0000B1   A3           INC     DPTR
   \   0000B2   E0           MOVX    A,@DPTR
   \   0000B3   99           SUBB    A,R1
   \   0000B4   5003         JNC     $+5
   \   0000B6   02....       LJMP    ??osal_nv_write_1 & 0xFFFF
   1307              {
   1308                return NV_OPER_FAILED;
   1309              }
   1310          
   1311              srcOff += ndx;
   \   0000B9   E5..         MOV     A,?V0 + 2
   \   0000BB   25..         ADD     A,?V0 + 6
   \   0000BD   F5..         MOV     ?V0 + 2,A
   \   0000BF   E5..         MOV     A,?V0 + 3
   \   0000C1   35..         ADDC    A,?V0 + 7
   \   0000C3   F5..         MOV     ?V0 + 3,A
   1312              ptr = buf;
   \   0000C5   7423         MOV     A,#0x23
   \   0000C7   12....       LCALL   ?XSTACK_DISP0_8
   \   0000CA   12....       LCALL   ?Subroutine23 & 0xFFFF
   \                     ??CrossCallReturnLabel_44:
   \   0000CD   7403         MOV     A,#0x3
   \   0000CF   12....       LCALL   ?XSTACK_DISP0_8
   \   0000D2   12....       LCALL   ?Subroutine9 & 0xFFFF
   1313              cnt = len;
   \                     ??CrossCallReturnLabel_8:
   \   0000D5   7421         MOV     A,#0x21
   \   0000D7   12....       LCALL   ?XSTACK_DISP0_8
   \   0000DA   E0           MOVX    A,@DPTR
   \   0000DB   FE           MOV     R6,A
   \   0000DC   A3           INC     DPTR
   \   0000DD   E0           MOVX    A,@DPTR
   \   0000DE   FF           MOV     R7,A
   1314              chk = 0;
   \   0000DF   75..00       MOV     ?V0 + 0,#0x0
   \   0000E2   807A         SJMP    ??CrossCallReturnLabel_9
   1315              while ( cnt-- )
   1316              {
   1317                uint8 tmp;
   1318                HalFlashRead(srcPg, srcOff, &tmp, 1);
   \                     ??osal_nv_write_4:
   \   0000E4                ; Setup parameters for call to function HalFlashRead
   \   0000E4   75..01       MOV     ?V0 + 4,#0x1
   \   0000E7   75..00       MOV     ?V0 + 5,#0x0
   \   0000EA   78..         MOV     R0,#?V0 + 4
   \   0000EC   12....       LCALL   ?PUSH_XSTACK_I_TWO
   \   0000EF   7402         MOV     A,#0x2
   \   0000F1   12....       LCALL   ?XSTACK_DISP0_8
   \   0000F4   AC82         MOV     R4,DPL
   \   0000F6   AD83         MOV     R5,DPH
   \   0000F8   AA..         MOV     R2,?V0 + 2
   \   0000FA   AB..         MOV     R3,?V0 + 3
   \   0000FC   7403         MOV     A,#0x3
   \   0000FE   12....       LCALL   ?XSTACK_DISP0_8
   \   000101   E0           MOVX    A,@DPTR
   \   000102   F9           MOV     R1,A
   \   000103   12....       LCALL   ??Subroutine65_0 & 0xFFFF
   \                     ??CrossCallReturnLabel_139:
   \   000106   12....       LCALL   ?DEALLOC_XSTACK8
   1319                if ( tmp != *ptr )
   \   000109   85..82       MOV     DPL,?XSP + 0
   \   00010C   85..83       MOV     DPH,?XSP + 1
   \   00010F   E0           MOVX    A,@DPTR
   \   000110   F9           MOV     R1,A
   \   000111   7403         MOV     A,#0x3
   \   000113   12....       LCALL   ?XSTACK_DISP0_8
   \   000116   12....       LCALL   ??Subroutine70_0 & 0xFFFF
   \                     ??CrossCallReturnLabel_162:
   \   000119   69           XRL     A,R1
   \   00011A   602F         JZ      ??osal_nv_write_5
   1320                {
   1321                  chk = 1;  // Mark that at least one byte is different.
   \   00011C   75..01       MOV     ?V0 + 0,#0x1
   1322                  // Calculate expected checksum after transferring old data and writing new data.
   1323                  hdr.chk -= tmp;
   \   00011F   85..82       MOV     DPL,?XSP + 0
   \   000122   85..83       MOV     DPH,?XSP + 1
   \   000125   E0           MOVX    A,@DPTR
   \   000126   F8           MOV     R0,A
   \   000127   740B         MOV     A,#0xb
   \   000129   12....       LCALL   ?XSTACK_DISP0_8
   \   00012C   C3           CLR     C
   \   00012D   E0           MOVX    A,@DPTR
   \   00012E   98           SUBB    A,R0
   \   00012F   F0           MOVX    @DPTR,A
   \   000130   A3           INC     DPTR
   \   000131   E0           MOVX    A,@DPTR
   \   000132   9400         SUBB    A,#0x0
   \   000134   F0           MOVX    @DPTR,A
   1324                  hdr.chk += *ptr;
   \   000135   7403         MOV     A,#0x3
   \   000137   12....       LCALL   ?XSTACK_DISP0_8
   \   00013A   12....       LCALL   ??Subroutine70_0 & 0xFFFF
   1325                }
   \                     ??CrossCallReturnLabel_163:
   \   00013D   F8           MOV     R0,A
   \   00013E   740B         MOV     A,#0xb
   \   000140   12....       LCALL   ?XSTACK_DISP0_8
   \   000143   E0           MOVX    A,@DPTR
   \   000144   28           ADD     A,R0
   \   000145   F0           MOVX    @DPTR,A
   \   000146   A3           INC     DPTR
   \   000147   E0           MOVX    A,@DPTR
   \   000148   3400         ADDC    A,#0x0
   \   00014A   F0           MOVX    @DPTR,A
   1326                srcOff++;
   \                     ??osal_nv_write_5:
   \   00014B   12....       LCALL   ?Subroutine41 & 0xFFFF
   1327                ptr++;
   \                     ??CrossCallReturnLabel_77:
   \   00014E   7403         MOV     A,#0x3
   \   000150   12....       LCALL   ?XSTACK_DISP0_8
   \   000153   12....       LCALL   ?Subroutine49 & 0xFFFF
   1328              }
   \                     ??CrossCallReturnLabel_93:
   \   000156   7403         MOV     A,#0x3
   \   000158   12....       LCALL   ?XSTACK_DISP0_8
   \   00015B   12....       LCALL   ?Subroutine9 & 0xFFFF
   \                     ??CrossCallReturnLabel_9:
   \   00015E   12....       LCALL   ?Subroutine43 & 0xFFFF
   \                     ??CrossCallReturnLabel_82:
   \   000161   7081         JNZ     ??osal_nv_write_4
   1329          
   1330              if ( chk != 0 )  // If the buffer to write is different in one or more bytes.
   \   000163   E5..         MOV     A,?V0 + 0
   \   000165   A2E0         MOV     C,0xE0 /* A   */.0
   \   000167   4003         JC      $+5
   \   000169   02....       LJMP    ??CrossCallReturnLabel_100 & 0xFFFF
   1331              {
   1332                uint8 comPg = OSAL_NV_PAGE_NULL;
   \   00016C   85..82       MOV     DPL,?XSP + 0
   \   00016F   85..83       MOV     DPH,?XSP + 1
   \   000172   E4           CLR     A
   \   000173   F0           MOVX    @DPTR,A
   1333                uint8 dstPg = initItem( FALSE, id, hdr.len, &comPg );
   \   000174                ; Setup parameters for call to function initItem
   \   000174   8582..       MOV     ?V0 + 0,DPL
   \   000177   8583..       MOV     ?V0 + 1,DPH
   \   00017A   78..         MOV     R0,#?V0 + 0
   \   00017C   12....       LCALL   ?PUSH_XSTACK_I_TWO
   \   00017F   740B         MOV     A,#0xb
   \   000181   12....       LCALL   ?XSTACK_DISP0_8
   \   000184   12....       LCALL   ?Subroutine27 & 0xFFFF
   \                     ??CrossCallReturnLabel_52:
   \   000187   7411         MOV     A,#0x11
   \   000189   12....       LCALL   ?XSTACK_DISP0_8
   \   00018C   12....       LCALL   ??Subroutine69_0 & 0xFFFF
   \                     ??CrossCallReturnLabel_154:
   \   00018F   7900         MOV     R1,#0x0
   \   000191   12....       LCALL   ??initItem?relay
   \   000194   7402         MOV     A,#0x2
   \   000196   12....       LCALL   ?DEALLOC_XSTACK8
   \   000199   E9           MOV     A,R1
   \   00019A   F5..         MOV     ?V0 + 2,A
   1334          
   1335                if ( dstPg != OSAL_NV_PAGE_NULL )
   \   00019C   7003         JNZ     $+5
   \   00019E   02....       LJMP    ??osal_nv_write_6 & 0xFFFF
   1336                {
   1337                  uint16 tmp = OSAL_NV_DATA_SIZE( hdr.len );
   \   0001A1   7409         MOV     A,#0x9
   \   0001A3   12....       LCALL   ?XSTACK_DISP0_8
   \   0001A6   12....       LCALL   ?Subroutine23 & 0xFFFF
   \                     ??CrossCallReturnLabel_45:
   \   0001A9   C3           CLR     C
   \   0001AA   E8           MOV     A,R0
   \   0001AB   94FC         SUBB    A,#-0x4
   \   0001AD   E9           MOV     A,R1
   \   0001AE   94FF         SUBB    A,#-0x1
   \   0001B0   4008         JC      ??osal_nv_write_7
   \   0001B2   75..FC       MOV     ?V0 + 0,#-0x4
   \   0001B5   75..FF       MOV     ?V0 + 1,#-0x1
   \   0001B8   800F         SJMP    ??osal_nv_write_8
   \                     ??osal_nv_write_7:
   \   0001BA   E8           MOV     A,R0
   \   0001BB   2403         ADD     A,#0x3
   \   0001BD   08           INC     R0
   \   0001BE   08           INC     R0
   \   0001BF   08           INC     R0
   \   0001C0   E9           MOV     A,R1
   \   0001C1   12....       LCALL   ?Subroutine51 & 0xFFFF
   \                     ??CrossCallReturnLabel_144:
   \   0001C4   F5..         MOV     ?V0 + 0,A
   \   0001C6   E9           MOV     A,R1
   \   0001C7   F5..         MOV     ?V0 + 1,A
   1338                  uint16 dstOff = pgOff[dstPg-OSAL_NV_PAGE_BEG] - tmp;
   \                     ??osal_nv_write_8:
   \   0001C9   E5..         MOV     A,?V0 + 2
   \   0001CB   C3           CLR     C
   \   0001CC   33           RLC     A
   \   0001CD   F8           MOV     R0,A
   \   0001CE   E4           CLR     A
   \   0001CF   33           RLC     A
   \   0001D0   F9           MOV     R1,A
   \   0001D1   74..         MOV     A,#(pgOff + 14) & 0xff
   \   0001D3   28           ADD     A,R0
   \   0001D4   F8           MOV     R0,A
   \   0001D5   74..         MOV     A,#((pgOff - 242) >> 8) & 0xff
   \   0001D7   39           ADDC    A,R1
   \   0001D8   F9           MOV     R1,A
   \   0001D9   7403         MOV     A,#0x3
   \   0001DB   12....       LCALL   ?XSTACK_DISP0_8
   \   0001DE   12....       LCALL   ?Subroutine9 & 0xFFFF
   \                     ??CrossCallReturnLabel_10:
   \   0001E1   7403         MOV     A,#0x3
   \   0001E3   12....       LCALL   ?XSTACK_DISP0_8
   \   0001E6   12....       LCALL   ?Subroutine16 & 0xFFFF
   1339                  srcOff = origOff;
   1340          
   1341                  /* Prevent excessive re-writes to item header caused by numerous, rapid, & successive
   1342                   * OSAL_Nv interruptions caused by resets.
   1343                   */
   1344                  if ( hdr.stat == OSAL_NV_ERASED_ID )
   \                     ??CrossCallReturnLabel_25:
   \   0001E9   740D         MOV     A,#0xd
   \   0001EB   12....       LCALL   ?XSTACK_DISP0_8
   \   0001EE   E0           MOVX    A,@DPTR
   \   0001EF   F4           CPL     A
   \   0001F0   7003         JNZ     ??osal_nv_write_9
   \   0001F2   A3           INC     DPTR
   \   0001F3   E0           MOVX    A,@DPTR
   \   0001F4   F4           CPL     A
   \                     ??osal_nv_write_9:
   \   0001F5   7012         JNZ     ??CrossCallReturnLabel_99
   1345                  {
   1346                    setItem( srcPg, srcOff, eNvXfer );
   \   0001F7                ; Setup parameters for call to function setItem
   \   0001F7   7C00         MOV     R4,#0x0
   \   0001F9   7405         MOV     A,#0x5
   \   0001FB   12....       LCALL   ?XSTACK_DISP0_8
   \   0001FE   12....       LCALL   ??Subroutine69_0 & 0xFFFF
   1347                  }
   \                     ??CrossCallReturnLabel_155:
   \   000201   7401         MOV     A,#0x1
   \   000203   12....       LCALL   ?XSTACK_DISP0_8
   \   000206   12....       LCALL   ??Subroutine54_0 & 0xFFFF
   1348          
   1349                  xferBuf( srcPg, srcOff, dstPg, dstOff, ndx );
   \                     ??CrossCallReturnLabel_99:
   \   000209                ; Setup parameters for call to function xferBuf
   \   000209   78..         MOV     R0,#?V0 + 6
   \   00020B   12....       LCALL   ?PUSH_XSTACK_I_TWO
   \   00020E   8E..         MOV     ?V0 + 4,R6
   \   000210   8F..         MOV     ?V0 + 5,R7
   \   000212   78..         MOV     R0,#?V0 + 4
   \   000214   12....       LCALL   ?PUSH_XSTACK_I_TWO
   \   000217   AC..         MOV     R4,?V0 + 2
   \   000219   7409         MOV     A,#0x9
   \   00021B   12....       LCALL   ?XSTACK_DISP0_8
   \   00021E   12....       LCALL   ??Subroutine69_0 & 0xFFFF
   \                     ??CrossCallReturnLabel_156:
   \   000221   7405         MOV     A,#0x5
   \   000223   12....       LCALL   ?XSTACK_DISP0_8
   \   000226   E0           MOVX    A,@DPTR
   \   000227   F9           MOV     R1,A
   \   000228   12....       LCALL   ??xferBuf?relay
   \   00022B   7404         MOV     A,#0x4
   \   00022D   12....       LCALL   ?DEALLOC_XSTACK8
   1350                  srcOff += ndx;
   1351                  dstOff += ndx;
   \   000230   EE           MOV     A,R6
   \   000231   25..         ADD     A,?V0 + 6
   \   000233   FE           MOV     R6,A
   \   000234   EF           MOV     A,R7
   \   000235   35..         ADDC    A,?V0 + 7
   \   000237   FF           MOV     R7,A
   1352          
   1353                  writeBuf( dstPg, dstOff, len, buf );
   \   000238                ; Setup parameters for call to function writeBuf
   \   000238   7423         MOV     A,#0x23
   \   00023A   12....       LCALL   ?XSTACK_DISP0_8
   \   00023D   12....       LCALL   ?PUSH_XSTACK8_X_TWO
   \   000240   7423         MOV     A,#0x23
   \   000242   12....       LCALL   ?XSTACK_DISP0_8
   \   000245   12....       LCALL   ?Subroutine15 & 0xFFFF
   \                     ??CrossCallReturnLabel_22:
   \   000248   12....       LCALL   ??writeBuf?relay
   \   00024B   7402         MOV     A,#0x2
   \   00024D   12....       LCALL   ?DEALLOC_XSTACK8
   1354                  srcOff += len;
   1355                  dstOff += len;
   1356          
   1357                  xferBuf( srcPg, srcOff, dstPg, dstOff, (hdr.len-ndx-len) );
   \   000250                ; Setup parameters for call to function xferBuf
   \   000250   7409         MOV     A,#0x9
   \   000252   12....       LCALL   ?XSTACK_DISP0_8
   \   000255   E0           MOVX    A,@DPTR
   \   000256   C3           CLR     C
   \   000257   95..         SUBB    A,?V0 + 6
   \   000259   FA           MOV     R2,A
   \   00025A   A3           INC     DPTR
   \   00025B   E0           MOVX    A,@DPTR
   \   00025C   95..         SUBB    A,?V0 + 7
   \   00025E   FB           MOV     R3,A
   \   00025F   7421         MOV     A,#0x21
   \   000261   12....       LCALL   ?XSTACK_DISP0_8
   \   000264   12....       LCALL   ?Subroutine23 & 0xFFFF
   \                     ??CrossCallReturnLabel_46:
   \   000267   EA           MOV     A,R2
   \   000268   C3           CLR     C
   \   000269   98           SUBB    A,R0
   \   00026A   F5..         MOV     ?V0 + 4,A
   \   00026C   EB           MOV     A,R3
   \   00026D   99           SUBB    A,R1
   \   00026E   F5..         MOV     ?V0 + 5,A
   \   000270   78..         MOV     R0,#?V0 + 4
   \   000272   12....       LCALL   ?PUSH_XSTACK_I_TWO
   \   000275   7423         MOV     A,#0x23
   \   000277   12....       LCALL   ?XSTACK_DISP0_8
   \   00027A   E0           MOVX    A,@DPTR
   \   00027B   2E           ADD     A,R6
   \   00027C   F5..         MOV     ?V0 + 4,A
   \   00027E   A3           INC     DPTR
   \   00027F   E0           MOVX    A,@DPTR
   \   000280   3F           ADDC    A,R7
   \   000281   F5..         MOV     ?V0 + 5,A
   \   000283   78..         MOV     R0,#?V0 + 4
   \   000285   12....       LCALL   ?PUSH_XSTACK_I_TWO
   \   000288   AC..         MOV     R4,?V0 + 2
   \   00028A   7409         MOV     A,#0x9
   \   00028C   12....       LCALL   ?XSTACK_DISP0_8
   \   00028F   12....       LCALL   ?Subroutine28 & 0xFFFF
   \                     ??CrossCallReturnLabel_54:
   \   000292   7425         MOV     A,#0x25
   \   000294   12....       LCALL   ?XSTACK_DISP0_8
   \   000297   E0           MOVX    A,@DPTR
   \   000298   28           ADD     A,R0
   \   000299   FA           MOV     R2,A
   \   00029A   A3           INC     DPTR
   \   00029B   E0           MOVX    A,@DPTR
   \   00029C   39           ADDC    A,R1
   \   00029D   FB           MOV     R3,A
   \   00029E   7405         MOV     A,#0x5
   \   0002A0   12....       LCALL   ?XSTACK_DISP0_8
   \   0002A3   E0           MOVX    A,@DPTR
   \   0002A4   F9           MOV     R1,A
   \   0002A5   12....       LCALL   ??xferBuf?relay
   \   0002A8   7404         MOV     A,#0x4
   \   0002AA   12....       LCALL   ?DEALLOC_XSTACK8
   1358          
   1359                  // Calculate and write the new checksum.
   1360                  dstOff = pgOff[dstPg-OSAL_NV_PAGE_BEG] - tmp;
   \   0002AD   7403         MOV     A,#0x3
   \   0002AF   12....       LCALL   ?XSTACK_DISP0_8
   \   0002B2   12....       LCALL   ?Subroutine16 & 0xFFFF
   1361          
   1362                  if ( hdr.chk == calcChkF( dstPg, dstOff, hdr.len ) )
   \                     ??CrossCallReturnLabel_26:
   \   0002B5                ; Setup parameters for call to function calcChkF
   \   0002B5   7409         MOV     A,#0x9
   \   0002B7   12....       LCALL   ?XSTACK_DISP0_8
   \   0002BA   12....       LCALL   ?Subroutine15 & 0xFFFF
   \                     ??CrossCallReturnLabel_23:
   \   0002BD   12....       LCALL   ??calcChkF?relay
   \   0002C0   740B         MOV     A,#0xb
   \   0002C2   12....       LCALL   ?XSTACK_DISP0_8
   \   0002C5   12....       LCALL   ?Subroutine20 & 0xFFFF
   \                     ??CrossCallReturnLabel_33:
   \   0002C8   7002         JNZ     ??osal_nv_write_10
   \   0002CA   EB           MOV     A,R3
   \   0002CB   6D           XRL     A,R5
   \                     ??osal_nv_write_10:
   \   0002CC   7017         JNZ     ??osal_nv_write_6
   1363                  {
   1364                    if ( hdr.chk != setChk( dstPg, dstOff, hdr.chk ) )
   \   0002CE                ; Setup parameters for call to function setChk
   \   0002CE   EE           MOV     A,R6
   \   0002CF   FA           MOV     R2,A
   \   0002D0   EF           MOV     A,R7
   \   0002D1   FB           MOV     R3,A
   \   0002D2   A9..         MOV     R1,?V0 + 2
   \   0002D4   12....       LCALL   ?Subroutine40 & 0xFFFF
   \                     ??CrossCallReturnLabel_75:
   \   0002D7   740B         MOV     A,#0xb
   \   0002D9   12....       LCALL   ?XSTACK_DISP0_8
   \   0002DC   E0           MOVX    A,@DPTR
   \   0002DD   68           XRL     A,R0
   \   0002DE   7003         JNZ     ??osal_nv_write_11
   \   0002E0   A3           INC     DPTR
   \   0002E1   E0           MOVX    A,@DPTR
   \   0002E2   69           XRL     A,R1
   \                     ??osal_nv_write_11:
   \   0002E3   600A         JZ      ??osal_nv_write_12
   1365                    {
   1366                      rtrn = NV_OPER_FAILED;
   \                     ??osal_nv_write_6:
   \   0002E5   7402         MOV     A,#0x2
   \   0002E7   12....       LCALL   ?XSTACK_DISP0_8
   \   0002EA   740A         MOV     A,#0xa
   \   0002EC   F0           MOVX    @DPTR,A
   \   0002ED   800B         SJMP    ??osal_nv_write_13
   1367                    }
   1368                    else
   1369                    {
   1370                      hotItemUpdate(dstPg, dstOff, hdr.id);
   \                     ??osal_nv_write_12:
   \   0002EF                ; Setup parameters for call to function hotItemUpdate
   \   0002EF   7407         MOV     A,#0x7
   \   0002F1   12....       LCALL   ?XSTACK_DISP0_8
   \   0002F4   12....       LCALL   ?Subroutine15 & 0xFFFF
   1371                    }
   1372                  }
   1373                  else
   1374                  {
   1375                    rtrn = NV_OPER_FAILED;
   1376                  }
   1377                }
   \                     ??CrossCallReturnLabel_24:
   \   0002F7   12....       LCALL   ??hotItemUpdate?relay
   1378                else
   1379                {
   1380                  rtrn = NV_OPER_FAILED;
   1381                }
   1382          
   1383                if ( comPg != OSAL_NV_PAGE_NULL )
   \                     ??osal_nv_write_13:
   \   0002FA   85..82       MOV     DPL,?XSP + 0
   \   0002FD   85..83       MOV     DPH,?XSP + 1
   \   000300   E0           MOVX    A,@DPTR
   \   000301   6030         JZ      ??osal_nv_write_14
   1384                {
   1385                  /* Even though the page compaction succeeded, if the new item is coming from the compacted
   1386                   * page and writing the new value failed, then the compaction must be aborted.
   1387                   */
   1388                  if ( (srcPg == comPg) && (rtrn == NV_OPER_FAILED) )
   \   000303   7401         MOV     A,#0x1
   \   000305   12....       LCALL   ?XSTACK_DISP0_8
   \   000308   12....       LCALL   ?Subroutine26 & 0xFFFF
   \                     ??CrossCallReturnLabel_47:
   \   00030B   700F         JNZ     ??osal_nv_write_15
   \   00030D   7402         MOV     A,#0x2
   \   00030F   12....       LCALL   ?XSTACK_DISP0_8
   \   000312   E0           MOVX    A,@DPTR
   \   000313   640A         XRL     A,#0xa
   \   000315   7005         JNZ     ??osal_nv_write_15
   1389                  {
   1390                    erasePage( pgRes );
   \   000317                ; Setup parameters for call to function erasePage
   \   000317   12....       LCALL   ?Subroutine25 & 0xFFFF
   1391                  }
   \                     ??CrossCallReturnLabel_107:
   \   00031A   8017         SJMP    ??osal_nv_write_14
   1392                  else
   1393                  {
   1394                    COMPACT_PAGE_CLEANUP( comPg );
   \                     ??osal_nv_write_15:
   \   00031C                ; Setup parameters for call to function setPageUse
   \   00031C   12....       LCALL   ?Subroutine29 & 0xFFFF
   \                     ??CrossCallReturnLabel_57:
   \   00031F                ; Setup parameters for call to function erasePage
   \   00031F   85..82       MOV     DPL,?XSP + 0
   \   000322   85..83       MOV     DPH,?XSP + 1
   \   000325   12....       LCALL   ??Subroutine57_0 & 0xFFFF
   \                     ??CrossCallReturnLabel_108:
   \   000328   85..82       MOV     DPL,?XSP + 0
   \   00032B   85..83       MOV     DPH,?XSP + 1
   \   00032E   E0           MOVX    A,@DPTR
   \   00032F   90....       MOV     DPTR,#pgRes
   \   000332   F0           MOVX    @DPTR,A
   1395                  }
   1396                }
   1397          
   1398                /* Zero of the old item must wait until after compact page cleanup has finished - if the item
   1399                 * is zeroed before and cleanup is interrupted by a power-cycle, the new item can be lost.
   1400                 */
   1401                if ( (srcPg != comPg) && (rtrn != NV_OPER_FAILED) )
   \                     ??osal_nv_write_14:
   \   000333   7401         MOV     A,#0x1
   \   000335   12....       LCALL   ?XSTACK_DISP0_8
   \   000338   12....       LCALL   ?Subroutine26 & 0xFFFF
   \                     ??CrossCallReturnLabel_48:
   \   00033B   601B         JZ      ??CrossCallReturnLabel_100
   \   00033D   7402         MOV     A,#0x2
   \   00033F   12....       LCALL   ?XSTACK_DISP0_8
   \   000342   E0           MOVX    A,@DPTR
   \   000343   640A         XRL     A,#0xa
   \   000345   6011         JZ      ??CrossCallReturnLabel_100
   1402                {
   1403                  setItem( srcPg, origOff, eNvZero );
   \   000347                ; Setup parameters for call to function setItem
   \   000347   7C01         MOV     R4,#0x1
   \   000349   7405         MOV     A,#0x5
   \   00034B   12....       LCALL   ?XSTACK_DISP0_8
   \   00034E   12....       LCALL   ??Subroutine69_0 & 0xFFFF
   1404                }
   1405              }
   1406            }
   \                     ??CrossCallReturnLabel_157:
   \   000351   EC           MOV     A,R4
   \   000352   12....       LCALL   ?XSTACK_DISP0_8
   \   000355   12....       LCALL   ??Subroutine54_0 & 0xFFFF
   1407          
   1408            return rtrn;
   \                     ??CrossCallReturnLabel_100:
   \   000358   7402         MOV     A,#0x2
   \   00035A   12....       LCALL   ?XSTACK_DISP0_8
   \   00035D   E0           MOVX    A,@DPTR
   \   00035E   F9           MOV     R1,A
   \                     ??osal_nv_write_2:
   \   00035F   7411         MOV     A,#0x11
   \   000361   02....       LJMP    ??Subroutine66_0 & 0xFFFF
   1409          }

   \                                 In  segment BANKED_CODE, align 1, keep-with-next
   \                     ?Subroutine28:
   \   000000   E0           MOVX    A,@DPTR
   \   000001   25..         ADD     A,?V0 + 6
   \   000003   F8           MOV     R0,A
   \   000004   A3           INC     DPTR
   \   000005   E0           MOVX    A,@DPTR
   \   000006   35..         ADDC    A,?V0 + 7
   \   000008   F9           MOV     R1,A
   \   000009   22           RET

   \                                 In  segment BANKED_CODE, align 1, keep-with-next
   \                     ?Subroutine26:
   \   000000   E0           MOVX    A,@DPTR
   \   000001   F8           MOV     R0,A
   \   000002   85..82       MOV     DPL,?XSP + 0
   \   000005   85..83       MOV     DPH,?XSP + 1
   \   000008   E0           MOVX    A,@DPTR
   \   000009   68           XRL     A,R0
   \   00000A   22           RET

   \                                 In  segment BANKED_CODE, align 1, keep-with-next
   \                     ?Subroutine16:
   \   000000   12....       LCALL   ?Subroutine48 & 0xFFFF
   \                     ??CrossCallReturnLabel_167:
   \   000003   C3           CLR     C
   \   000004   95..         SUBB    A,?V0 + 0
   \   000006   FE           MOV     R6,A
   \   000007   A3           INC     DPTR
   \   000008   E0           MOVX    A,@DPTR
   \   000009   95..         SUBB    A,?V0 + 1
   \   00000B   FF           MOV     R7,A
   \   00000C   22           RET

   \                                 In  segment BANKED_CODE, align 1, keep-with-next
   \                     ?Subroutine15:
   \   000000   12....       LCALL   ?Subroutine47 & 0xFFFF
   \                     ??CrossCallReturnLabel_88:
   \   000003   EE           MOV     A,R6
   \   000004   FA           MOV     R2,A
   \   000005   EF           MOV     A,R7
   \   000006   FB           MOV     R3,A
   \   000007   A9..         MOV     R1,?V0 + 2
   \   000009   22           RET
   1410          
   1411          /*********************************************************************
   1412           * @fn      osal_nv_read
   1413           *
   1414           * @brief   Read data from NV. This function can be used to read an entire item from NV or
   1415           *          an element of an item by indexing into the item with an offset.
   1416           *          Read data is copied into *buf.
   1417           *
   1418           * @param   id  - Valid NV item Id.
   1419           * @param   ndx - Index offset into item
   1420           * @param   len - Length of data to read.
   1421           * @param  *buf - Data is read into this buffer.
   1422           *
   1423           * @return  SUCCESS if NV data was copied to the parameter 'buf'.
   1424           *          Otherwise, NV_OPER_FAILED for failure.
   1425           */

   \                                 In  segment BANKED_CODE, align 1, keep-with-next
   1426          uint8 osal_nv_read( uint16 id, uint16 ndx, uint16 len, void *buf )
   \                     osal_nv_read:
   1427          {
   \   000000   74F0         MOV     A,#-0x10
   \   000002   12....       LCALL   ?BANKED_ENTER_XDATA
   \   000005                ; Saved register size: 16
   \   000005                ; Auto size: 0
   \   000005   8A..         MOV     ?V0 + 0,R2
   \   000007   8B..         MOV     ?V0 + 1,R3
   \   000009   8C..         MOV     ?V0 + 2,R4
   \   00000B   8D..         MOV     ?V0 + 3,R5
   \   00000D   7410         MOV     A,#0x10
   \   00000F   12....       LCALL   ?XSTACK_DISP0_8
   \   000012   E0           MOVX    A,@DPTR
   \   000013   FE           MOV     R6,A
   \   000014   A3           INC     DPTR
   \   000015   E0           MOVX    A,@DPTR
   \   000016   FF           MOV     R7,A
   \   000017   7412         MOV     A,#0x12
   \   000019   12....       LCALL   ?XSTACK_DISP0_8
   \   00001C   E0           MOVX    A,@DPTR
   \   00001D   F5..         MOV     ?V0 + 4,A
   \   00001F   A3           INC     DPTR
   \   000020   E0           MOVX    A,@DPTR
   \   000021   F5..         MOV     ?V0 + 5,A
   1428            uint16 offset;
   1429            uint8 hotIdx;
   1430          
   1431            if ((hotIdx = hotItem(id)) < OSAL_NV_MAX_HOT)
   \   000023                ; Setup parameters for call to function hotItem
   \   000023   12....       LCALL   ?Subroutine44 & 0xFFFF
   \                     ??CrossCallReturnLabel_85:
   \   000026   502D         JNC     ??osal_nv_read_0
   1432            {
   1433              HalFlashRead(hotPg[hotIdx], hotOff[hotIdx]+ndx, buf, len);
   \   000028   8882         MOV     DPL,R0
   \   00002A   8582..       MOV     ?V0 + 0,DPL
   \   00002D                ; Setup parameters for call to function HalFlashRead
   \   00002D   8E..         MOV     ?V0 + 6,R6
   \   00002F   8F..         MOV     ?V0 + 7,R7
   \   000031   78..         MOV     R0,#?V0 + 6
   \   000033   12....       LCALL   ?PUSH_XSTACK_I_TWO
   \   000036   AC..         MOV     R4,?V0 + 4
   \   000038   AD..         MOV     R5,?V0 + 5
   \   00003A   E9           MOV     A,R1
   \   00003B   12....       LCALL   ?Subroutine50 & 0xFFFF
   1434              return SUCCESS;
   1435            }
   \                     ??CrossCallReturnLabel_95:
   \   00003E   E0           MOVX    A,@DPTR
   \   00003F   25..         ADD     A,?V0 + 2
   \   000041   FA           MOV     R2,A
   \   000042   A3           INC     DPTR
   \   000043   E0           MOVX    A,@DPTR
   \   000044   35..         ADDC    A,?V0 + 3
   \   000046   FB           MOV     R3,A
   \   000047   74..         MOV     A,#hotPg & 0xff
   \   000049   25..         ADD     A,?V0 + 0
   \   00004B   F582         MOV     DPL,A
   \   00004D   74..         MOV     A,#(hotPg >> 8) & 0xff
   \   00004F   3400         ADDC    A,#0x0
   \   000051   F583         MOV     DPH,A
   \   000053   8027         SJMP    ??osal_nv_read_1
   1436          
   1437            if ((offset = findItem(id)) == OSAL_NV_ITEM_NULL)
   \                     ??osal_nv_read_0:
   \   000055                ; Setup parameters for call to function findItem
   \   000055   AA..         MOV     R2,?V0 + 0
   \   000057   AB..         MOV     R3,?V0 + 1
   \   000059   12....       LCALL   ??findItem?relay
   \   00005C   EA           MOV     A,R2
   \   00005D   4B           ORL     A,R3
   \   00005E   7004         JNZ     ??osal_nv_read_2
   1438            {
   1439              return NV_OPER_FAILED;
   \   000060   790A         MOV     R1,#0xa
   \   000062   8022         SJMP    ??osal_nv_read_3
   1440            }
   1441            else
   1442            {
   1443              HalFlashRead(findPg, offset+ndx, buf, len);
   \                     ??osal_nv_read_2:
   \   000064                ; Setup parameters for call to function HalFlashRead
   \   000064   8E..         MOV     ?V0 + 0,R6
   \   000066   8F..         MOV     ?V0 + 1,R7
   \   000068   78..         MOV     R0,#?V0 + 0
   \   00006A   12....       LCALL   ?PUSH_XSTACK_I_TWO
   \   00006D   AC..         MOV     R4,?V0 + 4
   \   00006F   AD..         MOV     R5,?V0 + 5
   \   000071   EA           MOV     A,R2
   \   000072   25..         ADD     A,?V0 + 2
   \   000074   FA           MOV     R2,A
   \   000075   EB           MOV     A,R3
   \   000076   35..         ADDC    A,?V0 + 3
   \   000078   FB           MOV     R3,A
   \   000079   90....       MOV     DPTR,#findPg
   \                     ??osal_nv_read_1:
   \   00007C   E0           MOVX    A,@DPTR
   \   00007D   F9           MOV     R1,A
   \   00007E   12....       LCALL   ??Subroutine65_0 & 0xFFFF
   \                     ??CrossCallReturnLabel_140:
   \   000081   12....       LCALL   ?DEALLOC_XSTACK8
   1444              return SUCCESS;
   \   000084   7900         MOV     R1,#0x0
   1445            }
   \                     ??osal_nv_read_3:
   \   000086   02....       LJMP    ??Subroutine67_0 & 0xFFFF
   1446          }
   1447          
   1448          /*********************************************************************
   1449           * @fn      osal_nv_delete
   1450           *
   1451           * @brief   Delete item from NV. This function will fail if the length
   1452           *          parameter does not match the length of the item in NV.
   1453           *
   1454           * @param   id  - Valid NV item Id.
   1455           * @param   len - Length of item to delete.
   1456           *
   1457           * @return  SUCCESS if item was deleted,
   1458           *          NV_ITEM_UNINIT if item did not exist in NV,
   1459           *          NV_BAD_ITEM_LEN if length parameter not correct,
   1460           *          NV_OPER_FAILED if attempted deletion failed.
   1461           */

   \                                 In  segment BANKED_CODE, align 1, keep-with-next
   1462          uint8 osal_nv_delete( uint16 id, uint16 len )
   \                     osal_nv_delete:
   1463          {
   \   000000   74F2         MOV     A,#-0xe
   \   000002   12....       LCALL   ?BANKED_ENTER_XDATA
   \   000005                ; Saved register size: 14
   \   000005                ; Auto size: 0
   \   000005   EA           MOV     A,R2
   \   000006   FE           MOV     R6,A
   \   000007   EB           MOV     A,R3
   \   000008   FF           MOV     R7,A
   \   000009   8C..         MOV     ?V0 + 2,R4
   \   00000B   8D..         MOV     ?V0 + 3,R5
   1464            uint16 length;
   1465            uint16 offset;
   1466          
   1467            offset = findItem( id );
   \   00000D                ; Setup parameters for call to function findItem
   \   00000D   12....       LCALL   ??findItem?relay
   \   000010   8A..         MOV     ?V0 + 0,R2
   \   000012   8B..         MOV     ?V0 + 1,R3
   1468            if ( offset == OSAL_NV_ITEM_NULL )
   \   000014   EA           MOV     A,R2
   \   000015   45..         ORL     A,?V0 + 1
   \   000017   7004         JNZ     ??osal_nv_delete_0
   1469            {
   1470              // NV item does not exist
   1471              return NV_ITEM_UNINIT;
   \   000019   7909         MOV     R1,#0x9
   \   00001B   8038         SJMP    ??osal_nv_delete_1
   1472            }
   1473          
   1474            length = osal_nv_item_len( id );
   1475            if ( length != len )
   \                     ??osal_nv_delete_0:
   \   00001D                ; Setup parameters for call to function osal_nv_item_len
   \   00001D   EE           MOV     A,R6
   \   00001E   FA           MOV     R2,A
   \   00001F   EF           MOV     A,R7
   \   000020   FB           MOV     R3,A
   \   000021   12....       LCALL   ??osal_nv_item_len?relay
   \   000024   8A..         MOV     ?V0 + 4,R2
   \   000026   8B..         MOV     ?V0 + 5,R3
   \   000028   E5..         MOV     A,?V0 + 2
   \   00002A   65..         XRL     A,?V0 + 4
   \   00002C   7004         JNZ     ??osal_nv_delete_2
   \   00002E   E5..         MOV     A,?V0 + 3
   \   000030   65..         XRL     A,?V0 + 5
   \                     ??osal_nv_delete_2:
   \   000032   6004         JZ      ??osal_nv_delete_3
   1476            {
   1477              // NV item has different length
   1478              return NV_BAD_ITEM_LEN;
   \   000034   790C         MOV     R1,#0xc
   \   000036   801D         SJMP    ??osal_nv_delete_1
   1479            }
   1480          
   1481            // Set item header ID to zero to 'delete' the item
   1482            setItem( findPg, offset, eNvZero );
   \                     ??osal_nv_delete_3:
   \   000038                ; Setup parameters for call to function setItem
   \   000038   7C01         MOV     R4,#0x1
   \   00003A   AA..         MOV     R2,?V0 + 0
   \   00003C   AB..         MOV     R3,?V0 + 1
   \   00003E   12....       LCALL   ?Subroutine24 & 0xFFFF
   1483          
   1484            // Verify that item has been removed
   1485            offset = findItem( id );
   1486            if ( offset != OSAL_NV_ITEM_NULL )
   \                     ??CrossCallReturnLabel_98:
   \   000041                ; Setup parameters for call to function findItem
   \   000041   EE           MOV     A,R6
   \   000042   FA           MOV     R2,A
   \   000043   EF           MOV     A,R7
   \   000044   FB           MOV     R3,A
   \   000045   12....       LCALL   ??findItem?relay
   \   000048   8B..         MOV     ?V0 + 1,R3
   \   00004A   EA           MOV     A,R2
   \   00004B   45..         ORL     A,?V0 + 1
   \   00004D   6004         JZ      ??osal_nv_delete_4
   1487            {
   1488              // Still there
   1489              return NV_OPER_FAILED;
   \   00004F   790A         MOV     R1,#0xa
   \   000051   8002         SJMP    ??osal_nv_delete_1
   1490            }
   1491            else
   1492            {
   1493              // Yes, it's gone
   1494              return SUCCESS;
   \                     ??osal_nv_delete_4:
   \   000053   7900         MOV     R1,#0x0
   1495            }
   \                     ??osal_nv_delete_1:
   \   000055   02....       LJMP    ?Subroutine4 & 0xFFFF
   1496          }

   \                                 In  segment BANK_RELAYS, align 1
   \                     ??initNV?relay:
   \   000000   12....       LCALL   ?BDISPATCH
   \   000003   ......       DC24    initNV

   \                                 In  segment BANK_RELAYS, align 1
   \                     ??setPageUse?relay:
   \   000000   12....       LCALL   ?BDISPATCH
   \   000003   ......       DC24    setPageUse

   \                                 In  segment BANK_RELAYS, align 1
   \                     ??initPage?relay:
   \   000000   12....       LCALL   ?BDISPATCH
   \   000003   ......       DC24    initPage

   \                                 In  segment BANK_RELAYS, align 1
   \                     ??erasePage?relay:
   \   000000   12....       LCALL   ?BDISPATCH
   \   000003   ......       DC24    erasePage

   \                                 In  segment BANK_RELAYS, align 1
   \                     ??compactPage?relay:
   \   000000   12....       LCALL   ?BDISPATCH
   \   000003   ......       DC24    compactPage

   \                                 In  segment BANK_RELAYS, align 1
   \                     ??findItem?relay:
   \   000000   12....       LCALL   ?BDISPATCH
   \   000003   ......       DC24    findItem

   \                                 In  segment BANK_RELAYS, align 1
   \                     ??initItem?relay:
   \   000000   12....       LCALL   ?BDISPATCH
   \   000003   ......       DC24    initItem

   \                                 In  segment BANK_RELAYS, align 1
   \                     ??setItem?relay:
   \   000000   12....       LCALL   ?BDISPATCH
   \   000003   ......       DC24    setItem

   \                                 In  segment BANK_RELAYS, align 1
   \                     ??setChk?relay:
   \   000000   12....       LCALL   ?BDISPATCH
   \   000003   ......       DC24    setChk

   \                                 In  segment BANK_RELAYS, align 1
   \                     ??calcChkF?relay:
   \   000000   12....       LCALL   ?BDISPATCH
   \   000003   ......       DC24    calcChkF

   \                                 In  segment BANK_RELAYS, align 1
   \                     ??writeWord?relay:
   \   000000   12....       LCALL   ?BDISPATCH
   \   000003   ......       DC24    writeWord

   \                                 In  segment BANK_RELAYS, align 1
   \                     ??writeWordH?relay:
   \   000000   12....       LCALL   ?BDISPATCH
   \   000003   ......       DC24    writeWordH

   \                                 In  segment BANK_RELAYS, align 1
   \                     ??writeBuf?relay:
   \   000000   12....       LCALL   ?BDISPATCH
   \   000003   ......       DC24    writeBuf

   \                                 In  segment BANK_RELAYS, align 1
   \                     ??xferBuf?relay:
   \   000000   12....       LCALL   ?BDISPATCH
   \   000003   ......       DC24    xferBuf

   \                                 In  segment BANK_RELAYS, align 1
   \                     ??writeItem?relay:
   \   000000   12....       LCALL   ?BDISPATCH
   \   000003   ......       DC24    writeItem

   \                                 In  segment BANK_RELAYS, align 1
   \                     ??hotItem?relay:
   \   000000   12....       LCALL   ?BDISPATCH
   \   000003   ......       DC24    hotItem

   \                                 In  segment BANK_RELAYS, align 1
   \                     ??hotItemUpdate?relay:
   \   000000   12....       LCALL   ?BDISPATCH
   \   000003   ......       DC24    hotItemUpdate

   \                                 In  segment BANK_RELAYS, align 1
   \                     ??osal_nv_init?relay:
   \   000000   12....       LCALL   ?BDISPATCH
   \   000003   ......       DC24    osal_nv_init

   \                                 In  segment BANK_RELAYS, align 1
   \                     ??osal_nv_item_init?relay:
   \   000000   12....       LCALL   ?BDISPATCH
   \   000003   ......       DC24    osal_nv_item_init

   \                                 In  segment BANK_RELAYS, align 1
   \                     ??osal_nv_item_len?relay:
   \   000000   12....       LCALL   ?BDISPATCH
   \   000003   ......       DC24    osal_nv_item_len

   \                                 In  segment BANK_RELAYS, align 1
   \                     ??osal_nv_write?relay:
   \   000000   12....       LCALL   ?BDISPATCH
   \   000003   ......       DC24    osal_nv_write

   \                                 In  segment BANK_RELAYS, align 1
   \                     ??osal_nv_read?relay:
   \   000000   12....       LCALL   ?BDISPATCH
   \   000003   ......       DC24    osal_nv_read

   \                                 In  segment BANK_RELAYS, align 1
   \                     ??osal_nv_delete?relay:
   \   000000   12....       LCALL   ?BDISPATCH
   \   000003   ......       DC24    osal_nv_delete
   1497          
   1498          /*********************************************************************
   1499           */

   Maximum stack usage in bytes:

     Function              ISTACK PSTACK XSTACK
     --------              ------ ------ ------
     calcChkF                  0      0     54
       -> HalFlashRead         0      0     42
     compactPage               0      0     56
       -> HalFlashRead         0      0     56
       -> erasePage            0      0     52
       -> HalFlashRead         0      0     56
       -> calcChkF             0      0     52
       -> setItem              0      0     52
       -> writeItem            0      0     58
       -> xferBuf              0      0     60
       -> calcChkF             0      0     52
       -> setChk               0      0     52
       -> hotItemUpdate        0      0     52
       -> erasePage            0      0     52
       -> setPageUse           0      0     52
       -> erasePage            0      0     52
     erasePage                 0      0     42
       -> HalFlashErase        0      0     18
     findItem                  0      0     45
       -> initPage             0      0     24
     hotItem                   2      0     20
     hotItemUpdate             1      0     42
       -> hotItem              0      0     18
     initItem                  1      0     64
       -> HalFlashRead         0      0     56
       -> writeWordH           0      0     52
       -> compactPage          0      0     52
       -> writeItem            0      0     58
       -> setPageUse           0      0     52
       -> erasePage            0      0     52
       -> writeItem            0      0     58
     initNV                    0      0     22
       -> HalFlashRead         0      0     44
       -> setPageUse           0      0     40
       -> erasePage            0      0     40
       -> compactPage          0      0     40
       -> erasePage            0      0     40
       -> erasePage            0      0     40
       -> initPage             0      0     40
       -> initPage             0      0     40
       -> erasePage            0      0     40
     initPage                  0      0     48
       -> HalFlashRead         0      0     56
       -> calcChkF             0      0     52
       -> findItem             0      0     52
       -> setItem              0      0     52
       -> setItem              0      0     52
     osal_nv_delete            0      0     14
       -> findItem             0      0     28
       -> osal_nv_item_len     0      0     28
       -> setItem              0      0     28
       -> findItem             0      0     28
     osal_nv_init              2      0      0
       -> initNV               4      0      0
     osal_nv_item_init         0      0     18
       -> HalAdcCheckVdd       0      0     28
       -> findItem             0      0     28
       -> hotItemUpdate        0      0     28
       -> initItem             0      0     32
     osal_nv_item_len          0      0     36
       -> hotItem              0      0     40
       -> HalFlashRead         0      0     44
       -> findItem             0      0     40
     osal_nv_read              0      0     22
       -> hotItem              0      0     32
       -> HalFlashRead         0      0     36
       -> findItem             0      0     32
       -> HalFlashRead         0      0     36
     osal_nv_write             2      0     41
       -> HalAdcCheckVdd       0      0     66
       -> findItem             0      0     66
       -> HalFlashRead         0      0     70
       -> HalFlashRead         0      0     70
       -> initItem             0      0     70
       -> setItem              0      0     66
       -> xferBuf              0      0     74
       -> writeBuf             0      0     70
       -> xferBuf              0      0     74
       -> calcChkF             0      0     66
       -> setChk               0      0     66
       -> hotItemUpdate        0      0     66
       -> erasePage            0      0     66
       -> setPageUse           0      0     66
       -> erasePage            0      0     66
       -> setItem              0      0     66
     setChk                    0      0     49
       -> writeWordH           0      0     28
       -> HalFlashRead         0      0     32
     setItem                   0      0     57
       -> HalFlashRead         0      0     48
       -> writeWord            0      0     44
       -> writeWord            0      0     44
     setPageUse                0      0     50
       -> writeWord            0      0     34
     writeBuf                  1      0     57
       -> HalFlashRead         0      0     44
       -> writeWord            0      0     40
       -> HalFlashWrite        0      0     44
       -> HalFlashRead         0      0     44
       -> writeWord            0      0     40
     writeItem                 0      0     59
       -> writeWord            0      0     56
       -> HalFlashRead         0      0     60
       -> writeBuf             0      0     60
       -> calcChkF             0      0     56
       -> setChk               0      0     56
       -> hotItemUpdate        0      0     56
     writeWord                 0      0     42
       -> HalFlashWrite        0      0     28
     writeWordH                1      0     39
       -> writeWord            0      0     26
     xferBuf                   1      0     60
       -> HalFlashRead         0      0     46
       -> HalFlashRead         0      0     46
       -> writeWord            0      0     42
       -> HalFlashRead         0      0     46
       -> writeWord            0      0     42
       -> HalFlashRead         0      0     46
       -> HalFlashRead         0      0     46
       -> writeWord            0      0     42


   Segment part sizes:

     Function/Label            Bytes
     --------------            -----
     hotIds                        6
     _nvBuf                    12288
     pgOff                        12
     pgLost                       12
     pgRes                         1
     findPg                        1
     hotPg                         3
     hotOff                        6
     initNV                      295
     ?Subroutine33                11
     ?Subroutine0                  2
     ??Subroutine61_0              3
     ??Subroutine62_0              5
     ??Subroutine65_0              6
     ?Subroutine13                 3
     ??Subroutine69_0              6
     setPageUse                   55
     ?Subroutine1                  3
     ??Subroutine56_0              5
     ??Subroutine58_0              2
     ??Subroutine59_0             12
     initPage                    396
     ?Subroutine24                 3
     ??Subroutine54_0              6
     ??Subroutine55_0             17
     ?Subroutine10                12
     ?Subroutine39                18
     ?Subroutine37                14
     ?Subroutine36                13
     ?Subroutine35                 9
     ?Subroutine51                 7
     ?Subroutine19                11
     ?Subroutine11                 8
     ?Subroutine12                 8
     ??Subroutine64_0              2
     ?Subroutine2                  2
     ??Subroutine66_0              3
     ??Subroutine67_0              5
     ?Subroutine47                 6
     ?Subroutine23                 6
     ?Subroutine14                 8
     erasePage                    27
     ?Subroutine31                 1
     compactPage                 531
     ?Subroutine3                  8
     ?Subroutine25                 3
     ??Subroutine57_0              6
     ?Subroutine18                13
     ?Subroutine29                11
     ?Subroutine27                 4
     ?Subroutine20                 6
     ?Subroutine41                13
     findItem                     68
     initItem                    352
     ?Subroutine22                18
     ?Subroutine7                  7
     ?Subroutine53                 9
     setItem                     143
     ?Subroutine4                  5
     ?Subroutine46                 3
     ??Subroutine60_0              7
     ??Subroutine68_0             11
     setChk                       93
     ?Subroutine6                  5
     calcChkF                    138
     ?Subroutine43                15
     ?Subroutine52                13
     writeWord                    56
     writeWordH                   64
     writeBuf                    365
     ?Subroutine45                19
     ?Subroutine21                 6
     ??Subroutine63_0              7
     ?Subroutine9                  6
     ?Subroutine49                10
     ??Subroutine70_0              4
     ?Subroutine48                 5
     xferBuf                     351
     ?Subroutine42                13
     ?Subroutine38                17
     ?Subroutine30                10
     writeItem                   514
     ?Subroutine34                 7
     ?Subroutine40                12
     ?Subroutine17                 6
     hotItem                      39
     ?Subroutine5                  7
     hotItemUpdate                36
     ?Subroutine44                 9
     ?Subroutine32                12
     ?Subroutine8                  6
     ?Subroutine50                17
     osal_nv_init                  9
     osal_nv_item_init            95
     osal_nv_item_len            103
     osal_nv_write               868
     ?Subroutine28                10
     ?Subroutine26                11
     ?Subroutine16                13
     ?Subroutine15                10
     osal_nv_read                137
     osal_nv_delete               88
     ??initNV?relay                6
     ??setPageUse?relay            6
     ??initPage?relay              6
     ??erasePage?relay             6
     ??compactPage?relay           6
     ??findItem?relay              6
     ??initItem?relay              6
     ??setItem?relay               6
     ??setChk?relay                6
     ??calcChkF?relay              6
     ??writeWord?relay             6
     ??writeWordH?relay            6
     ??writeBuf?relay              6
     ??xferBuf?relay               6
     ??writeItem?relay             6
     ??hotItem?relay               6
     ??hotItemUpdate?relay         6
     ??osal_nv_init?relay          6
     ??osal_nv_item_init?relay     6
     ??osal_nv_item_len?relay      6
     ??osal_nv_write?relay         6
     ??osal_nv_read?relay          6
     ??osal_nv_delete?relay        6

 
  5 414 bytes in segment BANKED_CODE
    138 bytes in segment BANK_RELAYS
      6 bytes in segment XDATA_ROM_C
     35 bytes in segment XDATA_Z
 12 288 bytes in segment ZIGNV_ADDRESS_SPACE
 
  5 552 bytes of CODE  memory
      6 bytes of CONST memory
 12 323 bytes of XDATA memory

Errors: none
Warnings: none
