###############################################################################
#                                                                             #
# IAR C/C++ Compiler V8.10.1.40194/W32 for 8051         23/Jan/2014  09:41:00 #
# Copyright 2004-2011 IAR Systems AB.                                         #
#                                                                             #
#    Core               =  plain                                              #
#    Code model         =  banked                                             #
#    Data model         =  large                                              #
#    Calling convention =  xdata reentrant                                    #
#    Constant location  =  data_rom                                           #
#    Dptr setup         =  1,16                                               #
#    Source file        =  E:\wise-house\Projects\zstack\Samples\MyGenericApp #
#                          \Source\chdebug.c                                  #
#    Command line       =  -f E:\wise-house\Projects\zstack\Samples\MyGeneric #
#                          App\CC2530DB\..\..\..\Tools\CC2530DB\f8wEndev.cfg  #
#                          (-DCPU32MHZ -DROOT=__near_func                     #
#                          -DMAC_CFG_TX_DATA_MAX=3 -DMAC_CFG_TX_MAX=6         #
#                          -DMAC_CFG_RX_MAX=3) -f E:\wise-house\Projects\zsta #
#                          ck\Samples\MyGenericApp\CC2530DB\..\..\..\Tools\CC #
#                          2530DB\f8wConfig.cfg (-DZIGBEEPRO -DSECURE=0       #
#                          -DZG_SECURE_DYNAMIC=0 -DREFLECTOR                  #
#                          -DDEFAULT_CHANLIST=0x00000800                      #
#                          -DZDAPP_CONFIG_PAN_ID=0xFFFF                       #
#                          -DNWK_START_DELAY=100 -DEXTENDED_JOINING_RANDOM_MA #
#                          SK=0x007F -DBEACON_REQUEST_DELAY=100               #
#                          -DBEACON_REQ_DELAY_MASK=0x00FF                     #
#                          -DLINK_STATUS_JITTER_MASK=0x007F                   #
#                          -DROUTE_EXPIRY_TIME=30 -DAPSC_ACK_WAIT_DURATION_PO #
#                          LLED=3000 -DNWK_INDIRECT_MSG_TIMEOUT=7             #
#                          -DMAX_RREQ_ENTRIES=8 -DAPSC_MAX_FRAME_RETRIES=3    #
#                          -DNWK_MAX_DATA_RETRIES=2                           #
#                          -DMAX_POLL_FAILURE_RETRIES=2 -DMAX_BCAST=9         #
#                          -DAPS_MAX_GROUPS=16 -DMAX_RTG_ENTRIES=40           #
#                          -DNWK_MAX_BINDING_ENTRIES=4                        #
#                          -DMAX_BINDING_CLUSTER_IDS=4 "-DDEFAULT_KEY={0x01,  #
#                          0x03, 0x05, 0x07, 0x09, 0x0B, 0x0D, 0x0F, 0x00,    #
#                          0x02, 0x04, 0x06, 0x08, 0x0A, 0x0C, 0x0D}"         #
#                          -DMAC_MAX_FRAME_SIZE=116                           #
#                          -DZDNWKMGR_MIN_TRANSMISSIONS=20 "-DCONST=const     #
#                          __code" -DGENERIC=__generic                        #
#                          -DRFD_RCVC_ALWAYS_ON=TRUE -DPOLL_RATE=1000         #
#                          -DQUEUED_POLL_RATE=100 -DRESPONSE_POLL_RATE=100)   #
#                          -DREJOIN_POLL_RATE=440 E:\wise-house\Projects\zsta #
#                          ck\Samples\MyGenericApp\Source\chdebug.c -D        #
#                          NWK_AUTO_POLL -D ZTOOL_P1 -D MT_TASK -D            #
#                          MT_SYS_FUNC -D MT_ZDO_FUNC -D LCD_SUPPORTED=DEBUG  #
#                          -D xPOWER_SAVING -lC E:\wise-house\Projects\zstack #
#                          \Samples\MyGenericApp\CC2530DB\EndDeviceEB\List\   #
#                          -lA E:\wise-house\Projects\zstack\Samples\MyGeneri #
#                          cApp\CC2530DB\EndDeviceEB\List\ --diag_suppress    #
#                          Pe001,Pa010 -o E:\wise-house\Projects\zstack\Sampl #
#                          es\MyGenericApp\CC2530DB\EndDeviceEB\Obj\ -e       #
#                          --no_code_motion --debug --core=plain --dptr=16,1  #
#                          --data_model=large --code_model=banked             #
#                          --calling_convention=xdata_reentrant               #
#                          --place_constants=data_rom --nr_virtual_regs 16    #
#                          -I E:\wise-house\Projects\zstack\Samples\MyGeneric #
#                          App\CC2530DB\ -I E:\wise-house\Projects\zstack\Sam #
#                          ples\MyGenericApp\CC2530DB\..\Source\ -I           #
#                          E:\wise-house\Projects\zstack\Samples\MyGenericApp #
#                          \CC2530DB\..\..\..\ZMain\TI2530DB\ -I              #
#                          E:\wise-house\Projects\zstack\Samples\MyGenericApp #
#                          \CC2530DB\..\..\..\..\..\Components\hal\include\   #
#                          -I E:\wise-house\Projects\zstack\Samples\MyGeneric #
#                          App\CC2530DB\..\..\..\..\..\Components\hal\target\ #
#                          CC2530EB\ -I E:\wise-house\Projects\zstack\Samples #
#                          \MyGenericApp\CC2530DB\..\..\..\..\..\Components\m #
#                          ac\include\ -I E:\wise-house\Projects\zstack\Sampl #
#                          es\MyGenericApp\CC2530DB\..\..\..\..\..\Components #
#                          \mac\high_level\ -I E:\wise-house\Projects\zstack\ #
#                          Samples\MyGenericApp\CC2530DB\..\..\..\..\..\Compo #
#                          nents\mac\low_level\srf04\ -I                      #
#                          E:\wise-house\Projects\zstack\Samples\MyGenericApp #
#                          \CC2530DB\..\..\..\..\..\Components\mac\low_level\ #
#                          srf04\single_chip\ -I E:\wise-house\Projects\zstac #
#                          k\Samples\MyGenericApp\CC2530DB\..\..\..\..\..\Com #
#                          ponents\mt\ -I E:\wise-house\Projects\zstack\Sampl #
#                          es\MyGenericApp\CC2530DB\..\..\..\..\..\Components #
#                          \osal\include\ -I E:\wise-house\Projects\zstack\Sa #
#                          mples\MyGenericApp\CC2530DB\..\..\..\..\..\Compone #
#                          nts\services\saddr\ -I E:\wise-house\Projects\zsta #
#                          ck\Samples\MyGenericApp\CC2530DB\..\..\..\..\..\Co #
#                          mponents\services\sdata\ -I                        #
#                          E:\wise-house\Projects\zstack\Samples\MyGenericApp #
#                          \CC2530DB\..\..\..\..\..\Components\stack\af\ -I   #
#                          E:\wise-house\Projects\zstack\Samples\MyGenericApp #
#                          \CC2530DB\..\..\..\..\..\Components\stack\nwk\ -I  #
#                          E:\wise-house\Projects\zstack\Samples\MyGenericApp #
#                          \CC2530DB\..\..\..\..\..\Components\stack\sapi\    #
#                          -I E:\wise-house\Projects\zstack\Samples\MyGeneric #
#                          App\CC2530DB\..\..\..\..\..\Components\stack\sec\  #
#                          -I E:\wise-house\Projects\zstack\Samples\MyGeneric #
#                          App\CC2530DB\..\..\..\..\..\Components\stack\sys\  #
#                          -I E:\wise-house\Projects\zstack\Samples\MyGeneric #
#                          App\CC2530DB\..\..\..\..\..\Components\stack\zdo\  #
#                          -I E:\wise-house\Projects\zstack\Samples\MyGeneric #
#                          App\CC2530DB\..\..\..\..\..\Components\zmac\ -I    #
#                          E:\wise-house\Projects\zstack\Samples\MyGenericApp #
#                          \CC2530DB\..\..\..\..\..\Components\zmac\f8w\ -Ohz #
#    List file          =  E:\wise-house\Projects\zstack\Samples\MyGenericApp #
#                          \CC2530DB\EndDeviceEB\List\chdebug.lst             #
#    Object file        =  E:\wise-house\Projects\zstack\Samples\MyGenericApp #
#                          \CC2530DB\EndDeviceEB\Obj\chdebug.r51              #
#                                                                             #
#                                                                             #
###############################################################################

E:\wise-house\Projects\zstack\Samples\MyGenericApp\Source\chdebug.c
      1          
      2          #include "chdebug.h"

   \                                 In  segment SFR_AN, at 0xa8
   \   union <unnamed> volatile __sfr _A_IEN0
   \                     _A_IEN0:
   \   000000                DS 1

   \                                 In  segment SFR_AN, at 0xe8
   \   union <unnamed> volatile __sfr _A_IRCON2
   \                     _A_IRCON2:
   \   000000                DS 1

   \                                 In  segment SFR_AN, at 0xf1
   \   unsigned char volatile __sfr PERCFG
   \                     PERCFG:
   \   000000                DS 1

   \                                 In  segment SFR_AN, at 0xf2
   \   unsigned char volatile __sfr ADCCFG
   \                     ADCCFG:
   \   000000                DS 1

   \                                 In  segment SFR_AN, at 0xf4
   \   unsigned char volatile __sfr P1SEL
   \                     P1SEL:
   \   000000                DS 1

   \                                 In  segment SFR_AN, at 0xf8
   \   union <unnamed> volatile __sfr _A_U1CSR
   \                     _A_U1CSR:
   \   000000                DS 1

   \                                 In  segment SFR_AN, at 0xf9
   \   unsigned char volatile __sfr U1DBUF
   \                     U1DBUF:
   \   000000                DS 1

   \                                 In  segment SFR_AN, at 0xfa
   \   unsigned char volatile __sfr U1BAUD
   \                     U1BAUD:
   \   000000                DS 1

   \                                 In  segment SFR_AN, at 0xfb
   \   unsigned char volatile __sfr U1UCR
   \                     U1UCR:
   \   000000                DS 1

   \                                 In  segment SFR_AN, at 0xfc
   \   unsigned char volatile __sfr U1GCR
   \                     U1GCR:
   \   000000                DS 1

   \                                 In  segment SFR_AN, at 0xff
   \   unsigned char volatile __sfr P2DIR
   \                     P2DIR:
   \   000000                DS 1
      3          
      4          #ifdef DEBUG_CH
      5          #define CSR_MODE                   0x80
      6          #define CSR_RE                     0x40
      7          #define CSR_SLAVE                  0x20
      8          #define CSR_FE                     0x10
      9          #define CSR_ERR                    0x08
     10          #define CSR_RX_BYTE                0x04
     11          #define CSR_TX_BYTE                0x02
     12          #define CSR_ACTIVE                 0x01
     13          
     14          // UxUCR - USART UART Control Register.
     15          #define UCR_FLUSH                  0x80
     16          #define UCR_FLOW                   0x40
     17          #define UCR_D9                     0x20
     18          #define UCR_BIT9                   0x10
     19          #define UCR_PARITY                 0x08
     20          #define UCR_SPB                    0x04
     21          #define UCR_STOP                   0x02
     22          #define UCR_START                  0x01
     23          
     24          #define UTX0IE                     0x04
     25          #define UTX1IE                     0x08
     26          
     27          #define P2DIR_PRIPO                0xC0
     28          #if (DEBUG_PORT == 0)
     29          #define PxOUT                      P0
     30          #define PxDIR                      P0DIR
     31          #define PxSEL                      P0SEL
     32          #define UxCSR                      U0CSR
     33          #define UxUCR                      U0UCR
     34          #define UxDBUF                     U0DBUF
     35          #define UxBAUD                     U0BAUD
     36          #define UxGCR                      U0GCR
     37          #define URXxIE                     URX0IE
     38          #define URXxIF                     URX0IF
     39          #define UTXxIE                     UTX0IE
     40          #define UTXxIF                     UTX0IF
     41          #else
     42          #define PxOUT                      P1
     43          #define PxDIR                      P1DIR
     44          #define PxSEL                      P1SEL
     45          #define UxCSR                      U1CSR
     46          #define UxUCR                      U1UCR
     47          #define UxDBUF                     U1DBUF
     48          #define UxBAUD                     U1BAUD
     49          #define UxGCR                      U1GCR
     50          #define URXxIE                     URX1IE
     51          #define URXxIF                     URX1IF
     52          #define UTXxIE                     UTX1IE
     53          #define UTXxIF                     UTX1IF
     54          #endif
     55          
     56          #if (DEBUG_PORT == 0)
     57          #define HAL_UART_PERCFG_BIT        0x01         // USART0 on P0, Alt-1; so clear this bit.
     58          #define HAL_UART_Px_RX_TX          0x0C         // Peripheral I/O Select for Rx/Tx.
     59          #define HAL_UART_Px_RTS            0x20         // Peripheral I/O Select for RTS.
     60          #define HAL_UART_Px_CTS            0x10         // Peripheral I/O Select for CTS.
     61          #define HAL_UART_PRIPO             0x00
     62          #else
     63          #define HAL_UART_PERCFG_BIT        0x02         // USART1 on P1, Alt-2; so set this bit.
     64          #define HAL_UART_Px_RTS            0x20         // Peripheral I/O Select for RTS.
     65          #define HAL_UART_Px_CTS            0x10         // Peripheral I/O Select for CTS.
     66          #define HAL_UART_Px_RX_TX          0xc0         // Peripheral I/O Select for Rx/Tx.
     67          #define HAL_UART_PRIPO             0x40
                         ^
Warning[Pe047]: incompatible redefinition of macro "HAL_UART_PRIPO" (declared
          at line 491 of
          "E:\wise-house\Projects\zstack\Samples\MyGenericApp\CC2530DB\..\..\..
          \..\..\Components\hal\target\CC2530EB\hal_board_cfg.h")
     68          #endif
     69          
     70          
     71          static void UartInit(void)
     72          {
     73          	// Set P2 priority - USART0 over USART1 if both are defined.
     74          	P2DIR &= ~P2DIR_PRIPO;
     75          	P2DIR |= HAL_UART_PRIPO;
     76          
     77          #if (DEBUG_PORT == 0)
     78          	PERCFG &= ~HAL_UART_PERCFG_BIT;    // Set UART0 I/O location to P0.
     79          #else
     80          	PERCFG |= HAL_UART_PERCFG_BIT;     // Set UART1 I/O location to P1.
     81          //	PERCFG &= ~HAL_UART_PERCFG_BIT;    // Set UART1 I/O location to P0.
     82          #endif
     83          //	PxSEL &=~0x3c;
     84          	PxSEL  |= HAL_UART_Px_RX_TX;       // Enable Tx and Rx on P1.
     85          	ADCCFG &= ~HAL_UART_Px_RX_TX;      // Make sure ADC doesnt use this.
     86          	UxCSR = CSR_MODE;                  // Mode is UART Mode.
     87          	UxUCR = UCR_FLUSH;                 // Flush it.
     88          	UTXxIF = 0;
     89          	//UxGCR |= 11;				       
     90          }

   \                                 In  segment BANKED_CODE, align 1, keep-with-next
     91          void UartOpen(halUARTCfg_t *config)
   \                     UartOpen:
     92          {
   \   000000   C082         PUSH    DPL
   \   000002   C083         PUSH    DPH
   \   000004                ; Saved register size: 2
   \   000004                ; Auto size: 0
     93          	UartInit();
   \   000004   53FF3F       ANL     0xff,#0x3f
   \   000007   43FF40       ORL     0xff,#0x40
   \   00000A   43F102       ORL     0xf1,#0x2
   \   00000D   43F4C0       ORL     0xf4,#0xc0
   \   000010   53F23F       ANL     0xf2,#0x3f
   \   000013   75F880       MOV     0xf8,#-0x80
   \   000016   75FB80       MOV     0xfb,#-0x80
   \   000019   C2EA         CLR     0xe8.2
     94          	//isrCfg.uartCB = config->callBackFunc;
     95          	// Only supporting subset of baudrate for code size - other is possible.
     96          	//HAL_UART_ASSERT((config->baudRate == HAL_UART_BR_9600) ||
     97          	//                (config->baudRate == HAL_UART_BR_19200) ||
     98          	//                (config->baudRate == HAL_UART_BR_38400) ||
     99          	//                (config->baudRate == HAL_UART_BR_57600) ||
    100          	//                (config->baudRate == HAL_UART_BR_115200));
    101          	//
    102          	if (config->baudRate == HAL_UART_BR_57600 ||
    103          			config->baudRate == HAL_UART_BR_115200)
   \   00001B   8A82         MOV     DPL,R2
   \   00001D   8B83         MOV     DPH,R3
   \   00001F   A3           INC     DPTR
   \   000020   E0           MOVX    A,@DPTR
   \   000021   6403         XRL     A,#0x3
   \   000023   600A         JZ      ??UartOpen_0
   \   000025   8A82         MOV     DPL,R2
   \   000027   8B83         MOV     DPH,R3
   \   000029   A3           INC     DPTR
   \   00002A   E0           MOVX    A,@DPTR
   \   00002B   6404         XRL     A,#0x4
   \   00002D   7005         JNZ     ??UartOpen_1
    104          	{
    105          		UxBAUD = 216;
   \                     ??UartOpen_0:
   \   00002F   75FAD8       MOV     0xfa,#-0x28
   \   000032   8003         SJMP    ??UartOpen_2
    106          	}
    107          	else
    108          	{
    109          		UxBAUD = 59;
   \                     ??UartOpen_1:
   \   000034   75FA3B       MOV     0xfa,#0x3b
    110          	}
    111          	
    112          	switch (config->baudRate)
   \                     ??UartOpen_2:
   \   000037   8A82         MOV     DPL,R2
   \   000039   8B83         MOV     DPH,R3
   \   00003B   A3           INC     DPTR
   \   00003C   E0           MOVX    A,@DPTR
   \   00003D   600B         JZ      ??UartOpen_3
   \   00003F   14           DEC     A
   \   000040   600D         JZ      ??UartOpen_4
   \   000042   14           DEC     A
   \   000043   600F         JZ      ??UartOpen_5
   \   000045   14           DEC     A
   \   000046   600C         JZ      ??UartOpen_5
   \   000048   800F         SJMP    ??UartOpen_6
    113          	{
    114          		case HAL_UART_BR_9600:
    115          			UxGCR = 8;
   \                     ??UartOpen_3:
   \   00004A   75FC08       MOV     0xfc,#0x8
    116          			break;
   \   00004D   800D         SJMP    ??UartOpen_7
    117          		case HAL_UART_BR_19200:
    118          			UxGCR = 9;
   \                     ??UartOpen_4:
   \   00004F   75FC09       MOV     0xfc,#0x9
    119          			break;
   \   000052   8008         SJMP    ??UartOpen_7
    120          		case HAL_UART_BR_38400:
    121          		case HAL_UART_BR_57600:
    122          			UxGCR = 10;
   \                     ??UartOpen_5:
   \   000054   75FC0A       MOV     0xfc,#0xa
    123          			break;
   \   000057   8003         SJMP    ??UartOpen_7
    124          		default:
    125          			UxGCR = 11;
   \                     ??UartOpen_6:
   \   000059   75FC0B       MOV     0xfc,#0xb
    126          			break;
    127          	}
    128          
    129          	// 8 bits/char; no parity; 1 stop bit; stop bit hi.
    130          	if (config->flowControl)
   \                     ??UartOpen_7:
   \   00005C   8A82         MOV     DPL,R2
   \   00005E   8B83         MOV     DPH,R3
   \   000060   A3           INC     DPTR
   \   000061   A3           INC     DPTR
   \   000062   E0           MOVX    A,@DPTR
   \   000063   6008         JZ      ??UartOpen_8
    131          	{
    132          		UxUCR = UCR_FLOW | UCR_STOP;
   \   000065   75FB42       MOV     0xfb,#0x42
    133          		PxSEL |= HAL_UART_Px_RTS | HAL_UART_Px_CTS;
   \   000068   43F430       ORL     0xf4,#0x30
   \   00006B   8003         SJMP    ??UartOpen_9
    134          	}
    135          	else
    136          	{
    137          		UxUCR |= UCR_STOP;
   \                     ??UartOpen_8:
   \   00006D   43FB02       ORL     0xfb,#0x2
    138          	}
    139          
    140          	UxCSR |= CSR_RE;
   \                     ??UartOpen_9:
   \   000070   D2FE         SETB    0xf8.6
    141          	URXxIE = 1;
   \   000072   D2AB         SETB    0xa8.3
    142          	//UTXxIF = 1;  // Prime the ISR pump.
    143          }
   \   000074                REQUIRE ?Subroutine0
   \   000074                REQUIRE U1BAUD
   \   000074                REQUIRE U1GCR
   \   000074                REQUIRE U1UCR
   \   000074                REQUIRE P1SEL
   \   000074                REQUIRE _A_U1CSR
   \   000074                REQUIRE _A_IEN0
   \   000074                REQUIRE P2DIR
   \   000074                REQUIRE PERCFG
   \   000074                REQUIRE ADCCFG
   \   000074                REQUIRE _A_IRCON2
   \   000074                ; // Fall through to label ?Subroutine0

   \                                 In  segment BANKED_CODE, align 1, keep-with-next
   \                     ?Subroutine0:
   \   000000   D083         POP     DPH
   \   000002   D082         POP     DPL
   \   000004   02....       LJMP    ?BRET

   \                                 In  segment BANKED_CODE, align 1, keep-with-next
    144          uint16 UartSend(uint8 *buf, uint16 len)
   \                     UartSend:
    145          {
   \   000000   74F7         MOV     A,#-0x9
   \   000002   12....       LCALL   ?BANKED_ENTER_XDATA
   \   000005                ; Saved register size: 9
   \   000005                ; Auto size: 0
    146          	uint16 cnt;
    147                  uint8 res = 0;
                               ^
Warning[Pe550]: variable "res" was set but never used
    148          
    149          //hile(UxCSR&0x01 != 0);
    150          	for (cnt = 0; cnt < len; cnt++)
   \   000005   7800         MOV     R0,#0x0
   \   000007   7900         MOV     R1,#0x0
   \   000009   801A         SJMP    ??UartSend_0
    151          	{
    152          		UxDBUF = *buf++;
   \                     ??UartSend_1:
   \   00000B   8A82         MOV     DPL,R2
   \   00000D   8B83         MOV     DPH,R3
   \   00000F   E0           MOVX    A,@DPTR
   \   000010   F5F9         MOV     0xf9,A
   \   000012   A3           INC     DPTR
   \   000013   AA82         MOV     R2,DPL
   \   000015   AB83         MOV     R3,DPH
    153                          res = *buf;
    154             	    while(UTXxIF == 0);
   \                     ??UartSend_2:
   \   000017   A2EA         MOV     C,0xe8.2
   \   000019   50FC         JNC     ??UartSend_2
    155                		UTXxIF = 0;		
   \   00001B   C2EA         CLR     0xe8.2
    156          	}
   \   00001D   E8           MOV     A,R0
   \   00001E   2401         ADD     A,#0x1
   \   000020   08           INC     R0
   \   000021   E9           MOV     A,R1
   \   000022   3400         ADDC    A,#0x0
   \   000024   F9           MOV     R1,A
   \                     ??UartSend_0:
   \   000025   C3           CLR     C
   \   000026   E8           MOV     A,R0
   \   000027   9C           SUBB    A,R4
   \   000028   E9           MOV     A,R1
   \   000029   9D           SUBB    A,R5
   \   00002A   40DF         JC      ??UartSend_1
    157          
    158          
    159          	return cnt;
   \   00002C   E8           MOV     A,R0
   \   00002D   FA           MOV     R2,A
   \   00002E   E9           MOV     A,R1
   \   00002F   FB           MOV     R3,A
   \   000030                REQUIRE ?Subroutine1
   \   000030                REQUIRE U1DBUF
   \   000030                REQUIRE _A_IRCON2
   \   000030                ; // Fall through to label ?Subroutine1
    160          }

   \                                 In  segment BANKED_CODE, align 1, keep-with-next
   \                     ?Subroutine1:
   \   000000   7F01         MOV     R7,#0x1
   \   000002   02....       LJMP    ?BANKED_LEAVE_XDATA

   \                                 In  segment BANKED_CODE, align 1, keep-with-next
    161          uint16 UartSend2(uint8 *buf, uint16 len)
   \                     UartSend2:
    162          {
   \   000000   C082         PUSH    DPL
   \   000002   C083         PUSH    DPH
   \   000004                ; Saved register size: 2
   \   000004                ; Auto size: 0
    163          	HalUARTWrite(DEBUG_PORT,buf,len);
   \   000004                ; Setup parameters for call to function HalUARTWrite
   \   000004   7901         MOV     R1,#0x1
   \   000006   12....       LCALL   ??HalUARTWrite?relay
    164          }
                 ^
Warning[Pe940]: missing return statement at end of non-void function
          "UartSend2"
   \   000009   80..         SJMP    ?Subroutine0
    165          
    166          #endif
    167          #if 1

   \                                 In  segment XDATA_Z, align 1, keep-with-next
    168          XDATA static char strTemp_gen[70] = {0};//用于调试输出
   \                     strTemp_gen:
   \   000000                DS 70
   \   000046                REQUIRE __INIT_XDATA_Z

   \                                 In  segment BANKED_CODE, align 1, keep-with-next
    169          char ChDebugHex(const char *format,unsigned int hex)
   \                     ChDebugHex:
    170          {
   \   000000   74F0         MOV     A,#-0x10
   \   000002   12....       LCALL   ?BANKED_ENTER_XDATA
   \   000005                ; Saved register size: 16
   \   000005                ; Auto size: 0
   \   000005   8A..         MOV     ?V0 + 0,R2
   \   000007   8B..         MOV     ?V0 + 1,R3
   \   000009   8C..         MOV     ?V0 + 2,R4
   \   00000B   8D..         MOV     ?V0 + 3,R5
    171          	int i;
    172          	int indexDest = 0;
   \   00000D   7E00         MOV     R6,#0x0
   \   00000F   7F00         MOV     R7,#0x0
    173          	char err=0;
    174          	int len = strlen(format);
                 	          ^
Warning[Pe223]: function "strlen" declared implicitly
   \   000011                ; Setup parameters for call to function strlen
   \   000011   12....       LCALL   ??strlen?relay
   \   000014   8A..         MOV     ?V0 + 4,R2
   \   000016   8B..         MOV     ?V0 + 5,R3
    175          	//strcpy(strTemp_gen,format);
    176          	for(i=0;i<len;i++)
   \   000018   7A00         MOV     R2,#0x0
   \   00001A   7B00         MOV     R3,#0x0
   \   00001C   8010         SJMP    ??CrossCallReturnLabel_10
    177          		if(format[i] == '%')
    178          		{
    179          			if(format[i+1] == 'x')// %x
    180          			{
    181          				strTemp_gen[indexDest++] = '0';
    182          				strTemp_gen[indexDest++] = 'x';
    183          				{
    184          					int k;
    185          					char isNotZeroStart=0;
    186          					for(k=7;k>=0;k--)
    187          					{
    188          						unsigned char c = ((hex>>(4*k))&0x0f);
    189          						if(c == 0 && ! isNotZeroStart && k != 0)
    190          							continue;
    191          						isNotZeroStart = 1;
    192          						if(c<10)
    193          							strTemp_gen[indexDest++] = c + '0';
    194          						else
    195          							strTemp_gen[indexDest++] = c + 'A' - 10;
    196          					}
    197          				}
    198          				i+=2-1;
    199          			}
    200          			/*
    201          			else if((format[i+1] >= '1' && format[i+1] <= '9') 
    202          				&& format[i+2] == 'x') // %4x
    203          			{
    204          				{
    205          					char num = format[i+1] - '0';
    206          					int k;
    207          					strTemp_gen[indexDest++] = '0';
    208          					strTemp_gen[indexDest++] = 'x';
    209          					for(k=num-1;k>=0;k--)
    210          					{
    211          						char c = ((hex>>(4*k))&0x0f);
    212          
    213          						if(c == 0)
    214          							strTemp_gen[indexDest++] = ' ';
    215          						else if(c<10)
    216          							strTemp_gen[indexDest++] = c + '0';
    217          						else
    218          							strTemp_gen[indexDest++] = c + 'A' - 10;
    219          					}
    220          				}
    221          				i+=3-1;
    222          				
    223          			}
    224          			*/
    225          			else if(format[i+1] == '0'
    226          				&&(format[i+2] >= '1' && format[i+2] <= '9') 
    227          				&& format[i+3] == 'x') // %04x
    228          			{
    229          				{
    230          					char num = format[i+2] - '0';
    231          					int k;
    232          					strTemp_gen[indexDest++] = '0';
    233          					strTemp_gen[indexDest++] = 'x';
    234          					for(k=num-1;k>=0;k--)
    235          					{
    236          						char c = ((hex>>(4*k))&0x0f);
    237          
    238          						if(c<10)
    239          							strTemp_gen[indexDest++] = c + '0';
    240          						else
    241          							strTemp_gen[indexDest++] = c + 'A' - 10;
    242          					}
    243          				}
    244          				i+=4-1;
    245          				
    246          			}
    247          			else
    248          				strTemp_gen[indexDest++] = format[i];
   \                     ??ChDebugHex_0:
   \   00001E   12....       LCALL   ?Subroutine13 & 0xFFFF
   \                     ??CrossCallReturnLabel_27:
   \   000021   C0E0         PUSH    A
   \   000023   12....       LCALL   ?Subroutine16 & 0xFFFF
   \                     ??CrossCallReturnLabel_33:
   \   000026   D0E0         POP     A
   \   000028   12....       LCALL   ?Subroutine5 & 0xFFFF
   \                     ??CrossCallReturnLabel_4:
   \   00002B   12....       LCALL   ?Subroutine6 & 0xFFFF
   \                     ??CrossCallReturnLabel_10:
   \   00002E   C3           CLR     C
   \   00002F   EA           MOV     A,R2
   \   000030   95..         SUBB    A,?V0 + 4
   \   000032   EB           MOV     A,R3
   \   000033   95..         SUBB    A,?V0 + 5
   \   000035   A2D2         MOV     C,0xD0 /* PSW */.2
   \   000037   65D0         XRL     A,PSW
   \   000039   33           RLC     A
   \   00003A   4003         JC      $+5
   \   00003C   02....       LJMP    ??ChDebugHex_1 & 0xFFFF
   \   00003F   12....       LCALL   ?Subroutine13 & 0xFFFF
   \                     ??CrossCallReturnLabel_28:
   \   000042   6425         XRL     A,#0x25
   \   000044   70D8         JNZ     ??ChDebugHex_0
   \   000046   A3           INC     DPTR
   \   000047   E0           MOVX    A,@DPTR
   \   000048   6478         XRL     A,#0x78
   \   00004A   705E         JNZ     ??ChDebugHex_2
   \   00004C   12....       LCALL   ?Subroutine4 & 0xFFFF
   \                     ??CrossCallReturnLabel_2:
   \   00004F   7900         MOV     R1,#0x0
   \   000051   7C07         MOV     R4,#0x7
   \   000053   7D00         MOV     R5,#0x0
   \                     ??ChDebugHex_3:
   \   000055   85....       MOV     ?V0 + 6,?V0 + 2
   \   000058   85....       MOV     ?V0 + 7,?V0 + 3
   \   00005B   EC           MOV     A,R4
   \   00005C   33           RLC     A
   \   00005D   33           RLC     A
   \   00005E   54FC         ANL     A,#0xfc
   \   000060   78..         MOV     R0,#?V0 + 6
   \   000062   12....       LCALL   ?US_SHR
   \   000065   E5..         MOV     A,?V0 + 6
   \   000067   540F         ANL     A,#0xf
   \   000069   F8           MOV     R0,A
   \   00006A   7009         JNZ     ??ChDebugHex_4
   \   00006C   E9           MOV     A,R1
   \   00006D   A2E0         MOV     C,0xE0 /* A   */.0
   \   00006F   4004         JC      ??ChDebugHex_4
   \   000071   EC           MOV     A,R4
   \   000072   4D           ORL     A,R5
   \   000073   7019         JNZ     ??CrossCallReturnLabel_5
   \                     ??ChDebugHex_4:
   \   000075   7901         MOV     R1,#0x1
   \   000077   E8           MOV     A,R0
   \   000078   C3           CLR     C
   \   000079   940A         SUBB    A,#0xa
   \   00007B   5004         JNC     ??ChDebugHex_5
   \   00007D   7430         MOV     A,#0x30
   \   00007F   8002         SJMP    ??ChDebugHex_6
   \                     ??ChDebugHex_5:
   \   000081   7437         MOV     A,#0x37
   \                     ??ChDebugHex_6:
   \   000083   28           ADD     A,R0
   \   000084   C0E0         PUSH    A
   \   000086   12....       LCALL   ?Subroutine16 & 0xFFFF
   \                     ??CrossCallReturnLabel_34:
   \   000089   D0E0         POP     A
   \   00008B   12....       LCALL   ?Subroutine5 & 0xFFFF
   \                     ??CrossCallReturnLabel_5:
   \   00008E   EC           MOV     A,R4
   \   00008F   24FF         ADD     A,#-0x1
   \   000091   1C           DEC     R4
   \   000092   ED           MOV     A,R5
   \   000093   34FF         ADDC    A,#-0x1
   \   000095   FD           MOV     R5,A
   \   000096   C3           CLR     C
   \   000097   9400         SUBB    A,#0x0
   \   000099   A2D2         MOV     C,0xD0 /* PSW */.2
   \   00009B   65D0         XRL     A,PSW
   \   00009D   33           RLC     A
   \   00009E   50B5         JNC     ??ChDebugHex_3
   \   0000A0   EA           MOV     A,R2
   \   0000A1   2401         ADD     A,#0x1
   \                     ??ChDebugHex_7:
   \   0000A3   0A           INC     R2
   \   0000A4   EB           MOV     A,R3
   \   0000A5   3400         ADDC    A,#0x0
   \   0000A7   FB           MOV     R3,A
   \   0000A8   8081         SJMP    ??CrossCallReturnLabel_4
   \                     ??ChDebugHex_2:
   \   0000AA   12....       LCALL   ?Subroutine14 & 0xFFFF
   \                     ??CrossCallReturnLabel_29:
   \   0000AD   E0           MOVX    A,@DPTR
   \   0000AE   6430         XRL     A,#0x30
   \   0000B0   6003         JZ      $+5
   \   0000B2   02....       LJMP    ??ChDebugHex_0 & 0xFFFF
   \   0000B5   12....       LCALL   ?Subroutine9 & 0xFFFF
   \                     ??CrossCallReturnLabel_19:
   \   0000B8   24CF         ADD     A,#-0x31
   \   0000BA   C3           CLR     C
   \   0000BB   9409         SUBB    A,#0x9
   \   0000BD   4003         JC      $+5
   \   0000BF   02....       LJMP    ??ChDebugHex_0 & 0xFFFF
   \   0000C2   12....       LCALL   ?Subroutine14 & 0xFFFF
   \                     ??CrossCallReturnLabel_30:
   \   0000C5   A3           INC     DPTR
   \   0000C6   A3           INC     DPTR
   \   0000C7   E0           MOVX    A,@DPTR
   \   0000C8   6478         XRL     A,#0x78
   \   0000CA   6003         JZ      $+5
   \   0000CC   02....       LJMP    ??ChDebugHex_0 & 0xFFFF
   \   0000CF   12....       LCALL   ?Subroutine9 & 0xFFFF
   \                     ??CrossCallReturnLabel_20:
   \   0000D2   24D0         ADD     A,#-0x30
   \   0000D4   F5..         MOV     ?V0 + 6,A
   \   0000D6   12....       LCALL   ?Subroutine4 & 0xFFFF
   \                     ??CrossCallReturnLabel_3:
   \   0000D9   E5..         MOV     A,?V0 + 6
   \   0000DB   24FF         ADD     A,#-0x1
   \   0000DD   FC           MOV     R4,A
   \   0000DE   E4           CLR     A
   \   0000DF   8012         SJMP    ??ChDebugHex_8
   \                     ??ChDebugHex_9:
   \   0000E1   7437         MOV     A,#0x37
   \                     ??ChDebugHex_10:
   \   0000E3   28           ADD     A,R0
   \   0000E4   C0E0         PUSH    A
   \   0000E6   12....       LCALL   ?Subroutine16 & 0xFFFF
   \                     ??CrossCallReturnLabel_35:
   \   0000E9   D0E0         POP     A
   \   0000EB   12....       LCALL   ?Subroutine5 & 0xFFFF
   \                     ??CrossCallReturnLabel_6:
   \   0000EE   EC           MOV     A,R4
   \   0000EF   24FF         ADD     A,#-0x1
   \   0000F1   1C           DEC     R4
   \   0000F2   ED           MOV     A,R5
   \                     ??ChDebugHex_8:
   \   0000F3   34FF         ADDC    A,#-0x1
   \   0000F5   FD           MOV     R5,A
   \   0000F6   C3           CLR     C
   \   0000F7   ED           MOV     A,R5
   \   0000F8   9400         SUBB    A,#0x0
   \   0000FA   A2D2         MOV     C,0xD0 /* PSW */.2
   \   0000FC   65D0         XRL     A,PSW
   \   0000FE   33           RLC     A
   \   0000FF   401E         JC      ??ChDebugHex_11
   \   000101   85....       MOV     ?V0 + 6,?V0 + 2
   \   000104   85....       MOV     ?V0 + 7,?V0 + 3
   \   000107   EC           MOV     A,R4
   \   000108   33           RLC     A
   \   000109   33           RLC     A
   \   00010A   54FC         ANL     A,#0xfc
   \   00010C   78..         MOV     R0,#?V0 + 6
   \   00010E   12....       LCALL   ?US_SHR
   \   000111   E5..         MOV     A,?V0 + 6
   \   000113   540F         ANL     A,#0xf
   \   000115   F8           MOV     R0,A
   \   000116   C3           CLR     C
   \   000117   940A         SUBB    A,#0xa
   \   000119   50C6         JNC     ??ChDebugHex_9
   \   00011B   7430         MOV     A,#0x30
   \   00011D   80C4         SJMP    ??ChDebugHex_10
   \                     ??ChDebugHex_11:
   \   00011F   EA           MOV     A,R2
   \   000120   2403         ADD     A,#0x3
   \   000122   0A           INC     R2
   \   000123   0A           INC     R2
   \   000124   02....       LJMP    ??ChDebugHex_7 & 0xFFFF
    249          
    250          		}
    251          		else
    252          			strTemp_gen[indexDest++] = format[i];
    253          	//strTemp_gen[indexDest++] = 0;
    254          	UartSend(strTemp_gen,indexDest);
                 	         ^
Warning[Pe167]: argument of type "char *" is incompatible with parameter of
          type "unsigned char *"
   \                     ??ChDebugHex_1:
   \   000127                ; Setup parameters for call to function UartSend
   \   000127   EE           MOV     A,R6
   \   000128   FC           MOV     R4,A
   \   000129   EF           MOV     A,R7
   \   00012A   FD           MOV     R5,A
   \   00012B   12....       LCALL   ?Subroutine18 & 0xFFFF
    255          	return err;
   \                     ??CrossCallReturnLabel_59:
   \   00012E   7F08         MOV     R7,#0x8
   \   000130   02....       LJMP    ?BANKED_LEAVE_XDATA
    256          }

   \                                 In  segment BANKED_CODE, align 1, keep-with-next
   \                     ?Subroutine14:
   \   000000   12....       LCALL   ?Subroutine24 & 0xFFFF
   \                     ??CrossCallReturnLabel_54:
   \   000003   22           RET

   \                                 In  segment BANKED_CODE, align 1, keep-with-next
   \                     ?Subroutine24:
   \   000000   12....       LCALL   ?Subroutine26 & 0xFFFF
   \                     ??CrossCallReturnLabel_58:
   \   000003   A3           INC     DPTR
   \   000004   22           RET

   \                                 In  segment BANKED_CODE, align 1, keep-with-next
   \                     ?Subroutine13:
   \   000000   12....       LCALL   ?Subroutine26 & 0xFFFF
   \                     ??CrossCallReturnLabel_57:
   \   000003   E0           MOVX    A,@DPTR
   \   000004   22           RET

   \                                 In  segment BANKED_CODE, align 1, keep-with-next
   \                     ?Subroutine26:
   \   000000   E5..         MOV     A,?V0 + 0
   \   000002   2A           ADD     A,R2
   \   000003   F582         MOV     DPL,A
   \   000005   E5..         MOV     A,?V0 + 1
   \   000007   3B           ADDC    A,R3
   \   000008   F583         MOV     DPH,A
   \   00000A   22           RET

   \                                 In  segment BANKED_CODE, align 1, keep-with-next
   \                     ?Subroutine9:
   \   000000   12....       LCALL   ?Subroutine24 & 0xFFFF
   \                     ??CrossCallReturnLabel_53:
   \   000003   A3           INC     DPTR
   \   000004   E0           MOVX    A,@DPTR
   \   000005   22           RET

   \                                 In  segment BANKED_CODE, align 1, keep-with-next
   \                     ?Subroutine4:
   \   000000   12....       LCALL   ?Subroutine22 & 0xFFFF
   \                     ??CrossCallReturnLabel_47:
   \   000003   7430         MOV     A,#0x30
   \   000005   12....       LCALL   ?Subroutine23 & 0xFFFF
   \                     ??CrossCallReturnLabel_50:
   \   000008   12....       LCALL   ?Subroutine22 & 0xFFFF
   \                     ??CrossCallReturnLabel_48:
   \   00000B   7478         MOV     A,#0x78
   \   00000D   12....       LCALL   ?Subroutine23 & 0xFFFF
   \                     ??CrossCallReturnLabel_51:
   \   000010   22           RET

   \                                 In  segment BANKED_CODE, align 1, keep-with-next
   \                     ?Subroutine18:
   \   000000   7A..         MOV     R2,#strTemp_gen & 0xff
   \   000002   7B..         MOV     R3,#(strTemp_gen >> 8) & 0xff
   \   000004                REQUIRE ??Subroutine27_0
   \   000004                ; // Fall through to label ??Subroutine27_0

   \                                 In  segment BANKED_CODE, align 1, keep-with-next
   \                     ??Subroutine27_0:
   \   000000   12....       LCALL   ??UartSend?relay
   \   000003   7900         MOV     R1,#0x0
   \   000005   22           RET

   \                                 In  segment BANKED_CODE, align 1, keep-with-next
   \                     ?Subroutine16:
   \   000000   12....       LCALL   ?Subroutine22 & 0xFFFF
   \                     ??CrossCallReturnLabel_49:
   \   000003   22           RET

   \                                 In  segment BANKED_CODE, align 1, keep-with-next
   \                     ?Subroutine22:
   \   000000   74..         MOV     A,#strTemp_gen & 0xff
   \   000002   2E           ADD     A,R6
   \   000003   F582         MOV     DPL,A
   \   000005   74..         MOV     A,#(strTemp_gen >> 8) & 0xff
   \   000007   3F           ADDC    A,R7
   \   000008   F583         MOV     DPH,A
   \   00000A   22           RET

   \                                 In  segment BANKED_CODE, align 1, keep-with-next
   \                     ?Subroutine6:
   \   000000   EA           MOV     A,R2
   \   000001   2401         ADD     A,#0x1
   \   000003   0A           INC     R2
   \   000004   EB           MOV     A,R3
   \   000005   3400         ADDC    A,#0x0
   \   000007   FB           MOV     R3,A
   \   000008   22           RET

   \                                 In  segment BANKED_CODE, align 1, keep-with-next
   \                     ?Subroutine5:
   \   000000   12....       LCALL   ?Subroutine23 & 0xFFFF
   \                     ??CrossCallReturnLabel_52:
   \   000003   22           RET

   \                                 In  segment BANKED_CODE, align 1, keep-with-next
   \                     ?Subroutine23:
   \   000000   F0           MOVX    @DPTR,A
   \   000001   EE           MOV     A,R6
   \   000002   2401         ADD     A,#0x1
   \   000004   0E           INC     R6
   \   000005   EF           MOV     A,R7
   \   000006   3400         ADDC    A,#0x0
   \   000008   FF           MOV     R7,A
   \   000009   22           RET

   \                                 In  segment BANKED_CODE, align 1, keep-with-next
    257          char ChDebugSigned(const char *format,int decimal)//有符号十进制
   \                     ChDebugSigned:
    258          {
   \   000000   74E8         MOV     A,#-0x18
   \   000002   12....       LCALL   ?BANKED_ENTER_XDATA
   \   000005                ; Saved register size: 24
   \   000005                ; Auto size: 2
   \   000005   74FE         MOV     A,#-0x2
   \   000007   12....       LCALL   ?ALLOC_XSTACK8
   \   00000A   8A..         MOV     ?V0 + 14,R2
   \   00000C   8B..         MOV     ?V0 + 15,R3
   \   00000E   8C..         MOV     ?V0 + 12,R4
   \   000010   8D..         MOV     ?V0 + 13,R5
    259          	int i;
    260          	int indexDest = 0;
   \   000012   7E00         MOV     R6,#0x0
   \   000014   7F00         MOV     R7,#0x0
    261          	char err=0;
    262          	int len = strlen(format);
                 	          ^
Warning[Pe223]: function "strlen" declared implicitly
   \   000016                ; Setup parameters for call to function strlen
   \   000016   12....       LCALL   ?Subroutine7 & 0xFFFF
    263          	//strcpy(strTemp_gen,format);
    264          	for(i=0;i<len;i++)
   \                     ??CrossCallReturnLabel_15:
   \   000019   8010         SJMP    ??CrossCallReturnLabel_11
    265          		if(format[i] == '%')
    266          		{
    267          			if(format[i+1] == 'd')// %d
    268          			{
    269          				{
    270          					int l = i;
    271          					int r;
    272          					long value = decimal;
    273          					char c;
    274          					if(value < 0)
    275          					{
    276          						strTemp_gen[indexDest++] = '-';
    277          						value = -value;
    278          						l++;
    279          					}
    280          					do
    281          					{
    282          						c = value%10;
    283          						strTemp_gen[indexDest++] = c + '0';
    284          						value /= 10;
    285          					}while(value != 0);
    286          					////swap the string
    287          					r = indexDest-1;
    288          					while(l < r)
    289          					{
    290          						c = strTemp_gen[l];
    291          						strTemp_gen[l] = strTemp_gen[r];
    292          						strTemp_gen[r] = c;
    293          						l++;
    294          						r--;
    295          					}
    296          					
    297          				}
    298          			i+=2-1;
    299          			}
    300          			else
    301          				strTemp_gen[indexDest++] = format[i];
   \                     ??ChDebugSigned_0:
   \   00001B   12....       LCALL   ?Subroutine15 & 0xFFFF
   \                     ??CrossCallReturnLabel_31:
   \   00001E   C0E0         PUSH    A
   \   000020   12....       LCALL   ?Subroutine16 & 0xFFFF
   \                     ??CrossCallReturnLabel_36:
   \   000023   D0E0         POP     A
   \   000025   12....       LCALL   ?Subroutine5 & 0xFFFF
   \                     ??CrossCallReturnLabel_7:
   \   000028   12....       LCALL   ?Subroutine6 & 0xFFFF
   \                     ??CrossCallReturnLabel_11:
   \   00002B   12....       LCALL   ?Subroutine8 & 0xFFFF
   \                     ??CrossCallReturnLabel_17:
   \   00002E   4003         JC      $+5
   \   000030   02....       LJMP    ??ChDebugSigned_1 & 0xFFFF
   \   000033   12....       LCALL   ?Subroutine10 & 0xFFFF
   \                     ??CrossCallReturnLabel_21:
   \   000036   70E3         JNZ     ??ChDebugSigned_0
   \   000038   E5..         MOV     A,?V0 + 14
   \   00003A   2A           ADD     A,R2
   \   00003B   E5..         MOV     A,?V0 + 15
   \   00003D   3B           ADDC    A,R3
   \   00003E   A3           INC     DPTR
   \   00003F   E0           MOVX    A,@DPTR
   \   000040   6464         XRL     A,#0x64
   \   000042   70D7         JNZ     ??ChDebugSigned_0
   \   000044   EA           MOV     A,R2
   \   000045   FC           MOV     R4,A
   \   000046   EB           MOV     A,R3
   \   000047   FD           MOV     R5,A
   \   000048   85....       MOV     ?V0 + 4,?V0 + 12
   \   00004B   E5..         MOV     A,?V0 + 13
   \   00004D   F5..         MOV     ?V0 + 5,A
   \   00004F   33           RLC     A
   \   000050   95E0         SUBB    A,0xE0 /* A   */
   \   000052   F5..         MOV     ?V0 + 6,A
   \   000054   F5..         MOV     ?V0 + 7,A
   \   000056   90....       MOV     DPTR,#__Constant_0
   \   000059   78..         MOV     R0,#?V0 + 4
   \   00005B   12....       LCALL   ?SL_GE_X
   \   00005E   4015         JC      ??ChDebugSigned_2
   \   000060   12....       LCALL   ?Subroutine16 & 0xFFFF
   \                     ??CrossCallReturnLabel_37:
   \   000063   742D         MOV     A,#0x2d
   \   000065   12....       LCALL   ?Subroutine5 & 0xFFFF
   \                     ??CrossCallReturnLabel_8:
   \   000068   78..         MOV     R0,#?V0 + 4
   \   00006A   12....       LCALL   ?L_NEG
   \   00006D   EC           MOV     A,R4
   \   00006E   2401         ADD     A,#0x1
   \   000070   0C           INC     R4
   \   000071   ED           MOV     A,R5
   \   000072   3400         ADDC    A,#0x0
   \   000074   FD           MOV     R5,A
   \                     ??ChDebugSigned_2:
   \   000075   85....       MOV     ?V0 + 0,?V0 + 4
   \   000078   85....       MOV     ?V0 + 1,?V0 + 5
   \   00007B   85....       MOV     ?V0 + 2,?V0 + 6
   \   00007E   85....       MOV     ?V0 + 3,?V0 + 7
   \   000081   90....       MOV     DPTR,#__Constant_a
   \   000084   78..         MOV     R0,#?V0 + 8
   \   000086   12....       LCALL   ?L_MOV_X
   \   000089   78..         MOV     R0,#?V0 + 0
   \   00008B   79..         MOV     R1,#?V0 + 8
   \   00008D   12....       LCALL   ?L_DIV_MOD
   \   000090   E5..         MOV     A,?V0 + 8
   \   000092   2430         ADD     A,#0x30
   \   000094   C0E0         PUSH    A
   \   000096   12....       LCALL   ?Subroutine16 & 0xFFFF
   \                     ??CrossCallReturnLabel_38:
   \   000099   D0E0         POP     A
   \   00009B   12....       LCALL   ?Subroutine5 & 0xFFFF
   \                     ??CrossCallReturnLabel_9:
   \   00009E   90....       MOV     DPTR,#__Constant_a
   \   0000A1   78..         MOV     R0,#?V0 + 0
   \   0000A3   12....       LCALL   ?L_MOV_X
   \   0000A6   78..         MOV     R0,#?V0 + 4
   \   0000A8   79..         MOV     R1,#?V0 + 0
   \   0000AA   12....       LCALL   ?L_DIV_MOD
   \   0000AD   E5..         MOV     A,?V0 + 4
   \   0000AF   45..         ORL     A,?V0 + 5
   \   0000B1   45..         ORL     A,?V0 + 6
   \   0000B3   45..         ORL     A,?V0 + 7
   \   0000B5   70BE         JNZ     ??ChDebugSigned_2
   \   0000B7   EE           MOV     A,R6
   \   0000B8   24FF         ADD     A,#-0x1
   \   0000BA   F8           MOV     R0,A
   \   0000BB   EF           MOV     A,R7
   \   0000BC   8003         SJMP    ??CrossCallReturnLabel_0
   \                     ??ChDebugSigned_3:
   \   0000BE   12....       LCALL   ?Subroutine3 & 0xFFFF
   \                     ??CrossCallReturnLabel_0:
   \   0000C1   12....       LCALL   ?Subroutine17 & 0xFFFF
   \                     ??CrossCallReturnLabel_39:
   \   0000C4   40F8         JC      ??ChDebugSigned_3
   \   0000C6   12....       LCALL   ?Subroutine6 & 0xFFFF
    302          		}
   \                     ??CrossCallReturnLabel_12:
   \   0000C9   02....       LJMP    ??CrossCallReturnLabel_7 & 0xFFFF
    303          		else
    304          			strTemp_gen[indexDest++] = format[i];
    305          	//strTemp_gen[indexDest++] = 0;
    306          	UartSend(strTemp_gen,indexDest);
                 	         ^
Warning[Pe167]: argument of type "char *" is incompatible with parameter of
          type "unsigned char *"
   \                     ??ChDebugSigned_1:
   \   0000CC                ; Setup parameters for call to function UartSend
   \   0000CC   EE           MOV     A,R6
   \   0000CD   FC           MOV     R4,A
   \   0000CE   EF           MOV     A,R7
   \   0000CF   FD           MOV     R5,A
   \   0000D0                REQUIRE ?Subroutine2
   \   0000D0                ; // Fall through to label ?Subroutine2
    307          	return err;
    308          }

   \                                 In  segment BANKED_CODE, align 1, keep-with-next
   \                     ?Subroutine2:
   \   000000   12....       LCALL   ?Subroutine18 & 0xFFFF
   \                     ??CrossCallReturnLabel_60:
   \   000003   7402         MOV     A,#0x2
   \   000005   12....       LCALL   ?DEALLOC_XSTACK8
   \   000008   7F10         MOV     R7,#0x10
   \   00000A   02....       LJMP    ?BANKED_LEAVE_XDATA

   \                                 In  segment BANKED_CODE, align 1, keep-with-next
   \                     ?Subroutine17:
   \   000000   34FF         ADDC    A,#-0x1
   \   000002   F9           MOV     R1,A
   \   000003   C3           CLR     C
   \   000004   EC           MOV     A,R4
   \   000005   98           SUBB    A,R0
   \   000006   ED           MOV     A,R5
   \   000007   99           SUBB    A,R1
   \   000008   A2D2         MOV     C,0xD0 /* PSW */.2
   \   00000A   65D0         XRL     A,PSW
   \   00000C   33           RLC     A
   \   00000D   22           RET

   \                                 In  segment BANKED_CODE, align 1, keep-with-next
   \                     ?Subroutine15:
   \   000000   12....       LCALL   ?Subroutine25 & 0xFFFF
   \                     ??CrossCallReturnLabel_56:
   \   000003   22           RET

   \                                 In  segment BANKED_CODE, align 1, keep-with-next
   \                     ?Subroutine25:
   \   000000   E5..         MOV     A,?V0 + 14
   \   000002   2A           ADD     A,R2
   \   000003   F582         MOV     DPL,A
   \   000005   E5..         MOV     A,?V0 + 15
   \   000007   3B           ADDC    A,R3
   \   000008   F583         MOV     DPH,A
   \   00000A   E0           MOVX    A,@DPTR
   \   00000B   22           RET

   \                                 In  segment BANKED_CODE, align 1, keep-with-next
   \                     ?Subroutine10:
   \   000000   12....       LCALL   ?Subroutine25 & 0xFFFF
   \                     ??CrossCallReturnLabel_55:
   \   000003   6425         XRL     A,#0x25
   \   000005   22           RET

   \                                 In  segment BANKED_CODE, align 1, keep-with-next
   \                     ?Subroutine8:
   \   000000   85..82       MOV     DPL,?XSP + 0
   \   000003   85..83       MOV     DPH,?XSP + 1
   \   000006   E0           MOVX    A,@DPTR
   \   000007   F8           MOV     R0,A
   \   000008   A3           INC     DPTR
   \   000009   E0           MOVX    A,@DPTR
   \   00000A   F9           MOV     R1,A
   \   00000B   C3           CLR     C
   \   00000C   EA           MOV     A,R2
   \   00000D   98           SUBB    A,R0
   \   00000E   EB           MOV     A,R3
   \   00000F   99           SUBB    A,R1
   \   000010   A2D2         MOV     C,0xD0 /* PSW */.2
   \   000012   65D0         XRL     A,PSW
   \   000014   33           RLC     A
   \   000015   22           RET

   \                                 In  segment BANKED_CODE, align 1, keep-with-next
   \                     ?Subroutine7:
   \   000000   12....       LCALL   ??strlen?relay
   \   000003   85..82       MOV     DPL,?XSP + 0
   \   000006   85..83       MOV     DPH,?XSP + 1
   \   000009   EA           MOV     A,R2
   \   00000A   F0           MOVX    @DPTR,A
   \   00000B   A3           INC     DPTR
   \   00000C   EB           MOV     A,R3
   \   00000D   F0           MOVX    @DPTR,A
   \   00000E   7A00         MOV     R2,#0x0
   \   000010   7B00         MOV     R3,#0x0
   \   000012   22           RET

   \                                 In  segment BANKED_CODE, align 1, keep-with-next
   \                     ?Subroutine3:
   \   000000   74..         MOV     A,#strTemp_gen & 0xff
   \   000002   2C           ADD     A,R4
   \   000003   F5..         MOV     ?V0 + 0,A
   \   000005   74..         MOV     A,#(strTemp_gen >> 8) & 0xff
   \   000007   3D           ADDC    A,R5
   \   000008   F5..         MOV     ?V0 + 1,A
   \   00000A   85..82       MOV     DPL,?V0 + 0
   \   00000D   F583         MOV     DPH,A
   \   00000F   E0           MOVX    A,@DPTR
   \   000010   F5..         MOV     ?V0 + 4,A
   \   000012   74..         MOV     A,#strTemp_gen & 0xff
   \   000014   28           ADD     A,R0
   \   000015   F5..         MOV     ?V0 + 2,A
   \   000017   74..         MOV     A,#(strTemp_gen >> 8) & 0xff
   \   000019   39           ADDC    A,R1
   \   00001A   F5..         MOV     ?V0 + 3,A
   \   00001C   85..82       MOV     DPL,?V0 + 2
   \   00001F   F583         MOV     DPH,A
   \   000021   E0           MOVX    A,@DPTR
   \   000022   85..82       MOV     DPL,?V0 + 0
   \   000025   85..83       MOV     DPH,?V0 + 1
   \   000028   F0           MOVX    @DPTR,A
   \   000029   85..82       MOV     DPL,?V0 + 2
   \   00002C   85..83       MOV     DPH,?V0 + 3
   \   00002F   E5..         MOV     A,?V0 + 4
   \   000031   F0           MOVX    @DPTR,A
   \   000032   EC           MOV     A,R4
   \   000033   2401         ADD     A,#0x1
   \   000035   0C           INC     R4
   \   000036   ED           MOV     A,R5
   \   000037   3400         ADDC    A,#0x0
   \   000039   FD           MOV     R5,A
   \   00003A   E8           MOV     A,R0
   \   00003B   24FF         ADD     A,#-0x1
   \   00003D   18           DEC     R0
   \   00003E   E9           MOV     A,R1
   \   00003F   22           RET

   \                                 In  segment BANKED_CODE, align 1, keep-with-next
    309          char ChDebugUnsigned(const char *format,unsigned int decimal)//无符号十进制
   \                     ChDebugUnsigned:
    310          {
   \   000000   74E8         MOV     A,#-0x18
   \   000002   12....       LCALL   ?BANKED_ENTER_XDATA
   \   000005                ; Saved register size: 24
   \   000005                ; Auto size: 2
   \   000005   74FE         MOV     A,#-0x2
   \   000007   12....       LCALL   ?ALLOC_XSTACK8
   \   00000A   8A..         MOV     ?V0 + 14,R2
   \   00000C   8B..         MOV     ?V0 + 15,R3
   \   00000E   EC           MOV     A,R4
   \   00000F   FE           MOV     R6,A
   \   000010   ED           MOV     A,R5
   \   000011   FF           MOV     R7,A
    311          	int i;
    312          	int indexDest = 0;
   \   000012   75..00       MOV     ?V0 + 12,#0x0
   \   000015   75..00       MOV     ?V0 + 13,#0x0
    313          	char err=0;
    314          	int len = strlen(format);
                 	          ^
Warning[Pe223]: function "strlen" declared implicitly
   \   000018                ; Setup parameters for call to function strlen
   \   000018   12....       LCALL   ?Subroutine7 & 0xFFFF
    315          	//strcpy(strTemp_gen,format);
    316          	for(i=0;i<len;i++)
   \                     ??CrossCallReturnLabel_16:
   \   00001B   8010         SJMP    ??CrossCallReturnLabel_13
    317          		if(format[i] == '%')
    318          		{
    319          			if(format[i+1] == 'd')// %d
    320          			{
    321          				{
    322          					int l = i;
    323          					int r;
    324          					long value = decimal;
    325          					char c;
    326          					if(value < 0)
    327          					{
    328          						strTemp_gen[indexDest++] = '-';
    329          						value = -value;
    330          						l++;
    331          					}
    332          					do
    333          					{
    334          						c = value%10;
    335          						strTemp_gen[indexDest++] = c + '0';
    336          						value /= 10;
    337          					}while(value != 0);
    338          					////swap the string
    339          					r = indexDest-1;
    340          					while(l < r)
    341          					{
    342          						c = strTemp_gen[l];
    343          						strTemp_gen[l] = strTemp_gen[r];
    344          						strTemp_gen[r] = c;
    345          						l++;
    346          						r--;
    347          					}
    348          					
    349          				}
    350          				i+=2-1;
    351          			}
    352          			else
    353          				strTemp_gen[indexDest++] = format[i];
   \                     ??ChDebugUnsigned_0:
   \   00001D   12....       LCALL   ?Subroutine15 & 0xFFFF
   \                     ??CrossCallReturnLabel_32:
   \   000020   C0E0         PUSH    A
   \   000022   12....       LCALL   ?Subroutine19 & 0xFFFF
   \                     ??CrossCallReturnLabel_41:
   \   000025   D0E0         POP     A
   \   000027   12....       LCALL   ?Subroutine11 & 0xFFFF
   \                     ??CrossCallReturnLabel_23:
   \   00002A   12....       LCALL   ?Subroutine6 & 0xFFFF
   \                     ??CrossCallReturnLabel_13:
   \   00002D   12....       LCALL   ?Subroutine8 & 0xFFFF
   \                     ??CrossCallReturnLabel_18:
   \   000030   5070         JNC     ??ChDebugUnsigned_1
   \   000032   12....       LCALL   ?Subroutine10 & 0xFFFF
   \                     ??CrossCallReturnLabel_22:
   \   000035   70E6         JNZ     ??ChDebugUnsigned_0
   \   000037   A3           INC     DPTR
   \   000038   E0           MOVX    A,@DPTR
   \   000039   6464         XRL     A,#0x64
   \   00003B   70E0         JNZ     ??ChDebugUnsigned_0
   \   00003D   EA           MOV     A,R2
   \   00003E   FC           MOV     R4,A
   \   00003F   EB           MOV     A,R3
   \   000040   FD           MOV     R5,A
   \   000041   8E..         MOV     ?V0 + 4,R6
   \   000043   8F..         MOV     ?V0 + 5,R7
   \   000045   E4           CLR     A
   \   000046   F5..         MOV     ?V0 + 6,A
   \   000048   F5..         MOV     ?V0 + 7,A
   \                     ??ChDebugUnsigned_2:
   \   00004A   85....       MOV     ?V0 + 0,?V0 + 4
   \   00004D   85....       MOV     ?V0 + 1,?V0 + 5
   \   000050   85....       MOV     ?V0 + 2,?V0 + 6
   \   000053   85....       MOV     ?V0 + 3,?V0 + 7
   \   000056   90....       MOV     DPTR,#__Constant_a
   \   000059   78..         MOV     R0,#?V0 + 8
   \   00005B   12....       LCALL   ?L_MOV_X
   \   00005E   78..         MOV     R0,#?V0 + 0
   \   000060   79..         MOV     R1,#?V0 + 8
   \   000062   12....       LCALL   ?L_DIV_MOD
   \   000065   E5..         MOV     A,?V0 + 8
   \   000067   2430         ADD     A,#0x30
   \   000069   C0E0         PUSH    A
   \   00006B   12....       LCALL   ?Subroutine19 & 0xFFFF
   \                     ??CrossCallReturnLabel_42:
   \   00006E   D0E0         POP     A
   \   000070   12....       LCALL   ?Subroutine11 & 0xFFFF
   \                     ??CrossCallReturnLabel_24:
   \   000073   90....       MOV     DPTR,#__Constant_a
   \   000076   78..         MOV     R0,#?V0 + 0
   \   000078   12....       LCALL   ?L_MOV_X
   \   00007B   78..         MOV     R0,#?V0 + 4
   \   00007D   79..         MOV     R1,#?V0 + 0
   \   00007F   12....       LCALL   ?L_DIV_MOD
   \   000082   E5..         MOV     A,?V0 + 4
   \   000084   45..         ORL     A,?V0 + 5
   \   000086   45..         ORL     A,?V0 + 6
   \   000088   45..         ORL     A,?V0 + 7
   \   00008A   70BE         JNZ     ??ChDebugUnsigned_2
   \   00008C   E5..         MOV     A,?V0 + 12
   \   00008E   24FF         ADD     A,#-0x1
   \   000090   F8           MOV     R0,A
   \   000091   E5..         MOV     A,?V0 + 13
   \   000093   8003         SJMP    ??CrossCallReturnLabel_1
   \                     ??ChDebugUnsigned_3:
   \   000095   12....       LCALL   ?Subroutine3 & 0xFFFF
   \                     ??CrossCallReturnLabel_1:
   \   000098   12....       LCALL   ?Subroutine17 & 0xFFFF
   \                     ??CrossCallReturnLabel_40:
   \   00009B   40F8         JC      ??ChDebugUnsigned_3
   \   00009D   12....       LCALL   ?Subroutine6 & 0xFFFF
    354          			
    355          
    356          		}
   \                     ??CrossCallReturnLabel_14:
   \   0000A0   8088         SJMP    ??CrossCallReturnLabel_23
    357          		else
    358          			strTemp_gen[indexDest++] = format[i];
    359          	//strTemp_gen[indexDest++] = 0;
    360          	UartSend(strTemp_gen,indexDest);
                 	         ^
Warning[Pe167]: argument of type "char *" is incompatible with parameter of
          type "unsigned char *"
   \                     ??ChDebugUnsigned_1:
   \   0000A2                ; Setup parameters for call to function UartSend
   \   0000A2   AC..         MOV     R4,?V0 + 12
   \   0000A4   AD..         MOV     R5,?V0 + 13
   \   0000A6   02....       LJMP    ?Subroutine2 & 0xFFFF
    361          	return err;
    362          }

   \                                 In  segment BANKED_CODE, align 1, keep-with-next
   \                     ?Subroutine19:
   \   000000   74..         MOV     A,#strTemp_gen & 0xff
   \   000002   25..         ADD     A,?V0 + 12
   \   000004   F582         MOV     DPL,A
   \   000006   74..         MOV     A,#(strTemp_gen >> 8) & 0xff
   \   000008   35..         ADDC    A,?V0 + 13
   \   00000A   F583         MOV     DPH,A
   \   00000C   22           RET

   \                                 In  segment BANKED_CODE, align 1, keep-with-next
   \                     ?Subroutine11:
   \   000000   F0           MOVX    @DPTR,A
   \   000001   E5..         MOV     A,?V0 + 12
   \   000003   2401         ADD     A,#0x1
   \   000005   F5..         MOV     ?V0 + 12,A
   \   000007   E5..         MOV     A,?V0 + 13
   \   000009   3400         ADDC    A,#0x0
   \   00000B   F5..         MOV     ?V0 + 13,A
   \   00000D   22           RET

   \                                 In  segment BANKED_CODE, align 1, keep-with-next
    363          char ChDebugStr(const char *format,char* str)
   \                     ChDebugStr:
    364          {
   \   000000   74EE         MOV     A,#-0x12
   \   000002   12....       LCALL   ?BANKED_ENTER_XDATA
   \   000005                ; Saved register size: 18
   \   000005                ; Auto size: 0
   \   000005   EA           MOV     A,R2
   \   000006   FE           MOV     R6,A
   \   000007   EB           MOV     A,R3
   \   000008   FF           MOV     R7,A
   \   000009   8C..         MOV     ?V0 + 4,R4
   \   00000B   8D..         MOV     ?V0 + 5,R5
    365          	int i;
    366          	int indexDest = 0;
   \   00000D   75..00       MOV     ?V0 + 0,#0x0
   \   000010   75..00       MOV     ?V0 + 1,#0x0
    367          	char err=0;
    368          	int len = strlen(format);
                 	          ^
Warning[Pe223]: function "strlen" declared implicitly
   \   000013                ; Setup parameters for call to function strlen
   \   000013   12....       LCALL   ??strlen?relay
   \   000016   8A..         MOV     ?V0 + 6,R2
   \   000018   8B..         MOV     ?V0 + 7,R3
    369          	//strcpy(strTemp_gen,format);
    370          	for(i=0;i<len;i++)
   \   00001A   75..00       MOV     ?V0 + 2,#0x0
   \   00001D   75..00       MOV     ?V0 + 3,#0x0
   \   000020   801A         SJMP    ??CrossCallReturnLabel_25
    371          		if(format[i] == '%')
    372          		{
    373          			if(format[i+1] == 's')// %s
    374          			{
    375          				strTemp_gen[indexDest] = '\0';
    376          				strcpy(&strTemp_gen[indexDest],str);
                 				^
Warning[Pe223]: function "strcpy" declared implicitly
    377          				indexDest += strlen(str);
    378          				i+=2-1;
    379          			}
    380          			else
    381          				strTemp_gen[indexDest++] = format[i];
   \                     ??ChDebugStr_0:
   \   000022   12....       LCALL   ?Subroutine20 & 0xFFFF
   \                     ??CrossCallReturnLabel_43:
   \   000025   C0E0         PUSH    A
   \   000027   12....       LCALL   ?Subroutine21 & 0xFFFF
   \                     ??CrossCallReturnLabel_45:
   \   00002A   D0E0         POP     A
   \   00002C   F0           MOVX    @DPTR,A
   \   00002D   E5..         MOV     A,?V0 + 0
   \   00002F   2401         ADD     A,#0x1
   \   000031   F5..         MOV     ?V0 + 0,A
   \   000033   E5..         MOV     A,?V0 + 1
   \   000035   3400         ADDC    A,#0x0
   \   000037   F5..         MOV     ?V0 + 1,A
   \                     ??ChDebugStr_1:
   \   000039   12....       LCALL   ?Subroutine12 & 0xFFFF
   \                     ??CrossCallReturnLabel_25:
   \   00003C   C3           CLR     C
   \   00003D   E5..         MOV     A,?V0 + 2
   \   00003F   95..         SUBB    A,?V0 + 6
   \   000041   E5..         MOV     A,?V0 + 3
   \   000043   95..         SUBB    A,?V0 + 7
   \   000045   A2D2         MOV     C,0xD0 /* PSW */.2
   \   000047   65D0         XRL     A,PSW
   \   000049   33           RLC     A
   \   00004A   5039         JNC     ??ChDebugStr_2
   \   00004C   12....       LCALL   ?Subroutine20 & 0xFFFF
   \                     ??CrossCallReturnLabel_44:
   \   00004F   6425         XRL     A,#0x25
   \   000051   70CF         JNZ     ??ChDebugStr_0
   \   000053   A3           INC     DPTR
   \   000054   E0           MOVX    A,@DPTR
   \   000055   6473         XRL     A,#0x73
   \   000057   70C9         JNZ     ??ChDebugStr_0
   \   000059   12....       LCALL   ?Subroutine21 & 0xFFFF
   \                     ??CrossCallReturnLabel_46:
   \   00005C   E4           CLR     A
   \   00005D   F0           MOVX    @DPTR,A
   \   00005E                ; Setup parameters for call to function strcpy
   \   00005E   AC..         MOV     R4,?V0 + 4
   \   000060   AD..         MOV     R5,?V0 + 5
   \   000062   AA82         MOV     R2,DPL
   \   000064   AB83         MOV     R3,DPH
   \   000066   12....       LCALL   ??strcpy?relay
   \   000069                ; Setup parameters for call to function strlen
   \   000069   AA..         MOV     R2,?V0 + 4
   \   00006B   AB..         MOV     R3,?V0 + 5
   \   00006D   12....       LCALL   ??strlen?relay
   \   000070   8A..         MOV     ?V0 + 8,R2
   \   000072   8B..         MOV     ?V0 + 9,R3
   \   000074   E5..         MOV     A,?V0 + 0
   \   000076   25..         ADD     A,?V0 + 8
   \   000078   F5..         MOV     ?V0 + 0,A
   \   00007A   E5..         MOV     A,?V0 + 1
   \   00007C   35..         ADDC    A,?V0 + 9
   \   00007E   F5..         MOV     ?V0 + 1,A
   \   000080   12....       LCALL   ?Subroutine12 & 0xFFFF
    382          		}
   \                     ??CrossCallReturnLabel_26:
   \   000083   80B4         SJMP    ??ChDebugStr_1
    383          		else
    384          			strTemp_gen[indexDest++] = format[i];
    385          	//strTemp_gen[indexDest++] = 0;
    386          	UartSend(strTemp_gen,indexDest);
                 	         ^
Warning[Pe167]: argument of type "char *" is incompatible with parameter of
          type "unsigned char *"
   \                     ??ChDebugStr_2:
   \   000085                ; Setup parameters for call to function UartSend
   \   000085   AC..         MOV     R4,?V0 + 0
   \   000087   AD..         MOV     R5,?V0 + 1
   \   000089   12....       LCALL   ?Subroutine18 & 0xFFFF
    387          	return err;
   \                     ??CrossCallReturnLabel_61:
   \   00008C   7F0A         MOV     R7,#0xa
   \   00008E   02....       LJMP    ?BANKED_LEAVE_XDATA
    388          }

   \                                 In  segment BANKED_CODE, align 1, keep-with-next
   \                     ?Subroutine21:
   \   000000   74..         MOV     A,#strTemp_gen & 0xff
   \   000002   25..         ADD     A,?V0 + 0
   \   000004   F582         MOV     DPL,A
   \   000006   74..         MOV     A,#(strTemp_gen >> 8) & 0xff
   \   000008   35..         ADDC    A,?V0 + 1
   \   00000A   F583         MOV     DPH,A
   \   00000C   22           RET

   \                                 In  segment BANKED_CODE, align 1, keep-with-next
   \                     ?Subroutine20:
   \   000000   EE           MOV     A,R6
   \   000001   25..         ADD     A,?V0 + 2
   \   000003   F582         MOV     DPL,A
   \   000005   EF           MOV     A,R7
   \   000006   35..         ADDC    A,?V0 + 3
   \   000008   F583         MOV     DPH,A
   \   00000A   E0           MOVX    A,@DPTR
   \   00000B   22           RET

   \                                 In  segment BANKED_CODE, align 1, keep-with-next
   \                     ?Subroutine12:
   \   000000   E5..         MOV     A,?V0 + 2
   \   000002   2401         ADD     A,#0x1
   \   000004   F5..         MOV     ?V0 + 2,A
   \   000006   E5..         MOV     A,?V0 + 3
   \   000008   3400         ADDC    A,#0x0
   \   00000A   F5..         MOV     ?V0 + 3,A
   \   00000C   22           RET

   \                                 In  segment BANKED_CODE, align 1, keep-with-next
    389          char ChDebugTag(const char *format)
   \                     ChDebugTag:
    390          {
   \   000000   74F7         MOV     A,#-0x9
   \   000002   12....       LCALL   ?BANKED_ENTER_XDATA
   \   000005                ; Saved register size: 9
   \   000005                ; Auto size: 0
   \   000005   EA           MOV     A,R2
   \   000006   FE           MOV     R6,A
   \   000007   EB           MOV     A,R3
   \   000008   FF           MOV     R7,A
    391          	char err=0;
    392          	int len = strlen(format);
                 	          ^
Warning[Pe223]: function "strlen" declared implicitly
    393          	//strcpy(strTemp_gen,format);
    394          	//strTemp_gen[indexDest++] = 0;
    395          	UartSend((unsigned char*)format,len);
   \   000009                ; Setup parameters for call to function UartSend
   \   000009                ; Setup parameters for call to function strlen
   \   000009   12....       LCALL   ??strlen?relay
   \   00000C   EA           MOV     A,R2
   \   00000D   FC           MOV     R4,A
   \   00000E   EB           MOV     A,R3
   \   00000F   FD           MOV     R5,A
   \   000010   EE           MOV     A,R6
   \   000011   FA           MOV     R2,A
   \   000012   EF           MOV     A,R7
   \   000013   FB           MOV     R3,A
   \   000014   12....       LCALL   ??Subroutine27_0 & 0xFFFF
    396          	return err;
   \                     ??CrossCallReturnLabel_62:
   \   000017   02....       LJMP    ?Subroutine1 & 0xFFFF
    397          }

   \                                 In  segment XDATA_ROM_C, align 1
   \                     __Constant_0:
   \   000000   00000000     DD 0

   \                                 In  segment XDATA_ROM_C, align 1
   \                     __Constant_a:
   \   000000   0A000000     DD 10

   \                                 In  segment BANK_RELAYS, align 1
   \                     ??UartOpen?relay:
   \   000000   12....       LCALL   ?BDISPATCH
   \   000003   ......       DC24    UartOpen

   \                                 In  segment BANK_RELAYS, align 1
   \                     ??UartSend?relay:
   \   000000   12....       LCALL   ?BDISPATCH
   \   000003   ......       DC24    UartSend

   \                                 In  segment BANK_RELAYS, align 1
   \                     ??UartSend2?relay:
   \   000000   12....       LCALL   ?BDISPATCH
   \   000003   ......       DC24    UartSend2

   \                                 In  segment BANK_RELAYS, align 1
   \                     ??ChDebugHex?relay:
   \   000000   12....       LCALL   ?BDISPATCH
   \   000003   ......       DC24    ChDebugHex

   \                                 In  segment BANK_RELAYS, align 1
   \                     ??ChDebugSigned?relay:
   \   000000   12....       LCALL   ?BDISPATCH
   \   000003   ......       DC24    ChDebugSigned

   \                                 In  segment BANK_RELAYS, align 1
   \                     ??ChDebugUnsigned?relay:
   \   000000   12....       LCALL   ?BDISPATCH
   \   000003   ......       DC24    ChDebugUnsigned

   \                                 In  segment BANK_RELAYS, align 1
   \                     ??ChDebugStr?relay:
   \   000000   12....       LCALL   ?BDISPATCH
   \   000003   ......       DC24    ChDebugStr

   \                                 In  segment BANK_RELAYS, align 1
   \                     ??ChDebugTag?relay:
   \   000000   12....       LCALL   ?BDISPATCH
   \   000003   ......       DC24    ChDebugTag
    398          
    399          #endif

   Maximum stack usage in bytes:

     Function          ISTACK PSTACK XSTACK
     --------          ------ ------ ------
     ChDebugHex            1      0     16
       -> strlen           0      0     32
       -> UartSend         0      0     32
     ChDebugSigned         1      0     26
       -> strlen           0      0     52
       -> UartSend         0      0     52
     ChDebugStr            1      0     18
       -> strlen           0      0     36
       -> strcpy           0      0     36
       -> strlen           0      0     36
       -> UartSend         0      0     36
     ChDebugTag            0      0      9
       -> strlen           0      0     18
       -> UartSend         0      0     18
     ChDebugUnsigned       1      0     26
       -> strlen           0      0     52
       -> UartSend         0      0     52
     UartOpen              2      0      0
     UartSend              0      0     35
     UartSend2             2      0      0
       -> HalUARTWrite     4      0      0


   Segment part sizes:

     Function/Label          Bytes
     --------------          -----
     _A_IEN0                    1
     _A_IRCON2                  1
     PERCFG                     1
     ADCCFG                     1
     P1SEL                      1
     _A_U1CSR                   1
     U1DBUF                     1
     U1BAUD                     1
     U1UCR                      1
     U1GCR                      1
     P2DIR                      1
     UartOpen                 116
     ?Subroutine0               7
     UartSend                  48
     ?Subroutine1               5
     UartSend2                 11
     strTemp_gen               70
     ChDebugHex               307
     ?Subroutine14              4
     ?Subroutine24              5
     ?Subroutine13              5
     ?Subroutine26             11
     ?Subroutine9               6
     ?Subroutine4              17
     ?Subroutine18              4
     ??Subroutine27_0           6
     ?Subroutine16              4
     ?Subroutine22             11
     ?Subroutine6               9
     ?Subroutine5               4
     ?Subroutine23             10
     ChDebugSigned            208
     ?Subroutine2              13
     ?Subroutine17             14
     ?Subroutine15              4
     ?Subroutine25             12
     ?Subroutine10              6
     ?Subroutine8              22
     ?Subroutine7              19
     ?Subroutine3              64
     ChDebugUnsigned          169
     ?Subroutine19             13
     ?Subroutine11             14
     ChDebugStr               145
     ?Subroutine21             13
     ?Subroutine20             12
     ?Subroutine12             13
     ChDebugTag                26
     __Constant_0               4
     __Constant_a               4
     ??UartOpen?relay           6
     ??UartSend?relay           6
     ??UartSend2?relay          6
     ??ChDebugHex?relay         6
     ??ChDebugSigned?relay      6
     ??ChDebugUnsigned?relay    6
     ??ChDebugStr?relay         6
     ??ChDebugTag?relay         6

 
 1 357 bytes in segment BANKED_CODE
    48 bytes in segment BANK_RELAYS
    11 bytes in segment SFR_AN
     8 bytes in segment XDATA_ROM_C
    70 bytes in segment XDATA_Z
 
 1 405 bytes of CODE  memory
     0 bytes of CONST memory (+  8 bytes shared)
     0 bytes of DATA  memory (+ 11 bytes shared)
    70 bytes of XDATA memory

Errors: none
Warnings: 13
