///////////////////////////////////////////////////////////////////////////////
//                                                                            /
// IAR C/C++ Compiler V8.10.1.40194/W32 for 8051        23/Jan/2014  09:41:00 /
// Copyright 2004-2011 IAR Systems AB.                                        /
//                                                                            /
//    Core               =  plain                                             /
//    Code model         =  banked                                            /
//    Data model         =  large                                             /
//    Calling convention =  xdata reentrant                                   /
//    Constant location  =  data_rom                                          /
//    Dptr setup         =  1,16                                              /
//    Source file        =  E:\wise-house\Projects\zstack\Samples\MyGenericAp /
//                          p\Source\chdebug.c                                /
//    Command line       =  -f E:\wise-house\Projects\zstack\Samples\MyGeneri /
//                          cApp\CC2530DB\..\..\..\Tools\CC2530DB\f8wEndev.cf /
//                          g (-DCPU32MHZ -DROOT=__near_func                  /
//                          -DMAC_CFG_TX_DATA_MAX=3 -DMAC_CFG_TX_MAX=6        /
//                          -DMAC_CFG_RX_MAX=3) -f E:\wise-house\Projects\zst /
//                          ack\Samples\MyGenericApp\CC2530DB\..\..\..\Tools\ /
//                          CC2530DB\f8wConfig.cfg (-DZIGBEEPRO -DSECURE=0    /
//                          -DZG_SECURE_DYNAMIC=0 -DREFLECTOR                 /
//                          -DDEFAULT_CHANLIST=0x00000800                     /
//                          -DZDAPP_CONFIG_PAN_ID=0xFFFF                      /
//                          -DNWK_START_DELAY=100 -DEXTENDED_JOINING_RANDOM_M /
//                          ASK=0x007F -DBEACON_REQUEST_DELAY=100             /
//                          -DBEACON_REQ_DELAY_MASK=0x00FF                    /
//                          -DLINK_STATUS_JITTER_MASK=0x007F                  /
//                          -DROUTE_EXPIRY_TIME=30 -DAPSC_ACK_WAIT_DURATION_P /
//                          OLLED=3000 -DNWK_INDIRECT_MSG_TIMEOUT=7           /
//                          -DMAX_RREQ_ENTRIES=8 -DAPSC_MAX_FRAME_RETRIES=3   /
//                          -DNWK_MAX_DATA_RETRIES=2                          /
//                          -DMAX_POLL_FAILURE_RETRIES=2 -DMAX_BCAST=9        /
//                          -DAPS_MAX_GROUPS=16 -DMAX_RTG_ENTRIES=40          /
//                          -DNWK_MAX_BINDING_ENTRIES=4                       /
//                          -DMAX_BINDING_CLUSTER_IDS=4                       /
//                          "-DDEFAULT_KEY={0x01, 0x03, 0x05, 0x07, 0x09,     /
//                          0x0B, 0x0D, 0x0F, 0x00, 0x02, 0x04, 0x06, 0x08,   /
//                          0x0A, 0x0C, 0x0D}" -DMAC_MAX_FRAME_SIZE=116       /
//                          -DZDNWKMGR_MIN_TRANSMISSIONS=20 "-DCONST=const    /
//                          __code" -DGENERIC=__generic                       /
//                          -DRFD_RCVC_ALWAYS_ON=TRUE -DPOLL_RATE=1000        /
//                          -DQUEUED_POLL_RATE=100 -DRESPONSE_POLL_RATE=100)  /
//                          -DREJOIN_POLL_RATE=440 E:\wise-house\Projects\zst /
//                          ack\Samples\MyGenericApp\Source\chdebug.c -D      /
//                          NWK_AUTO_POLL -D ZTOOL_P1 -D MT_TASK -D           /
//                          MT_SYS_FUNC -D MT_ZDO_FUNC -D                     /
//                          LCD_SUPPORTED=DEBUG -D xPOWER_SAVING -lC          /
//                          E:\wise-house\Projects\zstack\Samples\MyGenericAp /
//                          p\CC2530DB\EndDeviceEB\List\ -lA                  /
//                          E:\wise-house\Projects\zstack\Samples\MyGenericAp /
//                          p\CC2530DB\EndDeviceEB\List\ --diag_suppress      /
//                          Pe001,Pa010 -o E:\wise-house\Projects\zstack\Samp /
//                          les\MyGenericApp\CC2530DB\EndDeviceEB\Obj\ -e     /
//                          --no_code_motion --debug --core=plain             /
//                          --dptr=16,1 --data_model=large                    /
//                          --code_model=banked --calling_convention=xdata_re /
//                          entrant --place_constants=data_rom                /
//                          --nr_virtual_regs 16 -I                           /
//                          E:\wise-house\Projects\zstack\Samples\MyGenericAp /
//                          p\CC2530DB\ -I E:\wise-house\Projects\zstack\Samp /
//                          les\MyGenericApp\CC2530DB\..\Source\ -I           /
//                          E:\wise-house\Projects\zstack\Samples\MyGenericAp /
//                          p\CC2530DB\..\..\..\ZMain\TI2530DB\ -I            /
//                          E:\wise-house\Projects\zstack\Samples\MyGenericAp /
//                          p\CC2530DB\..\..\..\..\..\Components\hal\include\ /
//                           -I E:\wise-house\Projects\zstack\Samples\MyGener /
//                          icApp\CC2530DB\..\..\..\..\..\Components\hal\targ /
//                          et\CC2530EB\ -I E:\wise-house\Projects\zstack\Sam /
//                          ples\MyGenericApp\CC2530DB\..\..\..\..\..\Compone /
//                          nts\mac\include\ -I E:\wise-house\Projects\zstack /
//                          \Samples\MyGenericApp\CC2530DB\..\..\..\..\..\Com /
//                          ponents\mac\high_level\ -I                        /
//                          E:\wise-house\Projects\zstack\Samples\MyGenericAp /
//                          p\CC2530DB\..\..\..\..\..\Components\mac\low_leve /
//                          l\srf04\ -I E:\wise-house\Projects\zstack\Samples /
//                          \MyGenericApp\CC2530DB\..\..\..\..\..\Components\ /
//                          mac\low_level\srf04\single_chip\ -I               /
//                          E:\wise-house\Projects\zstack\Samples\MyGenericAp /
//                          p\CC2530DB\..\..\..\..\..\Components\mt\ -I       /
//                          E:\wise-house\Projects\zstack\Samples\MyGenericAp /
//                          p\CC2530DB\..\..\..\..\..\Components\osal\include /
//                          \ -I E:\wise-house\Projects\zstack\Samples\MyGene /
//                          ricApp\CC2530DB\..\..\..\..\..\Components\service /
//                          s\saddr\ -I E:\wise-house\Projects\zstack\Samples /
//                          \MyGenericApp\CC2530DB\..\..\..\..\..\Components\ /
//                          services\sdata\ -I E:\wise-house\Projects\zstack\ /
//                          Samples\MyGenericApp\CC2530DB\..\..\..\..\..\Comp /
//                          onents\stack\af\ -I E:\wise-house\Projects\zstack /
//                          \Samples\MyGenericApp\CC2530DB\..\..\..\..\..\Com /
//                          ponents\stack\nwk\ -I E:\wise-house\Projects\zsta /
//                          ck\Samples\MyGenericApp\CC2530DB\..\..\..\..\..\C /
//                          omponents\stack\sapi\ -I                          /
//                          E:\wise-house\Projects\zstack\Samples\MyGenericAp /
//                          p\CC2530DB\..\..\..\..\..\Components\stack\sec\   /
//                          -I E:\wise-house\Projects\zstack\Samples\MyGeneri /
//                          cApp\CC2530DB\..\..\..\..\..\Components\stack\sys /
//                          \ -I E:\wise-house\Projects\zstack\Samples\MyGene /
//                          ricApp\CC2530DB\..\..\..\..\..\Components\stack\z /
//                          do\ -I E:\wise-house\Projects\zstack\Samples\MyGe /
//                          nericApp\CC2530DB\..\..\..\..\..\Components\zmac\ /
//                           -I E:\wise-house\Projects\zstack\Samples\MyGener /
//                          icApp\CC2530DB\..\..\..\..\..\Components\zmac\f8w /
//                          \ -Ohz                                            /
//    List file          =  E:\wise-house\Projects\zstack\Samples\MyGenericAp /
//                          p\CC2530DB\EndDeviceEB\List\chdebug.s51           /
//                                                                            /
//                                                                            /
///////////////////////////////////////////////////////////////////////////////

        NAME chdebug

        RTMODEL "__SystemLibrary", "CLib"
        RTMODEL "__calling_convention", "xdata_reentrant"
        RTMODEL "__code_model", "banked"
        RTMODEL "__core", "plain"
        RTMODEL "__data_model", "large"
        RTMODEL "__dptr_size", "16"
        RTMODEL "__extended_stack", "disabled"
        RTMODEL "__location_for_constants", "data"
        RTMODEL "__number_of_dptrs", "1"
        RTMODEL "__rt_version", "1"

        RSEG DOVERLAY:DATA:NOROOT(0)
        RSEG IOVERLAY:IDATA:NOROOT(0)
        RSEG ISTACK:IDATA:NOROOT(0)
        RSEG PSTACK:XDATA:NOROOT(0)
        RSEG XSTACK:XDATA:NOROOT(0)

        EXTERN ?ALLOC_XSTACK8
        EXTERN ?BANKED_ENTER_XDATA
        EXTERN ?BANKED_LEAVE_XDATA
        EXTERN ?BDISPATCH
        EXTERN ?BRET
        EXTERN ?DEALLOC_XSTACK8
        EXTERN ?L_DIV_MOD
        EXTERN ?L_MOV_X
        EXTERN ?L_NEG
        EXTERN ?SL_GE_X
        EXTERN ?US_SHR
        EXTERN ?V0
        EXTERN ?XSP
        EXTERN __INIT_XDATA_Z

        PUBLIC ??ChDebugHex?relay
        FUNCTION ??ChDebugHex?relay,0203H
        PUBLIC ??ChDebugSigned?relay
        FUNCTION ??ChDebugSigned?relay,0203H
        PUBLIC ??ChDebugStr?relay
        FUNCTION ??ChDebugStr?relay,0203H
        PUBLIC ??ChDebugTag?relay
        FUNCTION ??ChDebugTag?relay,0203H
        PUBLIC ??ChDebugUnsigned?relay
        FUNCTION ??ChDebugUnsigned?relay,0203H
        PUBLIC ??UartOpen?relay
        FUNCTION ??UartOpen?relay,0203H
        PUBLIC ??UartSend2?relay
        FUNCTION ??UartSend2?relay,0203H
        PUBLIC ??UartSend?relay
        FUNCTION ??UartSend?relay,0203H
        PUBWEAK ADCCFG
        PUBLIC ChDebugHex
        FUNCTION ChDebugHex,021203H
        ARGFRAME XSTACK, 0, STACK
        LOCFRAME ISTACK, 1, STACK
        LOCFRAME XSTACK, 16, STACK
        PUBLIC ChDebugSigned
        FUNCTION ChDebugSigned,021203H
        ARGFRAME XSTACK, 0, STACK
        LOCFRAME ISTACK, 1, STACK
        LOCFRAME XSTACK, 26, STACK
        PUBLIC ChDebugStr
        FUNCTION ChDebugStr,021203H
        ARGFRAME XSTACK, 0, STACK
        LOCFRAME ISTACK, 1, STACK
        LOCFRAME XSTACK, 18, STACK
        PUBLIC ChDebugTag
        FUNCTION ChDebugTag,021203H
        ARGFRAME XSTACK, 0, STACK
        LOCFRAME XSTACK, 9, STACK
        PUBLIC ChDebugUnsigned
        FUNCTION ChDebugUnsigned,021203H
        ARGFRAME XSTACK, 0, STACK
        LOCFRAME ISTACK, 1, STACK
        LOCFRAME XSTACK, 26, STACK
        PUBWEAK P1SEL
        PUBWEAK P2DIR
        PUBWEAK PERCFG
        PUBWEAK U1BAUD
        PUBWEAK U1DBUF
        PUBWEAK U1GCR
        PUBWEAK U1UCR
        PUBLIC UartOpen
        FUNCTION UartOpen,0203H
        ARGFRAME XSTACK, 0, STACK
        LOCFRAME ISTACK, 2, STACK
        PUBLIC UartSend
        FUNCTION UartSend,0203H
        ARGFRAME XSTACK, 26, STACK
        ARGFRAME IOVERLAY, 0, STATIC
        ARGFRAME DOVERLAY, 0, STATIC
        LOCFRAME XSTACK, 9, STACK
        PUBLIC UartSend2
        FUNCTION UartSend2,021203H
        ARGFRAME XSTACK, 0, STACK
        LOCFRAME ISTACK, 2, STACK
        PUBWEAK _A_IEN0
        PUBWEAK _A_IRCON2
        PUBWEAK _A_U1CSR
        PUBWEAK __Constant_0
        PUBWEAK __Constant_a
        
        CFI Names cfiNames0
        CFI StackFrame CFA_SP SP IDATA
        CFI StackFrame CFA_PSP16 PSP16 XDATA
        CFI StackFrame CFA_XSP16 XSP16 XDATA
        CFI StaticOverlayFrame CFA_IOVERLAY IOVERLAY
        CFI StaticOverlayFrame CFA_DOVERLAY DOVERLAY
        CFI Resource `PSW.CY`:1, `B.BR0`:1, `B.BR1`:1, `B.BR2`:1, `B.BR3`:1
        CFI Resource `B.BR4`:1, `B.BR5`:1, `B.BR6`:1, `B.BR7`:1, `VB.BR8`:1
        CFI Resource `VB.BR9`:1, `VB.BR10`:1, `VB.BR11`:1, `VB.BR12`:1
        CFI Resource `VB.BR13`:1, `VB.BR14`:1, `VB.BR15`:1, VB:8, B:8, A:8
        CFI Resource PSW:8, DPL0:8, DPH0:8, R0:8, R1:8, R2:8, R3:8, R4:8, R5:8
        CFI Resource R6:8, R7:8, V0:8, V1:8, V2:8, V3:8, V4:8, V5:8, V6:8, V7:8
        CFI Resource V8:8, V9:8, V10:8, V11:8, V12:8, V13:8, V14:8, V15:8, SP:8
        CFI Resource PSPH:8, PSPL:8, PSP16:16, XSPH:8, XSPL:8, XSP16:16
        CFI VirtualResource ?RET:24
        CFI Resource ?BRET_EXT:8
        CFI VirtualResource ?RET_HIGH:8, ?RET_LOW:8
        CFI ResourceParts PSP16 PSPH, PSPL
        CFI ResourceParts XSP16 XSPH, XSPL
        CFI ResourceParts ?RET ?BRET_EXT, ?RET_HIGH, ?RET_LOW
        CFI EndNames cfiNames0
        
        CFI Common cfiCommon0 Using cfiNames0
        CFI CodeAlign 1
        CFI DataAlign -1
        CFI ReturnAddress ?RET CODE
        CFI CFA_DOVERLAY Used
        CFI CFA_IOVERLAY Used
        CFI CFA_SP SP+-3
        CFI CFA_PSP16 PSP16+0
        CFI CFA_XSP16 XSP16+0
        CFI `PSW.CY` SameValue
        CFI `B.BR0` SameValue
        CFI `B.BR1` SameValue
        CFI `B.BR2` SameValue
        CFI `B.BR3` SameValue
        CFI `B.BR4` SameValue
        CFI `B.BR5` SameValue
        CFI `B.BR6` SameValue
        CFI `B.BR7` SameValue
        CFI `VB.BR8` SameValue
        CFI `VB.BR9` SameValue
        CFI `VB.BR10` SameValue
        CFI `VB.BR11` SameValue
        CFI `VB.BR12` SameValue
        CFI `VB.BR13` SameValue
        CFI `VB.BR14` SameValue
        CFI `VB.BR15` SameValue
        CFI VB SameValue
        CFI B Undefined
        CFI A Undefined
        CFI PSW SameValue
        CFI DPL0 SameValue
        CFI DPH0 SameValue
        CFI R0 Undefined
        CFI R1 Undefined
        CFI R2 Undefined
        CFI R3 Undefined
        CFI R4 Undefined
        CFI R5 Undefined
        CFI R6 SameValue
        CFI R7 SameValue
        CFI V0 SameValue
        CFI V1 SameValue
        CFI V2 SameValue
        CFI V3 SameValue
        CFI V4 SameValue
        CFI V5 SameValue
        CFI V6 SameValue
        CFI V7 SameValue
        CFI V8 SameValue
        CFI V9 SameValue
        CFI V10 SameValue
        CFI V11 SameValue
        CFI V12 SameValue
        CFI V13 SameValue
        CFI V14 SameValue
        CFI V15 SameValue
        CFI PSPH Undefined
        CFI PSPL Undefined
        CFI XSPH Undefined
        CFI XSPL Undefined
        CFI ?RET Concat
        CFI ?BRET_EXT Frame(CFA_SP, 3)
        CFI ?RET_HIGH Frame(CFA_SP, 2)
        CFI ?RET_LOW Frame(CFA_SP, 1)
        CFI EndCommon cfiCommon0
        
        
        CFI Common cfiCommon1 Using cfiNames0
        CFI CodeAlign 1
        CFI DataAlign -1
        CFI ReturnAddress ?RET CODE
        CFI CFA_DOVERLAY Used
        CFI CFA_IOVERLAY Used
        CFI CFA_SP SP+-2
        CFI CFA_PSP16 PSP16+0
        CFI CFA_XSP16 XSP16+0
        CFI `PSW.CY` SameValue
        CFI `B.BR0` SameValue
        CFI `B.BR1` SameValue
        CFI `B.BR2` SameValue
        CFI `B.BR3` SameValue
        CFI `B.BR4` SameValue
        CFI `B.BR5` SameValue
        CFI `B.BR6` SameValue
        CFI `B.BR7` SameValue
        CFI `VB.BR8` SameValue
        CFI `VB.BR9` SameValue
        CFI `VB.BR10` SameValue
        CFI `VB.BR11` SameValue
        CFI `VB.BR12` SameValue
        CFI `VB.BR13` SameValue
        CFI `VB.BR14` SameValue
        CFI `VB.BR15` SameValue
        CFI VB SameValue
        CFI B SameValue
        CFI A SameValue
        CFI PSW SameValue
        CFI DPL0 SameValue
        CFI DPH0 SameValue
        CFI R0 SameValue
        CFI R1 SameValue
        CFI R2 SameValue
        CFI R3 SameValue
        CFI R4 SameValue
        CFI R5 SameValue
        CFI R6 SameValue
        CFI R7 SameValue
        CFI V0 SameValue
        CFI V1 SameValue
        CFI V2 SameValue
        CFI V3 SameValue
        CFI V4 SameValue
        CFI V5 SameValue
        CFI V6 SameValue
        CFI V7 SameValue
        CFI V8 SameValue
        CFI V9 SameValue
        CFI V10 SameValue
        CFI V11 SameValue
        CFI V12 SameValue
        CFI V13 SameValue
        CFI V14 SameValue
        CFI V15 SameValue
        CFI PSPH Undefined
        CFI PSPL Undefined
        CFI XSPH Undefined
        CFI XSPL Undefined
        CFI ?RET Concat
        CFI ?BRET_EXT SameValue
        CFI ?RET_HIGH Frame(CFA_SP, 2)
        CFI ?RET_LOW Frame(CFA_SP, 1)
        CFI EndCommon cfiCommon1
        
HalUARTWrite        SYMBOL "HalUARTWrite"
strlen              SYMBOL "strlen"
strcpy              SYMBOL "strcpy"
??HalUARTWrite?relay SYMBOL "?relay", HalUARTWrite
??strcpy?relay      SYMBOL "?relay", strcpy
??strlen?relay      SYMBOL "?relay", strlen
ChDebugHex          SYMBOL "ChDebugHex"
??ChDebugHex?relay  SYMBOL "?relay", ChDebugHex
ChDebugSigned       SYMBOL "ChDebugSigned"
??ChDebugSigned?relay SYMBOL "?relay", ChDebugSigned
ChDebugStr          SYMBOL "ChDebugStr"
??ChDebugStr?relay  SYMBOL "?relay", ChDebugStr
ChDebugTag          SYMBOL "ChDebugTag"
??ChDebugTag?relay  SYMBOL "?relay", ChDebugTag
ChDebugUnsigned     SYMBOL "ChDebugUnsigned"
??ChDebugUnsigned?relay SYMBOL "?relay", ChDebugUnsigned
UartOpen            SYMBOL "UartOpen"
??UartOpen?relay    SYMBOL "?relay", UartOpen
UartSend2           SYMBOL "UartSend2"
??UartSend2?relay   SYMBOL "?relay", UartSend2
UartSend            SYMBOL "UartSend"
??UartSend?relay    SYMBOL "?relay", UartSend

        EXTERN HalUARTWrite
        FUNCTION HalUARTWrite,0202H
        ARGFRAME ISTACK, 2, STACK
        ARGFRAME PSTACK, 0, STACK
        ARGFRAME XSTACK, 0, STACK
        ARGFRAME IOVERLAY, 0, STATIC
        ARGFRAME DOVERLAY, 0, STATIC
        EXTERN strlen
        FUNCTION strlen,0200H
        ARGFRAME ISTACK, 0, STACK
        ARGFRAME PSTACK, 0, STACK
        ARGFRAME XSTACK, 26, STACK
        ARGFRAME IOVERLAY, 0, STATIC
        ARGFRAME DOVERLAY, 0, STATIC
        EXTERN strcpy
        FUNCTION strcpy,0200H
        ARGFRAME ISTACK, 0, STACK
        ARGFRAME PSTACK, 0, STACK
        ARGFRAME XSTACK, 18, STACK
        ARGFRAME IOVERLAY, 0, STATIC
        ARGFRAME DOVERLAY, 0, STATIC
        EXTERN ??HalUARTWrite?relay
        FUNCTION ??HalUARTWrite?relay,00H
        EXTERN ??strcpy?relay
        FUNCTION ??strcpy?relay,00H
        EXTERN ??strlen?relay
        FUNCTION ??strlen?relay,00H

// E:\wise-house\Projects\zstack\Samples\MyGenericApp\Source\chdebug.c
//    1 
//    2 #include "chdebug.h"

        ASEGN SFR_AN:DATA:NOROOT,0a8H
// union <unnamed> volatile __sfr _A_IEN0
_A_IEN0:
        DATA8
        DS 1

        ASEGN SFR_AN:DATA:NOROOT,0e8H
// union <unnamed> volatile __sfr _A_IRCON2
_A_IRCON2:
        DATA8
        DS 1

        ASEGN SFR_AN:DATA:NOROOT,0f1H
// unsigned char volatile __sfr PERCFG
PERCFG:
        DATA8
        DS 1

        ASEGN SFR_AN:DATA:NOROOT,0f2H
// unsigned char volatile __sfr ADCCFG
ADCCFG:
        DATA8
        DS 1

        ASEGN SFR_AN:DATA:NOROOT,0f4H
// unsigned char volatile __sfr P1SEL
P1SEL:
        DATA8
        DS 1

        ASEGN SFR_AN:DATA:NOROOT,0f8H
// union <unnamed> volatile __sfr _A_U1CSR
_A_U1CSR:
        DATA8
        DS 1

        ASEGN SFR_AN:DATA:NOROOT,0f9H
// unsigned char volatile __sfr U1DBUF
U1DBUF:
        DATA8
        DS 1

        ASEGN SFR_AN:DATA:NOROOT,0faH
// unsigned char volatile __sfr U1BAUD
U1BAUD:
        DATA8
        DS 1

        ASEGN SFR_AN:DATA:NOROOT,0fbH
// unsigned char volatile __sfr U1UCR
U1UCR:
        DATA8
        DS 1

        ASEGN SFR_AN:DATA:NOROOT,0fcH
// unsigned char volatile __sfr U1GCR
U1GCR:
        DATA8
        DS 1

        ASEGN SFR_AN:DATA:NOROOT,0ffH
// unsigned char volatile __sfr P2DIR
P2DIR:
        DATA8
        DS 1
//    3 
//    4 #ifdef DEBUG_CH
//    5 #define CSR_MODE                   0x80
//    6 #define CSR_RE                     0x40
//    7 #define CSR_SLAVE                  0x20
//    8 #define CSR_FE                     0x10
//    9 #define CSR_ERR                    0x08
//   10 #define CSR_RX_BYTE                0x04
//   11 #define CSR_TX_BYTE                0x02
//   12 #define CSR_ACTIVE                 0x01
//   13 
//   14 // UxUCR - USART UART Control Register.
//   15 #define UCR_FLUSH                  0x80
//   16 #define UCR_FLOW                   0x40
//   17 #define UCR_D9                     0x20
//   18 #define UCR_BIT9                   0x10
//   19 #define UCR_PARITY                 0x08
//   20 #define UCR_SPB                    0x04
//   21 #define UCR_STOP                   0x02
//   22 #define UCR_START                  0x01
//   23 
//   24 #define UTX0IE                     0x04
//   25 #define UTX1IE                     0x08
//   26 
//   27 #define P2DIR_PRIPO                0xC0
//   28 #if (DEBUG_PORT == 0)
//   29 #define PxOUT                      P0
//   30 #define PxDIR                      P0DIR
//   31 #define PxSEL                      P0SEL
//   32 #define UxCSR                      U0CSR
//   33 #define UxUCR                      U0UCR
//   34 #define UxDBUF                     U0DBUF
//   35 #define UxBAUD                     U0BAUD
//   36 #define UxGCR                      U0GCR
//   37 #define URXxIE                     URX0IE
//   38 #define URXxIF                     URX0IF
//   39 #define UTXxIE                     UTX0IE
//   40 #define UTXxIF                     UTX0IF
//   41 #else
//   42 #define PxOUT                      P1
//   43 #define PxDIR                      P1DIR
//   44 #define PxSEL                      P1SEL
//   45 #define UxCSR                      U1CSR
//   46 #define UxUCR                      U1UCR
//   47 #define UxDBUF                     U1DBUF
//   48 #define UxBAUD                     U1BAUD
//   49 #define UxGCR                      U1GCR
//   50 #define URXxIE                     URX1IE
//   51 #define URXxIF                     URX1IF
//   52 #define UTXxIE                     UTX1IE
//   53 #define UTXxIF                     UTX1IF
//   54 #endif
//   55 
//   56 #if (DEBUG_PORT == 0)
//   57 #define HAL_UART_PERCFG_BIT        0x01         // USART0 on P0, Alt-1; so clear this bit.
//   58 #define HAL_UART_Px_RX_TX          0x0C         // Peripheral I/O Select for Rx/Tx.
//   59 #define HAL_UART_Px_RTS            0x20         // Peripheral I/O Select for RTS.
//   60 #define HAL_UART_Px_CTS            0x10         // Peripheral I/O Select for CTS.
//   61 #define HAL_UART_PRIPO             0x00
//   62 #else
//   63 #define HAL_UART_PERCFG_BIT        0x02         // USART1 on P1, Alt-2; so set this bit.
//   64 #define HAL_UART_Px_RTS            0x20         // Peripheral I/O Select for RTS.
//   65 #define HAL_UART_Px_CTS            0x10         // Peripheral I/O Select for CTS.
//   66 #define HAL_UART_Px_RX_TX          0xc0         // Peripheral I/O Select for Rx/Tx.
//   67 #define HAL_UART_PRIPO             0x40
//   68 #endif
//   69 
//   70 
//   71 static void UartInit(void)
//   72 {
//   73 	// Set P2 priority - USART0 over USART1 if both are defined.
//   74 	P2DIR &= ~P2DIR_PRIPO;
//   75 	P2DIR |= HAL_UART_PRIPO;
//   76 
//   77 #if (DEBUG_PORT == 0)
//   78 	PERCFG &= ~HAL_UART_PERCFG_BIT;    // Set UART0 I/O location to P0.
//   79 #else
//   80 	PERCFG |= HAL_UART_PERCFG_BIT;     // Set UART1 I/O location to P1.
//   81 //	PERCFG &= ~HAL_UART_PERCFG_BIT;    // Set UART1 I/O location to P0.
//   82 #endif
//   83 //	PxSEL &=~0x3c;
//   84 	PxSEL  |= HAL_UART_Px_RX_TX;       // Enable Tx and Rx on P1.
//   85 	ADCCFG &= ~HAL_UART_Px_RX_TX;      // Make sure ADC doesnt use this.
//   86 	UxCSR = CSR_MODE;                  // Mode is UART Mode.
//   87 	UxUCR = UCR_FLUSH;                 // Flush it.
//   88 	UTXxIF = 0;
//   89 	//UxGCR |= 11;				       
//   90 }

        RSEG BANKED_CODE:CODE:NOROOT(0)
//   91 void UartOpen(halUARTCfg_t *config)
UartOpen:
        CFI Block cfiBlock0 Using cfiCommon0
        CFI Function UartOpen
        CODE
//   92 {
        PUSH    DPL
        CFI DPL0 Frame(CFA_SP, 4)
        CFI CFA_SP SP+-4
        PUSH    DPH
        CFI DPH0 Frame(CFA_SP, 5)
        CFI CFA_SP SP+-5
        ; Saved register size: 2
        ; Auto size: 0
//   93 	UartInit();
        ANL     0xff,#0x3f
        ORL     0xff,#0x40
        ORL     0xf1,#0x2
        ORL     0xf4,#0xc0
        ANL     0xf2,#0x3f
        MOV     0xf8,#-0x80
        MOV     0xfb,#-0x80
        CLR     0xe8.2
//   94 	//isrCfg.uartCB = config->callBackFunc;
//   95 	// Only supporting subset of baudrate for code size - other is possible.
//   96 	//HAL_UART_ASSERT((config->baudRate == HAL_UART_BR_9600) ||
//   97 	//                (config->baudRate == HAL_UART_BR_19200) ||
//   98 	//                (config->baudRate == HAL_UART_BR_38400) ||
//   99 	//                (config->baudRate == HAL_UART_BR_57600) ||
//  100 	//                (config->baudRate == HAL_UART_BR_115200));
//  101 	//
//  102 	if (config->baudRate == HAL_UART_BR_57600 ||
//  103 			config->baudRate == HAL_UART_BR_115200)
        MOV     DPL,R2
        MOV     DPH,R3
        INC     DPTR
        MOVX    A,@DPTR
        XRL     A,#0x3
        JZ      ??UartOpen_0
        MOV     DPL,R2
        MOV     DPH,R3
        INC     DPTR
        MOVX    A,@DPTR
        XRL     A,#0x4
        JNZ     ??UartOpen_1
//  104 	{
//  105 		UxBAUD = 216;
??UartOpen_0:
        MOV     0xfa,#-0x28
        SJMP    ??UartOpen_2
//  106 	}
//  107 	else
//  108 	{
//  109 		UxBAUD = 59;
??UartOpen_1:
        MOV     0xfa,#0x3b
//  110 	}
//  111 	
//  112 	switch (config->baudRate)
??UartOpen_2:
        MOV     DPL,R2
        MOV     DPH,R3
        INC     DPTR
        MOVX    A,@DPTR
        JZ      ??UartOpen_3
        DEC     A
        JZ      ??UartOpen_4
        DEC     A
        JZ      ??UartOpen_5
        DEC     A
        JZ      ??UartOpen_5
        SJMP    ??UartOpen_6
//  113 	{
//  114 		case HAL_UART_BR_9600:
//  115 			UxGCR = 8;
??UartOpen_3:
        MOV     0xfc,#0x8
//  116 			break;
        SJMP    ??UartOpen_7
//  117 		case HAL_UART_BR_19200:
//  118 			UxGCR = 9;
??UartOpen_4:
        MOV     0xfc,#0x9
//  119 			break;
        SJMP    ??UartOpen_7
//  120 		case HAL_UART_BR_38400:
//  121 		case HAL_UART_BR_57600:
//  122 			UxGCR = 10;
??UartOpen_5:
        MOV     0xfc,#0xa
//  123 			break;
        SJMP    ??UartOpen_7
//  124 		default:
//  125 			UxGCR = 11;
??UartOpen_6:
        MOV     0xfc,#0xb
//  126 			break;
//  127 	}
//  128 
//  129 	// 8 bits/char; no parity; 1 stop bit; stop bit hi.
//  130 	if (config->flowControl)
??UartOpen_7:
        MOV     DPL,R2
        MOV     DPH,R3
        INC     DPTR
        INC     DPTR
        MOVX    A,@DPTR
        JZ      ??UartOpen_8
//  131 	{
//  132 		UxUCR = UCR_FLOW | UCR_STOP;
        MOV     0xfb,#0x42
//  133 		PxSEL |= HAL_UART_Px_RTS | HAL_UART_Px_CTS;
        ORL     0xf4,#0x30
        SJMP    ??UartOpen_9
//  134 	}
//  135 	else
//  136 	{
//  137 		UxUCR |= UCR_STOP;
??UartOpen_8:
        ORL     0xfb,#0x2
//  138 	}
//  139 
//  140 	UxCSR |= CSR_RE;
??UartOpen_9:
        SETB    0xf8.6
//  141 	URXxIE = 1;
        SETB    0xa8.3
        CFI EndBlock cfiBlock0
//  142 	//UTXxIF = 1;  // Prime the ISR pump.
//  143 }
        REQUIRE ?Subroutine0
        REQUIRE U1BAUD
        REQUIRE U1GCR
        REQUIRE U1UCR
        REQUIRE P1SEL
        REQUIRE _A_U1CSR
        REQUIRE _A_IEN0
        REQUIRE P2DIR
        REQUIRE PERCFG
        REQUIRE ADCCFG
        REQUIRE _A_IRCON2
        ; // Fall through to label ?Subroutine0

        RSEG BANKED_CODE:CODE:NOROOT(0)
?Subroutine0:
        CFI Block cfiBlock1 Using cfiCommon0
        CFI NoFunction
        CFI CFA_SP SP+-5
        CFI DPL0 Frame(CFA_SP, 4)
        CFI DPH0 Frame(CFA_SP, 5)
        POP     DPH
        CFI CFA_SP SP+-4
        CFI DPH0 SameValue
        POP     DPL
        CFI CFA_SP SP+-3
        CFI DPL0 SameValue
        LJMP    ?BRET
        CFI EndBlock cfiBlock1

        RSEG BANKED_CODE:CODE:NOROOT(0)
//  144 uint16 UartSend(uint8 *buf, uint16 len)
UartSend:
        CFI Block cfiBlock2 Using cfiCommon0
        CFI Function UartSend
        CODE
//  145 {
        MOV     A,#-0x9
        LCALL   ?BANKED_ENTER_XDATA
        CFI DPH0 load(1, XDATA, add(CFA_XSP16, literal(-1)))
        CFI DPL0 load(1, XDATA, add(CFA_XSP16, literal(-2)))
        CFI ?BRET_EXT load(1, XDATA, add(CFA_XSP16, literal(-3)))
        CFI ?RET_HIGH load(1, XDATA, add(CFA_XSP16, literal(-4)))
        CFI ?RET_LOW load(1, XDATA, add(CFA_XSP16, literal(-5)))
        CFI R7 load(1, XDATA, add(CFA_XSP16, literal(-6)))
        CFI V0 load(1, XDATA, add(CFA_XSP16, literal(-7)))
        CFI VB load(1, XDATA, add(CFA_XSP16, literal(-8)))
        CFI R6 load(1, XDATA, add(CFA_XSP16, literal(-9)))
        CFI CFA_SP SP+0
        CFI CFA_XSP16 add(XSP16, 9)
        ; Saved register size: 9
        ; Auto size: 0
//  146 	uint16 cnt;
//  147         uint8 res = 0;
//  148 
//  149 //hile(UxCSR&0x01 != 0);
//  150 	for (cnt = 0; cnt < len; cnt++)
        MOV     R0,#0x0
        MOV     R1,#0x0
        SJMP    ??UartSend_0
//  151 	{
//  152 		UxDBUF = *buf++;
??UartSend_1:
        MOV     DPL,R2
        MOV     DPH,R3
        MOVX    A,@DPTR
        MOV     0xf9,A
        INC     DPTR
        MOV     R2,DPL
        MOV     R3,DPH
//  153                 res = *buf;
//  154    	    while(UTXxIF == 0);
??UartSend_2:
        MOV     C,0xe8.2
        JNC     ??UartSend_2
//  155       		UTXxIF = 0;		
        CLR     0xe8.2
//  156 	}
        MOV     A,R0
        ADD     A,#0x1
        INC     R0
        MOV     A,R1
        ADDC    A,#0x0
        MOV     R1,A
??UartSend_0:
        CLR     C
        MOV     A,R0
        SUBB    A,R4
        MOV     A,R1
        SUBB    A,R5
        JC      ??UartSend_1
//  157 
//  158 
//  159 	return cnt;
        MOV     A,R0
        MOV     R2,A
        MOV     A,R1
        MOV     R3,A
        CFI EndBlock cfiBlock2
        REQUIRE ?Subroutine1
        REQUIRE U1DBUF
        REQUIRE _A_IRCON2
        ; // Fall through to label ?Subroutine1
//  160 }

        RSEG BANKED_CODE:CODE:NOROOT(0)
?Subroutine1:
        CFI Block cfiBlock3 Using cfiCommon0
        CFI NoFunction
        CFI CFA_SP SP+0
        CFI CFA_XSP16 add(XSP16, 9)
        CFI VB load(1, XDATA, add(CFA_XSP16, literal(-8)))
        CFI DPL0 load(1, XDATA, add(CFA_XSP16, literal(-2)))
        CFI DPH0 load(1, XDATA, add(CFA_XSP16, literal(-1)))
        CFI R6 load(1, XDATA, add(CFA_XSP16, literal(-9)))
        CFI R7 load(1, XDATA, add(CFA_XSP16, literal(-6)))
        CFI V0 load(1, XDATA, add(CFA_XSP16, literal(-7)))
        CFI ?BRET_EXT load(1, XDATA, add(CFA_XSP16, literal(-3)))
        CFI ?RET_HIGH load(1, XDATA, add(CFA_XSP16, literal(-4)))
        CFI ?RET_LOW load(1, XDATA, add(CFA_XSP16, literal(-5)))
        MOV     R7,#0x1
        LJMP    ?BANKED_LEAVE_XDATA
        CFI EndBlock cfiBlock3

        RSEG BANKED_CODE:CODE:NOROOT(0)
//  161 uint16 UartSend2(uint8 *buf, uint16 len)
UartSend2:
        CFI Block cfiBlock4 Using cfiCommon0
        CFI Function UartSend2
        CODE
//  162 {
        FUNCALL UartSend2, HalUARTWrite
        LOCFRAME ISTACK, 2, STACK
        LOCFRAME PSTACK, 0, STACK
        LOCFRAME XSTACK, 0, STACK
        LOCFRAME IOVERLAY, 0, STATIC
        LOCFRAME DOVERLAY, 0, STATIC
        ARGFRAME ISTACK, 2, STACK
        ARGFRAME PSTACK, 0, STACK
        ARGFRAME XSTACK, 0, STACK
        ARGFRAME IOVERLAY, 0, STATIC
        ARGFRAME DOVERLAY, 0, STATIC
        PUSH    DPL
        CFI DPL0 Frame(CFA_SP, 4)
        CFI CFA_SP SP+-4
        PUSH    DPH
        CFI DPH0 Frame(CFA_SP, 5)
        CFI CFA_SP SP+-5
        ; Saved register size: 2
        ; Auto size: 0
//  163 	HalUARTWrite(DEBUG_PORT,buf,len);
        ; Setup parameters for call to function HalUARTWrite
        MOV     R1,#0x1
        LCALL   ??HalUARTWrite?relay
//  164 }
        SJMP    ?Subroutine0
        CFI EndBlock cfiBlock4
//  165 
//  166 #endif
//  167 #if 1

        RSEG XDATA_Z:XDATA:NOROOT(0)
        DATA8
//  168 XDATA static char strTemp_gen[70] = {0};//用于调试输出
strTemp_gen:
        DS 70
        REQUIRE __INIT_XDATA_Z

        RSEG BANKED_CODE:CODE:NOROOT(0)
//  169 char ChDebugHex(const char *format,unsigned int hex)
ChDebugHex:
        CFI Block cfiBlock5 Using cfiCommon0
        CFI Function ChDebugHex
        CODE
//  170 {
        FUNCALL ChDebugHex, strlen
        LOCFRAME ISTACK, 0, STACK
        LOCFRAME PSTACK, 0, STACK
        LOCFRAME XSTACK, 16, STACK
        LOCFRAME IOVERLAY, 0, STATIC
        LOCFRAME DOVERLAY, 0, STATIC
        ARGFRAME ISTACK, 0, STACK
        ARGFRAME PSTACK, 0, STACK
        ARGFRAME XSTACK, 16, STACK
        ARGFRAME IOVERLAY, 0, STATIC
        ARGFRAME DOVERLAY, 0, STATIC
        FUNCALL ChDebugHex, UartSend
        LOCFRAME ISTACK, 0, STACK
        LOCFRAME PSTACK, 0, STACK
        LOCFRAME XSTACK, 16, STACK
        LOCFRAME IOVERLAY, 0, STATIC
        LOCFRAME DOVERLAY, 0, STATIC
        ARGFRAME ISTACK, 0, STACK
        ARGFRAME PSTACK, 0, STACK
        ARGFRAME XSTACK, 16, STACK
        ARGFRAME IOVERLAY, 0, STATIC
        ARGFRAME DOVERLAY, 0, STATIC
        MOV     A,#-0x10
        LCALL   ?BANKED_ENTER_XDATA
        CFI DPH0 load(1, XDATA, add(CFA_XSP16, literal(-1)))
        CFI DPL0 load(1, XDATA, add(CFA_XSP16, literal(-2)))
        CFI ?BRET_EXT load(1, XDATA, add(CFA_XSP16, literal(-3)))
        CFI ?RET_HIGH load(1, XDATA, add(CFA_XSP16, literal(-4)))
        CFI ?RET_LOW load(1, XDATA, add(CFA_XSP16, literal(-5)))
        CFI R7 load(1, XDATA, add(CFA_XSP16, literal(-6)))
        CFI V7 load(1, XDATA, add(CFA_XSP16, literal(-7)))
        CFI V6 load(1, XDATA, add(CFA_XSP16, literal(-8)))
        CFI V5 load(1, XDATA, add(CFA_XSP16, literal(-9)))
        CFI V4 load(1, XDATA, add(CFA_XSP16, literal(-10)))
        CFI V3 load(1, XDATA, add(CFA_XSP16, literal(-11)))
        CFI V2 load(1, XDATA, add(CFA_XSP16, literal(-12)))
        CFI V1 load(1, XDATA, add(CFA_XSP16, literal(-13)))
        CFI V0 load(1, XDATA, add(CFA_XSP16, literal(-14)))
        CFI VB load(1, XDATA, add(CFA_XSP16, literal(-15)))
        CFI R6 load(1, XDATA, add(CFA_XSP16, literal(-16)))
        CFI CFA_SP SP+0
        CFI CFA_XSP16 add(XSP16, 16)
        ; Saved register size: 16
        ; Auto size: 0
        MOV     ?V0 + 0,R2
        MOV     ?V0 + 1,R3
        MOV     ?V0 + 2,R4
        MOV     ?V0 + 3,R5
//  171 	int i;
//  172 	int indexDest = 0;
        MOV     R6,#0x0
        MOV     R7,#0x0
//  173 	char err=0;
//  174 	int len = strlen(format);
        ; Setup parameters for call to function strlen
        LCALL   ??strlen?relay
        MOV     ?V0 + 4,R2
        MOV     ?V0 + 5,R3
//  175 	//strcpy(strTemp_gen,format);
//  176 	for(i=0;i<len;i++)
        MOV     R2,#0x0
        MOV     R3,#0x0
        SJMP    ??CrossCallReturnLabel_10
//  177 		if(format[i] == '%')
//  178 		{
//  179 			if(format[i+1] == 'x')// %x
//  180 			{
//  181 				strTemp_gen[indexDest++] = '0';
//  182 				strTemp_gen[indexDest++] = 'x';
//  183 				{
//  184 					int k;
//  185 					char isNotZeroStart=0;
//  186 					for(k=7;k>=0;k--)
//  187 					{
//  188 						unsigned char c = ((hex>>(4*k))&0x0f);
//  189 						if(c == 0 && ! isNotZeroStart && k != 0)
//  190 							continue;
//  191 						isNotZeroStart = 1;
//  192 						if(c<10)
//  193 							strTemp_gen[indexDest++] = c + '0';
//  194 						else
//  195 							strTemp_gen[indexDest++] = c + 'A' - 10;
//  196 					}
//  197 				}
//  198 				i+=2-1;
//  199 			}
//  200 			/*
//  201 			else if((format[i+1] >= '1' && format[i+1] <= '9') 
//  202 				&& format[i+2] == 'x') // %4x
//  203 			{
//  204 				{
//  205 					char num = format[i+1] - '0';
//  206 					int k;
//  207 					strTemp_gen[indexDest++] = '0';
//  208 					strTemp_gen[indexDest++] = 'x';
//  209 					for(k=num-1;k>=0;k--)
//  210 					{
//  211 						char c = ((hex>>(4*k))&0x0f);
//  212 
//  213 						if(c == 0)
//  214 							strTemp_gen[indexDest++] = ' ';
//  215 						else if(c<10)
//  216 							strTemp_gen[indexDest++] = c + '0';
//  217 						else
//  218 							strTemp_gen[indexDest++] = c + 'A' - 10;
//  219 					}
//  220 				}
//  221 				i+=3-1;
//  222 				
//  223 			}
//  224 			*/
//  225 			else if(format[i+1] == '0'
//  226 				&&(format[i+2] >= '1' && format[i+2] <= '9') 
//  227 				&& format[i+3] == 'x') // %04x
//  228 			{
//  229 				{
//  230 					char num = format[i+2] - '0';
//  231 					int k;
//  232 					strTemp_gen[indexDest++] = '0';
//  233 					strTemp_gen[indexDest++] = 'x';
//  234 					for(k=num-1;k>=0;k--)
//  235 					{
//  236 						char c = ((hex>>(4*k))&0x0f);
//  237 
//  238 						if(c<10)
//  239 							strTemp_gen[indexDest++] = c + '0';
//  240 						else
//  241 							strTemp_gen[indexDest++] = c + 'A' - 10;
//  242 					}
//  243 				}
//  244 				i+=4-1;
//  245 				
//  246 			}
//  247 			else
//  248 				strTemp_gen[indexDest++] = format[i];
??ChDebugHex_0:
        LCALL   ?Subroutine13 & 0xFFFF
??CrossCallReturnLabel_27:
        PUSH    A
        CFI CFA_SP SP+-1
        LCALL   ?Subroutine16 & 0xFFFF
??CrossCallReturnLabel_33:
        POP     A
        CFI CFA_SP SP+0
        LCALL   ?Subroutine5 & 0xFFFF
??CrossCallReturnLabel_4:
        LCALL   ?Subroutine6 & 0xFFFF
??CrossCallReturnLabel_10:
        CLR     C
        MOV     A,R2
        SUBB    A,?V0 + 4
        MOV     A,R3
        SUBB    A,?V0 + 5
        MOV     C,0xD0 /* PSW */.2
        XRL     A,PSW
        RLC     A
        JC      $+5
        LJMP    ??ChDebugHex_1 & 0xFFFF
        LCALL   ?Subroutine13 & 0xFFFF
??CrossCallReturnLabel_28:
        XRL     A,#0x25
        JNZ     ??ChDebugHex_0
        INC     DPTR
        MOVX    A,@DPTR
        XRL     A,#0x78
        JNZ     ??ChDebugHex_2
        LCALL   ?Subroutine4 & 0xFFFF
??CrossCallReturnLabel_2:
        MOV     R1,#0x0
        MOV     R4,#0x7
        MOV     R5,#0x0
??ChDebugHex_3:
        MOV     ?V0 + 6,?V0 + 2
        MOV     ?V0 + 7,?V0 + 3
        MOV     A,R4
        RLC     A
        RLC     A
        ANL     A,#0xfc
        MOV     R0,#?V0 + 6
        LCALL   ?US_SHR
        MOV     A,?V0 + 6
        ANL     A,#0xf
        MOV     R0,A
        JNZ     ??ChDebugHex_4
        MOV     A,R1
        MOV     C,0xE0 /* A   */.0
        JC      ??ChDebugHex_4
        MOV     A,R4
        ORL     A,R5
        JNZ     ??CrossCallReturnLabel_5
??ChDebugHex_4:
        MOV     R1,#0x1
        MOV     A,R0
        CLR     C
        SUBB    A,#0xa
        JNC     ??ChDebugHex_5
        MOV     A,#0x30
        SJMP    ??ChDebugHex_6
??ChDebugHex_5:
        MOV     A,#0x37
??ChDebugHex_6:
        ADD     A,R0
        PUSH    A
        CFI CFA_SP SP+-1
        LCALL   ?Subroutine16 & 0xFFFF
??CrossCallReturnLabel_34:
        POP     A
        CFI CFA_SP SP+0
        LCALL   ?Subroutine5 & 0xFFFF
??CrossCallReturnLabel_5:
        MOV     A,R4
        ADD     A,#-0x1
        DEC     R4
        MOV     A,R5
        ADDC    A,#-0x1
        MOV     R5,A
        CLR     C
        SUBB    A,#0x0
        MOV     C,0xD0 /* PSW */.2
        XRL     A,PSW
        RLC     A
        JNC     ??ChDebugHex_3
        MOV     A,R2
        ADD     A,#0x1
??ChDebugHex_7:
        INC     R2
        MOV     A,R3
        ADDC    A,#0x0
        MOV     R3,A
        SJMP    ??CrossCallReturnLabel_4
??ChDebugHex_2:
        LCALL   ?Subroutine14 & 0xFFFF
??CrossCallReturnLabel_29:
        MOVX    A,@DPTR
        XRL     A,#0x30
        JZ      $+5
        LJMP    ??ChDebugHex_0 & 0xFFFF
        LCALL   ?Subroutine9 & 0xFFFF
??CrossCallReturnLabel_19:
        ADD     A,#-0x31
        CLR     C
        SUBB    A,#0x9
        JC      $+5
        LJMP    ??ChDebugHex_0 & 0xFFFF
        LCALL   ?Subroutine14 & 0xFFFF
??CrossCallReturnLabel_30:
        INC     DPTR
        INC     DPTR
        MOVX    A,@DPTR
        XRL     A,#0x78
        JZ      $+5
        LJMP    ??ChDebugHex_0 & 0xFFFF
        LCALL   ?Subroutine9 & 0xFFFF
??CrossCallReturnLabel_20:
        ADD     A,#-0x30
        MOV     ?V0 + 6,A
        LCALL   ?Subroutine4 & 0xFFFF
??CrossCallReturnLabel_3:
        MOV     A,?V0 + 6
        ADD     A,#-0x1
        MOV     R4,A
        CLR     A
        SJMP    ??ChDebugHex_8
??ChDebugHex_9:
        MOV     A,#0x37
??ChDebugHex_10:
        ADD     A,R0
        PUSH    A
        CFI CFA_SP SP+-1
        LCALL   ?Subroutine16 & 0xFFFF
??CrossCallReturnLabel_35:
        POP     A
        CFI CFA_SP SP+0
        LCALL   ?Subroutine5 & 0xFFFF
??CrossCallReturnLabel_6:
        MOV     A,R4
        ADD     A,#-0x1
        DEC     R4
        MOV     A,R5
??ChDebugHex_8:
        ADDC    A,#-0x1
        MOV     R5,A
        CLR     C
        MOV     A,R5
        SUBB    A,#0x0
        MOV     C,0xD0 /* PSW */.2
        XRL     A,PSW
        RLC     A
        JC      ??ChDebugHex_11
        MOV     ?V0 + 6,?V0 + 2
        MOV     ?V0 + 7,?V0 + 3
        MOV     A,R4
        RLC     A
        RLC     A
        ANL     A,#0xfc
        MOV     R0,#?V0 + 6
        LCALL   ?US_SHR
        MOV     A,?V0 + 6
        ANL     A,#0xf
        MOV     R0,A
        CLR     C
        SUBB    A,#0xa
        JNC     ??ChDebugHex_9
        MOV     A,#0x30
        SJMP    ??ChDebugHex_10
??ChDebugHex_11:
        MOV     A,R2
        ADD     A,#0x3
        INC     R2
        INC     R2
        LJMP    ??ChDebugHex_7 & 0xFFFF
//  249 
//  250 		}
//  251 		else
//  252 			strTemp_gen[indexDest++] = format[i];
//  253 	//strTemp_gen[indexDest++] = 0;
//  254 	UartSend(strTemp_gen,indexDest);
??ChDebugHex_1:
        ; Setup parameters for call to function UartSend
        MOV     A,R6
        MOV     R4,A
        MOV     A,R7
        MOV     R5,A
        LCALL   ?Subroutine18 & 0xFFFF
//  255 	return err;
??CrossCallReturnLabel_59:
        MOV     R7,#0x8
        LJMP    ?BANKED_LEAVE_XDATA
        CFI EndBlock cfiBlock5
//  256 }

        RSEG BANKED_CODE:CODE:NOROOT(0)
?Subroutine14:
        CFI Block cfiCond6 Using cfiCommon0
        CFI NoFunction
        CFI Conditional ??CrossCallReturnLabel_29
        CFI R6 load(1, XDATA, add(CFA_XSP16, literal(-16)))
        CFI VB load(1, XDATA, add(CFA_XSP16, literal(-15)))
        CFI V0 load(1, XDATA, add(CFA_XSP16, literal(-14)))
        CFI V1 load(1, XDATA, add(CFA_XSP16, literal(-13)))
        CFI V2 load(1, XDATA, add(CFA_XSP16, literal(-12)))
        CFI V3 load(1, XDATA, add(CFA_XSP16, literal(-11)))
        CFI V4 load(1, XDATA, add(CFA_XSP16, literal(-10)))
        CFI V5 load(1, XDATA, add(CFA_XSP16, literal(-9)))
        CFI V6 load(1, XDATA, add(CFA_XSP16, literal(-8)))
        CFI V7 load(1, XDATA, add(CFA_XSP16, literal(-7)))
        CFI R7 load(1, XDATA, add(CFA_XSP16, literal(-6)))
        CFI ?RET_LOW load(1, XDATA, add(CFA_XSP16, literal(-5)))
        CFI ?RET_HIGH load(1, XDATA, add(CFA_XSP16, literal(-4)))
        CFI ?BRET_EXT load(1, XDATA, add(CFA_XSP16, literal(-3)))
        CFI DPL0 load(1, XDATA, add(CFA_XSP16, literal(-2)))
        CFI DPH0 load(1, XDATA, add(CFA_XSP16, literal(-1)))
        CFI CFA_SP SP+0
        CFI CFA_XSP16 add(XSP16, 16)
        CFI Block cfiCond7 Using cfiCommon0
        CFI (cfiCond7) NoFunction
        CFI (cfiCond7) Conditional ??CrossCallReturnLabel_30
        CFI (cfiCond7) R6 load(1, XDATA, add(CFA_XSP16, literal(-16)))
        CFI (cfiCond7) VB load(1, XDATA, add(CFA_XSP16, literal(-15)))
        CFI (cfiCond7) V0 load(1, XDATA, add(CFA_XSP16, literal(-14)))
        CFI (cfiCond7) V1 load(1, XDATA, add(CFA_XSP16, literal(-13)))
        CFI (cfiCond7) V2 load(1, XDATA, add(CFA_XSP16, literal(-12)))
        CFI (cfiCond7) V3 load(1, XDATA, add(CFA_XSP16, literal(-11)))
        CFI (cfiCond7) V4 load(1, XDATA, add(CFA_XSP16, literal(-10)))
        CFI (cfiCond7) V5 load(1, XDATA, add(CFA_XSP16, literal(-9)))
        CFI (cfiCond7) V6 load(1, XDATA, add(CFA_XSP16, literal(-8)))
        CFI (cfiCond7) V7 load(1, XDATA, add(CFA_XSP16, literal(-7)))
        CFI (cfiCond7) R7 load(1, XDATA, add(CFA_XSP16, literal(-6)))
        CFI (cfiCond7) ?RET_LOW load(1, XDATA, add(CFA_XSP16, literal(-5)))
        CFI (cfiCond7) ?RET_HIGH load(1, XDATA, add(CFA_XSP16, literal(-4)))
        CFI (cfiCond7) ?BRET_EXT load(1, XDATA, add(CFA_XSP16, literal(-3)))
        CFI (cfiCond7) DPL0 load(1, XDATA, add(CFA_XSP16, literal(-2)))
        CFI (cfiCond7) DPH0 load(1, XDATA, add(CFA_XSP16, literal(-1)))
        CFI (cfiCond7) CFA_SP SP+0
        CFI (cfiCond7) CFA_XSP16 add(XSP16, 16)
        CFI Block cfiPicker8 Using cfiCommon1
        CFI (cfiPicker8) NoFunction
        CFI (cfiPicker8) Picker
        LCALL   ?Subroutine24 & 0xFFFF
??CrossCallReturnLabel_54:
        RET
        CFI EndBlock cfiCond6
        CFI EndBlock cfiCond7
        CFI EndBlock cfiPicker8

        RSEG BANKED_CODE:CODE:NOROOT(0)
?Subroutine24:
        CFI Block cfiCond9 Using cfiCommon0
        CFI NoFunction
        CFI Conditional ??CrossCallReturnLabel_54, ??CrossCallReturnLabel_29
        CFI R6 load(1, XDATA, add(CFA_XSP16, literal(-16)))
        CFI VB load(1, XDATA, add(CFA_XSP16, literal(-15)))
        CFI V0 load(1, XDATA, add(CFA_XSP16, literal(-14)))
        CFI V1 load(1, XDATA, add(CFA_XSP16, literal(-13)))
        CFI V2 load(1, XDATA, add(CFA_XSP16, literal(-12)))
        CFI V3 load(1, XDATA, add(CFA_XSP16, literal(-11)))
        CFI V4 load(1, XDATA, add(CFA_XSP16, literal(-10)))
        CFI V5 load(1, XDATA, add(CFA_XSP16, literal(-9)))
        CFI V6 load(1, XDATA, add(CFA_XSP16, literal(-8)))
        CFI V7 load(1, XDATA, add(CFA_XSP16, literal(-7)))
        CFI R7 load(1, XDATA, add(CFA_XSP16, literal(-6)))
        CFI ?RET_LOW load(1, XDATA, add(CFA_XSP16, literal(-5)))
        CFI ?RET_HIGH load(1, XDATA, add(CFA_XSP16, literal(-4)))
        CFI ?BRET_EXT load(1, XDATA, add(CFA_XSP16, literal(-3)))
        CFI DPL0 load(1, XDATA, add(CFA_XSP16, literal(-2)))
        CFI DPH0 load(1, XDATA, add(CFA_XSP16, literal(-1)))
        CFI CFA_SP SP+0
        CFI CFA_XSP16 add(XSP16, 16)
        CFI Block cfiCond10 Using cfiCommon0
        CFI (cfiCond10) NoFunction
        CFI (cfiCond10) Conditional ??CrossCallReturnLabel_54, ??CrossCallReturnLabel_30
        CFI (cfiCond10) R6 load(1, XDATA, add(CFA_XSP16, literal(-16)))
        CFI (cfiCond10) VB load(1, XDATA, add(CFA_XSP16, literal(-15)))
        CFI (cfiCond10) V0 load(1, XDATA, add(CFA_XSP16, literal(-14)))
        CFI (cfiCond10) V1 load(1, XDATA, add(CFA_XSP16, literal(-13)))
        CFI (cfiCond10) V2 load(1, XDATA, add(CFA_XSP16, literal(-12)))
        CFI (cfiCond10) V3 load(1, XDATA, add(CFA_XSP16, literal(-11)))
        CFI (cfiCond10) V4 load(1, XDATA, add(CFA_XSP16, literal(-10)))
        CFI (cfiCond10) V5 load(1, XDATA, add(CFA_XSP16, literal(-9)))
        CFI (cfiCond10) V6 load(1, XDATA, add(CFA_XSP16, literal(-8)))
        CFI (cfiCond10) V7 load(1, XDATA, add(CFA_XSP16, literal(-7)))
        CFI (cfiCond10) R7 load(1, XDATA, add(CFA_XSP16, literal(-6)))
        CFI (cfiCond10) ?RET_LOW load(1, XDATA, add(CFA_XSP16, literal(-5)))
        CFI (cfiCond10) ?RET_HIGH load(1, XDATA, add(CFA_XSP16, literal(-4)))
        CFI (cfiCond10) ?BRET_EXT load(1, XDATA, add(CFA_XSP16, literal(-3)))
        CFI (cfiCond10) DPL0 load(1, XDATA, add(CFA_XSP16, literal(-2)))
        CFI (cfiCond10) DPH0 load(1, XDATA, add(CFA_XSP16, literal(-1)))
        CFI (cfiCond10) CFA_SP SP+0
        CFI (cfiCond10) CFA_XSP16 add(XSP16, 16)
        CFI Block cfiCond11 Using cfiCommon0
        CFI (cfiCond11) NoFunction
        CFI (cfiCond11) Conditional ??CrossCallReturnLabel_53, ??CrossCallReturnLabel_19
        CFI (cfiCond11) R6 load(1, XDATA, add(CFA_XSP16, literal(-16)))
        CFI (cfiCond11) VB load(1, XDATA, add(CFA_XSP16, literal(-15)))
        CFI (cfiCond11) V0 load(1, XDATA, add(CFA_XSP16, literal(-14)))
        CFI (cfiCond11) V1 load(1, XDATA, add(CFA_XSP16, literal(-13)))
        CFI (cfiCond11) V2 load(1, XDATA, add(CFA_XSP16, literal(-12)))
        CFI (cfiCond11) V3 load(1, XDATA, add(CFA_XSP16, literal(-11)))
        CFI (cfiCond11) V4 load(1, XDATA, add(CFA_XSP16, literal(-10)))
        CFI (cfiCond11) V5 load(1, XDATA, add(CFA_XSP16, literal(-9)))
        CFI (cfiCond11) V6 load(1, XDATA, add(CFA_XSP16, literal(-8)))
        CFI (cfiCond11) V7 load(1, XDATA, add(CFA_XSP16, literal(-7)))
        CFI (cfiCond11) R7 load(1, XDATA, add(CFA_XSP16, literal(-6)))
        CFI (cfiCond11) ?RET_LOW load(1, XDATA, add(CFA_XSP16, literal(-5)))
        CFI (cfiCond11) ?RET_HIGH load(1, XDATA, add(CFA_XSP16, literal(-4)))
        CFI (cfiCond11) ?BRET_EXT load(1, XDATA, add(CFA_XSP16, literal(-3)))
        CFI (cfiCond11) DPL0 load(1, XDATA, add(CFA_XSP16, literal(-2)))
        CFI (cfiCond11) DPH0 load(1, XDATA, add(CFA_XSP16, literal(-1)))
        CFI (cfiCond11) CFA_SP SP+0
        CFI (cfiCond11) CFA_XSP16 add(XSP16, 16)
        CFI Block cfiCond12 Using cfiCommon0
        CFI (cfiCond12) NoFunction
        CFI (cfiCond12) Conditional ??CrossCallReturnLabel_53, ??CrossCallReturnLabel_20
        CFI (cfiCond12) R6 load(1, XDATA, add(CFA_XSP16, literal(-16)))
        CFI (cfiCond12) VB load(1, XDATA, add(CFA_XSP16, literal(-15)))
        CFI (cfiCond12) V0 load(1, XDATA, add(CFA_XSP16, literal(-14)))
        CFI (cfiCond12) V1 load(1, XDATA, add(CFA_XSP16, literal(-13)))
        CFI (cfiCond12) V2 load(1, XDATA, add(CFA_XSP16, literal(-12)))
        CFI (cfiCond12) V3 load(1, XDATA, add(CFA_XSP16, literal(-11)))
        CFI (cfiCond12) V4 load(1, XDATA, add(CFA_XSP16, literal(-10)))
        CFI (cfiCond12) V5 load(1, XDATA, add(CFA_XSP16, literal(-9)))
        CFI (cfiCond12) V6 load(1, XDATA, add(CFA_XSP16, literal(-8)))
        CFI (cfiCond12) V7 load(1, XDATA, add(CFA_XSP16, literal(-7)))
        CFI (cfiCond12) R7 load(1, XDATA, add(CFA_XSP16, literal(-6)))
        CFI (cfiCond12) ?RET_LOW load(1, XDATA, add(CFA_XSP16, literal(-5)))
        CFI (cfiCond12) ?RET_HIGH load(1, XDATA, add(CFA_XSP16, literal(-4)))
        CFI (cfiCond12) ?BRET_EXT load(1, XDATA, add(CFA_XSP16, literal(-3)))
        CFI (cfiCond12) DPL0 load(1, XDATA, add(CFA_XSP16, literal(-2)))
        CFI (cfiCond12) DPH0 load(1, XDATA, add(CFA_XSP16, literal(-1)))
        CFI (cfiCond12) CFA_SP SP+0
        CFI (cfiCond12) CFA_XSP16 add(XSP16, 16)
        CFI Block cfiPicker13 Using cfiCommon1
        CFI (cfiPicker13) NoFunction
        CFI (cfiPicker13) Picker
        LCALL   ?Subroutine26 & 0xFFFF
??CrossCallReturnLabel_58:
        INC     DPTR
        RET
        CFI EndBlock cfiCond9
        CFI EndBlock cfiCond10
        CFI EndBlock cfiCond11
        CFI EndBlock cfiCond12
        CFI EndBlock cfiPicker13

        RSEG BANKED_CODE:CODE:NOROOT(0)
?Subroutine13:
        CFI Block cfiCond14 Using cfiCommon0
        CFI NoFunction
        CFI Conditional ??CrossCallReturnLabel_27
        CFI R6 load(1, XDATA, add(CFA_XSP16, literal(-16)))
        CFI VB load(1, XDATA, add(CFA_XSP16, literal(-15)))
        CFI V0 load(1, XDATA, add(CFA_XSP16, literal(-14)))
        CFI V1 load(1, XDATA, add(CFA_XSP16, literal(-13)))
        CFI V2 load(1, XDATA, add(CFA_XSP16, literal(-12)))
        CFI V3 load(1, XDATA, add(CFA_XSP16, literal(-11)))
        CFI V4 load(1, XDATA, add(CFA_XSP16, literal(-10)))
        CFI V5 load(1, XDATA, add(CFA_XSP16, literal(-9)))
        CFI V6 load(1, XDATA, add(CFA_XSP16, literal(-8)))
        CFI V7 load(1, XDATA, add(CFA_XSP16, literal(-7)))
        CFI R7 load(1, XDATA, add(CFA_XSP16, literal(-6)))
        CFI ?RET_LOW load(1, XDATA, add(CFA_XSP16, literal(-5)))
        CFI ?RET_HIGH load(1, XDATA, add(CFA_XSP16, literal(-4)))
        CFI ?BRET_EXT load(1, XDATA, add(CFA_XSP16, literal(-3)))
        CFI DPL0 load(1, XDATA, add(CFA_XSP16, literal(-2)))
        CFI DPH0 load(1, XDATA, add(CFA_XSP16, literal(-1)))
        CFI CFA_SP SP+0
        CFI CFA_XSP16 add(XSP16, 16)
        CFI Block cfiCond15 Using cfiCommon0
        CFI (cfiCond15) NoFunction
        CFI (cfiCond15) Conditional ??CrossCallReturnLabel_28
        CFI (cfiCond15) R6 load(1, XDATA, add(CFA_XSP16, literal(-16)))
        CFI (cfiCond15) VB load(1, XDATA, add(CFA_XSP16, literal(-15)))
        CFI (cfiCond15) V0 load(1, XDATA, add(CFA_XSP16, literal(-14)))
        CFI (cfiCond15) V1 load(1, XDATA, add(CFA_XSP16, literal(-13)))
        CFI (cfiCond15) V2 load(1, XDATA, add(CFA_XSP16, literal(-12)))
        CFI (cfiCond15) V3 load(1, XDATA, add(CFA_XSP16, literal(-11)))
        CFI (cfiCond15) V4 load(1, XDATA, add(CFA_XSP16, literal(-10)))
        CFI (cfiCond15) V5 load(1, XDATA, add(CFA_XSP16, literal(-9)))
        CFI (cfiCond15) V6 load(1, XDATA, add(CFA_XSP16, literal(-8)))
        CFI (cfiCond15) V7 load(1, XDATA, add(CFA_XSP16, literal(-7)))
        CFI (cfiCond15) R7 load(1, XDATA, add(CFA_XSP16, literal(-6)))
        CFI (cfiCond15) ?RET_LOW load(1, XDATA, add(CFA_XSP16, literal(-5)))
        CFI (cfiCond15) ?RET_HIGH load(1, XDATA, add(CFA_XSP16, literal(-4)))
        CFI (cfiCond15) ?BRET_EXT load(1, XDATA, add(CFA_XSP16, literal(-3)))
        CFI (cfiCond15) DPL0 load(1, XDATA, add(CFA_XSP16, literal(-2)))
        CFI (cfiCond15) DPH0 load(1, XDATA, add(CFA_XSP16, literal(-1)))
        CFI (cfiCond15) CFA_SP SP+0
        CFI (cfiCond15) CFA_XSP16 add(XSP16, 16)
        CFI Block cfiPicker16 Using cfiCommon1
        CFI (cfiPicker16) NoFunction
        CFI (cfiPicker16) Picker
        LCALL   ?Subroutine26 & 0xFFFF
??CrossCallReturnLabel_57:
        MOVX    A,@DPTR
        RET
        CFI EndBlock cfiCond14
        CFI EndBlock cfiCond15
        CFI EndBlock cfiPicker16

        RSEG BANKED_CODE:CODE:NOROOT(0)
?Subroutine26:
        CFI Block cfiCond17 Using cfiCommon0
        CFI NoFunction
        CFI Conditional ??CrossCallReturnLabel_58, ??CrossCallReturnLabel_54, ??CrossCallReturnLabel_29
        CFI R6 load(1, XDATA, add(CFA_XSP16, literal(-16)))
        CFI VB load(1, XDATA, add(CFA_XSP16, literal(-15)))
        CFI V0 load(1, XDATA, add(CFA_XSP16, literal(-14)))
        CFI V1 load(1, XDATA, add(CFA_XSP16, literal(-13)))
        CFI V2 load(1, XDATA, add(CFA_XSP16, literal(-12)))
        CFI V3 load(1, XDATA, add(CFA_XSP16, literal(-11)))
        CFI V4 load(1, XDATA, add(CFA_XSP16, literal(-10)))
        CFI V5 load(1, XDATA, add(CFA_XSP16, literal(-9)))
        CFI V6 load(1, XDATA, add(CFA_XSP16, literal(-8)))
        CFI V7 load(1, XDATA, add(CFA_XSP16, literal(-7)))
        CFI R7 load(1, XDATA, add(CFA_XSP16, literal(-6)))
        CFI ?RET_LOW load(1, XDATA, add(CFA_XSP16, literal(-5)))
        CFI ?RET_HIGH load(1, XDATA, add(CFA_XSP16, literal(-4)))
        CFI ?BRET_EXT load(1, XDATA, add(CFA_XSP16, literal(-3)))
        CFI DPL0 load(1, XDATA, add(CFA_XSP16, literal(-2)))
        CFI DPH0 load(1, XDATA, add(CFA_XSP16, literal(-1)))
        CFI CFA_SP SP+0
        CFI CFA_XSP16 add(XSP16, 16)
        CFI Block cfiCond18 Using cfiCommon0
        CFI (cfiCond18) NoFunction
        CFI (cfiCond18) Conditional ??CrossCallReturnLabel_58, ??CrossCallReturnLabel_54, ??CrossCallReturnLabel_30
        CFI (cfiCond18) R6 load(1, XDATA, add(CFA_XSP16, literal(-16)))
        CFI (cfiCond18) VB load(1, XDATA, add(CFA_XSP16, literal(-15)))
        CFI (cfiCond18) V0 load(1, XDATA, add(CFA_XSP16, literal(-14)))
        CFI (cfiCond18) V1 load(1, XDATA, add(CFA_XSP16, literal(-13)))
        CFI (cfiCond18) V2 load(1, XDATA, add(CFA_XSP16, literal(-12)))
        CFI (cfiCond18) V3 load(1, XDATA, add(CFA_XSP16, literal(-11)))
        CFI (cfiCond18) V4 load(1, XDATA, add(CFA_XSP16, literal(-10)))
        CFI (cfiCond18) V5 load(1, XDATA, add(CFA_XSP16, literal(-9)))
        CFI (cfiCond18) V6 load(1, XDATA, add(CFA_XSP16, literal(-8)))
        CFI (cfiCond18) V7 load(1, XDATA, add(CFA_XSP16, literal(-7)))
        CFI (cfiCond18) R7 load(1, XDATA, add(CFA_XSP16, literal(-6)))
        CFI (cfiCond18) ?RET_LOW load(1, XDATA, add(CFA_XSP16, literal(-5)))
        CFI (cfiCond18) ?RET_HIGH load(1, XDATA, add(CFA_XSP16, literal(-4)))
        CFI (cfiCond18) ?BRET_EXT load(1, XDATA, add(CFA_XSP16, literal(-3)))
        CFI (cfiCond18) DPL0 load(1, XDATA, add(CFA_XSP16, literal(-2)))
        CFI (cfiCond18) DPH0 load(1, XDATA, add(CFA_XSP16, literal(-1)))
        CFI (cfiCond18) CFA_SP SP+0
        CFI (cfiCond18) CFA_XSP16 add(XSP16, 16)
        CFI Block cfiCond19 Using cfiCommon0
        CFI (cfiCond19) NoFunction
        CFI (cfiCond19) Conditional ??CrossCallReturnLabel_58, ??CrossCallReturnLabel_53, ??CrossCallReturnLabel_19
        CFI (cfiCond19) R6 load(1, XDATA, add(CFA_XSP16, literal(-16)))
        CFI (cfiCond19) VB load(1, XDATA, add(CFA_XSP16, literal(-15)))
        CFI (cfiCond19) V0 load(1, XDATA, add(CFA_XSP16, literal(-14)))
        CFI (cfiCond19) V1 load(1, XDATA, add(CFA_XSP16, literal(-13)))
        CFI (cfiCond19) V2 load(1, XDATA, add(CFA_XSP16, literal(-12)))
        CFI (cfiCond19) V3 load(1, XDATA, add(CFA_XSP16, literal(-11)))
        CFI (cfiCond19) V4 load(1, XDATA, add(CFA_XSP16, literal(-10)))
        CFI (cfiCond19) V5 load(1, XDATA, add(CFA_XSP16, literal(-9)))
        CFI (cfiCond19) V6 load(1, XDATA, add(CFA_XSP16, literal(-8)))
        CFI (cfiCond19) V7 load(1, XDATA, add(CFA_XSP16, literal(-7)))
        CFI (cfiCond19) R7 load(1, XDATA, add(CFA_XSP16, literal(-6)))
        CFI (cfiCond19) ?RET_LOW load(1, XDATA, add(CFA_XSP16, literal(-5)))
        CFI (cfiCond19) ?RET_HIGH load(1, XDATA, add(CFA_XSP16, literal(-4)))
        CFI (cfiCond19) ?BRET_EXT load(1, XDATA, add(CFA_XSP16, literal(-3)))
        CFI (cfiCond19) DPL0 load(1, XDATA, add(CFA_XSP16, literal(-2)))
        CFI (cfiCond19) DPH0 load(1, XDATA, add(CFA_XSP16, literal(-1)))
        CFI (cfiCond19) CFA_SP SP+0
        CFI (cfiCond19) CFA_XSP16 add(XSP16, 16)
        CFI Block cfiCond20 Using cfiCommon0
        CFI (cfiCond20) NoFunction
        CFI (cfiCond20) Conditional ??CrossCallReturnLabel_58, ??CrossCallReturnLabel_53, ??CrossCallReturnLabel_20
        CFI (cfiCond20) R6 load(1, XDATA, add(CFA_XSP16, literal(-16)))
        CFI (cfiCond20) VB load(1, XDATA, add(CFA_XSP16, literal(-15)))
        CFI (cfiCond20) V0 load(1, XDATA, add(CFA_XSP16, literal(-14)))
        CFI (cfiCond20) V1 load(1, XDATA, add(CFA_XSP16, literal(-13)))
        CFI (cfiCond20) V2 load(1, XDATA, add(CFA_XSP16, literal(-12)))
        CFI (cfiCond20) V3 load(1, XDATA, add(CFA_XSP16, literal(-11)))
        CFI (cfiCond20) V4 load(1, XDATA, add(CFA_XSP16, literal(-10)))
        CFI (cfiCond20) V5 load(1, XDATA, add(CFA_XSP16, literal(-9)))
        CFI (cfiCond20) V6 load(1, XDATA, add(CFA_XSP16, literal(-8)))
        CFI (cfiCond20) V7 load(1, XDATA, add(CFA_XSP16, literal(-7)))
        CFI (cfiCond20) R7 load(1, XDATA, add(CFA_XSP16, literal(-6)))
        CFI (cfiCond20) ?RET_LOW load(1, XDATA, add(CFA_XSP16, literal(-5)))
        CFI (cfiCond20) ?RET_HIGH load(1, XDATA, add(CFA_XSP16, literal(-4)))
        CFI (cfiCond20) ?BRET_EXT load(1, XDATA, add(CFA_XSP16, literal(-3)))
        CFI (cfiCond20) DPL0 load(1, XDATA, add(CFA_XSP16, literal(-2)))
        CFI (cfiCond20) DPH0 load(1, XDATA, add(CFA_XSP16, literal(-1)))
        CFI (cfiCond20) CFA_SP SP+0
        CFI (cfiCond20) CFA_XSP16 add(XSP16, 16)
        CFI Block cfiCond21 Using cfiCommon0
        CFI (cfiCond21) NoFunction
        CFI (cfiCond21) Conditional ??CrossCallReturnLabel_57, ??CrossCallReturnLabel_27
        CFI (cfiCond21) R6 load(1, XDATA, add(CFA_XSP16, literal(-16)))
        CFI (cfiCond21) VB load(1, XDATA, add(CFA_XSP16, literal(-15)))
        CFI (cfiCond21) V0 load(1, XDATA, add(CFA_XSP16, literal(-14)))
        CFI (cfiCond21) V1 load(1, XDATA, add(CFA_XSP16, literal(-13)))
        CFI (cfiCond21) V2 load(1, XDATA, add(CFA_XSP16, literal(-12)))
        CFI (cfiCond21) V3 load(1, XDATA, add(CFA_XSP16, literal(-11)))
        CFI (cfiCond21) V4 load(1, XDATA, add(CFA_XSP16, literal(-10)))
        CFI (cfiCond21) V5 load(1, XDATA, add(CFA_XSP16, literal(-9)))
        CFI (cfiCond21) V6 load(1, XDATA, add(CFA_XSP16, literal(-8)))
        CFI (cfiCond21) V7 load(1, XDATA, add(CFA_XSP16, literal(-7)))
        CFI (cfiCond21) R7 load(1, XDATA, add(CFA_XSP16, literal(-6)))
        CFI (cfiCond21) ?RET_LOW load(1, XDATA, add(CFA_XSP16, literal(-5)))
        CFI (cfiCond21) ?RET_HIGH load(1, XDATA, add(CFA_XSP16, literal(-4)))
        CFI (cfiCond21) ?BRET_EXT load(1, XDATA, add(CFA_XSP16, literal(-3)))
        CFI (cfiCond21) DPL0 load(1, XDATA, add(CFA_XSP16, literal(-2)))
        CFI (cfiCond21) DPH0 load(1, XDATA, add(CFA_XSP16, literal(-1)))
        CFI (cfiCond21) CFA_SP SP+0
        CFI (cfiCond21) CFA_XSP16 add(XSP16, 16)
        CFI Block cfiCond22 Using cfiCommon0
        CFI (cfiCond22) NoFunction
        CFI (cfiCond22) Conditional ??CrossCallReturnLabel_57, ??CrossCallReturnLabel_28
        CFI (cfiCond22) R6 load(1, XDATA, add(CFA_XSP16, literal(-16)))
        CFI (cfiCond22) VB load(1, XDATA, add(CFA_XSP16, literal(-15)))
        CFI (cfiCond22) V0 load(1, XDATA, add(CFA_XSP16, literal(-14)))
        CFI (cfiCond22) V1 load(1, XDATA, add(CFA_XSP16, literal(-13)))
        CFI (cfiCond22) V2 load(1, XDATA, add(CFA_XSP16, literal(-12)))
        CFI (cfiCond22) V3 load(1, XDATA, add(CFA_XSP16, literal(-11)))
        CFI (cfiCond22) V4 load(1, XDATA, add(CFA_XSP16, literal(-10)))
        CFI (cfiCond22) V5 load(1, XDATA, add(CFA_XSP16, literal(-9)))
        CFI (cfiCond22) V6 load(1, XDATA, add(CFA_XSP16, literal(-8)))
        CFI (cfiCond22) V7 load(1, XDATA, add(CFA_XSP16, literal(-7)))
        CFI (cfiCond22) R7 load(1, XDATA, add(CFA_XSP16, literal(-6)))
        CFI (cfiCond22) ?RET_LOW load(1, XDATA, add(CFA_XSP16, literal(-5)))
        CFI (cfiCond22) ?RET_HIGH load(1, XDATA, add(CFA_XSP16, literal(-4)))
        CFI (cfiCond22) ?BRET_EXT load(1, XDATA, add(CFA_XSP16, literal(-3)))
        CFI (cfiCond22) DPL0 load(1, XDATA, add(CFA_XSP16, literal(-2)))
        CFI (cfiCond22) DPH0 load(1, XDATA, add(CFA_XSP16, literal(-1)))
        CFI (cfiCond22) CFA_SP SP+0
        CFI (cfiCond22) CFA_XSP16 add(XSP16, 16)
        CFI Block cfiPicker23 Using cfiCommon1
        CFI (cfiPicker23) NoFunction
        CFI (cfiPicker23) Picker
        MOV     A,?V0 + 0
        ADD     A,R2
        MOV     DPL,A
        MOV     A,?V0 + 1
        ADDC    A,R3
        MOV     DPH,A
        RET
        CFI EndBlock cfiCond17
        CFI EndBlock cfiCond18
        CFI EndBlock cfiCond19
        CFI EndBlock cfiCond20
        CFI EndBlock cfiCond21
        CFI EndBlock cfiCond22
        CFI EndBlock cfiPicker23

        RSEG BANKED_CODE:CODE:NOROOT(0)
?Subroutine9:
        CFI Block cfiCond24 Using cfiCommon0
        CFI NoFunction
        CFI Conditional ??CrossCallReturnLabel_19
        CFI R6 load(1, XDATA, add(CFA_XSP16, literal(-16)))
        CFI VB load(1, XDATA, add(CFA_XSP16, literal(-15)))
        CFI V0 load(1, XDATA, add(CFA_XSP16, literal(-14)))
        CFI V1 load(1, XDATA, add(CFA_XSP16, literal(-13)))
        CFI V2 load(1, XDATA, add(CFA_XSP16, literal(-12)))
        CFI V3 load(1, XDATA, add(CFA_XSP16, literal(-11)))
        CFI V4 load(1, XDATA, add(CFA_XSP16, literal(-10)))
        CFI V5 load(1, XDATA, add(CFA_XSP16, literal(-9)))
        CFI V6 load(1, XDATA, add(CFA_XSP16, literal(-8)))
        CFI V7 load(1, XDATA, add(CFA_XSP16, literal(-7)))
        CFI R7 load(1, XDATA, add(CFA_XSP16, literal(-6)))
        CFI ?RET_LOW load(1, XDATA, add(CFA_XSP16, literal(-5)))
        CFI ?RET_HIGH load(1, XDATA, add(CFA_XSP16, literal(-4)))
        CFI ?BRET_EXT load(1, XDATA, add(CFA_XSP16, literal(-3)))
        CFI DPL0 load(1, XDATA, add(CFA_XSP16, literal(-2)))
        CFI DPH0 load(1, XDATA, add(CFA_XSP16, literal(-1)))
        CFI CFA_SP SP+0
        CFI CFA_XSP16 add(XSP16, 16)
        CFI Block cfiCond25 Using cfiCommon0
        CFI (cfiCond25) NoFunction
        CFI (cfiCond25) Conditional ??CrossCallReturnLabel_20
        CFI (cfiCond25) R6 load(1, XDATA, add(CFA_XSP16, literal(-16)))
        CFI (cfiCond25) VB load(1, XDATA, add(CFA_XSP16, literal(-15)))
        CFI (cfiCond25) V0 load(1, XDATA, add(CFA_XSP16, literal(-14)))
        CFI (cfiCond25) V1 load(1, XDATA, add(CFA_XSP16, literal(-13)))
        CFI (cfiCond25) V2 load(1, XDATA, add(CFA_XSP16, literal(-12)))
        CFI (cfiCond25) V3 load(1, XDATA, add(CFA_XSP16, literal(-11)))
        CFI (cfiCond25) V4 load(1, XDATA, add(CFA_XSP16, literal(-10)))
        CFI (cfiCond25) V5 load(1, XDATA, add(CFA_XSP16, literal(-9)))
        CFI (cfiCond25) V6 load(1, XDATA, add(CFA_XSP16, literal(-8)))
        CFI (cfiCond25) V7 load(1, XDATA, add(CFA_XSP16, literal(-7)))
        CFI (cfiCond25) R7 load(1, XDATA, add(CFA_XSP16, literal(-6)))
        CFI (cfiCond25) ?RET_LOW load(1, XDATA, add(CFA_XSP16, literal(-5)))
        CFI (cfiCond25) ?RET_HIGH load(1, XDATA, add(CFA_XSP16, literal(-4)))
        CFI (cfiCond25) ?BRET_EXT load(1, XDATA, add(CFA_XSP16, literal(-3)))
        CFI (cfiCond25) DPL0 load(1, XDATA, add(CFA_XSP16, literal(-2)))
        CFI (cfiCond25) DPH0 load(1, XDATA, add(CFA_XSP16, literal(-1)))
        CFI (cfiCond25) CFA_SP SP+0
        CFI (cfiCond25) CFA_XSP16 add(XSP16, 16)
        CFI Block cfiPicker26 Using cfiCommon1
        CFI (cfiPicker26) NoFunction
        CFI (cfiPicker26) Picker
        LCALL   ?Subroutine24 & 0xFFFF
??CrossCallReturnLabel_53:
        INC     DPTR
        MOVX    A,@DPTR
        RET
        CFI EndBlock cfiCond24
        CFI EndBlock cfiCond25
        CFI EndBlock cfiPicker26

        RSEG BANKED_CODE:CODE:NOROOT(0)
?Subroutine4:
        CFI Block cfiCond27 Using cfiCommon0
        CFI NoFunction
        CFI Conditional ??CrossCallReturnLabel_2
        CFI R6 load(1, XDATA, add(CFA_XSP16, literal(-16)))
        CFI VB load(1, XDATA, add(CFA_XSP16, literal(-15)))
        CFI V0 load(1, XDATA, add(CFA_XSP16, literal(-14)))
        CFI V1 load(1, XDATA, add(CFA_XSP16, literal(-13)))
        CFI V2 load(1, XDATA, add(CFA_XSP16, literal(-12)))
        CFI V3 load(1, XDATA, add(CFA_XSP16, literal(-11)))
        CFI V4 load(1, XDATA, add(CFA_XSP16, literal(-10)))
        CFI V5 load(1, XDATA, add(CFA_XSP16, literal(-9)))
        CFI V6 load(1, XDATA, add(CFA_XSP16, literal(-8)))
        CFI V7 load(1, XDATA, add(CFA_XSP16, literal(-7)))
        CFI R7 load(1, XDATA, add(CFA_XSP16, literal(-6)))
        CFI ?RET_LOW load(1, XDATA, add(CFA_XSP16, literal(-5)))
        CFI ?RET_HIGH load(1, XDATA, add(CFA_XSP16, literal(-4)))
        CFI ?BRET_EXT load(1, XDATA, add(CFA_XSP16, literal(-3)))
        CFI DPL0 load(1, XDATA, add(CFA_XSP16, literal(-2)))
        CFI DPH0 load(1, XDATA, add(CFA_XSP16, literal(-1)))
        CFI CFA_SP SP+0
        CFI CFA_XSP16 add(XSP16, 16)
        CFI Block cfiCond28 Using cfiCommon0
        CFI (cfiCond28) NoFunction
        CFI (cfiCond28) Conditional ??CrossCallReturnLabel_3
        CFI (cfiCond28) R6 load(1, XDATA, add(CFA_XSP16, literal(-16)))
        CFI (cfiCond28) VB load(1, XDATA, add(CFA_XSP16, literal(-15)))
        CFI (cfiCond28) V0 load(1, XDATA, add(CFA_XSP16, literal(-14)))
        CFI (cfiCond28) V1 load(1, XDATA, add(CFA_XSP16, literal(-13)))
        CFI (cfiCond28) V2 load(1, XDATA, add(CFA_XSP16, literal(-12)))
        CFI (cfiCond28) V3 load(1, XDATA, add(CFA_XSP16, literal(-11)))
        CFI (cfiCond28) V4 load(1, XDATA, add(CFA_XSP16, literal(-10)))
        CFI (cfiCond28) V5 load(1, XDATA, add(CFA_XSP16, literal(-9)))
        CFI (cfiCond28) V6 load(1, XDATA, add(CFA_XSP16, literal(-8)))
        CFI (cfiCond28) V7 load(1, XDATA, add(CFA_XSP16, literal(-7)))
        CFI (cfiCond28) R7 load(1, XDATA, add(CFA_XSP16, literal(-6)))
        CFI (cfiCond28) ?RET_LOW load(1, XDATA, add(CFA_XSP16, literal(-5)))
        CFI (cfiCond28) ?RET_HIGH load(1, XDATA, add(CFA_XSP16, literal(-4)))
        CFI (cfiCond28) ?BRET_EXT load(1, XDATA, add(CFA_XSP16, literal(-3)))
        CFI (cfiCond28) DPL0 load(1, XDATA, add(CFA_XSP16, literal(-2)))
        CFI (cfiCond28) DPH0 load(1, XDATA, add(CFA_XSP16, literal(-1)))
        CFI (cfiCond28) CFA_SP SP+0
        CFI (cfiCond28) CFA_XSP16 add(XSP16, 16)
        CFI Block cfiPicker29 Using cfiCommon1
        CFI (cfiPicker29) NoFunction
        CFI (cfiPicker29) Picker
        LCALL   ?Subroutine22 & 0xFFFF
??CrossCallReturnLabel_47:
        MOV     A,#0x30
        LCALL   ?Subroutine23 & 0xFFFF
??CrossCallReturnLabel_50:
        LCALL   ?Subroutine22 & 0xFFFF
??CrossCallReturnLabel_48:
        MOV     A,#0x78
        LCALL   ?Subroutine23 & 0xFFFF
??CrossCallReturnLabel_51:
        RET
        CFI EndBlock cfiCond27
        CFI EndBlock cfiCond28
        CFI EndBlock cfiPicker29

        RSEG BANKED_CODE:CODE:NOROOT(0)
//  257 char ChDebugSigned(const char *format,int decimal)//有符号十进制
ChDebugSigned:
        CFI Block cfiBlock30 Using cfiCommon0
        CFI Function ChDebugSigned
        CODE
//  258 {
        FUNCALL ChDebugSigned, strlen
        LOCFRAME ISTACK, 0, STACK
        LOCFRAME PSTACK, 0, STACK
        LOCFRAME XSTACK, 26, STACK
        LOCFRAME IOVERLAY, 0, STATIC
        LOCFRAME DOVERLAY, 0, STATIC
        ARGFRAME ISTACK, 0, STACK
        ARGFRAME PSTACK, 0, STACK
        ARGFRAME XSTACK, 26, STACK
        ARGFRAME IOVERLAY, 0, STATIC
        ARGFRAME DOVERLAY, 0, STATIC
        FUNCALL ChDebugSigned, UartSend
        LOCFRAME ISTACK, 0, STACK
        LOCFRAME PSTACK, 0, STACK
        LOCFRAME XSTACK, 26, STACK
        LOCFRAME IOVERLAY, 0, STATIC
        LOCFRAME DOVERLAY, 0, STATIC
        ARGFRAME ISTACK, 0, STACK
        ARGFRAME PSTACK, 0, STACK
        ARGFRAME XSTACK, 26, STACK
        ARGFRAME IOVERLAY, 0, STATIC
        ARGFRAME DOVERLAY, 0, STATIC
        MOV     A,#-0x18
        LCALL   ?BANKED_ENTER_XDATA
        CFI DPH0 load(1, XDATA, add(CFA_XSP16, literal(-1)))
        CFI DPL0 load(1, XDATA, add(CFA_XSP16, literal(-2)))
        CFI ?BRET_EXT load(1, XDATA, add(CFA_XSP16, literal(-3)))
        CFI ?RET_HIGH load(1, XDATA, add(CFA_XSP16, literal(-4)))
        CFI ?RET_LOW load(1, XDATA, add(CFA_XSP16, literal(-5)))
        CFI R7 load(1, XDATA, add(CFA_XSP16, literal(-6)))
        CFI V15 load(1, XDATA, add(CFA_XSP16, literal(-7)))
        CFI V14 load(1, XDATA, add(CFA_XSP16, literal(-8)))
        CFI V13 load(1, XDATA, add(CFA_XSP16, literal(-9)))
        CFI V12 load(1, XDATA, add(CFA_XSP16, literal(-10)))
        CFI V11 load(1, XDATA, add(CFA_XSP16, literal(-11)))
        CFI V10 load(1, XDATA, add(CFA_XSP16, literal(-12)))
        CFI V9 load(1, XDATA, add(CFA_XSP16, literal(-13)))
        CFI V8 load(1, XDATA, add(CFA_XSP16, literal(-14)))
        CFI V7 load(1, XDATA, add(CFA_XSP16, literal(-15)))
        CFI V6 load(1, XDATA, add(CFA_XSP16, literal(-16)))
        CFI V5 load(1, XDATA, add(CFA_XSP16, literal(-17)))
        CFI V4 load(1, XDATA, add(CFA_XSP16, literal(-18)))
        CFI V3 load(1, XDATA, add(CFA_XSP16, literal(-19)))
        CFI V2 load(1, XDATA, add(CFA_XSP16, literal(-20)))
        CFI V1 load(1, XDATA, add(CFA_XSP16, literal(-21)))
        CFI V0 load(1, XDATA, add(CFA_XSP16, literal(-22)))
        CFI VB load(1, XDATA, add(CFA_XSP16, literal(-23)))
        CFI R6 load(1, XDATA, add(CFA_XSP16, literal(-24)))
        CFI CFA_SP SP+0
        CFI CFA_XSP16 add(XSP16, 24)
        ; Saved register size: 24
        ; Auto size: 2
        MOV     A,#-0x2
        LCALL   ?ALLOC_XSTACK8
        CFI CFA_XSP16 add(XSP16, 26)
        MOV     ?V0 + 14,R2
        MOV     ?V0 + 15,R3
        MOV     ?V0 + 12,R4
        MOV     ?V0 + 13,R5
//  259 	int i;
//  260 	int indexDest = 0;
        MOV     R6,#0x0
        MOV     R7,#0x0
//  261 	char err=0;
//  262 	int len = strlen(format);
        ; Setup parameters for call to function strlen
        LCALL   ?Subroutine7 & 0xFFFF
//  263 	//strcpy(strTemp_gen,format);
//  264 	for(i=0;i<len;i++)
??CrossCallReturnLabel_15:
        SJMP    ??CrossCallReturnLabel_11
//  265 		if(format[i] == '%')
//  266 		{
//  267 			if(format[i+1] == 'd')// %d
//  268 			{
//  269 				{
//  270 					int l = i;
//  271 					int r;
//  272 					long value = decimal;
//  273 					char c;
//  274 					if(value < 0)
//  275 					{
//  276 						strTemp_gen[indexDest++] = '-';
//  277 						value = -value;
//  278 						l++;
//  279 					}
//  280 					do
//  281 					{
//  282 						c = value%10;
//  283 						strTemp_gen[indexDest++] = c + '0';
//  284 						value /= 10;
//  285 					}while(value != 0);
//  286 					////swap the string
//  287 					r = indexDest-1;
//  288 					while(l < r)
//  289 					{
//  290 						c = strTemp_gen[l];
//  291 						strTemp_gen[l] = strTemp_gen[r];
//  292 						strTemp_gen[r] = c;
//  293 						l++;
//  294 						r--;
//  295 					}
//  296 					
//  297 				}
//  298 			i+=2-1;
//  299 			}
//  300 			else
//  301 				strTemp_gen[indexDest++] = format[i];
??ChDebugSigned_0:
        LCALL   ?Subroutine15 & 0xFFFF
??CrossCallReturnLabel_31:
        PUSH    A
        CFI CFA_SP SP+-1
        LCALL   ?Subroutine16 & 0xFFFF
??CrossCallReturnLabel_36:
        POP     A
        CFI CFA_SP SP+0
        LCALL   ?Subroutine5 & 0xFFFF
??CrossCallReturnLabel_7:
        LCALL   ?Subroutine6 & 0xFFFF
??CrossCallReturnLabel_11:
        LCALL   ?Subroutine8 & 0xFFFF
??CrossCallReturnLabel_17:
        JC      $+5
        LJMP    ??ChDebugSigned_1 & 0xFFFF
        LCALL   ?Subroutine10 & 0xFFFF
??CrossCallReturnLabel_21:
        JNZ     ??ChDebugSigned_0
        MOV     A,?V0 + 14
        ADD     A,R2
        MOV     A,?V0 + 15
        ADDC    A,R3
        INC     DPTR
        MOVX    A,@DPTR
        XRL     A,#0x64
        JNZ     ??ChDebugSigned_0
        MOV     A,R2
        MOV     R4,A
        MOV     A,R3
        MOV     R5,A
        MOV     ?V0 + 4,?V0 + 12
        MOV     A,?V0 + 13
        MOV     ?V0 + 5,A
        RLC     A
        SUBB    A,0xE0 /* A   */
        MOV     ?V0 + 6,A
        MOV     ?V0 + 7,A
        MOV     DPTR,#__Constant_0
        MOV     R0,#?V0 + 4
        LCALL   ?SL_GE_X
        JC      ??ChDebugSigned_2
        LCALL   ?Subroutine16 & 0xFFFF
??CrossCallReturnLabel_37:
        MOV     A,#0x2d
        LCALL   ?Subroutine5 & 0xFFFF
??CrossCallReturnLabel_8:
        MOV     R0,#?V0 + 4
        LCALL   ?L_NEG
        MOV     A,R4
        ADD     A,#0x1
        INC     R4
        MOV     A,R5
        ADDC    A,#0x0
        MOV     R5,A
??ChDebugSigned_2:
        MOV     ?V0 + 0,?V0 + 4
        MOV     ?V0 + 1,?V0 + 5
        MOV     ?V0 + 2,?V0 + 6
        MOV     ?V0 + 3,?V0 + 7
        MOV     DPTR,#__Constant_a
        MOV     R0,#?V0 + 8
        LCALL   ?L_MOV_X
        MOV     R0,#?V0 + 0
        MOV     R1,#?V0 + 8
        LCALL   ?L_DIV_MOD
        MOV     A,?V0 + 8
        ADD     A,#0x30
        PUSH    A
        CFI CFA_SP SP+-1
        LCALL   ?Subroutine16 & 0xFFFF
??CrossCallReturnLabel_38:
        POP     A
        CFI CFA_SP SP+0
        LCALL   ?Subroutine5 & 0xFFFF
??CrossCallReturnLabel_9:
        MOV     DPTR,#__Constant_a
        MOV     R0,#?V0 + 0
        LCALL   ?L_MOV_X
        MOV     R0,#?V0 + 4
        MOV     R1,#?V0 + 0
        LCALL   ?L_DIV_MOD
        MOV     A,?V0 + 4
        ORL     A,?V0 + 5
        ORL     A,?V0 + 6
        ORL     A,?V0 + 7
        JNZ     ??ChDebugSigned_2
        MOV     A,R6
        ADD     A,#-0x1
        MOV     R0,A
        MOV     A,R7
        SJMP    ??CrossCallReturnLabel_0
??ChDebugSigned_3:
        LCALL   ?Subroutine3 & 0xFFFF
??CrossCallReturnLabel_0:
        LCALL   ?Subroutine17 & 0xFFFF
??CrossCallReturnLabel_39:
        JC      ??ChDebugSigned_3
        LCALL   ?Subroutine6 & 0xFFFF
//  302 		}
??CrossCallReturnLabel_12:
        LJMP    ??CrossCallReturnLabel_7 & 0xFFFF
//  303 		else
//  304 			strTemp_gen[indexDest++] = format[i];
//  305 	//strTemp_gen[indexDest++] = 0;
//  306 	UartSend(strTemp_gen,indexDest);
??ChDebugSigned_1:
        ; Setup parameters for call to function UartSend
        MOV     A,R6
        MOV     R4,A
        MOV     A,R7
        MOV     R5,A
        CFI EndBlock cfiBlock30
        REQUIRE ?Subroutine2
        ; // Fall through to label ?Subroutine2
//  307 	return err;
//  308 }

        RSEG BANKED_CODE:CODE:NOROOT(0)
?Subroutine2:
        CFI Block cfiBlock31 Using cfiCommon0
        CFI NoFunction
        CFI CFA_SP SP+0
        CFI CFA_XSP16 add(XSP16, 26)
        CFI VB load(1, XDATA, add(CFA_XSP16, literal(-23)))
        CFI DPL0 load(1, XDATA, add(CFA_XSP16, literal(-2)))
        CFI DPH0 load(1, XDATA, add(CFA_XSP16, literal(-1)))
        CFI R6 load(1, XDATA, add(CFA_XSP16, literal(-24)))
        CFI R7 load(1, XDATA, add(CFA_XSP16, literal(-6)))
        CFI V0 load(1, XDATA, add(CFA_XSP16, literal(-22)))
        CFI V1 load(1, XDATA, add(CFA_XSP16, literal(-21)))
        CFI V2 load(1, XDATA, add(CFA_XSP16, literal(-20)))
        CFI V3 load(1, XDATA, add(CFA_XSP16, literal(-19)))
        CFI V4 load(1, XDATA, add(CFA_XSP16, literal(-18)))
        CFI V5 load(1, XDATA, add(CFA_XSP16, literal(-17)))
        CFI V6 load(1, XDATA, add(CFA_XSP16, literal(-16)))
        CFI V7 load(1, XDATA, add(CFA_XSP16, literal(-15)))
        CFI V8 load(1, XDATA, add(CFA_XSP16, literal(-14)))
        CFI V9 load(1, XDATA, add(CFA_XSP16, literal(-13)))
        CFI V10 load(1, XDATA, add(CFA_XSP16, literal(-12)))
        CFI V11 load(1, XDATA, add(CFA_XSP16, literal(-11)))
        CFI V12 load(1, XDATA, add(CFA_XSP16, literal(-10)))
        CFI V13 load(1, XDATA, add(CFA_XSP16, literal(-9)))
        CFI V14 load(1, XDATA, add(CFA_XSP16, literal(-8)))
        CFI V15 load(1, XDATA, add(CFA_XSP16, literal(-7)))
        CFI ?BRET_EXT load(1, XDATA, add(CFA_XSP16, literal(-3)))
        CFI ?RET_HIGH load(1, XDATA, add(CFA_XSP16, literal(-4)))
        CFI ?RET_LOW load(1, XDATA, add(CFA_XSP16, literal(-5)))
        LCALL   ?Subroutine18 & 0xFFFF
??CrossCallReturnLabel_60:
        MOV     A,#0x2
        LCALL   ?DEALLOC_XSTACK8
        CFI CFA_XSP16 add(XSP16, 24)
        MOV     R7,#0x10
        LJMP    ?BANKED_LEAVE_XDATA
        CFI EndBlock cfiBlock31

        RSEG BANKED_CODE:CODE:NOROOT(0)
?Subroutine18:
        CFI Block cfiCond32 Using cfiCommon0
        CFI NoFunction
        CFI Conditional ??CrossCallReturnLabel_59
        CFI R6 load(1, XDATA, add(CFA_XSP16, literal(-16)))
        CFI VB load(1, XDATA, add(CFA_XSP16, literal(-15)))
        CFI V0 load(1, XDATA, add(CFA_XSP16, literal(-14)))
        CFI V1 load(1, XDATA, add(CFA_XSP16, literal(-13)))
        CFI V2 load(1, XDATA, add(CFA_XSP16, literal(-12)))
        CFI V3 load(1, XDATA, add(CFA_XSP16, literal(-11)))
        CFI V4 load(1, XDATA, add(CFA_XSP16, literal(-10)))
        CFI V5 load(1, XDATA, add(CFA_XSP16, literal(-9)))
        CFI V6 load(1, XDATA, add(CFA_XSP16, literal(-8)))
        CFI V7 load(1, XDATA, add(CFA_XSP16, literal(-7)))
        CFI R7 load(1, XDATA, add(CFA_XSP16, literal(-6)))
        CFI ?RET_LOW load(1, XDATA, add(CFA_XSP16, literal(-5)))
        CFI ?RET_HIGH load(1, XDATA, add(CFA_XSP16, literal(-4)))
        CFI ?BRET_EXT load(1, XDATA, add(CFA_XSP16, literal(-3)))
        CFI DPL0 load(1, XDATA, add(CFA_XSP16, literal(-2)))
        CFI DPH0 load(1, XDATA, add(CFA_XSP16, literal(-1)))
        CFI CFA_SP SP+0
        CFI CFA_XSP16 add(XSP16, 16)
        CFI Block cfiCond33 Using cfiCommon0
        CFI (cfiCond33) NoFunction
        CFI (cfiCond33) Conditional ??CrossCallReturnLabel_60
        CFI (cfiCond33) R6 load(1, XDATA, add(CFA_XSP16, literal(-24)))
        CFI (cfiCond33) VB load(1, XDATA, add(CFA_XSP16, literal(-23)))
        CFI (cfiCond33) V0 load(1, XDATA, add(CFA_XSP16, literal(-22)))
        CFI (cfiCond33) V1 load(1, XDATA, add(CFA_XSP16, literal(-21)))
        CFI (cfiCond33) V2 load(1, XDATA, add(CFA_XSP16, literal(-20)))
        CFI (cfiCond33) V3 load(1, XDATA, add(CFA_XSP16, literal(-19)))
        CFI (cfiCond33) V4 load(1, XDATA, add(CFA_XSP16, literal(-18)))
        CFI (cfiCond33) V5 load(1, XDATA, add(CFA_XSP16, literal(-17)))
        CFI (cfiCond33) V6 load(1, XDATA, add(CFA_XSP16, literal(-16)))
        CFI (cfiCond33) V7 load(1, XDATA, add(CFA_XSP16, literal(-15)))
        CFI (cfiCond33) V8 load(1, XDATA, add(CFA_XSP16, literal(-14)))
        CFI (cfiCond33) V9 load(1, XDATA, add(CFA_XSP16, literal(-13)))
        CFI (cfiCond33) V10 load(1, XDATA, add(CFA_XSP16, literal(-12)))
        CFI (cfiCond33) V11 load(1, XDATA, add(CFA_XSP16, literal(-11)))
        CFI (cfiCond33) V12 load(1, XDATA, add(CFA_XSP16, literal(-10)))
        CFI (cfiCond33) V13 load(1, XDATA, add(CFA_XSP16, literal(-9)))
        CFI (cfiCond33) V14 load(1, XDATA, add(CFA_XSP16, literal(-8)))
        CFI (cfiCond33) V15 load(1, XDATA, add(CFA_XSP16, literal(-7)))
        CFI (cfiCond33) R7 load(1, XDATA, add(CFA_XSP16, literal(-6)))
        CFI (cfiCond33) ?RET_LOW load(1, XDATA, add(CFA_XSP16, literal(-5)))
        CFI (cfiCond33) ?RET_HIGH load(1, XDATA, add(CFA_XSP16, literal(-4)))
        CFI (cfiCond33) ?BRET_EXT load(1, XDATA, add(CFA_XSP16, literal(-3)))
        CFI (cfiCond33) DPL0 load(1, XDATA, add(CFA_XSP16, literal(-2)))
        CFI (cfiCond33) DPH0 load(1, XDATA, add(CFA_XSP16, literal(-1)))
        CFI (cfiCond33) CFA_SP SP+0
        CFI (cfiCond33) CFA_XSP16 add(XSP16, 26)
        CFI Block cfiCond34 Using cfiCommon0
        CFI (cfiCond34) NoFunction
        CFI (cfiCond34) Conditional ??CrossCallReturnLabel_60
        CFI (cfiCond34) R6 load(1, XDATA, add(CFA_XSP16, literal(-24)))
        CFI (cfiCond34) VB load(1, XDATA, add(CFA_XSP16, literal(-23)))
        CFI (cfiCond34) V0 load(1, XDATA, add(CFA_XSP16, literal(-22)))
        CFI (cfiCond34) V1 load(1, XDATA, add(CFA_XSP16, literal(-21)))
        CFI (cfiCond34) V2 load(1, XDATA, add(CFA_XSP16, literal(-20)))
        CFI (cfiCond34) V3 load(1, XDATA, add(CFA_XSP16, literal(-19)))
        CFI (cfiCond34) V4 load(1, XDATA, add(CFA_XSP16, literal(-18)))
        CFI (cfiCond34) V5 load(1, XDATA, add(CFA_XSP16, literal(-17)))
        CFI (cfiCond34) V6 load(1, XDATA, add(CFA_XSP16, literal(-16)))
        CFI (cfiCond34) V7 load(1, XDATA, add(CFA_XSP16, literal(-15)))
        CFI (cfiCond34) V8 load(1, XDATA, add(CFA_XSP16, literal(-14)))
        CFI (cfiCond34) V9 load(1, XDATA, add(CFA_XSP16, literal(-13)))
        CFI (cfiCond34) V10 load(1, XDATA, add(CFA_XSP16, literal(-12)))
        CFI (cfiCond34) V11 load(1, XDATA, add(CFA_XSP16, literal(-11)))
        CFI (cfiCond34) V12 load(1, XDATA, add(CFA_XSP16, literal(-10)))
        CFI (cfiCond34) V13 load(1, XDATA, add(CFA_XSP16, literal(-9)))
        CFI (cfiCond34) V14 load(1, XDATA, add(CFA_XSP16, literal(-8)))
        CFI (cfiCond34) V15 load(1, XDATA, add(CFA_XSP16, literal(-7)))
        CFI (cfiCond34) R7 load(1, XDATA, add(CFA_XSP16, literal(-6)))
        CFI (cfiCond34) ?RET_LOW load(1, XDATA, add(CFA_XSP16, literal(-5)))
        CFI (cfiCond34) ?RET_HIGH load(1, XDATA, add(CFA_XSP16, literal(-4)))
        CFI (cfiCond34) ?BRET_EXT load(1, XDATA, add(CFA_XSP16, literal(-3)))
        CFI (cfiCond34) DPL0 load(1, XDATA, add(CFA_XSP16, literal(-2)))
        CFI (cfiCond34) DPH0 load(1, XDATA, add(CFA_XSP16, literal(-1)))
        CFI (cfiCond34) CFA_SP SP+0
        CFI (cfiCond34) CFA_XSP16 add(XSP16, 26)
        CFI Block cfiCond35 Using cfiCommon0
        CFI (cfiCond35) NoFunction
        CFI (cfiCond35) Conditional ??CrossCallReturnLabel_61
        CFI (cfiCond35) R6 load(1, XDATA, add(CFA_XSP16, literal(-18)))
        CFI (cfiCond35) VB load(1, XDATA, add(CFA_XSP16, literal(-17)))
        CFI (cfiCond35) V0 load(1, XDATA, add(CFA_XSP16, literal(-16)))
        CFI (cfiCond35) V1 load(1, XDATA, add(CFA_XSP16, literal(-15)))
        CFI (cfiCond35) V2 load(1, XDATA, add(CFA_XSP16, literal(-14)))
        CFI (cfiCond35) V3 load(1, XDATA, add(CFA_XSP16, literal(-13)))
        CFI (cfiCond35) V4 load(1, XDATA, add(CFA_XSP16, literal(-12)))
        CFI (cfiCond35) V5 load(1, XDATA, add(CFA_XSP16, literal(-11)))
        CFI (cfiCond35) V6 load(1, XDATA, add(CFA_XSP16, literal(-10)))
        CFI (cfiCond35) V7 load(1, XDATA, add(CFA_XSP16, literal(-9)))
        CFI (cfiCond35) V8 load(1, XDATA, add(CFA_XSP16, literal(-8)))
        CFI (cfiCond35) V9 load(1, XDATA, add(CFA_XSP16, literal(-7)))
        CFI (cfiCond35) R7 load(1, XDATA, add(CFA_XSP16, literal(-6)))
        CFI (cfiCond35) ?RET_LOW load(1, XDATA, add(CFA_XSP16, literal(-5)))
        CFI (cfiCond35) ?RET_HIGH load(1, XDATA, add(CFA_XSP16, literal(-4)))
        CFI (cfiCond35) ?BRET_EXT load(1, XDATA, add(CFA_XSP16, literal(-3)))
        CFI (cfiCond35) DPL0 load(1, XDATA, add(CFA_XSP16, literal(-2)))
        CFI (cfiCond35) DPH0 load(1, XDATA, add(CFA_XSP16, literal(-1)))
        CFI (cfiCond35) CFA_SP SP+0
        CFI (cfiCond35) CFA_XSP16 add(XSP16, 18)
        CFI Block cfiPicker36 Using cfiCommon1
        CFI (cfiPicker36) NoFunction
        CFI (cfiPicker36) Picker
        MOV     R2,#strTemp_gen & 0xff
        MOV     R3,#(strTemp_gen >> 8) & 0xff
        CFI EndBlock cfiCond32
        CFI EndBlock cfiCond33
        CFI EndBlock cfiCond34
        CFI EndBlock cfiCond35
        CFI EndBlock cfiPicker36
        REQUIRE ??Subroutine27_0
        ; // Fall through to label ??Subroutine27_0

        RSEG BANKED_CODE:CODE:NOROOT(0)
??Subroutine27_0:
        CFI Block cfiCond37 Using cfiCommon0
        CFI NoFunction
        CFI Conditional ??CrossCallReturnLabel_62
        CFI R6 load(1, XDATA, add(CFA_XSP16, literal(-9)))
        CFI VB load(1, XDATA, add(CFA_XSP16, literal(-8)))
        CFI V0 load(1, XDATA, add(CFA_XSP16, literal(-7)))
        CFI R7 load(1, XDATA, add(CFA_XSP16, literal(-6)))
        CFI ?RET_LOW load(1, XDATA, add(CFA_XSP16, literal(-5)))
        CFI ?RET_HIGH load(1, XDATA, add(CFA_XSP16, literal(-4)))
        CFI ?BRET_EXT load(1, XDATA, add(CFA_XSP16, literal(-3)))
        CFI DPL0 load(1, XDATA, add(CFA_XSP16, literal(-2)))
        CFI DPH0 load(1, XDATA, add(CFA_XSP16, literal(-1)))
        CFI CFA_SP SP+0
        CFI CFA_XSP16 add(XSP16, 9)
        CFI Block cfiCond38 Using cfiCommon0
        CFI (cfiCond38) NoFunction
        CFI (cfiCond38) Conditional ??CrossCallReturnLabel_59
        CFI (cfiCond38) R6 load(1, XDATA, add(CFA_XSP16, literal(-16)))
        CFI (cfiCond38) VB load(1, XDATA, add(CFA_XSP16, literal(-15)))
        CFI (cfiCond38) V0 load(1, XDATA, add(CFA_XSP16, literal(-14)))
        CFI (cfiCond38) V1 load(1, XDATA, add(CFA_XSP16, literal(-13)))
        CFI (cfiCond38) V2 load(1, XDATA, add(CFA_XSP16, literal(-12)))
        CFI (cfiCond38) V3 load(1, XDATA, add(CFA_XSP16, literal(-11)))
        CFI (cfiCond38) V4 load(1, XDATA, add(CFA_XSP16, literal(-10)))
        CFI (cfiCond38) V5 load(1, XDATA, add(CFA_XSP16, literal(-9)))
        CFI (cfiCond38) V6 load(1, XDATA, add(CFA_XSP16, literal(-8)))
        CFI (cfiCond38) V7 load(1, XDATA, add(CFA_XSP16, literal(-7)))
        CFI (cfiCond38) R7 load(1, XDATA, add(CFA_XSP16, literal(-6)))
        CFI (cfiCond38) ?RET_LOW load(1, XDATA, add(CFA_XSP16, literal(-5)))
        CFI (cfiCond38) ?RET_HIGH load(1, XDATA, add(CFA_XSP16, literal(-4)))
        CFI (cfiCond38) ?BRET_EXT load(1, XDATA, add(CFA_XSP16, literal(-3)))
        CFI (cfiCond38) DPL0 load(1, XDATA, add(CFA_XSP16, literal(-2)))
        CFI (cfiCond38) DPH0 load(1, XDATA, add(CFA_XSP16, literal(-1)))
        CFI (cfiCond38) CFA_SP SP+0
        CFI (cfiCond38) CFA_XSP16 add(XSP16, 16)
        CFI Block cfiCond39 Using cfiCommon0
        CFI (cfiCond39) NoFunction
        CFI (cfiCond39) Conditional ??CrossCallReturnLabel_60
        CFI (cfiCond39) R6 load(1, XDATA, add(CFA_XSP16, literal(-24)))
        CFI (cfiCond39) VB load(1, XDATA, add(CFA_XSP16, literal(-23)))
        CFI (cfiCond39) V0 load(1, XDATA, add(CFA_XSP16, literal(-22)))
        CFI (cfiCond39) V1 load(1, XDATA, add(CFA_XSP16, literal(-21)))
        CFI (cfiCond39) V2 load(1, XDATA, add(CFA_XSP16, literal(-20)))
        CFI (cfiCond39) V3 load(1, XDATA, add(CFA_XSP16, literal(-19)))
        CFI (cfiCond39) V4 load(1, XDATA, add(CFA_XSP16, literal(-18)))
        CFI (cfiCond39) V5 load(1, XDATA, add(CFA_XSP16, literal(-17)))
        CFI (cfiCond39) V6 load(1, XDATA, add(CFA_XSP16, literal(-16)))
        CFI (cfiCond39) V7 load(1, XDATA, add(CFA_XSP16, literal(-15)))
        CFI (cfiCond39) V8 load(1, XDATA, add(CFA_XSP16, literal(-14)))
        CFI (cfiCond39) V9 load(1, XDATA, add(CFA_XSP16, literal(-13)))
        CFI (cfiCond39) V10 load(1, XDATA, add(CFA_XSP16, literal(-12)))
        CFI (cfiCond39) V11 load(1, XDATA, add(CFA_XSP16, literal(-11)))
        CFI (cfiCond39) V12 load(1, XDATA, add(CFA_XSP16, literal(-10)))
        CFI (cfiCond39) V13 load(1, XDATA, add(CFA_XSP16, literal(-9)))
        CFI (cfiCond39) V14 load(1, XDATA, add(CFA_XSP16, literal(-8)))
        CFI (cfiCond39) V15 load(1, XDATA, add(CFA_XSP16, literal(-7)))
        CFI (cfiCond39) R7 load(1, XDATA, add(CFA_XSP16, literal(-6)))
        CFI (cfiCond39) ?RET_LOW load(1, XDATA, add(CFA_XSP16, literal(-5)))
        CFI (cfiCond39) ?RET_HIGH load(1, XDATA, add(CFA_XSP16, literal(-4)))
        CFI (cfiCond39) ?BRET_EXT load(1, XDATA, add(CFA_XSP16, literal(-3)))
        CFI (cfiCond39) DPL0 load(1, XDATA, add(CFA_XSP16, literal(-2)))
        CFI (cfiCond39) DPH0 load(1, XDATA, add(CFA_XSP16, literal(-1)))
        CFI (cfiCond39) CFA_SP SP+0
        CFI (cfiCond39) CFA_XSP16 add(XSP16, 26)
        CFI Block cfiCond40 Using cfiCommon0
        CFI (cfiCond40) NoFunction
        CFI (cfiCond40) Conditional ??CrossCallReturnLabel_60
        CFI (cfiCond40) R6 load(1, XDATA, add(CFA_XSP16, literal(-24)))
        CFI (cfiCond40) VB load(1, XDATA, add(CFA_XSP16, literal(-23)))
        CFI (cfiCond40) V0 load(1, XDATA, add(CFA_XSP16, literal(-22)))
        CFI (cfiCond40) V1 load(1, XDATA, add(CFA_XSP16, literal(-21)))
        CFI (cfiCond40) V2 load(1, XDATA, add(CFA_XSP16, literal(-20)))
        CFI (cfiCond40) V3 load(1, XDATA, add(CFA_XSP16, literal(-19)))
        CFI (cfiCond40) V4 load(1, XDATA, add(CFA_XSP16, literal(-18)))
        CFI (cfiCond40) V5 load(1, XDATA, add(CFA_XSP16, literal(-17)))
        CFI (cfiCond40) V6 load(1, XDATA, add(CFA_XSP16, literal(-16)))
        CFI (cfiCond40) V7 load(1, XDATA, add(CFA_XSP16, literal(-15)))
        CFI (cfiCond40) V8 load(1, XDATA, add(CFA_XSP16, literal(-14)))
        CFI (cfiCond40) V9 load(1, XDATA, add(CFA_XSP16, literal(-13)))
        CFI (cfiCond40) V10 load(1, XDATA, add(CFA_XSP16, literal(-12)))
        CFI (cfiCond40) V11 load(1, XDATA, add(CFA_XSP16, literal(-11)))
        CFI (cfiCond40) V12 load(1, XDATA, add(CFA_XSP16, literal(-10)))
        CFI (cfiCond40) V13 load(1, XDATA, add(CFA_XSP16, literal(-9)))
        CFI (cfiCond40) V14 load(1, XDATA, add(CFA_XSP16, literal(-8)))
        CFI (cfiCond40) V15 load(1, XDATA, add(CFA_XSP16, literal(-7)))
        CFI (cfiCond40) R7 load(1, XDATA, add(CFA_XSP16, literal(-6)))
        CFI (cfiCond40) ?RET_LOW load(1, XDATA, add(CFA_XSP16, literal(-5)))
        CFI (cfiCond40) ?RET_HIGH load(1, XDATA, add(CFA_XSP16, literal(-4)))
        CFI (cfiCond40) ?BRET_EXT load(1, XDATA, add(CFA_XSP16, literal(-3)))
        CFI (cfiCond40) DPL0 load(1, XDATA, add(CFA_XSP16, literal(-2)))
        CFI (cfiCond40) DPH0 load(1, XDATA, add(CFA_XSP16, literal(-1)))
        CFI (cfiCond40) CFA_SP SP+0
        CFI (cfiCond40) CFA_XSP16 add(XSP16, 26)
        CFI Block cfiCond41 Using cfiCommon0
        CFI (cfiCond41) NoFunction
        CFI (cfiCond41) Conditional ??CrossCallReturnLabel_61
        CFI (cfiCond41) R6 load(1, XDATA, add(CFA_XSP16, literal(-18)))
        CFI (cfiCond41) VB load(1, XDATA, add(CFA_XSP16, literal(-17)))
        CFI (cfiCond41) V0 load(1, XDATA, add(CFA_XSP16, literal(-16)))
        CFI (cfiCond41) V1 load(1, XDATA, add(CFA_XSP16, literal(-15)))
        CFI (cfiCond41) V2 load(1, XDATA, add(CFA_XSP16, literal(-14)))
        CFI (cfiCond41) V3 load(1, XDATA, add(CFA_XSP16, literal(-13)))
        CFI (cfiCond41) V4 load(1, XDATA, add(CFA_XSP16, literal(-12)))
        CFI (cfiCond41) V5 load(1, XDATA, add(CFA_XSP16, literal(-11)))
        CFI (cfiCond41) V6 load(1, XDATA, add(CFA_XSP16, literal(-10)))
        CFI (cfiCond41) V7 load(1, XDATA, add(CFA_XSP16, literal(-9)))
        CFI (cfiCond41) V8 load(1, XDATA, add(CFA_XSP16, literal(-8)))
        CFI (cfiCond41) V9 load(1, XDATA, add(CFA_XSP16, literal(-7)))
        CFI (cfiCond41) R7 load(1, XDATA, add(CFA_XSP16, literal(-6)))
        CFI (cfiCond41) ?RET_LOW load(1, XDATA, add(CFA_XSP16, literal(-5)))
        CFI (cfiCond41) ?RET_HIGH load(1, XDATA, add(CFA_XSP16, literal(-4)))
        CFI (cfiCond41) ?BRET_EXT load(1, XDATA, add(CFA_XSP16, literal(-3)))
        CFI (cfiCond41) DPL0 load(1, XDATA, add(CFA_XSP16, literal(-2)))
        CFI (cfiCond41) DPH0 load(1, XDATA, add(CFA_XSP16, literal(-1)))
        CFI (cfiCond41) CFA_SP SP+0
        CFI (cfiCond41) CFA_XSP16 add(XSP16, 18)
        CFI Block cfiPicker42 Using cfiCommon1
        CFI (cfiPicker42) NoFunction
        CFI (cfiPicker42) Picker
        LCALL   ??UartSend?relay
        MOV     R1,#0x0
        RET
        CFI EndBlock cfiCond37
        CFI EndBlock cfiCond38
        CFI EndBlock cfiCond39
        CFI EndBlock cfiCond40
        CFI EndBlock cfiCond41
        CFI EndBlock cfiPicker42

        RSEG BANKED_CODE:CODE:NOROOT(0)
?Subroutine16:
        CFI Block cfiCond43 Using cfiCommon0
        CFI NoFunction
        CFI Conditional ??CrossCallReturnLabel_33
        CFI R6 load(1, XDATA, add(CFA_XSP16, literal(-16)))
        CFI VB load(1, XDATA, add(CFA_XSP16, literal(-15)))
        CFI V0 load(1, XDATA, add(CFA_XSP16, literal(-14)))
        CFI V1 load(1, XDATA, add(CFA_XSP16, literal(-13)))
        CFI V2 load(1, XDATA, add(CFA_XSP16, literal(-12)))
        CFI V3 load(1, XDATA, add(CFA_XSP16, literal(-11)))
        CFI V4 load(1, XDATA, add(CFA_XSP16, literal(-10)))
        CFI V5 load(1, XDATA, add(CFA_XSP16, literal(-9)))
        CFI V6 load(1, XDATA, add(CFA_XSP16, literal(-8)))
        CFI V7 load(1, XDATA, add(CFA_XSP16, literal(-7)))
        CFI R7 load(1, XDATA, add(CFA_XSP16, literal(-6)))
        CFI ?RET_LOW load(1, XDATA, add(CFA_XSP16, literal(-5)))
        CFI ?RET_HIGH load(1, XDATA, add(CFA_XSP16, literal(-4)))
        CFI ?BRET_EXT load(1, XDATA, add(CFA_XSP16, literal(-3)))
        CFI DPL0 load(1, XDATA, add(CFA_XSP16, literal(-2)))
        CFI DPH0 load(1, XDATA, add(CFA_XSP16, literal(-1)))
        CFI CFA_SP SP+-1
        CFI CFA_XSP16 add(XSP16, 16)
        CFI Block cfiCond44 Using cfiCommon0
        CFI (cfiCond44) NoFunction
        CFI (cfiCond44) Conditional ??CrossCallReturnLabel_34
        CFI (cfiCond44) R6 load(1, XDATA, add(CFA_XSP16, literal(-16)))
        CFI (cfiCond44) VB load(1, XDATA, add(CFA_XSP16, literal(-15)))
        CFI (cfiCond44) V0 load(1, XDATA, add(CFA_XSP16, literal(-14)))
        CFI (cfiCond44) V1 load(1, XDATA, add(CFA_XSP16, literal(-13)))
        CFI (cfiCond44) V2 load(1, XDATA, add(CFA_XSP16, literal(-12)))
        CFI (cfiCond44) V3 load(1, XDATA, add(CFA_XSP16, literal(-11)))
        CFI (cfiCond44) V4 load(1, XDATA, add(CFA_XSP16, literal(-10)))
        CFI (cfiCond44) V5 load(1, XDATA, add(CFA_XSP16, literal(-9)))
        CFI (cfiCond44) V6 load(1, XDATA, add(CFA_XSP16, literal(-8)))
        CFI (cfiCond44) V7 load(1, XDATA, add(CFA_XSP16, literal(-7)))
        CFI (cfiCond44) R7 load(1, XDATA, add(CFA_XSP16, literal(-6)))
        CFI (cfiCond44) ?RET_LOW load(1, XDATA, add(CFA_XSP16, literal(-5)))
        CFI (cfiCond44) ?RET_HIGH load(1, XDATA, add(CFA_XSP16, literal(-4)))
        CFI (cfiCond44) ?BRET_EXT load(1, XDATA, add(CFA_XSP16, literal(-3)))
        CFI (cfiCond44) DPL0 load(1, XDATA, add(CFA_XSP16, literal(-2)))
        CFI (cfiCond44) DPH0 load(1, XDATA, add(CFA_XSP16, literal(-1)))
        CFI (cfiCond44) CFA_SP SP+-1
        CFI (cfiCond44) CFA_XSP16 add(XSP16, 16)
        CFI Block cfiCond45 Using cfiCommon0
        CFI (cfiCond45) NoFunction
        CFI (cfiCond45) Conditional ??CrossCallReturnLabel_35
        CFI (cfiCond45) R6 load(1, XDATA, add(CFA_XSP16, literal(-16)))
        CFI (cfiCond45) VB load(1, XDATA, add(CFA_XSP16, literal(-15)))
        CFI (cfiCond45) V0 load(1, XDATA, add(CFA_XSP16, literal(-14)))
        CFI (cfiCond45) V1 load(1, XDATA, add(CFA_XSP16, literal(-13)))
        CFI (cfiCond45) V2 load(1, XDATA, add(CFA_XSP16, literal(-12)))
        CFI (cfiCond45) V3 load(1, XDATA, add(CFA_XSP16, literal(-11)))
        CFI (cfiCond45) V4 load(1, XDATA, add(CFA_XSP16, literal(-10)))
        CFI (cfiCond45) V5 load(1, XDATA, add(CFA_XSP16, literal(-9)))
        CFI (cfiCond45) V6 load(1, XDATA, add(CFA_XSP16, literal(-8)))
        CFI (cfiCond45) V7 load(1, XDATA, add(CFA_XSP16, literal(-7)))
        CFI (cfiCond45) R7 load(1, XDATA, add(CFA_XSP16, literal(-6)))
        CFI (cfiCond45) ?RET_LOW load(1, XDATA, add(CFA_XSP16, literal(-5)))
        CFI (cfiCond45) ?RET_HIGH load(1, XDATA, add(CFA_XSP16, literal(-4)))
        CFI (cfiCond45) ?BRET_EXT load(1, XDATA, add(CFA_XSP16, literal(-3)))
        CFI (cfiCond45) DPL0 load(1, XDATA, add(CFA_XSP16, literal(-2)))
        CFI (cfiCond45) DPH0 load(1, XDATA, add(CFA_XSP16, literal(-1)))
        CFI (cfiCond45) CFA_SP SP+-1
        CFI (cfiCond45) CFA_XSP16 add(XSP16, 16)
        CFI Block cfiCond46 Using cfiCommon0
        CFI (cfiCond46) NoFunction
        CFI (cfiCond46) Conditional ??CrossCallReturnLabel_36
        CFI (cfiCond46) R6 load(1, XDATA, add(CFA_XSP16, literal(-24)))
        CFI (cfiCond46) VB load(1, XDATA, add(CFA_XSP16, literal(-23)))
        CFI (cfiCond46) V0 load(1, XDATA, add(CFA_XSP16, literal(-22)))
        CFI (cfiCond46) V1 load(1, XDATA, add(CFA_XSP16, literal(-21)))
        CFI (cfiCond46) V2 load(1, XDATA, add(CFA_XSP16, literal(-20)))
        CFI (cfiCond46) V3 load(1, XDATA, add(CFA_XSP16, literal(-19)))
        CFI (cfiCond46) V4 load(1, XDATA, add(CFA_XSP16, literal(-18)))
        CFI (cfiCond46) V5 load(1, XDATA, add(CFA_XSP16, literal(-17)))
        CFI (cfiCond46) V6 load(1, XDATA, add(CFA_XSP16, literal(-16)))
        CFI (cfiCond46) V7 load(1, XDATA, add(CFA_XSP16, literal(-15)))
        CFI (cfiCond46) V8 load(1, XDATA, add(CFA_XSP16, literal(-14)))
        CFI (cfiCond46) V9 load(1, XDATA, add(CFA_XSP16, literal(-13)))
        CFI (cfiCond46) V10 load(1, XDATA, add(CFA_XSP16, literal(-12)))
        CFI (cfiCond46) V11 load(1, XDATA, add(CFA_XSP16, literal(-11)))
        CFI (cfiCond46) V12 load(1, XDATA, add(CFA_XSP16, literal(-10)))
        CFI (cfiCond46) V13 load(1, XDATA, add(CFA_XSP16, literal(-9)))
        CFI (cfiCond46) V14 load(1, XDATA, add(CFA_XSP16, literal(-8)))
        CFI (cfiCond46) V15 load(1, XDATA, add(CFA_XSP16, literal(-7)))
        CFI (cfiCond46) R7 load(1, XDATA, add(CFA_XSP16, literal(-6)))
        CFI (cfiCond46) ?RET_LOW load(1, XDATA, add(CFA_XSP16, literal(-5)))
        CFI (cfiCond46) ?RET_HIGH load(1, XDATA, add(CFA_XSP16, literal(-4)))
        CFI (cfiCond46) ?BRET_EXT load(1, XDATA, add(CFA_XSP16, literal(-3)))
        CFI (cfiCond46) DPL0 load(1, XDATA, add(CFA_XSP16, literal(-2)))
        CFI (cfiCond46) DPH0 load(1, XDATA, add(CFA_XSP16, literal(-1)))
        CFI (cfiCond46) CFA_SP SP+-1
        CFI (cfiCond46) CFA_XSP16 add(XSP16, 26)
        CFI Block cfiCond47 Using cfiCommon0
        CFI (cfiCond47) NoFunction
        CFI (cfiCond47) Conditional ??CrossCallReturnLabel_37
        CFI (cfiCond47) R6 load(1, XDATA, add(CFA_XSP16, literal(-24)))
        CFI (cfiCond47) VB load(1, XDATA, add(CFA_XSP16, literal(-23)))
        CFI (cfiCond47) V0 load(1, XDATA, add(CFA_XSP16, literal(-22)))
        CFI (cfiCond47) V1 load(1, XDATA, add(CFA_XSP16, literal(-21)))
        CFI (cfiCond47) V2 load(1, XDATA, add(CFA_XSP16, literal(-20)))
        CFI (cfiCond47) V3 load(1, XDATA, add(CFA_XSP16, literal(-19)))
        CFI (cfiCond47) V4 load(1, XDATA, add(CFA_XSP16, literal(-18)))
        CFI (cfiCond47) V5 load(1, XDATA, add(CFA_XSP16, literal(-17)))
        CFI (cfiCond47) V6 load(1, XDATA, add(CFA_XSP16, literal(-16)))
        CFI (cfiCond47) V7 load(1, XDATA, add(CFA_XSP16, literal(-15)))
        CFI (cfiCond47) V8 load(1, XDATA, add(CFA_XSP16, literal(-14)))
        CFI (cfiCond47) V9 load(1, XDATA, add(CFA_XSP16, literal(-13)))
        CFI (cfiCond47) V10 load(1, XDATA, add(CFA_XSP16, literal(-12)))
        CFI (cfiCond47) V11 load(1, XDATA, add(CFA_XSP16, literal(-11)))
        CFI (cfiCond47) V12 load(1, XDATA, add(CFA_XSP16, literal(-10)))
        CFI (cfiCond47) V13 load(1, XDATA, add(CFA_XSP16, literal(-9)))
        CFI (cfiCond47) V14 load(1, XDATA, add(CFA_XSP16, literal(-8)))
        CFI (cfiCond47) V15 load(1, XDATA, add(CFA_XSP16, literal(-7)))
        CFI (cfiCond47) R7 load(1, XDATA, add(CFA_XSP16, literal(-6)))
        CFI (cfiCond47) ?RET_LOW load(1, XDATA, add(CFA_XSP16, literal(-5)))
        CFI (cfiCond47) ?RET_HIGH load(1, XDATA, add(CFA_XSP16, literal(-4)))
        CFI (cfiCond47) ?BRET_EXT load(1, XDATA, add(CFA_XSP16, literal(-3)))
        CFI (cfiCond47) DPL0 load(1, XDATA, add(CFA_XSP16, literal(-2)))
        CFI (cfiCond47) DPH0 load(1, XDATA, add(CFA_XSP16, literal(-1)))
        CFI (cfiCond47) CFA_SP SP+0
        CFI (cfiCond47) CFA_XSP16 add(XSP16, 26)
        CFI Block cfiCond48 Using cfiCommon0
        CFI (cfiCond48) NoFunction
        CFI (cfiCond48) Conditional ??CrossCallReturnLabel_38
        CFI (cfiCond48) R6 load(1, XDATA, add(CFA_XSP16, literal(-24)))
        CFI (cfiCond48) VB load(1, XDATA, add(CFA_XSP16, literal(-23)))
        CFI (cfiCond48) V0 load(1, XDATA, add(CFA_XSP16, literal(-22)))
        CFI (cfiCond48) V1 load(1, XDATA, add(CFA_XSP16, literal(-21)))
        CFI (cfiCond48) V2 load(1, XDATA, add(CFA_XSP16, literal(-20)))
        CFI (cfiCond48) V3 load(1, XDATA, add(CFA_XSP16, literal(-19)))
        CFI (cfiCond48) V4 load(1, XDATA, add(CFA_XSP16, literal(-18)))
        CFI (cfiCond48) V5 load(1, XDATA, add(CFA_XSP16, literal(-17)))
        CFI (cfiCond48) V6 load(1, XDATA, add(CFA_XSP16, literal(-16)))
        CFI (cfiCond48) V7 load(1, XDATA, add(CFA_XSP16, literal(-15)))
        CFI (cfiCond48) V8 load(1, XDATA, add(CFA_XSP16, literal(-14)))
        CFI (cfiCond48) V9 load(1, XDATA, add(CFA_XSP16, literal(-13)))
        CFI (cfiCond48) V10 load(1, XDATA, add(CFA_XSP16, literal(-12)))
        CFI (cfiCond48) V11 load(1, XDATA, add(CFA_XSP16, literal(-11)))
        CFI (cfiCond48) V12 load(1, XDATA, add(CFA_XSP16, literal(-10)))
        CFI (cfiCond48) V13 load(1, XDATA, add(CFA_XSP16, literal(-9)))
        CFI (cfiCond48) V14 load(1, XDATA, add(CFA_XSP16, literal(-8)))
        CFI (cfiCond48) V15 load(1, XDATA, add(CFA_XSP16, literal(-7)))
        CFI (cfiCond48) R7 load(1, XDATA, add(CFA_XSP16, literal(-6)))
        CFI (cfiCond48) ?RET_LOW load(1, XDATA, add(CFA_XSP16, literal(-5)))
        CFI (cfiCond48) ?RET_HIGH load(1, XDATA, add(CFA_XSP16, literal(-4)))
        CFI (cfiCond48) ?BRET_EXT load(1, XDATA, add(CFA_XSP16, literal(-3)))
        CFI (cfiCond48) DPL0 load(1, XDATA, add(CFA_XSP16, literal(-2)))
        CFI (cfiCond48) DPH0 load(1, XDATA, add(CFA_XSP16, literal(-1)))
        CFI (cfiCond48) CFA_SP SP+-1
        CFI (cfiCond48) CFA_XSP16 add(XSP16, 26)
        CFI Block cfiPicker49 Using cfiCommon1
        CFI (cfiPicker49) NoFunction
        CFI (cfiPicker49) Picker
        LCALL   ?Subroutine22 & 0xFFFF
??CrossCallReturnLabel_49:
        RET
        CFI EndBlock cfiCond43
        CFI EndBlock cfiCond44
        CFI EndBlock cfiCond45
        CFI EndBlock cfiCond46
        CFI EndBlock cfiCond47
        CFI EndBlock cfiCond48
        CFI EndBlock cfiPicker49

        RSEG BANKED_CODE:CODE:NOROOT(0)
?Subroutine22:
        CFI Block cfiCond50 Using cfiCommon0
        CFI NoFunction
        CFI Conditional ??CrossCallReturnLabel_47, ??CrossCallReturnLabel_2
        CFI R6 load(1, XDATA, add(CFA_XSP16, literal(-16)))
        CFI VB load(1, XDATA, add(CFA_XSP16, literal(-15)))
        CFI V0 load(1, XDATA, add(CFA_XSP16, literal(-14)))
        CFI V1 load(1, XDATA, add(CFA_XSP16, literal(-13)))
        CFI V2 load(1, XDATA, add(CFA_XSP16, literal(-12)))
        CFI V3 load(1, XDATA, add(CFA_XSP16, literal(-11)))
        CFI V4 load(1, XDATA, add(CFA_XSP16, literal(-10)))
        CFI V5 load(1, XDATA, add(CFA_XSP16, literal(-9)))
        CFI V6 load(1, XDATA, add(CFA_XSP16, literal(-8)))
        CFI V7 load(1, XDATA, add(CFA_XSP16, literal(-7)))
        CFI R7 load(1, XDATA, add(CFA_XSP16, literal(-6)))
        CFI ?RET_LOW load(1, XDATA, add(CFA_XSP16, literal(-5)))
        CFI ?RET_HIGH load(1, XDATA, add(CFA_XSP16, literal(-4)))
        CFI ?BRET_EXT load(1, XDATA, add(CFA_XSP16, literal(-3)))
        CFI DPL0 load(1, XDATA, add(CFA_XSP16, literal(-2)))
        CFI DPH0 load(1, XDATA, add(CFA_XSP16, literal(-1)))
        CFI CFA_SP SP+0
        CFI CFA_XSP16 add(XSP16, 16)
        CFI Block cfiCond51 Using cfiCommon0
        CFI (cfiCond51) NoFunction
        CFI (cfiCond51) Conditional ??CrossCallReturnLabel_47, ??CrossCallReturnLabel_3
        CFI (cfiCond51) R6 load(1, XDATA, add(CFA_XSP16, literal(-16)))
        CFI (cfiCond51) VB load(1, XDATA, add(CFA_XSP16, literal(-15)))
        CFI (cfiCond51) V0 load(1, XDATA, add(CFA_XSP16, literal(-14)))
        CFI (cfiCond51) V1 load(1, XDATA, add(CFA_XSP16, literal(-13)))
        CFI (cfiCond51) V2 load(1, XDATA, add(CFA_XSP16, literal(-12)))
        CFI (cfiCond51) V3 load(1, XDATA, add(CFA_XSP16, literal(-11)))
        CFI (cfiCond51) V4 load(1, XDATA, add(CFA_XSP16, literal(-10)))
        CFI (cfiCond51) V5 load(1, XDATA, add(CFA_XSP16, literal(-9)))
        CFI (cfiCond51) V6 load(1, XDATA, add(CFA_XSP16, literal(-8)))
        CFI (cfiCond51) V7 load(1, XDATA, add(CFA_XSP16, literal(-7)))
        CFI (cfiCond51) R7 load(1, XDATA, add(CFA_XSP16, literal(-6)))
        CFI (cfiCond51) ?RET_LOW load(1, XDATA, add(CFA_XSP16, literal(-5)))
        CFI (cfiCond51) ?RET_HIGH load(1, XDATA, add(CFA_XSP16, literal(-4)))
        CFI (cfiCond51) ?BRET_EXT load(1, XDATA, add(CFA_XSP16, literal(-3)))
        CFI (cfiCond51) DPL0 load(1, XDATA, add(CFA_XSP16, literal(-2)))
        CFI (cfiCond51) DPH0 load(1, XDATA, add(CFA_XSP16, literal(-1)))
        CFI (cfiCond51) CFA_SP SP+0
        CFI (cfiCond51) CFA_XSP16 add(XSP16, 16)
        CFI Block cfiCond52 Using cfiCommon0
        CFI (cfiCond52) NoFunction
        CFI (cfiCond52) Conditional ??CrossCallReturnLabel_48, ??CrossCallReturnLabel_2
        CFI (cfiCond52) R6 load(1, XDATA, add(CFA_XSP16, literal(-16)))
        CFI (cfiCond52) VB load(1, XDATA, add(CFA_XSP16, literal(-15)))
        CFI (cfiCond52) V0 load(1, XDATA, add(CFA_XSP16, literal(-14)))
        CFI (cfiCond52) V1 load(1, XDATA, add(CFA_XSP16, literal(-13)))
        CFI (cfiCond52) V2 load(1, XDATA, add(CFA_XSP16, literal(-12)))
        CFI (cfiCond52) V3 load(1, XDATA, add(CFA_XSP16, literal(-11)))
        CFI (cfiCond52) V4 load(1, XDATA, add(CFA_XSP16, literal(-10)))
        CFI (cfiCond52) V5 load(1, XDATA, add(CFA_XSP16, literal(-9)))
        CFI (cfiCond52) V6 load(1, XDATA, add(CFA_XSP16, literal(-8)))
        CFI (cfiCond52) V7 load(1, XDATA, add(CFA_XSP16, literal(-7)))
        CFI (cfiCond52) R7 load(1, XDATA, add(CFA_XSP16, literal(-6)))
        CFI (cfiCond52) ?RET_LOW load(1, XDATA, add(CFA_XSP16, literal(-5)))
        CFI (cfiCond52) ?RET_HIGH load(1, XDATA, add(CFA_XSP16, literal(-4)))
        CFI (cfiCond52) ?BRET_EXT load(1, XDATA, add(CFA_XSP16, literal(-3)))
        CFI (cfiCond52) DPL0 load(1, XDATA, add(CFA_XSP16, literal(-2)))
        CFI (cfiCond52) DPH0 load(1, XDATA, add(CFA_XSP16, literal(-1)))
        CFI (cfiCond52) CFA_SP SP+0
        CFI (cfiCond52) CFA_XSP16 add(XSP16, 16)
        CFI Block cfiCond53 Using cfiCommon0
        CFI (cfiCond53) NoFunction
        CFI (cfiCond53) Conditional ??CrossCallReturnLabel_48, ??CrossCallReturnLabel_3
        CFI (cfiCond53) R6 load(1, XDATA, add(CFA_XSP16, literal(-16)))
        CFI (cfiCond53) VB load(1, XDATA, add(CFA_XSP16, literal(-15)))
        CFI (cfiCond53) V0 load(1, XDATA, add(CFA_XSP16, literal(-14)))
        CFI (cfiCond53) V1 load(1, XDATA, add(CFA_XSP16, literal(-13)))
        CFI (cfiCond53) V2 load(1, XDATA, add(CFA_XSP16, literal(-12)))
        CFI (cfiCond53) V3 load(1, XDATA, add(CFA_XSP16, literal(-11)))
        CFI (cfiCond53) V4 load(1, XDATA, add(CFA_XSP16, literal(-10)))
        CFI (cfiCond53) V5 load(1, XDATA, add(CFA_XSP16, literal(-9)))
        CFI (cfiCond53) V6 load(1, XDATA, add(CFA_XSP16, literal(-8)))
        CFI (cfiCond53) V7 load(1, XDATA, add(CFA_XSP16, literal(-7)))
        CFI (cfiCond53) R7 load(1, XDATA, add(CFA_XSP16, literal(-6)))
        CFI (cfiCond53) ?RET_LOW load(1, XDATA, add(CFA_XSP16, literal(-5)))
        CFI (cfiCond53) ?RET_HIGH load(1, XDATA, add(CFA_XSP16, literal(-4)))
        CFI (cfiCond53) ?BRET_EXT load(1, XDATA, add(CFA_XSP16, literal(-3)))
        CFI (cfiCond53) DPL0 load(1, XDATA, add(CFA_XSP16, literal(-2)))
        CFI (cfiCond53) DPH0 load(1, XDATA, add(CFA_XSP16, literal(-1)))
        CFI (cfiCond53) CFA_SP SP+0
        CFI (cfiCond53) CFA_XSP16 add(XSP16, 16)
        CFI Block cfiCond54 Using cfiCommon0
        CFI (cfiCond54) NoFunction
        CFI (cfiCond54) Conditional ??CrossCallReturnLabel_49, ??CrossCallReturnLabel_33
        CFI (cfiCond54) R6 load(1, XDATA, add(CFA_XSP16, literal(-16)))
        CFI (cfiCond54) VB load(1, XDATA, add(CFA_XSP16, literal(-15)))
        CFI (cfiCond54) V0 load(1, XDATA, add(CFA_XSP16, literal(-14)))
        CFI (cfiCond54) V1 load(1, XDATA, add(CFA_XSP16, literal(-13)))
        CFI (cfiCond54) V2 load(1, XDATA, add(CFA_XSP16, literal(-12)))
        CFI (cfiCond54) V3 load(1, XDATA, add(CFA_XSP16, literal(-11)))
        CFI (cfiCond54) V4 load(1, XDATA, add(CFA_XSP16, literal(-10)))
        CFI (cfiCond54) V5 load(1, XDATA, add(CFA_XSP16, literal(-9)))
        CFI (cfiCond54) V6 load(1, XDATA, add(CFA_XSP16, literal(-8)))
        CFI (cfiCond54) V7 load(1, XDATA, add(CFA_XSP16, literal(-7)))
        CFI (cfiCond54) R7 load(1, XDATA, add(CFA_XSP16, literal(-6)))
        CFI (cfiCond54) ?RET_LOW load(1, XDATA, add(CFA_XSP16, literal(-5)))
        CFI (cfiCond54) ?RET_HIGH load(1, XDATA, add(CFA_XSP16, literal(-4)))
        CFI (cfiCond54) ?BRET_EXT load(1, XDATA, add(CFA_XSP16, literal(-3)))
        CFI (cfiCond54) DPL0 load(1, XDATA, add(CFA_XSP16, literal(-2)))
        CFI (cfiCond54) DPH0 load(1, XDATA, add(CFA_XSP16, literal(-1)))
        CFI (cfiCond54) CFA_SP SP+-1
        CFI (cfiCond54) CFA_XSP16 add(XSP16, 16)
        CFI Block cfiCond55 Using cfiCommon0
        CFI (cfiCond55) NoFunction
        CFI (cfiCond55) Conditional ??CrossCallReturnLabel_49, ??CrossCallReturnLabel_34
        CFI (cfiCond55) R6 load(1, XDATA, add(CFA_XSP16, literal(-16)))
        CFI (cfiCond55) VB load(1, XDATA, add(CFA_XSP16, literal(-15)))
        CFI (cfiCond55) V0 load(1, XDATA, add(CFA_XSP16, literal(-14)))
        CFI (cfiCond55) V1 load(1, XDATA, add(CFA_XSP16, literal(-13)))
        CFI (cfiCond55) V2 load(1, XDATA, add(CFA_XSP16, literal(-12)))
        CFI (cfiCond55) V3 load(1, XDATA, add(CFA_XSP16, literal(-11)))
        CFI (cfiCond55) V4 load(1, XDATA, add(CFA_XSP16, literal(-10)))
        CFI (cfiCond55) V5 load(1, XDATA, add(CFA_XSP16, literal(-9)))
        CFI (cfiCond55) V6 load(1, XDATA, add(CFA_XSP16, literal(-8)))
        CFI (cfiCond55) V7 load(1, XDATA, add(CFA_XSP16, literal(-7)))
        CFI (cfiCond55) R7 load(1, XDATA, add(CFA_XSP16, literal(-6)))
        CFI (cfiCond55) ?RET_LOW load(1, XDATA, add(CFA_XSP16, literal(-5)))
        CFI (cfiCond55) ?RET_HIGH load(1, XDATA, add(CFA_XSP16, literal(-4)))
        CFI (cfiCond55) ?BRET_EXT load(1, XDATA, add(CFA_XSP16, literal(-3)))
        CFI (cfiCond55) DPL0 load(1, XDATA, add(CFA_XSP16, literal(-2)))
        CFI (cfiCond55) DPH0 load(1, XDATA, add(CFA_XSP16, literal(-1)))
        CFI (cfiCond55) CFA_SP SP+-1
        CFI (cfiCond55) CFA_XSP16 add(XSP16, 16)
        CFI Block cfiCond56 Using cfiCommon0
        CFI (cfiCond56) NoFunction
        CFI (cfiCond56) Conditional ??CrossCallReturnLabel_49, ??CrossCallReturnLabel_35
        CFI (cfiCond56) R6 load(1, XDATA, add(CFA_XSP16, literal(-16)))
        CFI (cfiCond56) VB load(1, XDATA, add(CFA_XSP16, literal(-15)))
        CFI (cfiCond56) V0 load(1, XDATA, add(CFA_XSP16, literal(-14)))
        CFI (cfiCond56) V1 load(1, XDATA, add(CFA_XSP16, literal(-13)))
        CFI (cfiCond56) V2 load(1, XDATA, add(CFA_XSP16, literal(-12)))
        CFI (cfiCond56) V3 load(1, XDATA, add(CFA_XSP16, literal(-11)))
        CFI (cfiCond56) V4 load(1, XDATA, add(CFA_XSP16, literal(-10)))
        CFI (cfiCond56) V5 load(1, XDATA, add(CFA_XSP16, literal(-9)))
        CFI (cfiCond56) V6 load(1, XDATA, add(CFA_XSP16, literal(-8)))
        CFI (cfiCond56) V7 load(1, XDATA, add(CFA_XSP16, literal(-7)))
        CFI (cfiCond56) R7 load(1, XDATA, add(CFA_XSP16, literal(-6)))
        CFI (cfiCond56) ?RET_LOW load(1, XDATA, add(CFA_XSP16, literal(-5)))
        CFI (cfiCond56) ?RET_HIGH load(1, XDATA, add(CFA_XSP16, literal(-4)))
        CFI (cfiCond56) ?BRET_EXT load(1, XDATA, add(CFA_XSP16, literal(-3)))
        CFI (cfiCond56) DPL0 load(1, XDATA, add(CFA_XSP16, literal(-2)))
        CFI (cfiCond56) DPH0 load(1, XDATA, add(CFA_XSP16, literal(-1)))
        CFI (cfiCond56) CFA_SP SP+-1
        CFI (cfiCond56) CFA_XSP16 add(XSP16, 16)
        CFI Block cfiCond57 Using cfiCommon0
        CFI (cfiCond57) NoFunction
        CFI (cfiCond57) Conditional ??CrossCallReturnLabel_49, ??CrossCallReturnLabel_36
        CFI (cfiCond57) R6 load(1, XDATA, add(CFA_XSP16, literal(-24)))
        CFI (cfiCond57) VB load(1, XDATA, add(CFA_XSP16, literal(-23)))
        CFI (cfiCond57) V0 load(1, XDATA, add(CFA_XSP16, literal(-22)))
        CFI (cfiCond57) V1 load(1, XDATA, add(CFA_XSP16, literal(-21)))
        CFI (cfiCond57) V2 load(1, XDATA, add(CFA_XSP16, literal(-20)))
        CFI (cfiCond57) V3 load(1, XDATA, add(CFA_XSP16, literal(-19)))
        CFI (cfiCond57) V4 load(1, XDATA, add(CFA_XSP16, literal(-18)))
        CFI (cfiCond57) V5 load(1, XDATA, add(CFA_XSP16, literal(-17)))
        CFI (cfiCond57) V6 load(1, XDATA, add(CFA_XSP16, literal(-16)))
        CFI (cfiCond57) V7 load(1, XDATA, add(CFA_XSP16, literal(-15)))
        CFI (cfiCond57) V8 load(1, XDATA, add(CFA_XSP16, literal(-14)))
        CFI (cfiCond57) V9 load(1, XDATA, add(CFA_XSP16, literal(-13)))
        CFI (cfiCond57) V10 load(1, XDATA, add(CFA_XSP16, literal(-12)))
        CFI (cfiCond57) V11 load(1, XDATA, add(CFA_XSP16, literal(-11)))
        CFI (cfiCond57) V12 load(1, XDATA, add(CFA_XSP16, literal(-10)))
        CFI (cfiCond57) V13 load(1, XDATA, add(CFA_XSP16, literal(-9)))
        CFI (cfiCond57) V14 load(1, XDATA, add(CFA_XSP16, literal(-8)))
        CFI (cfiCond57) V15 load(1, XDATA, add(CFA_XSP16, literal(-7)))
        CFI (cfiCond57) R7 load(1, XDATA, add(CFA_XSP16, literal(-6)))
        CFI (cfiCond57) ?RET_LOW load(1, XDATA, add(CFA_XSP16, literal(-5)))
        CFI (cfiCond57) ?RET_HIGH load(1, XDATA, add(CFA_XSP16, literal(-4)))
        CFI (cfiCond57) ?BRET_EXT load(1, XDATA, add(CFA_XSP16, literal(-3)))
        CFI (cfiCond57) DPL0 load(1, XDATA, add(CFA_XSP16, literal(-2)))
        CFI (cfiCond57) DPH0 load(1, XDATA, add(CFA_XSP16, literal(-1)))
        CFI (cfiCond57) CFA_SP SP+-1
        CFI (cfiCond57) CFA_XSP16 add(XSP16, 26)
        CFI Block cfiCond58 Using cfiCommon0
        CFI (cfiCond58) NoFunction
        CFI (cfiCond58) Conditional ??CrossCallReturnLabel_49, ??CrossCallReturnLabel_37
        CFI (cfiCond58) R6 load(1, XDATA, add(CFA_XSP16, literal(-24)))
        CFI (cfiCond58) VB load(1, XDATA, add(CFA_XSP16, literal(-23)))
        CFI (cfiCond58) V0 load(1, XDATA, add(CFA_XSP16, literal(-22)))
        CFI (cfiCond58) V1 load(1, XDATA, add(CFA_XSP16, literal(-21)))
        CFI (cfiCond58) V2 load(1, XDATA, add(CFA_XSP16, literal(-20)))
        CFI (cfiCond58) V3 load(1, XDATA, add(CFA_XSP16, literal(-19)))
        CFI (cfiCond58) V4 load(1, XDATA, add(CFA_XSP16, literal(-18)))
        CFI (cfiCond58) V5 load(1, XDATA, add(CFA_XSP16, literal(-17)))
        CFI (cfiCond58) V6 load(1, XDATA, add(CFA_XSP16, literal(-16)))
        CFI (cfiCond58) V7 load(1, XDATA, add(CFA_XSP16, literal(-15)))
        CFI (cfiCond58) V8 load(1, XDATA, add(CFA_XSP16, literal(-14)))
        CFI (cfiCond58) V9 load(1, XDATA, add(CFA_XSP16, literal(-13)))
        CFI (cfiCond58) V10 load(1, XDATA, add(CFA_XSP16, literal(-12)))
        CFI (cfiCond58) V11 load(1, XDATA, add(CFA_XSP16, literal(-11)))
        CFI (cfiCond58) V12 load(1, XDATA, add(CFA_XSP16, literal(-10)))
        CFI (cfiCond58) V13 load(1, XDATA, add(CFA_XSP16, literal(-9)))
        CFI (cfiCond58) V14 load(1, XDATA, add(CFA_XSP16, literal(-8)))
        CFI (cfiCond58) V15 load(1, XDATA, add(CFA_XSP16, literal(-7)))
        CFI (cfiCond58) R7 load(1, XDATA, add(CFA_XSP16, literal(-6)))
        CFI (cfiCond58) ?RET_LOW load(1, XDATA, add(CFA_XSP16, literal(-5)))
        CFI (cfiCond58) ?RET_HIGH load(1, XDATA, add(CFA_XSP16, literal(-4)))
        CFI (cfiCond58) ?BRET_EXT load(1, XDATA, add(CFA_XSP16, literal(-3)))
        CFI (cfiCond58) DPL0 load(1, XDATA, add(CFA_XSP16, literal(-2)))
        CFI (cfiCond58) DPH0 load(1, XDATA, add(CFA_XSP16, literal(-1)))
        CFI (cfiCond58) CFA_SP SP+0
        CFI (cfiCond58) CFA_XSP16 add(XSP16, 26)
        CFI Block cfiCond59 Using cfiCommon0
        CFI (cfiCond59) NoFunction
        CFI (cfiCond59) Conditional ??CrossCallReturnLabel_49, ??CrossCallReturnLabel_38
        CFI (cfiCond59) R6 load(1, XDATA, add(CFA_XSP16, literal(-24)))
        CFI (cfiCond59) VB load(1, XDATA, add(CFA_XSP16, literal(-23)))
        CFI (cfiCond59) V0 load(1, XDATA, add(CFA_XSP16, literal(-22)))
        CFI (cfiCond59) V1 load(1, XDATA, add(CFA_XSP16, literal(-21)))
        CFI (cfiCond59) V2 load(1, XDATA, add(CFA_XSP16, literal(-20)))
        CFI (cfiCond59) V3 load(1, XDATA, add(CFA_XSP16, literal(-19)))
        CFI (cfiCond59) V4 load(1, XDATA, add(CFA_XSP16, literal(-18)))
        CFI (cfiCond59) V5 load(1, XDATA, add(CFA_XSP16, literal(-17)))
        CFI (cfiCond59) V6 load(1, XDATA, add(CFA_XSP16, literal(-16)))
        CFI (cfiCond59) V7 load(1, XDATA, add(CFA_XSP16, literal(-15)))
        CFI (cfiCond59) V8 load(1, XDATA, add(CFA_XSP16, literal(-14)))
        CFI (cfiCond59) V9 load(1, XDATA, add(CFA_XSP16, literal(-13)))
        CFI (cfiCond59) V10 load(1, XDATA, add(CFA_XSP16, literal(-12)))
        CFI (cfiCond59) V11 load(1, XDATA, add(CFA_XSP16, literal(-11)))
        CFI (cfiCond59) V12 load(1, XDATA, add(CFA_XSP16, literal(-10)))
        CFI (cfiCond59) V13 load(1, XDATA, add(CFA_XSP16, literal(-9)))
        CFI (cfiCond59) V14 load(1, XDATA, add(CFA_XSP16, literal(-8)))
        CFI (cfiCond59) V15 load(1, XDATA, add(CFA_XSP16, literal(-7)))
        CFI (cfiCond59) R7 load(1, XDATA, add(CFA_XSP16, literal(-6)))
        CFI (cfiCond59) ?RET_LOW load(1, XDATA, add(CFA_XSP16, literal(-5)))
        CFI (cfiCond59) ?RET_HIGH load(1, XDATA, add(CFA_XSP16, literal(-4)))
        CFI (cfiCond59) ?BRET_EXT load(1, XDATA, add(CFA_XSP16, literal(-3)))
        CFI (cfiCond59) DPL0 load(1, XDATA, add(CFA_XSP16, literal(-2)))
        CFI (cfiCond59) DPH0 load(1, XDATA, add(CFA_XSP16, literal(-1)))
        CFI (cfiCond59) CFA_SP SP+-1
        CFI (cfiCond59) CFA_XSP16 add(XSP16, 26)
        CFI Block cfiPicker60 Using cfiCommon1
        CFI (cfiPicker60) NoFunction
        CFI (cfiPicker60) Picker
        MOV     A,#strTemp_gen & 0xff
        ADD     A,R6
        MOV     DPL,A
        MOV     A,#(strTemp_gen >> 8) & 0xff
        ADDC    A,R7
        MOV     DPH,A
        RET
        CFI EndBlock cfiCond50
        CFI EndBlock cfiCond51
        CFI EndBlock cfiCond52
        CFI EndBlock cfiCond53
        CFI EndBlock cfiCond54
        CFI EndBlock cfiCond55
        CFI EndBlock cfiCond56
        CFI EndBlock cfiCond57
        CFI EndBlock cfiCond58
        CFI EndBlock cfiCond59
        CFI EndBlock cfiPicker60

        RSEG BANKED_CODE:CODE:NOROOT(0)
?Subroutine6:
        CFI Block cfiCond61 Using cfiCommon0
        CFI NoFunction
        CFI Conditional ??CrossCallReturnLabel_10
        CFI R6 load(1, XDATA, add(CFA_XSP16, literal(-16)))
        CFI VB load(1, XDATA, add(CFA_XSP16, literal(-15)))
        CFI V0 load(1, XDATA, add(CFA_XSP16, literal(-14)))
        CFI V1 load(1, XDATA, add(CFA_XSP16, literal(-13)))
        CFI V2 load(1, XDATA, add(CFA_XSP16, literal(-12)))
        CFI V3 load(1, XDATA, add(CFA_XSP16, literal(-11)))
        CFI V4 load(1, XDATA, add(CFA_XSP16, literal(-10)))
        CFI V5 load(1, XDATA, add(CFA_XSP16, literal(-9)))
        CFI V6 load(1, XDATA, add(CFA_XSP16, literal(-8)))
        CFI V7 load(1, XDATA, add(CFA_XSP16, literal(-7)))
        CFI R7 load(1, XDATA, add(CFA_XSP16, literal(-6)))
        CFI ?RET_LOW load(1, XDATA, add(CFA_XSP16, literal(-5)))
        CFI ?RET_HIGH load(1, XDATA, add(CFA_XSP16, literal(-4)))
        CFI ?BRET_EXT load(1, XDATA, add(CFA_XSP16, literal(-3)))
        CFI DPL0 load(1, XDATA, add(CFA_XSP16, literal(-2)))
        CFI DPH0 load(1, XDATA, add(CFA_XSP16, literal(-1)))
        CFI CFA_SP SP+0
        CFI CFA_XSP16 add(XSP16, 16)
        CFI Block cfiCond62 Using cfiCommon0
        CFI (cfiCond62) NoFunction
        CFI (cfiCond62) Conditional ??CrossCallReturnLabel_11
        CFI (cfiCond62) R6 load(1, XDATA, add(CFA_XSP16, literal(-24)))
        CFI (cfiCond62) VB load(1, XDATA, add(CFA_XSP16, literal(-23)))
        CFI (cfiCond62) V0 load(1, XDATA, add(CFA_XSP16, literal(-22)))
        CFI (cfiCond62) V1 load(1, XDATA, add(CFA_XSP16, literal(-21)))
        CFI (cfiCond62) V2 load(1, XDATA, add(CFA_XSP16, literal(-20)))
        CFI (cfiCond62) V3 load(1, XDATA, add(CFA_XSP16, literal(-19)))
        CFI (cfiCond62) V4 load(1, XDATA, add(CFA_XSP16, literal(-18)))
        CFI (cfiCond62) V5 load(1, XDATA, add(CFA_XSP16, literal(-17)))
        CFI (cfiCond62) V6 load(1, XDATA, add(CFA_XSP16, literal(-16)))
        CFI (cfiCond62) V7 load(1, XDATA, add(CFA_XSP16, literal(-15)))
        CFI (cfiCond62) V8 load(1, XDATA, add(CFA_XSP16, literal(-14)))
        CFI (cfiCond62) V9 load(1, XDATA, add(CFA_XSP16, literal(-13)))
        CFI (cfiCond62) V10 load(1, XDATA, add(CFA_XSP16, literal(-12)))
        CFI (cfiCond62) V11 load(1, XDATA, add(CFA_XSP16, literal(-11)))
        CFI (cfiCond62) V12 load(1, XDATA, add(CFA_XSP16, literal(-10)))
        CFI (cfiCond62) V13 load(1, XDATA, add(CFA_XSP16, literal(-9)))
        CFI (cfiCond62) V14 load(1, XDATA, add(CFA_XSP16, literal(-8)))
        CFI (cfiCond62) V15 load(1, XDATA, add(CFA_XSP16, literal(-7)))
        CFI (cfiCond62) R7 load(1, XDATA, add(CFA_XSP16, literal(-6)))
        CFI (cfiCond62) ?RET_LOW load(1, XDATA, add(CFA_XSP16, literal(-5)))
        CFI (cfiCond62) ?RET_HIGH load(1, XDATA, add(CFA_XSP16, literal(-4)))
        CFI (cfiCond62) ?BRET_EXT load(1, XDATA, add(CFA_XSP16, literal(-3)))
        CFI (cfiCond62) DPL0 load(1, XDATA, add(CFA_XSP16, literal(-2)))
        CFI (cfiCond62) DPH0 load(1, XDATA, add(CFA_XSP16, literal(-1)))
        CFI (cfiCond62) CFA_SP SP+0
        CFI (cfiCond62) CFA_XSP16 add(XSP16, 26)
        CFI Block cfiCond63 Using cfiCommon0
        CFI (cfiCond63) NoFunction
        CFI (cfiCond63) Conditional ??CrossCallReturnLabel_12
        CFI (cfiCond63) R6 load(1, XDATA, add(CFA_XSP16, literal(-24)))
        CFI (cfiCond63) VB load(1, XDATA, add(CFA_XSP16, literal(-23)))
        CFI (cfiCond63) V0 load(1, XDATA, add(CFA_XSP16, literal(-22)))
        CFI (cfiCond63) V1 load(1, XDATA, add(CFA_XSP16, literal(-21)))
        CFI (cfiCond63) V2 load(1, XDATA, add(CFA_XSP16, literal(-20)))
        CFI (cfiCond63) V3 load(1, XDATA, add(CFA_XSP16, literal(-19)))
        CFI (cfiCond63) V4 load(1, XDATA, add(CFA_XSP16, literal(-18)))
        CFI (cfiCond63) V5 load(1, XDATA, add(CFA_XSP16, literal(-17)))
        CFI (cfiCond63) V6 load(1, XDATA, add(CFA_XSP16, literal(-16)))
        CFI (cfiCond63) V7 load(1, XDATA, add(CFA_XSP16, literal(-15)))
        CFI (cfiCond63) V8 load(1, XDATA, add(CFA_XSP16, literal(-14)))
        CFI (cfiCond63) V9 load(1, XDATA, add(CFA_XSP16, literal(-13)))
        CFI (cfiCond63) V10 load(1, XDATA, add(CFA_XSP16, literal(-12)))
        CFI (cfiCond63) V11 load(1, XDATA, add(CFA_XSP16, literal(-11)))
        CFI (cfiCond63) V12 load(1, XDATA, add(CFA_XSP16, literal(-10)))
        CFI (cfiCond63) V13 load(1, XDATA, add(CFA_XSP16, literal(-9)))
        CFI (cfiCond63) V14 load(1, XDATA, add(CFA_XSP16, literal(-8)))
        CFI (cfiCond63) V15 load(1, XDATA, add(CFA_XSP16, literal(-7)))
        CFI (cfiCond63) R7 load(1, XDATA, add(CFA_XSP16, literal(-6)))
        CFI (cfiCond63) ?RET_LOW load(1, XDATA, add(CFA_XSP16, literal(-5)))
        CFI (cfiCond63) ?RET_HIGH load(1, XDATA, add(CFA_XSP16, literal(-4)))
        CFI (cfiCond63) ?BRET_EXT load(1, XDATA, add(CFA_XSP16, literal(-3)))
        CFI (cfiCond63) DPL0 load(1, XDATA, add(CFA_XSP16, literal(-2)))
        CFI (cfiCond63) DPH0 load(1, XDATA, add(CFA_XSP16, literal(-1)))
        CFI (cfiCond63) CFA_SP SP+0
        CFI (cfiCond63) CFA_XSP16 add(XSP16, 26)
        CFI Block cfiCond64 Using cfiCommon0
        CFI (cfiCond64) NoFunction
        CFI (cfiCond64) Conditional ??CrossCallReturnLabel_13
        CFI (cfiCond64) R6 load(1, XDATA, add(CFA_XSP16, literal(-24)))
        CFI (cfiCond64) VB load(1, XDATA, add(CFA_XSP16, literal(-23)))
        CFI (cfiCond64) V0 load(1, XDATA, add(CFA_XSP16, literal(-22)))
        CFI (cfiCond64) V1 load(1, XDATA, add(CFA_XSP16, literal(-21)))
        CFI (cfiCond64) V2 load(1, XDATA, add(CFA_XSP16, literal(-20)))
        CFI (cfiCond64) V3 load(1, XDATA, add(CFA_XSP16, literal(-19)))
        CFI (cfiCond64) V4 load(1, XDATA, add(CFA_XSP16, literal(-18)))
        CFI (cfiCond64) V5 load(1, XDATA, add(CFA_XSP16, literal(-17)))
        CFI (cfiCond64) V6 load(1, XDATA, add(CFA_XSP16, literal(-16)))
        CFI (cfiCond64) V7 load(1, XDATA, add(CFA_XSP16, literal(-15)))
        CFI (cfiCond64) V8 load(1, XDATA, add(CFA_XSP16, literal(-14)))
        CFI (cfiCond64) V9 load(1, XDATA, add(CFA_XSP16, literal(-13)))
        CFI (cfiCond64) V10 load(1, XDATA, add(CFA_XSP16, literal(-12)))
        CFI (cfiCond64) V11 load(1, XDATA, add(CFA_XSP16, literal(-11)))
        CFI (cfiCond64) V12 load(1, XDATA, add(CFA_XSP16, literal(-10)))
        CFI (cfiCond64) V13 load(1, XDATA, add(CFA_XSP16, literal(-9)))
        CFI (cfiCond64) V14 load(1, XDATA, add(CFA_XSP16, literal(-8)))
        CFI (cfiCond64) V15 load(1, XDATA, add(CFA_XSP16, literal(-7)))
        CFI (cfiCond64) R7 load(1, XDATA, add(CFA_XSP16, literal(-6)))
        CFI (cfiCond64) ?RET_LOW load(1, XDATA, add(CFA_XSP16, literal(-5)))
        CFI (cfiCond64) ?RET_HIGH load(1, XDATA, add(CFA_XSP16, literal(-4)))
        CFI (cfiCond64) ?BRET_EXT load(1, XDATA, add(CFA_XSP16, literal(-3)))
        CFI (cfiCond64) DPL0 load(1, XDATA, add(CFA_XSP16, literal(-2)))
        CFI (cfiCond64) DPH0 load(1, XDATA, add(CFA_XSP16, literal(-1)))
        CFI (cfiCond64) CFA_SP SP+0
        CFI (cfiCond64) CFA_XSP16 add(XSP16, 26)
        CFI Block cfiCond65 Using cfiCommon0
        CFI (cfiCond65) NoFunction
        CFI (cfiCond65) Conditional ??CrossCallReturnLabel_14
        CFI (cfiCond65) R6 load(1, XDATA, add(CFA_XSP16, literal(-24)))
        CFI (cfiCond65) VB load(1, XDATA, add(CFA_XSP16, literal(-23)))
        CFI (cfiCond65) V0 load(1, XDATA, add(CFA_XSP16, literal(-22)))
        CFI (cfiCond65) V1 load(1, XDATA, add(CFA_XSP16, literal(-21)))
        CFI (cfiCond65) V2 load(1, XDATA, add(CFA_XSP16, literal(-20)))
        CFI (cfiCond65) V3 load(1, XDATA, add(CFA_XSP16, literal(-19)))
        CFI (cfiCond65) V4 load(1, XDATA, add(CFA_XSP16, literal(-18)))
        CFI (cfiCond65) V5 load(1, XDATA, add(CFA_XSP16, literal(-17)))
        CFI (cfiCond65) V6 load(1, XDATA, add(CFA_XSP16, literal(-16)))
        CFI (cfiCond65) V7 load(1, XDATA, add(CFA_XSP16, literal(-15)))
        CFI (cfiCond65) V8 load(1, XDATA, add(CFA_XSP16, literal(-14)))
        CFI (cfiCond65) V9 load(1, XDATA, add(CFA_XSP16, literal(-13)))
        CFI (cfiCond65) V10 load(1, XDATA, add(CFA_XSP16, literal(-12)))
        CFI (cfiCond65) V11 load(1, XDATA, add(CFA_XSP16, literal(-11)))
        CFI (cfiCond65) V12 load(1, XDATA, add(CFA_XSP16, literal(-10)))
        CFI (cfiCond65) V13 load(1, XDATA, add(CFA_XSP16, literal(-9)))
        CFI (cfiCond65) V14 load(1, XDATA, add(CFA_XSP16, literal(-8)))
        CFI (cfiCond65) V15 load(1, XDATA, add(CFA_XSP16, literal(-7)))
        CFI (cfiCond65) R7 load(1, XDATA, add(CFA_XSP16, literal(-6)))
        CFI (cfiCond65) ?RET_LOW load(1, XDATA, add(CFA_XSP16, literal(-5)))
        CFI (cfiCond65) ?RET_HIGH load(1, XDATA, add(CFA_XSP16, literal(-4)))
        CFI (cfiCond65) ?BRET_EXT load(1, XDATA, add(CFA_XSP16, literal(-3)))
        CFI (cfiCond65) DPL0 load(1, XDATA, add(CFA_XSP16, literal(-2)))
        CFI (cfiCond65) DPH0 load(1, XDATA, add(CFA_XSP16, literal(-1)))
        CFI (cfiCond65) CFA_SP SP+0
        CFI (cfiCond65) CFA_XSP16 add(XSP16, 26)
        CFI Block cfiPicker66 Using cfiCommon1
        CFI (cfiPicker66) NoFunction
        CFI (cfiPicker66) Picker
        MOV     A,R2
        ADD     A,#0x1
        INC     R2
        MOV     A,R3
        ADDC    A,#0x0
        MOV     R3,A
        RET
        CFI EndBlock cfiCond61
        CFI EndBlock cfiCond62
        CFI EndBlock cfiCond63
        CFI EndBlock cfiCond64
        CFI EndBlock cfiCond65
        CFI EndBlock cfiPicker66

        RSEG BANKED_CODE:CODE:NOROOT(0)
?Subroutine5:
        CFI Block cfiCond67 Using cfiCommon0
        CFI NoFunction
        CFI Conditional ??CrossCallReturnLabel_4
        CFI R6 load(1, XDATA, add(CFA_XSP16, literal(-16)))
        CFI VB load(1, XDATA, add(CFA_XSP16, literal(-15)))
        CFI V0 load(1, XDATA, add(CFA_XSP16, literal(-14)))
        CFI V1 load(1, XDATA, add(CFA_XSP16, literal(-13)))
        CFI V2 load(1, XDATA, add(CFA_XSP16, literal(-12)))
        CFI V3 load(1, XDATA, add(CFA_XSP16, literal(-11)))
        CFI V4 load(1, XDATA, add(CFA_XSP16, literal(-10)))
        CFI V5 load(1, XDATA, add(CFA_XSP16, literal(-9)))
        CFI V6 load(1, XDATA, add(CFA_XSP16, literal(-8)))
        CFI V7 load(1, XDATA, add(CFA_XSP16, literal(-7)))
        CFI R7 load(1, XDATA, add(CFA_XSP16, literal(-6)))
        CFI ?RET_LOW load(1, XDATA, add(CFA_XSP16, literal(-5)))
        CFI ?RET_HIGH load(1, XDATA, add(CFA_XSP16, literal(-4)))
        CFI ?BRET_EXT load(1, XDATA, add(CFA_XSP16, literal(-3)))
        CFI DPL0 load(1, XDATA, add(CFA_XSP16, literal(-2)))
        CFI DPH0 load(1, XDATA, add(CFA_XSP16, literal(-1)))
        CFI CFA_SP SP+0
        CFI CFA_XSP16 add(XSP16, 16)
        CFI Block cfiCond68 Using cfiCommon0
        CFI (cfiCond68) NoFunction
        CFI (cfiCond68) Conditional ??CrossCallReturnLabel_5
        CFI (cfiCond68) R6 load(1, XDATA, add(CFA_XSP16, literal(-16)))
        CFI (cfiCond68) VB load(1, XDATA, add(CFA_XSP16, literal(-15)))
        CFI (cfiCond68) V0 load(1, XDATA, add(CFA_XSP16, literal(-14)))
        CFI (cfiCond68) V1 load(1, XDATA, add(CFA_XSP16, literal(-13)))
        CFI (cfiCond68) V2 load(1, XDATA, add(CFA_XSP16, literal(-12)))
        CFI (cfiCond68) V3 load(1, XDATA, add(CFA_XSP16, literal(-11)))
        CFI (cfiCond68) V4 load(1, XDATA, add(CFA_XSP16, literal(-10)))
        CFI (cfiCond68) V5 load(1, XDATA, add(CFA_XSP16, literal(-9)))
        CFI (cfiCond68) V6 load(1, XDATA, add(CFA_XSP16, literal(-8)))
        CFI (cfiCond68) V7 load(1, XDATA, add(CFA_XSP16, literal(-7)))
        CFI (cfiCond68) R7 load(1, XDATA, add(CFA_XSP16, literal(-6)))
        CFI (cfiCond68) ?RET_LOW load(1, XDATA, add(CFA_XSP16, literal(-5)))
        CFI (cfiCond68) ?RET_HIGH load(1, XDATA, add(CFA_XSP16, literal(-4)))
        CFI (cfiCond68) ?BRET_EXT load(1, XDATA, add(CFA_XSP16, literal(-3)))
        CFI (cfiCond68) DPL0 load(1, XDATA, add(CFA_XSP16, literal(-2)))
        CFI (cfiCond68) DPH0 load(1, XDATA, add(CFA_XSP16, literal(-1)))
        CFI (cfiCond68) CFA_SP SP+0
        CFI (cfiCond68) CFA_XSP16 add(XSP16, 16)
        CFI Block cfiCond69 Using cfiCommon0
        CFI (cfiCond69) NoFunction
        CFI (cfiCond69) Conditional ??CrossCallReturnLabel_6
        CFI (cfiCond69) R6 load(1, XDATA, add(CFA_XSP16, literal(-16)))
        CFI (cfiCond69) VB load(1, XDATA, add(CFA_XSP16, literal(-15)))
        CFI (cfiCond69) V0 load(1, XDATA, add(CFA_XSP16, literal(-14)))
        CFI (cfiCond69) V1 load(1, XDATA, add(CFA_XSP16, literal(-13)))
        CFI (cfiCond69) V2 load(1, XDATA, add(CFA_XSP16, literal(-12)))
        CFI (cfiCond69) V3 load(1, XDATA, add(CFA_XSP16, literal(-11)))
        CFI (cfiCond69) V4 load(1, XDATA, add(CFA_XSP16, literal(-10)))
        CFI (cfiCond69) V5 load(1, XDATA, add(CFA_XSP16, literal(-9)))
        CFI (cfiCond69) V6 load(1, XDATA, add(CFA_XSP16, literal(-8)))
        CFI (cfiCond69) V7 load(1, XDATA, add(CFA_XSP16, literal(-7)))
        CFI (cfiCond69) R7 load(1, XDATA, add(CFA_XSP16, literal(-6)))
        CFI (cfiCond69) ?RET_LOW load(1, XDATA, add(CFA_XSP16, literal(-5)))
        CFI (cfiCond69) ?RET_HIGH load(1, XDATA, add(CFA_XSP16, literal(-4)))
        CFI (cfiCond69) ?BRET_EXT load(1, XDATA, add(CFA_XSP16, literal(-3)))
        CFI (cfiCond69) DPL0 load(1, XDATA, add(CFA_XSP16, literal(-2)))
        CFI (cfiCond69) DPH0 load(1, XDATA, add(CFA_XSP16, literal(-1)))
        CFI (cfiCond69) CFA_SP SP+0
        CFI (cfiCond69) CFA_XSP16 add(XSP16, 16)
        CFI Block cfiCond70 Using cfiCommon0
        CFI (cfiCond70) NoFunction
        CFI (cfiCond70) Conditional ??CrossCallReturnLabel_7
        CFI (cfiCond70) R6 load(1, XDATA, add(CFA_XSP16, literal(-24)))
        CFI (cfiCond70) VB load(1, XDATA, add(CFA_XSP16, literal(-23)))
        CFI (cfiCond70) V0 load(1, XDATA, add(CFA_XSP16, literal(-22)))
        CFI (cfiCond70) V1 load(1, XDATA, add(CFA_XSP16, literal(-21)))
        CFI (cfiCond70) V2 load(1, XDATA, add(CFA_XSP16, literal(-20)))
        CFI (cfiCond70) V3 load(1, XDATA, add(CFA_XSP16, literal(-19)))
        CFI (cfiCond70) V4 load(1, XDATA, add(CFA_XSP16, literal(-18)))
        CFI (cfiCond70) V5 load(1, XDATA, add(CFA_XSP16, literal(-17)))
        CFI (cfiCond70) V6 load(1, XDATA, add(CFA_XSP16, literal(-16)))
        CFI (cfiCond70) V7 load(1, XDATA, add(CFA_XSP16, literal(-15)))
        CFI (cfiCond70) V8 load(1, XDATA, add(CFA_XSP16, literal(-14)))
        CFI (cfiCond70) V9 load(1, XDATA, add(CFA_XSP16, literal(-13)))
        CFI (cfiCond70) V10 load(1, XDATA, add(CFA_XSP16, literal(-12)))
        CFI (cfiCond70) V11 load(1, XDATA, add(CFA_XSP16, literal(-11)))
        CFI (cfiCond70) V12 load(1, XDATA, add(CFA_XSP16, literal(-10)))
        CFI (cfiCond70) V13 load(1, XDATA, add(CFA_XSP16, literal(-9)))
        CFI (cfiCond70) V14 load(1, XDATA, add(CFA_XSP16, literal(-8)))
        CFI (cfiCond70) V15 load(1, XDATA, add(CFA_XSP16, literal(-7)))
        CFI (cfiCond70) R7 load(1, XDATA, add(CFA_XSP16, literal(-6)))
        CFI (cfiCond70) ?RET_LOW load(1, XDATA, add(CFA_XSP16, literal(-5)))
        CFI (cfiCond70) ?RET_HIGH load(1, XDATA, add(CFA_XSP16, literal(-4)))
        CFI (cfiCond70) ?BRET_EXT load(1, XDATA, add(CFA_XSP16, literal(-3)))
        CFI (cfiCond70) DPL0 load(1, XDATA, add(CFA_XSP16, literal(-2)))
        CFI (cfiCond70) DPH0 load(1, XDATA, add(CFA_XSP16, literal(-1)))
        CFI (cfiCond70) CFA_SP SP+0
        CFI (cfiCond70) CFA_XSP16 add(XSP16, 26)
        CFI Block cfiCond71 Using cfiCommon0
        CFI (cfiCond71) NoFunction
        CFI (cfiCond71) Conditional ??CrossCallReturnLabel_8
        CFI (cfiCond71) R6 load(1, XDATA, add(CFA_XSP16, literal(-24)))
        CFI (cfiCond71) VB load(1, XDATA, add(CFA_XSP16, literal(-23)))
        CFI (cfiCond71) V0 load(1, XDATA, add(CFA_XSP16, literal(-22)))
        CFI (cfiCond71) V1 load(1, XDATA, add(CFA_XSP16, literal(-21)))
        CFI (cfiCond71) V2 load(1, XDATA, add(CFA_XSP16, literal(-20)))
        CFI (cfiCond71) V3 load(1, XDATA, add(CFA_XSP16, literal(-19)))
        CFI (cfiCond71) V4 load(1, XDATA, add(CFA_XSP16, literal(-18)))
        CFI (cfiCond71) V5 load(1, XDATA, add(CFA_XSP16, literal(-17)))
        CFI (cfiCond71) V6 load(1, XDATA, add(CFA_XSP16, literal(-16)))
        CFI (cfiCond71) V7 load(1, XDATA, add(CFA_XSP16, literal(-15)))
        CFI (cfiCond71) V8 load(1, XDATA, add(CFA_XSP16, literal(-14)))
        CFI (cfiCond71) V9 load(1, XDATA, add(CFA_XSP16, literal(-13)))
        CFI (cfiCond71) V10 load(1, XDATA, add(CFA_XSP16, literal(-12)))
        CFI (cfiCond71) V11 load(1, XDATA, add(CFA_XSP16, literal(-11)))
        CFI (cfiCond71) V12 load(1, XDATA, add(CFA_XSP16, literal(-10)))
        CFI (cfiCond71) V13 load(1, XDATA, add(CFA_XSP16, literal(-9)))
        CFI (cfiCond71) V14 load(1, XDATA, add(CFA_XSP16, literal(-8)))
        CFI (cfiCond71) V15 load(1, XDATA, add(CFA_XSP16, literal(-7)))
        CFI (cfiCond71) R7 load(1, XDATA, add(CFA_XSP16, literal(-6)))
        CFI (cfiCond71) ?RET_LOW load(1, XDATA, add(CFA_XSP16, literal(-5)))
        CFI (cfiCond71) ?RET_HIGH load(1, XDATA, add(CFA_XSP16, literal(-4)))
        CFI (cfiCond71) ?BRET_EXT load(1, XDATA, add(CFA_XSP16, literal(-3)))
        CFI (cfiCond71) DPL0 load(1, XDATA, add(CFA_XSP16, literal(-2)))
        CFI (cfiCond71) DPH0 load(1, XDATA, add(CFA_XSP16, literal(-1)))
        CFI (cfiCond71) CFA_SP SP+0
        CFI (cfiCond71) CFA_XSP16 add(XSP16, 26)
        CFI Block cfiCond72 Using cfiCommon0
        CFI (cfiCond72) NoFunction
        CFI (cfiCond72) Conditional ??CrossCallReturnLabel_9
        CFI (cfiCond72) R6 load(1, XDATA, add(CFA_XSP16, literal(-24)))
        CFI (cfiCond72) VB load(1, XDATA, add(CFA_XSP16, literal(-23)))
        CFI (cfiCond72) V0 load(1, XDATA, add(CFA_XSP16, literal(-22)))
        CFI (cfiCond72) V1 load(1, XDATA, add(CFA_XSP16, literal(-21)))
        CFI (cfiCond72) V2 load(1, XDATA, add(CFA_XSP16, literal(-20)))
        CFI (cfiCond72) V3 load(1, XDATA, add(CFA_XSP16, literal(-19)))
        CFI (cfiCond72) V4 load(1, XDATA, add(CFA_XSP16, literal(-18)))
        CFI (cfiCond72) V5 load(1, XDATA, add(CFA_XSP16, literal(-17)))
        CFI (cfiCond72) V6 load(1, XDATA, add(CFA_XSP16, literal(-16)))
        CFI (cfiCond72) V7 load(1, XDATA, add(CFA_XSP16, literal(-15)))
        CFI (cfiCond72) V8 load(1, XDATA, add(CFA_XSP16, literal(-14)))
        CFI (cfiCond72) V9 load(1, XDATA, add(CFA_XSP16, literal(-13)))
        CFI (cfiCond72) V10 load(1, XDATA, add(CFA_XSP16, literal(-12)))
        CFI (cfiCond72) V11 load(1, XDATA, add(CFA_XSP16, literal(-11)))
        CFI (cfiCond72) V12 load(1, XDATA, add(CFA_XSP16, literal(-10)))
        CFI (cfiCond72) V13 load(1, XDATA, add(CFA_XSP16, literal(-9)))
        CFI (cfiCond72) V14 load(1, XDATA, add(CFA_XSP16, literal(-8)))
        CFI (cfiCond72) V15 load(1, XDATA, add(CFA_XSP16, literal(-7)))
        CFI (cfiCond72) R7 load(1, XDATA, add(CFA_XSP16, literal(-6)))
        CFI (cfiCond72) ?RET_LOW load(1, XDATA, add(CFA_XSP16, literal(-5)))
        CFI (cfiCond72) ?RET_HIGH load(1, XDATA, add(CFA_XSP16, literal(-4)))
        CFI (cfiCond72) ?BRET_EXT load(1, XDATA, add(CFA_XSP16, literal(-3)))
        CFI (cfiCond72) DPL0 load(1, XDATA, add(CFA_XSP16, literal(-2)))
        CFI (cfiCond72) DPH0 load(1, XDATA, add(CFA_XSP16, literal(-1)))
        CFI (cfiCond72) CFA_SP SP+0
        CFI (cfiCond72) CFA_XSP16 add(XSP16, 26)
        CFI Block cfiPicker73 Using cfiCommon1
        CFI (cfiPicker73) NoFunction
        CFI (cfiPicker73) Picker
        LCALL   ?Subroutine23 & 0xFFFF
??CrossCallReturnLabel_52:
        RET
        CFI EndBlock cfiCond67
        CFI EndBlock cfiCond68
        CFI EndBlock cfiCond69
        CFI EndBlock cfiCond70
        CFI EndBlock cfiCond71
        CFI EndBlock cfiCond72
        CFI EndBlock cfiPicker73

        RSEG BANKED_CODE:CODE:NOROOT(0)
?Subroutine23:
        CFI Block cfiCond74 Using cfiCommon0
        CFI NoFunction
        CFI Conditional ??CrossCallReturnLabel_50, ??CrossCallReturnLabel_2
        CFI R6 load(1, XDATA, add(CFA_XSP16, literal(-16)))
        CFI VB load(1, XDATA, add(CFA_XSP16, literal(-15)))
        CFI V0 load(1, XDATA, add(CFA_XSP16, literal(-14)))
        CFI V1 load(1, XDATA, add(CFA_XSP16, literal(-13)))
        CFI V2 load(1, XDATA, add(CFA_XSP16, literal(-12)))
        CFI V3 load(1, XDATA, add(CFA_XSP16, literal(-11)))
        CFI V4 load(1, XDATA, add(CFA_XSP16, literal(-10)))
        CFI V5 load(1, XDATA, add(CFA_XSP16, literal(-9)))
        CFI V6 load(1, XDATA, add(CFA_XSP16, literal(-8)))
        CFI V7 load(1, XDATA, add(CFA_XSP16, literal(-7)))
        CFI R7 load(1, XDATA, add(CFA_XSP16, literal(-6)))
        CFI ?RET_LOW load(1, XDATA, add(CFA_XSP16, literal(-5)))
        CFI ?RET_HIGH load(1, XDATA, add(CFA_XSP16, literal(-4)))
        CFI ?BRET_EXT load(1, XDATA, add(CFA_XSP16, literal(-3)))
        CFI DPL0 load(1, XDATA, add(CFA_XSP16, literal(-2)))
        CFI DPH0 load(1, XDATA, add(CFA_XSP16, literal(-1)))
        CFI CFA_SP SP+0
        CFI CFA_XSP16 add(XSP16, 16)
        CFI Block cfiCond75 Using cfiCommon0
        CFI (cfiCond75) NoFunction
        CFI (cfiCond75) Conditional ??CrossCallReturnLabel_50, ??CrossCallReturnLabel_3
        CFI (cfiCond75) R6 load(1, XDATA, add(CFA_XSP16, literal(-16)))
        CFI (cfiCond75) VB load(1, XDATA, add(CFA_XSP16, literal(-15)))
        CFI (cfiCond75) V0 load(1, XDATA, add(CFA_XSP16, literal(-14)))
        CFI (cfiCond75) V1 load(1, XDATA, add(CFA_XSP16, literal(-13)))
        CFI (cfiCond75) V2 load(1, XDATA, add(CFA_XSP16, literal(-12)))
        CFI (cfiCond75) V3 load(1, XDATA, add(CFA_XSP16, literal(-11)))
        CFI (cfiCond75) V4 load(1, XDATA, add(CFA_XSP16, literal(-10)))
        CFI (cfiCond75) V5 load(1, XDATA, add(CFA_XSP16, literal(-9)))
        CFI (cfiCond75) V6 load(1, XDATA, add(CFA_XSP16, literal(-8)))
        CFI (cfiCond75) V7 load(1, XDATA, add(CFA_XSP16, literal(-7)))
        CFI (cfiCond75) R7 load(1, XDATA, add(CFA_XSP16, literal(-6)))
        CFI (cfiCond75) ?RET_LOW load(1, XDATA, add(CFA_XSP16, literal(-5)))
        CFI (cfiCond75) ?RET_HIGH load(1, XDATA, add(CFA_XSP16, literal(-4)))
        CFI (cfiCond75) ?BRET_EXT load(1, XDATA, add(CFA_XSP16, literal(-3)))
        CFI (cfiCond75) DPL0 load(1, XDATA, add(CFA_XSP16, literal(-2)))
        CFI (cfiCond75) DPH0 load(1, XDATA, add(CFA_XSP16, literal(-1)))
        CFI (cfiCond75) CFA_SP SP+0
        CFI (cfiCond75) CFA_XSP16 add(XSP16, 16)
        CFI Block cfiCond76 Using cfiCommon0
        CFI (cfiCond76) NoFunction
        CFI (cfiCond76) Conditional ??CrossCallReturnLabel_51, ??CrossCallReturnLabel_2
        CFI (cfiCond76) R6 load(1, XDATA, add(CFA_XSP16, literal(-16)))
        CFI (cfiCond76) VB load(1, XDATA, add(CFA_XSP16, literal(-15)))
        CFI (cfiCond76) V0 load(1, XDATA, add(CFA_XSP16, literal(-14)))
        CFI (cfiCond76) V1 load(1, XDATA, add(CFA_XSP16, literal(-13)))
        CFI (cfiCond76) V2 load(1, XDATA, add(CFA_XSP16, literal(-12)))
        CFI (cfiCond76) V3 load(1, XDATA, add(CFA_XSP16, literal(-11)))
        CFI (cfiCond76) V4 load(1, XDATA, add(CFA_XSP16, literal(-10)))
        CFI (cfiCond76) V5 load(1, XDATA, add(CFA_XSP16, literal(-9)))
        CFI (cfiCond76) V6 load(1, XDATA, add(CFA_XSP16, literal(-8)))
        CFI (cfiCond76) V7 load(1, XDATA, add(CFA_XSP16, literal(-7)))
        CFI (cfiCond76) R7 load(1, XDATA, add(CFA_XSP16, literal(-6)))
        CFI (cfiCond76) ?RET_LOW load(1, XDATA, add(CFA_XSP16, literal(-5)))
        CFI (cfiCond76) ?RET_HIGH load(1, XDATA, add(CFA_XSP16, literal(-4)))
        CFI (cfiCond76) ?BRET_EXT load(1, XDATA, add(CFA_XSP16, literal(-3)))
        CFI (cfiCond76) DPL0 load(1, XDATA, add(CFA_XSP16, literal(-2)))
        CFI (cfiCond76) DPH0 load(1, XDATA, add(CFA_XSP16, literal(-1)))
        CFI (cfiCond76) CFA_SP SP+0
        CFI (cfiCond76) CFA_XSP16 add(XSP16, 16)
        CFI Block cfiCond77 Using cfiCommon0
        CFI (cfiCond77) NoFunction
        CFI (cfiCond77) Conditional ??CrossCallReturnLabel_51, ??CrossCallReturnLabel_3
        CFI (cfiCond77) R6 load(1, XDATA, add(CFA_XSP16, literal(-16)))
        CFI (cfiCond77) VB load(1, XDATA, add(CFA_XSP16, literal(-15)))
        CFI (cfiCond77) V0 load(1, XDATA, add(CFA_XSP16, literal(-14)))
        CFI (cfiCond77) V1 load(1, XDATA, add(CFA_XSP16, literal(-13)))
        CFI (cfiCond77) V2 load(1, XDATA, add(CFA_XSP16, literal(-12)))
        CFI (cfiCond77) V3 load(1, XDATA, add(CFA_XSP16, literal(-11)))
        CFI (cfiCond77) V4 load(1, XDATA, add(CFA_XSP16, literal(-10)))
        CFI (cfiCond77) V5 load(1, XDATA, add(CFA_XSP16, literal(-9)))
        CFI (cfiCond77) V6 load(1, XDATA, add(CFA_XSP16, literal(-8)))
        CFI (cfiCond77) V7 load(1, XDATA, add(CFA_XSP16, literal(-7)))
        CFI (cfiCond77) R7 load(1, XDATA, add(CFA_XSP16, literal(-6)))
        CFI (cfiCond77) ?RET_LOW load(1, XDATA, add(CFA_XSP16, literal(-5)))
        CFI (cfiCond77) ?RET_HIGH load(1, XDATA, add(CFA_XSP16, literal(-4)))
        CFI (cfiCond77) ?BRET_EXT load(1, XDATA, add(CFA_XSP16, literal(-3)))
        CFI (cfiCond77) DPL0 load(1, XDATA, add(CFA_XSP16, literal(-2)))
        CFI (cfiCond77) DPH0 load(1, XDATA, add(CFA_XSP16, literal(-1)))
        CFI (cfiCond77) CFA_SP SP+0
        CFI (cfiCond77) CFA_XSP16 add(XSP16, 16)
        CFI Block cfiCond78 Using cfiCommon0
        CFI (cfiCond78) NoFunction
        CFI (cfiCond78) Conditional ??CrossCallReturnLabel_52, ??CrossCallReturnLabel_4
        CFI (cfiCond78) R6 load(1, XDATA, add(CFA_XSP16, literal(-16)))
        CFI (cfiCond78) VB load(1, XDATA, add(CFA_XSP16, literal(-15)))
        CFI (cfiCond78) V0 load(1, XDATA, add(CFA_XSP16, literal(-14)))
        CFI (cfiCond78) V1 load(1, XDATA, add(CFA_XSP16, literal(-13)))
        CFI (cfiCond78) V2 load(1, XDATA, add(CFA_XSP16, literal(-12)))
        CFI (cfiCond78) V3 load(1, XDATA, add(CFA_XSP16, literal(-11)))
        CFI (cfiCond78) V4 load(1, XDATA, add(CFA_XSP16, literal(-10)))
        CFI (cfiCond78) V5 load(1, XDATA, add(CFA_XSP16, literal(-9)))
        CFI (cfiCond78) V6 load(1, XDATA, add(CFA_XSP16, literal(-8)))
        CFI (cfiCond78) V7 load(1, XDATA, add(CFA_XSP16, literal(-7)))
        CFI (cfiCond78) R7 load(1, XDATA, add(CFA_XSP16, literal(-6)))
        CFI (cfiCond78) ?RET_LOW load(1, XDATA, add(CFA_XSP16, literal(-5)))
        CFI (cfiCond78) ?RET_HIGH load(1, XDATA, add(CFA_XSP16, literal(-4)))
        CFI (cfiCond78) ?BRET_EXT load(1, XDATA, add(CFA_XSP16, literal(-3)))
        CFI (cfiCond78) DPL0 load(1, XDATA, add(CFA_XSP16, literal(-2)))
        CFI (cfiCond78) DPH0 load(1, XDATA, add(CFA_XSP16, literal(-1)))
        CFI (cfiCond78) CFA_SP SP+0
        CFI (cfiCond78) CFA_XSP16 add(XSP16, 16)
        CFI Block cfiCond79 Using cfiCommon0
        CFI (cfiCond79) NoFunction
        CFI (cfiCond79) Conditional ??CrossCallReturnLabel_52, ??CrossCallReturnLabel_5
        CFI (cfiCond79) R6 load(1, XDATA, add(CFA_XSP16, literal(-16)))
        CFI (cfiCond79) VB load(1, XDATA, add(CFA_XSP16, literal(-15)))
        CFI (cfiCond79) V0 load(1, XDATA, add(CFA_XSP16, literal(-14)))
        CFI (cfiCond79) V1 load(1, XDATA, add(CFA_XSP16, literal(-13)))
        CFI (cfiCond79) V2 load(1, XDATA, add(CFA_XSP16, literal(-12)))
        CFI (cfiCond79) V3 load(1, XDATA, add(CFA_XSP16, literal(-11)))
        CFI (cfiCond79) V4 load(1, XDATA, add(CFA_XSP16, literal(-10)))
        CFI (cfiCond79) V5 load(1, XDATA, add(CFA_XSP16, literal(-9)))
        CFI (cfiCond79) V6 load(1, XDATA, add(CFA_XSP16, literal(-8)))
        CFI (cfiCond79) V7 load(1, XDATA, add(CFA_XSP16, literal(-7)))
        CFI (cfiCond79) R7 load(1, XDATA, add(CFA_XSP16, literal(-6)))
        CFI (cfiCond79) ?RET_LOW load(1, XDATA, add(CFA_XSP16, literal(-5)))
        CFI (cfiCond79) ?RET_HIGH load(1, XDATA, add(CFA_XSP16, literal(-4)))
        CFI (cfiCond79) ?BRET_EXT load(1, XDATA, add(CFA_XSP16, literal(-3)))
        CFI (cfiCond79) DPL0 load(1, XDATA, add(CFA_XSP16, literal(-2)))
        CFI (cfiCond79) DPH0 load(1, XDATA, add(CFA_XSP16, literal(-1)))
        CFI (cfiCond79) CFA_SP SP+0
        CFI (cfiCond79) CFA_XSP16 add(XSP16, 16)
        CFI Block cfiCond80 Using cfiCommon0
        CFI (cfiCond80) NoFunction
        CFI (cfiCond80) Conditional ??CrossCallReturnLabel_52, ??CrossCallReturnLabel_6
        CFI (cfiCond80) R6 load(1, XDATA, add(CFA_XSP16, literal(-16)))
        CFI (cfiCond80) VB load(1, XDATA, add(CFA_XSP16, literal(-15)))
        CFI (cfiCond80) V0 load(1, XDATA, add(CFA_XSP16, literal(-14)))
        CFI (cfiCond80) V1 load(1, XDATA, add(CFA_XSP16, literal(-13)))
        CFI (cfiCond80) V2 load(1, XDATA, add(CFA_XSP16, literal(-12)))
        CFI (cfiCond80) V3 load(1, XDATA, add(CFA_XSP16, literal(-11)))
        CFI (cfiCond80) V4 load(1, XDATA, add(CFA_XSP16, literal(-10)))
        CFI (cfiCond80) V5 load(1, XDATA, add(CFA_XSP16, literal(-9)))
        CFI (cfiCond80) V6 load(1, XDATA, add(CFA_XSP16, literal(-8)))
        CFI (cfiCond80) V7 load(1, XDATA, add(CFA_XSP16, literal(-7)))
        CFI (cfiCond80) R7 load(1, XDATA, add(CFA_XSP16, literal(-6)))
        CFI (cfiCond80) ?RET_LOW load(1, XDATA, add(CFA_XSP16, literal(-5)))
        CFI (cfiCond80) ?RET_HIGH load(1, XDATA, add(CFA_XSP16, literal(-4)))
        CFI (cfiCond80) ?BRET_EXT load(1, XDATA, add(CFA_XSP16, literal(-3)))
        CFI (cfiCond80) DPL0 load(1, XDATA, add(CFA_XSP16, literal(-2)))
        CFI (cfiCond80) DPH0 load(1, XDATA, add(CFA_XSP16, literal(-1)))
        CFI (cfiCond80) CFA_SP SP+0
        CFI (cfiCond80) CFA_XSP16 add(XSP16, 16)
        CFI Block cfiCond81 Using cfiCommon0
        CFI (cfiCond81) NoFunction
        CFI (cfiCond81) Conditional ??CrossCallReturnLabel_52, ??CrossCallReturnLabel_7
        CFI (cfiCond81) R6 load(1, XDATA, add(CFA_XSP16, literal(-24)))
        CFI (cfiCond81) VB load(1, XDATA, add(CFA_XSP16, literal(-23)))
        CFI (cfiCond81) V0 load(1, XDATA, add(CFA_XSP16, literal(-22)))
        CFI (cfiCond81) V1 load(1, XDATA, add(CFA_XSP16, literal(-21)))
        CFI (cfiCond81) V2 load(1, XDATA, add(CFA_XSP16, literal(-20)))
        CFI (cfiCond81) V3 load(1, XDATA, add(CFA_XSP16, literal(-19)))
        CFI (cfiCond81) V4 load(1, XDATA, add(CFA_XSP16, literal(-18)))
        CFI (cfiCond81) V5 load(1, XDATA, add(CFA_XSP16, literal(-17)))
        CFI (cfiCond81) V6 load(1, XDATA, add(CFA_XSP16, literal(-16)))
        CFI (cfiCond81) V7 load(1, XDATA, add(CFA_XSP16, literal(-15)))
        CFI (cfiCond81) V8 load(1, XDATA, add(CFA_XSP16, literal(-14)))
        CFI (cfiCond81) V9 load(1, XDATA, add(CFA_XSP16, literal(-13)))
        CFI (cfiCond81) V10 load(1, XDATA, add(CFA_XSP16, literal(-12)))
        CFI (cfiCond81) V11 load(1, XDATA, add(CFA_XSP16, literal(-11)))
        CFI (cfiCond81) V12 load(1, XDATA, add(CFA_XSP16, literal(-10)))
        CFI (cfiCond81) V13 load(1, XDATA, add(CFA_XSP16, literal(-9)))
        CFI (cfiCond81) V14 load(1, XDATA, add(CFA_XSP16, literal(-8)))
        CFI (cfiCond81) V15 load(1, XDATA, add(CFA_XSP16, literal(-7)))
        CFI (cfiCond81) R7 load(1, XDATA, add(CFA_XSP16, literal(-6)))
        CFI (cfiCond81) ?RET_LOW load(1, XDATA, add(CFA_XSP16, literal(-5)))
        CFI (cfiCond81) ?RET_HIGH load(1, XDATA, add(CFA_XSP16, literal(-4)))
        CFI (cfiCond81) ?BRET_EXT load(1, XDATA, add(CFA_XSP16, literal(-3)))
        CFI (cfiCond81) DPL0 load(1, XDATA, add(CFA_XSP16, literal(-2)))
        CFI (cfiCond81) DPH0 load(1, XDATA, add(CFA_XSP16, literal(-1)))
        CFI (cfiCond81) CFA_SP SP+0
        CFI (cfiCond81) CFA_XSP16 add(XSP16, 26)
        CFI Block cfiCond82 Using cfiCommon0
        CFI (cfiCond82) NoFunction
        CFI (cfiCond82) Conditional ??CrossCallReturnLabel_52, ??CrossCallReturnLabel_8
        CFI (cfiCond82) R6 load(1, XDATA, add(CFA_XSP16, literal(-24)))
        CFI (cfiCond82) VB load(1, XDATA, add(CFA_XSP16, literal(-23)))
        CFI (cfiCond82) V0 load(1, XDATA, add(CFA_XSP16, literal(-22)))
        CFI (cfiCond82) V1 load(1, XDATA, add(CFA_XSP16, literal(-21)))
        CFI (cfiCond82) V2 load(1, XDATA, add(CFA_XSP16, literal(-20)))
        CFI (cfiCond82) V3 load(1, XDATA, add(CFA_XSP16, literal(-19)))
        CFI (cfiCond82) V4 load(1, XDATA, add(CFA_XSP16, literal(-18)))
        CFI (cfiCond82) V5 load(1, XDATA, add(CFA_XSP16, literal(-17)))
        CFI (cfiCond82) V6 load(1, XDATA, add(CFA_XSP16, literal(-16)))
        CFI (cfiCond82) V7 load(1, XDATA, add(CFA_XSP16, literal(-15)))
        CFI (cfiCond82) V8 load(1, XDATA, add(CFA_XSP16, literal(-14)))
        CFI (cfiCond82) V9 load(1, XDATA, add(CFA_XSP16, literal(-13)))
        CFI (cfiCond82) V10 load(1, XDATA, add(CFA_XSP16, literal(-12)))
        CFI (cfiCond82) V11 load(1, XDATA, add(CFA_XSP16, literal(-11)))
        CFI (cfiCond82) V12 load(1, XDATA, add(CFA_XSP16, literal(-10)))
        CFI (cfiCond82) V13 load(1, XDATA, add(CFA_XSP16, literal(-9)))
        CFI (cfiCond82) V14 load(1, XDATA, add(CFA_XSP16, literal(-8)))
        CFI (cfiCond82) V15 load(1, XDATA, add(CFA_XSP16, literal(-7)))
        CFI (cfiCond82) R7 load(1, XDATA, add(CFA_XSP16, literal(-6)))
        CFI (cfiCond82) ?RET_LOW load(1, XDATA, add(CFA_XSP16, literal(-5)))
        CFI (cfiCond82) ?RET_HIGH load(1, XDATA, add(CFA_XSP16, literal(-4)))
        CFI (cfiCond82) ?BRET_EXT load(1, XDATA, add(CFA_XSP16, literal(-3)))
        CFI (cfiCond82) DPL0 load(1, XDATA, add(CFA_XSP16, literal(-2)))
        CFI (cfiCond82) DPH0 load(1, XDATA, add(CFA_XSP16, literal(-1)))
        CFI (cfiCond82) CFA_SP SP+0
        CFI (cfiCond82) CFA_XSP16 add(XSP16, 26)
        CFI Block cfiCond83 Using cfiCommon0
        CFI (cfiCond83) NoFunction
        CFI (cfiCond83) Conditional ??CrossCallReturnLabel_52, ??CrossCallReturnLabel_9
        CFI (cfiCond83) R6 load(1, XDATA, add(CFA_XSP16, literal(-24)))
        CFI (cfiCond83) VB load(1, XDATA, add(CFA_XSP16, literal(-23)))
        CFI (cfiCond83) V0 load(1, XDATA, add(CFA_XSP16, literal(-22)))
        CFI (cfiCond83) V1 load(1, XDATA, add(CFA_XSP16, literal(-21)))
        CFI (cfiCond83) V2 load(1, XDATA, add(CFA_XSP16, literal(-20)))
        CFI (cfiCond83) V3 load(1, XDATA, add(CFA_XSP16, literal(-19)))
        CFI (cfiCond83) V4 load(1, XDATA, add(CFA_XSP16, literal(-18)))
        CFI (cfiCond83) V5 load(1, XDATA, add(CFA_XSP16, literal(-17)))
        CFI (cfiCond83) V6 load(1, XDATA, add(CFA_XSP16, literal(-16)))
        CFI (cfiCond83) V7 load(1, XDATA, add(CFA_XSP16, literal(-15)))
        CFI (cfiCond83) V8 load(1, XDATA, add(CFA_XSP16, literal(-14)))
        CFI (cfiCond83) V9 load(1, XDATA, add(CFA_XSP16, literal(-13)))
        CFI (cfiCond83) V10 load(1, XDATA, add(CFA_XSP16, literal(-12)))
        CFI (cfiCond83) V11 load(1, XDATA, add(CFA_XSP16, literal(-11)))
        CFI (cfiCond83) V12 load(1, XDATA, add(CFA_XSP16, literal(-10)))
        CFI (cfiCond83) V13 load(1, XDATA, add(CFA_XSP16, literal(-9)))
        CFI (cfiCond83) V14 load(1, XDATA, add(CFA_XSP16, literal(-8)))
        CFI (cfiCond83) V15 load(1, XDATA, add(CFA_XSP16, literal(-7)))
        CFI (cfiCond83) R7 load(1, XDATA, add(CFA_XSP16, literal(-6)))
        CFI (cfiCond83) ?RET_LOW load(1, XDATA, add(CFA_XSP16, literal(-5)))
        CFI (cfiCond83) ?RET_HIGH load(1, XDATA, add(CFA_XSP16, literal(-4)))
        CFI (cfiCond83) ?BRET_EXT load(1, XDATA, add(CFA_XSP16, literal(-3)))
        CFI (cfiCond83) DPL0 load(1, XDATA, add(CFA_XSP16, literal(-2)))
        CFI (cfiCond83) DPH0 load(1, XDATA, add(CFA_XSP16, literal(-1)))
        CFI (cfiCond83) CFA_SP SP+0
        CFI (cfiCond83) CFA_XSP16 add(XSP16, 26)
        CFI Block cfiPicker84 Using cfiCommon1
        CFI (cfiPicker84) NoFunction
        CFI (cfiPicker84) Picker
        MOVX    @DPTR,A
        MOV     A,R6
        ADD     A,#0x1
        INC     R6
        MOV     A,R7
        ADDC    A,#0x0
        MOV     R7,A
        RET
        CFI EndBlock cfiCond74
        CFI EndBlock cfiCond75
        CFI EndBlock cfiCond76
        CFI EndBlock cfiCond77
        CFI EndBlock cfiCond78
        CFI EndBlock cfiCond79
        CFI EndBlock cfiCond80
        CFI EndBlock cfiCond81
        CFI EndBlock cfiCond82
        CFI EndBlock cfiCond83
        CFI EndBlock cfiPicker84

        RSEG BANKED_CODE:CODE:NOROOT(0)
//  309 char ChDebugUnsigned(const char *format,unsigned int decimal)//无符号十进制
ChDebugUnsigned:
        CFI Block cfiBlock85 Using cfiCommon0
        CFI Function ChDebugUnsigned
        CODE
//  310 {
        FUNCALL ChDebugUnsigned, strlen
        LOCFRAME ISTACK, 0, STACK
        LOCFRAME PSTACK, 0, STACK
        LOCFRAME XSTACK, 26, STACK
        LOCFRAME IOVERLAY, 0, STATIC
        LOCFRAME DOVERLAY, 0, STATIC
        ARGFRAME ISTACK, 0, STACK
        ARGFRAME PSTACK, 0, STACK
        ARGFRAME XSTACK, 26, STACK
        ARGFRAME IOVERLAY, 0, STATIC
        ARGFRAME DOVERLAY, 0, STATIC
        FUNCALL ChDebugUnsigned, UartSend
        LOCFRAME ISTACK, 0, STACK
        LOCFRAME PSTACK, 0, STACK
        LOCFRAME XSTACK, 26, STACK
        LOCFRAME IOVERLAY, 0, STATIC
        LOCFRAME DOVERLAY, 0, STATIC
        ARGFRAME ISTACK, 0, STACK
        ARGFRAME PSTACK, 0, STACK
        ARGFRAME XSTACK, 26, STACK
        ARGFRAME IOVERLAY, 0, STATIC
        ARGFRAME DOVERLAY, 0, STATIC
        MOV     A,#-0x18
        LCALL   ?BANKED_ENTER_XDATA
        CFI DPH0 load(1, XDATA, add(CFA_XSP16, literal(-1)))
        CFI DPL0 load(1, XDATA, add(CFA_XSP16, literal(-2)))
        CFI ?BRET_EXT load(1, XDATA, add(CFA_XSP16, literal(-3)))
        CFI ?RET_HIGH load(1, XDATA, add(CFA_XSP16, literal(-4)))
        CFI ?RET_LOW load(1, XDATA, add(CFA_XSP16, literal(-5)))
        CFI R7 load(1, XDATA, add(CFA_XSP16, literal(-6)))
        CFI V15 load(1, XDATA, add(CFA_XSP16, literal(-7)))
        CFI V14 load(1, XDATA, add(CFA_XSP16, literal(-8)))
        CFI V13 load(1, XDATA, add(CFA_XSP16, literal(-9)))
        CFI V12 load(1, XDATA, add(CFA_XSP16, literal(-10)))
        CFI V11 load(1, XDATA, add(CFA_XSP16, literal(-11)))
        CFI V10 load(1, XDATA, add(CFA_XSP16, literal(-12)))
        CFI V9 load(1, XDATA, add(CFA_XSP16, literal(-13)))
        CFI V8 load(1, XDATA, add(CFA_XSP16, literal(-14)))
        CFI V7 load(1, XDATA, add(CFA_XSP16, literal(-15)))
        CFI V6 load(1, XDATA, add(CFA_XSP16, literal(-16)))
        CFI V5 load(1, XDATA, add(CFA_XSP16, literal(-17)))
        CFI V4 load(1, XDATA, add(CFA_XSP16, literal(-18)))
        CFI V3 load(1, XDATA, add(CFA_XSP16, literal(-19)))
        CFI V2 load(1, XDATA, add(CFA_XSP16, literal(-20)))
        CFI V1 load(1, XDATA, add(CFA_XSP16, literal(-21)))
        CFI V0 load(1, XDATA, add(CFA_XSP16, literal(-22)))
        CFI VB load(1, XDATA, add(CFA_XSP16, literal(-23)))
        CFI R6 load(1, XDATA, add(CFA_XSP16, literal(-24)))
        CFI CFA_SP SP+0
        CFI CFA_XSP16 add(XSP16, 24)
        ; Saved register size: 24
        ; Auto size: 2
        MOV     A,#-0x2
        LCALL   ?ALLOC_XSTACK8
        CFI CFA_XSP16 add(XSP16, 26)
        MOV     ?V0 + 14,R2
        MOV     ?V0 + 15,R3
        MOV     A,R4
        MOV     R6,A
        MOV     A,R5
        MOV     R7,A
//  311 	int i;
//  312 	int indexDest = 0;
        MOV     ?V0 + 12,#0x0
        MOV     ?V0 + 13,#0x0
//  313 	char err=0;
//  314 	int len = strlen(format);
        ; Setup parameters for call to function strlen
        LCALL   ?Subroutine7 & 0xFFFF
//  315 	//strcpy(strTemp_gen,format);
//  316 	for(i=0;i<len;i++)
??CrossCallReturnLabel_16:
        SJMP    ??CrossCallReturnLabel_13
//  317 		if(format[i] == '%')
//  318 		{
//  319 			if(format[i+1] == 'd')// %d
//  320 			{
//  321 				{
//  322 					int l = i;
//  323 					int r;
//  324 					long value = decimal;
//  325 					char c;
//  326 					if(value < 0)
//  327 					{
//  328 						strTemp_gen[indexDest++] = '-';
//  329 						value = -value;
//  330 						l++;
//  331 					}
//  332 					do
//  333 					{
//  334 						c = value%10;
//  335 						strTemp_gen[indexDest++] = c + '0';
//  336 						value /= 10;
//  337 					}while(value != 0);
//  338 					////swap the string
//  339 					r = indexDest-1;
//  340 					while(l < r)
//  341 					{
//  342 						c = strTemp_gen[l];
//  343 						strTemp_gen[l] = strTemp_gen[r];
//  344 						strTemp_gen[r] = c;
//  345 						l++;
//  346 						r--;
//  347 					}
//  348 					
//  349 				}
//  350 				i+=2-1;
//  351 			}
//  352 			else
//  353 				strTemp_gen[indexDest++] = format[i];
??ChDebugUnsigned_0:
        LCALL   ?Subroutine15 & 0xFFFF
??CrossCallReturnLabel_32:
        PUSH    A
        CFI CFA_SP SP+-1
        LCALL   ?Subroutine19 & 0xFFFF
??CrossCallReturnLabel_41:
        POP     A
        CFI CFA_SP SP+0
        LCALL   ?Subroutine11 & 0xFFFF
??CrossCallReturnLabel_23:
        LCALL   ?Subroutine6 & 0xFFFF
??CrossCallReturnLabel_13:
        LCALL   ?Subroutine8 & 0xFFFF
??CrossCallReturnLabel_18:
        JNC     ??ChDebugUnsigned_1
        LCALL   ?Subroutine10 & 0xFFFF
??CrossCallReturnLabel_22:
        JNZ     ??ChDebugUnsigned_0
        INC     DPTR
        MOVX    A,@DPTR
        XRL     A,#0x64
        JNZ     ??ChDebugUnsigned_0
        MOV     A,R2
        MOV     R4,A
        MOV     A,R3
        MOV     R5,A
        MOV     ?V0 + 4,R6
        MOV     ?V0 + 5,R7
        CLR     A
        MOV     ?V0 + 6,A
        MOV     ?V0 + 7,A
??ChDebugUnsigned_2:
        MOV     ?V0 + 0,?V0 + 4
        MOV     ?V0 + 1,?V0 + 5
        MOV     ?V0 + 2,?V0 + 6
        MOV     ?V0 + 3,?V0 + 7
        MOV     DPTR,#__Constant_a
        MOV     R0,#?V0 + 8
        LCALL   ?L_MOV_X
        MOV     R0,#?V0 + 0
        MOV     R1,#?V0 + 8
        LCALL   ?L_DIV_MOD
        MOV     A,?V0 + 8
        ADD     A,#0x30
        PUSH    A
        CFI CFA_SP SP+-1
        LCALL   ?Subroutine19 & 0xFFFF
??CrossCallReturnLabel_42:
        POP     A
        CFI CFA_SP SP+0
        LCALL   ?Subroutine11 & 0xFFFF
??CrossCallReturnLabel_24:
        MOV     DPTR,#__Constant_a
        MOV     R0,#?V0 + 0
        LCALL   ?L_MOV_X
        MOV     R0,#?V0 + 4
        MOV     R1,#?V0 + 0
        LCALL   ?L_DIV_MOD
        MOV     A,?V0 + 4
        ORL     A,?V0 + 5
        ORL     A,?V0 + 6
        ORL     A,?V0 + 7
        JNZ     ??ChDebugUnsigned_2
        MOV     A,?V0 + 12
        ADD     A,#-0x1
        MOV     R0,A
        MOV     A,?V0 + 13
        SJMP    ??CrossCallReturnLabel_1
??ChDebugUnsigned_3:
        LCALL   ?Subroutine3 & 0xFFFF
??CrossCallReturnLabel_1:
        LCALL   ?Subroutine17 & 0xFFFF
??CrossCallReturnLabel_40:
        JC      ??ChDebugUnsigned_3
        LCALL   ?Subroutine6 & 0xFFFF
//  354 			
//  355 
//  356 		}
??CrossCallReturnLabel_14:
        SJMP    ??CrossCallReturnLabel_23
//  357 		else
//  358 			strTemp_gen[indexDest++] = format[i];
//  359 	//strTemp_gen[indexDest++] = 0;
//  360 	UartSend(strTemp_gen,indexDest);
??ChDebugUnsigned_1:
        ; Setup parameters for call to function UartSend
        MOV     R4,?V0 + 12
        MOV     R5,?V0 + 13
        LJMP    ?Subroutine2 & 0xFFFF
        CFI EndBlock cfiBlock85
//  361 	return err;
//  362 }

        RSEG BANKED_CODE:CODE:NOROOT(0)
?Subroutine19:
        CFI Block cfiCond86 Using cfiCommon0
        CFI NoFunction
        CFI Conditional ??CrossCallReturnLabel_41
        CFI R6 load(1, XDATA, add(CFA_XSP16, literal(-24)))
        CFI VB load(1, XDATA, add(CFA_XSP16, literal(-23)))
        CFI V0 load(1, XDATA, add(CFA_XSP16, literal(-22)))
        CFI V1 load(1, XDATA, add(CFA_XSP16, literal(-21)))
        CFI V2 load(1, XDATA, add(CFA_XSP16, literal(-20)))
        CFI V3 load(1, XDATA, add(CFA_XSP16, literal(-19)))
        CFI V4 load(1, XDATA, add(CFA_XSP16, literal(-18)))
        CFI V5 load(1, XDATA, add(CFA_XSP16, literal(-17)))
        CFI V6 load(1, XDATA, add(CFA_XSP16, literal(-16)))
        CFI V7 load(1, XDATA, add(CFA_XSP16, literal(-15)))
        CFI V8 load(1, XDATA, add(CFA_XSP16, literal(-14)))
        CFI V9 load(1, XDATA, add(CFA_XSP16, literal(-13)))
        CFI V10 load(1, XDATA, add(CFA_XSP16, literal(-12)))
        CFI V11 load(1, XDATA, add(CFA_XSP16, literal(-11)))
        CFI V12 load(1, XDATA, add(CFA_XSP16, literal(-10)))
        CFI V13 load(1, XDATA, add(CFA_XSP16, literal(-9)))
        CFI V14 load(1, XDATA, add(CFA_XSP16, literal(-8)))
        CFI V15 load(1, XDATA, add(CFA_XSP16, literal(-7)))
        CFI R7 load(1, XDATA, add(CFA_XSP16, literal(-6)))
        CFI ?RET_LOW load(1, XDATA, add(CFA_XSP16, literal(-5)))
        CFI ?RET_HIGH load(1, XDATA, add(CFA_XSP16, literal(-4)))
        CFI ?BRET_EXT load(1, XDATA, add(CFA_XSP16, literal(-3)))
        CFI DPL0 load(1, XDATA, add(CFA_XSP16, literal(-2)))
        CFI DPH0 load(1, XDATA, add(CFA_XSP16, literal(-1)))
        CFI CFA_SP SP+-1
        CFI CFA_XSP16 add(XSP16, 26)
        CFI Block cfiCond87 Using cfiCommon0
        CFI (cfiCond87) NoFunction
        CFI (cfiCond87) Conditional ??CrossCallReturnLabel_42
        CFI (cfiCond87) R6 load(1, XDATA, add(CFA_XSP16, literal(-24)))
        CFI (cfiCond87) VB load(1, XDATA, add(CFA_XSP16, literal(-23)))
        CFI (cfiCond87) V0 load(1, XDATA, add(CFA_XSP16, literal(-22)))
        CFI (cfiCond87) V1 load(1, XDATA, add(CFA_XSP16, literal(-21)))
        CFI (cfiCond87) V2 load(1, XDATA, add(CFA_XSP16, literal(-20)))
        CFI (cfiCond87) V3 load(1, XDATA, add(CFA_XSP16, literal(-19)))
        CFI (cfiCond87) V4 load(1, XDATA, add(CFA_XSP16, literal(-18)))
        CFI (cfiCond87) V5 load(1, XDATA, add(CFA_XSP16, literal(-17)))
        CFI (cfiCond87) V6 load(1, XDATA, add(CFA_XSP16, literal(-16)))
        CFI (cfiCond87) V7 load(1, XDATA, add(CFA_XSP16, literal(-15)))
        CFI (cfiCond87) V8 load(1, XDATA, add(CFA_XSP16, literal(-14)))
        CFI (cfiCond87) V9 load(1, XDATA, add(CFA_XSP16, literal(-13)))
        CFI (cfiCond87) V10 load(1, XDATA, add(CFA_XSP16, literal(-12)))
        CFI (cfiCond87) V11 load(1, XDATA, add(CFA_XSP16, literal(-11)))
        CFI (cfiCond87) V12 load(1, XDATA, add(CFA_XSP16, literal(-10)))
        CFI (cfiCond87) V13 load(1, XDATA, add(CFA_XSP16, literal(-9)))
        CFI (cfiCond87) V14 load(1, XDATA, add(CFA_XSP16, literal(-8)))
        CFI (cfiCond87) V15 load(1, XDATA, add(CFA_XSP16, literal(-7)))
        CFI (cfiCond87) R7 load(1, XDATA, add(CFA_XSP16, literal(-6)))
        CFI (cfiCond87) ?RET_LOW load(1, XDATA, add(CFA_XSP16, literal(-5)))
        CFI (cfiCond87) ?RET_HIGH load(1, XDATA, add(CFA_XSP16, literal(-4)))
        CFI (cfiCond87) ?BRET_EXT load(1, XDATA, add(CFA_XSP16, literal(-3)))
        CFI (cfiCond87) DPL0 load(1, XDATA, add(CFA_XSP16, literal(-2)))
        CFI (cfiCond87) DPH0 load(1, XDATA, add(CFA_XSP16, literal(-1)))
        CFI (cfiCond87) CFA_SP SP+-1
        CFI (cfiCond87) CFA_XSP16 add(XSP16, 26)
        CFI Block cfiPicker88 Using cfiCommon1
        CFI (cfiPicker88) NoFunction
        CFI (cfiPicker88) Picker
        MOV     A,#strTemp_gen & 0xff
        ADD     A,?V0 + 12
        MOV     DPL,A
        MOV     A,#(strTemp_gen >> 8) & 0xff
        ADDC    A,?V0 + 13
        MOV     DPH,A
        RET
        CFI EndBlock cfiCond86
        CFI EndBlock cfiCond87
        CFI EndBlock cfiPicker88

        RSEG BANKED_CODE:CODE:NOROOT(0)
?Subroutine17:
        CFI Block cfiCond89 Using cfiCommon0
        CFI NoFunction
        CFI Conditional ??CrossCallReturnLabel_39
        CFI R6 load(1, XDATA, add(CFA_XSP16, literal(-24)))
        CFI VB load(1, XDATA, add(CFA_XSP16, literal(-23)))
        CFI V0 load(1, XDATA, add(CFA_XSP16, literal(-22)))
        CFI V1 load(1, XDATA, add(CFA_XSP16, literal(-21)))
        CFI V2 load(1, XDATA, add(CFA_XSP16, literal(-20)))
        CFI V3 load(1, XDATA, add(CFA_XSP16, literal(-19)))
        CFI V4 load(1, XDATA, add(CFA_XSP16, literal(-18)))
        CFI V5 load(1, XDATA, add(CFA_XSP16, literal(-17)))
        CFI V6 load(1, XDATA, add(CFA_XSP16, literal(-16)))
        CFI V7 load(1, XDATA, add(CFA_XSP16, literal(-15)))
        CFI V8 load(1, XDATA, add(CFA_XSP16, literal(-14)))
        CFI V9 load(1, XDATA, add(CFA_XSP16, literal(-13)))
        CFI V10 load(1, XDATA, add(CFA_XSP16, literal(-12)))
        CFI V11 load(1, XDATA, add(CFA_XSP16, literal(-11)))
        CFI V12 load(1, XDATA, add(CFA_XSP16, literal(-10)))
        CFI V13 load(1, XDATA, add(CFA_XSP16, literal(-9)))
        CFI V14 load(1, XDATA, add(CFA_XSP16, literal(-8)))
        CFI V15 load(1, XDATA, add(CFA_XSP16, literal(-7)))
        CFI R7 load(1, XDATA, add(CFA_XSP16, literal(-6)))
        CFI ?RET_LOW load(1, XDATA, add(CFA_XSP16, literal(-5)))
        CFI ?RET_HIGH load(1, XDATA, add(CFA_XSP16, literal(-4)))
        CFI ?BRET_EXT load(1, XDATA, add(CFA_XSP16, literal(-3)))
        CFI DPL0 load(1, XDATA, add(CFA_XSP16, literal(-2)))
        CFI DPH0 load(1, XDATA, add(CFA_XSP16, literal(-1)))
        CFI CFA_SP SP+0
        CFI CFA_XSP16 add(XSP16, 26)
        CFI Block cfiCond90 Using cfiCommon0
        CFI (cfiCond90) NoFunction
        CFI (cfiCond90) Conditional ??CrossCallReturnLabel_40
        CFI (cfiCond90) R6 load(1, XDATA, add(CFA_XSP16, literal(-24)))
        CFI (cfiCond90) VB load(1, XDATA, add(CFA_XSP16, literal(-23)))
        CFI (cfiCond90) V0 load(1, XDATA, add(CFA_XSP16, literal(-22)))
        CFI (cfiCond90) V1 load(1, XDATA, add(CFA_XSP16, literal(-21)))
        CFI (cfiCond90) V2 load(1, XDATA, add(CFA_XSP16, literal(-20)))
        CFI (cfiCond90) V3 load(1, XDATA, add(CFA_XSP16, literal(-19)))
        CFI (cfiCond90) V4 load(1, XDATA, add(CFA_XSP16, literal(-18)))
        CFI (cfiCond90) V5 load(1, XDATA, add(CFA_XSP16, literal(-17)))
        CFI (cfiCond90) V6 load(1, XDATA, add(CFA_XSP16, literal(-16)))
        CFI (cfiCond90) V7 load(1, XDATA, add(CFA_XSP16, literal(-15)))
        CFI (cfiCond90) V8 load(1, XDATA, add(CFA_XSP16, literal(-14)))
        CFI (cfiCond90) V9 load(1, XDATA, add(CFA_XSP16, literal(-13)))
        CFI (cfiCond90) V10 load(1, XDATA, add(CFA_XSP16, literal(-12)))
        CFI (cfiCond90) V11 load(1, XDATA, add(CFA_XSP16, literal(-11)))
        CFI (cfiCond90) V12 load(1, XDATA, add(CFA_XSP16, literal(-10)))
        CFI (cfiCond90) V13 load(1, XDATA, add(CFA_XSP16, literal(-9)))
        CFI (cfiCond90) V14 load(1, XDATA, add(CFA_XSP16, literal(-8)))
        CFI (cfiCond90) V15 load(1, XDATA, add(CFA_XSP16, literal(-7)))
        CFI (cfiCond90) R7 load(1, XDATA, add(CFA_XSP16, literal(-6)))
        CFI (cfiCond90) ?RET_LOW load(1, XDATA, add(CFA_XSP16, literal(-5)))
        CFI (cfiCond90) ?RET_HIGH load(1, XDATA, add(CFA_XSP16, literal(-4)))
        CFI (cfiCond90) ?BRET_EXT load(1, XDATA, add(CFA_XSP16, literal(-3)))
        CFI (cfiCond90) DPL0 load(1, XDATA, add(CFA_XSP16, literal(-2)))
        CFI (cfiCond90) DPH0 load(1, XDATA, add(CFA_XSP16, literal(-1)))
        CFI (cfiCond90) CFA_SP SP+0
        CFI (cfiCond90) CFA_XSP16 add(XSP16, 26)
        CFI Block cfiPicker91 Using cfiCommon1
        CFI (cfiPicker91) NoFunction
        CFI (cfiPicker91) Picker
        ADDC    A,#-0x1
        MOV     R1,A
        CLR     C
        MOV     A,R4
        SUBB    A,R0
        MOV     A,R5
        SUBB    A,R1
        MOV     C,0xD0 /* PSW */.2
        XRL     A,PSW
        RLC     A
        RET
        CFI EndBlock cfiCond89
        CFI EndBlock cfiCond90
        CFI EndBlock cfiPicker91

        RSEG BANKED_CODE:CODE:NOROOT(0)
?Subroutine15:
        CFI Block cfiCond92 Using cfiCommon0
        CFI NoFunction
        CFI Conditional ??CrossCallReturnLabel_31
        CFI R6 load(1, XDATA, add(CFA_XSP16, literal(-24)))
        CFI VB load(1, XDATA, add(CFA_XSP16, literal(-23)))
        CFI V0 load(1, XDATA, add(CFA_XSP16, literal(-22)))
        CFI V1 load(1, XDATA, add(CFA_XSP16, literal(-21)))
        CFI V2 load(1, XDATA, add(CFA_XSP16, literal(-20)))
        CFI V3 load(1, XDATA, add(CFA_XSP16, literal(-19)))
        CFI V4 load(1, XDATA, add(CFA_XSP16, literal(-18)))
        CFI V5 load(1, XDATA, add(CFA_XSP16, literal(-17)))
        CFI V6 load(1, XDATA, add(CFA_XSP16, literal(-16)))
        CFI V7 load(1, XDATA, add(CFA_XSP16, literal(-15)))
        CFI V8 load(1, XDATA, add(CFA_XSP16, literal(-14)))
        CFI V9 load(1, XDATA, add(CFA_XSP16, literal(-13)))
        CFI V10 load(1, XDATA, add(CFA_XSP16, literal(-12)))
        CFI V11 load(1, XDATA, add(CFA_XSP16, literal(-11)))
        CFI V12 load(1, XDATA, add(CFA_XSP16, literal(-10)))
        CFI V13 load(1, XDATA, add(CFA_XSP16, literal(-9)))
        CFI V14 load(1, XDATA, add(CFA_XSP16, literal(-8)))
        CFI V15 load(1, XDATA, add(CFA_XSP16, literal(-7)))
        CFI R7 load(1, XDATA, add(CFA_XSP16, literal(-6)))
        CFI ?RET_LOW load(1, XDATA, add(CFA_XSP16, literal(-5)))
        CFI ?RET_HIGH load(1, XDATA, add(CFA_XSP16, literal(-4)))
        CFI ?BRET_EXT load(1, XDATA, add(CFA_XSP16, literal(-3)))
        CFI DPL0 load(1, XDATA, add(CFA_XSP16, literal(-2)))
        CFI DPH0 load(1, XDATA, add(CFA_XSP16, literal(-1)))
        CFI CFA_SP SP+0
        CFI CFA_XSP16 add(XSP16, 26)
        CFI Block cfiCond93 Using cfiCommon0
        CFI (cfiCond93) NoFunction
        CFI (cfiCond93) Conditional ??CrossCallReturnLabel_32
        CFI (cfiCond93) R6 load(1, XDATA, add(CFA_XSP16, literal(-24)))
        CFI (cfiCond93) VB load(1, XDATA, add(CFA_XSP16, literal(-23)))
        CFI (cfiCond93) V0 load(1, XDATA, add(CFA_XSP16, literal(-22)))
        CFI (cfiCond93) V1 load(1, XDATA, add(CFA_XSP16, literal(-21)))
        CFI (cfiCond93) V2 load(1, XDATA, add(CFA_XSP16, literal(-20)))
        CFI (cfiCond93) V3 load(1, XDATA, add(CFA_XSP16, literal(-19)))
        CFI (cfiCond93) V4 load(1, XDATA, add(CFA_XSP16, literal(-18)))
        CFI (cfiCond93) V5 load(1, XDATA, add(CFA_XSP16, literal(-17)))
        CFI (cfiCond93) V6 load(1, XDATA, add(CFA_XSP16, literal(-16)))
        CFI (cfiCond93) V7 load(1, XDATA, add(CFA_XSP16, literal(-15)))
        CFI (cfiCond93) V8 load(1, XDATA, add(CFA_XSP16, literal(-14)))
        CFI (cfiCond93) V9 load(1, XDATA, add(CFA_XSP16, literal(-13)))
        CFI (cfiCond93) V10 load(1, XDATA, add(CFA_XSP16, literal(-12)))
        CFI (cfiCond93) V11 load(1, XDATA, add(CFA_XSP16, literal(-11)))
        CFI (cfiCond93) V12 load(1, XDATA, add(CFA_XSP16, literal(-10)))
        CFI (cfiCond93) V13 load(1, XDATA, add(CFA_XSP16, literal(-9)))
        CFI (cfiCond93) V14 load(1, XDATA, add(CFA_XSP16, literal(-8)))
        CFI (cfiCond93) V15 load(1, XDATA, add(CFA_XSP16, literal(-7)))
        CFI (cfiCond93) R7 load(1, XDATA, add(CFA_XSP16, literal(-6)))
        CFI (cfiCond93) ?RET_LOW load(1, XDATA, add(CFA_XSP16, literal(-5)))
        CFI (cfiCond93) ?RET_HIGH load(1, XDATA, add(CFA_XSP16, literal(-4)))
        CFI (cfiCond93) ?BRET_EXT load(1, XDATA, add(CFA_XSP16, literal(-3)))
        CFI (cfiCond93) DPL0 load(1, XDATA, add(CFA_XSP16, literal(-2)))
        CFI (cfiCond93) DPH0 load(1, XDATA, add(CFA_XSP16, literal(-1)))
        CFI (cfiCond93) CFA_SP SP+0
        CFI (cfiCond93) CFA_XSP16 add(XSP16, 26)
        CFI Block cfiPicker94 Using cfiCommon1
        CFI (cfiPicker94) NoFunction
        CFI (cfiPicker94) Picker
        LCALL   ?Subroutine25 & 0xFFFF
??CrossCallReturnLabel_56:
        RET
        CFI EndBlock cfiCond92
        CFI EndBlock cfiCond93
        CFI EndBlock cfiPicker94

        RSEG BANKED_CODE:CODE:NOROOT(0)
?Subroutine25:
        CFI Block cfiCond95 Using cfiCommon0
        CFI NoFunction
        CFI Conditional ??CrossCallReturnLabel_56, ??CrossCallReturnLabel_31
        CFI R6 load(1, XDATA, add(CFA_XSP16, literal(-24)))
        CFI VB load(1, XDATA, add(CFA_XSP16, literal(-23)))
        CFI V0 load(1, XDATA, add(CFA_XSP16, literal(-22)))
        CFI V1 load(1, XDATA, add(CFA_XSP16, literal(-21)))
        CFI V2 load(1, XDATA, add(CFA_XSP16, literal(-20)))
        CFI V3 load(1, XDATA, add(CFA_XSP16, literal(-19)))
        CFI V4 load(1, XDATA, add(CFA_XSP16, literal(-18)))
        CFI V5 load(1, XDATA, add(CFA_XSP16, literal(-17)))
        CFI V6 load(1, XDATA, add(CFA_XSP16, literal(-16)))
        CFI V7 load(1, XDATA, add(CFA_XSP16, literal(-15)))
        CFI V8 load(1, XDATA, add(CFA_XSP16, literal(-14)))
        CFI V9 load(1, XDATA, add(CFA_XSP16, literal(-13)))
        CFI V10 load(1, XDATA, add(CFA_XSP16, literal(-12)))
        CFI V11 load(1, XDATA, add(CFA_XSP16, literal(-11)))
        CFI V12 load(1, XDATA, add(CFA_XSP16, literal(-10)))
        CFI V13 load(1, XDATA, add(CFA_XSP16, literal(-9)))
        CFI V14 load(1, XDATA, add(CFA_XSP16, literal(-8)))
        CFI V15 load(1, XDATA, add(CFA_XSP16, literal(-7)))
        CFI R7 load(1, XDATA, add(CFA_XSP16, literal(-6)))
        CFI ?RET_LOW load(1, XDATA, add(CFA_XSP16, literal(-5)))
        CFI ?RET_HIGH load(1, XDATA, add(CFA_XSP16, literal(-4)))
        CFI ?BRET_EXT load(1, XDATA, add(CFA_XSP16, literal(-3)))
        CFI DPL0 load(1, XDATA, add(CFA_XSP16, literal(-2)))
        CFI DPH0 load(1, XDATA, add(CFA_XSP16, literal(-1)))
        CFI CFA_SP SP+0
        CFI CFA_XSP16 add(XSP16, 26)
        CFI Block cfiCond96 Using cfiCommon0
        CFI (cfiCond96) NoFunction
        CFI (cfiCond96) Conditional ??CrossCallReturnLabel_56, ??CrossCallReturnLabel_32
        CFI (cfiCond96) R6 load(1, XDATA, add(CFA_XSP16, literal(-24)))
        CFI (cfiCond96) VB load(1, XDATA, add(CFA_XSP16, literal(-23)))
        CFI (cfiCond96) V0 load(1, XDATA, add(CFA_XSP16, literal(-22)))
        CFI (cfiCond96) V1 load(1, XDATA, add(CFA_XSP16, literal(-21)))
        CFI (cfiCond96) V2 load(1, XDATA, add(CFA_XSP16, literal(-20)))
        CFI (cfiCond96) V3 load(1, XDATA, add(CFA_XSP16, literal(-19)))
        CFI (cfiCond96) V4 load(1, XDATA, add(CFA_XSP16, literal(-18)))
        CFI (cfiCond96) V5 load(1, XDATA, add(CFA_XSP16, literal(-17)))
        CFI (cfiCond96) V6 load(1, XDATA, add(CFA_XSP16, literal(-16)))
        CFI (cfiCond96) V7 load(1, XDATA, add(CFA_XSP16, literal(-15)))
        CFI (cfiCond96) V8 load(1, XDATA, add(CFA_XSP16, literal(-14)))
        CFI (cfiCond96) V9 load(1, XDATA, add(CFA_XSP16, literal(-13)))
        CFI (cfiCond96) V10 load(1, XDATA, add(CFA_XSP16, literal(-12)))
        CFI (cfiCond96) V11 load(1, XDATA, add(CFA_XSP16, literal(-11)))
        CFI (cfiCond96) V12 load(1, XDATA, add(CFA_XSP16, literal(-10)))
        CFI (cfiCond96) V13 load(1, XDATA, add(CFA_XSP16, literal(-9)))
        CFI (cfiCond96) V14 load(1, XDATA, add(CFA_XSP16, literal(-8)))
        CFI (cfiCond96) V15 load(1, XDATA, add(CFA_XSP16, literal(-7)))
        CFI (cfiCond96) R7 load(1, XDATA, add(CFA_XSP16, literal(-6)))
        CFI (cfiCond96) ?RET_LOW load(1, XDATA, add(CFA_XSP16, literal(-5)))
        CFI (cfiCond96) ?RET_HIGH load(1, XDATA, add(CFA_XSP16, literal(-4)))
        CFI (cfiCond96) ?BRET_EXT load(1, XDATA, add(CFA_XSP16, literal(-3)))
        CFI (cfiCond96) DPL0 load(1, XDATA, add(CFA_XSP16, literal(-2)))
        CFI (cfiCond96) DPH0 load(1, XDATA, add(CFA_XSP16, literal(-1)))
        CFI (cfiCond96) CFA_SP SP+0
        CFI (cfiCond96) CFA_XSP16 add(XSP16, 26)
        CFI Block cfiCond97 Using cfiCommon0
        CFI (cfiCond97) NoFunction
        CFI (cfiCond97) Conditional ??CrossCallReturnLabel_55, ??CrossCallReturnLabel_21
        CFI (cfiCond97) R6 load(1, XDATA, add(CFA_XSP16, literal(-24)))
        CFI (cfiCond97) VB load(1, XDATA, add(CFA_XSP16, literal(-23)))
        CFI (cfiCond97) V0 load(1, XDATA, add(CFA_XSP16, literal(-22)))
        CFI (cfiCond97) V1 load(1, XDATA, add(CFA_XSP16, literal(-21)))
        CFI (cfiCond97) V2 load(1, XDATA, add(CFA_XSP16, literal(-20)))
        CFI (cfiCond97) V3 load(1, XDATA, add(CFA_XSP16, literal(-19)))
        CFI (cfiCond97) V4 load(1, XDATA, add(CFA_XSP16, literal(-18)))
        CFI (cfiCond97) V5 load(1, XDATA, add(CFA_XSP16, literal(-17)))
        CFI (cfiCond97) V6 load(1, XDATA, add(CFA_XSP16, literal(-16)))
        CFI (cfiCond97) V7 load(1, XDATA, add(CFA_XSP16, literal(-15)))
        CFI (cfiCond97) V8 load(1, XDATA, add(CFA_XSP16, literal(-14)))
        CFI (cfiCond97) V9 load(1, XDATA, add(CFA_XSP16, literal(-13)))
        CFI (cfiCond97) V10 load(1, XDATA, add(CFA_XSP16, literal(-12)))
        CFI (cfiCond97) V11 load(1, XDATA, add(CFA_XSP16, literal(-11)))
        CFI (cfiCond97) V12 load(1, XDATA, add(CFA_XSP16, literal(-10)))
        CFI (cfiCond97) V13 load(1, XDATA, add(CFA_XSP16, literal(-9)))
        CFI (cfiCond97) V14 load(1, XDATA, add(CFA_XSP16, literal(-8)))
        CFI (cfiCond97) V15 load(1, XDATA, add(CFA_XSP16, literal(-7)))
        CFI (cfiCond97) R7 load(1, XDATA, add(CFA_XSP16, literal(-6)))
        CFI (cfiCond97) ?RET_LOW load(1, XDATA, add(CFA_XSP16, literal(-5)))
        CFI (cfiCond97) ?RET_HIGH load(1, XDATA, add(CFA_XSP16, literal(-4)))
        CFI (cfiCond97) ?BRET_EXT load(1, XDATA, add(CFA_XSP16, literal(-3)))
        CFI (cfiCond97) DPL0 load(1, XDATA, add(CFA_XSP16, literal(-2)))
        CFI (cfiCond97) DPH0 load(1, XDATA, add(CFA_XSP16, literal(-1)))
        CFI (cfiCond97) CFA_SP SP+0
        CFI (cfiCond97) CFA_XSP16 add(XSP16, 26)
        CFI Block cfiCond98 Using cfiCommon0
        CFI (cfiCond98) NoFunction
        CFI (cfiCond98) Conditional ??CrossCallReturnLabel_55, ??CrossCallReturnLabel_22
        CFI (cfiCond98) R6 load(1, XDATA, add(CFA_XSP16, literal(-24)))
        CFI (cfiCond98) VB load(1, XDATA, add(CFA_XSP16, literal(-23)))
        CFI (cfiCond98) V0 load(1, XDATA, add(CFA_XSP16, literal(-22)))
        CFI (cfiCond98) V1 load(1, XDATA, add(CFA_XSP16, literal(-21)))
        CFI (cfiCond98) V2 load(1, XDATA, add(CFA_XSP16, literal(-20)))
        CFI (cfiCond98) V3 load(1, XDATA, add(CFA_XSP16, literal(-19)))
        CFI (cfiCond98) V4 load(1, XDATA, add(CFA_XSP16, literal(-18)))
        CFI (cfiCond98) V5 load(1, XDATA, add(CFA_XSP16, literal(-17)))
        CFI (cfiCond98) V6 load(1, XDATA, add(CFA_XSP16, literal(-16)))
        CFI (cfiCond98) V7 load(1, XDATA, add(CFA_XSP16, literal(-15)))
        CFI (cfiCond98) V8 load(1, XDATA, add(CFA_XSP16, literal(-14)))
        CFI (cfiCond98) V9 load(1, XDATA, add(CFA_XSP16, literal(-13)))
        CFI (cfiCond98) V10 load(1, XDATA, add(CFA_XSP16, literal(-12)))
        CFI (cfiCond98) V11 load(1, XDATA, add(CFA_XSP16, literal(-11)))
        CFI (cfiCond98) V12 load(1, XDATA, add(CFA_XSP16, literal(-10)))
        CFI (cfiCond98) V13 load(1, XDATA, add(CFA_XSP16, literal(-9)))
        CFI (cfiCond98) V14 load(1, XDATA, add(CFA_XSP16, literal(-8)))
        CFI (cfiCond98) V15 load(1, XDATA, add(CFA_XSP16, literal(-7)))
        CFI (cfiCond98) R7 load(1, XDATA, add(CFA_XSP16, literal(-6)))
        CFI (cfiCond98) ?RET_LOW load(1, XDATA, add(CFA_XSP16, literal(-5)))
        CFI (cfiCond98) ?RET_HIGH load(1, XDATA, add(CFA_XSP16, literal(-4)))
        CFI (cfiCond98) ?BRET_EXT load(1, XDATA, add(CFA_XSP16, literal(-3)))
        CFI (cfiCond98) DPL0 load(1, XDATA, add(CFA_XSP16, literal(-2)))
        CFI (cfiCond98) DPH0 load(1, XDATA, add(CFA_XSP16, literal(-1)))
        CFI (cfiCond98) CFA_SP SP+0
        CFI (cfiCond98) CFA_XSP16 add(XSP16, 26)
        CFI Block cfiPicker99 Using cfiCommon1
        CFI (cfiPicker99) NoFunction
        CFI (cfiPicker99) Picker
        MOV     A,?V0 + 14
        ADD     A,R2
        MOV     DPL,A
        MOV     A,?V0 + 15
        ADDC    A,R3
        MOV     DPH,A
        MOVX    A,@DPTR
        RET
        CFI EndBlock cfiCond95
        CFI EndBlock cfiCond96
        CFI EndBlock cfiCond97
        CFI EndBlock cfiCond98
        CFI EndBlock cfiPicker99

        RSEG BANKED_CODE:CODE:NOROOT(0)
?Subroutine11:
        CFI Block cfiCond100 Using cfiCommon0
        CFI NoFunction
        CFI Conditional ??CrossCallReturnLabel_23
        CFI R6 load(1, XDATA, add(CFA_XSP16, literal(-24)))
        CFI VB load(1, XDATA, add(CFA_XSP16, literal(-23)))
        CFI V0 load(1, XDATA, add(CFA_XSP16, literal(-22)))
        CFI V1 load(1, XDATA, add(CFA_XSP16, literal(-21)))
        CFI V2 load(1, XDATA, add(CFA_XSP16, literal(-20)))
        CFI V3 load(1, XDATA, add(CFA_XSP16, literal(-19)))
        CFI V4 load(1, XDATA, add(CFA_XSP16, literal(-18)))
        CFI V5 load(1, XDATA, add(CFA_XSP16, literal(-17)))
        CFI V6 load(1, XDATA, add(CFA_XSP16, literal(-16)))
        CFI V7 load(1, XDATA, add(CFA_XSP16, literal(-15)))
        CFI V8 load(1, XDATA, add(CFA_XSP16, literal(-14)))
        CFI V9 load(1, XDATA, add(CFA_XSP16, literal(-13)))
        CFI V10 load(1, XDATA, add(CFA_XSP16, literal(-12)))
        CFI V11 load(1, XDATA, add(CFA_XSP16, literal(-11)))
        CFI V12 load(1, XDATA, add(CFA_XSP16, literal(-10)))
        CFI V13 load(1, XDATA, add(CFA_XSP16, literal(-9)))
        CFI V14 load(1, XDATA, add(CFA_XSP16, literal(-8)))
        CFI V15 load(1, XDATA, add(CFA_XSP16, literal(-7)))
        CFI R7 load(1, XDATA, add(CFA_XSP16, literal(-6)))
        CFI ?RET_LOW load(1, XDATA, add(CFA_XSP16, literal(-5)))
        CFI ?RET_HIGH load(1, XDATA, add(CFA_XSP16, literal(-4)))
        CFI ?BRET_EXT load(1, XDATA, add(CFA_XSP16, literal(-3)))
        CFI DPL0 load(1, XDATA, add(CFA_XSP16, literal(-2)))
        CFI DPH0 load(1, XDATA, add(CFA_XSP16, literal(-1)))
        CFI CFA_SP SP+0
        CFI CFA_XSP16 add(XSP16, 26)
        CFI Block cfiCond101 Using cfiCommon0
        CFI (cfiCond101) NoFunction
        CFI (cfiCond101) Conditional ??CrossCallReturnLabel_24
        CFI (cfiCond101) R6 load(1, XDATA, add(CFA_XSP16, literal(-24)))
        CFI (cfiCond101) VB load(1, XDATA, add(CFA_XSP16, literal(-23)))
        CFI (cfiCond101) V0 load(1, XDATA, add(CFA_XSP16, literal(-22)))
        CFI (cfiCond101) V1 load(1, XDATA, add(CFA_XSP16, literal(-21)))
        CFI (cfiCond101) V2 load(1, XDATA, add(CFA_XSP16, literal(-20)))
        CFI (cfiCond101) V3 load(1, XDATA, add(CFA_XSP16, literal(-19)))
        CFI (cfiCond101) V4 load(1, XDATA, add(CFA_XSP16, literal(-18)))
        CFI (cfiCond101) V5 load(1, XDATA, add(CFA_XSP16, literal(-17)))
        CFI (cfiCond101) V6 load(1, XDATA, add(CFA_XSP16, literal(-16)))
        CFI (cfiCond101) V7 load(1, XDATA, add(CFA_XSP16, literal(-15)))
        CFI (cfiCond101) V8 load(1, XDATA, add(CFA_XSP16, literal(-14)))
        CFI (cfiCond101) V9 load(1, XDATA, add(CFA_XSP16, literal(-13)))
        CFI (cfiCond101) V10 load(1, XDATA, add(CFA_XSP16, literal(-12)))
        CFI (cfiCond101) V11 load(1, XDATA, add(CFA_XSP16, literal(-11)))
        CFI (cfiCond101) V12 load(1, XDATA, add(CFA_XSP16, literal(-10)))
        CFI (cfiCond101) V13 load(1, XDATA, add(CFA_XSP16, literal(-9)))
        CFI (cfiCond101) V14 load(1, XDATA, add(CFA_XSP16, literal(-8)))
        CFI (cfiCond101) V15 load(1, XDATA, add(CFA_XSP16, literal(-7)))
        CFI (cfiCond101) R7 load(1, XDATA, add(CFA_XSP16, literal(-6)))
        CFI (cfiCond101) ?RET_LOW load(1, XDATA, add(CFA_XSP16, literal(-5)))
        CFI (cfiCond101) ?RET_HIGH load(1, XDATA, add(CFA_XSP16, literal(-4)))
        CFI (cfiCond101) ?BRET_EXT load(1, XDATA, add(CFA_XSP16, literal(-3)))
        CFI (cfiCond101) DPL0 load(1, XDATA, add(CFA_XSP16, literal(-2)))
        CFI (cfiCond101) DPH0 load(1, XDATA, add(CFA_XSP16, literal(-1)))
        CFI (cfiCond101) CFA_SP SP+0
        CFI (cfiCond101) CFA_XSP16 add(XSP16, 26)
        CFI Block cfiPicker102 Using cfiCommon1
        CFI (cfiPicker102) NoFunction
        CFI (cfiPicker102) Picker
        MOVX    @DPTR,A
        MOV     A,?V0 + 12
        ADD     A,#0x1
        MOV     ?V0 + 12,A
        MOV     A,?V0 + 13
        ADDC    A,#0x0
        MOV     ?V0 + 13,A
        RET
        CFI EndBlock cfiCond100
        CFI EndBlock cfiCond101
        CFI EndBlock cfiPicker102

        RSEG BANKED_CODE:CODE:NOROOT(0)
?Subroutine10:
        CFI Block cfiCond103 Using cfiCommon0
        CFI NoFunction
        CFI Conditional ??CrossCallReturnLabel_21
        CFI R6 load(1, XDATA, add(CFA_XSP16, literal(-24)))
        CFI VB load(1, XDATA, add(CFA_XSP16, literal(-23)))
        CFI V0 load(1, XDATA, add(CFA_XSP16, literal(-22)))
        CFI V1 load(1, XDATA, add(CFA_XSP16, literal(-21)))
        CFI V2 load(1, XDATA, add(CFA_XSP16, literal(-20)))
        CFI V3 load(1, XDATA, add(CFA_XSP16, literal(-19)))
        CFI V4 load(1, XDATA, add(CFA_XSP16, literal(-18)))
        CFI V5 load(1, XDATA, add(CFA_XSP16, literal(-17)))
        CFI V6 load(1, XDATA, add(CFA_XSP16, literal(-16)))
        CFI V7 load(1, XDATA, add(CFA_XSP16, literal(-15)))
        CFI V8 load(1, XDATA, add(CFA_XSP16, literal(-14)))
        CFI V9 load(1, XDATA, add(CFA_XSP16, literal(-13)))
        CFI V10 load(1, XDATA, add(CFA_XSP16, literal(-12)))
        CFI V11 load(1, XDATA, add(CFA_XSP16, literal(-11)))
        CFI V12 load(1, XDATA, add(CFA_XSP16, literal(-10)))
        CFI V13 load(1, XDATA, add(CFA_XSP16, literal(-9)))
        CFI V14 load(1, XDATA, add(CFA_XSP16, literal(-8)))
        CFI V15 load(1, XDATA, add(CFA_XSP16, literal(-7)))
        CFI R7 load(1, XDATA, add(CFA_XSP16, literal(-6)))
        CFI ?RET_LOW load(1, XDATA, add(CFA_XSP16, literal(-5)))
        CFI ?RET_HIGH load(1, XDATA, add(CFA_XSP16, literal(-4)))
        CFI ?BRET_EXT load(1, XDATA, add(CFA_XSP16, literal(-3)))
        CFI DPL0 load(1, XDATA, add(CFA_XSP16, literal(-2)))
        CFI DPH0 load(1, XDATA, add(CFA_XSP16, literal(-1)))
        CFI CFA_SP SP+0
        CFI CFA_XSP16 add(XSP16, 26)
        CFI Block cfiCond104 Using cfiCommon0
        CFI (cfiCond104) NoFunction
        CFI (cfiCond104) Conditional ??CrossCallReturnLabel_22
        CFI (cfiCond104) R6 load(1, XDATA, add(CFA_XSP16, literal(-24)))
        CFI (cfiCond104) VB load(1, XDATA, add(CFA_XSP16, literal(-23)))
        CFI (cfiCond104) V0 load(1, XDATA, add(CFA_XSP16, literal(-22)))
        CFI (cfiCond104) V1 load(1, XDATA, add(CFA_XSP16, literal(-21)))
        CFI (cfiCond104) V2 load(1, XDATA, add(CFA_XSP16, literal(-20)))
        CFI (cfiCond104) V3 load(1, XDATA, add(CFA_XSP16, literal(-19)))
        CFI (cfiCond104) V4 load(1, XDATA, add(CFA_XSP16, literal(-18)))
        CFI (cfiCond104) V5 load(1, XDATA, add(CFA_XSP16, literal(-17)))
        CFI (cfiCond104) V6 load(1, XDATA, add(CFA_XSP16, literal(-16)))
        CFI (cfiCond104) V7 load(1, XDATA, add(CFA_XSP16, literal(-15)))
        CFI (cfiCond104) V8 load(1, XDATA, add(CFA_XSP16, literal(-14)))
        CFI (cfiCond104) V9 load(1, XDATA, add(CFA_XSP16, literal(-13)))
        CFI (cfiCond104) V10 load(1, XDATA, add(CFA_XSP16, literal(-12)))
        CFI (cfiCond104) V11 load(1, XDATA, add(CFA_XSP16, literal(-11)))
        CFI (cfiCond104) V12 load(1, XDATA, add(CFA_XSP16, literal(-10)))
        CFI (cfiCond104) V13 load(1, XDATA, add(CFA_XSP16, literal(-9)))
        CFI (cfiCond104) V14 load(1, XDATA, add(CFA_XSP16, literal(-8)))
        CFI (cfiCond104) V15 load(1, XDATA, add(CFA_XSP16, literal(-7)))
        CFI (cfiCond104) R7 load(1, XDATA, add(CFA_XSP16, literal(-6)))
        CFI (cfiCond104) ?RET_LOW load(1, XDATA, add(CFA_XSP16, literal(-5)))
        CFI (cfiCond104) ?RET_HIGH load(1, XDATA, add(CFA_XSP16, literal(-4)))
        CFI (cfiCond104) ?BRET_EXT load(1, XDATA, add(CFA_XSP16, literal(-3)))
        CFI (cfiCond104) DPL0 load(1, XDATA, add(CFA_XSP16, literal(-2)))
        CFI (cfiCond104) DPH0 load(1, XDATA, add(CFA_XSP16, literal(-1)))
        CFI (cfiCond104) CFA_SP SP+0
        CFI (cfiCond104) CFA_XSP16 add(XSP16, 26)
        CFI Block cfiPicker105 Using cfiCommon1
        CFI (cfiPicker105) NoFunction
        CFI (cfiPicker105) Picker
        LCALL   ?Subroutine25 & 0xFFFF
??CrossCallReturnLabel_55:
        XRL     A,#0x25
        RET
        CFI EndBlock cfiCond103
        CFI EndBlock cfiCond104
        CFI EndBlock cfiPicker105

        RSEG BANKED_CODE:CODE:NOROOT(0)
?Subroutine8:
        CFI Block cfiCond106 Using cfiCommon0
        CFI NoFunction
        CFI Conditional ??CrossCallReturnLabel_17
        CFI R6 load(1, XDATA, add(CFA_XSP16, literal(-24)))
        CFI VB load(1, XDATA, add(CFA_XSP16, literal(-23)))
        CFI V0 load(1, XDATA, add(CFA_XSP16, literal(-22)))
        CFI V1 load(1, XDATA, add(CFA_XSP16, literal(-21)))
        CFI V2 load(1, XDATA, add(CFA_XSP16, literal(-20)))
        CFI V3 load(1, XDATA, add(CFA_XSP16, literal(-19)))
        CFI V4 load(1, XDATA, add(CFA_XSP16, literal(-18)))
        CFI V5 load(1, XDATA, add(CFA_XSP16, literal(-17)))
        CFI V6 load(1, XDATA, add(CFA_XSP16, literal(-16)))
        CFI V7 load(1, XDATA, add(CFA_XSP16, literal(-15)))
        CFI V8 load(1, XDATA, add(CFA_XSP16, literal(-14)))
        CFI V9 load(1, XDATA, add(CFA_XSP16, literal(-13)))
        CFI V10 load(1, XDATA, add(CFA_XSP16, literal(-12)))
        CFI V11 load(1, XDATA, add(CFA_XSP16, literal(-11)))
        CFI V12 load(1, XDATA, add(CFA_XSP16, literal(-10)))
        CFI V13 load(1, XDATA, add(CFA_XSP16, literal(-9)))
        CFI V14 load(1, XDATA, add(CFA_XSP16, literal(-8)))
        CFI V15 load(1, XDATA, add(CFA_XSP16, literal(-7)))
        CFI R7 load(1, XDATA, add(CFA_XSP16, literal(-6)))
        CFI ?RET_LOW load(1, XDATA, add(CFA_XSP16, literal(-5)))
        CFI ?RET_HIGH load(1, XDATA, add(CFA_XSP16, literal(-4)))
        CFI ?BRET_EXT load(1, XDATA, add(CFA_XSP16, literal(-3)))
        CFI DPL0 load(1, XDATA, add(CFA_XSP16, literal(-2)))
        CFI DPH0 load(1, XDATA, add(CFA_XSP16, literal(-1)))
        CFI CFA_SP SP+0
        CFI CFA_XSP16 add(XSP16, 26)
        CFI Block cfiCond107 Using cfiCommon0
        CFI (cfiCond107) NoFunction
        CFI (cfiCond107) Conditional ??CrossCallReturnLabel_18
        CFI (cfiCond107) R6 load(1, XDATA, add(CFA_XSP16, literal(-24)))
        CFI (cfiCond107) VB load(1, XDATA, add(CFA_XSP16, literal(-23)))
        CFI (cfiCond107) V0 load(1, XDATA, add(CFA_XSP16, literal(-22)))
        CFI (cfiCond107) V1 load(1, XDATA, add(CFA_XSP16, literal(-21)))
        CFI (cfiCond107) V2 load(1, XDATA, add(CFA_XSP16, literal(-20)))
        CFI (cfiCond107) V3 load(1, XDATA, add(CFA_XSP16, literal(-19)))
        CFI (cfiCond107) V4 load(1, XDATA, add(CFA_XSP16, literal(-18)))
        CFI (cfiCond107) V5 load(1, XDATA, add(CFA_XSP16, literal(-17)))
        CFI (cfiCond107) V6 load(1, XDATA, add(CFA_XSP16, literal(-16)))
        CFI (cfiCond107) V7 load(1, XDATA, add(CFA_XSP16, literal(-15)))
        CFI (cfiCond107) V8 load(1, XDATA, add(CFA_XSP16, literal(-14)))
        CFI (cfiCond107) V9 load(1, XDATA, add(CFA_XSP16, literal(-13)))
        CFI (cfiCond107) V10 load(1, XDATA, add(CFA_XSP16, literal(-12)))
        CFI (cfiCond107) V11 load(1, XDATA, add(CFA_XSP16, literal(-11)))
        CFI (cfiCond107) V12 load(1, XDATA, add(CFA_XSP16, literal(-10)))
        CFI (cfiCond107) V13 load(1, XDATA, add(CFA_XSP16, literal(-9)))
        CFI (cfiCond107) V14 load(1, XDATA, add(CFA_XSP16, literal(-8)))
        CFI (cfiCond107) V15 load(1, XDATA, add(CFA_XSP16, literal(-7)))
        CFI (cfiCond107) R7 load(1, XDATA, add(CFA_XSP16, literal(-6)))
        CFI (cfiCond107) ?RET_LOW load(1, XDATA, add(CFA_XSP16, literal(-5)))
        CFI (cfiCond107) ?RET_HIGH load(1, XDATA, add(CFA_XSP16, literal(-4)))
        CFI (cfiCond107) ?BRET_EXT load(1, XDATA, add(CFA_XSP16, literal(-3)))
        CFI (cfiCond107) DPL0 load(1, XDATA, add(CFA_XSP16, literal(-2)))
        CFI (cfiCond107) DPH0 load(1, XDATA, add(CFA_XSP16, literal(-1)))
        CFI (cfiCond107) CFA_SP SP+0
        CFI (cfiCond107) CFA_XSP16 add(XSP16, 26)
        CFI Block cfiPicker108 Using cfiCommon1
        CFI (cfiPicker108) NoFunction
        CFI (cfiPicker108) Picker
        MOV     DPL,?XSP + 0
        MOV     DPH,?XSP + 1
        MOVX    A,@DPTR
        MOV     R0,A
        INC     DPTR
        MOVX    A,@DPTR
        MOV     R1,A
        CLR     C
        MOV     A,R2
        SUBB    A,R0
        MOV     A,R3
        SUBB    A,R1
        MOV     C,0xD0 /* PSW */.2
        XRL     A,PSW
        RLC     A
        RET
        CFI EndBlock cfiCond106
        CFI EndBlock cfiCond107
        CFI EndBlock cfiPicker108

        RSEG BANKED_CODE:CODE:NOROOT(0)
?Subroutine7:
        CFI Block cfiCond109 Using cfiCommon0
        CFI NoFunction
        CFI Conditional ??CrossCallReturnLabel_15
        CFI R6 load(1, XDATA, add(CFA_XSP16, literal(-24)))
        CFI VB load(1, XDATA, add(CFA_XSP16, literal(-23)))
        CFI V0 load(1, XDATA, add(CFA_XSP16, literal(-22)))
        CFI V1 load(1, XDATA, add(CFA_XSP16, literal(-21)))
        CFI V2 load(1, XDATA, add(CFA_XSP16, literal(-20)))
        CFI V3 load(1, XDATA, add(CFA_XSP16, literal(-19)))
        CFI V4 load(1, XDATA, add(CFA_XSP16, literal(-18)))
        CFI V5 load(1, XDATA, add(CFA_XSP16, literal(-17)))
        CFI V6 load(1, XDATA, add(CFA_XSP16, literal(-16)))
        CFI V7 load(1, XDATA, add(CFA_XSP16, literal(-15)))
        CFI V8 load(1, XDATA, add(CFA_XSP16, literal(-14)))
        CFI V9 load(1, XDATA, add(CFA_XSP16, literal(-13)))
        CFI V10 load(1, XDATA, add(CFA_XSP16, literal(-12)))
        CFI V11 load(1, XDATA, add(CFA_XSP16, literal(-11)))
        CFI V12 load(1, XDATA, add(CFA_XSP16, literal(-10)))
        CFI V13 load(1, XDATA, add(CFA_XSP16, literal(-9)))
        CFI V14 load(1, XDATA, add(CFA_XSP16, literal(-8)))
        CFI V15 load(1, XDATA, add(CFA_XSP16, literal(-7)))
        CFI R7 load(1, XDATA, add(CFA_XSP16, literal(-6)))
        CFI ?RET_LOW load(1, XDATA, add(CFA_XSP16, literal(-5)))
        CFI ?RET_HIGH load(1, XDATA, add(CFA_XSP16, literal(-4)))
        CFI ?BRET_EXT load(1, XDATA, add(CFA_XSP16, literal(-3)))
        CFI DPL0 load(1, XDATA, add(CFA_XSP16, literal(-2)))
        CFI DPH0 load(1, XDATA, add(CFA_XSP16, literal(-1)))
        CFI CFA_SP SP+0
        CFI CFA_XSP16 add(XSP16, 26)
        CFI Block cfiCond110 Using cfiCommon0
        CFI (cfiCond110) NoFunction
        CFI (cfiCond110) Conditional ??CrossCallReturnLabel_16
        CFI (cfiCond110) R6 load(1, XDATA, add(CFA_XSP16, literal(-24)))
        CFI (cfiCond110) VB load(1, XDATA, add(CFA_XSP16, literal(-23)))
        CFI (cfiCond110) V0 load(1, XDATA, add(CFA_XSP16, literal(-22)))
        CFI (cfiCond110) V1 load(1, XDATA, add(CFA_XSP16, literal(-21)))
        CFI (cfiCond110) V2 load(1, XDATA, add(CFA_XSP16, literal(-20)))
        CFI (cfiCond110) V3 load(1, XDATA, add(CFA_XSP16, literal(-19)))
        CFI (cfiCond110) V4 load(1, XDATA, add(CFA_XSP16, literal(-18)))
        CFI (cfiCond110) V5 load(1, XDATA, add(CFA_XSP16, literal(-17)))
        CFI (cfiCond110) V6 load(1, XDATA, add(CFA_XSP16, literal(-16)))
        CFI (cfiCond110) V7 load(1, XDATA, add(CFA_XSP16, literal(-15)))
        CFI (cfiCond110) V8 load(1, XDATA, add(CFA_XSP16, literal(-14)))
        CFI (cfiCond110) V9 load(1, XDATA, add(CFA_XSP16, literal(-13)))
        CFI (cfiCond110) V10 load(1, XDATA, add(CFA_XSP16, literal(-12)))
        CFI (cfiCond110) V11 load(1, XDATA, add(CFA_XSP16, literal(-11)))
        CFI (cfiCond110) V12 load(1, XDATA, add(CFA_XSP16, literal(-10)))
        CFI (cfiCond110) V13 load(1, XDATA, add(CFA_XSP16, literal(-9)))
        CFI (cfiCond110) V14 load(1, XDATA, add(CFA_XSP16, literal(-8)))
        CFI (cfiCond110) V15 load(1, XDATA, add(CFA_XSP16, literal(-7)))
        CFI (cfiCond110) R7 load(1, XDATA, add(CFA_XSP16, literal(-6)))
        CFI (cfiCond110) ?RET_LOW load(1, XDATA, add(CFA_XSP16, literal(-5)))
        CFI (cfiCond110) ?RET_HIGH load(1, XDATA, add(CFA_XSP16, literal(-4)))
        CFI (cfiCond110) ?BRET_EXT load(1, XDATA, add(CFA_XSP16, literal(-3)))
        CFI (cfiCond110) DPL0 load(1, XDATA, add(CFA_XSP16, literal(-2)))
        CFI (cfiCond110) DPH0 load(1, XDATA, add(CFA_XSP16, literal(-1)))
        CFI (cfiCond110) CFA_SP SP+0
        CFI (cfiCond110) CFA_XSP16 add(XSP16, 26)
        CFI Block cfiPicker111 Using cfiCommon1
        CFI (cfiPicker111) NoFunction
        CFI (cfiPicker111) Picker
        LCALL   ??strlen?relay
        MOV     DPL,?XSP + 0
        MOV     DPH,?XSP + 1
        MOV     A,R2
        MOVX    @DPTR,A
        INC     DPTR
        MOV     A,R3
        MOVX    @DPTR,A
        MOV     R2,#0x0
        MOV     R3,#0x0
        RET
        CFI EndBlock cfiCond109
        CFI EndBlock cfiCond110
        CFI EndBlock cfiPicker111

        RSEG BANKED_CODE:CODE:NOROOT(0)
?Subroutine3:
        CFI Block cfiCond112 Using cfiCommon0
        CFI NoFunction
        CFI Conditional ??CrossCallReturnLabel_0
        CFI R6 load(1, XDATA, add(CFA_XSP16, literal(-24)))
        CFI VB load(1, XDATA, add(CFA_XSP16, literal(-23)))
        CFI V0 load(1, XDATA, add(CFA_XSP16, literal(-22)))
        CFI V1 load(1, XDATA, add(CFA_XSP16, literal(-21)))
        CFI V2 load(1, XDATA, add(CFA_XSP16, literal(-20)))
        CFI V3 load(1, XDATA, add(CFA_XSP16, literal(-19)))
        CFI V4 load(1, XDATA, add(CFA_XSP16, literal(-18)))
        CFI V5 load(1, XDATA, add(CFA_XSP16, literal(-17)))
        CFI V6 load(1, XDATA, add(CFA_XSP16, literal(-16)))
        CFI V7 load(1, XDATA, add(CFA_XSP16, literal(-15)))
        CFI V8 load(1, XDATA, add(CFA_XSP16, literal(-14)))
        CFI V9 load(1, XDATA, add(CFA_XSP16, literal(-13)))
        CFI V10 load(1, XDATA, add(CFA_XSP16, literal(-12)))
        CFI V11 load(1, XDATA, add(CFA_XSP16, literal(-11)))
        CFI V12 load(1, XDATA, add(CFA_XSP16, literal(-10)))
        CFI V13 load(1, XDATA, add(CFA_XSP16, literal(-9)))
        CFI V14 load(1, XDATA, add(CFA_XSP16, literal(-8)))
        CFI V15 load(1, XDATA, add(CFA_XSP16, literal(-7)))
        CFI R7 load(1, XDATA, add(CFA_XSP16, literal(-6)))
        CFI ?RET_LOW load(1, XDATA, add(CFA_XSP16, literal(-5)))
        CFI ?RET_HIGH load(1, XDATA, add(CFA_XSP16, literal(-4)))
        CFI ?BRET_EXT load(1, XDATA, add(CFA_XSP16, literal(-3)))
        CFI DPL0 load(1, XDATA, add(CFA_XSP16, literal(-2)))
        CFI DPH0 load(1, XDATA, add(CFA_XSP16, literal(-1)))
        CFI CFA_SP SP+0
        CFI CFA_XSP16 add(XSP16, 26)
        CFI Block cfiCond113 Using cfiCommon0
        CFI (cfiCond113) NoFunction
        CFI (cfiCond113) Conditional ??CrossCallReturnLabel_1
        CFI (cfiCond113) R6 load(1, XDATA, add(CFA_XSP16, literal(-24)))
        CFI (cfiCond113) VB load(1, XDATA, add(CFA_XSP16, literal(-23)))
        CFI (cfiCond113) V0 load(1, XDATA, add(CFA_XSP16, literal(-22)))
        CFI (cfiCond113) V1 load(1, XDATA, add(CFA_XSP16, literal(-21)))
        CFI (cfiCond113) V2 load(1, XDATA, add(CFA_XSP16, literal(-20)))
        CFI (cfiCond113) V3 load(1, XDATA, add(CFA_XSP16, literal(-19)))
        CFI (cfiCond113) V4 load(1, XDATA, add(CFA_XSP16, literal(-18)))
        CFI (cfiCond113) V5 load(1, XDATA, add(CFA_XSP16, literal(-17)))
        CFI (cfiCond113) V6 load(1, XDATA, add(CFA_XSP16, literal(-16)))
        CFI (cfiCond113) V7 load(1, XDATA, add(CFA_XSP16, literal(-15)))
        CFI (cfiCond113) V8 load(1, XDATA, add(CFA_XSP16, literal(-14)))
        CFI (cfiCond113) V9 load(1, XDATA, add(CFA_XSP16, literal(-13)))
        CFI (cfiCond113) V10 load(1, XDATA, add(CFA_XSP16, literal(-12)))
        CFI (cfiCond113) V11 load(1, XDATA, add(CFA_XSP16, literal(-11)))
        CFI (cfiCond113) V12 load(1, XDATA, add(CFA_XSP16, literal(-10)))
        CFI (cfiCond113) V13 load(1, XDATA, add(CFA_XSP16, literal(-9)))
        CFI (cfiCond113) V14 load(1, XDATA, add(CFA_XSP16, literal(-8)))
        CFI (cfiCond113) V15 load(1, XDATA, add(CFA_XSP16, literal(-7)))
        CFI (cfiCond113) R7 load(1, XDATA, add(CFA_XSP16, literal(-6)))
        CFI (cfiCond113) ?RET_LOW load(1, XDATA, add(CFA_XSP16, literal(-5)))
        CFI (cfiCond113) ?RET_HIGH load(1, XDATA, add(CFA_XSP16, literal(-4)))
        CFI (cfiCond113) ?BRET_EXT load(1, XDATA, add(CFA_XSP16, literal(-3)))
        CFI (cfiCond113) DPL0 load(1, XDATA, add(CFA_XSP16, literal(-2)))
        CFI (cfiCond113) DPH0 load(1, XDATA, add(CFA_XSP16, literal(-1)))
        CFI (cfiCond113) CFA_SP SP+0
        CFI (cfiCond113) CFA_XSP16 add(XSP16, 26)
        CFI Block cfiPicker114 Using cfiCommon1
        CFI (cfiPicker114) NoFunction
        CFI (cfiPicker114) Picker
        MOV     A,#strTemp_gen & 0xff
        ADD     A,R4
        MOV     ?V0 + 0,A
        MOV     A,#(strTemp_gen >> 8) & 0xff
        ADDC    A,R5
        MOV     ?V0 + 1,A
        MOV     DPL,?V0 + 0
        MOV     DPH,A
        MOVX    A,@DPTR
        MOV     ?V0 + 4,A
        MOV     A,#strTemp_gen & 0xff
        ADD     A,R0
        MOV     ?V0 + 2,A
        MOV     A,#(strTemp_gen >> 8) & 0xff
        ADDC    A,R1
        MOV     ?V0 + 3,A
        MOV     DPL,?V0 + 2
        MOV     DPH,A
        MOVX    A,@DPTR
        MOV     DPL,?V0 + 0
        MOV     DPH,?V0 + 1
        MOVX    @DPTR,A
        MOV     DPL,?V0 + 2
        MOV     DPH,?V0 + 3
        MOV     A,?V0 + 4
        MOVX    @DPTR,A
        MOV     A,R4
        ADD     A,#0x1
        INC     R4
        MOV     A,R5
        ADDC    A,#0x0
        MOV     R5,A
        MOV     A,R0
        ADD     A,#-0x1
        DEC     R0
        MOV     A,R1
        RET
        CFI EndBlock cfiCond112
        CFI EndBlock cfiCond113
        CFI EndBlock cfiPicker114

        RSEG BANKED_CODE:CODE:NOROOT(0)
//  363 char ChDebugStr(const char *format,char* str)
ChDebugStr:
        CFI Block cfiBlock115 Using cfiCommon0
        CFI Function ChDebugStr
        CODE
//  364 {
        FUNCALL ChDebugStr, strlen
        LOCFRAME ISTACK, 0, STACK
        LOCFRAME PSTACK, 0, STACK
        LOCFRAME XSTACK, 18, STACK
        LOCFRAME IOVERLAY, 0, STATIC
        LOCFRAME DOVERLAY, 0, STATIC
        ARGFRAME ISTACK, 0, STACK
        ARGFRAME PSTACK, 0, STACK
        ARGFRAME XSTACK, 18, STACK
        ARGFRAME IOVERLAY, 0, STATIC
        ARGFRAME DOVERLAY, 0, STATIC
        FUNCALL ChDebugStr, strcpy
        LOCFRAME ISTACK, 0, STACK
        LOCFRAME PSTACK, 0, STACK
        LOCFRAME XSTACK, 18, STACK
        LOCFRAME IOVERLAY, 0, STATIC
        LOCFRAME DOVERLAY, 0, STATIC
        ARGFRAME ISTACK, 0, STACK
        ARGFRAME PSTACK, 0, STACK
        ARGFRAME XSTACK, 18, STACK
        ARGFRAME IOVERLAY, 0, STATIC
        ARGFRAME DOVERLAY, 0, STATIC
        FUNCALL ChDebugStr, strlen
        LOCFRAME ISTACK, 0, STACK
        LOCFRAME PSTACK, 0, STACK
        LOCFRAME XSTACK, 18, STACK
        LOCFRAME IOVERLAY, 0, STATIC
        LOCFRAME DOVERLAY, 0, STATIC
        ARGFRAME ISTACK, 0, STACK
        ARGFRAME PSTACK, 0, STACK
        ARGFRAME XSTACK, 18, STACK
        ARGFRAME IOVERLAY, 0, STATIC
        ARGFRAME DOVERLAY, 0, STATIC
        FUNCALL ChDebugStr, UartSend
        LOCFRAME ISTACK, 0, STACK
        LOCFRAME PSTACK, 0, STACK
        LOCFRAME XSTACK, 18, STACK
        LOCFRAME IOVERLAY, 0, STATIC
        LOCFRAME DOVERLAY, 0, STATIC
        ARGFRAME ISTACK, 0, STACK
        ARGFRAME PSTACK, 0, STACK
        ARGFRAME XSTACK, 18, STACK
        ARGFRAME IOVERLAY, 0, STATIC
        ARGFRAME DOVERLAY, 0, STATIC
        MOV     A,#-0x12
        LCALL   ?BANKED_ENTER_XDATA
        CFI DPH0 load(1, XDATA, add(CFA_XSP16, literal(-1)))
        CFI DPL0 load(1, XDATA, add(CFA_XSP16, literal(-2)))
        CFI ?BRET_EXT load(1, XDATA, add(CFA_XSP16, literal(-3)))
        CFI ?RET_HIGH load(1, XDATA, add(CFA_XSP16, literal(-4)))
        CFI ?RET_LOW load(1, XDATA, add(CFA_XSP16, literal(-5)))
        CFI R7 load(1, XDATA, add(CFA_XSP16, literal(-6)))
        CFI V9 load(1, XDATA, add(CFA_XSP16, literal(-7)))
        CFI V8 load(1, XDATA, add(CFA_XSP16, literal(-8)))
        CFI V7 load(1, XDATA, add(CFA_XSP16, literal(-9)))
        CFI V6 load(1, XDATA, add(CFA_XSP16, literal(-10)))
        CFI V5 load(1, XDATA, add(CFA_XSP16, literal(-11)))
        CFI V4 load(1, XDATA, add(CFA_XSP16, literal(-12)))
        CFI V3 load(1, XDATA, add(CFA_XSP16, literal(-13)))
        CFI V2 load(1, XDATA, add(CFA_XSP16, literal(-14)))
        CFI V1 load(1, XDATA, add(CFA_XSP16, literal(-15)))
        CFI V0 load(1, XDATA, add(CFA_XSP16, literal(-16)))
        CFI VB load(1, XDATA, add(CFA_XSP16, literal(-17)))
        CFI R6 load(1, XDATA, add(CFA_XSP16, literal(-18)))
        CFI CFA_SP SP+0
        CFI CFA_XSP16 add(XSP16, 18)
        ; Saved register size: 18
        ; Auto size: 0
        MOV     A,R2
        MOV     R6,A
        MOV     A,R3
        MOV     R7,A
        MOV     ?V0 + 4,R4
        MOV     ?V0 + 5,R5
//  365 	int i;
//  366 	int indexDest = 0;
        MOV     ?V0 + 0,#0x0
        MOV     ?V0 + 1,#0x0
//  367 	char err=0;
//  368 	int len = strlen(format);
        ; Setup parameters for call to function strlen
        LCALL   ??strlen?relay
        MOV     ?V0 + 6,R2
        MOV     ?V0 + 7,R3
//  369 	//strcpy(strTemp_gen,format);
//  370 	for(i=0;i<len;i++)
        MOV     ?V0 + 2,#0x0
        MOV     ?V0 + 3,#0x0
        SJMP    ??CrossCallReturnLabel_25
//  371 		if(format[i] == '%')
//  372 		{
//  373 			if(format[i+1] == 's')// %s
//  374 			{
//  375 				strTemp_gen[indexDest] = '\0';
//  376 				strcpy(&strTemp_gen[indexDest],str);
//  377 				indexDest += strlen(str);
//  378 				i+=2-1;
//  379 			}
//  380 			else
//  381 				strTemp_gen[indexDest++] = format[i];
??ChDebugStr_0:
        LCALL   ?Subroutine20 & 0xFFFF
??CrossCallReturnLabel_43:
        PUSH    A
        CFI CFA_SP SP+-1
        LCALL   ?Subroutine21 & 0xFFFF
??CrossCallReturnLabel_45:
        POP     A
        CFI CFA_SP SP+0
        MOVX    @DPTR,A
        MOV     A,?V0 + 0
        ADD     A,#0x1
        MOV     ?V0 + 0,A
        MOV     A,?V0 + 1
        ADDC    A,#0x0
        MOV     ?V0 + 1,A
??ChDebugStr_1:
        LCALL   ?Subroutine12 & 0xFFFF
??CrossCallReturnLabel_25:
        CLR     C
        MOV     A,?V0 + 2
        SUBB    A,?V0 + 6
        MOV     A,?V0 + 3
        SUBB    A,?V0 + 7
        MOV     C,0xD0 /* PSW */.2
        XRL     A,PSW
        RLC     A
        JNC     ??ChDebugStr_2
        LCALL   ?Subroutine20 & 0xFFFF
??CrossCallReturnLabel_44:
        XRL     A,#0x25
        JNZ     ??ChDebugStr_0
        INC     DPTR
        MOVX    A,@DPTR
        XRL     A,#0x73
        JNZ     ??ChDebugStr_0
        LCALL   ?Subroutine21 & 0xFFFF
??CrossCallReturnLabel_46:
        CLR     A
        MOVX    @DPTR,A
        ; Setup parameters for call to function strcpy
        MOV     R4,?V0 + 4
        MOV     R5,?V0 + 5
        MOV     R2,DPL
        MOV     R3,DPH
        LCALL   ??strcpy?relay
        ; Setup parameters for call to function strlen
        MOV     R2,?V0 + 4
        MOV     R3,?V0 + 5
        LCALL   ??strlen?relay
        MOV     ?V0 + 8,R2
        MOV     ?V0 + 9,R3
        MOV     A,?V0 + 0
        ADD     A,?V0 + 8
        MOV     ?V0 + 0,A
        MOV     A,?V0 + 1
        ADDC    A,?V0 + 9
        MOV     ?V0 + 1,A
        LCALL   ?Subroutine12 & 0xFFFF
//  382 		}
??CrossCallReturnLabel_26:
        SJMP    ??ChDebugStr_1
//  383 		else
//  384 			strTemp_gen[indexDest++] = format[i];
//  385 	//strTemp_gen[indexDest++] = 0;
//  386 	UartSend(strTemp_gen,indexDest);
??ChDebugStr_2:
        ; Setup parameters for call to function UartSend
        MOV     R4,?V0 + 0
        MOV     R5,?V0 + 1
        LCALL   ?Subroutine18 & 0xFFFF
//  387 	return err;
??CrossCallReturnLabel_61:
        MOV     R7,#0xa
        LJMP    ?BANKED_LEAVE_XDATA
        CFI EndBlock cfiBlock115
//  388 }

        RSEG BANKED_CODE:CODE:NOROOT(0)
?Subroutine21:
        CFI Block cfiCond116 Using cfiCommon0
        CFI NoFunction
        CFI Conditional ??CrossCallReturnLabel_45
        CFI R6 load(1, XDATA, add(CFA_XSP16, literal(-18)))
        CFI VB load(1, XDATA, add(CFA_XSP16, literal(-17)))
        CFI V0 load(1, XDATA, add(CFA_XSP16, literal(-16)))
        CFI V1 load(1, XDATA, add(CFA_XSP16, literal(-15)))
        CFI V2 load(1, XDATA, add(CFA_XSP16, literal(-14)))
        CFI V3 load(1, XDATA, add(CFA_XSP16, literal(-13)))
        CFI V4 load(1, XDATA, add(CFA_XSP16, literal(-12)))
        CFI V5 load(1, XDATA, add(CFA_XSP16, literal(-11)))
        CFI V6 load(1, XDATA, add(CFA_XSP16, literal(-10)))
        CFI V7 load(1, XDATA, add(CFA_XSP16, literal(-9)))
        CFI V8 load(1, XDATA, add(CFA_XSP16, literal(-8)))
        CFI V9 load(1, XDATA, add(CFA_XSP16, literal(-7)))
        CFI R7 load(1, XDATA, add(CFA_XSP16, literal(-6)))
        CFI ?RET_LOW load(1, XDATA, add(CFA_XSP16, literal(-5)))
        CFI ?RET_HIGH load(1, XDATA, add(CFA_XSP16, literal(-4)))
        CFI ?BRET_EXT load(1, XDATA, add(CFA_XSP16, literal(-3)))
        CFI DPL0 load(1, XDATA, add(CFA_XSP16, literal(-2)))
        CFI DPH0 load(1, XDATA, add(CFA_XSP16, literal(-1)))
        CFI CFA_SP SP+-1
        CFI CFA_XSP16 add(XSP16, 18)
        CFI Block cfiCond117 Using cfiCommon0
        CFI (cfiCond117) NoFunction
        CFI (cfiCond117) Conditional ??CrossCallReturnLabel_46
        CFI (cfiCond117) R6 load(1, XDATA, add(CFA_XSP16, literal(-18)))
        CFI (cfiCond117) VB load(1, XDATA, add(CFA_XSP16, literal(-17)))
        CFI (cfiCond117) V0 load(1, XDATA, add(CFA_XSP16, literal(-16)))
        CFI (cfiCond117) V1 load(1, XDATA, add(CFA_XSP16, literal(-15)))
        CFI (cfiCond117) V2 load(1, XDATA, add(CFA_XSP16, literal(-14)))
        CFI (cfiCond117) V3 load(1, XDATA, add(CFA_XSP16, literal(-13)))
        CFI (cfiCond117) V4 load(1, XDATA, add(CFA_XSP16, literal(-12)))
        CFI (cfiCond117) V5 load(1, XDATA, add(CFA_XSP16, literal(-11)))
        CFI (cfiCond117) V6 load(1, XDATA, add(CFA_XSP16, literal(-10)))
        CFI (cfiCond117) V7 load(1, XDATA, add(CFA_XSP16, literal(-9)))
        CFI (cfiCond117) V8 load(1, XDATA, add(CFA_XSP16, literal(-8)))
        CFI (cfiCond117) V9 load(1, XDATA, add(CFA_XSP16, literal(-7)))
        CFI (cfiCond117) R7 load(1, XDATA, add(CFA_XSP16, literal(-6)))
        CFI (cfiCond117) ?RET_LOW load(1, XDATA, add(CFA_XSP16, literal(-5)))
        CFI (cfiCond117) ?RET_HIGH load(1, XDATA, add(CFA_XSP16, literal(-4)))
        CFI (cfiCond117) ?BRET_EXT load(1, XDATA, add(CFA_XSP16, literal(-3)))
        CFI (cfiCond117) DPL0 load(1, XDATA, add(CFA_XSP16, literal(-2)))
        CFI (cfiCond117) DPH0 load(1, XDATA, add(CFA_XSP16, literal(-1)))
        CFI (cfiCond117) CFA_SP SP+0
        CFI (cfiCond117) CFA_XSP16 add(XSP16, 18)
        CFI Block cfiPicker118 Using cfiCommon1
        CFI (cfiPicker118) NoFunction
        CFI (cfiPicker118) Picker
        MOV     A,#strTemp_gen & 0xff
        ADD     A,?V0 + 0
        MOV     DPL,A
        MOV     A,#(strTemp_gen >> 8) & 0xff
        ADDC    A,?V0 + 1
        MOV     DPH,A
        RET
        CFI EndBlock cfiCond116
        CFI EndBlock cfiCond117
        CFI EndBlock cfiPicker118

        RSEG BANKED_CODE:CODE:NOROOT(0)
?Subroutine20:
        CFI Block cfiCond119 Using cfiCommon0
        CFI NoFunction
        CFI Conditional ??CrossCallReturnLabel_43
        CFI R6 load(1, XDATA, add(CFA_XSP16, literal(-18)))
        CFI VB load(1, XDATA, add(CFA_XSP16, literal(-17)))
        CFI V0 load(1, XDATA, add(CFA_XSP16, literal(-16)))
        CFI V1 load(1, XDATA, add(CFA_XSP16, literal(-15)))
        CFI V2 load(1, XDATA, add(CFA_XSP16, literal(-14)))
        CFI V3 load(1, XDATA, add(CFA_XSP16, literal(-13)))
        CFI V4 load(1, XDATA, add(CFA_XSP16, literal(-12)))
        CFI V5 load(1, XDATA, add(CFA_XSP16, literal(-11)))
        CFI V6 load(1, XDATA, add(CFA_XSP16, literal(-10)))
        CFI V7 load(1, XDATA, add(CFA_XSP16, literal(-9)))
        CFI V8 load(1, XDATA, add(CFA_XSP16, literal(-8)))
        CFI V9 load(1, XDATA, add(CFA_XSP16, literal(-7)))
        CFI R7 load(1, XDATA, add(CFA_XSP16, literal(-6)))
        CFI ?RET_LOW load(1, XDATA, add(CFA_XSP16, literal(-5)))
        CFI ?RET_HIGH load(1, XDATA, add(CFA_XSP16, literal(-4)))
        CFI ?BRET_EXT load(1, XDATA, add(CFA_XSP16, literal(-3)))
        CFI DPL0 load(1, XDATA, add(CFA_XSP16, literal(-2)))
        CFI DPH0 load(1, XDATA, add(CFA_XSP16, literal(-1)))
        CFI CFA_SP SP+0
        CFI CFA_XSP16 add(XSP16, 18)
        CFI Block cfiCond120 Using cfiCommon0
        CFI (cfiCond120) NoFunction
        CFI (cfiCond120) Conditional ??CrossCallReturnLabel_44
        CFI (cfiCond120) R6 load(1, XDATA, add(CFA_XSP16, literal(-18)))
        CFI (cfiCond120) VB load(1, XDATA, add(CFA_XSP16, literal(-17)))
        CFI (cfiCond120) V0 load(1, XDATA, add(CFA_XSP16, literal(-16)))
        CFI (cfiCond120) V1 load(1, XDATA, add(CFA_XSP16, literal(-15)))
        CFI (cfiCond120) V2 load(1, XDATA, add(CFA_XSP16, literal(-14)))
        CFI (cfiCond120) V3 load(1, XDATA, add(CFA_XSP16, literal(-13)))
        CFI (cfiCond120) V4 load(1, XDATA, add(CFA_XSP16, literal(-12)))
        CFI (cfiCond120) V5 load(1, XDATA, add(CFA_XSP16, literal(-11)))
        CFI (cfiCond120) V6 load(1, XDATA, add(CFA_XSP16, literal(-10)))
        CFI (cfiCond120) V7 load(1, XDATA, add(CFA_XSP16, literal(-9)))
        CFI (cfiCond120) V8 load(1, XDATA, add(CFA_XSP16, literal(-8)))
        CFI (cfiCond120) V9 load(1, XDATA, add(CFA_XSP16, literal(-7)))
        CFI (cfiCond120) R7 load(1, XDATA, add(CFA_XSP16, literal(-6)))
        CFI (cfiCond120) ?RET_LOW load(1, XDATA, add(CFA_XSP16, literal(-5)))
        CFI (cfiCond120) ?RET_HIGH load(1, XDATA, add(CFA_XSP16, literal(-4)))
        CFI (cfiCond120) ?BRET_EXT load(1, XDATA, add(CFA_XSP16, literal(-3)))
        CFI (cfiCond120) DPL0 load(1, XDATA, add(CFA_XSP16, literal(-2)))
        CFI (cfiCond120) DPH0 load(1, XDATA, add(CFA_XSP16, literal(-1)))
        CFI (cfiCond120) CFA_SP SP+0
        CFI (cfiCond120) CFA_XSP16 add(XSP16, 18)
        CFI Block cfiPicker121 Using cfiCommon1
        CFI (cfiPicker121) NoFunction
        CFI (cfiPicker121) Picker
        MOV     A,R6
        ADD     A,?V0 + 2
        MOV     DPL,A
        MOV     A,R7
        ADDC    A,?V0 + 3
        MOV     DPH,A
        MOVX    A,@DPTR
        RET
        CFI EndBlock cfiCond119
        CFI EndBlock cfiCond120
        CFI EndBlock cfiPicker121

        RSEG BANKED_CODE:CODE:NOROOT(0)
?Subroutine12:
        CFI Block cfiCond122 Using cfiCommon0
        CFI NoFunction
        CFI Conditional ??CrossCallReturnLabel_25
        CFI R6 load(1, XDATA, add(CFA_XSP16, literal(-18)))
        CFI VB load(1, XDATA, add(CFA_XSP16, literal(-17)))
        CFI V0 load(1, XDATA, add(CFA_XSP16, literal(-16)))
        CFI V1 load(1, XDATA, add(CFA_XSP16, literal(-15)))
        CFI V2 load(1, XDATA, add(CFA_XSP16, literal(-14)))
        CFI V3 load(1, XDATA, add(CFA_XSP16, literal(-13)))
        CFI V4 load(1, XDATA, add(CFA_XSP16, literal(-12)))
        CFI V5 load(1, XDATA, add(CFA_XSP16, literal(-11)))
        CFI V6 load(1, XDATA, add(CFA_XSP16, literal(-10)))
        CFI V7 load(1, XDATA, add(CFA_XSP16, literal(-9)))
        CFI V8 load(1, XDATA, add(CFA_XSP16, literal(-8)))
        CFI V9 load(1, XDATA, add(CFA_XSP16, literal(-7)))
        CFI R7 load(1, XDATA, add(CFA_XSP16, literal(-6)))
        CFI ?RET_LOW load(1, XDATA, add(CFA_XSP16, literal(-5)))
        CFI ?RET_HIGH load(1, XDATA, add(CFA_XSP16, literal(-4)))
        CFI ?BRET_EXT load(1, XDATA, add(CFA_XSP16, literal(-3)))
        CFI DPL0 load(1, XDATA, add(CFA_XSP16, literal(-2)))
        CFI DPH0 load(1, XDATA, add(CFA_XSP16, literal(-1)))
        CFI CFA_SP SP+0
        CFI CFA_XSP16 add(XSP16, 18)
        CFI Block cfiCond123 Using cfiCommon0
        CFI (cfiCond123) NoFunction
        CFI (cfiCond123) Conditional ??CrossCallReturnLabel_26
        CFI (cfiCond123) R6 load(1, XDATA, add(CFA_XSP16, literal(-18)))
        CFI (cfiCond123) VB load(1, XDATA, add(CFA_XSP16, literal(-17)))
        CFI (cfiCond123) V0 load(1, XDATA, add(CFA_XSP16, literal(-16)))
        CFI (cfiCond123) V1 load(1, XDATA, add(CFA_XSP16, literal(-15)))
        CFI (cfiCond123) V2 load(1, XDATA, add(CFA_XSP16, literal(-14)))
        CFI (cfiCond123) V3 load(1, XDATA, add(CFA_XSP16, literal(-13)))
        CFI (cfiCond123) V4 load(1, XDATA, add(CFA_XSP16, literal(-12)))
        CFI (cfiCond123) V5 load(1, XDATA, add(CFA_XSP16, literal(-11)))
        CFI (cfiCond123) V6 load(1, XDATA, add(CFA_XSP16, literal(-10)))
        CFI (cfiCond123) V7 load(1, XDATA, add(CFA_XSP16, literal(-9)))
        CFI (cfiCond123) V8 load(1, XDATA, add(CFA_XSP16, literal(-8)))
        CFI (cfiCond123) V9 load(1, XDATA, add(CFA_XSP16, literal(-7)))
        CFI (cfiCond123) R7 load(1, XDATA, add(CFA_XSP16, literal(-6)))
        CFI (cfiCond123) ?RET_LOW load(1, XDATA, add(CFA_XSP16, literal(-5)))
        CFI (cfiCond123) ?RET_HIGH load(1, XDATA, add(CFA_XSP16, literal(-4)))
        CFI (cfiCond123) ?BRET_EXT load(1, XDATA, add(CFA_XSP16, literal(-3)))
        CFI (cfiCond123) DPL0 load(1, XDATA, add(CFA_XSP16, literal(-2)))
        CFI (cfiCond123) DPH0 load(1, XDATA, add(CFA_XSP16, literal(-1)))
        CFI (cfiCond123) CFA_SP SP+0
        CFI (cfiCond123) CFA_XSP16 add(XSP16, 18)
        CFI Block cfiPicker124 Using cfiCommon1
        CFI (cfiPicker124) NoFunction
        CFI (cfiPicker124) Picker
        MOV     A,?V0 + 2
        ADD     A,#0x1
        MOV     ?V0 + 2,A
        MOV     A,?V0 + 3
        ADDC    A,#0x0
        MOV     ?V0 + 3,A
        RET
        CFI EndBlock cfiCond122
        CFI EndBlock cfiCond123
        CFI EndBlock cfiPicker124

        RSEG BANKED_CODE:CODE:NOROOT(0)
//  389 char ChDebugTag(const char *format)
ChDebugTag:
        CFI Block cfiBlock125 Using cfiCommon0
        CFI Function ChDebugTag
        CODE
//  390 {
        FUNCALL ChDebugTag, strlen
        LOCFRAME ISTACK, 0, STACK
        LOCFRAME PSTACK, 0, STACK
        LOCFRAME XSTACK, 9, STACK
        LOCFRAME IOVERLAY, 0, STATIC
        LOCFRAME DOVERLAY, 0, STATIC
        ARGFRAME ISTACK, 0, STACK
        ARGFRAME PSTACK, 0, STACK
        ARGFRAME XSTACK, 9, STACK
        ARGFRAME IOVERLAY, 0, STATIC
        ARGFRAME DOVERLAY, 0, STATIC
        FUNCALL ChDebugTag, UartSend
        LOCFRAME ISTACK, 0, STACK
        LOCFRAME PSTACK, 0, STACK
        LOCFRAME XSTACK, 9, STACK
        LOCFRAME IOVERLAY, 0, STATIC
        LOCFRAME DOVERLAY, 0, STATIC
        ARGFRAME ISTACK, 0, STACK
        ARGFRAME PSTACK, 0, STACK
        ARGFRAME XSTACK, 9, STACK
        ARGFRAME IOVERLAY, 0, STATIC
        ARGFRAME DOVERLAY, 0, STATIC
        MOV     A,#-0x9
        LCALL   ?BANKED_ENTER_XDATA
        CFI DPH0 load(1, XDATA, add(CFA_XSP16, literal(-1)))
        CFI DPL0 load(1, XDATA, add(CFA_XSP16, literal(-2)))
        CFI ?BRET_EXT load(1, XDATA, add(CFA_XSP16, literal(-3)))
        CFI ?RET_HIGH load(1, XDATA, add(CFA_XSP16, literal(-4)))
        CFI ?RET_LOW load(1, XDATA, add(CFA_XSP16, literal(-5)))
        CFI R7 load(1, XDATA, add(CFA_XSP16, literal(-6)))
        CFI V0 load(1, XDATA, add(CFA_XSP16, literal(-7)))
        CFI VB load(1, XDATA, add(CFA_XSP16, literal(-8)))
        CFI R6 load(1, XDATA, add(CFA_XSP16, literal(-9)))
        CFI CFA_SP SP+0
        CFI CFA_XSP16 add(XSP16, 9)
        ; Saved register size: 9
        ; Auto size: 0
        MOV     A,R2
        MOV     R6,A
        MOV     A,R3
        MOV     R7,A
//  391 	char err=0;
//  392 	int len = strlen(format);
//  393 	//strcpy(strTemp_gen,format);
//  394 	//strTemp_gen[indexDest++] = 0;
//  395 	UartSend((unsigned char*)format,len);
        ; Setup parameters for call to function UartSend
        ; Setup parameters for call to function strlen
        LCALL   ??strlen?relay
        MOV     A,R2
        MOV     R4,A
        MOV     A,R3
        MOV     R5,A
        MOV     A,R6
        MOV     R2,A
        MOV     A,R7
        MOV     R3,A
        LCALL   ??Subroutine27_0 & 0xFFFF
//  396 	return err;
??CrossCallReturnLabel_62:
        LJMP    ?Subroutine1 & 0xFFFF
        CFI EndBlock cfiBlock125
//  397 }

        RSEG XDATA_ROM_C:CONST:REORDER:NOROOT(0)
        DATA32
__Constant_0:
        DD 0

        RSEG XDATA_ROM_C:CONST:REORDER:NOROOT(0)
        DATA32
__Constant_a:
        DD 10

        RSEG BANK_RELAYS:CODE:REORDER:NOROOT(0)
??UartOpen?relay:
        LCALL   ?BDISPATCH
        DATA
        DC24    UartOpen

        RSEG BANK_RELAYS:CODE:REORDER:NOROOT(0)
??UartSend?relay:
        LCALL   ?BDISPATCH
        DATA
        DC24    UartSend

        RSEG BANK_RELAYS:CODE:REORDER:NOROOT(0)
??UartSend2?relay:
        LCALL   ?BDISPATCH
        DATA
        DC24    UartSend2

        RSEG BANK_RELAYS:CODE:REORDER:NOROOT(0)
??ChDebugHex?relay:
        LCALL   ?BDISPATCH
        DATA
        DC24    ChDebugHex

        RSEG BANK_RELAYS:CODE:REORDER:NOROOT(0)
??ChDebugSigned?relay:
        LCALL   ?BDISPATCH
        DATA
        DC24    ChDebugSigned

        RSEG BANK_RELAYS:CODE:REORDER:NOROOT(0)
??ChDebugUnsigned?relay:
        LCALL   ?BDISPATCH
        DATA
        DC24    ChDebugUnsigned

        RSEG BANK_RELAYS:CODE:REORDER:NOROOT(0)
??ChDebugStr?relay:
        LCALL   ?BDISPATCH
        DATA
        DC24    ChDebugStr

        RSEG BANK_RELAYS:CODE:REORDER:NOROOT(0)
??ChDebugTag?relay:
        LCALL   ?BDISPATCH
        DATA
        DC24    ChDebugTag

        END
//  398 
//  399 #endif
// 
// 1 357 bytes in segment BANKED_CODE
//    48 bytes in segment BANK_RELAYS
//    11 bytes in segment SFR_AN
//     8 bytes in segment XDATA_ROM_C
//    70 bytes in segment XDATA_Z
// 
// 1 405 bytes of CODE  memory
//     0 bytes of CONST memory (+  8 bytes shared)
//     0 bytes of DATA  memory (+ 11 bytes shared)
//    70 bytes of XDATA memory
//
//Errors: none
//Warnings: 13
