###############################################################################
#                                                                             #
# IAR C/C++ Compiler V7.51A/W32 for 8051                08/Apr/2013  11:22:34 #
# Copyright 2004-2009 IAR Systems AB.                                         #
#                                                                             #
#    Core               =  plain                                              #
#    Code model         =  banked                                             #
#    Data model         =  large                                              #
#    Calling convention =  xdata reentrant                                    #
#    Constant location  =  data_rom                                           #
#    Dptr setup         =  1,16                                               #
#    Source file        =  C:\Texas Instruments\ZStack-CC2530-2.2.2-1.3.0\Com #
#                          ponents\hal\target\CC2530EB\hal_key.c              #
#    Command line       =  -f "C:\Texas Instruments\ZStack-CC2530-2.2.2-1.3.0 #
#                          \Projects\zstack\Samples\WSN_sensors\CC2530DB\..\. #
#                          .\..\Tools\CC2530DB\f8wRouter.cfg" (-DCPU32MHZ     #
#                          -DROOT=__near_func -DMAC_CFG_APP_PENDING_QUEUE=TRU #
#                          E -DRTR_NWK -DBLINK_LEDS) -f "C:\Texas             #
#                          Instruments\ZStack-CC2530-2.2.2-1.3.0\Projects\zst #
#                          ack\Samples\WSN_sensors\CC2530DB\..\..\..\Tools\CC #
#                          2530DB\f8wConfig.cfg" (-DSECURE=0                  #
#                          -DZG_SECURE_DYNAMIC=0 -DREFLECTOR                  #
#                          -DDEFAULT_CHANLIST=0x00000800                      #
#                          -DZDAPP_CONFIG_PAN_ID=0xFFFF                       #
#                          -DNWK_START_DELAY=100 -DEXTENDED_JOINING_RANDOM_MA #
#                          SK=0x007F -DBEACON_REQUEST_DELAY=100               #
#                          -DBEACON_REQ_DELAY_MASK=0x00FF                     #
#                          -DROUTE_EXPIRY_TIME=30 -DAPSC_ACK_WAIT_DURATION_PO #
#                          LLED=3000 -DNWK_INDIRECT_MSG_TIMEOUT=7             #
#                          -DMAX_RREQ_ENTRIES=8 -DAPSC_MAX_FRAME_RETRIES=3    #
#                          -DNWK_MAX_DATA_RETRIES=2                           #
#                          -DMAX_POLL_FAILURE_RETRIES=2 -DMAX_BCAST=9         #
#                          -DAPS_MAX_GROUPS=16 -DMAX_RTG_ENTRIES=40           #
#                          -DNWK_MAX_BINDING_ENTRIES=4                        #
#                          -DMAX_BINDING_CLUSTER_IDS=4 "-DDEFAULT_KEY={0x01,  #
#                          0x03, 0x05, 0x07, 0x09, 0x0B, 0x0D, 0x0F, 0x00,    #
#                          0x02, 0x04, 0x06, 0x08, 0x0A, 0x0C, 0x0D}"         #
#                          -DMAC_MAX_FRAME_SIZE=116 "-DCONST=const __code"    #
#                          -DGENERIC=__generic -DRFD_RCVC_ALWAYS_ON=FALSE     #
#                          -DPOLL_RATE=1000 -DQUEUED_POLL_RATE=100            #
#                          -DRESPONSE_POLL_RATE=100) -DREJOIN_POLL_RATE=440   #
#                          "C:\Texas Instruments\ZStack-CC2530-2.2.2-1.3.0\Co #
#                          mponents\hal\target\CC2530EB\hal_key.c" -D         #
#                          ZTOOL_P1 -D MT_TASK -D MT_SYS_FUNC -D MT_ZDO_FUNC  #
#                          -D LCD_SUPPORTED=DEBUG -lC "C:\Texas               #
#                          Instruments\ZStack-CC2530-2.2.2-1.3.0\Projects\zst #
#                          ack\Samples\WSN_sensors\CC2530DB\RouterEB\List\"   #
#                          -lA "C:\Texas Instruments\ZStack-CC2530-2.2.2-1.3. #
#                          0\Projects\zstack\Samples\WSN_sensors\CC2530DB\Rou #
#                          terEB\List\" --diag_suppress Pe001,Pa010 -o        #
#                          "C:\Texas Instruments\ZStack-CC2530-2.2.2-1.3.0\Pr #
#                          ojects\zstack\Samples\WSN_sensors\CC2530DB\RouterE #
#                          B\Obj\" -e --require_prototypes --no_unroll        #
#                          --no_inline --no_tbaa --debug --core=plain         #
#                          --dptr=16,1 --data_model=large                     #
#                          --code_model=banked --calling_convention=xdata_ree #
#                          ntrant --place_constants=data_rom                  #
#                          --nr_virtual_regs 8 -I "C:\Texas                   #
#                          Instruments\ZStack-CC2530-2.2.2-1.3.0\Projects\zst #
#                          ack\Samples\WSN_sensors\CC2530DB\" -I "C:\Texas    #
#                          Instruments\ZStack-CC2530-2.2.2-1.3.0\Projects\zst #
#                          ack\Samples\WSN_sensors\CC2530DB\..\SOURCE\" -I    #
#                          "C:\Texas Instruments\ZStack-CC2530-2.2.2-1.3.0\Pr #
#                          ojects\zstack\Samples\WSN_sensors\CC2530DB\..\..\. #
#                          .\ZMAIN\TI2530DB\" -I "C:\Texas                    #
#                          Instruments\ZStack-CC2530-2.2.2-1.3.0\Projects\zst #
#                          ack\Samples\WSN_sensors\CC2530DB\..\..\..\..\..\CO #
#                          MPONENTS\MT\" -I "C:\Texas                         #
#                          Instruments\ZStack-CC2530-2.2.2-1.3.0\Projects\zst #
#                          ack\Samples\WSN_sensors\CC2530DB\..\..\..\..\..\CO #
#                          MPONENTS\HAL\INCLUDE\" -I "C:\Texas                #
#                          Instruments\ZStack-CC2530-2.2.2-1.3.0\Projects\zst #
#                          ack\Samples\WSN_sensors\CC2530DB\..\..\..\..\..\CO #
#                          MPONENTS\HAL\TARGET\CC2530EB\" -I "C:\Texas        #
#                          Instruments\ZStack-CC2530-2.2.2-1.3.0\Projects\zst #
#                          ack\Samples\WSN_sensors\CC2530DB\..\..\..\..\..\CO #
#                          MPONENTS\OSAL\MCU\CCSOC\" -I "C:\Texas             #
#                          Instruments\ZStack-CC2530-2.2.2-1.3.0\Projects\zst #
#                          ack\Samples\WSN_sensors\CC2530DB\..\..\..\..\..\CO #
#                          MPONENTS\OSAL\INCLUDE\" -I "C:\Texas               #
#                          Instruments\ZStack-CC2530-2.2.2-1.3.0\Projects\zst #
#                          ack\Samples\WSN_sensors\CC2530DB\..\..\..\..\..\CO #
#                          MPONENTS\STACK\AF\" -I "C:\Texas                   #
#                          Instruments\ZStack-CC2530-2.2.2-1.3.0\Projects\zst #
#                          ack\Samples\WSN_sensors\CC2530DB\..\..\..\..\..\CO #
#                          MPONENTS\STACK\NWK\" -I "C:\Texas                  #
#                          Instruments\ZStack-CC2530-2.2.2-1.3.0\Projects\zst #
#                          ack\Samples\WSN_sensors\CC2530DB\..\..\..\..\..\CO #
#                          MPONENTS\STACK\SEC\" -I "C:\Texas                  #
#                          Instruments\ZStack-CC2530-2.2.2-1.3.0\Projects\zst #
#                          ack\Samples\WSN_sensors\CC2530DB\..\..\..\..\..\CO #
#                          MPONENTS\STACK\SAPI\" -I "C:\Texas                 #
#                          Instruments\ZStack-CC2530-2.2.2-1.3.0\Projects\zst #
#                          ack\Samples\WSN_sensors\CC2530DB\..\..\..\..\..\CO #
#                          MPONENTS\STACK\SYS\" -I "C:\Texas                  #
#                          Instruments\ZStack-CC2530-2.2.2-1.3.0\Projects\zst #
#                          ack\Samples\WSN_sensors\CC2530DB\..\..\..\..\..\CO #
#                          MPONENTS\STACK\ZDO\" -I "C:\Texas                  #
#                          Instruments\ZStack-CC2530-2.2.2-1.3.0\Projects\zst #
#                          ack\Samples\WSN_sensors\CC2530DB\..\..\..\..\..\CO #
#                          MPONENTS\ZMAC\F8W\" -I "C:\Texas                   #
#                          Instruments\ZStack-CC2530-2.2.2-1.3.0\Projects\zst #
#                          ack\Samples\WSN_sensors\CC2530DB\..\..\..\..\..\CO #
#                          MPONENTS\ZMAC\" -I "C:\Texas                       #
#                          Instruments\ZStack-CC2530-2.2.2-1.3.0\Projects\zst #
#                          ack\Samples\WSN_sensors\CC2530DB\..\..\..\..\..\CO #
#                          MPONENTS\SERVICES\SADDR\" -I "C:\Texas             #
#                          Instruments\ZStack-CC2530-2.2.2-1.3.0\Projects\zst #
#                          ack\Samples\WSN_sensors\CC2530DB\..\..\..\..\..\CO #
#                          MPONENTS\SERVICES\SDATA\" -I "C:\Texas             #
#                          Instruments\ZStack-CC2530-2.2.2-1.3.0\Projects\zst #
#                          ack\Samples\WSN_sensors\CC2530DB\..\..\..\..\..\CO #
#                          MPONENTS\MAC\INCLUDE\" -I "C:\Texas                #
#                          Instruments\ZStack-CC2530-2.2.2-1.3.0\Projects\zst #
#                          ack\Samples\WSN_sensors\CC2530DB\..\..\..\..\..\CO #
#                          MPONENTS\MAC\HIGH_LEVEL\" -I "C:\Texas             #
#                          Instruments\ZStack-CC2530-2.2.2-1.3.0\Projects\zst #
#                          ack\Samples\WSN_sensors\CC2530DB\..\..\..\..\..\CO #
#                          MPONENTS\MAC\LOW_LEVEL\srf04\" -I "C:\Texas        #
#                          Instruments\ZStack-CC2530-2.2.2-1.3.0\Projects\zst #
#                          ack\Samples\WSN_sensors\CC2530DB\..\..\..\..\..\CO #
#                          MPONENTS\MAC\LOW_LEVEL\srf04\SINGLE_CHIP\" -I      #
#                          "D:\Program Files\IAR Systems\Embedded Workbench   #
#                          5.3\8051\INC\" -I "D:\Program Files\IAR            #
#                          Systems\Embedded Workbench 5.3\8051\INC\CLIB\" -Om #
#    List file          =  C:\Texas Instruments\ZStack-CC2530-2.2.2-1.3.0\Pro #
#                          jects\zstack\Samples\WSN_sensors\CC2530DB\RouterEB #
#                          \List\hal_key.lst                                  #
#    Object file        =  C:\Texas Instruments\ZStack-CC2530-2.2.2-1.3.0\Pro #
#                          jects\zstack\Samples\WSN_sensors\CC2530DB\RouterEB #
#                          \Obj\hal_key.r51                                   #
#                                                                             #
#                                                                             #
###############################################################################

C:\Texas Instruments\ZStack-CC2530-2.2.2-1.3.0\Components\hal\target\CC2530EB\hal_key.c
      1          /**************************************************************************************************
      2            Filename:       hal_key.c
      3            Revised:        $Date: 2008-12-15 07:19:03 -0800 (Mon, 15 Dec 2008) $
      4            Revision:       $Revision: 18611 $
      5          
      6            Description:    This file contains the interface to the HAL KEY Service.
      7          
      8          
      9            Copyright 2006-2007 Texas Instruments Incorporated. All rights reserved.
     10          
     11            IMPORTANT: Your use of this Software is limited to those specific rights
     12            granted under the terms of a software license agreement between the user
     13            who downloaded the software, his/her employer (which must be your employer)
     14            and Texas Instruments Incorporated (the "License").  You may not use this
     15            Software unless you agree to abide by the terms of the License. The License
     16            limits your use, and you acknowledge, that the Software may not be modified,
     17            copied or distributed unless embedded on a Texas Instruments microcontroller
     18            or used solely and exclusively in conjunction with a Texas Instruments radio
     19            frequency transceiver, which is integrated into your product.  Other than for
     20            the foregoing purpose, you may not use, reproduce, copy, prepare derivative
     21            works of, modify, distribute, perform, display or sell this Software and/or
     22            its documentation for any purpose.
     23          
     24            YOU FURTHER ACKNOWLEDGE AND AGREE THAT THE SOFTWARE AND DOCUMENTATION ARE
     25            PROVIDED “AS IS” WITHOUT WARRANTY OF ANY KIND, EITHER EXPRESS OR IMPLIED,
     26            INCLUDING WITHOUT LIMITATION, ANY WARRANTY OF MERCHANTABILITY, TITLE,
     27            NON-INFRINGEMENT AND FITNESS FOR A PARTICULAR PURPOSE. IN NO EVENT SHALL
     28            TEXAS INSTRUMENTS OR ITS LICENSORS BE LIABLE OR OBLIGATED UNDER CONTRACT,
     29            NEGLIGENCE, STRICT LIABILITY, CONTRIBUTION, BREACH OF WARRANTY, OR OTHER
     30            LEGAL EQUITABLE THEORY ANY DIRECT OR INDIRECT DAMAGES OR EXPENSES
     31            INCLUDING BUT NOT LIMITED TO ANY INCIDENTAL, SPECIAL, INDIRECT, PUNITIVE
     32            OR CONSEQUENTIAL DAMAGES, LOST PROFITS OR LOST DATA, COST OF PROCUREMENT
     33            OF SUBSTITUTE GOODS, TECHNOLOGY, SERVICES, OR ANY CLAIMS BY THIRD PARTIES
     34            (INCLUDING BUT NOT LIMITED TO ANY DEFENSE THEREOF), OR OTHER SIMILAR COSTS.
     35          
     36            Should you have any questions regarding your right to use this Software,
     37            contact Texas Instruments Incorporated at www.TI.com.
     38          **************************************************************************************************/
     39          /*********************************************************************
     40           NOTE: If polling is used, the hal_driver task schedules the KeyRead()
     41                 to occur every 100ms.  This should be long enough to naturally
     42                 debounce the keys.  The KeyRead() function remembers the key
     43                 state of the previous poll and will only return a non-zero
     44                 value if the key state changes.
     45          
     46           NOTE: If interrupts are used, the KeyRead() function is scheduled
     47                 25ms after the interrupt occurs by the ISR.  This delay is used
     48                 for key debouncing.  The ISR disables any further Key interrupt
     49                 until KeyRead() is executed.  KeyRead() will re-enable Key
     50                 interrupts after executing.  Unlike polling, when interrupts
     51                 are enabled, the previous key state is not remembered.  This
     52                 means that KeyRead() will return the current state of the keys
     53                 (not a change in state of the keys).
     54          
     55           NOTE: If interrupts are used, the KeyRead() fucntion is scheduled by
     56                 the ISR.  Therefore, the joystick movements will only be detected
     57                 during a pushbutton interrupt caused by S1 or the center joystick
     58                 pushbutton.
     59          
     60           NOTE: When a switch like S1 is pushed, the S1 signal goes from a normally
     61                 high state to a low state.  This transition is typically clean.  The
     62                 duration of the low state is around 200ms.  When the signal returns
     63                 to the high state, there is a high likelihood of signal bounce, which
     64                 causes a unwanted interrupts.  Normally, we would set the interrupt
     65                 edge to falling edge to generate an interrupt when S1 is pushed, but
     66                 because of the signal bounce, it is better to set the edge to rising
     67                 edge to generate an interrupt when S1 is released.  The debounce logic
     68                 can then filter out the signal bounce.  The result is that we typically
     69                 get only 1 interrupt per button push.  This mechanism is not totally
     70                 foolproof because occasionally, signal bound occurs during the falling
     71                 edge as well.  A similar mechanism is used to handle the joystick
     72                 pushbutton on the DB.  For the EB, we do not have independent control
     73                 of the interrupt edge for the S1 and center joystick pushbutton.  As
     74                 a result, only one or the other pushbuttons work reasonably well with
     75                 interrupts.  The default is the make the S1 switch on the EB work more
     76                 reliably.
     77          
     78          *********************************************************************/
     79          
     80          /**************************************************************************************************
     81           *                                            INCLUDES
     82           **************************************************************************************************/
     83          #include "hal_mcu.h"

   \                                 In  segment SFR_AN, at 0x80
   \   union <unnamed> volatile __sfr _A_P0
   \                     _A_P0:
   \   000000                DS 1

   \                                 In  segment SFR_AN, at 0x89
   \   unsigned char volatile __sfr P0IFG
   \                     P0IFG:
   \   000000                DS 1

   \                                 In  segment SFR_AN, at 0x8b
   \   unsigned char volatile __sfr P2IFG
   \                     P2IFG:
   \   000000                DS 1

   \                                 In  segment SFR_AN, at 0x8c
   \   unsigned char volatile __sfr PICTL
   \                     PICTL:
   \   000000                DS 1

   \                                 In  segment SFR_AN, at 0x9a
   \   unsigned char volatile __sfr IEN2
   \                     IEN2:
   \   000000                DS 1

   \                                 In  segment SFR_AN, at 0xa0
   \   union <unnamed> volatile __sfr _A_P2
   \                     _A_P2:
   \   000000                DS 1

   \                                 In  segment SFR_AN, at 0xab
   \   unsigned char volatile __sfr P0IEN
   \                     P0IEN:
   \   000000                DS 1

   \                                 In  segment SFR_AN, at 0xac
   \   unsigned char volatile __sfr P2IEN
   \                     P2IEN:
   \   000000                DS 1

   \                                 In  segment SFR_AN, at 0xb8
   \   union <unnamed> volatile __sfr _A_IEN1
   \                     _A_IEN1:
   \   000000                DS 1

   \                                 In  segment SFR_AN, at 0xc0
   \   union <unnamed> volatile __sfr _A_IRCON
   \                     _A_IRCON:
   \   000000                DS 1

   \                                 In  segment SFR_AN, at 0xe8
   \   union <unnamed> volatile __sfr _A_IRCON2
   \                     _A_IRCON2:
   \   000000                DS 1

   \                                 In  segment SFR_AN, at 0xf3
   \   unsigned char volatile __sfr P0SEL
   \                     P0SEL:
   \   000000                DS 1

   \                                 In  segment SFR_AN, at 0xf5
   \   unsigned char volatile __sfr P2SEL
   \                     P2SEL:
   \   000000                DS 1

   \                                 In  segment SFR_AN, at 0xfd
   \   unsigned char volatile __sfr P0DIR
   \                     P0DIR:
   \   000000                DS 1

   \                                 In  segment SFR_AN, at 0xff
   \   unsigned char volatile __sfr P2DIR
   \                     P2DIR:
   \   000000                DS 1
     84          #include "hal_defs.h"
     85          #include "hal_types.h"
     86          #include "hal_drivers.h"
     87          #include "hal_adc.h"
     88          #include "hal_key.h"
     89          #include "osal.h"
     90          
     91          #if (defined HAL_KEY) && (HAL_KEY == TRUE)
     92          
     93          /**************************************************************************************************
     94           *                                              MACROS
     95           **************************************************************************************************/
     96          
     97          /**************************************************************************************************
     98           *                                            CONSTANTS
     99           **************************************************************************************************/
    100          #define HAL_KEY_RISING_EDGE   0
    101          #define HAL_KEY_FALLING_EDGE  1
    102          
    103          #define HAL_KEY_DEBOUNCE_VALUE  25
    104          #define HAL_KEY_POLLING_VALUE   100
    105          
    106          /* CPU port interrupt */
    107          #define HAL_KEY_CPU_PORT_0_IF P0IF
    108          #define HAL_KEY_CPU_PORT_2_IF P2IF
    109          
    110          /* SW_6 is at P0.1 */
    111          #define HAL_KEY_SW_6_PORT   P0
    112          #define HAL_KEY_SW_6_BIT    BV(1)
    113          #define HAL_KEY_SW_6_SEL    P0SEL
    114          #define HAL_KEY_SW_6_DIR    P0DIR
    115          
    116          /* edge interrupt */
    117          #define HAL_KEY_SW_6_EDGEBIT  BV(0)
    118          #define HAL_KEY_SW_6_EDGE     HAL_KEY_FALLING_EDGE
    119          
    120          
    121          /* SW_6 interrupts */
    122          #define HAL_KEY_SW_6_IEN      IEN1  /* CPU interrupt mask register */
    123          #define HAL_KEY_SW_6_IENBIT   BV(5) /* Mask bit for all of Port_0 */
    124          #define HAL_KEY_SW_6_ICTL     P0IEN /* Port Interrupt Control register */
    125          #define HAL_KEY_SW_6_ICTLBIT  BV(1) /* P0IEN - P0.1 enable/disable bit */
    126          #define HAL_KEY_SW_6_PXIFG    P0IFG /* Interrupt flag at source */
    127          
    128          /* Joy stick move at P2.0 */
    129          #define HAL_KEY_JOY_MOVE_PORT   P2
    130          #define HAL_KEY_JOY_MOVE_BIT    BV(0)
    131          #define HAL_KEY_JOY_MOVE_SEL    P2SEL
    132          #define HAL_KEY_JOY_MOVE_DIR    P2DIR
    133          
    134          /* edge interrupt */
    135          #define HAL_KEY_JOY_MOVE_EDGEBIT  BV(3)
    136          #define HAL_KEY_JOY_MOVE_EDGE     HAL_KEY_FALLING_EDGE
    137          
    138          /* Joy move interrupts */
    139          #define HAL_KEY_JOY_MOVE_IEN      IEN2  /* CPU interrupt mask register */
    140          #define HAL_KEY_JOY_MOVE_IENBIT   BV(1) /* Mask bit for all of Port_2 */
    141          #define HAL_KEY_JOY_MOVE_ICTL     P2IEN /* Port Interrupt Control register */
    142          #define HAL_KEY_JOY_MOVE_ICTLBIT  BV(0) /* P2IENL - P2.0<->P2.3 enable/disable bit */
    143          #define HAL_KEY_JOY_MOVE_PXIFG    P2IFG /* Interrupt flag at source */
    144          
    145          #define HAL_KEY_JOY_CHN   HAL_ADC_CHANNEL_6
    146          
    147          
    148          /**************************************************************************************************
    149           *                                            TYPEDEFS
    150           **************************************************************************************************/
    151          
    152          
    153          /**************************************************************************************************
    154           *                                        GLOBAL VARIABLES
    155           **************************************************************************************************/

   \                                 In  segment XDATA_Z, align 1, keep-with-next
    156          static uint8 halKeySavedKeys;     /* used to store previous key state in polling mode */
   \                     halKeySavedKeys:
   \   000000                DS 1
   \   000001                REQUIRE __INIT_XDATA_Z

   \                                 In  segment XDATA_Z, align 1, keep-with-next
    157          static halKeyCBack_t pHalKeyProcessFunction;
   \                     pHalKeyProcessFunction:
   \   000000                DS 2
   \   000002                REQUIRE __INIT_XDATA_Z

   \                                 In  segment XDATA_Z, align 1, keep-with-next
    158          static uint8 HalKeyConfigured;
   \                     HalKeyConfigured:
   \   000000                DS 1
   \   000001                REQUIRE __INIT_XDATA_Z

   \                                 In  segment XDATA_Z, align 1, keep-with-next
    159          bool Hal_KeyIntEnable;            /* interrupt enable/disable flag */
   \                     Hal_KeyIntEnable:
   \   000000                DS 1
   \   000001                REQUIRE __INIT_XDATA_Z
    160          
    161          /**************************************************************************************************
    162           *                                        FUNCTIONS - Local
    163           **************************************************************************************************/
    164          void halProcessKeyInterrupt(void);
    165          uint8 halGetJoyKeyInput(void);
    166          
    167          
    168          
    169          /**************************************************************************************************
    170           *                                        FUNCTIONS - API
    171           **************************************************************************************************/
    172          
    173          
    174          /**************************************************************************************************
    175           * @fn      HalKeyInit
    176           *
    177           * @brief   Initilize Key Service
    178           *
    179           * @param   none
    180           *
    181           * @return  None
    182           **************************************************************************************************/

   \                                 In  segment BANKED_CODE, align 1, keep-with-next
    183          void HalKeyInit( void )
   \                     HalKeyInit:
    184          {
   \   000000   C082         PUSH    DPL
   \   000002   C083         PUSH    DPH
   \   000004                ; Saved register size: 2
   \   000004                ; Auto size: 0
    185            /* Initialize previous key to 0 */
    186            halKeySavedKeys = 0;
   \   000004   E4           CLR     A
   \   000005   90....       MOV     DPTR,#halKeySavedKeys
   \   000008   F0           MOVX    @DPTR,A
    187          
    188            HAL_KEY_SW_6_SEL &= ~(HAL_KEY_SW_6_BIT);    /* Set pin function to GPIO */
   \   000009   53F3FD       ANL     0xf3,#0xfd
    189            HAL_KEY_SW_6_DIR &= ~(HAL_KEY_SW_6_BIT);    /* Set pin direction to Input */
   \   00000C   53FDFD       ANL     0xfd,#0xfd
    190          
    191            HAL_KEY_JOY_MOVE_SEL &= ~(HAL_KEY_JOY_MOVE_BIT); /* Set pin function to GPIO */
   \   00000F   53F5FE       ANL     0xf5,#0xfe
    192            HAL_KEY_JOY_MOVE_DIR &= ~(HAL_KEY_JOY_MOVE_BIT); /* Set pin direction to Input */
   \   000012   53FFFE       ANL     0xff,#0xfe
    193          
    194          
    195            /* Initialize callback function */
    196            pHalKeyProcessFunction  = NULL;
   \   000015   90....       MOV     DPTR,#pHalKeyProcessFunction
   \   000018   F0           MOVX    @DPTR,A
   \   000019   A3           INC     DPTR
   \   00001A   F0           MOVX    @DPTR,A
    197          
    198            /* Start with key is not configured */
    199            HalKeyConfigured = FALSE;
   \   00001B   90....       MOV     DPTR,#HalKeyConfigured
   \   00001E   F0           MOVX    @DPTR,A
    200          }
   \   00001F   D083         POP     DPH
   \   000021   D082         POP     DPL
   \   000023   02....       LJMP    ?BRET
   \   000026                REQUIRE P0SEL
   \   000026                REQUIRE P2SEL
   \   000026                REQUIRE P0DIR
   \   000026                REQUIRE P2DIR
    201          
    202          
    203          /**************************************************************************************************
    204           * @fn      HalKeyConfig
    205           *
    206           * @brief   Configure the Key serivce
    207           *
    208           * @param   interruptEnable - TRUE/FALSE, enable/disable interrupt
    209           *          cback - pointer to the CallBack function
    210           *
    211           * @return  None
    212           **************************************************************************************************/

   \                                 In  segment BANKED_CODE, align 1, keep-with-next
    213          void HalKeyConfig (bool interruptEnable, halKeyCBack_t cback)
   \                     HalKeyConfig:
    214          {
   \   000000   C082         PUSH    DPL
   \   000002   C083         PUSH    DPH
   \   000004                ; Saved register size: 2
   \   000004                ; Auto size: 0
    215            /* Enable/Disable Interrupt or */
    216            Hal_KeyIntEnable = interruptEnable;
   \   000004   E9           MOV     A,R1
   \   000005   90....       MOV     DPTR,#Hal_KeyIntEnable
   \   000008   F0           MOVX    @DPTR,A
    217          
    218            /* Register the callback fucntion */
    219            pHalKeyProcessFunction = cback;
   \   000009   90....       MOV     DPTR,#pHalKeyProcessFunction
   \   00000C   EA           MOV     A,R2
   \   00000D   F0           MOVX    @DPTR,A
   \   00000E   A3           INC     DPTR
   \   00000F   EB           MOV     A,R3
   \   000010   F0           MOVX    @DPTR,A
    220          
    221            /* Determine if interrupt is enable or not */
    222            if (Hal_KeyIntEnable)
   \   000011   90....       MOV     DPTR,#Hal_KeyIntEnable
   \   000014   E0           MOVX    A,@DPTR
   \   000015   6033         JZ      ??HalKeyConfig_0
    223            {
    224              /* Rising/Falling edge configuratinn */
    225          
    226              PICTL &= ~(HAL_KEY_SW_6_EDGEBIT);    /* Clear the edge bit */
   \   000017   538CFE       ANL     0x8c,#0xfe
    227              /* For falling edge, the bit must be set. */
    228            #if (HAL_KEY_SW_6_EDGE == HAL_KEY_FALLING_EDGE)
    229              PICTL |= HAL_KEY_SW_6_EDGEBIT;
   \   00001A   438C01       ORL     0x8c,#0x1
    230            #endif
    231          
    232          
    233              /* Interrupt configuration:
    234               * - Enable interrupt generation at the port
    235               * - Enable CPU interrupt
    236               * - Clear any pending interrupt
    237               */
    238              HAL_KEY_SW_6_ICTL |= HAL_KEY_SW_6_ICTLBIT;
   \   00001D   43AB02       ORL     0xab,#0x2
    239              HAL_KEY_SW_6_IEN |= HAL_KEY_SW_6_IENBIT;
   \   000020   D2BD         SETB    0xb8.5
    240              HAL_KEY_SW_6_PXIFG = ~(HAL_KEY_SW_6_BIT);
   \   000022   7589FD       MOV     0x89,#-0x3
    241          
    242          
    243          
    244              /* Rising/Falling edge configuratinn */
    245          
    246              HAL_KEY_JOY_MOVE_ICTL &= ~(HAL_KEY_JOY_MOVE_EDGEBIT);    /* Clear the edge bit */
   \   000025   53ACF7       ANL     0xac,#0xf7
    247              /* For falling edge, the bit must be set. */
    248            #if (HAL_KEY_JOY_MOVE_EDGE == HAL_KEY_FALLING_EDGE)
    249              HAL_KEY_JOY_MOVE_ICTL |= HAL_KEY_JOY_MOVE_EDGEBIT;
   \   000028   43AC08       ORL     0xac,#0x8
    250            #endif
    251          
    252          
    253              /* Interrupt configuration:
    254               * - Enable interrupt generation at the port
    255               * - Enable CPU interrupt
    256               * - Clear any pending interrupt
    257               */
    258              HAL_KEY_JOY_MOVE_ICTL |= HAL_KEY_JOY_MOVE_ICTLBIT;
   \   00002B   43AC01       ORL     0xac,#0x1
    259              HAL_KEY_JOY_MOVE_IEN |= HAL_KEY_JOY_MOVE_IENBIT;
   \   00002E   439A02       ORL     0x9a,#0x2
    260              HAL_KEY_JOY_MOVE_PXIFG = ~(HAL_KEY_JOY_MOVE_BIT);
   \   000031   758BFE       MOV     0x8b,#-0x2
    261          
    262          
    263              /* Do this only after the hal_key is configured - to work with sleep stuff */
    264              if (HalKeyConfigured == TRUE)
   \   000034   90....       MOV     DPTR,#HalKeyConfigured
   \   000037   E0           MOVX    A,@DPTR
   \   000038   6401         XRL     A,#0x1
   \   00003A   7023         JNZ     ??HalKeyConfig_1
    265              {
    266                osal_stop_timerEx( Hal_TaskID, HAL_KEY_EVENT);  /* Cancel polling if active */
   \   00003C                ; Setup parameters for call to function osal_stop_timerEx
   \   00003C   7A01         MOV     R2,#0x1
   \   00003E   7B00         MOV     R3,#0x0
   \   000040   90....       MOV     DPTR,#Hal_TaskID
   \   000043   E0           MOVX    A,@DPTR
   \   000044   F9           MOV     R1,A
   \   000045   12....       LCALL   ??osal_stop_timerEx?relay
   \   000048   8015         SJMP    ??HalKeyConfig_1
    267              }
    268            }
    269            else    /* Interrupts NOT enabled */
    270            {
    271              HAL_KEY_SW_6_ICTL &= ~(HAL_KEY_SW_6_ICTLBIT); /* don't generate interrupt */
   \                     ??HalKeyConfig_0:
   \   00004A   53ABFD       ANL     0xab,#0xfd
    272              HAL_KEY_SW_6_IEN &= ~(HAL_KEY_SW_6_IENBIT);   /* Clear interrupt enable bit */
   \   00004D   C2BD         CLR     0xb8.5
    273          
    274              osal_start_timerEx (Hal_TaskID, HAL_KEY_EVENT, HAL_KEY_POLLING_VALUE);    /* Kick off polling */
   \   00004F                ; Setup parameters for call to function osal_start_timerEx
   \   00004F   7C64         MOV     R4,#0x64
   \   000051   7D00         MOV     R5,#0x0
   \   000053   7A01         MOV     R2,#0x1
   \   000055   7B00         MOV     R3,#0x0
   \   000057   90....       MOV     DPTR,#Hal_TaskID
   \   00005A   E0           MOVX    A,@DPTR
   \   00005B   F9           MOV     R1,A
   \   00005C   12....       LCALL   ??osal_start_timerEx?relay
    275            }
    276          
    277            /* Key now is configured */
    278            HalKeyConfigured = TRUE;
   \                     ??HalKeyConfig_1:
   \   00005F   7401         MOV     A,#0x1
   \   000061   90....       MOV     DPTR,#HalKeyConfigured
   \   000064   F0           MOVX    @DPTR,A
    279          }
   \   000065   D083         POP     DPH
   \   000067   D082         POP     DPL
   \   000069   02....       LJMP    ?BRET
   \   00006C                REQUIRE P0IFG
   \   00006C                REQUIRE P2IFG
   \   00006C                REQUIRE PICTL
   \   00006C                REQUIRE IEN2
   \   00006C                REQUIRE P0IEN
   \   00006C                REQUIRE P2IEN
   \   00006C                REQUIRE _A_IEN1
    280          
    281          
    282          /**************************************************************************************************
    283           * @fn      HalKeyRead
    284           *
    285           * @brief   Read the current value of a key
    286           *
    287           * @param   None
    288           *
    289           * @return  keys - current keys status
    290           **************************************************************************************************/

   \                                 In  segment BANKED_CODE, align 1, keep-with-next
    291          uint8 HalKeyRead ( void )
   \                     HalKeyRead:
    292          {
   \   000000   74F7         MOV     A,#-0x9
   \   000002   12....       LCALL   ?BANKED_ENTER_XDATA
   \   000005                ; Saved register size: 9
   \   000005                ; Auto size: 0
    293            uint8 keys = 0;
   \   000005   75..00       MOV     ?V0 + 0,#0x0
    294          
    295          #ifdef HAL_BOARD_CC2530EB_REV17
    296            if ( (HAL_KEY_SW_6_PORT & HAL_KEY_SW_6_BIT))    /* Key is active high */
   \   000008   A281         MOV     C,0x80.1
   \   00000A   5003         JNC     ??HalKeyRead_0
    297          #elif defined (HAL_BOARD_CC2530EB_REV13)
    298            if (!(HAL_KEY_SW_6_PORT & HAL_KEY_SW_6_BIT))    /* Key is active low */
    299          #endif
    300            {
    301              keys |= HAL_KEY_SW_6;
   \   00000C   75..20       MOV     ?V0 + 0,#0x20
    302            }
    303          
    304            if ((HAL_KEY_JOY_MOVE_PORT & HAL_KEY_JOY_MOVE_BIT))  /* Key is active low */
   \                     ??HalKeyRead_0:
   \   00000F   A2A0         MOV     C,0xa0.0
   \   000011   5006         JNC     ??HalKeyRead_1
    305            {
    306              keys |= halGetJoyKeyInput();
   \   000013                ; Setup parameters for call to function halGetJoyKeyInput
   \   000013   12....       LCALL   ??halGetJoyKeyInput?relay
   \   000016   E9           MOV     A,R1
   \   000017   42..         ORL     ?V0 + 0,A
    307            }
    308          
    309            return keys;
   \                     ??HalKeyRead_1:
   \   000019   A9..         MOV     R1,?V0 + 0
   \   00001B   7F01         MOV     R7,#0x1
   \   00001D   02....       LJMP    ?BANKED_LEAVE_XDATA
   \   000020                REQUIRE _A_P0
   \   000020                REQUIRE _A_P2
    310          }
    311          
    312          
    313          /**************************************************************************************************
    314           * @fn      HalKeyPoll
    315           *
    316           * @brief   Called by hal_driver to poll the keys
    317           *
    318           * @param   None
    319           *
    320           * @return  None
    321           **************************************************************************************************/

   \                                 In  segment BANKED_CODE, align 1, keep-with-next
    322          void HalKeyPoll (void)
   \                     HalKeyPoll:
    323          {
   \   000000   C082         PUSH    DPL
   \   000002   C083         PUSH    DPH
   \   000004                ; Saved register size: 2
   \   000004                ; Auto size: 0
    324            uint8 keys = 0;
   \   000004   7900         MOV     R1,#0x0
    325          
    326            if (!(HAL_KEY_SW_6_PORT & HAL_KEY_SW_6_BIT))    /* Key is active low */
   \   000006   A281         MOV     C,0x80.1
   \   000008   4002         JC      ??HalKeyPoll_0
    327            {
    328              keys |= HAL_KEY_SW_6;
   \   00000A   7920         MOV     R1,#0x20
    329            }
    330          
    331            if ((HAL_KEY_JOY_MOVE_PORT & HAL_KEY_JOY_MOVE_BIT))  /* Key is active HIGH */
   \                     ??HalKeyPoll_0:
   \   00000C   A2A0         MOV     C,0xa0.0
   \   00000E   5003         JNC     ??HalKeyPoll_1
    332            {
    333              keys = halGetJoyKeyInput();
   \   000010                ; Setup parameters for call to function halGetJoyKeyInput
   \   000010   12....       LCALL   ??halGetJoyKeyInput?relay
    334            }
    335          
    336            /* If interrupts are not enabled, previous key status and current key status
    337             * are compared to find out if a key has changed status.
    338             */
    339            if (!Hal_KeyIntEnable)
   \                     ??HalKeyPoll_1:
   \   000013   90....       MOV     DPTR,#Hal_KeyIntEnable
   \   000016   E0           MOVX    A,@DPTR
   \   000017   7009         JNZ     ??HalKeyPoll_2
    340            {
    341              if (keys == halKeySavedKeys)
   \   000019   90....       MOV     DPTR,#halKeySavedKeys
   \   00001C   E0           MOVX    A,@DPTR
   \   00001D   69           XRL     A,R1
   \   00001E   601F         JZ      ??HalKeyPoll_3
    342              {
    343                /* Exit - since no keys have changed */
    344                return;
    345              }
    346              /* Store the current keys for comparation next time */
    347              halKeySavedKeys = keys;
   \   000020   E9           MOV     A,R1
   \   000021   F0           MOVX    @DPTR,A
    348            }
    349            else
    350            {
    351              /* Key interrupt handled here */
    352            }
    353          
    354            /* Invoke Callback if new keys were depressed */
    355            if (keys && (pHalKeyProcessFunction))
   \                     ??HalKeyPoll_2:
   \   000022   E9           MOV     A,R1
   \   000023   601A         JZ      ??HalKeyPoll_3
   \   000025   90....       MOV     DPTR,#pHalKeyProcessFunction
   \   000028   E0           MOVX    A,@DPTR
   \   000029   7002         JNZ     ??HalKeyPoll_4
   \   00002B   A3           INC     DPTR
   \   00002C   E0           MOVX    A,@DPTR
   \                     ??HalKeyPoll_4:
   \   00002D   6010         JZ      ??HalKeyPoll_3
    356            {
    357              (pHalKeyProcessFunction) (keys, HAL_KEY_STATE_NORMAL);
   \   00002F                ; Setup parameters for indirect call
   \   00002F   7A00         MOV     R2,#0x0
   \   000031   90....       MOV     DPTR,#pHalKeyProcessFunction
   \   000034   E0           MOVX    A,@DPTR
   \   000035   F8           MOV     R0,A
   \   000036   A3           INC     DPTR
   \   000037   E0           MOVX    A,@DPTR
   \   000038   F583         MOV     DPH,A
   \   00003A   8882         MOV     DPL,R0
   \   00003C   12....       LCALL   ?CALL_IND
   \                     ??HalKeyPoll_3:
   \   00003F   D083         POP     DPH
   \   000041   D082         POP     DPL
   \   000043   02....       LJMP    ?BRET
   \   000046                REQUIRE _A_P0
   \   000046                REQUIRE _A_P2
    358            }
    359          }
    360          
    361          /**************************************************************************************************
    362           * @fn      halGetJoyKeyInput
    363           *
    364           * @brief   Map the ADC value to its corresponding key.
    365           *
    366           * @param   None
    367           *
    368           * @return  keys - current joy key status
    369           **************************************************************************************************/

   \                                 In  segment BANKED_CODE, align 1, keep-with-next
    370          uint8 halGetJoyKeyInput(void)
   \                     halGetJoyKeyInput:
    371          {
   \   000000   74F7         MOV     A,#-0x9
   \   000002   12....       LCALL   ?BANKED_ENTER_XDATA
   \   000005                ; Saved register size: 9
   \   000005                ; Auto size: 0
    372            /* The joystick control is encoded as an analog voltage.
    373             * Read the JOY_LEVEL analog value and map it to joy movement.
    374             */
    375            uint8 adc;
    376            uint8 ksave0 = 0;
   \   000005   7E00         MOV     R6,#0x0
    377            uint8 ksave1;
    378          
    379            /* Keep on reading the ADC until two consecutive key decisions are the same. */
    380            do
    381            {
    382              ksave1 = ksave0;    /* save previouse key reading */
   \                     ??halGetJoyKeyInput_0:
   \   000007   EE           MOV     A,R6
   \   000008   FF           MOV     R7,A
    383          
    384              adc = HalAdcRead (HAL_KEY_JOY_CHN, HAL_ADC_RESOLUTION_8);
   \   000009                ; Setup parameters for call to function HalAdcRead
   \   000009   7A01         MOV     R2,#0x1
   \   00000B   7906         MOV     R1,#0x6
   \   00000D   12....       LCALL   ??HalAdcRead?relay
   \   000010   EA           MOV     A,R2
    385          
    386              if ((adc >= 2) && (adc <= 38))
   \   000011   C3           CLR     C
   \   000012   9402         SUBB    A,#0x2
   \   000014   400B         JC      ??halGetJoyKeyInput_1
   \   000016   EA           MOV     A,R2
   \   000017   C3           CLR     C
   \   000018   9427         SUBB    A,#0x27
   \   00001A   5005         JNC     ??halGetJoyKeyInput_1
    387              {
    388                 ksave0 |= HAL_KEY_UP;
   \   00001C   EE           MOV     A,R6
   \   00001D   D2E0         SETB    0xE0 /* A   */.0
   \   00001F   8042         SJMP    ??halGetJoyKeyInput_2
    389              }
    390              else if ((adc >= 74) && (adc <= 88))
   \                     ??halGetJoyKeyInput_1:
   \   000021   EA           MOV     A,R2
   \   000022   C3           CLR     C
   \   000023   944A         SUBB    A,#0x4a
   \   000025   400B         JC      ??halGetJoyKeyInput_3
   \   000027   EA           MOV     A,R2
   \   000028   C3           CLR     C
   \   000029   9459         SUBB    A,#0x59
   \   00002B   5005         JNC     ??halGetJoyKeyInput_3
    391              {
    392                ksave0 |= HAL_KEY_RIGHT;
   \   00002D   EE           MOV     A,R6
   \   00002E   D2E1         SETB    0xE0 /* A   */.1
   \   000030   8031         SJMP    ??halGetJoyKeyInput_2
    393              }
    394              else if ((adc >= 60) && (adc <= 73))
   \                     ??halGetJoyKeyInput_3:
   \   000032   EA           MOV     A,R2
   \   000033   C3           CLR     C
   \   000034   943C         SUBB    A,#0x3c
   \   000036   400B         JC      ??halGetJoyKeyInput_4
   \   000038   EA           MOV     A,R2
   \   000039   C3           CLR     C
   \   00003A   944A         SUBB    A,#0x4a
   \   00003C   5005         JNC     ??halGetJoyKeyInput_4
    395              {
    396                ksave0 |= HAL_KEY_LEFT;
   \   00003E   EE           MOV     A,R6
   \   00003F   D2E3         SETB    0xE0 /* A   */.3
   \   000041   8020         SJMP    ??halGetJoyKeyInput_2
    397              }
    398              else if ((adc >= 39) && (adc <= 59))
   \                     ??halGetJoyKeyInput_4:
   \   000043   EA           MOV     A,R2
   \   000044   C3           CLR     C
   \   000045   9427         SUBB    A,#0x27
   \   000047   400B         JC      ??halGetJoyKeyInput_5
   \   000049   EA           MOV     A,R2
   \   00004A   C3           CLR     C
   \   00004B   943C         SUBB    A,#0x3c
   \   00004D   5005         JNC     ??halGetJoyKeyInput_5
    399              {
    400                ksave0 |= HAL_KEY_DOWN;
   \   00004F   EE           MOV     A,R6
   \   000050   D2E4         SETB    0xE0 /* A   */.4
   \   000052   800F         SJMP    ??halGetJoyKeyInput_2
    401              }
    402              else if ((adc >= 89) && (adc <= 100))
   \                     ??halGetJoyKeyInput_5:
   \   000054   EA           MOV     A,R2
   \   000055   C3           CLR     C
   \   000056   9459         SUBB    A,#0x59
   \   000058   400A         JC      ??halGetJoyKeyInput_6
   \   00005A   EA           MOV     A,R2
   \   00005B   C3           CLR     C
   \   00005C   9465         SUBB    A,#0x65
   \   00005E   5004         JNC     ??halGetJoyKeyInput_6
    403              {
    404                ksave0 |= HAL_KEY_CENTER;
   \   000060   EE           MOV     A,R6
   \   000061   D2E2         SETB    0xE0 /* A   */.2
   \                     ??halGetJoyKeyInput_2:
   \   000063   FE           MOV     R6,A
    405              }
    406            } while (ksave0 != ksave1);
   \                     ??halGetJoyKeyInput_6:
   \   000064   EF           MOV     A,R7
   \   000065   6E           XRL     A,R6
   \   000066   709F         JNZ     ??halGetJoyKeyInput_0
    407          
    408            return ksave0;
   \   000068   EE           MOV     A,R6
   \   000069   F9           MOV     R1,A
   \   00006A   7F01         MOV     R7,#0x1
   \   00006C   02....       LJMP    ?BANKED_LEAVE_XDATA
    409          }
    410          
    411          
    412          
    413          
    414          
    415          /**************************************************************************************************
    416           * @fn      halProcessKeyInterrupt
    417           *
    418           * @brief   Checks to see if it's a valid key interrupt, saves interrupt driven key states for
    419           *          processing by HalKeyRead(), and debounces keys by scheduling HalKeyRead() 25ms later.
    420           *
    421           * @param
    422           *
    423           * @return
    424           **************************************************************************************************/

   \                                 In  segment BANKED_CODE, align 1, keep-with-next
    425          void halProcessKeyInterrupt (void)
   \                     halProcessKeyInterrupt:
    426          {
   \   000000   C082         PUSH    DPL
   \   000002   C083         PUSH    DPH
   \   000004                ; Saved register size: 2
   \   000004                ; Auto size: 0
    427            bool valid=FALSE;
   \   000004   7A00         MOV     R2,#0x0
    428          
    429            if (HAL_KEY_SW_6_PXIFG & HAL_KEY_SW_6_BIT)  /* Interrupt Flag has been set */
   \   000006   E589         MOV     A,0x89
   \   000008   A2E1         MOV     C,0xE0 /* A   */.1
   \   00000A   5004         JNC     ??halProcessKeyInterrupt_0
    430            {
    431              HAL_KEY_SW_6_PXIFG = ~(HAL_KEY_SW_6_BIT); /* Clear Interrupt Flag */
   \   00000C   7589FD       MOV     0x89,#-0x3
    432              valid = TRUE;
   \   00000F   0A           INC     R2
    433            }
    434          
    435            if (HAL_KEY_JOY_MOVE_PXIFG & HAL_KEY_JOY_MOVE_BIT)  /* Interrupt Flag has been set */
   \                     ??halProcessKeyInterrupt_0:
   \   000010   E58B         MOV     A,0x8b
   \   000012   A2E0         MOV     C,0xE0 /* A   */.0
   \   000014   5005         JNC     ??halProcessKeyInterrupt_1
    436            {
    437              HAL_KEY_JOY_MOVE_PXIFG = ~(HAL_KEY_JOY_MOVE_BIT); /* Clear Interrupt Flag */
   \   000016   758BFE       MOV     0x8b,#-0x2
    438              valid = TRUE;
   \   000019   7A01         MOV     R2,#0x1
    439            }
    440          
    441            if (valid)
   \                     ??halProcessKeyInterrupt_1:
   \   00001B   EA           MOV     A,R2
   \   00001C   6010         JZ      ??halProcessKeyInterrupt_2
    442            {
    443              osal_start_timerEx (Hal_TaskID, HAL_KEY_EVENT, HAL_KEY_DEBOUNCE_VALUE);
   \   00001E                ; Setup parameters for call to function osal_start_timerEx
   \   00001E   7C19         MOV     R4,#0x19
   \   000020   7D00         MOV     R5,#0x0
   \   000022   7A01         MOV     R2,#0x1
   \   000024   7B00         MOV     R3,#0x0
   \   000026   90....       MOV     DPTR,#Hal_TaskID
   \   000029   E0           MOVX    A,@DPTR
   \   00002A   F9           MOV     R1,A
   \   00002B   12....       LCALL   ??osal_start_timerEx?relay
    444            }
    445          }
   \                     ??halProcessKeyInterrupt_2:
   \   00002E   D083         POP     DPH
   \   000030   D082         POP     DPL
   \   000032   02....       LJMP    ?BRET
   \   000035                REQUIRE P0IFG
   \   000035                REQUIRE P2IFG
    446          
    447          /**************************************************************************************************
    448           * @fn      HalKeyEnterSleep
    449           *
    450           * @brief  - Get called to enter sleep mode
    451           *
    452           * @param
    453           *
    454           * @return
    455           **************************************************************************************************/

   \                                 In  segment BANKED_CODE, align 1, keep-with-next
    456          void HalKeyEnterSleep ( void )
   \                     HalKeyEnterSleep:
    457          {
   \   000000                ; Saved register size: 0
   \   000000                ; Auto size: 0
    458          }
   \   000000   02....       LJMP    ?BRET
    459          
    460          /**************************************************************************************************
    461           * @fn      HalKeyExitSleep
    462           *
    463           * @brief   - Get called when sleep is over
    464           *
    465           * @param
    466           *
    467           * @return  - return saved keys
    468           **************************************************************************************************/

   \                                 In  segment BANKED_CODE, align 1, keep-with-next
    469          uint8 HalKeyExitSleep ( void )
   \                     HalKeyExitSleep:
    470          {
   \   000000   C082         PUSH    DPL
   \   000002   C083         PUSH    DPH
   \   000004                ; Saved register size: 2
   \   000004                ; Auto size: 0
    471            /* Wake up and read keys */
    472            return ( HalKeyRead () );
   \   000004                ; Setup parameters for call to function HalKeyRead
   \   000004   12....       LCALL   ??HalKeyRead?relay
   \   000007   D083         POP     DPH
   \   000009   D082         POP     DPL
   \   00000B   02....       LJMP    ?BRET
    473          }
    474          
    475          /***************************************************************************************************
    476           *                                    INTERRUPT SERVICE ROUTINE
    477           ***************************************************************************************************/
    478          
    479          /**************************************************************************************************
    480           * @fn      halKeyPort0Isr
    481           *
    482           * @brief   Port0 ISR
    483           *
    484           * @param
    485           *
    486           * @return
    487           **************************************************************************************************/

   \                                 In  segment NEAR_CODE, align 1, keep-with-next
    488          HAL_ISR_FUNCTION( halKeyPort0Isr, P0INT_VECTOR )
   \                     halKeyPort0Isr:
    489          {
   \   000000   C0E0         PUSH    A
   \   000002   74F2         MOV     A,#-0xe
   \   000004   12....       LCALL   ?INTERRUPT_ENTER_XSP
   \   000007                ; Saved register size: 15
   \   000007                ; Auto size: 0
    490            if (HAL_KEY_SW_6_PXIFG & HAL_KEY_SW_6_BIT)
   \   000007   E589         MOV     A,0x89
   \   000009   A2E1         MOV     C,0xE0 /* A   */.1
   \   00000B   5003         JNC     ??halKeyPort0Isr_0
    491            {
    492              halProcessKeyInterrupt();
   \   00000D                ; Setup parameters for call to function halProcessKeyInterrupt
   \   00000D   12....       LCALL   ??halProcessKeyInterrupt?relay
    493            }
    494          
    495            /*
    496              Clear the CPU interrupt flag for Port_0
    497              PxIFG has to be cleared before PxIF
    498            */
    499            HAL_KEY_SW_6_PXIFG = 0;
   \                     ??halKeyPort0Isr_0:
   \   000010   758900       MOV     0x89,#0x0
    500            HAL_KEY_CPU_PORT_0_IF = 0;
   \   000013   C2C5         CLR     0xc0.5
    501          }
   \   000015   7F01         MOV     R7,#0x1
   \   000017   02....       LJMP    ?INTERRUPT_LEAVE_XSP
   \   00001A                REQUIRE P0IFG
   \   00001A                REQUIRE _A_IRCON
    502          
    503          
    504          /**************************************************************************************************
    505           * @fn      halKeyPort2Isr
    506           *
    507           * @brief   Port2 ISR
    508           *
    509           * @param
    510           *
    511           * @return
    512           **************************************************************************************************/

   \                                 In  segment NEAR_CODE, align 1, keep-with-next
    513          HAL_ISR_FUNCTION( halKeyPort2Isr, P2INT_VECTOR )
   \                     halKeyPort2Isr:
    514          {
   \   000000   C0E0         PUSH    A
   \   000002   74F2         MOV     A,#-0xe
   \   000004   12....       LCALL   ?INTERRUPT_ENTER_XSP
   \   000007                ; Saved register size: 15
   \   000007                ; Auto size: 0
    515            if (HAL_KEY_JOY_MOVE_PXIFG & HAL_KEY_JOY_MOVE_BIT)
   \   000007   E58B         MOV     A,0x8b
   \   000009   A2E0         MOV     C,0xE0 /* A   */.0
   \   00000B   5003         JNC     ??halKeyPort2Isr_0
    516            {
    517              halProcessKeyInterrupt();
   \   00000D                ; Setup parameters for call to function halProcessKeyInterrupt
   \   00000D   12....       LCALL   ??halProcessKeyInterrupt?relay
    518            }
    519          
    520            /*
    521              Clear the CPU interrupt flag for Port_2
    522              PxIFG has to be cleared before PxIF
    523              Notes: P2_1 and P2_2 are debug lines.
    524            */
    525            HAL_KEY_JOY_MOVE_PXIFG = 0;
   \                     ??halKeyPort2Isr_0:
   \   000010   758B00       MOV     0x8b,#0x0
    526            HAL_KEY_CPU_PORT_2_IF = 0;
   \   000013   C2E8         CLR     0xe8.0
    527          }
   \   000015   7F01         MOV     R7,#0x1
   \   000017   02....       LJMP    ?INTERRUPT_LEAVE_XSP
   \   00001A                REQUIRE P2IFG
   \   00001A                REQUIRE _A_IRCON2

   \                                 In  segment INTVEC, offset 0x33, root
   \                     `??halKeyPort2Isr??INTVEC 51`:
   \   000033   02....       LJMP       (halKeyPort2Isr)

   \                                 In  segment INTVEC, offset 0x6b, root
   \                     `??halKeyPort0Isr??INTVEC 107`:
   \   00006B   02....       LJMP       (halKeyPort0Isr)

   \                                 In  segment BANK_RELAYS, align 1
   \                     ??HalKeyInit?relay:
   \   000000   12....       LCALL   ?BDISPATCH
   \   000003   ......       DC24    HalKeyInit

   \                                 In  segment BANK_RELAYS, align 1
   \                     ??HalKeyConfig?relay:
   \   000000   12....       LCALL   ?BDISPATCH
   \   000003   ......       DC24    HalKeyConfig

   \                                 In  segment BANK_RELAYS, align 1
   \                     ??HalKeyRead?relay:
   \   000000   12....       LCALL   ?BDISPATCH
   \   000003   ......       DC24    HalKeyRead

   \                                 In  segment BANK_RELAYS, align 1
   \                     ??HalKeyPoll?relay:
   \   000000   12....       LCALL   ?BDISPATCH
   \   000003   ......       DC24    HalKeyPoll

   \                                 In  segment BANK_RELAYS, align 1
   \                     ??halGetJoyKeyInput?relay:
   \   000000   12....       LCALL   ?BDISPATCH
   \   000003   ......       DC24    halGetJoyKeyInput

   \                                 In  segment BANK_RELAYS, align 1
   \                     ??halProcessKeyInterrupt?relay:
   \   000000   12....       LCALL   ?BDISPATCH
   \   000003   ......       DC24    halProcessKeyInterrupt

   \                                 In  segment BANK_RELAYS, align 1
   \                     ??HalKeyEnterSleep?relay:
   \   000000   12....       LCALL   ?BDISPATCH
   \   000003   ......       DC24    HalKeyEnterSleep

   \                                 In  segment BANK_RELAYS, align 1
   \                     ??HalKeyExitSleep?relay:
   \   000000   12....       LCALL   ?BDISPATCH
   \   000003   ......       DC24    HalKeyExitSleep
    528          
    529          #else
    530          
    531          
    532          void HalKeyInit(void){}
    533          void HalKeyConfig(bool interruptEnable, halKeyCBack_t cback){}
    534          uint8 HalKeyRead(void){ return 0;}
    535          void HalKeyPoll(void){}
    536          
    537          #endif /* HAL_KEY */
    538          
    539          
    540          
    541          
    542          
    543          /**************************************************************************************************
    544          **************************************************************************************************/
    545          
    546          
    547          

   Maximum stack usage in bytes:

     Function                    ISTACK PSTACK XSTACK
     --------                    ------ ------ ------
     HalKeyConfig                    2      0      0
       -> osal_stop_timerEx          4      0      0
       -> osal_start_timerEx         4      0      0
     HalKeyEnterSleep                0      0      0
     HalKeyExitSleep                 2      0      0
       -> HalKeyRead                 4      0      0
     HalKeyInit                      2      0      0
     HalKeyPoll                      2      0      0
       -> halGetJoyKeyInput          4      0      0
     HalKeyRead                      0      0      9
       -> halGetJoyKeyInput          0      0     18
     halGetJoyKeyInput               0      0     18
       -> HalAdcRead                 0      0     18
     halKeyPort0Isr                 15      0      0
       -> halProcessKeyInterrupt    30      0      0
     halKeyPort2Isr                 15      0      0
       -> halProcessKeyInterrupt    30      0      0
     halProcessKeyInterrupt          2      0      0
       -> osal_start_timerEx         4      0      0


   Segment part sizes:

     Function/Label                 Bytes
     --------------                 -----
     _A_P0                             1
     P0IFG                             1
     P2IFG                             1
     PICTL                             1
     IEN2                              1
     _A_P2                             1
     P0IEN                             1
     P2IEN                             1
     _A_IEN1                           1
     _A_IRCON                          1
     _A_IRCON2                         1
     P0SEL                             1
     P2SEL                             1
     P0DIR                             1
     P2DIR                             1
     halKeySavedKeys                   1
     pHalKeyProcessFunction            2
     HalKeyConfigured                  1
     Hal_KeyIntEnable                  1
     HalKeyInit                       38
     HalKeyConfig                    108
     HalKeyRead                       32
     HalKeyPoll                       70
     halGetJoyKeyInput               111
     halProcessKeyInterrupt           53
     HalKeyEnterSleep                  3
     HalKeyExitSleep                  14
     halKeyPort0Isr                   26
     halKeyPort2Isr                   26
     ??halKeyPort2Isr??INTVEC 51       3
     ??halKeyPort0Isr??INTVEC 107      3
     ??HalKeyInit?relay                6
     ??HalKeyConfig?relay              6
     ??HalKeyRead?relay                6
     ??HalKeyPoll?relay                6
     ??halGetJoyKeyInput?relay         6
     ??halProcessKeyInterrupt?relay    6
     ??HalKeyEnterSleep?relay          6
     ??HalKeyExitSleep?relay           6

 
 429 bytes in segment BANKED_CODE
  48 bytes in segment BANK_RELAYS
   6 bytes in segment INTVEC
  52 bytes in segment NEAR_CODE
  15 bytes in segment SFR_AN
   5 bytes in segment XDATA_Z
 
 529 bytes of CODE  memory (+  6 bytes shared)
   0 bytes of DATA  memory (+ 15 bytes shared)
   5 bytes of XDATA memory

Errors: none
Warnings: none
