///////////////////////////////////////////////////////////////////////////////
//                                                                            /
// IAR C/C++ Compiler V7.51A/W32 for 8051               08/Apr/2013  11:22:49 /
// Copyright 2004-2009 IAR Systems AB.                                        /
//                                                                            /
//    Core               =  plain                                             /
//    Code model         =  banked                                            /
//    Data model         =  large                                             /
//    Calling convention =  xdata reentrant                                   /
//    Constant location  =  data_rom                                          /
//    Dptr setup         =  1,16                                              /
//    Source file        =  C:\Texas Instruments\ZStack-CC2530-2.2.2-1.3.0\Co /
//                          mponents\stack\nwk\nwk_globals.c                  /
//    Command line       =  -f "C:\Texas Instruments\ZStack-CC2530-2.2.2-1.3. /
//                          0\Projects\zstack\Samples\WSN_sensors\CC2530DB\.. /
//                          \..\..\Tools\CC2530DB\f8wRouter.cfg" (-DCPU32MHZ  /
//                          -DROOT=__near_func -DMAC_CFG_APP_PENDING_QUEUE=TR /
//                          UE -DRTR_NWK -DBLINK_LEDS) -f "C:\Texas           /
//                          Instruments\ZStack-CC2530-2.2.2-1.3.0\Projects\zs /
//                          tack\Samples\WSN_sensors\CC2530DB\..\..\..\Tools\ /
//                          CC2530DB\f8wConfig.cfg" (-DSECURE=0               /
//                          -DZG_SECURE_DYNAMIC=0 -DREFLECTOR                 /
//                          -DDEFAULT_CHANLIST=0x00000800                     /
//                          -DZDAPP_CONFIG_PAN_ID=0xFFFF                      /
//                          -DNWK_START_DELAY=100 -DEXTENDED_JOINING_RANDOM_M /
//                          ASK=0x007F -DBEACON_REQUEST_DELAY=100             /
//                          -DBEACON_REQ_DELAY_MASK=0x00FF                    /
//                          -DROUTE_EXPIRY_TIME=30 -DAPSC_ACK_WAIT_DURATION_P /
//                          OLLED=3000 -DNWK_INDIRECT_MSG_TIMEOUT=7           /
//                          -DMAX_RREQ_ENTRIES=8 -DAPSC_MAX_FRAME_RETRIES=3   /
//                          -DNWK_MAX_DATA_RETRIES=2                          /
//                          -DMAX_POLL_FAILURE_RETRIES=2 -DMAX_BCAST=9        /
//                          -DAPS_MAX_GROUPS=16 -DMAX_RTG_ENTRIES=40          /
//                          -DNWK_MAX_BINDING_ENTRIES=4                       /
//                          -DMAX_BINDING_CLUSTER_IDS=4                       /
//                          "-DDEFAULT_KEY={0x01, 0x03, 0x05, 0x07, 0x09,     /
//                          0x0B, 0x0D, 0x0F, 0x00, 0x02, 0x04, 0x06, 0x08,   /
//                          0x0A, 0x0C, 0x0D}" -DMAC_MAX_FRAME_SIZE=116       /
//                          "-DCONST=const __code" -DGENERIC=__generic        /
//                          -DRFD_RCVC_ALWAYS_ON=FALSE -DPOLL_RATE=1000       /
//                          -DQUEUED_POLL_RATE=100 -DRESPONSE_POLL_RATE=100)  /
//                          -DREJOIN_POLL_RATE=440 "C:\Texas                  /
//                          Instruments\ZStack-CC2530-2.2.2-1.3.0\Components\ /
//                          stack\nwk\nwk_globals.c" -D ZTOOL_P1 -D MT_TASK   /
//                          -D MT_SYS_FUNC -D MT_ZDO_FUNC -D                  /
//                          LCD_SUPPORTED=DEBUG -lC "C:\Texas                 /
//                          Instruments\ZStack-CC2530-2.2.2-1.3.0\Projects\zs /
//                          tack\Samples\WSN_sensors\CC2530DB\RouterEB\List\" /
//                           -lA "C:\Texas Instruments\ZStack-CC2530-2.2.2-1. /
//                          3.0\Projects\zstack\Samples\WSN_sensors\CC2530DB\ /
//                          RouterEB\List\" --diag_suppress Pe001,Pa010 -o    /
//                          "C:\Texas Instruments\ZStack-CC2530-2.2.2-1.3.0\P /
//                          rojects\zstack\Samples\WSN_sensors\CC2530DB\Route /
//                          rEB\Obj\" -e --require_prototypes --no_unroll     /
//                          --no_inline --no_tbaa --debug --core=plain        /
//                          --dptr=16,1 --data_model=large                    /
//                          --code_model=banked --calling_convention=xdata_re /
//                          entrant --place_constants=data_rom                /
//                          --nr_virtual_regs 8 -I "C:\Texas                  /
//                          Instruments\ZStack-CC2530-2.2.2-1.3.0\Projects\zs /
//                          tack\Samples\WSN_sensors\CC2530DB\" -I "C:\Texas  /
//                          Instruments\ZStack-CC2530-2.2.2-1.3.0\Projects\zs /
//                          tack\Samples\WSN_sensors\CC2530DB\..\SOURCE\" -I  /
//                          "C:\Texas Instruments\ZStack-CC2530-2.2.2-1.3.0\P /
//                          rojects\zstack\Samples\WSN_sensors\CC2530DB\..\.. /
//                          \..\ZMAIN\TI2530DB\" -I "C:\Texas                 /
//                          Instruments\ZStack-CC2530-2.2.2-1.3.0\Projects\zs /
//                          tack\Samples\WSN_sensors\CC2530DB\..\..\..\..\..\ /
//                          COMPONENTS\MT\" -I "C:\Texas                      /
//                          Instruments\ZStack-CC2530-2.2.2-1.3.0\Projects\zs /
//                          tack\Samples\WSN_sensors\CC2530DB\..\..\..\..\..\ /
//                          COMPONENTS\HAL\INCLUDE\" -I "C:\Texas             /
//                          Instruments\ZStack-CC2530-2.2.2-1.3.0\Projects\zs /
//                          tack\Samples\WSN_sensors\CC2530DB\..\..\..\..\..\ /
//                          COMPONENTS\HAL\TARGET\CC2530EB\" -I "C:\Texas     /
//                          Instruments\ZStack-CC2530-2.2.2-1.3.0\Projects\zs /
//                          tack\Samples\WSN_sensors\CC2530DB\..\..\..\..\..\ /
//                          COMPONENTS\OSAL\MCU\CCSOC\" -I "C:\Texas          /
//                          Instruments\ZStack-CC2530-2.2.2-1.3.0\Projects\zs /
//                          tack\Samples\WSN_sensors\CC2530DB\..\..\..\..\..\ /
//                          COMPONENTS\OSAL\INCLUDE\" -I "C:\Texas            /
//                          Instruments\ZStack-CC2530-2.2.2-1.3.0\Projects\zs /
//                          tack\Samples\WSN_sensors\CC2530DB\..\..\..\..\..\ /
//                          COMPONENTS\STACK\AF\" -I "C:\Texas                /
//                          Instruments\ZStack-CC2530-2.2.2-1.3.0\Projects\zs /
//                          tack\Samples\WSN_sensors\CC2530DB\..\..\..\..\..\ /
//                          COMPONENTS\STACK\NWK\" -I "C:\Texas               /
//                          Instruments\ZStack-CC2530-2.2.2-1.3.0\Projects\zs /
//                          tack\Samples\WSN_sensors\CC2530DB\..\..\..\..\..\ /
//                          COMPONENTS\STACK\SEC\" -I "C:\Texas               /
//                          Instruments\ZStack-CC2530-2.2.2-1.3.0\Projects\zs /
//                          tack\Samples\WSN_sensors\CC2530DB\..\..\..\..\..\ /
//                          COMPONENTS\STACK\SAPI\" -I "C:\Texas              /
//                          Instruments\ZStack-CC2530-2.2.2-1.3.0\Projects\zs /
//                          tack\Samples\WSN_sensors\CC2530DB\..\..\..\..\..\ /
//                          COMPONENTS\STACK\SYS\" -I "C:\Texas               /
//                          Instruments\ZStack-CC2530-2.2.2-1.3.0\Projects\zs /
//                          tack\Samples\WSN_sensors\CC2530DB\..\..\..\..\..\ /
//                          COMPONENTS\STACK\ZDO\" -I "C:\Texas               /
//                          Instruments\ZStack-CC2530-2.2.2-1.3.0\Projects\zs /
//                          tack\Samples\WSN_sensors\CC2530DB\..\..\..\..\..\ /
//                          COMPONENTS\ZMAC\F8W\" -I "C:\Texas                /
//                          Instruments\ZStack-CC2530-2.2.2-1.3.0\Projects\zs /
//                          tack\Samples\WSN_sensors\CC2530DB\..\..\..\..\..\ /
//                          COMPONENTS\ZMAC\" -I "C:\Texas                    /
//                          Instruments\ZStack-CC2530-2.2.2-1.3.0\Projects\zs /
//                          tack\Samples\WSN_sensors\CC2530DB\..\..\..\..\..\ /
//                          COMPONENTS\SERVICES\SADDR\" -I "C:\Texas          /
//                          Instruments\ZStack-CC2530-2.2.2-1.3.0\Projects\zs /
//                          tack\Samples\WSN_sensors\CC2530DB\..\..\..\..\..\ /
//                          COMPONENTS\SERVICES\SDATA\" -I "C:\Texas          /
//                          Instruments\ZStack-CC2530-2.2.2-1.3.0\Projects\zs /
//                          tack\Samples\WSN_sensors\CC2530DB\..\..\..\..\..\ /
//                          COMPONENTS\MAC\INCLUDE\" -I "C:\Texas             /
//                          Instruments\ZStack-CC2530-2.2.2-1.3.0\Projects\zs /
//                          tack\Samples\WSN_sensors\CC2530DB\..\..\..\..\..\ /
//                          COMPONENTS\MAC\HIGH_LEVEL\" -I "C:\Texas          /
//                          Instruments\ZStack-CC2530-2.2.2-1.3.0\Projects\zs /
//                          tack\Samples\WSN_sensors\CC2530DB\..\..\..\..\..\ /
//                          COMPONENTS\MAC\LOW_LEVEL\srf04\" -I "C:\Texas     /
//                          Instruments\ZStack-CC2530-2.2.2-1.3.0\Projects\zs /
//                          tack\Samples\WSN_sensors\CC2530DB\..\..\..\..\..\ /
//                          COMPONENTS\MAC\LOW_LEVEL\srf04\SINGLE_CHIP\" -I   /
//                          "D:\Program Files\IAR Systems\Embedded Workbench  /
//                          5.3\8051\INC\" -I "D:\Program Files\IAR           /
//                          Systems\Embedded Workbench 5.3\8051\INC\CLIB\"    /
//                          -Om                                               /
//    List file          =  C:\Texas Instruments\ZStack-CC2530-2.2.2-1.3.0\Pr /
//                          ojects\zstack\Samples\WSN_sensors\CC2530DB\Router /
//                          EB\List\nwk_globals.s51                           /
//                                                                            /
//                                                                            /
///////////////////////////////////////////////////////////////////////////////

        NAME nwk_globals

        RTMODEL "__calling_convention", "xdata_reentrant"
        RTMODEL "__code_model", "banked"
        RTMODEL "__core", "plain"
        RTMODEL "__data_model", "large"
        RTMODEL "__dptr_size", "16"
        RTMODEL "__extended_stack", "disabled"
        RTMODEL "__location_for_constants", "data"
        RTMODEL "__number_of_dptrs", "1"
        RTMODEL "__rt_version", "1"

        RSEG DOVERLAY:DATA:NOROOT(0)
        RSEG IOVERLAY:IDATA:NOROOT(0)
        RSEG ISTACK:IDATA:NOROOT(0)
        RSEG PSTACK:XDATA:NOROOT(0)
        RSEG XSTACK:XDATA:NOROOT(0)

        EXTERN ?BANKED_ENTER_XDATA
        EXTERN ?BANKED_LEAVE_XDATA
        EXTERN ?BDISPATCH
        EXTERN ?BRET
        EXTERN ?DEALLOC_XSTACK8
        EXTERN ?PUSH_XSTACK8_X_TWO
        EXTERN ?PUSH_XSTACK_I_ONE
        EXTERN ?US_SWITCH_SPARSE
        EXTERN ?V0
        EXTERN __INIT_XDATA_I
        EXTERN __INIT_XDATA_Z

        PUBLIC ??NIB_init?relay
        FUNCTION ??NIB_init?relay,0203H
        PUBLIC ??nwk_Status?relay
        FUNCTION ??nwk_Status?relay,0203H
        PUBLIC ??nwk_globals_init?relay
        FUNCTION ??nwk_globals_init?relay,0203H
        PUBLIC AssocCnfFailStr
        PUBLIC AssocCnfStr
        PUBLIC AssocIndStr
        PUBLIC AssocRspFailStr
        PUBLIC AssociatedDevList
        PUBLIC BindingTable
        PUBLIC Cskip
        PUBLIC CskipChldrn
        PUBLIC CskipRtrs
        PUBLIC EndDeviceStr
        PUBLIC EnergyLevelStr
        PUBLIC FailedStr
        PUBLIC NIB_init
        FUNCTION NIB_init,021203H
        ARGFRAME XSTACK, 0, STACK
        LOCFRAME ISTACK, 2, STACK
        PUBLIC NetworkIDStr
        PUBLIC OrphanRspStr
        PUBLIC ParentStr
        PUBLIC PingStr
        PUBLIC RouterStr
        PUBLIC ScanFailedStr
        PUBLIC SentStr
        PUBLIC SuccessStr
        PUBLIC ZigbeeCoordStr
        PUBLIC bcastHoldAckMask
        PUBLIC bcastHoldHandle
        PUBLIC bcastTable
        PUBLIC defaultKey
        PUBLIC defaultTCLinkKey
        PUBLIC gAPS_MAX_GROUPS
        PUBLIC gBIND_REC_SIZE
        PUBLIC gMAX_BCAST
        PUBLIC gMAX_BINDING_CLUSTER_IDS
        PUBLIC gMAX_NEIGHBOR_ENTRIES
        PUBLIC gMAX_RREQ_ENTRIES
        PUBLIC gMAX_RTG_ENTRIES
        PUBLIC gMAX_RTG_SRC_ENTRIES
        PUBLIC gMAX_SOURCE_ROUTE
        PUBLIC gMIN_TREE_LINK_COST
        PUBLIC gNWK_FREQ_AGILITY_ALL_MAC_ERRS
        PUBLIC gNWK_INDIRECT_CNT_RTG_TMR
        PUBLIC gNWK_INDIRECT_MSG_MAX_ALL
        PUBLIC gNWK_INDIRECT_MSG_MAX_PER
        PUBLIC gNWK_MAX_BINDING_ENTRIES
        PUBLIC gNWK_MAX_DATABUFS_CONFIRMED
        PUBLIC gNWK_MAX_DATABUFS_SCHEDULED
        PUBLIC gNWK_MAX_DATABUFS_TOTAL
        PUBLIC gNWK_MAX_DATABUFS_WAITING
        PUBLIC gNWK_MAX_DEVICE_LIST
        PUBLIC gNWK_MAX_SLEEPING_END_DEVICES
        PUBLIC gNWK_TREE_ALLOCATE_ROUTERADDR_FOR_ENDDEVICE
        PUBLIC neighborTable
        PUBLIC nwk_Status
        FUNCTION nwk_Status,0a1203H
        ARGFRAME XSTACK, 0, STACK
        LOCFRAME XSTACK, 13, STACK
        PUBLIC nwk_globals_init
        FUNCTION nwk_globals_init,021203H
        ARGFRAME XSTACK, 0, STACK
        LOCFRAME ISTACK, 2, STACK
        LOCFRAME XSTACK, 2, STACK
        PUBLIC rtDiscTable
        PUBLIC rtgTable
        
        CFI Names cfiNames0
        CFI StackFrame CFA_SP SP IDATA
        CFI StackFrame CFA_PSP16 PSP16 XDATA
        CFI StackFrame CFA_XSP16 XSP16 XDATA
        CFI StaticOverlayFrame CFA_IOVERLAY IOVERLAY
        CFI StaticOverlayFrame CFA_DOVERLAY DOVERLAY
        CFI Resource `PSW.CY`:1, `B.BR0`:1, `B.BR1`:1, `B.BR2`:1, `B.BR3`:1
        CFI Resource `B.BR4`:1, `B.BR5`:1, `B.BR6`:1, `B.BR7`:1, `VB.BR8`:1
        CFI Resource `VB.BR9`:1, `VB.BR10`:1, `VB.BR11`:1, `VB.BR12`:1
        CFI Resource `VB.BR13`:1, `VB.BR14`:1, `VB.BR15`:1, VB:8, B:8, A:8
        CFI Resource PSW:8, DPL0:8, DPH0:8, R0:8, R1:8, R2:8, R3:8, R4:8, R5:8
        CFI Resource R6:8, R7:8, V0:8, V1:8, V2:8, V3:8, V4:8, V5:8, V6:8, V7:8
        CFI Resource SP:8, PSPH:8, PSPL:8, PSP16:16, XSPH:8, XSPL:8, XSP16:16
        CFI VirtualResource ?RET:24
        CFI Resource ?BRET_EXT:8
        CFI VirtualResource ?RET_HIGH:8, ?RET_LOW:8
        CFI ResourceParts PSP16 PSPH, PSPL
        CFI ResourceParts XSP16 XSPH, XSPL
        CFI ResourceParts ?RET ?BRET_EXT, ?RET_HIGH, ?RET_LOW
        CFI EndNames cfiNames0
        
        CFI Common cfiCommon0 Using cfiNames0
        CFI CodeAlign 1
        CFI DataAlign -1
        CFI ReturnAddress ?RET CODE
        CFI CFA_DOVERLAY Used
        CFI CFA_IOVERLAY Used
        CFI CFA_SP SP+-3
        CFI CFA_PSP16 PSP16+0
        CFI CFA_XSP16 XSP16+0
        CFI `PSW.CY` SameValue
        CFI `B.BR0` SameValue
        CFI `B.BR1` SameValue
        CFI `B.BR2` SameValue
        CFI `B.BR3` SameValue
        CFI `B.BR4` SameValue
        CFI `B.BR5` SameValue
        CFI `B.BR6` SameValue
        CFI `B.BR7` SameValue
        CFI `VB.BR8` SameValue
        CFI `VB.BR9` SameValue
        CFI `VB.BR10` SameValue
        CFI `VB.BR11` SameValue
        CFI `VB.BR12` SameValue
        CFI `VB.BR13` SameValue
        CFI `VB.BR14` SameValue
        CFI `VB.BR15` SameValue
        CFI VB SameValue
        CFI B Undefined
        CFI A Undefined
        CFI PSW SameValue
        CFI DPL0 SameValue
        CFI DPH0 SameValue
        CFI R0 Undefined
        CFI R1 Undefined
        CFI R2 Undefined
        CFI R3 Undefined
        CFI R4 Undefined
        CFI R5 Undefined
        CFI R6 SameValue
        CFI R7 SameValue
        CFI V0 SameValue
        CFI V1 SameValue
        CFI V2 SameValue
        CFI V3 SameValue
        CFI V4 SameValue
        CFI V5 SameValue
        CFI V6 SameValue
        CFI V7 SameValue
        CFI PSPH Undefined
        CFI PSPL Undefined
        CFI XSPH Undefined
        CFI XSPL Undefined
        CFI ?RET Concat
        CFI ?BRET_EXT Frame(CFA_SP, 3)
        CFI ?RET_HIGH Frame(CFA_SP, 2)
        CFI ?RET_LOW Frame(CFA_SP, 1)
        CFI EndCommon cfiCommon0
        
AddrMgrInit         SYMBOL "AddrMgrInit"
osal_mem_alloc      SYMBOL "osal_mem_alloc"
RTG_FillCSkipTable  SYMBOL "RTG_FillCSkipTable"
NwkFreqAgilityInit  SYMBOL "NwkFreqAgilityInit"
osal_rand           SYMBOL "osal_rand"
osal_memset         SYMBOL "osal_memset"
sAddrExtCpy         SYMBOL "sAddrExtCpy"
NLME_InitTreeAddressing SYMBOL "NLME_InitTreeAddressing"
HalLcdWriteString   SYMBOL "HalLcdWriteString"
HalLcdWriteStringValue SYMBOL "HalLcdWriteStringValue"
BuzzerControl       SYMBOL "BuzzerControl"
HalLcdWriteScreen   SYMBOL "HalLcdWriteScreen"
HalLcdWriteValue    SYMBOL "HalLcdWriteValue"
??AddrMgrInit?relay SYMBOL "?relay", AddrMgrInit
??BuzzerControl?relay SYMBOL "?relay", BuzzerControl
??HalLcdWriteScreen?relay SYMBOL "?relay", HalLcdWriteScreen
??HalLcdWriteString?relay SYMBOL "?relay", HalLcdWriteString
??HalLcdWriteStringValue?relay SYMBOL "?relay", HalLcdWriteStringValue
??HalLcdWriteValue?relay SYMBOL "?relay", HalLcdWriteValue
??NLME_InitTreeAddressing?relay SYMBOL "?relay", NLME_InitTreeAddressing
??NwkFreqAgilityInit?relay SYMBOL "?relay", NwkFreqAgilityInit
??RTG_FillCSkipTable?relay SYMBOL "?relay", RTG_FillCSkipTable
??osal_mem_alloc?relay SYMBOL "?relay", osal_mem_alloc
??osal_memset?relay SYMBOL "?relay", osal_memset
??osal_rand?relay   SYMBOL "?relay", osal_rand
??sAddrExtCpy?relay SYMBOL "?relay", sAddrExtCpy
NIB_init            SYMBOL "NIB_init"
??NIB_init?relay    SYMBOL "?relay", NIB_init
nwk_Status          SYMBOL "nwk_Status"
??nwk_Status?relay  SYMBOL "?relay", nwk_Status
nwk_globals_init    SYMBOL "nwk_globals_init"
??nwk_globals_init?relay SYMBOL "?relay", nwk_globals_init

        EXTERN AddrMgrInit
        FUNCTION AddrMgrInit,0202H
        ARGFRAME ISTACK, 2, STACK
        ARGFRAME PSTACK, 0, STACK
        ARGFRAME XSTACK, 0, STACK
        ARGFRAME IOVERLAY, 0, STATIC
        ARGFRAME DOVERLAY, 0, STATIC
        EXTERN osal_mem_alloc
        FUNCTION osal_mem_alloc,0202H
        ARGFRAME ISTACK, 2, STACK
        ARGFRAME PSTACK, 0, STACK
        ARGFRAME XSTACK, 0, STACK
        ARGFRAME IOVERLAY, 0, STATIC
        ARGFRAME DOVERLAY, 0, STATIC
        EXTERN RTG_FillCSkipTable
        FUNCTION RTG_FillCSkipTable,0202H
        ARGFRAME ISTACK, 2, STACK
        ARGFRAME PSTACK, 0, STACK
        ARGFRAME XSTACK, 2, STACK
        ARGFRAME IOVERLAY, 0, STATIC
        ARGFRAME DOVERLAY, 0, STATIC
        EXTERN NwkFreqAgilityInit
        FUNCTION NwkFreqAgilityInit,0202H
        ARGFRAME ISTACK, 2, STACK
        ARGFRAME PSTACK, 0, STACK
        ARGFRAME XSTACK, 0, STACK
        ARGFRAME IOVERLAY, 0, STATIC
        ARGFRAME DOVERLAY, 0, STATIC
        EXTERN osal_rand
        FUNCTION osal_rand,0202H
        ARGFRAME ISTACK, 2, STACK
        ARGFRAME PSTACK, 0, STACK
        ARGFRAME XSTACK, 0, STACK
        ARGFRAME IOVERLAY, 0, STATIC
        ARGFRAME DOVERLAY, 0, STATIC
        EXTERN osal_memset
        FUNCTION osal_memset,0202H
        ARGFRAME ISTACK, 2, STACK
        ARGFRAME PSTACK, 0, STACK
        ARGFRAME XSTACK, 0, STACK
        ARGFRAME IOVERLAY, 0, STATIC
        ARGFRAME DOVERLAY, 0, STATIC
        EXTERN sAddrExtCpy
        FUNCTION sAddrExtCpy,0202H
        ARGFRAME ISTACK, 2, STACK
        ARGFRAME PSTACK, 0, STACK
        ARGFRAME XSTACK, 0, STACK
        ARGFRAME IOVERLAY, 0, STATIC
        ARGFRAME DOVERLAY, 0, STATIC
        EXTERN NLME_InitTreeAddressing
        FUNCTION NLME_InitTreeAddressing,0202H
        ARGFRAME ISTACK, 2, STACK
        ARGFRAME PSTACK, 0, STACK
        ARGFRAME XSTACK, 0, STACK
        ARGFRAME IOVERLAY, 0, STATIC
        ARGFRAME DOVERLAY, 0, STATIC
        EXTERN HalLcdWriteString
        FUNCTION HalLcdWriteString,0202H
        ARGFRAME ISTACK, 0, STACK
        ARGFRAME PSTACK, 0, STACK
        ARGFRAME XSTACK, 12, STACK
        ARGFRAME IOVERLAY, 0, STATIC
        ARGFRAME DOVERLAY, 0, STATIC
        EXTERN HalLcdWriteStringValue
        FUNCTION HalLcdWriteStringValue,0202H
        ARGFRAME ISTACK, 0, STACK
        ARGFRAME PSTACK, 0, STACK
        ARGFRAME XSTACK, 13, STACK
        ARGFRAME IOVERLAY, 0, STATIC
        ARGFRAME DOVERLAY, 0, STATIC
        EXTERN BuzzerControl
        FUNCTION BuzzerControl,0202H
        ARGFRAME ISTACK, 0, STACK
        ARGFRAME PSTACK, 0, STACK
        ARGFRAME XSTACK, 12, STACK
        ARGFRAME IOVERLAY, 0, STATIC
        ARGFRAME DOVERLAY, 0, STATIC
        EXTERN HalLcdWriteScreen
        FUNCTION HalLcdWriteScreen,0202H
        ARGFRAME ISTACK, 0, STACK
        ARGFRAME PSTACK, 0, STACK
        ARGFRAME XSTACK, 12, STACK
        ARGFRAME IOVERLAY, 0, STATIC
        ARGFRAME DOVERLAY, 0, STATIC
        EXTERN HalLcdWriteValue
        FUNCTION HalLcdWriteValue,0202H
        ARGFRAME ISTACK, 0, STACK
        ARGFRAME PSTACK, 0, STACK
        ARGFRAME XSTACK, 13, STACK
        ARGFRAME IOVERLAY, 0, STATIC
        ARGFRAME DOVERLAY, 0, STATIC
        EXTERN ??AddrMgrInit?relay
        FUNCTION ??AddrMgrInit?relay,00H
        EXTERN ??BuzzerControl?relay
        FUNCTION ??BuzzerControl?relay,00H
        EXTERN ??HalLcdWriteScreen?relay
        FUNCTION ??HalLcdWriteScreen?relay,00H
        EXTERN ??HalLcdWriteString?relay
        FUNCTION ??HalLcdWriteString?relay,00H
        EXTERN ??HalLcdWriteStringValue?relay
        FUNCTION ??HalLcdWriteStringValue?relay,00H
        EXTERN ??HalLcdWriteValue?relay
        FUNCTION ??HalLcdWriteValue?relay,00H
        EXTERN ??NLME_InitTreeAddressing?relay
        FUNCTION ??NLME_InitTreeAddressing?relay,00H
        EXTERN ??NwkFreqAgilityInit?relay
        FUNCTION ??NwkFreqAgilityInit?relay,00H
        EXTERN ??RTG_FillCSkipTable?relay
        FUNCTION ??RTG_FillCSkipTable?relay,00H
        EXTERN ??osal_mem_alloc?relay
        FUNCTION ??osal_mem_alloc?relay,00H
        EXTERN ??osal_memset?relay
        FUNCTION ??osal_memset?relay,00H
        EXTERN ??osal_rand?relay
        FUNCTION ??osal_rand?relay,00H
        EXTERN ??sAddrExtCpy?relay
        FUNCTION ??sAddrExtCpy?relay,00H
        EXTERN ZDO_Config_Node_Descriptor
        EXTERN _NIB
        EXTERN zgBcastDeliveryTime
        EXTERN zgConcentratorDiscoveryTime
        EXTERN zgConcentratorEnable
        EXTERN zgConcentratorRadius
        EXTERN zgExtendedPANID
        EXTERN zgIndirectMsgTimeout
        EXTERN zgMaxBcastRetires
        EXTERN zgPassiveAckTimeout
        EXTERN zgRouteExpiryTime

// C:\Texas Instruments\ZStack-CC2530-2.2.2-1.3.0\Components\stack\nwk\nwk_globals.c
//    1 /**************************************************************************************************
//    2   Filename:       nwk_globals.c
//    3   Revised:        $Date: 2009-09-18 17:11:21 -0700 (Fri, 18 Sep 2009) $
//    4   Revision:       $Revision: 20795 $
//    5 
//    6   Description:    User definable Network Parameters.
//    7 
//    8 
//    9   Copyright 2004-2009 Texas Instruments Incorporated. All rights reserved.
//   10 
//   11   IMPORTANT: Your use of this Software is limited to those specific rights
//   12   granted under the terms of a software license agreement between the user
//   13   who downloaded the software, his/her employer (which must be your employer)
//   14   and Texas Instruments Incorporated (the "License").  You may not use this
//   15   Software unless you agree to abide by the terms of the License. The License
//   16   limits your use, and you acknowledge, that the Software may not be modified,
//   17   copied or distributed unless embedded on a Texas Instruments microcontroller
//   18   or used solely and exclusively in conjunction with a Texas Instruments radio
//   19   frequency transceiver, which is integrated into your product.  Other than for
//   20   the foregoing purpose, you may not use, reproduce, copy, prepare derivative
//   21   works of, modify, distribute, perform, display or sell this Software and/or
//   22   its documentation for any purpose.
//   23 
//   24   YOU FURTHER ACKNOWLEDGE AND AGREE THAT THE SOFTWARE AND DOCUMENTATION ARE
//   25   PROVIDED “AS IS” WITHOUT WARRANTY OF ANY KIND, EITHER EXPRESS OR IMPLIED,
//   26   INCLUDING WITHOUT LIMITATION, ANY WARRANTY OF MERCHANTABILITY, TITLE,
//   27   NON-INFRINGEMENT AND FITNESS FOR A PARTICULAR PURPOSE. IN NO EVENT SHALL
//   28   TEXAS INSTRUMENTS OR ITS LICENSORS BE LIABLE OR OBLIGATED UNDER CONTRACT,
//   29   NEGLIGENCE, STRICT LIABILITY, CONTRIBUTION, BREACH OF WARRANTY, OR OTHER
//   30   LEGAL EQUITABLE THEORY ANY DIRECT OR INDIRECT DAMAGES OR EXPENSES
//   31   INCLUDING BUT NOT LIMITED TO ANY INCIDENTAL, SPECIAL, INDIRECT, PUNITIVE
//   32   OR CONSEQUENTIAL DAMAGES, LOST PROFITS OR LOST DATA, COST OF PROCUREMENT
//   33   OF SUBSTITUTE GOODS, TECHNOLOGY, SERVICES, OR ANY CLAIMS BY THIRD PARTIES
//   34   (INCLUDING BUT NOT LIMITED TO ANY DEFENSE THEREOF), OR OTHER SIMILAR COSTS.
//   35 
//   36   Should you have any questions regarding your right to use this Software,
//   37   contact Texas Instruments Incorporated at www.TI.com.
//   38 **************************************************************************************************/
//   39 
//   40 /*********************************************************************
//   41  * INCLUDES
//   42  */
//   43 #include "ZComdef.h"
//   44 #include "OSAL.h"
//   45 #include "AddrMgr.h"
//   46 #include "AssocList.h"
//   47 #include "BindingTable.h"
//   48 #include "nwk_util.h"
//   49 #include "nwk_globals.h"
//   50 #include "APS.h"
//   51 #include "ssp.h"
//   52 #include "rtg.h"
//   53 #include "ZDConfig.h"
//   54 #include "ZGlobals.h"
//   55 
//   56 #if defined ( LCD_SUPPORTED )
//   57   #include "OnBoard.h"
//   58 #endif
//   59 
//   60 /* HAL */
//   61 #include "hal_lcd.h"
//   62 
//   63 /*********************************************************************
//   64  * MACROS
//   65  */
//   66 
//   67 /*********************************************************************
//   68  * CONSTANTS
//   69  */
//   70 
//   71 // Maximums for the data buffer queue
//   72 #define NWK_MAX_DATABUFS_WAITING    8     // Waiting to be sent to MAC
//   73 #define NWK_MAX_DATABUFS_SCHEDULED  5     // Timed messages to be sent
//   74 #define NWK_MAX_DATABUFS_CONFIRMED  5     // Held after MAC confirms
//   75 #define NWK_MAX_DATABUFS_TOTAL      12    // Total number of buffers
//   76 
//   77 // 1-255 (0 -> 256) X RTG_TIMER_INTERVAL
//   78 // A known shortcoming is that when a message is enqueued as "hold" for a
//   79 // sleeping device, the timer tick may have counted down to 1, so that msg
//   80 // will not be held as long as expected. If NWK_INDIRECT_MSG_TIMEOUT is set to 1
//   81 // the hold time will vary randomly from 0 - CNT_RTG_TIMER ticks.
//   82 // So the hold time will vary within this interval:
//   83 // { (NWK_INDIRECT_MSG_TIMEOUT-1)*CNT_RTG_TIMER,
//   84 //                                    NWK_INDIRECT_MSG_TIMEOUT*CNT_RTG_TIMER }
//   85 #define NWK_INDIRECT_CNT_RTG_TMR    1
//   86 // To hold msg for sleeping end devices for 30 secs:
//   87 // #define CNT_RTG_TIMER            1
//   88 // #define NWK_INDIRECT_MSG_TIMEOUT 30
//   89 // To hold msg for sleeping end devices for 30 mins:
//   90 // #define CNT_RTG_TIMER            60
//   91 // #define NWK_INDIRECT_MSG_TIMEOUT 30
//   92 // To hold msg for sleeping end devices for 30 days:
//   93 // #define CNT_RTG_TIMER            60
//   94 // #define NWK_INDIRECT_MSG_TIMEOUT (30 * 24 * 60)
//   95 // Maximum msgs to hold per associated device.
//   96 #define NWK_INDIRECT_MSG_MAX_PER    3
//   97 // Maximum total msgs to hold for all associated devices.
//   98 #define NWK_INDIRECT_MSG_MAX_ALL    \ 
//   99                             (NWK_MAX_DATABUFS_TOTAL - NWK_INDIRECT_MSG_MAX_PER)
//  100 
//  101 /*********************************************************************
//  102  * TYPEDEFS
//  103  */
//  104 
//  105 /*********************************************************************
//  106  * NWK GLOBAL VARIABLES
//  107  */
//  108 
//  109 // Variables for MAX list size

        RSEG CODE_C:CODE:REORDER:NOROOT(0)
        DATA
//  110 CONST uint16 gNWK_MAX_DEVICE_LIST = NWK_MAX_DEVICES;
gNWK_MAX_DEVICE_LIST:
        DW 21
//  111 
//  112 // Variables for MAX Sleeping End Devices

        RSEG CODE_C:CODE:REORDER:NOROOT(0)
        DATA
//  113 CONST uint8 gNWK_MAX_SLEEPING_END_DEVICES = NWK_MAX_DEVICES - NWK_MAX_ROUTERS;
gNWK_MAX_SLEEPING_END_DEVICES:
        DB 15
//  114 
//  115 // Variables for MAX data buffer levels

        RSEG CODE_C:CODE:REORDER:NOROOT(0)
        DATA
//  116 CONST uint8 gNWK_MAX_DATABUFS_WAITING = NWK_MAX_DATABUFS_WAITING;
gNWK_MAX_DATABUFS_WAITING:
        DB 8

        RSEG CODE_C:CODE:REORDER:NOROOT(0)
        DATA
//  117 CONST uint8 gNWK_MAX_DATABUFS_SCHEDULED = NWK_MAX_DATABUFS_SCHEDULED;
gNWK_MAX_DATABUFS_SCHEDULED:
        DB 5

        RSEG CODE_C:CODE:REORDER:NOROOT(0)
        DATA
//  118 CONST uint8 gNWK_MAX_DATABUFS_CONFIRMED = NWK_MAX_DATABUFS_CONFIRMED;
gNWK_MAX_DATABUFS_CONFIRMED:
        DB 5

        RSEG CODE_C:CODE:REORDER:NOROOT(0)
        DATA
//  119 CONST uint8 gNWK_MAX_DATABUFS_TOTAL = NWK_MAX_DATABUFS_TOTAL;
gNWK_MAX_DATABUFS_TOTAL:
        DB 12
//  120 

        RSEG CODE_C:CODE:REORDER:NOROOT(0)
        DATA
//  121 CONST uint8 gNWK_INDIRECT_CNT_RTG_TMR = NWK_INDIRECT_CNT_RTG_TMR;
gNWK_INDIRECT_CNT_RTG_TMR:
        DB 1

        RSEG CODE_C:CODE:REORDER:NOROOT(0)
        DATA
//  122 CONST uint8 gNWK_INDIRECT_MSG_MAX_PER = NWK_INDIRECT_MSG_MAX_PER;
gNWK_INDIRECT_MSG_MAX_PER:
        DB 3

        RSEG CODE_C:CODE:REORDER:NOROOT(0)
        DATA
//  123 CONST uint8 gNWK_INDIRECT_MSG_MAX_ALL = NWK_INDIRECT_MSG_MAX_ALL;
gNWK_INDIRECT_MSG_MAX_ALL:
        DB 9
//  124 
//  125 // change this if using a different stack profile...
//  126 // Cskip array

        RSEG XDATA_Z:XDATA:NOROOT(0)
//  127 uint16 *Cskip;
Cskip:
        DS 2
        REQUIRE __INIT_XDATA_Z
//  128 
//  129 #if ( STACK_PROFILE_ID == ZIGBEEPRO_PROFILE )
//  130   uint8 CskipRtrs[1] = {0};
//  131   uint8 CskipChldrn[1] = {0};
//  132 #elif ( STACK_PROFILE_ID == HOME_CONTROLS )

        RSEG XDATA_I:XDATA:NOROOT(0)
        DATA
//  133   uint8 CskipRtrs[MAX_NODE_DEPTH+1] = {6,6,6,6,6,0};
CskipRtrs:
        DS 6
        REQUIRE `?<Initializer for CskipRtrs>`
        REQUIRE __INIT_XDATA_I

        RSEG XDATA_I:XDATA:NOROOT(0)
        DATA
//  134   uint8 CskipChldrn[MAX_NODE_DEPTH+1] = {20,20,20,20,20,0};
CskipChldrn:
        DS 6
        REQUIRE `?<Initializer for CskipChldrn>`
        REQUIRE __INIT_XDATA_I
//  135 #elif ( STACK_PROFILE_ID == GENERIC_STAR )
//  136   uint8 CskipRtrs[MAX_NODE_DEPTH+1] = {5,5,5,5,5,0};
//  137   uint8 CskipChldrn[MAX_NODE_DEPTH+1] = {5,5,5,5,5,0};
//  138 #elif ( STACK_PROFILE_ID == NETWORK_SPECIFIC )
//  139   uint8 CskipRtrs[MAX_NODE_DEPTH+1] = {5,5,5,5,5,0};
//  140   uint8 CskipChldrn[MAX_NODE_DEPTH+1] = {5,5,5,5,5,0};
//  141 #endif // STACK_PROFILE_ID
//  142 
//  143 // Minimum lqi value that is required for association

        RSEG XDATA_I:XDATA:NOROOT(0)
        DATA
//  144 uint8 gMIN_TREE_LINK_COST = MIN_LQI_COST_3;
gMIN_TREE_LINK_COST:
        DS 1
        REQUIRE `?<Initializer for gMIN_TREE_LINK_COST>`
        REQUIRE __INIT_XDATA_I
//  145 
//  146 // Statically defined Associated Device List

        RSEG XDATA_Z:XDATA:NOROOT(0)
//  147 associated_devices_t AssociatedDevList[NWK_MAX_DEVICES];
AssociatedDevList:
        DS 378
        REQUIRE __INIT_XDATA_Z
//  148 

        RSEG CODE_C:CODE:REORDER:NOROOT(0)
        DATA
//  149 CONST uint8 gMAX_RTG_ENTRIES = MAX_RTG_ENTRIES;
gMAX_RTG_ENTRIES:
        DB 40

        RSEG CODE_C:CODE:REORDER:NOROOT(0)
        DATA
//  150 CONST uint8 gMAX_RTG_SRC_ENTRIES = MAX_RTG_SRC_ENTRIES;
gMAX_RTG_SRC_ENTRIES:
        DB 12

        RSEG CODE_C:CODE:REORDER:NOROOT(0)
        DATA
//  151 CONST uint8 gMAX_RREQ_ENTRIES = MAX_RREQ_ENTRIES;
gMAX_RREQ_ENTRIES:
        DB 8
//  152 

        RSEG CODE_C:CODE:REORDER:NOROOT(0)
        DATA
//  153 CONST uint8 gMAX_NEIGHBOR_ENTRIES = MAX_NEIGHBOR_ENTRIES;
gMAX_NEIGHBOR_ENTRIES:
        DB 8
//  154 
//  155  // Table of neighboring nodes (not including child nodes)

        RSEG XDATA_Z:XDATA:NOROOT(0)
//  156 neighborEntry_t neighborTable[MAX_NEIGHBOR_ENTRIES];
neighborTable:
        DS 184
        REQUIRE __INIT_XDATA_Z
//  157 

        RSEG CODE_C:CODE:REORDER:NOROOT(0)
        DATA
//  158 CONST uint8 gMAX_SOURCE_ROUTE = MAX_SOURCE_ROUTE;
gMAX_SOURCE_ROUTE:
        DB 12
//  159 
//  160 // Routing table

        RSEG XDATA_Z:XDATA:NOROOT(0)
//  161 rtgEntry_t rtgTable[MAX_RTG_ENTRIES];
rtgTable:
        DS 280
        REQUIRE __INIT_XDATA_Z
//  162 
//  163 #if defined ( ZIGBEE_SOURCE_ROUTING )
//  164   rtgSrcEntry_t rtgSrcTable[MAX_RTG_SRC_ENTRIES];
//  165   uint16 rtgSrcRelayList[MAX_SOURCE_ROUTE];
//  166 #endif
//  167 
//  168 // Table of current RREQ packets in the network

        RSEG XDATA_Z:XDATA:NOROOT(0)
//  169 rtDiscEntry_t rtDiscTable[MAX_RREQ_ENTRIES];
rtDiscTable:
        DS 64
        REQUIRE __INIT_XDATA_Z
//  170 
//  171 // Table of data broadcast packets currently in circulation.

        RSEG XDATA_Z:XDATA:NOROOT(0)
//  172 bcastEntry_t bcastTable[MAX_BCAST];
bcastTable:
        DS 72
        REQUIRE __INIT_XDATA_Z
//  173 
//  174 // These 2 arrays are to be used as an array of struct { uint8, uint32 }.

        RSEG XDATA_Z:XDATA:NOROOT(0)
//  175 uint8 bcastHoldHandle[MAX_BCAST];
bcastHoldHandle:
        DS 9
        REQUIRE __INIT_XDATA_Z

        RSEG XDATA_Z:XDATA:NOROOT(0)
//  176 uint32 bcastHoldAckMask[MAX_BCAST];
bcastHoldAckMask:
        DS 36
        REQUIRE __INIT_XDATA_Z
//  177 

        RSEG CODE_C:CODE:REORDER:NOROOT(0)
        DATA
//  178 CONST uint8 gMAX_BCAST = MAX_BCAST;
gMAX_BCAST:
        DB 9
//  179 
//  180 // For tree addressing, this switch allows the allocation of a
//  181 // router address to an end device when end device address are
//  182 // all used up.  If this option is enabled, address space
//  183 // could be limited.

        RSEG CODE_C:CODE:REORDER:NOROOT(0)
        DATA
//  184 CONST uint8 gNWK_TREE_ALLOCATE_ROUTERADDR_FOR_ENDDEVICE = FALSE;
gNWK_TREE_ALLOCATE_ROUTERADDR_FOR_ENDDEVICE:
        DB 0
//  185 
//  186 #if defined ( ZIGBEE_STOCHASTIC_ADDRESSING )
//  187 // number of link status periods after the last received address conflict report
//  188 // (network status command)
//  189 CONST uint8 gNWK_CONFLICTED_ADDR_EXPIRY_TIME = NWK_CONFLICTED_ADDR_EXPIRY_TIME;
//  190 #endif
//  191 
//  192 #if defined ( ZIGBEE_FREQ_AGILITY )

        RSEG CODE_C:CODE:REORDER:NOROOT(0)
        DATA
//  193 CONST uint8 gNWK_FREQ_AGILITY_ALL_MAC_ERRS = NWK_FREQ_AGILITY_ALL_MAC_ERRS;
gNWK_FREQ_AGILITY_ALL_MAC_ERRS:
        DB 0
//  194 #endif
//  195   
//  196 /*********************************************************************
//  197  * APS GLOBAL VARIABLES
//  198  */
//  199 
//  200 // The Maximum number of binding records
//  201 // This number is defined in BindingTable.h - change it there.

        RSEG CODE_C:CODE:REORDER:NOROOT(0)
        DATA
//  202 CONST uint16 gNWK_MAX_BINDING_ENTRIES = NWK_MAX_BINDING_ENTRIES;
gNWK_MAX_BINDING_ENTRIES:
        DW 4
//  203 
//  204 #if defined ( REFLECTOR )
//  205   // The Maximum number of cluster IDs in a binding record
//  206   // This number is defined in BindingTable.h - change it there.

        RSEG CODE_C:CODE:REORDER:NOROOT(0)
        DATA
//  207   CONST uint8 gMAX_BINDING_CLUSTER_IDS = MAX_BINDING_CLUSTER_IDS;
gMAX_BINDING_CLUSTER_IDS:
        DB 4
//  208 

        RSEG CODE_C:CODE:REORDER:NOROOT(0)
        DATA
//  209   CONST uint16 gBIND_REC_SIZE = sizeof( BindingEntry_t );
gBIND_REC_SIZE:
        DW 14
//  210 
//  211   // Binding Table

        RSEG XDATA_Z:XDATA:NOROOT(0)
//  212   BindingEntry_t BindingTable[NWK_MAX_BINDING_ENTRIES];
BindingTable:
        DS 56
        REQUIRE __INIT_XDATA_Z
//  213 #endif
//  214 
//  215 // Maximum number allowed in the groups table.

        RSEG CODE_C:CODE:REORDER:NOROOT(0)
        DATA
//  216 CONST uint8 gAPS_MAX_GROUPS = APS_MAX_GROUPS;
gAPS_MAX_GROUPS:
        DB 16
//  217 
//  218 // APS End Device Broadcast Table
//  219 #if ( ZG_BUILD_ENDDEVICE_TYPE )
//  220   apsEndDeviceBroadcast_t apsEndDeviceBroadcastTable[APS_MAX_ENDDEVICE_BROADCAST_ENTRIES];
//  221   uint8 gAPS_MAX_ENDDEVICE_BROADCAST_ENTRIES = APS_MAX_ENDDEVICE_BROADCAST_ENTRIES;
//  222 #endif
//  223 
//  224 /*********************************************************************
//  225  * SECURITY GLOBAL VARIABLES
//  226  */
//  227 
//  228 // This is the default pre-configured key,
//  229 // change this to make a unique key
//  230 // SEC_KEY_LEN is defined in ssp.h.

        RSEG CODE_C:CODE:REORDER:NOROOT(0)
        DATA
//  231 CONST uint8 defaultKey[SEC_KEY_LEN] =
defaultKey:
        DB 0, 1, 2, 3, 4, 5, 6, 7, 8, 9, 10, 11, 12, 13, 14, 15
//  232 {
//  233 #if defined ( APP_TP ) || defined ( APP_TP2 )
//  234   // Key for ZigBee Conformance Testing
//  235   0xbb, 0xbb, 0xbb, 0xbb, 0xbb, 0xbb, 0xbb, 0xbb,
//  236   0xaa, 0xaa, 0xaa, 0xaa, 0xaa, 0xaa, 0xaa, 0xaa
//  237 #else
//  238   // Key for In-House Testing
//  239   0x00, 0x01, 0x02, 0x03, 0x04, 0x05, 0x06, 0x07,
//  240   0x08, 0x09, 0x0A, 0x0B, 0x0C, 0x0D, 0x0E, 0x0F
//  241 #endif
//  242 };
//  243 
//  244 // This is the default pre-configured Trust Center Link key,
//  245 // change this to make a unique key, SEC_KEY_LEN is defined in ssp.h.

        RSEG CODE_C:CODE:REORDER:NOROOT(0)
        DATA
//  246 CONST uint8 defaultTCLinkKey[SEC_KEY_LEN] =
defaultTCLinkKey:
        DB 86, 119, 119, 119, 119, 119, 119, 119, 119, 119, 119, 119, 119, 119
        DB 119, 119
//  247 {
//  248   0x56, 0x77, 0x77, 0x77, 0x77, 0x77, 0x77, 0x77,
//  249   0x77, 0x77, 0x77, 0x77, 0x77, 0x77, 0x77, 0x77
//  250 };
//  251 
//  252 /*********************************************************************
//  253  * STATUS STRINGS
//  254  */
//  255 #if defined ( LCD_SUPPORTED )

        RSEG XDATA_ROM_C:CONST:REORDER:NOROOT(0)
        DATA
//  256   const char PingStr[]         = "Ping Rcvd from";
PingStr:
        DB "Ping Rcvd from"

        RSEG XDATA_ROM_C:CONST:REORDER:NOROOT(0)
        DATA
//  257   const char AssocCnfStr[]     = "Assoc Cnf";
AssocCnfStr:
        DB "Assoc Cnf"

        RSEG XDATA_ROM_C:CONST:REORDER:NOROOT(0)
        DATA
//  258   const char SuccessStr[]      = "Success";
SuccessStr:
        DB "Success"

        RSEG XDATA_ROM_C:CONST:REORDER:NOROOT(0)
        DATA
//  259   const char EndDeviceStr[]    = "EndDevice:";
EndDeviceStr:
        DB "EndDevice:"

        RSEG XDATA_ROM_C:CONST:REORDER:NOROOT(0)
        DATA
//  260   const char ParentStr[]       = "Parent:";
ParentStr:
        DB "Parent:"

        RSEG XDATA_ROM_C:CONST:REORDER:NOROOT(0)
        DATA
//  261   const char ZigbeeCoordStr[]  = "ZigBee Coord";
ZigbeeCoordStr:
        DB "ZigBee Coord"

        RSEG XDATA_ROM_C:CONST:REORDER:NOROOT(0)
        DATA
//  262   const char NetworkIDStr[]    = "Network ID:";
NetworkIDStr:
        DB "Network ID:"

        RSEG XDATA_ROM_C:CONST:REORDER:NOROOT(0)
        DATA
//  263   const char RouterStr[]       = "Router:";
RouterStr:
        DB "Router:"

        RSEG XDATA_ROM_C:CONST:REORDER:NOROOT(0)
        DATA
//  264   const char OrphanRspStr[]    = "Orphan Response";
OrphanRspStr:
        DB "Orphan Response"

        RSEG XDATA_ROM_C:CONST:REORDER:NOROOT(0)
        DATA
//  265   const char SentStr[]         = "Sent";
SentStr:
        DB "Sent"

        RSEG XDATA_ROM_C:CONST:REORDER:NOROOT(0)
        DATA
//  266   const char FailedStr[]       = "Failed";
FailedStr:
        DB "Failed"

        RSEG XDATA_ROM_C:CONST:REORDER:NOROOT(0)
        DATA
//  267   const char AssocRspFailStr[] = "Assoc Rsp fail";
AssocRspFailStr:
        DB "Assoc Rsp fail"

        RSEG XDATA_ROM_C:CONST:REORDER:NOROOT(0)
        DATA
//  268   const char AssocIndStr[]     = "Assoc Ind";
AssocIndStr:
        DB "Assoc Ind"

        RSEG XDATA_ROM_C:CONST:REORDER:NOROOT(0)
        DATA
//  269   const char AssocCnfFailStr[] = "Assoc Cnf fail";
AssocCnfFailStr:
        DB "Assoc Cnf fail"

        RSEG XDATA_ROM_C:CONST:REORDER:NOROOT(0)
        DATA
//  270   const char EnergyLevelStr[]  = "Energy Level";
EnergyLevelStr:
        DB "Energy Level"

        RSEG XDATA_ROM_C:CONST:REORDER:NOROOT(0)
        DATA
//  271   const char ScanFailedStr[]   = "Scan Failed";
ScanFailedStr:
        DB "Scan Failed"
//  272 #endif
//  273 
//  274 /*********************************************************************
//  275  * @fn       nwk_globals_init()
//  276  *
//  277  * @brief
//  278  *
//  279  *   Initialize nwk layer globals.  These are the system defaults and
//  280  *   should be changed by the user here.  The default definitions are
//  281  *   defined in nwk.h or NLMEDE.h.
//  282  *
//  283  * @param   none
//  284  *
//  285  * @return  none
//  286  */

        RSEG BANKED_CODE:CODE:NOROOT(0)
//  287 void nwk_globals_init( void )
nwk_globals_init:
        CFI Block cfiBlock0 Using cfiCommon0
        CFI Function nwk_globals_init
//  288 {
        FUNCALL nwk_globals_init, AddrMgrInit
        LOCFRAME ISTACK, 2, STACK
        LOCFRAME PSTACK, 0, STACK
        LOCFRAME XSTACK, 0, STACK
        LOCFRAME IOVERLAY, 0, STATIC
        LOCFRAME DOVERLAY, 0, STATIC
        ARGFRAME ISTACK, 2, STACK
        ARGFRAME PSTACK, 0, STACK
        ARGFRAME XSTACK, 0, STACK
        ARGFRAME IOVERLAY, 0, STATIC
        ARGFRAME DOVERLAY, 0, STATIC
        FUNCALL nwk_globals_init, osal_mem_alloc
        LOCFRAME ISTACK, 2, STACK
        LOCFRAME PSTACK, 0, STACK
        LOCFRAME XSTACK, 0, STACK
        LOCFRAME IOVERLAY, 0, STATIC
        LOCFRAME DOVERLAY, 0, STATIC
        ARGFRAME ISTACK, 2, STACK
        ARGFRAME PSTACK, 0, STACK
        ARGFRAME XSTACK, 0, STACK
        ARGFRAME IOVERLAY, 0, STATIC
        ARGFRAME DOVERLAY, 0, STATIC
        FUNCALL nwk_globals_init, RTG_FillCSkipTable
        LOCFRAME ISTACK, 2, STACK
        LOCFRAME PSTACK, 0, STACK
        LOCFRAME XSTACK, 2, STACK
        LOCFRAME IOVERLAY, 0, STATIC
        LOCFRAME DOVERLAY, 0, STATIC
        ARGFRAME ISTACK, 2, STACK
        ARGFRAME PSTACK, 0, STACK
        ARGFRAME XSTACK, 2, STACK
        ARGFRAME IOVERLAY, 0, STATIC
        ARGFRAME DOVERLAY, 0, STATIC
        FUNCALL nwk_globals_init, NwkFreqAgilityInit
        LOCFRAME ISTACK, 2, STACK
        LOCFRAME PSTACK, 0, STACK
        LOCFRAME XSTACK, 0, STACK
        LOCFRAME IOVERLAY, 0, STATIC
        LOCFRAME DOVERLAY, 0, STATIC
        ARGFRAME ISTACK, 2, STACK
        ARGFRAME PSTACK, 0, STACK
        ARGFRAME XSTACK, 0, STACK
        ARGFRAME IOVERLAY, 0, STATIC
        ARGFRAME DOVERLAY, 0, STATIC
        PUSH    DPL
        CFI DPL0 Frame(CFA_SP, 4)
        CFI CFA_SP SP+-4
        PUSH    DPH
        CFI DPH0 Frame(CFA_SP, 5)
        CFI CFA_SP SP+-5
        ; Saved register size: 2
        ; Auto size: 0
//  289   AddrMgrInit( NWK_MAX_ADDRESSES );
        ; Setup parameters for call to function AddrMgrInit
        MOV     R2,#0x1a
        MOV     R3,#0x0
        LCALL   ??AddrMgrInit?relay
//  290 
//  291 #if !defined ( ZIGBEE_STOCHASTIC_ADDRESSING )
//  292   if ( ZSTACK_ROUTER_BUILD )
//  293   {
//  294     // Initialize the Cskip Table
//  295     Cskip = osal_mem_alloc(sizeof(uint16) *(MAX_NODE_DEPTH+1));
        ; Setup parameters for call to function osal_mem_alloc
        MOV     R2,#0xc
        MOV     R3,#0x0
        LCALL   ??osal_mem_alloc?relay
        MOV     DPTR,#Cskip
        MOV     A,R2
        MOVX    @DPTR,A
        INC     DPTR
        MOV     A,R3
        MOVX    @DPTR,A
//  296     RTG_FillCSkipTable(CskipChldrn, CskipRtrs, MAX_NODE_DEPTH, Cskip);
        ; Setup parameters for call to function RTG_FillCSkipTable
        MOV     DPTR,#Cskip
        LCALL   ?PUSH_XSTACK8_X_TWO
        CFI CFA_XSP16 add(XSP16, 2)
        MOV     R1,#0x5
        MOV     R4,#(CskipRtrs & 0xff)
        MOV     R5,#((CskipRtrs >> 8) & 0xff)
        MOV     R2,#(CskipChldrn & 0xff)
        MOV     R3,#((CskipChldrn >> 8) & 0xff)
        LCALL   ??RTG_FillCSkipTable?relay
        MOV     A,#0x2
        LCALL   ?DEALLOC_XSTACK8
        CFI CFA_XSP16 XSP16+0
//  297   }
//  298 #endif
//  299 
//  300   // To compile out the Link Status Feature, set NWK_LINK_STATUS_PERIOD
//  301   // to 0 (compiler flag).
//  302   if ( NWK_LINK_STATUS_PERIOD )
//  303   {
//  304     NLME_InitLinkStatus();
//  305   }
//  306 
//  307 #if defined ( ZIGBEE_FREQ_AGILITY )
//  308   NwkFreqAgilityInit();
        ; Setup parameters for call to function NwkFreqAgilityInit
        LCALL   ??NwkFreqAgilityInit?relay
//  309 #endif
//  310 }
        POP     DPH
        CFI DPH0 SameValue
        CFI CFA_SP SP+-4
        POP     DPL
        CFI DPL0 SameValue
        CFI CFA_SP SP+-3
        LJMP    ?BRET
        CFI EndBlock cfiBlock0
//  311 
//  312 /*********************************************************************
//  313  * @fn       NIB_init()
//  314  *
//  315  * @brief
//  316  *
//  317  *   Initialize attribute values in NIB
//  318  *
//  319  * @param   none
//  320  *
//  321  * @return  none
//  322  */

        RSEG BANKED_CODE:CODE:NOROOT(0)
//  323 void NIB_init()
NIB_init:
        CFI Block cfiBlock1 Using cfiCommon0
        CFI Function NIB_init
//  324 {
        FUNCALL NIB_init, osal_rand
        LOCFRAME ISTACK, 2, STACK
        LOCFRAME PSTACK, 0, STACK
        LOCFRAME XSTACK, 0, STACK
        LOCFRAME IOVERLAY, 0, STATIC
        LOCFRAME DOVERLAY, 0, STATIC
        ARGFRAME ISTACK, 2, STACK
        ARGFRAME PSTACK, 0, STACK
        ARGFRAME XSTACK, 0, STACK
        ARGFRAME IOVERLAY, 0, STATIC
        ARGFRAME DOVERLAY, 0, STATIC
        FUNCALL NIB_init, osal_memset
        LOCFRAME ISTACK, 2, STACK
        LOCFRAME PSTACK, 0, STACK
        LOCFRAME XSTACK, 0, STACK
        LOCFRAME IOVERLAY, 0, STATIC
        LOCFRAME DOVERLAY, 0, STATIC
        ARGFRAME ISTACK, 2, STACK
        ARGFRAME PSTACK, 0, STACK
        ARGFRAME XSTACK, 0, STACK
        ARGFRAME IOVERLAY, 0, STATIC
        ARGFRAME DOVERLAY, 0, STATIC
        FUNCALL NIB_init, sAddrExtCpy
        LOCFRAME ISTACK, 2, STACK
        LOCFRAME PSTACK, 0, STACK
        LOCFRAME XSTACK, 0, STACK
        LOCFRAME IOVERLAY, 0, STATIC
        LOCFRAME DOVERLAY, 0, STATIC
        ARGFRAME ISTACK, 2, STACK
        ARGFRAME PSTACK, 0, STACK
        ARGFRAME XSTACK, 0, STACK
        ARGFRAME IOVERLAY, 0, STATIC
        ARGFRAME DOVERLAY, 0, STATIC
        FUNCALL NIB_init, NLME_InitTreeAddressing
        LOCFRAME ISTACK, 2, STACK
        LOCFRAME PSTACK, 0, STACK
        LOCFRAME XSTACK, 0, STACK
        LOCFRAME IOVERLAY, 0, STATIC
        LOCFRAME DOVERLAY, 0, STATIC
        ARGFRAME ISTACK, 2, STACK
        ARGFRAME PSTACK, 0, STACK
        ARGFRAME XSTACK, 0, STACK
        ARGFRAME IOVERLAY, 0, STATIC
        ARGFRAME DOVERLAY, 0, STATIC
        PUSH    DPL
        CFI DPL0 Frame(CFA_SP, 4)
        CFI CFA_SP SP+-4
        PUSH    DPH
        CFI DPH0 Frame(CFA_SP, 5)
        CFI CFA_SP SP+-5
        ; Saved register size: 2
        ; Auto size: 0
//  325   _NIB.SequenceNum = LO_UINT16(osal_rand());
        ; Setup parameters for call to function osal_rand
        LCALL   ??osal_rand?relay
        MOV     A,R2
        MOV     DPTR,#_NIB
        MOVX    @DPTR,A
//  326 
//  327   _NIB.nwkProtocolVersion = ZB_PROT_VERS;
        MOV     A,#0x2
        MOV     DPTR,#(_NIB + 17)
        MOVX    @DPTR,A
//  328   _NIB.MaxDepth = MAX_NODE_DEPTH;
        MOV     A,#0x5
        MOV     DPTR,#(_NIB + 4)
        MOVX    @DPTR,A
//  329 
//  330 #if ( NWK_MODE == NWK_MODE_MESH )
//  331   _NIB.beaconOrder = BEACON_ORDER_NO_BEACONS;
        MOV     A,#0xf
        MOV     DPTR,#(_NIB + 40)
        MOVX    @DPTR,A
//  332   _NIB.superFrameOrder = BEACON_ORDER_NO_BEACONS;
        MOV     DPTR,#(_NIB + 41)
        MOVX    @DPTR,A
//  333 #endif
//  334 
//  335   // BROADCAST SETTINGS:
//  336   // *******************
//  337   //   Broadcast Delivery Time
//  338   //     - set to multiples of 100ms
//  339   //     - should be 500ms more than the retry time
//  340   //       -  "retry time" = PassiveAckTimeout * (MaxBroadcastRetries + 1)
//  341   //   Passive Ack Timeout
//  342   //     - set to multiples of 100ms
//  343   _NIB.BroadcastDeliveryTime = zgBcastDeliveryTime;
        MOV     DPTR,#zgBcastDeliveryTime
        MOVX    A,@DPTR
        MOV     DPTR,#(_NIB + 7)
        MOVX    @DPTR,A
//  344   _NIB.PassiveAckTimeout     = zgPassiveAckTimeout;
        MOV     DPTR,#zgPassiveAckTimeout
        MOVX    A,@DPTR
        MOV     DPTR,#(_NIB + 1)
        MOVX    @DPTR,A
//  345   _NIB.MaxBroadcastRetries   = zgMaxBcastRetires;
        MOV     DPTR,#zgMaxBcastRetires
        MOVX    A,@DPTR
        MOV     DPTR,#(_NIB + 2)
        MOVX    @DPTR,A
//  346 
//  347   _NIB.ReportConstantCost = 0;
        CLR     A
        MOV     DPTR,#(_NIB + 8)
        MOVX    @DPTR,A
//  348   _NIB.RouteDiscRetries = 0;
        MOV     DPTR,#(_NIB + 9)
        MOVX    @DPTR,A
//  349   _NIB.SecureAllFrames = USE_NWK_SECURITY;
        MOV     DPTR,#(_NIB + 11)
        MOVX    @DPTR,A
//  350   _NIB.nwkAllFresh = NWK_ALL_FRESH;
        MOV     A,#0x1
        MOV     DPTR,#(_NIB + 104)
        MOVX    @DPTR,A
//  351 
//  352   if ( ZG_SECURE_ENABLED )
//  353   {
//  354     _NIB.SecurityLevel = SECURITY_LEVEL;
//  355   }
//  356   else
//  357   {
//  358     _NIB.SecurityLevel = 0;
        CLR     A
        MOV     DPTR,#(_NIB + 12)
        MOVX    @DPTR,A
//  359   }
//  360 
//  361 #if defined ( ZIGBEEPRO )
//  362   _NIB.SymLink = FALSE;
//  363 #else
//  364   _NIB.SymLink = TRUE;
        MOV     A,#0x1
        MOV     DPTR,#(_NIB + 13)
        MOVX    @DPTR,A
//  365 #endif
//  366 
//  367   _NIB.CapabilityInfo = ZDO_Config_Node_Descriptor.CapabilityFlags;
        MOV     DPTR,#(ZDO_Config_Node_Descriptor + 2)
        MOVX    A,@DPTR
        MOV     DPTR,#(_NIB + 14)
        MOVX    @DPTR,A
//  368 
//  369   _NIB.TransactionPersistenceTime = zgIndirectMsgTimeout;
        MOV     DPTR,#zgIndirectMsgTimeout
        MOVX    A,@DPTR
        MOV     DPTR,#(_NIB + 15)
        MOVX    @DPTR,A
        INC     DPTR
        CLR     A
        MOVX    @DPTR,A
//  370 
//  371   _NIB.RouteDiscoveryTime = 5;
        MOV     A,#0x5
        MOV     DPTR,#(_NIB + 18)
        MOVX    @DPTR,A
//  372   _NIB.RouteExpiryTime = zgRouteExpiryTime;
        MOV     DPTR,#zgRouteExpiryTime
        MOVX    A,@DPTR
        MOV     DPTR,#(_NIB + 19)
        MOVX    @DPTR,A
//  373 
//  374   _NIB.nwkDevAddress = INVALID_NODE_ADDR;
        MOV     DPTR,#(_NIB + 20)
        MOV     A,#-0x2
        MOVX    @DPTR,A
        INC     DPTR
        MOV     A,#-0x1
        MOVX    @DPTR,A
//  375   _NIB.nwkLogicalChannel = 0;
        CLR     A
        MOV     DPTR,#(_NIB + 22)
        MOVX    @DPTR,A
//  376   _NIB.nwkCoordAddress = INVALID_NODE_ADDR;
        MOV     DPTR,#(_NIB + 23)
        MOV     A,#-0x2
        MOVX    @DPTR,A
        INC     DPTR
        MOV     A,#-0x1
        MOVX    @DPTR,A
//  377   osal_memset( _NIB.nwkCoordExtAddress, 0, Z_EXTADDR_LEN );
        ; Setup parameters for call to function osal_memset
        MOV     R4,#0x8
        MOV     R5,#0x0
        MOV     R1,#0x0
        MOV     R2,#((_NIB + 25) & 0xff)
        MOV     R3,#(((_NIB + 25) >> 8) & 0xff)
        LCALL   ??osal_memset?relay
//  378   _NIB.nwkPanId = INVALID_NODE_ADDR;
        MOV     DPTR,#(_NIB + 33)
        MOV     A,#-0x2
        MOVX    @DPTR,A
        INC     DPTR
        MOV     A,#-0x1
        MOVX    @DPTR,A
//  379 
//  380   osal_cpyExtAddr( _NIB.extendedPANID, zgExtendedPANID );
        ; Setup parameters for call to function sAddrExtCpy
        MOV     R4,#(zgExtendedPANID & 0xff)
        MOV     R5,#((zgExtendedPANID >> 8) & 0xff)
        MOV     R2,#((_NIB + 53) & 0xff)
        MOV     R3,#(((_NIB + 53) >> 8) & 0xff)
        LCALL   ??sAddrExtCpy?relay
//  381 
//  382   _NIB.nwkKeyLoaded = FALSE;
        CLR     A
        MOV     DPTR,#(_NIB + 61)
        MOVX    @DPTR,A
//  383 
//  384 #if defined ( ZIGBEE_STOCHASTIC_ADDRESSING )
//  385   _NIB.nwkAddrAlloc  = NWK_ADDRESSING_STOCHASTIC;
//  386   _NIB.nwkUniqueAddr = FALSE;
//  387 #else
//  388   _NIB.nwkAddrAlloc  = NWK_ADDRESSING_DISTRIBUTED;
        MOV     DPTR,#(_NIB + 96)
        MOVX    @DPTR,A
//  389   _NIB.nwkUniqueAddr = TRUE;
        MOV     A,#0x1
        MOV     DPTR,#(_NIB + 97)
        MOVX    @DPTR,A
//  390 #endif
//  391 
//  392   _NIB.nwkLinkStatusPeriod = NWK_LINK_STATUS_PERIOD;
        CLR     A
        MOV     DPTR,#(_NIB + 98)
        MOVX    @DPTR,A
//  393   _NIB.nwkRouterAgeLimit = NWK_ROUTE_AGE_LIMIT;
        MOV     A,#0x3
        MOV     DPTR,#(_NIB + 99)
        MOVX    @DPTR,A
//  394   //MTO routing
//  395   _NIB.nwkConcentratorDiscoveryTime = zgConcentratorDiscoveryTime;
        MOV     DPTR,#zgConcentratorDiscoveryTime
        MOVX    A,@DPTR
        MOV     DPTR,#(_NIB + 102)
        MOVX    @DPTR,A
//  396   _NIB.nwkIsConcentrator = zgConcentratorEnable;
        MOV     DPTR,#zgConcentratorEnable
        MOVX    A,@DPTR
        MOV     DPTR,#(_NIB + 101)
        MOVX    @DPTR,A
//  397   _NIB.nwkConcentratorRadius = zgConcentratorRadius;
        MOV     DPTR,#zgConcentratorRadius
        MOVX    A,@DPTR
        MOV     DPTR,#(_NIB + 103)
        MOVX    @DPTR,A
//  398 
//  399 #if defined ( ZIGBEE_MULTICAST )
//  400   _NIB.nwkUseMultiCast = TRUE;
//  401 #else
//  402   _NIB.nwkUseMultiCast = FALSE;
        CLR     A
        MOV     DPTR,#(_NIB + 100)
        MOVX    @DPTR,A
//  403 #endif
//  404   _NIB.nwkManagerAddr = 0x0000;
        MOV     DPTR,#(_NIB + 105)
        MOVX    @DPTR,A
        INC     DPTR
        MOVX    @DPTR,A
//  405   _NIB.nwkUpdateId = 0;
        MOV     DPTR,#(_NIB + 109)
        MOVX    @DPTR,A
//  406   _NIB.nwkTotalTransmissions = 0;
        MOV     DPTR,#(_NIB + 107)
        MOVX    @DPTR,A
        INC     DPTR
        MOVX    @DPTR,A
//  407 
//  408   if ( ZSTACK_ROUTER_BUILD )
//  409   {
//  410 #if defined ( ZIGBEE_STOCHASTIC_ADDRESSING )
//  411     NLME_InitStochasticAddressing();
//  412 #else
//  413     NLME_InitTreeAddressing();
        ; Setup parameters for call to function NLME_InitTreeAddressing
        LCALL   ??NLME_InitTreeAddressing?relay
//  414 #endif
//  415   }
//  416 }
        POP     DPH
        CFI DPH0 SameValue
        CFI CFA_SP SP+-4
        POP     DPL
        CFI DPL0 SameValue
        CFI CFA_SP SP+-3
        LJMP    ?BRET
        CFI EndBlock cfiBlock1
//  417 
//  418 /*********************************************************************
//  419  * @fn       nwk_Status()
//  420  *
//  421  * @brief
//  422  *
//  423  *   Status report.
//  424  *
//  425  * @param   statusCode
//  426  * @param   statusValue
//  427  *
//  428  * @return  none
//  429  */

        RSEG BANKED_CODE:CODE:NOROOT(0)
//  430 void nwk_Status( uint16 statusCode, uint16 statusValue )
nwk_Status:
        CFI Block cfiBlock2 Using cfiCommon0
        CFI Function nwk_Status
//  431 {
        FUNCALL nwk_Status, HalLcdWriteString
        LOCFRAME ISTACK, 0, STACK
        LOCFRAME PSTACK, 0, STACK
        LOCFRAME XSTACK, 12, STACK
        LOCFRAME IOVERLAY, 0, STATIC
        LOCFRAME DOVERLAY, 0, STATIC
        ARGFRAME ISTACK, 0, STACK
        ARGFRAME PSTACK, 0, STACK
        ARGFRAME XSTACK, 12, STACK
        ARGFRAME IOVERLAY, 0, STATIC
        ARGFRAME DOVERLAY, 0, STATIC
        FUNCALL nwk_Status, HalLcdWriteStringValue
        LOCFRAME ISTACK, 0, STACK
        LOCFRAME PSTACK, 0, STACK
        LOCFRAME XSTACK, 13, STACK
        LOCFRAME IOVERLAY, 0, STATIC
        LOCFRAME DOVERLAY, 0, STATIC
        ARGFRAME ISTACK, 0, STACK
        ARGFRAME PSTACK, 0, STACK
        ARGFRAME XSTACK, 13, STACK
        ARGFRAME IOVERLAY, 0, STATIC
        ARGFRAME DOVERLAY, 0, STATIC
        FUNCALL nwk_Status, BuzzerControl
        LOCFRAME ISTACK, 0, STACK
        LOCFRAME PSTACK, 0, STACK
        LOCFRAME XSTACK, 12, STACK
        LOCFRAME IOVERLAY, 0, STATIC
        LOCFRAME DOVERLAY, 0, STATIC
        ARGFRAME ISTACK, 0, STACK
        ARGFRAME PSTACK, 0, STACK
        ARGFRAME XSTACK, 12, STACK
        ARGFRAME IOVERLAY, 0, STATIC
        ARGFRAME DOVERLAY, 0, STATIC
        FUNCALL nwk_Status, HalLcdWriteStringValue
        LOCFRAME ISTACK, 0, STACK
        LOCFRAME PSTACK, 0, STACK
        LOCFRAME XSTACK, 13, STACK
        LOCFRAME IOVERLAY, 0, STATIC
        LOCFRAME DOVERLAY, 0, STATIC
        ARGFRAME ISTACK, 0, STACK
        ARGFRAME PSTACK, 0, STACK
        ARGFRAME XSTACK, 13, STACK
        ARGFRAME IOVERLAY, 0, STATIC
        ARGFRAME DOVERLAY, 0, STATIC
        FUNCALL nwk_Status, HalLcdWriteScreen
        LOCFRAME ISTACK, 0, STACK
        LOCFRAME PSTACK, 0, STACK
        LOCFRAME XSTACK, 12, STACK
        LOCFRAME IOVERLAY, 0, STATIC
        LOCFRAME DOVERLAY, 0, STATIC
        ARGFRAME ISTACK, 0, STACK
        ARGFRAME PSTACK, 0, STACK
        ARGFRAME XSTACK, 12, STACK
        ARGFRAME IOVERLAY, 0, STATIC
        ARGFRAME DOVERLAY, 0, STATIC
        FUNCALL nwk_Status, HalLcdWriteScreen
        LOCFRAME ISTACK, 0, STACK
        LOCFRAME PSTACK, 0, STACK
        LOCFRAME XSTACK, 12, STACK
        LOCFRAME IOVERLAY, 0, STATIC
        LOCFRAME DOVERLAY, 0, STATIC
        ARGFRAME ISTACK, 0, STACK
        ARGFRAME PSTACK, 0, STACK
        ARGFRAME XSTACK, 12, STACK
        ARGFRAME IOVERLAY, 0, STATIC
        ARGFRAME DOVERLAY, 0, STATIC
        FUNCALL nwk_Status, HalLcdWriteString
        LOCFRAME ISTACK, 0, STACK
        LOCFRAME PSTACK, 0, STACK
        LOCFRAME XSTACK, 12, STACK
        LOCFRAME IOVERLAY, 0, STATIC
        LOCFRAME DOVERLAY, 0, STATIC
        ARGFRAME ISTACK, 0, STACK
        ARGFRAME PSTACK, 0, STACK
        ARGFRAME XSTACK, 12, STACK
        ARGFRAME IOVERLAY, 0, STATIC
        ARGFRAME DOVERLAY, 0, STATIC
        FUNCALL nwk_Status, HalLcdWriteValue
        LOCFRAME ISTACK, 0, STACK
        LOCFRAME PSTACK, 0, STACK
        LOCFRAME XSTACK, 13, STACK
        LOCFRAME IOVERLAY, 0, STATIC
        LOCFRAME DOVERLAY, 0, STATIC
        ARGFRAME ISTACK, 0, STACK
        ARGFRAME PSTACK, 0, STACK
        ARGFRAME XSTACK, 13, STACK
        ARGFRAME IOVERLAY, 0, STATIC
        ARGFRAME DOVERLAY, 0, STATIC
        FUNCALL nwk_Status, HalLcdWriteStringValue
        LOCFRAME ISTACK, 0, STACK
        LOCFRAME PSTACK, 0, STACK
        LOCFRAME XSTACK, 13, STACK
        LOCFRAME IOVERLAY, 0, STATIC
        LOCFRAME DOVERLAY, 0, STATIC
        ARGFRAME ISTACK, 0, STACK
        ARGFRAME PSTACK, 0, STACK
        ARGFRAME XSTACK, 13, STACK
        ARGFRAME IOVERLAY, 0, STATIC
        ARGFRAME DOVERLAY, 0, STATIC
        FUNCALL nwk_Status, HalLcdWriteScreen
        LOCFRAME ISTACK, 0, STACK
        LOCFRAME PSTACK, 0, STACK
        LOCFRAME XSTACK, 12, STACK
        LOCFRAME IOVERLAY, 0, STATIC
        LOCFRAME DOVERLAY, 0, STATIC
        ARGFRAME ISTACK, 0, STACK
        ARGFRAME PSTACK, 0, STACK
        ARGFRAME XSTACK, 12, STACK
        ARGFRAME IOVERLAY, 0, STATIC
        ARGFRAME DOVERLAY, 0, STATIC
        FUNCALL nwk_Status, HalLcdWriteString
        LOCFRAME ISTACK, 0, STACK
        LOCFRAME PSTACK, 0, STACK
        LOCFRAME XSTACK, 12, STACK
        LOCFRAME IOVERLAY, 0, STATIC
        LOCFRAME DOVERLAY, 0, STATIC
        ARGFRAME ISTACK, 0, STACK
        ARGFRAME PSTACK, 0, STACK
        ARGFRAME XSTACK, 12, STACK
        ARGFRAME IOVERLAY, 0, STATIC
        ARGFRAME DOVERLAY, 0, STATIC
        FUNCALL nwk_Status, HalLcdWriteValue
        LOCFRAME ISTACK, 0, STACK
        LOCFRAME PSTACK, 0, STACK
        LOCFRAME XSTACK, 13, STACK
        LOCFRAME IOVERLAY, 0, STATIC
        LOCFRAME DOVERLAY, 0, STATIC
        ARGFRAME ISTACK, 0, STACK
        ARGFRAME PSTACK, 0, STACK
        ARGFRAME XSTACK, 13, STACK
        ARGFRAME IOVERLAY, 0, STATIC
        ARGFRAME DOVERLAY, 0, STATIC
        FUNCALL nwk_Status, HalLcdWriteScreen
        LOCFRAME ISTACK, 0, STACK
        LOCFRAME PSTACK, 0, STACK
        LOCFRAME XSTACK, 12, STACK
        LOCFRAME IOVERLAY, 0, STATIC
        LOCFRAME DOVERLAY, 0, STATIC
        ARGFRAME ISTACK, 0, STACK
        ARGFRAME PSTACK, 0, STACK
        ARGFRAME XSTACK, 12, STACK
        ARGFRAME IOVERLAY, 0, STATIC
        ARGFRAME DOVERLAY, 0, STATIC
        MOV     A,#-0xc
        LCALL   ?BANKED_ENTER_XDATA
        CFI DPH0 load(1, XDATA, add(CFA_XSP16, literal(-1)))
        CFI DPL0 load(1, XDATA, add(CFA_XSP16, literal(-2)))
        CFI ?BRET_EXT load(1, XDATA, add(CFA_XSP16, literal(-3)))
        CFI ?RET_HIGH load(1, XDATA, add(CFA_XSP16, literal(-4)))
        CFI ?RET_LOW load(1, XDATA, add(CFA_XSP16, literal(-5)))
        CFI R7 load(1, XDATA, add(CFA_XSP16, literal(-6)))
        CFI V3 load(1, XDATA, add(CFA_XSP16, literal(-7)))
        CFI V2 load(1, XDATA, add(CFA_XSP16, literal(-8)))
        CFI V1 load(1, XDATA, add(CFA_XSP16, literal(-9)))
        CFI V0 load(1, XDATA, add(CFA_XSP16, literal(-10)))
        CFI VB load(1, XDATA, add(CFA_XSP16, literal(-11)))
        CFI R6 load(1, XDATA, add(CFA_XSP16, literal(-12)))
        CFI CFA_SP SP+0
        CFI CFA_XSP16 add(XSP16, 12)
        ; Saved register size: 12
        ; Auto size: 0
        MOV     ?V0 + 0,R4
        MOV     ?V0 + 1,R5
//  432 #if defined ( LCD_SUPPORTED )
//  433   switch ( statusCode )
        MOV     ?V0 + 2,R2
        MOV     ?V0 + 3,R3
        MOV     R0,#?V0 + 2
        LCALL   ?US_SWITCH_SPARSE
`?<Jumptable for nwk_Status>_0`:
        DATA
        DW        0
        DW        8
        DW        2
        DW        ??nwk_Status_0
        DW        4
        DW        ??nwk_Status_1
        DW        5
        DW        ??nwk_Status_2
        DW        6
        DW        ??nwk_Status_3
        DW        7
        DW        ??nwk_Status_4
        DW        4097
        DW        ??nwk_Status_5
        DW        4099
        DW        ??nwk_Status_6
        DW        4100
        DW        ??nwk_Status_7
        DW        ??nwk_Status_8
        CODE
//  434   {
//  435     case NWK_STATUS_COORD_ADDR:
//  436       if ( ZSTACK_ROUTER_BUILD )
//  437       {
//  438         HalLcdWriteString( (char*)ZigbeeCoordStr, HAL_LCD_LINE_1 );
??nwk_Status_2:
        ; Setup parameters for call to function HalLcdWriteString
        MOV     R1,#0x1
        MOV     R2,#(ZigbeeCoordStr & 0xff)
        MOV     R3,#((ZigbeeCoordStr >> 8) & 0xff)
        LCALL   ??HalLcdWriteString?relay
//  439         HalLcdWriteStringValue( (char*)NetworkIDStr, statusValue, 16, HAL_LCD_LINE_2 );
        ; Setup parameters for call to function HalLcdWriteStringValue
        MOV     ?V0 + 2,#0x2
        MOV     R0,#?V0 + 2
        LCALL   ?PUSH_XSTACK_I_ONE
        CFI CFA_XSP16 add(XSP16, 13)
        MOV     R1,#0x10
        MOV     R4,?V0 + 0
        MOV     R5,?V0 + 1
        MOV     R2,#(NetworkIDStr & 0xff)
        MOV     R3,#((NetworkIDStr >> 8) & 0xff)
        LCALL   ??HalLcdWriteStringValue?relay
        MOV     A,#0x1
        LCALL   ?DEALLOC_XSTACK8
        CFI CFA_XSP16 add(XSP16, 12)
//  440         BuzzerControl( BUZZER_BLIP );
        ; Setup parameters for call to function BuzzerControl
        MOV     R1,#0x2
        LCALL   ??BuzzerControl?relay
        SJMP    ??nwk_Status_8
//  441       }
//  442       break;
//  443 
//  444     case NWK_STATUS_ROUTER_ADDR:
//  445       if ( ZSTACK_ROUTER_BUILD )
//  446       {
//  447         HalLcdWriteStringValue( (char*)RouterStr, statusValue, 16, HAL_LCD_LINE_1 );
??nwk_Status_3:
        ; Setup parameters for call to function HalLcdWriteStringValue
        MOV     ?V0 + 2,#0x1
        MOV     R0,#?V0 + 2
        LCALL   ?PUSH_XSTACK_I_ONE
        CFI CFA_XSP16 add(XSP16, 13)
        MOV     R1,#0x10
        MOV     R2,#(RouterStr & 0xff)
        MOV     R3,#((RouterStr >> 8) & 0xff)
??nwk_Status_9:
        LCALL   ??HalLcdWriteStringValue?relay
??nwk_Status_10:
        MOV     A,#0x1
        LCALL   ?DEALLOC_XSTACK8
        CFI CFA_XSP16 add(XSP16, 12)
        SJMP    ??nwk_Status_8
//  448       }
//  449       break;
//  450 
//  451     case NWK_STATUS_ORPHAN_RSP:
//  452       if ( ZSTACK_ROUTER_BUILD )
//  453       {
//  454         if ( statusValue == ZSuccess )
??nwk_Status_4:
        MOV     R2,#(OrphanRspStr & 0xff)
        MOV     R3,#((OrphanRspStr >> 8) & 0xff)
        MOV     A,R4
        JNZ     ??nwk_Status_11
        MOV     A,R5
??nwk_Status_11:
        JNZ     ??nwk_Status_12
//  455           HalLcdWriteScreen( (char*)OrphanRspStr, (char*)SentStr );
        ; Setup parameters for call to function HalLcdWriteScreen
        MOV     R4,#(SentStr & 0xff)
        MOV     R5,#((SentStr >> 8) & 0xff)
        SJMP    ??nwk_Status_13
//  456         else
//  457           HalLcdWriteScreen( (char*)OrphanRspStr, (char*)FailedStr );
??nwk_Status_12:
        ; Setup parameters for call to function HalLcdWriteScreen
        MOV     R4,#(FailedStr & 0xff)
        MOV     R5,#((FailedStr >> 8) & 0xff)
        SJMP    ??nwk_Status_13
//  458       }
//  459       break;
//  460 
//  461     case NWK_ERROR_ASSOC_RSP:
//  462       if ( ZSTACK_ROUTER_BUILD )
//  463       {
//  464         HalLcdWriteString( (char*)AssocRspFailStr, HAL_LCD_LINE_1 );
??nwk_Status_5:
        ; Setup parameters for call to function HalLcdWriteString
        MOV     R1,#0x1
        MOV     R2,#(AssocRspFailStr & 0xff)
        MOV     R3,#((AssocRspFailStr >> 8) & 0xff)
??nwk_Status_14:
        LCALL   ??HalLcdWriteString?relay
//  465         HalLcdWriteValue( (uint32)(statusValue), 16, HAL_LCD_LINE_2 );
        ; Setup parameters for call to function HalLcdWriteValue
        MOV     ?V0 + 2,#0x2
        MOV     R0,#?V0 + 2
        LCALL   ?PUSH_XSTACK_I_ONE
        CFI CFA_XSP16 add(XSP16, 13)
        MOV     R1,#0x10
        MOV     R2,?V0 + 0
        MOV     R3,?V0 + 1
        MOV     R4,#0x0
        MOV     R5,#0x0
        LCALL   ??HalLcdWriteValue?relay
        SJMP    ??nwk_Status_10
        CFI CFA_XSP16 add(XSP16, 12)
//  466       }
//  467       break;
//  468 
//  469     case NWK_STATUS_ED_ADDR:
//  470       if ( ZSTACK_END_DEVICE_BUILD )
//  471       {
//  472         HalLcdWriteStringValue( (char*)EndDeviceStr, statusValue, 16, HAL_LCD_LINE_1 );
//  473       }
//  474       break;
//  475 
//  476     case NWK_STATUS_PARENT_ADDR:
//  477             HalLcdWriteStringValue( (char*)ParentStr, statusValue, 16, HAL_LCD_LINE_2 );
??nwk_Status_1:
        ; Setup parameters for call to function HalLcdWriteStringValue
        MOV     ?V0 + 2,#0x2
        MOV     R0,#?V0 + 2
        LCALL   ?PUSH_XSTACK_I_ONE
        CFI CFA_XSP16 add(XSP16, 13)
        MOV     R1,#0x10
        MOV     R2,#(ParentStr & 0xff)
        MOV     R3,#((ParentStr >> 8) & 0xff)
        SJMP    ??nwk_Status_9
        CFI CFA_XSP16 add(XSP16, 12)
//  478       break;
//  479 
//  480     case NWK_STATUS_ASSOC_CNF:
//  481       HalLcdWriteScreen( (char*)AssocCnfStr, (char*)SuccessStr );
??nwk_Status_0:
        ; Setup parameters for call to function HalLcdWriteScreen
        MOV     R4,#(SuccessStr & 0xff)
        MOV     R5,#((SuccessStr >> 8) & 0xff)
        MOV     R2,#(AssocCnfStr & 0xff)
        MOV     R3,#((AssocCnfStr >> 8) & 0xff)
        SJMP    ??nwk_Status_13
//  482       break;
//  483 
//  484     case NWK_ERROR_ASSOC_CNF_DENIED:
//  485       HalLcdWriteString((char*)AssocCnfFailStr, HAL_LCD_LINE_1 );
??nwk_Status_6:
        ; Setup parameters for call to function HalLcdWriteString
        MOV     R1,#0x1
        MOV     R2,#(AssocCnfFailStr & 0xff)
        MOV     R3,#((AssocCnfFailStr >> 8) & 0xff)
        SJMP    ??nwk_Status_14
//  486       HalLcdWriteValue( (uint32)(statusValue), 16, HAL_LCD_LINE_2 );
//  487       break;
//  488 
//  489     case NWK_ERROR_ENERGY_SCAN_FAILED:
//  490       HalLcdWriteScreen( (char*)EnergyLevelStr, (char*)ScanFailedStr );
??nwk_Status_7:
        ; Setup parameters for call to function HalLcdWriteScreen
        MOV     R4,#(ScanFailedStr & 0xff)
        MOV     R5,#((ScanFailedStr >> 8) & 0xff)
        MOV     R2,#(EnergyLevelStr & 0xff)
        MOV     R3,#((EnergyLevelStr >> 8) & 0xff)
??nwk_Status_13:
        LCALL   ??HalLcdWriteScreen?relay
//  491       break;
//  492   }
//  493 #endif
//  494 }
??nwk_Status_8:
        MOV     R7,#0x4
        LJMP    ?BANKED_LEAVE_XDATA
        CFI EndBlock cfiBlock2

        RSEG XDATA_ID:CODE:NOROOT(0)
        DATA
`?<Initializer for CskipRtrs>`:
        DB 6, 6, 6, 6, 6, 0

        RSEG XDATA_ID:CODE:NOROOT(0)
        DATA
`?<Initializer for CskipChldrn>`:
        DB 20, 20, 20, 20, 20, 0

        RSEG XDATA_ID:CODE:NOROOT(0)
        DATA
`?<Initializer for gMIN_TREE_LINK_COST>`:
        DB 6

        RSEG BANK_RELAYS:CODE:REORDER:NOROOT(0)
??nwk_globals_init?relay:
        LCALL   ?BDISPATCH
        DATA
        DC24    nwk_globals_init

        RSEG BANK_RELAYS:CODE:REORDER:NOROOT(0)
??NIB_init?relay:
        LCALL   ?BDISPATCH
        DATA
        DC24    NIB_init

        RSEG BANK_RELAYS:CODE:REORDER:NOROOT(0)
??nwk_Status?relay:
        LCALL   ?BDISPATCH
        DATA
        DC24    nwk_Status

        END
//  495 
//  496 /*********************************************************************
//  497 *********************************************************************/
// 
//   547 bytes in segment BANKED_CODE
//    18 bytes in segment BANK_RELAYS
//    56 bytes in segment CODE_C
//    13 bytes in segment XDATA_I
//    13 bytes in segment XDATA_ID
//   178 bytes in segment XDATA_ROM_C
// 1 081 bytes in segment XDATA_Z
// 
//   634 bytes of CODE  memory
//   178 bytes of CONST memory
// 1 094 bytes of XDATA memory
//
//Errors: none
//Warnings: none
