///////////////////////////////////////////////////////////////////////////////
//                                                                            /
// IAR C/C++ Compiler V7.51A/W32 for 8051               08/Apr/2013  11:22:18 /
// Copyright 2004-2009 IAR Systems AB.                                        /
//                                                                            /
//    Core               =  plain                                             /
//    Code model         =  banked                                            /
//    Data model         =  large                                             /
//    Calling convention =  xdata reentrant                                   /
//    Constant location  =  data_rom                                          /
//    Dptr setup         =  1,16                                              /
//    Source file        =  C:\Texas Instruments\ZStack-CC2530-2.2.2-1.3.0\Co /
//                          mponents\stack\zdo\ZDApp.c                        /
//    Command line       =  -f "C:\Texas Instruments\ZStack-CC2530-2.2.2-1.3. /
//                          0\Projects\zstack\Samples\WSN_sensors\CC2530DB\.. /
//                          \..\..\Tools\CC2530DB\f8wRouter.cfg" (-DCPU32MHZ  /
//                          -DROOT=__near_func -DMAC_CFG_APP_PENDING_QUEUE=TR /
//                          UE -DRTR_NWK -DBLINK_LEDS) -f "C:\Texas           /
//                          Instruments\ZStack-CC2530-2.2.2-1.3.0\Projects\zs /
//                          tack\Samples\WSN_sensors\CC2530DB\..\..\..\Tools\ /
//                          CC2530DB\f8wConfig.cfg" (-DSECURE=0               /
//                          -DZG_SECURE_DYNAMIC=0 -DREFLECTOR                 /
//                          -DDEFAULT_CHANLIST=0x00000800                     /
//                          -DZDAPP_CONFIG_PAN_ID=0xFFFF                      /
//                          -DNWK_START_DELAY=100 -DEXTENDED_JOINING_RANDOM_M /
//                          ASK=0x007F -DBEACON_REQUEST_DELAY=100             /
//                          -DBEACON_REQ_DELAY_MASK=0x00FF                    /
//                          -DROUTE_EXPIRY_TIME=30 -DAPSC_ACK_WAIT_DURATION_P /
//                          OLLED=3000 -DNWK_INDIRECT_MSG_TIMEOUT=7           /
//                          -DMAX_RREQ_ENTRIES=8 -DAPSC_MAX_FRAME_RETRIES=3   /
//                          -DNWK_MAX_DATA_RETRIES=2                          /
//                          -DMAX_POLL_FAILURE_RETRIES=2 -DMAX_BCAST=9        /
//                          -DAPS_MAX_GROUPS=16 -DMAX_RTG_ENTRIES=40          /
//                          -DNWK_MAX_BINDING_ENTRIES=4                       /
//                          -DMAX_BINDING_CLUSTER_IDS=4                       /
//                          "-DDEFAULT_KEY={0x01, 0x03, 0x05, 0x07, 0x09,     /
//                          0x0B, 0x0D, 0x0F, 0x00, 0x02, 0x04, 0x06, 0x08,   /
//                          0x0A, 0x0C, 0x0D}" -DMAC_MAX_FRAME_SIZE=116       /
//                          "-DCONST=const __code" -DGENERIC=__generic        /
//                          -DRFD_RCVC_ALWAYS_ON=FALSE -DPOLL_RATE=1000       /
//                          -DQUEUED_POLL_RATE=100 -DRESPONSE_POLL_RATE=100)  /
//                          -DREJOIN_POLL_RATE=440 "C:\Texas                  /
//                          Instruments\ZStack-CC2530-2.2.2-1.3.0\Components\ /
//                          stack\zdo\ZDApp.c" -D ZTOOL_P1 -D MT_TASK -D      /
//                          MT_SYS_FUNC -D MT_ZDO_FUNC -D                     /
//                          LCD_SUPPORTED=DEBUG -lC "C:\Texas                 /
//                          Instruments\ZStack-CC2530-2.2.2-1.3.0\Projects\zs /
//                          tack\Samples\WSN_sensors\CC2530DB\RouterEB\List\" /
//                           -lA "C:\Texas Instruments\ZStack-CC2530-2.2.2-1. /
//                          3.0\Projects\zstack\Samples\WSN_sensors\CC2530DB\ /
//                          RouterEB\List\" --diag_suppress Pe001,Pa010 -o    /
//                          "C:\Texas Instruments\ZStack-CC2530-2.2.2-1.3.0\P /
//                          rojects\zstack\Samples\WSN_sensors\CC2530DB\Route /
//                          rEB\Obj\" -e --require_prototypes --no_unroll     /
//                          --no_inline --no_tbaa --debug --core=plain        /
//                          --dptr=16,1 --data_model=large                    /
//                          --code_model=banked --calling_convention=xdata_re /
//                          entrant --place_constants=data_rom                /
//                          --nr_virtual_regs 8 -I "C:\Texas                  /
//                          Instruments\ZStack-CC2530-2.2.2-1.3.0\Projects\zs /
//                          tack\Samples\WSN_sensors\CC2530DB\" -I "C:\Texas  /
//                          Instruments\ZStack-CC2530-2.2.2-1.3.0\Projects\zs /
//                          tack\Samples\WSN_sensors\CC2530DB\..\SOURCE\" -I  /
//                          "C:\Texas Instruments\ZStack-CC2530-2.2.2-1.3.0\P /
//                          rojects\zstack\Samples\WSN_sensors\CC2530DB\..\.. /
//                          \..\ZMAIN\TI2530DB\" -I "C:\Texas                 /
//                          Instruments\ZStack-CC2530-2.2.2-1.3.0\Projects\zs /
//                          tack\Samples\WSN_sensors\CC2530DB\..\..\..\..\..\ /
//                          COMPONENTS\MT\" -I "C:\Texas                      /
//                          Instruments\ZStack-CC2530-2.2.2-1.3.0\Projects\zs /
//                          tack\Samples\WSN_sensors\CC2530DB\..\..\..\..\..\ /
//                          COMPONENTS\HAL\INCLUDE\" -I "C:\Texas             /
//                          Instruments\ZStack-CC2530-2.2.2-1.3.0\Projects\zs /
//                          tack\Samples\WSN_sensors\CC2530DB\..\..\..\..\..\ /
//                          COMPONENTS\HAL\TARGET\CC2530EB\" -I "C:\Texas     /
//                          Instruments\ZStack-CC2530-2.2.2-1.3.0\Projects\zs /
//                          tack\Samples\WSN_sensors\CC2530DB\..\..\..\..\..\ /
//                          COMPONENTS\OSAL\MCU\CCSOC\" -I "C:\Texas          /
//                          Instruments\ZStack-CC2530-2.2.2-1.3.0\Projects\zs /
//                          tack\Samples\WSN_sensors\CC2530DB\..\..\..\..\..\ /
//                          COMPONENTS\OSAL\INCLUDE\" -I "C:\Texas            /
//                          Instruments\ZStack-CC2530-2.2.2-1.3.0\Projects\zs /
//                          tack\Samples\WSN_sensors\CC2530DB\..\..\..\..\..\ /
//                          COMPONENTS\STACK\AF\" -I "C:\Texas                /
//                          Instruments\ZStack-CC2530-2.2.2-1.3.0\Projects\zs /
//                          tack\Samples\WSN_sensors\CC2530DB\..\..\..\..\..\ /
//                          COMPONENTS\STACK\NWK\" -I "C:\Texas               /
//                          Instruments\ZStack-CC2530-2.2.2-1.3.0\Projects\zs /
//                          tack\Samples\WSN_sensors\CC2530DB\..\..\..\..\..\ /
//                          COMPONENTS\STACK\SEC\" -I "C:\Texas               /
//                          Instruments\ZStack-CC2530-2.2.2-1.3.0\Projects\zs /
//                          tack\Samples\WSN_sensors\CC2530DB\..\..\..\..\..\ /
//                          COMPONENTS\STACK\SAPI\" -I "C:\Texas              /
//                          Instruments\ZStack-CC2530-2.2.2-1.3.0\Projects\zs /
//                          tack\Samples\WSN_sensors\CC2530DB\..\..\..\..\..\ /
//                          COMPONENTS\STACK\SYS\" -I "C:\Texas               /
//                          Instruments\ZStack-CC2530-2.2.2-1.3.0\Projects\zs /
//                          tack\Samples\WSN_sensors\CC2530DB\..\..\..\..\..\ /
//                          COMPONENTS\STACK\ZDO\" -I "C:\Texas               /
//                          Instruments\ZStack-CC2530-2.2.2-1.3.0\Projects\zs /
//                          tack\Samples\WSN_sensors\CC2530DB\..\..\..\..\..\ /
//                          COMPONENTS\ZMAC\F8W\" -I "C:\Texas                /
//                          Instruments\ZStack-CC2530-2.2.2-1.3.0\Projects\zs /
//                          tack\Samples\WSN_sensors\CC2530DB\..\..\..\..\..\ /
//                          COMPONENTS\ZMAC\" -I "C:\Texas                    /
//                          Instruments\ZStack-CC2530-2.2.2-1.3.0\Projects\zs /
//                          tack\Samples\WSN_sensors\CC2530DB\..\..\..\..\..\ /
//                          COMPONENTS\SERVICES\SADDR\" -I "C:\Texas          /
//                          Instruments\ZStack-CC2530-2.2.2-1.3.0\Projects\zs /
//                          tack\Samples\WSN_sensors\CC2530DB\..\..\..\..\..\ /
//                          COMPONENTS\SERVICES\SDATA\" -I "C:\Texas          /
//                          Instruments\ZStack-CC2530-2.2.2-1.3.0\Projects\zs /
//                          tack\Samples\WSN_sensors\CC2530DB\..\..\..\..\..\ /
//                          COMPONENTS\MAC\INCLUDE\" -I "C:\Texas             /
//                          Instruments\ZStack-CC2530-2.2.2-1.3.0\Projects\zs /
//                          tack\Samples\WSN_sensors\CC2530DB\..\..\..\..\..\ /
//                          COMPONENTS\MAC\HIGH_LEVEL\" -I "C:\Texas          /
//                          Instruments\ZStack-CC2530-2.2.2-1.3.0\Projects\zs /
//                          tack\Samples\WSN_sensors\CC2530DB\..\..\..\..\..\ /
//                          COMPONENTS\MAC\LOW_LEVEL\srf04\" -I "C:\Texas     /
//                          Instruments\ZStack-CC2530-2.2.2-1.3.0\Projects\zs /
//                          tack\Samples\WSN_sensors\CC2530DB\..\..\..\..\..\ /
//                          COMPONENTS\MAC\LOW_LEVEL\srf04\SINGLE_CHIP\" -I   /
//                          "D:\Program Files\IAR Systems\Embedded Workbench  /
//                          5.3\8051\INC\" -I "D:\Program Files\IAR           /
//                          Systems\Embedded Workbench 5.3\8051\INC\CLIB\"    /
//                          -Om                                               /
//    List file          =  C:\Texas Instruments\ZStack-CC2530-2.2.2-1.3.0\Pr /
//                          ojects\zstack\Samples\WSN_sensors\CC2530DB\Router /
//                          EB\List\ZDApp.s51                                 /
//                                                                            /
//                                                                            /
///////////////////////////////////////////////////////////////////////////////

        NAME ZDApp

        RTMODEL "__calling_convention", "xdata_reentrant"
        RTMODEL "__code_model", "banked"
        RTMODEL "__core", "plain"
        RTMODEL "__data_model", "large"
        RTMODEL "__dptr_size", "16"
        RTMODEL "__extended_stack", "disabled"
        RTMODEL "__location_for_constants", "data"
        RTMODEL "__number_of_dptrs", "1"
        RTMODEL "__rt_version", "1"

        RSEG DOVERLAY:DATA:NOROOT(0)
        RSEG IOVERLAY:IDATA:NOROOT(0)
        RSEG ISTACK:IDATA:NOROOT(0)
        RSEG PSTACK:XDATA:NOROOT(0)
        RSEG XSTACK:XDATA:NOROOT(0)

        EXTERN ??ZDAppCheckForHoldKey?relay
        EXTERN ??ZDAppDetermineDeviceType?relay
        EXTERN ??ZDApp_AnnounceNewAddress?relay
        EXTERN ??ZDApp_DeviceAuthEvt?relay
        EXTERN ??ZDApp_InitUserDesc?relay
        EXTERN ??ZDApp_LeaveCtrlInit?relay
        EXTERN ??ZDApp_LeaveCtrlSet?relay
        EXTERN ??ZDApp_LeaveCtrlStartup?relay
        EXTERN ??ZDApp_LeaveReset?relay
        EXTERN ??ZDApp_LeaveUpdate?relay
        EXTERN ??ZDApp_NVUpdate?relay
        EXTERN ??ZDApp_NetworkInit?relay
        EXTERN ??ZDApp_NetworkStartEvt?relay
        EXTERN ??ZDApp_NodeProfileSync?relay
        EXTERN ??ZDApp_ProcessMsgCBs?relay
        EXTERN ??ZDApp_ProcessNetworkJoin?relay
        EXTERN ??ZDApp_ProcessOSALMsg?relay
        EXTERN ??ZDApp_RegisterCBs?relay
        EXTERN ??ZDApp_ResetTimerCancel?relay
        EXTERN ??ZDApp_ResetTimerStart?relay
        EXTERN ??ZDApp_SaveNetworkStateEvt?relay
        EXTERN ??ZDApp_SaveNwkKey?relay
        EXTERN ??ZDApp_SecInit?relay
        EXTERN ??ZDApp_SendMsg?relay
        EXTERN ??ZDOInitDevice?relay
        EXTERN ?ALLOC_XSTACK8
        EXTERN ?BANKED_ENTER_XDATA
        EXTERN ?BANKED_LEAVE_XDATA
        EXTERN ?BDISPATCH
        EXTERN ?BRET
        EXTERN ?CALL_IND
        EXTERN ?DEALLOC_XSTACK8
        EXTERN ?L_ADD_TO_X
        EXTERN ?L_ADD_X
        EXTERN ?L_EQ_X
        EXTERN ?L_MOV_TO_X
        EXTERN ?L_MOV_X
        EXTERN ?PUSH_XSTACK_I_ONE
        EXTERN ?PUSH_XSTACK_I_THREE
        EXTERN ?PUSH_XSTACK_I_TWO
        EXTERN ?UC_SWITCH_SPARSE
        EXTERN ?US_SWITCH_SPARSE
        EXTERN ?V0
        EXTERN ?XSP
        EXTERN ?XSTACK_DISP0_8
        EXTERN __INIT_XDATA_I
        EXTERN __INIT_XDATA_Z

        PUBLIC ??AddrMgrWriteNVRequest?relay
        FUNCTION ??AddrMgrWriteNVRequest?relay,0203H
        PUBLIC ??ZDAppCheckForHoldKey?relay
        FUNCTION ??ZDAppCheckForHoldKey?relay,0203H
        PUBLIC ??ZDAppDetermineDeviceType?relay
        FUNCTION ??ZDAppDetermineDeviceType?relay,0203H
        PUBLIC ??ZDApp_AnnounceNewAddress?relay
        FUNCTION ??ZDApp_AnnounceNewAddress?relay,0203H
        PUBLIC ??ZDApp_ChangeMatchDescRespPermission?relay
        FUNCTION ??ZDApp_ChangeMatchDescRespPermission?relay,0203H
        PUBLIC ??ZDApp_CoordStartPANIDConflictCB?relay
        FUNCTION ??ZDApp_CoordStartPANIDConflictCB?relay,0203H
        PUBLIC ??ZDApp_DeviceAuthEvt?relay
        FUNCTION ??ZDApp_DeviceAuthEvt?relay,0203H
        PUBLIC ??ZDApp_InMsgCB?relay
        FUNCTION ??ZDApp_InMsgCB?relay,0203H
        PUBLIC ??ZDApp_Init?relay
        FUNCTION ??ZDApp_Init?relay,0203H
        PUBLIC ??ZDApp_InitUserDesc?relay
        FUNCTION ??ZDApp_InitUserDesc?relay,0203H
        PUBLIC ??ZDApp_LeaveCtrlBypass?relay
        FUNCTION ??ZDApp_LeaveCtrlBypass?relay,0203H
        PUBLIC ??ZDApp_LeaveCtrlInit?relay
        FUNCTION ??ZDApp_LeaveCtrlInit?relay,0203H
        PUBLIC ??ZDApp_LeaveCtrlSet?relay
        FUNCTION ??ZDApp_LeaveCtrlSet?relay,0203H
        PUBLIC ??ZDApp_LeaveCtrlStartup?relay
        FUNCTION ??ZDApp_LeaveCtrlStartup?relay,0203H
        PUBLIC ??ZDApp_LeaveReset?relay
        FUNCTION ??ZDApp_LeaveReset?relay,0203H
        PUBLIC ??ZDApp_LeaveUpdate?relay
        FUNCTION ??ZDApp_LeaveUpdate?relay,0203H
        PUBLIC ??ZDApp_NVUpdate?relay
        FUNCTION ??ZDApp_NVUpdate?relay,0203H
        PUBLIC ??ZDApp_NetworkInit?relay
        FUNCTION ??ZDApp_NetworkInit?relay,0203H
        PUBLIC ??ZDApp_NetworkStartEvt?relay
        FUNCTION ??ZDApp_NetworkStartEvt?relay,0203H
        PUBLIC ??ZDApp_NodeProfileSync?relay
        FUNCTION ??ZDApp_NodeProfileSync?relay,0203H
        PUBLIC ??ZDApp_NwkStateUpdateCB?relay
        FUNCTION ??ZDApp_NwkStateUpdateCB?relay,0203H
        PUBLIC ??ZDApp_ProcessMsgCBs?relay
        FUNCTION ??ZDApp_ProcessMsgCBs?relay,0203H
        PUBLIC ??ZDApp_ProcessNetworkJoin?relay
        FUNCTION ??ZDApp_ProcessNetworkJoin?relay,0203H
        PUBLIC ??ZDApp_ProcessOSALMsg?relay
        FUNCTION ??ZDApp_ProcessOSALMsg?relay,0203H
        PUBLIC ??ZDApp_ProcessSecEvent?relay
        FUNCTION ??ZDApp_ProcessSecEvent?relay,0203H
        PUBLIC ??ZDApp_ProcessSecMsg?relay
        FUNCTION ??ZDApp_ProcessSecMsg?relay,0203H
        PUBLIC ??ZDApp_ReadNetworkRestoreState?relay
        FUNCTION ??ZDApp_ReadNetworkRestoreState?relay,0203H
        PUBLIC ??ZDApp_RegisterCBs?relay
        FUNCTION ??ZDApp_RegisterCBs?relay,0203H
        PUBLIC ??ZDApp_ResetNwkKey?relay
        FUNCTION ??ZDApp_ResetNwkKey?relay,0203H
        PUBLIC ??ZDApp_ResetTimerCancel?relay
        FUNCTION ??ZDApp_ResetTimerCancel?relay,0203H
        PUBLIC ??ZDApp_ResetTimerStart?relay
        FUNCTION ??ZDApp_ResetTimerStart?relay,0203H
        PUBLIC ??ZDApp_RestoreNetworkState?relay
        FUNCTION ??ZDApp_RestoreNetworkState?relay,0203H
        PUBLIC ??ZDApp_RestoreNwkKey?relay
        FUNCTION ??ZDApp_RestoreNwkKey?relay,0203H
        PUBLIC ??ZDApp_SaveNetworkStateEvt?relay
        FUNCTION ??ZDApp_SaveNetworkStateEvt?relay,0203H
        PUBLIC ??ZDApp_SaveNwkKey?relay
        FUNCTION ??ZDApp_SaveNwkKey?relay,0203H
        PUBLIC ??ZDApp_SecInit?relay
        FUNCTION ??ZDApp_SecInit?relay,0203H
        PUBLIC ??ZDApp_SendEventMsg?relay
        FUNCTION ??ZDApp_SendEventMsg?relay,0203H
        PUBLIC ??ZDApp_SendMsg?relay
        FUNCTION ??ZDApp_SendMsg?relay,0203H
        PUBLIC ??ZDApp_StartJoiningCycle?relay
        FUNCTION ??ZDApp_StartJoiningCycle?relay,0203H
        PUBLIC ??ZDApp_StopJoiningCycle?relay
        FUNCTION ??ZDApp_StopJoiningCycle?relay,0203H
        PUBLIC ??ZDApp_event_loop?relay
        FUNCTION ??ZDApp_event_loop?relay,0203H
        PUBLIC ??ZDOInitDevice?relay
        FUNCTION ??ZDOInitDevice?relay,0203H
        PUBLIC ??ZDO_AddrChangeIndicationCB?relay
        FUNCTION ??ZDO_AddrChangeIndicationCB?relay,0203H
        PUBLIC ??ZDO_ConcentratorIndicationCB?relay
        FUNCTION ??ZDO_ConcentratorIndicationCB?relay,0203H
        PUBLIC ??ZDO_JoinConfirmCB?relay
        FUNCTION ??ZDO_JoinConfirmCB?relay,0203H
        PUBLIC ??ZDO_JoinIndicationCB?relay
        FUNCTION ??ZDO_JoinIndicationCB?relay,0203H
        PUBLIC ??ZDO_LeaveCnf?relay
        FUNCTION ??ZDO_LeaveCnf?relay,0203H
        PUBLIC ??ZDO_LeaveInd?relay
        FUNCTION ??ZDO_LeaveInd?relay,0203H
        PUBLIC ??ZDO_ManytoOneFailureIndicationCB?relay
        FUNCTION ??ZDO_ManytoOneFailureIndicationCB?relay,0203H
        PUBLIC ??ZDO_NetworkDiscoveryConfirmCB?relay
        FUNCTION ??ZDO_NetworkDiscoveryConfirmCB?relay,0203H
        PUBLIC ??ZDO_NetworkFormationConfirmCB?relay
        FUNCTION ??ZDO_NetworkFormationConfirmCB?relay,0203H
        PUBLIC ??ZDO_PollConfirmCB?relay
        FUNCTION ??ZDO_PollConfirmCB?relay,0203H
        PUBLIC ??ZDO_StartRouterConfirmCB?relay
        FUNCTION ??ZDO_StartRouterConfirmCB?relay,0203H
        PUBLIC ??ZDO_SyncIndicationCB?relay
        FUNCTION ??ZDO_SyncIndicationCB?relay,0203H
        PUBLIC ??ZDO_UpdateDeviceIndication?relay
        FUNCTION ??ZDO_UpdateDeviceIndication?relay,0203H
        PUBLIC AddrMgrWriteNVRequest
        FUNCTION AddrMgrWriteNVRequest,0203H
        ARGFRAME XSTACK, 0, STACK
        PUBLIC MatchRsps
        PUBWEAK WDCTL
        PUBLIC ZDAppCheckForHoldKey
        FUNCTION ZDAppCheckForHoldKey,021203H
        ARGFRAME XSTACK, 0, STACK
        ARGFRAME IOVERLAY, 0, STATIC
        ARGFRAME DOVERLAY, 0, STATIC
        LOCFRAME ISTACK, 2, STACK
        PUBLIC ZDAppDetermineDeviceType
        FUNCTION ZDAppDetermineDeviceType,021203H
        ARGFRAME XSTACK, 12, STACK
        ARGFRAME IOVERLAY, 0, STATIC
        ARGFRAME DOVERLAY, 0, STATIC
        LOCFRAME ISTACK, 2, STACK
        PUBLIC ZDAppNwkAddr
        PUBLIC ZDAppTaskID
        PUBLIC ZDApp_AnnounceNewAddress
        FUNCTION ZDApp_AnnounceNewAddress,021203H
        ARGFRAME XSTACK, 12, STACK
        ARGFRAME IOVERLAY, 0, STATIC
        ARGFRAME DOVERLAY, 0, STATIC
        LOCFRAME XSTACK, 11, STACK
        PUBLIC ZDApp_AutoFindMode_epDesc
        PUBLIC ZDApp_ChangeMatchDescRespPermission
        FUNCTION ZDApp_ChangeMatchDescRespPermission,021203H
        ARGFRAME XSTACK, 0, STACK
        LOCFRAME ISTACK, 2, STACK
        PUBLIC ZDApp_CoordStartPANIDConflictCB
        FUNCTION ZDApp_CoordStartPANIDConflictCB,0203H
        ARGFRAME XSTACK, 0, STACK
        PUBLIC ZDApp_DeviceAuthEvt
        FUNCTION ZDApp_DeviceAuthEvt,021203H
        ARGFRAME XSTACK, 9, STACK
        ARGFRAME IOVERLAY, 0, STATIC
        ARGFRAME DOVERLAY, 0, STATIC
        LOCFRAME ISTACK, 2, STACK
        PUBLIC ZDApp_InMsgCB
        FUNCTION ZDApp_InMsgCB,021203H
        ARGFRAME XSTACK, 0, STACK
        LOCFRAME XSTACK, 14, STACK
        PUBLIC ZDApp_Init
        FUNCTION ZDApp_Init,021203H
        ARGFRAME XSTACK, 0, STACK
        LOCFRAME ISTACK, 2, STACK
        PUBLIC ZDApp_InitUserDesc
        FUNCTION ZDApp_InitUserDesc,021203H
        ARGFRAME XSTACK, 0, STACK
        ARGFRAME IOVERLAY, 0, STATIC
        ARGFRAME DOVERLAY, 0, STATIC
        LOCFRAME XSTACK, 31, STACK
        PUBLIC ZDApp_LeaveCtrl
        PUBLIC ZDApp_LeaveCtrlBypass
        FUNCTION ZDApp_LeaveCtrlBypass,0203H
        ARGFRAME XSTACK, 0, STACK
        LOCFRAME ISTACK, 2, STACK
        PUBLIC ZDApp_LeaveCtrlInit
        FUNCTION ZDApp_LeaveCtrlInit,021203H
        ARGFRAME XSTACK, 12, STACK
        ARGFRAME IOVERLAY, 0, STATIC
        ARGFRAME DOVERLAY, 0, STATIC
        LOCFRAME XSTACK, 14, STACK
        PUBLIC ZDApp_LeaveCtrlSet
        FUNCTION ZDApp_LeaveCtrlSet,021203H
        ARGFRAME XSTACK, 0, STACK
        ARGFRAME IOVERLAY, 0, STATIC
        ARGFRAME DOVERLAY, 0, STATIC
        LOCFRAME XSTACK, 14, STACK
        PUBLIC ZDApp_LeaveCtrlStartup
        FUNCTION ZDApp_LeaveCtrlStartup,021203H
        ARGFRAME XSTACK, 12, STACK
        ARGFRAME IOVERLAY, 0, STATIC
        ARGFRAME DOVERLAY, 0, STATIC
        LOCFRAME ISTACK, 1, STACK
        LOCFRAME XSTACK, 14, STACK
        PUBLIC ZDApp_LeaveReset
        FUNCTION ZDApp_LeaveReset,021203H
        ARGFRAME XSTACK, 14, STACK
        ARGFRAME IOVERLAY, 0, STATIC
        ARGFRAME DOVERLAY, 0, STATIC
        LOCFRAME ISTACK, 2, STACK
        PUBLIC ZDApp_LeaveUpdate
        FUNCTION ZDApp_LeaveUpdate,021203H
        ARGFRAME XSTACK, 14, STACK
        ARGFRAME IOVERLAY, 0, STATIC
        ARGFRAME DOVERLAY, 0, STATIC
        LOCFRAME ISTACK, 2, STACK
        PUBLIC ZDApp_NVUpdate
        FUNCTION ZDApp_NVUpdate,0203H
        ARGFRAME XSTACK, 10, STACK
        ARGFRAME IOVERLAY, 0, STATIC
        ARGFRAME DOVERLAY, 0, STATIC
        PUBLIC ZDApp_NetworkInit
        FUNCTION ZDApp_NetworkInit,021203H
        ARGFRAME XSTACK, 12, STACK
        ARGFRAME IOVERLAY, 0, STATIC
        ARGFRAME DOVERLAY, 0, STATIC
        LOCFRAME ISTACK, 2, STACK
        PUBLIC ZDApp_NetworkStartEvt
        FUNCTION ZDApp_NetworkStartEvt,021203H
        ARGFRAME XSTACK, 10, STACK
        ARGFRAME IOVERLAY, 0, STATIC
        ARGFRAME DOVERLAY, 0, STATIC
        LOCFRAME ISTACK, 2, STACK
        PUBLIC ZDApp_NodeProfileSync
        FUNCTION ZDApp_NodeProfileSync,021203H
        ARGFRAME XSTACK, 11, STACK
        ARGFRAME IOVERLAY, 0, STATIC
        ARGFRAME DOVERLAY, 0, STATIC
        LOCFRAME XSTACK, 10, STACK
        PUBLIC ZDApp_NwkStateUpdateCB
        FUNCTION ZDApp_NwkStateUpdateCB,021203H
        ARGFRAME XSTACK, 0, STACK
        LOCFRAME XSTACK, 10, STACK
        PUBLIC ZDApp_ProcessMsgCBs
        FUNCTION ZDApp_ProcessMsgCBs,0a1203H
        ARGFRAME XSTACK, 11, STACK
        ARGFRAME IOVERLAY, 0, STATIC
        ARGFRAME DOVERLAY, 0, STATIC
        LOCFRAME XSTACK, 31, STACK
        PUBLIC ZDApp_ProcessNetworkJoin
        FUNCTION ZDApp_ProcessNetworkJoin,021203H
        ARGFRAME XSTACK, 11, STACK
        ARGFRAME IOVERLAY, 0, STATIC
        ARGFRAME DOVERLAY, 0, STATIC
        LOCFRAME XSTACK, 12, STACK
        PUBLIC ZDApp_ProcessOSALMsg
        FUNCTION ZDApp_ProcessOSALMsg,0a1203H
        ARGFRAME XSTACK, 10, STACK
        ARGFRAME IOVERLAY, 0, STATIC
        ARGFRAME DOVERLAY, 0, STATIC
        LOCFRAME ISTACK, 1, STACK
        LOCFRAME XSTACK, 12, STACK
        PUBLIC ZDApp_ProcessSecEvent
        FUNCTION ZDApp_ProcessSecEvent,021203H
        ARGFRAME XSTACK, 0, STACK
        LOCFRAME XSTACK, 9, STACK
        PUBLIC ZDApp_ProcessSecMsg
        FUNCTION ZDApp_ProcessSecMsg,0a1203H
        ARGFRAME XSTACK, 0, STACK
        LOCFRAME ISTACK, 2, STACK
        PUBLIC ZDApp_ReadNetworkRestoreState
        FUNCTION ZDApp_ReadNetworkRestoreState,021203H
        ARGFRAME XSTACK, 0, STACK
        LOCFRAME XSTACK, 9, STACK
        PUBLIC ZDApp_RegisterCBs
        FUNCTION ZDApp_RegisterCBs,021203H
        ARGFRAME XSTACK, 0, STACK
        ARGFRAME IOVERLAY, 0, STATIC
        ARGFRAME DOVERLAY, 0, STATIC
        LOCFRAME ISTACK, 2, STACK
        PUBLIC ZDApp_ResetNwkKey
        FUNCTION ZDApp_ResetNwkKey,021203H
        ARGFRAME XSTACK, 0, STACK
        LOCFRAME XSTACK, 35, STACK
        PUBLIC ZDApp_ResetTimerCancel
        FUNCTION ZDApp_ResetTimerCancel,021203H
        ARGFRAME XSTACK, 0, STACK
        ARGFRAME IOVERLAY, 0, STATIC
        ARGFRAME DOVERLAY, 0, STATIC
        LOCFRAME ISTACK, 2, STACK
        PUBLIC ZDApp_ResetTimerStart
        FUNCTION ZDApp_ResetTimerStart,021203H
        ARGFRAME XSTACK, 0, STACK
        ARGFRAME IOVERLAY, 0, STATIC
        ARGFRAME DOVERLAY, 0, STATIC
        LOCFRAME ISTACK, 2, STACK
        PUBLIC ZDApp_RestoreNetworkState
        FUNCTION ZDApp_RestoreNetworkState,021203H
        ARGFRAME XSTACK, 0, STACK
        LOCFRAME XSTACK, 9, STACK
        PUBLIC ZDApp_RestoreNwkKey
        FUNCTION ZDApp_RestoreNwkKey,021203H
        ARGFRAME XSTACK, 0, STACK
        LOCFRAME XSTACK, 37, STACK
        PUBLIC ZDApp_SaveNetworkStateEvt
        FUNCTION ZDApp_SaveNetworkStateEvt,0203H
        ARGFRAME XSTACK, 10, STACK
        ARGFRAME IOVERLAY, 0, STATIC
        ARGFRAME DOVERLAY, 0, STATIC
        PUBLIC ZDApp_SaveNwkKey
        FUNCTION ZDApp_SaveNwkKey,021203H
        ARGFRAME XSTACK, 9, STACK
        ARGFRAME IOVERLAY, 0, STATIC
        ARGFRAME DOVERLAY, 0, STATIC
        LOCFRAME XSTACK, 37, STACK
        PUBLIC ZDApp_SavedPollRate
        PUBLIC ZDApp_SecInit
        FUNCTION ZDApp_SecInit,021203H
        ARGFRAME XSTACK, 12, STACK
        ARGFRAME IOVERLAY, 0, STATIC
        ARGFRAME DOVERLAY, 0, STATIC
        LOCFRAME ISTACK, 2, STACK
        PUBLIC ZDApp_SendEventMsg
        FUNCTION ZDApp_SendEventMsg,021203H
        ARGFRAME XSTACK, 0, STACK
        LOCFRAME ISTACK, 2, STACK
        PUBLIC ZDApp_SendMsg
        FUNCTION ZDApp_SendMsg,021203H
        ARGFRAME XSTACK, 28, STACK
        ARGFRAME IOVERLAY, 0, STATIC
        ARGFRAME DOVERLAY, 0, STATIC
        LOCFRAME ISTACK, 1, STACK
        LOCFRAME XSTACK, 20, STACK
        PUBLIC ZDApp_StartJoiningCycle
        FUNCTION ZDApp_StartJoiningCycle,021203H
        ARGFRAME XSTACK, 0, STACK
        LOCFRAME ISTACK, 2, STACK
        PUBLIC ZDApp_StopJoiningCycle
        FUNCTION ZDApp_StopJoiningCycle,0203H
        ARGFRAME XSTACK, 0, STACK
        LOCFRAME ISTACK, 2, STACK
        PUBLIC ZDApp_epDesc
        PUBLIC ZDApp_event_loop
        FUNCTION ZDApp_event_loop,021203H
        ARGFRAME XSTACK, 0, STACK
        LOCFRAME XSTACK, 10, STACK
        PUBLIC ZDOInitDevice
        FUNCTION ZDOInitDevice,021203H
        ARGFRAME XSTACK, 0, STACK
        ARGFRAME IOVERLAY, 0, STATIC
        ARGFRAME DOVERLAY, 0, STATIC
        LOCFRAME XSTACK, 12, STACK
        PUBLIC ZDO_AddrChangeIndicationCB
        FUNCTION ZDO_AddrChangeIndicationCB,021203H
        ARGFRAME XSTACK, 0, STACK
        LOCFRAME ISTACK, 2, STACK
        PUBLIC ZDO_ConcentratorIndicationCB
        FUNCTION ZDO_ConcentratorIndicationCB,0203H
        ARGFRAME XSTACK, 0, STACK
        PUBLIC ZDO_JoinConfirmCB
        FUNCTION ZDO_JoinConfirmCB,021203H
        ARGFRAME XSTACK, 0, STACK
        LOCFRAME ISTACK, 2, STACK
        PUBLIC ZDO_JoinIndicationCB
        FUNCTION ZDO_JoinIndicationCB,021203H
        ARGFRAME XSTACK, 1, STACK
        LOCFRAME ISTACK, 2, STACK
        PUBLIC ZDO_LeaveCnf
        FUNCTION ZDO_LeaveCnf,021203H
        ARGFRAME XSTACK, 0, STACK
        LOCFRAME XSTACK, 10, STACK
        PUBLIC ZDO_LeaveInd
        FUNCTION ZDO_LeaveInd,021203H
        ARGFRAME XSTACK, 0, STACK
        LOCFRAME ISTACK, 2, STACK
        LOCFRAME XSTACK, 14, STACK
        PUBLIC ZDO_ManytoOneFailureIndicationCB
        FUNCTION ZDO_ManytoOneFailureIndicationCB,021203H
        ARGFRAME XSTACK, 0, STACK
        LOCFRAME ISTACK, 2, STACK
        PUBLIC ZDO_NetworkDiscoveryConfirmCB
        FUNCTION ZDO_NetworkDiscoveryConfirmCB,021203H
        ARGFRAME XSTACK, 0, STACK
        LOCFRAME ISTACK, 1, STACK
        LOCFRAME XSTACK, 28, STACK
        PUBLIC ZDO_NetworkFormationConfirmCB
        FUNCTION ZDO_NetworkFormationConfirmCB,021203H
        ARGFRAME XSTACK, 0, STACK
        LOCFRAME ISTACK, 2, STACK
        PUBLIC ZDO_PollConfirmCB
        FUNCTION ZDO_PollConfirmCB,0203H
        ARGFRAME XSTACK, 0, STACK
        PUBLIC ZDO_StartRouterConfirmCB
        FUNCTION ZDO_StartRouterConfirmCB,021203H
        ARGFRAME XSTACK, 0, STACK
        LOCFRAME ISTACK, 2, STACK
        PUBLIC ZDO_SyncIndicationCB
        FUNCTION ZDO_SyncIndicationCB,021203H
        ARGFRAME XSTACK, 0, STACK
        LOCFRAME ISTACK, 2, STACK
        PUBLIC ZDO_UpdateDeviceIndication
        FUNCTION ZDO_UpdateDeviceIndication,0203H
        ARGFRAME XSTACK, 0, STACK
        PUBLIC ZDO_UseExtendedPANID
        PUBWEAK _A_IEN0
        PUBWEAK __Constant_0
        PUBWEAK __Constant_1
        PUBWEAK __Constant_3e8
        PUBLIC _tmpRejoinState
        PUBLIC continueJoining
        PUBLIC devStartMode
        PUBLIC devState
        PUBLIC nwkFrameCounterChanges
        PUBLIC nwkStatus
        PUBLIC retryCnt
        PUBLIC zdappMgmtNwkDiscReqInProgress
        PUBLIC zdappMgmtNwkDiscRspAddr
        PUBLIC zdappMgmtNwkDiscRspTransSeq
        PUBLIC zdappMgmtNwkDiscStartIndex
        PUBLIC zdappMgmtSavedNwkState
        PUBLIC zdoDiscCounter
        
        CFI Names cfiNames0
        CFI StackFrame CFA_SP SP IDATA
        CFI StackFrame CFA_PSP16 PSP16 XDATA
        CFI StackFrame CFA_XSP16 XSP16 XDATA
        CFI StaticOverlayFrame CFA_IOVERLAY IOVERLAY
        CFI StaticOverlayFrame CFA_DOVERLAY DOVERLAY
        CFI Resource `PSW.CY`:1, `B.BR0`:1, `B.BR1`:1, `B.BR2`:1, `B.BR3`:1
        CFI Resource `B.BR4`:1, `B.BR5`:1, `B.BR6`:1, `B.BR7`:1, `VB.BR8`:1
        CFI Resource `VB.BR9`:1, `VB.BR10`:1, `VB.BR11`:1, `VB.BR12`:1
        CFI Resource `VB.BR13`:1, `VB.BR14`:1, `VB.BR15`:1, VB:8, B:8, A:8
        CFI Resource PSW:8, DPL0:8, DPH0:8, R0:8, R1:8, R2:8, R3:8, R4:8, R5:8
        CFI Resource R6:8, R7:8, V0:8, V1:8, V2:8, V3:8, V4:8, V5:8, V6:8, V7:8
        CFI Resource SP:8, PSPH:8, PSPL:8, PSP16:16, XSPH:8, XSPL:8, XSP16:16
        CFI VirtualResource ?RET:24
        CFI Resource ?BRET_EXT:8
        CFI VirtualResource ?RET_HIGH:8, ?RET_LOW:8
        CFI ResourceParts PSP16 PSPH, PSPL
        CFI ResourceParts XSP16 XSPH, XSPL
        CFI ResourceParts ?RET ?BRET_EXT, ?RET_HIGH, ?RET_LOW
        CFI EndNames cfiNames0
        
        CFI Common cfiCommon0 Using cfiNames0
        CFI CodeAlign 1
        CFI DataAlign -1
        CFI ReturnAddress ?RET CODE
        CFI CFA_DOVERLAY Used
        CFI CFA_IOVERLAY Used
        CFI CFA_SP SP+-3
        CFI CFA_PSP16 PSP16+0
        CFI CFA_XSP16 XSP16+0
        CFI `PSW.CY` SameValue
        CFI `B.BR0` SameValue
        CFI `B.BR1` SameValue
        CFI `B.BR2` SameValue
        CFI `B.BR3` SameValue
        CFI `B.BR4` SameValue
        CFI `B.BR5` SameValue
        CFI `B.BR6` SameValue
        CFI `B.BR7` SameValue
        CFI `VB.BR8` SameValue
        CFI `VB.BR9` SameValue
        CFI `VB.BR10` SameValue
        CFI `VB.BR11` SameValue
        CFI `VB.BR12` SameValue
        CFI `VB.BR13` SameValue
        CFI `VB.BR14` SameValue
        CFI `VB.BR15` SameValue
        CFI VB SameValue
        CFI B Undefined
        CFI A Undefined
        CFI PSW SameValue
        CFI DPL0 SameValue
        CFI DPH0 SameValue
        CFI R0 Undefined
        CFI R1 Undefined
        CFI R2 Undefined
        CFI R3 Undefined
        CFI R4 Undefined
        CFI R5 Undefined
        CFI R6 SameValue
        CFI R7 SameValue
        CFI V0 SameValue
        CFI V1 SameValue
        CFI V2 SameValue
        CFI V3 SameValue
        CFI V4 SameValue
        CFI V5 SameValue
        CFI V6 SameValue
        CFI V7 SameValue
        CFI PSPH Undefined
        CFI PSPL Undefined
        CFI XSPH Undefined
        CFI XSPL Undefined
        CFI ?RET Concat
        CFI ?BRET_EXT Frame(CFA_SP, 3)
        CFI ?RET_HIGH Frame(CFA_SP, 2)
        CFI ?RET_LOW Frame(CFA_SP, 1)
        CFI EndCommon cfiCommon0
        
NLME_GetExtAddr     SYMBOL "NLME_GetExtAddr"
ZDO_Init            SYMBOL "ZDO_Init"
afRegister          SYMBOL "afRegister"
HalLedBlink         SYMBOL "HalLedBlink"
ZDSecMgrInit        SYMBOL "ZDSecMgrInit"
ZDO_StartDevice     SYMBOL "ZDO_StartDevice"
osal_msg_deallocate SYMBOL "osal_msg_deallocate"
osal_msg_receive    SYMBOL "osal_msg_receive"
osal_pwrmgr_device  SYMBOL "osal_pwrmgr_device"
osal_set_event      SYMBOL "osal_set_event"
ZDO_UpdateNwkStatus SYMBOL "ZDO_UpdateNwkStatus"
ZDSecMgrNewDeviceEvent SYMBOL "ZDSecMgrNewDeviceEvent"
osal_start_timerEx  SYMBOL "osal_start_timerEx"
zgInitItems         SYMBOL "zgInitItems"
ZDConfig_InitDescriptors SYMBOL "ZDConfig_InitDescriptors"
osal_rand           SYMBOL "osal_rand"
NLME_SetBroadcastFilter SYMBOL "NLME_SetBroadcastFilter"
zgReadStartupOptions SYMBOL "zgReadStartupOptions"
nwk_ExtPANIDValid   SYMBOL "nwk_ExtPANIDValid"
NLME_GetEnergyThreshold SYMBOL "NLME_GetEnergyThreshold"
NLME_SetEnergyThreshold SYMBOL "NLME_SetEnergyThreshold"
NLME_StartRouterRequest SYMBOL "NLME_StartRouterRequest"
NLME_SetPollRate    SYMBOL "NLME_SetPollRate"
NLME_InitNV         SYMBOL "NLME_InitNV"
NLME_RestoreFromNV  SYMBOL "NLME_RestoreFromNV"
NLME_GetShortAddr   SYMBOL "NLME_GetShortAddr"
sAddrExtCpy         SYMBOL "sAddrExtCpy"
osal_memset         SYMBOL "osal_memset"
osal_nv_item_init   SYMBOL "osal_nv_item_init"
osal_nv_read        SYMBOL "osal_nv_read"
HalKeyRead          SYMBOL "HalKeyRead"
ZDP_IncomingData    SYMBOL "ZDP_IncomingData"
NLME_JoinRequest    SYMBOL "NLME_JoinRequest"
ZMacSetReq          SYMBOL "ZMacSetReq"
NLME_ReJoinRequest  SYMBOL "NLME_ReJoinRequest"
NLME_SetQueuedPollRate SYMBOL "NLME_SetQueuedPollRate"
NLME_SetResponseRate SYMBOL "NLME_SetResponseRate"
ZDO_ParseAddrRsp    SYMBOL "ZDO_ParseAddrRsp"
ZDO_UpdateAddrManager SYMBOL "ZDO_UpdateAddrManager"
osal_mem_free       SYMBOL "osal_mem_free"
ZDO_ParseBindUnbindReq SYMBOL "ZDO_ParseBindUnbindReq"
ZDO_ProcessBindUnbindReq SYMBOL "ZDO_ProcessBindUnbindReq"
ZDO_RegisterForZDOMsg SYMBOL "ZDO_RegisterForZDOMsg"
ZDSecMgrTransportKeyInd SYMBOL "ZDSecMgrTransportKeyInd"
ZDSecMgrRemoveDeviceInd SYMBOL "ZDSecMgrRemoveDeviceInd"
ZDSecMgrSwitchKeyInd SYMBOL "ZDSecMgrSwitchKeyInd"
SSP_ReadNwkActiveKey SYMBOL "SSP_ReadNwkActiveKey"
osal_nv_write       SYMBOL "osal_nv_write"
osal_stop_timerEx   SYMBOL "osal_stop_timerEx"
NLME_RemoveChild    SYMBOL "NLME_RemoveChild"
osal_msg_allocate   SYMBOL "osal_msg_allocate"
osal_memcpy         SYMBOL "osal_memcpy"
osal_msg_send       SYMBOL "osal_msg_send"
sAddrExtCmp         SYMBOL "sAddrExtCmp"
HalLedSet           SYMBOL "HalLedSet"
NLME_LeaveRsp       SYMBOL "NLME_LeaveRsp"
NLME_GetCoordShortAddr SYMBOL "NLME_GetCoordShortAddr"
nwkNeighborInitTable SYMBOL "nwkNeighborInitTable"
NLME_RouteDiscoveryRequest SYMBOL "NLME_RouteDiscoveryRequest"
ZDP_GenericRsp      SYMBOL "ZDP_GenericRsp"
afSetMatch          SYMBOL "afSetMatch"
osal_get_timeoutEx  SYMBOL "osal_get_timeoutEx"
nwk_getNetworkDesc  SYMBOL "nwk_getNetworkDesc"
ZDP_DeviceAnnce     SYMBOL "ZDP_DeviceAnnce"
??HalKeyRead?relay  SYMBOL "?relay", HalKeyRead
??HalLedBlink?relay SYMBOL "?relay", HalLedBlink
??HalLedSet?relay   SYMBOL "?relay", HalLedSet
??NLME_GetCoordShortAddr?relay SYMBOL "?relay", NLME_GetCoordShortAddr
??NLME_GetEnergyThreshold?relay SYMBOL "?relay", NLME_GetEnergyThreshold
??NLME_GetExtAddr?relay SYMBOL "?relay", NLME_GetExtAddr
??NLME_GetShortAddr?relay SYMBOL "?relay", NLME_GetShortAddr
??NLME_InitNV?relay SYMBOL "?relay", NLME_InitNV
??NLME_JoinRequest?relay SYMBOL "?relay", NLME_JoinRequest
??NLME_LeaveRsp?relay SYMBOL "?relay", NLME_LeaveRsp
??NLME_ReJoinRequest?relay SYMBOL "?relay", NLME_ReJoinRequest
??NLME_RemoveChild?relay SYMBOL "?relay", NLME_RemoveChild
??NLME_RestoreFromNV?relay SYMBOL "?relay", NLME_RestoreFromNV
??NLME_RouteDiscoveryRequest?relay SYMBOL "?relay", NLME_RouteDiscoveryRequest
??NLME_SetBroadcastFilter?relay SYMBOL "?relay", NLME_SetBroadcastFilter
??NLME_SetEnergyThreshold?relay SYMBOL "?relay", NLME_SetEnergyThreshold
??NLME_SetPollRate?relay SYMBOL "?relay", NLME_SetPollRate
??NLME_SetQueuedPollRate?relay SYMBOL "?relay", NLME_SetQueuedPollRate
??NLME_SetResponseRate?relay SYMBOL "?relay", NLME_SetResponseRate
??NLME_StartRouterRequest?relay SYMBOL "?relay", NLME_StartRouterRequest
??SSP_ReadNwkActiveKey?relay SYMBOL "?relay", SSP_ReadNwkActiveKey
??ZDConfig_InitDescriptors?relay SYMBOL "?relay", ZDConfig_InitDescriptors
??ZDO_Init?relay    SYMBOL "?relay", ZDO_Init
??ZDO_ParseAddrRsp?relay SYMBOL "?relay", ZDO_ParseAddrRsp
??ZDO_ParseBindUnbindReq?relay SYMBOL "?relay", ZDO_ParseBindUnbindReq
??ZDO_ProcessBindUnbindReq?relay SYMBOL "?relay", ZDO_ProcessBindUnbindReq
??ZDO_RegisterForZDOMsg?relay SYMBOL "?relay", ZDO_RegisterForZDOMsg
??ZDO_StartDevice?relay SYMBOL "?relay", ZDO_StartDevice
??ZDO_UpdateAddrManager?relay SYMBOL "?relay", ZDO_UpdateAddrManager
??ZDO_UpdateNwkStatus?relay SYMBOL "?relay", ZDO_UpdateNwkStatus
??ZDP_DeviceAnnce?relay SYMBOL "?relay", ZDP_DeviceAnnce
??ZDP_GenericRsp?relay SYMBOL "?relay", ZDP_GenericRsp
??ZDP_IncomingData?relay SYMBOL "?relay", ZDP_IncomingData
??ZDSecMgrInit?relay SYMBOL "?relay", ZDSecMgrInit
??ZDSecMgrNewDeviceEvent?relay SYMBOL "?relay", ZDSecMgrNewDeviceEvent
??ZDSecMgrRemoveDeviceInd?relay SYMBOL "?relay", ZDSecMgrRemoveDeviceInd
??ZDSecMgrSwitchKeyInd?relay SYMBOL "?relay", ZDSecMgrSwitchKeyInd
??ZDSecMgrTransportKeyInd?relay SYMBOL "?relay", ZDSecMgrTransportKeyInd
??ZMacSetReq?relay  SYMBOL "?relay", ZMacSetReq
??afRegister?relay  SYMBOL "?relay", afRegister
??afSetMatch?relay  SYMBOL "?relay", afSetMatch
??nwkNeighborInitTable?relay SYMBOL "?relay", nwkNeighborInitTable
??nwk_ExtPANIDValid?relay SYMBOL "?relay", nwk_ExtPANIDValid
??nwk_getNetworkDesc?relay SYMBOL "?relay", nwk_getNetworkDesc
??osal_get_timeoutEx?relay SYMBOL "?relay", osal_get_timeoutEx
??osal_mem_free?relay SYMBOL "?relay", osal_mem_free
??osal_memcpy?relay SYMBOL "?relay", osal_memcpy
??osal_memset?relay SYMBOL "?relay", osal_memset
??osal_msg_allocate?relay SYMBOL "?relay", osal_msg_allocate
??osal_msg_deallocate?relay SYMBOL "?relay", osal_msg_deallocate
??osal_msg_receive?relay SYMBOL "?relay", osal_msg_receive
??osal_msg_send?relay SYMBOL "?relay", osal_msg_send
??osal_nv_item_init?relay SYMBOL "?relay", osal_nv_item_init
??osal_nv_read?relay SYMBOL "?relay", osal_nv_read
??osal_nv_write?relay SYMBOL "?relay", osal_nv_write
??osal_pwrmgr_device?relay SYMBOL "?relay", osal_pwrmgr_device
??osal_rand?relay   SYMBOL "?relay", osal_rand
??osal_set_event?relay SYMBOL "?relay", osal_set_event
??osal_start_timerEx?relay SYMBOL "?relay", osal_start_timerEx
??osal_stop_timerEx?relay SYMBOL "?relay", osal_stop_timerEx
??sAddrExtCmp?relay SYMBOL "?relay", sAddrExtCmp
??sAddrExtCpy?relay SYMBOL "?relay", sAddrExtCpy
??zgInitItems?relay SYMBOL "?relay", zgInitItems
??zgReadStartupOptions?relay SYMBOL "?relay", zgReadStartupOptions
AddrMgrWriteNVRequest SYMBOL "AddrMgrWriteNVRequest"
??AddrMgrWriteNVRequest?relay SYMBOL "?relay", AddrMgrWriteNVRequest
ZDAppCheckForHoldKey SYMBOL "ZDAppCheckForHoldKey"
??ZDAppCheckForHoldKey?relay SYMBOL "?relay", ZDAppCheckForHoldKey
ZDAppDetermineDeviceType SYMBOL "ZDAppDetermineDeviceType"
??ZDAppDetermineDeviceType?relay SYMBOL "?relay", ZDAppDetermineDeviceType
ZDApp_AnnounceNewAddress SYMBOL "ZDApp_AnnounceNewAddress"
??ZDApp_AnnounceNewAddress?relay SYMBOL "?relay", ZDApp_AnnounceNewAddress
ZDApp_ChangeMatchDescRespPermission SYMBOL "ZDApp_ChangeMatchDescRespPermission"
??ZDApp_ChangeMatchDescRespPermission?relay SYMBOL "?relay", ZDApp_ChangeMatchDescRespPermission
ZDApp_CoordStartPANIDConflictCB SYMBOL "ZDApp_CoordStartPANIDConflictCB"
??ZDApp_CoordStartPANIDConflictCB?relay SYMBOL "?relay", ZDApp_CoordStartPANIDConflictCB
ZDApp_DeviceAuthEvt SYMBOL "ZDApp_DeviceAuthEvt"
??ZDApp_DeviceAuthEvt?relay SYMBOL "?relay", ZDApp_DeviceAuthEvt
ZDApp_InMsgCB       SYMBOL "ZDApp_InMsgCB"
??ZDApp_InMsgCB?relay SYMBOL "?relay", ZDApp_InMsgCB
ZDApp_Init          SYMBOL "ZDApp_Init"
??ZDApp_Init?relay  SYMBOL "?relay", ZDApp_Init
ZDApp_InitUserDesc  SYMBOL "ZDApp_InitUserDesc"
??ZDApp_InitUserDesc?relay SYMBOL "?relay", ZDApp_InitUserDesc
ZDApp_LeaveCtrlBypass SYMBOL "ZDApp_LeaveCtrlBypass"
??ZDApp_LeaveCtrlBypass?relay SYMBOL "?relay", ZDApp_LeaveCtrlBypass
ZDApp_LeaveCtrlInit SYMBOL "ZDApp_LeaveCtrlInit"
??ZDApp_LeaveCtrlInit?relay SYMBOL "?relay", ZDApp_LeaveCtrlInit
ZDApp_LeaveCtrlSet  SYMBOL "ZDApp_LeaveCtrlSet"
??ZDApp_LeaveCtrlSet?relay SYMBOL "?relay", ZDApp_LeaveCtrlSet
ZDApp_LeaveCtrlStartup SYMBOL "ZDApp_LeaveCtrlStartup"
??ZDApp_LeaveCtrlStartup?relay SYMBOL "?relay", ZDApp_LeaveCtrlStartup
ZDApp_LeaveReset    SYMBOL "ZDApp_LeaveReset"
??ZDApp_LeaveReset?relay SYMBOL "?relay", ZDApp_LeaveReset
ZDApp_LeaveUpdate   SYMBOL "ZDApp_LeaveUpdate"
??ZDApp_LeaveUpdate?relay SYMBOL "?relay", ZDApp_LeaveUpdate
ZDApp_NVUpdate      SYMBOL "ZDApp_NVUpdate"
??ZDApp_NVUpdate?relay SYMBOL "?relay", ZDApp_NVUpdate
ZDApp_NetworkInit   SYMBOL "ZDApp_NetworkInit"
??ZDApp_NetworkInit?relay SYMBOL "?relay", ZDApp_NetworkInit
ZDApp_NetworkStartEvt SYMBOL "ZDApp_NetworkStartEvt"
??ZDApp_NetworkStartEvt?relay SYMBOL "?relay", ZDApp_NetworkStartEvt
ZDApp_NodeProfileSync SYMBOL "ZDApp_NodeProfileSync"
??ZDApp_NodeProfileSync?relay SYMBOL "?relay", ZDApp_NodeProfileSync
ZDApp_NwkStateUpdateCB SYMBOL "ZDApp_NwkStateUpdateCB"
??ZDApp_NwkStateUpdateCB?relay SYMBOL "?relay", ZDApp_NwkStateUpdateCB
ZDApp_ProcessMsgCBs SYMBOL "ZDApp_ProcessMsgCBs"
??ZDApp_ProcessMsgCBs?relay SYMBOL "?relay", ZDApp_ProcessMsgCBs
ZDApp_ProcessNetworkJoin SYMBOL "ZDApp_ProcessNetworkJoin"
??ZDApp_ProcessNetworkJoin?relay SYMBOL "?relay", ZDApp_ProcessNetworkJoin
ZDApp_ProcessOSALMsg SYMBOL "ZDApp_ProcessOSALMsg"
??ZDApp_ProcessOSALMsg?relay SYMBOL "?relay", ZDApp_ProcessOSALMsg
ZDApp_ProcessSecEvent SYMBOL "ZDApp_ProcessSecEvent"
??ZDApp_ProcessSecEvent?relay SYMBOL "?relay", ZDApp_ProcessSecEvent
ZDApp_ProcessSecMsg SYMBOL "ZDApp_ProcessSecMsg"
??ZDApp_ProcessSecMsg?relay SYMBOL "?relay", ZDApp_ProcessSecMsg
ZDApp_ReadNetworkRestoreState SYMBOL "ZDApp_ReadNetworkRestoreState"
??ZDApp_ReadNetworkRestoreState?relay SYMBOL "?relay", ZDApp_ReadNetworkRestoreState
ZDApp_RegisterCBs   SYMBOL "ZDApp_RegisterCBs"
??ZDApp_RegisterCBs?relay SYMBOL "?relay", ZDApp_RegisterCBs
ZDApp_ResetNwkKey   SYMBOL "ZDApp_ResetNwkKey"
??ZDApp_ResetNwkKey?relay SYMBOL "?relay", ZDApp_ResetNwkKey
ZDApp_ResetTimerCancel SYMBOL "ZDApp_ResetTimerCancel"
??ZDApp_ResetTimerCancel?relay SYMBOL "?relay", ZDApp_ResetTimerCancel
ZDApp_ResetTimerStart SYMBOL "ZDApp_ResetTimerStart"
??ZDApp_ResetTimerStart?relay SYMBOL "?relay", ZDApp_ResetTimerStart
ZDApp_RestoreNetworkState SYMBOL "ZDApp_RestoreNetworkState"
??ZDApp_RestoreNetworkState?relay SYMBOL "?relay", ZDApp_RestoreNetworkState
ZDApp_RestoreNwkKey SYMBOL "ZDApp_RestoreNwkKey"
??ZDApp_RestoreNwkKey?relay SYMBOL "?relay", ZDApp_RestoreNwkKey
ZDApp_SaveNetworkStateEvt SYMBOL "ZDApp_SaveNetworkStateEvt"
??ZDApp_SaveNetworkStateEvt?relay SYMBOL "?relay", ZDApp_SaveNetworkStateEvt
ZDApp_SaveNwkKey    SYMBOL "ZDApp_SaveNwkKey"
??ZDApp_SaveNwkKey?relay SYMBOL "?relay", ZDApp_SaveNwkKey
ZDApp_SecInit       SYMBOL "ZDApp_SecInit"
??ZDApp_SecInit?relay SYMBOL "?relay", ZDApp_SecInit
ZDApp_SendEventMsg  SYMBOL "ZDApp_SendEventMsg"
??ZDApp_SendEventMsg?relay SYMBOL "?relay", ZDApp_SendEventMsg
ZDApp_SendMsg       SYMBOL "ZDApp_SendMsg"
??ZDApp_SendMsg?relay SYMBOL "?relay", ZDApp_SendMsg
ZDApp_StartJoiningCycle SYMBOL "ZDApp_StartJoiningCycle"
??ZDApp_StartJoiningCycle?relay SYMBOL "?relay", ZDApp_StartJoiningCycle
ZDApp_StopJoiningCycle SYMBOL "ZDApp_StopJoiningCycle"
??ZDApp_StopJoiningCycle?relay SYMBOL "?relay", ZDApp_StopJoiningCycle
ZDApp_event_loop    SYMBOL "ZDApp_event_loop"
??ZDApp_event_loop?relay SYMBOL "?relay", ZDApp_event_loop
ZDOInitDevice       SYMBOL "ZDOInitDevice"
??ZDOInitDevice?relay SYMBOL "?relay", ZDOInitDevice
ZDO_AddrChangeIndicationCB SYMBOL "ZDO_AddrChangeIndicationCB"
??ZDO_AddrChangeIndicationCB?relay SYMBOL "?relay", ZDO_AddrChangeIndicationCB
ZDO_ConcentratorIndicationCB SYMBOL "ZDO_ConcentratorIndicationCB"
??ZDO_ConcentratorIndicationCB?relay SYMBOL "?relay", ZDO_ConcentratorIndicationCB
ZDO_JoinConfirmCB   SYMBOL "ZDO_JoinConfirmCB"
??ZDO_JoinConfirmCB?relay SYMBOL "?relay", ZDO_JoinConfirmCB
ZDO_JoinIndicationCB SYMBOL "ZDO_JoinIndicationCB"
??ZDO_JoinIndicationCB?relay SYMBOL "?relay", ZDO_JoinIndicationCB
ZDO_LeaveCnf        SYMBOL "ZDO_LeaveCnf"
??ZDO_LeaveCnf?relay SYMBOL "?relay", ZDO_LeaveCnf
ZDO_LeaveInd        SYMBOL "ZDO_LeaveInd"
??ZDO_LeaveInd?relay SYMBOL "?relay", ZDO_LeaveInd
ZDO_ManytoOneFailureIndicationCB SYMBOL "ZDO_ManytoOneFailureIndicationCB"
??ZDO_ManytoOneFailureIndicationCB?relay SYMBOL "?relay", ZDO_ManytoOneFailureIndicationCB
ZDO_NetworkDiscoveryConfirmCB SYMBOL "ZDO_NetworkDiscoveryConfirmCB"
??ZDO_NetworkDiscoveryConfirmCB?relay SYMBOL "?relay", ZDO_NetworkDiscoveryConfirmCB
ZDO_NetworkFormationConfirmCB SYMBOL "ZDO_NetworkFormationConfirmCB"
??ZDO_NetworkFormationConfirmCB?relay SYMBOL "?relay", ZDO_NetworkFormationConfirmCB
ZDO_PollConfirmCB   SYMBOL "ZDO_PollConfirmCB"
??ZDO_PollConfirmCB?relay SYMBOL "?relay", ZDO_PollConfirmCB
ZDO_StartRouterConfirmCB SYMBOL "ZDO_StartRouterConfirmCB"
??ZDO_StartRouterConfirmCB?relay SYMBOL "?relay", ZDO_StartRouterConfirmCB
ZDO_SyncIndicationCB SYMBOL "ZDO_SyncIndicationCB"
??ZDO_SyncIndicationCB?relay SYMBOL "?relay", ZDO_SyncIndicationCB
ZDO_UpdateDeviceIndication SYMBOL "ZDO_UpdateDeviceIndication"
??ZDO_UpdateDeviceIndication?relay SYMBOL "?relay", ZDO_UpdateDeviceIndication

        EXTERN NLME_GetExtAddr
        FUNCTION NLME_GetExtAddr,0202H
        ARGFRAME ISTACK, 2, STACK
        ARGFRAME PSTACK, 0, STACK
        ARGFRAME XSTACK, 10, STACK
        ARGFRAME IOVERLAY, 0, STATIC
        ARGFRAME DOVERLAY, 0, STATIC
        EXTERN ZDO_Init
        FUNCTION ZDO_Init,0202H
        ARGFRAME ISTACK, 2, STACK
        ARGFRAME PSTACK, 0, STACK
        ARGFRAME XSTACK, 0, STACK
        ARGFRAME IOVERLAY, 0, STATIC
        ARGFRAME DOVERLAY, 0, STATIC
        EXTERN afRegister
        FUNCTION afRegister,0202H
        ARGFRAME ISTACK, 2, STACK
        ARGFRAME PSTACK, 0, STACK
        ARGFRAME XSTACK, 0, STACK
        ARGFRAME IOVERLAY, 0, STATIC
        ARGFRAME DOVERLAY, 0, STATIC
        EXTERN HalLedBlink
        FUNCTION HalLedBlink,0202H
        ARGFRAME ISTACK, 2, STACK
        ARGFRAME PSTACK, 0, STACK
        ARGFRAME XSTACK, 0, STACK
        ARGFRAME IOVERLAY, 0, STATIC
        ARGFRAME DOVERLAY, 0, STATIC
        EXTERN ZDSecMgrInit
        FUNCTION ZDSecMgrInit,0202H
        ARGFRAME ISTACK, 2, STACK
        ARGFRAME PSTACK, 0, STACK
        ARGFRAME XSTACK, 0, STACK
        ARGFRAME IOVERLAY, 0, STATIC
        ARGFRAME DOVERLAY, 0, STATIC
        EXTERN ZDO_StartDevice
        FUNCTION ZDO_StartDevice,0202H
        ARGFRAME ISTACK, 0, STACK
        ARGFRAME PSTACK, 0, STACK
        ARGFRAME XSTACK, 10, STACK
        ARGFRAME IOVERLAY, 0, STATIC
        ARGFRAME DOVERLAY, 0, STATIC
        EXTERN osal_msg_deallocate
        FUNCTION osal_msg_deallocate,0202H
        ARGFRAME ISTACK, 0, STACK
        ARGFRAME PSTACK, 0, STACK
        ARGFRAME XSTACK, 10, STACK
        ARGFRAME IOVERLAY, 0, STATIC
        ARGFRAME DOVERLAY, 0, STATIC
        EXTERN osal_msg_receive
        FUNCTION osal_msg_receive,0202H
        ARGFRAME ISTACK, 0, STACK
        ARGFRAME PSTACK, 0, STACK
        ARGFRAME XSTACK, 10, STACK
        ARGFRAME IOVERLAY, 0, STATIC
        ARGFRAME DOVERLAY, 0, STATIC
        EXTERN osal_pwrmgr_device
        FUNCTION osal_pwrmgr_device,0202H
        ARGFRAME ISTACK, 2, STACK
        ARGFRAME PSTACK, 0, STACK
        ARGFRAME XSTACK, 10, STACK
        ARGFRAME IOVERLAY, 0, STATIC
        ARGFRAME DOVERLAY, 0, STATIC
        EXTERN osal_set_event
        FUNCTION osal_set_event,0202H
        ARGFRAME ISTACK, 2, STACK
        ARGFRAME PSTACK, 0, STACK
        ARGFRAME XSTACK, 12, STACK
        ARGFRAME IOVERLAY, 0, STATIC
        ARGFRAME DOVERLAY, 0, STATIC
        EXTERN ZDO_UpdateNwkStatus
        FUNCTION ZDO_UpdateNwkStatus,0202H
        ARGFRAME ISTACK, 0, STACK
        ARGFRAME PSTACK, 0, STACK
        ARGFRAME XSTACK, 10, STACK
        ARGFRAME IOVERLAY, 0, STATIC
        ARGFRAME DOVERLAY, 0, STATIC
        EXTERN ZDSecMgrNewDeviceEvent
        FUNCTION ZDSecMgrNewDeviceEvent,0202H
        ARGFRAME ISTACK, 0, STACK
        ARGFRAME PSTACK, 0, STACK
        ARGFRAME XSTACK, 9, STACK
        ARGFRAME IOVERLAY, 0, STATIC
        ARGFRAME DOVERLAY, 0, STATIC
        EXTERN osal_start_timerEx
        FUNCTION osal_start_timerEx,0202H
        ARGFRAME ISTACK, 2, STACK
        ARGFRAME PSTACK, 0, STACK
        ARGFRAME XSTACK, 9, STACK
        ARGFRAME IOVERLAY, 0, STATIC
        ARGFRAME DOVERLAY, 0, STATIC
        EXTERN zgInitItems
        FUNCTION zgInitItems,0202H
        ARGFRAME ISTACK, 0, STACK
        ARGFRAME PSTACK, 0, STACK
        ARGFRAME XSTACK, 12, STACK
        ARGFRAME IOVERLAY, 0, STATIC
        ARGFRAME DOVERLAY, 0, STATIC
        EXTERN ZDConfig_InitDescriptors
        FUNCTION ZDConfig_InitDescriptors,0202H
        ARGFRAME ISTACK, 0, STACK
        ARGFRAME PSTACK, 0, STACK
        ARGFRAME XSTACK, 12, STACK
        ARGFRAME IOVERLAY, 0, STATIC
        ARGFRAME DOVERLAY, 0, STATIC
        EXTERN osal_rand
        FUNCTION osal_rand,0202H
        ARGFRAME ISTACK, 0, STACK
        ARGFRAME PSTACK, 0, STACK
        ARGFRAME XSTACK, 12, STACK
        ARGFRAME IOVERLAY, 0, STATIC
        ARGFRAME DOVERLAY, 0, STATIC
        EXTERN NLME_SetBroadcastFilter
        FUNCTION NLME_SetBroadcastFilter,0202H
        ARGFRAME ISTACK, 0, STACK
        ARGFRAME PSTACK, 0, STACK
        ARGFRAME XSTACK, 12, STACK
        ARGFRAME IOVERLAY, 0, STATIC
        ARGFRAME DOVERLAY, 0, STATIC
        EXTERN zgReadStartupOptions
        FUNCTION zgReadStartupOptions,0202H
        ARGFRAME ISTACK, 0, STACK
        ARGFRAME PSTACK, 0, STACK
        ARGFRAME XSTACK, 9, STACK
        ARGFRAME IOVERLAY, 0, STATIC
        ARGFRAME DOVERLAY, 0, STATIC
        EXTERN nwk_ExtPANIDValid
        FUNCTION nwk_ExtPANIDValid,0202H
        ARGFRAME ISTACK, 2, STACK
        ARGFRAME PSTACK, 0, STACK
        ARGFRAME XSTACK, 28, STACK
        ARGFRAME IOVERLAY, 0, STATIC
        ARGFRAME DOVERLAY, 0, STATIC
        EXTERN NLME_GetEnergyThreshold
        FUNCTION NLME_GetEnergyThreshold,0202H
        ARGFRAME ISTACK, 2, STACK
        ARGFRAME PSTACK, 0, STACK
        ARGFRAME XSTACK, 0, STACK
        ARGFRAME IOVERLAY, 0, STATIC
        ARGFRAME DOVERLAY, 0, STATIC
        EXTERN NLME_SetEnergyThreshold
        FUNCTION NLME_SetEnergyThreshold,0202H
        ARGFRAME ISTACK, 2, STACK
        ARGFRAME PSTACK, 0, STACK
        ARGFRAME XSTACK, 0, STACK
        ARGFRAME IOVERLAY, 0, STATIC
        ARGFRAME DOVERLAY, 0, STATIC
        EXTERN NLME_StartRouterRequest
        FUNCTION NLME_StartRouterRequest,0202H
        ARGFRAME ISTACK, 2, STACK
        ARGFRAME PSTACK, 0, STACK
        ARGFRAME XSTACK, 12, STACK
        ARGFRAME IOVERLAY, 0, STATIC
        ARGFRAME DOVERLAY, 0, STATIC
        EXTERN NLME_SetPollRate
        FUNCTION NLME_SetPollRate,0202H
        ARGFRAME ISTACK, 2, STACK
        ARGFRAME PSTACK, 0, STACK
        ARGFRAME XSTACK, 12, STACK
        ARGFRAME IOVERLAY, 0, STATIC
        ARGFRAME DOVERLAY, 0, STATIC
        EXTERN NLME_InitNV
        FUNCTION NLME_InitNV,0202H
        ARGFRAME ISTACK, 0, STACK
        ARGFRAME PSTACK, 0, STACK
        ARGFRAME XSTACK, 9, STACK
        ARGFRAME IOVERLAY, 0, STATIC
        ARGFRAME DOVERLAY, 0, STATIC
        EXTERN NLME_RestoreFromNV
        FUNCTION NLME_RestoreFromNV,0202H
        ARGFRAME ISTACK, 0, STACK
        ARGFRAME PSTACK, 0, STACK
        ARGFRAME XSTACK, 9, STACK
        ARGFRAME IOVERLAY, 0, STATIC
        ARGFRAME DOVERLAY, 0, STATIC
        EXTERN NLME_GetShortAddr
        FUNCTION NLME_GetShortAddr,0202H
        ARGFRAME ISTACK, 0, STACK
        ARGFRAME PSTACK, 0, STACK
        ARGFRAME XSTACK, 12, STACK
        ARGFRAME IOVERLAY, 0, STATIC
        ARGFRAME DOVERLAY, 0, STATIC
        EXTERN sAddrExtCpy
        FUNCTION sAddrExtCpy,0202H
        ARGFRAME ISTACK, 0, STACK
        ARGFRAME PSTACK, 0, STACK
        ARGFRAME XSTACK, 28, STACK
        ARGFRAME IOVERLAY, 0, STATIC
        ARGFRAME DOVERLAY, 0, STATIC
        EXTERN osal_memset
        FUNCTION osal_memset,0202H
        ARGFRAME ISTACK, 0, STACK
        ARGFRAME PSTACK, 0, STACK
        ARGFRAME XSTACK, 31, STACK
        ARGFRAME IOVERLAY, 0, STATIC
        ARGFRAME DOVERLAY, 0, STATIC
        EXTERN osal_nv_item_init
        FUNCTION osal_nv_item_init,0202H
        ARGFRAME ISTACK, 0, STACK
        ARGFRAME PSTACK, 0, STACK
        ARGFRAME XSTACK, 29, STACK
        ARGFRAME IOVERLAY, 0, STATIC
        ARGFRAME DOVERLAY, 0, STATIC
        EXTERN osal_nv_read
        FUNCTION osal_nv_read,0202H
        ARGFRAME ISTACK, 0, STACK
        ARGFRAME PSTACK, 0, STACK
        ARGFRAME XSTACK, 37, STACK
        ARGFRAME IOVERLAY, 0, STATIC
        ARGFRAME DOVERLAY, 0, STATIC
        EXTERN HalKeyRead
        FUNCTION HalKeyRead,0202H
        ARGFRAME ISTACK, 2, STACK
        ARGFRAME PSTACK, 0, STACK
        ARGFRAME XSTACK, 0, STACK
        ARGFRAME IOVERLAY, 0, STATIC
        ARGFRAME DOVERLAY, 0, STATIC
        EXTERN ZDP_IncomingData
        FUNCTION ZDP_IncomingData,0202H
        ARGFRAME ISTACK, 0, STACK
        ARGFRAME PSTACK, 0, STACK
        ARGFRAME XSTACK, 11, STACK
        ARGFRAME IOVERLAY, 0, STATIC
        ARGFRAME DOVERLAY, 0, STATIC
        EXTERN NLME_JoinRequest
        FUNCTION NLME_JoinRequest,0202H
        ARGFRAME ISTACK, 0, STACK
        ARGFRAME PSTACK, 0, STACK
        ARGFRAME XSTACK, 12, STACK
        ARGFRAME IOVERLAY, 0, STATIC
        ARGFRAME DOVERLAY, 0, STATIC
        EXTERN ZMacSetReq
        FUNCTION ZMacSetReq,0202H
        ARGFRAME ISTACK, 0, STACK
        ARGFRAME PSTACK, 0, STACK
        ARGFRAME XSTACK, 12, STACK
        ARGFRAME IOVERLAY, 0, STATIC
        ARGFRAME DOVERLAY, 0, STATIC
        EXTERN NLME_ReJoinRequest
        FUNCTION NLME_ReJoinRequest,0202H
        ARGFRAME ISTACK, 0, STACK
        ARGFRAME PSTACK, 0, STACK
        ARGFRAME XSTACK, 11, STACK
        ARGFRAME IOVERLAY, 0, STATIC
        ARGFRAME DOVERLAY, 0, STATIC
        EXTERN NLME_SetQueuedPollRate
        FUNCTION NLME_SetQueuedPollRate,0202H
        ARGFRAME ISTACK, 0, STACK
        ARGFRAME PSTACK, 0, STACK
        ARGFRAME XSTACK, 12, STACK
        ARGFRAME IOVERLAY, 0, STATIC
        ARGFRAME DOVERLAY, 0, STATIC
        EXTERN NLME_SetResponseRate
        FUNCTION NLME_SetResponseRate,0202H
        ARGFRAME ISTACK, 0, STACK
        ARGFRAME PSTACK, 0, STACK
        ARGFRAME XSTACK, 12, STACK
        ARGFRAME IOVERLAY, 0, STATIC
        ARGFRAME DOVERLAY, 0, STATIC
        EXTERN ZDO_ParseAddrRsp
        FUNCTION ZDO_ParseAddrRsp,0202H
        ARGFRAME ISTACK, 0, STACK
        ARGFRAME PSTACK, 0, STACK
        ARGFRAME XSTACK, 31, STACK
        ARGFRAME IOVERLAY, 0, STATIC
        ARGFRAME DOVERLAY, 0, STATIC
        EXTERN ZDO_UpdateAddrManager
        FUNCTION ZDO_UpdateAddrManager,0202H
        ARGFRAME ISTACK, 0, STACK
        ARGFRAME PSTACK, 0, STACK
        ARGFRAME XSTACK, 31, STACK
        ARGFRAME IOVERLAY, 0, STATIC
        ARGFRAME DOVERLAY, 0, STATIC
        EXTERN osal_mem_free
        FUNCTION osal_mem_free,0202H
        ARGFRAME ISTACK, 0, STACK
        ARGFRAME PSTACK, 0, STACK
        ARGFRAME XSTACK, 31, STACK
        ARGFRAME IOVERLAY, 0, STATIC
        ARGFRAME DOVERLAY, 0, STATIC
        EXTERN ZDO_ParseBindUnbindReq
        FUNCTION ZDO_ParseBindUnbindReq,0202H
        ARGFRAME ISTACK, 0, STACK
        ARGFRAME PSTACK, 0, STACK
        ARGFRAME XSTACK, 31, STACK
        ARGFRAME IOVERLAY, 0, STATIC
        ARGFRAME DOVERLAY, 0, STATIC
        EXTERN ZDO_ProcessBindUnbindReq
        FUNCTION ZDO_ProcessBindUnbindReq,0202H
        ARGFRAME ISTACK, 0, STACK
        ARGFRAME PSTACK, 0, STACK
        ARGFRAME XSTACK, 31, STACK
        ARGFRAME IOVERLAY, 0, STATIC
        ARGFRAME DOVERLAY, 0, STATIC
        EXTERN ZDO_RegisterForZDOMsg
        FUNCTION ZDO_RegisterForZDOMsg,0202H
        ARGFRAME ISTACK, 2, STACK
        ARGFRAME PSTACK, 0, STACK
        ARGFRAME XSTACK, 0, STACK
        ARGFRAME IOVERLAY, 0, STATIC
        ARGFRAME DOVERLAY, 0, STATIC
        EXTERN ZDSecMgrTransportKeyInd
        FUNCTION ZDSecMgrTransportKeyInd,0202H
        ARGFRAME ISTACK, 2, STACK
        ARGFRAME PSTACK, 0, STACK
        ARGFRAME XSTACK, 0, STACK
        ARGFRAME IOVERLAY, 0, STATIC
        ARGFRAME DOVERLAY, 0, STATIC
        EXTERN ZDSecMgrRemoveDeviceInd
        FUNCTION ZDSecMgrRemoveDeviceInd,0202H
        ARGFRAME ISTACK, 2, STACK
        ARGFRAME PSTACK, 0, STACK
        ARGFRAME XSTACK, 0, STACK
        ARGFRAME IOVERLAY, 0, STATIC
        ARGFRAME DOVERLAY, 0, STATIC
        EXTERN ZDSecMgrSwitchKeyInd
        FUNCTION ZDSecMgrSwitchKeyInd,0202H
        ARGFRAME ISTACK, 2, STACK
        ARGFRAME PSTACK, 0, STACK
        ARGFRAME XSTACK, 0, STACK
        ARGFRAME IOVERLAY, 0, STATIC
        ARGFRAME DOVERLAY, 0, STATIC
        EXTERN SSP_ReadNwkActiveKey
        FUNCTION SSP_ReadNwkActiveKey,0202H
        ARGFRAME ISTACK, 0, STACK
        ARGFRAME PSTACK, 0, STACK
        ARGFRAME XSTACK, 33, STACK
        ARGFRAME IOVERLAY, 0, STATIC
        ARGFRAME DOVERLAY, 0, STATIC
        EXTERN osal_nv_write
        FUNCTION osal_nv_write,0202H
        ARGFRAME ISTACK, 0, STACK
        ARGFRAME PSTACK, 0, STACK
        ARGFRAME XSTACK, 37, STACK
        ARGFRAME IOVERLAY, 0, STATIC
        ARGFRAME DOVERLAY, 0, STATIC
        EXTERN osal_stop_timerEx
        FUNCTION osal_stop_timerEx,0202H
        ARGFRAME ISTACK, 2, STACK
        ARGFRAME PSTACK, 0, STACK
        ARGFRAME XSTACK, 0, STACK
        ARGFRAME IOVERLAY, 0, STATIC
        ARGFRAME DOVERLAY, 0, STATIC
        EXTERN NLME_RemoveChild
        FUNCTION NLME_RemoveChild,0202H
        ARGFRAME ISTACK, 2, STACK
        ARGFRAME PSTACK, 0, STACK
        ARGFRAME XSTACK, 0, STACK
        ARGFRAME IOVERLAY, 0, STATIC
        ARGFRAME DOVERLAY, 0, STATIC
        EXTERN osal_msg_allocate
        FUNCTION osal_msg_allocate,0202H
        ARGFRAME ISTACK, 0, STACK
        ARGFRAME PSTACK, 0, STACK
        ARGFRAME XSTACK, 17, STACK
        ARGFRAME IOVERLAY, 0, STATIC
        ARGFRAME DOVERLAY, 0, STATIC
        EXTERN osal_memcpy
        FUNCTION osal_memcpy,0202H
        ARGFRAME ISTACK, 0, STACK
        ARGFRAME PSTACK, 0, STACK
        ARGFRAME XSTACK, 20, STACK
        ARGFRAME IOVERLAY, 0, STATIC
        ARGFRAME DOVERLAY, 0, STATIC
        EXTERN osal_msg_send
        FUNCTION osal_msg_send,0202H
        ARGFRAME ISTACK, 0, STACK
        ARGFRAME PSTACK, 0, STACK
        ARGFRAME XSTACK, 17, STACK
        ARGFRAME IOVERLAY, 0, STATIC
        ARGFRAME DOVERLAY, 0, STATIC
        EXTERN sAddrExtCmp
        FUNCTION sAddrExtCmp,0202H
        ARGFRAME ISTACK, 0, STACK
        ARGFRAME PSTACK, 0, STACK
        ARGFRAME XSTACK, 28, STACK
        ARGFRAME IOVERLAY, 0, STATIC
        ARGFRAME DOVERLAY, 0, STATIC
        EXTERN HalLedSet
        FUNCTION HalLedSet,0202H
        ARGFRAME ISTACK, 2, STACK
        ARGFRAME PSTACK, 0, STACK
        ARGFRAME XSTACK, 0, STACK
        ARGFRAME IOVERLAY, 0, STATIC
        ARGFRAME DOVERLAY, 0, STATIC
        EXTERN NLME_LeaveRsp
        FUNCTION NLME_LeaveRsp,0202H
        ARGFRAME ISTACK, 0, STACK
        ARGFRAME PSTACK, 0, STACK
        ARGFRAME XSTACK, 14, STACK
        ARGFRAME IOVERLAY, 0, STATIC
        ARGFRAME DOVERLAY, 0, STATIC
        EXTERN NLME_GetCoordShortAddr
        FUNCTION NLME_GetCoordShortAddr,0202H
        ARGFRAME ISTACK, 2, STACK
        ARGFRAME PSTACK, 0, STACK
        ARGFRAME XSTACK, 14, STACK
        ARGFRAME IOVERLAY, 0, STATIC
        ARGFRAME DOVERLAY, 0, STATIC
        EXTERN nwkNeighborInitTable
        FUNCTION nwkNeighborInitTable,0202H
        ARGFRAME ISTACK, 2, STACK
        ARGFRAME PSTACK, 0, STACK
        ARGFRAME XSTACK, 0, STACK
        ARGFRAME IOVERLAY, 0, STATIC
        ARGFRAME DOVERLAY, 0, STATIC
        EXTERN NLME_RouteDiscoveryRequest
        FUNCTION NLME_RouteDiscoveryRequest,0202H
        ARGFRAME ISTACK, 2, STACK
        ARGFRAME PSTACK, 0, STACK
        ARGFRAME XSTACK, 0, STACK
        ARGFRAME IOVERLAY, 0, STATIC
        ARGFRAME DOVERLAY, 0, STATIC
        EXTERN ZDP_GenericRsp
        FUNCTION ZDP_GenericRsp,0202H
        ARGFRAME ISTACK, 0, STACK
        ARGFRAME PSTACK, 0, STACK
        ARGFRAME XSTACK, 14, STACK
        ARGFRAME IOVERLAY, 0, STATIC
        ARGFRAME DOVERLAY, 0, STATIC
        EXTERN afSetMatch
        FUNCTION afSetMatch,0202H
        ARGFRAME ISTACK, 2, STACK
        ARGFRAME PSTACK, 0, STACK
        ARGFRAME XSTACK, 0, STACK
        ARGFRAME IOVERLAY, 0, STATIC
        ARGFRAME DOVERLAY, 0, STATIC
        EXTERN osal_get_timeoutEx
        FUNCTION osal_get_timeoutEx,0202H
        ARGFRAME ISTACK, 0, STACK
        ARGFRAME PSTACK, 0, STACK
        ARGFRAME XSTACK, 10, STACK
        ARGFRAME IOVERLAY, 0, STATIC
        ARGFRAME DOVERLAY, 0, STATIC
        EXTERN nwk_getNetworkDesc
        FUNCTION nwk_getNetworkDesc,0202H
        ARGFRAME ISTACK, 0, STACK
        ARGFRAME PSTACK, 0, STACK
        ARGFRAME XSTACK, 10, STACK
        ARGFRAME IOVERLAY, 0, STATIC
        ARGFRAME DOVERLAY, 0, STATIC
        EXTERN ZDP_DeviceAnnce
        FUNCTION ZDP_DeviceAnnce,0202H
        ARGFRAME ISTACK, 0, STACK
        ARGFRAME PSTACK, 0, STACK
        ARGFRAME XSTACK, 11, STACK
        ARGFRAME IOVERLAY, 0, STATIC
        ARGFRAME DOVERLAY, 0, STATIC
        EXTERN ??HalKeyRead?relay
        FUNCTION ??HalKeyRead?relay,00H
        EXTERN ??HalLedBlink?relay
        FUNCTION ??HalLedBlink?relay,00H
        EXTERN ??HalLedSet?relay
        FUNCTION ??HalLedSet?relay,00H
        EXTERN ??NLME_GetCoordShortAddr?relay
        FUNCTION ??NLME_GetCoordShortAddr?relay,00H
        EXTERN ??NLME_GetEnergyThreshold?relay
        FUNCTION ??NLME_GetEnergyThreshold?relay,00H
        EXTERN ??NLME_GetExtAddr?relay
        FUNCTION ??NLME_GetExtAddr?relay,00H
        EXTERN ??NLME_GetShortAddr?relay
        FUNCTION ??NLME_GetShortAddr?relay,00H
        EXTERN ??NLME_InitNV?relay
        FUNCTION ??NLME_InitNV?relay,00H
        EXTERN ??NLME_JoinRequest?relay
        FUNCTION ??NLME_JoinRequest?relay,00H
        EXTERN ??NLME_LeaveRsp?relay
        FUNCTION ??NLME_LeaveRsp?relay,00H
        EXTERN ??NLME_ReJoinRequest?relay
        FUNCTION ??NLME_ReJoinRequest?relay,00H
        EXTERN ??NLME_RemoveChild?relay
        FUNCTION ??NLME_RemoveChild?relay,00H
        EXTERN ??NLME_RestoreFromNV?relay
        FUNCTION ??NLME_RestoreFromNV?relay,00H
        EXTERN ??NLME_RouteDiscoveryRequest?relay
        FUNCTION ??NLME_RouteDiscoveryRequest?relay,00H
        EXTERN ??NLME_SetBroadcastFilter?relay
        FUNCTION ??NLME_SetBroadcastFilter?relay,00H
        EXTERN ??NLME_SetEnergyThreshold?relay
        FUNCTION ??NLME_SetEnergyThreshold?relay,00H
        EXTERN ??NLME_SetPollRate?relay
        FUNCTION ??NLME_SetPollRate?relay,00H
        EXTERN ??NLME_SetQueuedPollRate?relay
        FUNCTION ??NLME_SetQueuedPollRate?relay,00H
        EXTERN ??NLME_SetResponseRate?relay
        FUNCTION ??NLME_SetResponseRate?relay,00H
        EXTERN ??NLME_StartRouterRequest?relay
        FUNCTION ??NLME_StartRouterRequest?relay,00H
        EXTERN ??SSP_ReadNwkActiveKey?relay
        FUNCTION ??SSP_ReadNwkActiveKey?relay,00H
        EXTERN ??ZDConfig_InitDescriptors?relay
        FUNCTION ??ZDConfig_InitDescriptors?relay,00H
        EXTERN ??ZDO_Init?relay
        FUNCTION ??ZDO_Init?relay,00H
        EXTERN ??ZDO_ParseAddrRsp?relay
        FUNCTION ??ZDO_ParseAddrRsp?relay,00H
        EXTERN ??ZDO_ParseBindUnbindReq?relay
        FUNCTION ??ZDO_ParseBindUnbindReq?relay,00H
        EXTERN ??ZDO_ProcessBindUnbindReq?relay
        FUNCTION ??ZDO_ProcessBindUnbindReq?relay,00H
        EXTERN ??ZDO_RegisterForZDOMsg?relay
        FUNCTION ??ZDO_RegisterForZDOMsg?relay,00H
        EXTERN ??ZDO_StartDevice?relay
        FUNCTION ??ZDO_StartDevice?relay,00H
        EXTERN ??ZDO_UpdateAddrManager?relay
        FUNCTION ??ZDO_UpdateAddrManager?relay,00H
        EXTERN ??ZDO_UpdateNwkStatus?relay
        FUNCTION ??ZDO_UpdateNwkStatus?relay,00H
        EXTERN ??ZDP_DeviceAnnce?relay
        FUNCTION ??ZDP_DeviceAnnce?relay,00H
        EXTERN ??ZDP_GenericRsp?relay
        FUNCTION ??ZDP_GenericRsp?relay,00H
        EXTERN ??ZDP_IncomingData?relay
        FUNCTION ??ZDP_IncomingData?relay,00H
        EXTERN ??ZDSecMgrInit?relay
        FUNCTION ??ZDSecMgrInit?relay,00H
        EXTERN ??ZDSecMgrNewDeviceEvent?relay
        FUNCTION ??ZDSecMgrNewDeviceEvent?relay,00H
        EXTERN ??ZDSecMgrRemoveDeviceInd?relay
        FUNCTION ??ZDSecMgrRemoveDeviceInd?relay,00H
        EXTERN ??ZDSecMgrSwitchKeyInd?relay
        FUNCTION ??ZDSecMgrSwitchKeyInd?relay,00H
        EXTERN ??ZDSecMgrTransportKeyInd?relay
        FUNCTION ??ZDSecMgrTransportKeyInd?relay,00H
        EXTERN ??ZMacSetReq?relay
        FUNCTION ??ZMacSetReq?relay,00H
        EXTERN ??afRegister?relay
        FUNCTION ??afRegister?relay,00H
        EXTERN ??afSetMatch?relay
        FUNCTION ??afSetMatch?relay,00H
        EXTERN ??nwkNeighborInitTable?relay
        FUNCTION ??nwkNeighborInitTable?relay,00H
        EXTERN ??nwk_ExtPANIDValid?relay
        FUNCTION ??nwk_ExtPANIDValid?relay,00H
        EXTERN ??nwk_getNetworkDesc?relay
        FUNCTION ??nwk_getNetworkDesc?relay,00H
        EXTERN ??osal_get_timeoutEx?relay
        FUNCTION ??osal_get_timeoutEx?relay,00H
        EXTERN ??osal_mem_free?relay
        FUNCTION ??osal_mem_free?relay,00H
        EXTERN ??osal_memcpy?relay
        FUNCTION ??osal_memcpy?relay,00H
        EXTERN ??osal_memset?relay
        FUNCTION ??osal_memset?relay,00H
        EXTERN ??osal_msg_allocate?relay
        FUNCTION ??osal_msg_allocate?relay,00H
        EXTERN ??osal_msg_deallocate?relay
        FUNCTION ??osal_msg_deallocate?relay,00H
        EXTERN ??osal_msg_receive?relay
        FUNCTION ??osal_msg_receive?relay,00H
        EXTERN ??osal_msg_send?relay
        FUNCTION ??osal_msg_send?relay,00H
        EXTERN ??osal_nv_item_init?relay
        FUNCTION ??osal_nv_item_init?relay,00H
        EXTERN ??osal_nv_read?relay
        FUNCTION ??osal_nv_read?relay,00H
        EXTERN ??osal_nv_write?relay
        FUNCTION ??osal_nv_write?relay,00H
        EXTERN ??osal_pwrmgr_device?relay
        FUNCTION ??osal_pwrmgr_device?relay,00H
        EXTERN ??osal_rand?relay
        FUNCTION ??osal_rand?relay,00H
        EXTERN ??osal_set_event?relay
        FUNCTION ??osal_set_event?relay,00H
        EXTERN ??osal_start_timerEx?relay
        FUNCTION ??osal_start_timerEx?relay,00H
        EXTERN ??osal_stop_timerEx?relay
        FUNCTION ??osal_stop_timerEx?relay,00H
        EXTERN ??sAddrExtCmp?relay
        FUNCTION ??sAddrExtCmp?relay,00H
        EXTERN ??sAddrExtCpy?relay
        FUNCTION ??sAddrExtCpy?relay,00H
        EXTERN ??zgInitItems?relay
        FUNCTION ??zgInitItems?relay,00H
        EXTERN ??zgReadStartupOptions?relay
        FUNCTION ??zgReadStartupOptions?relay,00H
        EXTERN AIB_apsUseExtendedPANID
        EXTERN AIB_apsUseInsecureJoin
        EXTERN ZDO_Config_Node_Descriptor
        EXTERN _NIB
        EXTERN nwkFrameCounter
        EXTERN pZDNwkMgr_ProcessDataConfirm
        EXTERN zgConcentratorRC
        EXTERN zgConcentratorRadius
        EXTERN zgConfigPANID
        EXTERN zgDefaultStartingScanDuration
        EXTERN zgDeviceLogicalType
        EXTERN zgStackProfile

// C:\Texas Instruments\ZStack-CC2530-2.2.2-1.3.0\Components\stack\zdo\ZDApp.c
//    1 /**************************************************************************************************
//    2   Filename:       ZDApp.c
//    3   Revised:        $Date: 2009-08-17 16:19:36 -0700 (Mon, 17 Aug 2009) $
//    4   Revision:       $Revision: 20585 $
//    5 
//    6   Description:    This file contains the interface to the Zigbee Device Application. This is the
//    7                   Application part that the use can change. This also contains the Task functions.
//    8 
//    9 
//   10   Copyright 2004-2009 Texas Instruments Incorporated. All rights reserved.
//   11 
//   12   IMPORTANT: Your use of this Software is limited to those specific rights
//   13   granted under the terms of a software license agreement between the user
//   14   who downloaded the software, his/her employer (which must be your employer)
//   15   and Texas Instruments Incorporated (the "License").  You may not use this
//   16   Software unless you agree to abide by the terms of the License. The License
//   17   limits your use, and you acknowledge, that the Software may not be modified,
//   18   copied or distributed unless embedded on a Texas Instruments microcontroller
//   19   or used solely and exclusively in conjunction with a Texas Instruments radio
//   20   frequency transceiver, which is integrated into your product.  Other than for
//   21   the foregoing purpose, you may not use, reproduce, copy, prepare derivative
//   22   works of, modify, distribute, perform, display or sell this Software and/or
//   23   its documentation for any purpose.
//   24 
//   25   YOU FURTHER ACKNOWLEDGE AND AGREE THAT THE SOFTWARE AND DOCUMENTATION ARE
//   26   PROVIDED AS IS WITHOUT WARRANTY OF ANY KIND, EITHER EXPRESS OR IMPLIED,
//   27   INCLUDING WITHOUT LIMITATION, ANY WARRANTY OF MERCHANTABILITY, TITLE,
//   28   NON-INFRINGEMENT AND FITNESS FOR A PARTICULAR PURPOSE. IN NO EVENT SHALL
//   29   TEXAS INSTRUMENTS OR ITS LICENSORS BE LIABLE OR OBLIGATED UNDER CONTRACT,
//   30   NEGLIGENCE, STRICT LIABILITY, CONTRIBUTION, BREACH OF WARRANTY, OR OTHER
//   31   LEGAL EQUITABLE THEORY ANY DIRECT OR INDIRECT DAMAGES OR EXPENSES
//   32   INCLUDING BUT NOT LIMITED TO ANY INCIDENTAL, SPECIAL, INDIRECT, PUNITIVE
//   33   OR CONSEQUENTIAL DAMAGES, LOST PROFITS OR LOST DATA, COST OF PROCUREMENT
//   34   OF SUBSTITUTE GOODS, TECHNOLOGY, SERVICES, OR ANY CLAIMS BY THIRD PARTIES
//   35   (INCLUDING BUT NOT LIMITED TO ANY DEFENSE THEREOF), OR OTHER SIMILAR COSTS.
//   36 
//   37   Should you have any questions regarding your right to use this Software,
//   38   contact Texas Instruments Incorporated at www.TI.com.
//   39 **************************************************************************************************/
//   40 
//   41 /*********************************************************************
//   42  * INCLUDES
//   43  */
//   44 #include "ZComDef.h"
//   45 #include "ZMac.h"
//   46 #include "OSAL.h"
//   47 #include "OSAL_Tasks.h"
//   48 #include "OSAL_PwrMgr.h"
//   49 #include "OSAL_Nv.h"
//   50 #include "AF.h"
//   51 #include "APSMEDE.h"
//   52 #include "NLMEDE.h"
//   53 #include "AddrMgr.h"
//   54 #include "ZDProfile.h"
//   55 #include "ZDObject.h"
//   56 #include "ZDConfig.h"
//   57 #include "ZDSecMgr.h"
//   58 #include "ZDApp.h"
//   59 #include "DebugTrace.h"
//   60 #include "nwk_util.h"
//   61 #include "OnBoard.h"

        ASEGN SFR_AN:DATA:NOROOT,0a8H
// union <unnamed> volatile __sfr _A_IEN0
_A_IEN0:
        DS 1

        ASEGN SFR_AN:DATA:NOROOT,0c9H
// unsigned char volatile __sfr WDCTL
WDCTL:
        DS 1
//   62 #include "ZGlobals.h"
//   63 #include "ZDNwkMgr.h"
//   64 #include "rtg.h"
//   65 
//   66 #include "ssp.h"
//   67 
//   68 #if defined( MT_ZDO_FUNC )
//   69   #include "MT_ZDO.h"
//   70 #endif
//   71 
//   72 /* HAL */
//   73 #include "hal_led.h"
//   74 #include "hal_lcd.h"
//   75 #include "hal_key.h"
//   76 
//   77 #if defined( MT_MAC_FUNC ) || defined( MT_MAC_CB_FUNC )
//   78   #error "ERROR! MT_MAC functionalities should be disabled on ZDO devices"
//   79 #endif
//   80 /*********************************************************************
//   81  * MACROS
//   82  */
//   83 
//   84 /*********************************************************************
//   85  * CONSTANTS
//   86  */
//   87 #if !defined( NWK_START_DELAY )
//   88   #define NWK_START_DELAY             100   // in milliseconds
//   89 #endif
//   90 
//   91 #if !defined( EXTENDED_JOINING_RANDOM_MASK )
//   92   #define EXTENDED_JOINING_RANDOM_MASK 0x007F
//   93 #endif
//   94 
//   95 #if !defined( BEACON_REQUEST_DELAY )
//   96   #define BEACON_REQUEST_DELAY        100   // in milliseconds
//   97 #endif
//   98 
//   99 #if !defined( BEACON_REQ_DELAY_MASK )
//  100   #define BEACON_REQ_DELAY_MASK       0x007F
//  101 #endif
//  102 
//  103 #define MAX_RESUME_RETRY            3
//  104 
//  105 #define MAX_DEVICE_UNAUTH_TIMEOUT   5000  // 5 seconds
//  106 
//  107 // Beacon Order Settings (see NLMEDE.h)
//  108 #define DEFAULT_BEACON_ORDER        BEACON_ORDER_NO_BEACONS
//  109 #define DEFAULT_SUPERFRAME_ORDER    DEFAULT_BEACON_ORDER
//  110 
//  111 #if !defined( MAX_NWK_FRAMECOUNTER_CHANGES )
//  112   // The number of times the frame counter can change before
//  113   // saving to NV
//  114   #define MAX_NWK_FRAMECOUNTER_CHANGES    1000
//  115 #endif
//  116 
//  117 // Leave control bits
//  118 #define ZDAPP_LEAVE_CTRL_INIT 0
//  119 #define ZDAPP_LEAVE_CTRL_SET  1
//  120 #define ZDAPP_LEAVE_CTRL_RA   2
//  121 
//  122 // Standard time to update NWK NV data
//  123 #define ZDAPP_UPDATE_NWK_NV_TIME 700
//  124 
//  125 // Address Manager Stub Implementation
//  126 #define ZDApp_NwkWriteNVRequest AddrMgrWriteNVRequest
//  127 
//  128 /*********************************************************************
//  129  * TYPEDEFS
//  130  */
//  131 
//  132 /*********************************************************************
//  133  * GLOBAL VARIABLES
//  134  */
//  135 
//  136 #if defined( LCD_SUPPORTED )

        RSEG XDATA_Z:XDATA:NOROOT(0)
//  137   uint8 MatchRsps = 0;
MatchRsps:
        DS 1
        REQUIRE __INIT_XDATA_Z
//  138 #endif
//  139 

        RSEG XDATA_I:XDATA:NOROOT(0)
        DATA
//  140 uint8 zdoDiscCounter = 1;
zdoDiscCounter:
        DS 1
        REQUIRE `?<Initializer for zdoDiscCounter>`
        REQUIRE __INIT_XDATA_I
//  141 

        RSEG XDATA_Z:XDATA:NOROOT(0)
//  142 zAddrType_t ZDAppNwkAddr;
ZDAppNwkAddr:
        DS 9
        REQUIRE __INIT_XDATA_Z
//  143 

        RSEG XDATA_Z:XDATA:NOROOT(0)
//  144 uint8 zdappMgmtNwkDiscRspTransSeq;
zdappMgmtNwkDiscRspTransSeq:
        DS 1
        REQUIRE __INIT_XDATA_Z

        RSEG XDATA_Z:XDATA:NOROOT(0)
//  145 uint8 zdappMgmtNwkDiscReqInProgress = FALSE;
zdappMgmtNwkDiscReqInProgress:
        DS 1
        REQUIRE __INIT_XDATA_Z

        RSEG XDATA_Z:XDATA:NOROOT(0)
//  146 zAddrType_t zdappMgmtNwkDiscRspAddr;
zdappMgmtNwkDiscRspAddr:
        DS 9
        REQUIRE __INIT_XDATA_Z

        RSEG XDATA_Z:XDATA:NOROOT(0)
//  147 uint8 zdappMgmtNwkDiscStartIndex;
zdappMgmtNwkDiscStartIndex:
        DS 1
        REQUIRE __INIT_XDATA_Z

        RSEG XDATA_Z:XDATA:NOROOT(0)
//  148 uint8 zdappMgmtSavedNwkState;
zdappMgmtSavedNwkState:
        DS 1
        REQUIRE __INIT_XDATA_Z
//  149 

        RSEG XDATA_Z:XDATA:NOROOT(0)
//  150 uint16 nwkFrameCounterChanges = 0;
nwkFrameCounterChanges:
        DS 2
        REQUIRE __INIT_XDATA_Z

        RSEG XDATA_I:XDATA:NOROOT(0)
        DATA
//  151 uint8 continueJoining = TRUE;
continueJoining:
        DS 1
        REQUIRE `?<Initializer for continueJoining>`
        REQUIRE __INIT_XDATA_I
//  152 

        RSEG XDATA_Z:XDATA:NOROOT(0)
//  153 uint8  _tmpRejoinState;
_tmpRejoinState:
        DS 1
        REQUIRE __INIT_XDATA_Z
//  154 
//  155 // The extended PanID used in ZDO layer for rejoin.

        RSEG XDATA_Z:XDATA:NOROOT(0)
//  156 uint8 ZDO_UseExtendedPANID[Z_EXTADDR_LEN];
ZDO_UseExtendedPANID:
        DS 8
        REQUIRE __INIT_XDATA_Z
//  157 
//  158 /*********************************************************************
//  159  * EXTERNAL VARIABLES
//  160  */
//  161 
//  162 /*********************************************************************
//  163  * EXTERNAL FUNCTIONS
//  164  */
//  165 
//  166 /*********************************************************************
//  167  * LOCAL FUNCTIONS
//  168  */
//  169 
//  170 void ZDApp_NetworkStartEvt( void );
//  171 void ZDApp_DeviceAuthEvt( void );
//  172 void ZDApp_SaveNetworkStateEvt( void );
//  173 
//  174 uint8 ZDApp_ReadNetworkRestoreState( void );
//  175 uint8 ZDApp_RestoreNetworkState( void );
//  176 void ZDAppDetermineDeviceType( void );
//  177 void ZDApp_InitUserDesc( void );
//  178 void ZDAppCheckForHoldKey( void );
//  179 void ZDApp_ProcessOSALMsg( osal_event_hdr_t *msgPtr );
//  180 void ZDApp_ProcessNetworkJoin( void );
//  181 void ZDApp_SetCoordAddress( uint8 endPoint, uint8 dstEP );
//  182 void ZDApp_SaveNwkKey( void );
//  183 uint8 ZDApp_RestoreNwkKey( void );
//  184 
//  185 void ZDApp_SecInit( uint8 state );
//  186 UINT16 ZDApp_ProcessSecEvent( uint8 task_id, UINT16 events );
//  187 void ZDApp_ProcessSecMsg( osal_event_hdr_t *msgPtr );
//  188 
//  189 void ZDApp_SendMsg( uint8 taskID, uint8 cmd, uint8 len, uint8 *buf );
//  190 
//  191 void ZDApp_ResetTimerStart( uint16 delay );
//  192 void ZDApp_ResetTimerCancel( void );
//  193 void ZDApp_LeaveCtrlInit( void );
//  194 void ZDApp_LeaveCtrlSet( uint8 ra );
//  195 uint8 ZDApp_LeaveCtrlBypass( void );
//  196 void ZDApp_LeaveCtrlStartup( devStates_t* state, uint16* startDelay );
//  197 void ZDApp_LeaveReset( uint8 ra );
//  198 void ZDApp_LeaveUpdate( uint16 nwkAddr, uint8* extAddr,
//  199                         uint8 removeChildren );
//  200 void ZDApp_NodeProfileSync( ZDO_NetworkDiscoveryCfm_t* cfm );
//  201 void ZDApp_ProcessMsgCBs( zdoIncomingMsg_t *inMsg );
//  202 void ZDApp_RegisterCBs( void );
//  203 
//  204 /*********************************************************************
//  205  * LOCAL VARIABLES
//  206  */
//  207 

        RSEG XDATA_Z:XDATA:NOROOT(0)
//  208 uint8 ZDAppTaskID;
ZDAppTaskID:
        DS 1
        REQUIRE __INIT_XDATA_Z

        RSEG XDATA_Z:XDATA:NOROOT(0)
//  209 uint8 nwkStatus;
nwkStatus:
        DS 1
        REQUIRE __INIT_XDATA_Z

        RSEG XDATA_Z:XDATA:NOROOT(0)
//  210 endPointDesc_t *ZDApp_AutoFindMode_epDesc = (endPointDesc_t *)NULL;
ZDApp_AutoFindMode_epDesc:
        DS 2
        REQUIRE __INIT_XDATA_Z

        RSEG XDATA_Z:XDATA:NOROOT(0)
//  211 uint8 ZDApp_LeaveCtrl;
ZDApp_LeaveCtrl:
        DS 1
        REQUIRE __INIT_XDATA_Z
//  212 
//  213 #if defined( HOLD_AUTO_START )
//  214   devStates_t devState = DEV_HOLD;
//  215 #else

        RSEG XDATA_I:XDATA:NOROOT(0)
        DATA
//  216   devStates_t devState = DEV_INIT;
devState:
        DS 1
        REQUIRE `?<Initializer for devState>`
        REQUIRE __INIT_XDATA_I
//  217 #endif
//  218 
//  219 #if ( ZG_BUILD_RTRONLY_TYPE ) || ( ZG_BUILD_ENDDEVICE_TYPE )

        RSEG XDATA_Z:XDATA:NOROOT(0)
//  220   devStartModes_t devStartMode = MODE_JOIN;     // Assume joining
devStartMode:
        DS 1
        REQUIRE __INIT_XDATA_Z
//  221   //devStartModes_t devStartMode = MODE_RESUME; // if already "directly joined"
//  222                         // to parent. Set to make the device do an Orphan scan.
//  223 #else
//  224   // Set the default to coodinator
//  225   devStartModes_t devStartMode = MODE_HARD;
//  226 #endif
//  227 

        RSEG XDATA_Z:XDATA:NOROOT(0)
//  228 uint8 retryCnt;
retryCnt:
        DS 1
        REQUIRE __INIT_XDATA_Z
//  229 

        RSEG XDATA_I:XDATA:NOROOT(0)
        DATA
//  230 endPointDesc_t ZDApp_epDesc =
ZDApp_epDesc:
        DS 6
        REQUIRE `?<Initializer for ZDApp_epDesc>`
        REQUIRE __INIT_XDATA_I
//  231 {
//  232   ZDO_EP,
//  233   &ZDAppTaskID,
//  234   (SimpleDescriptionFormat_t *)NULL,  // No Simple description for ZDO
//  235   (afNetworkLatencyReq_t)0            // No Network Latency req
//  236 };
//  237 

        RSEG XDATA_I:XDATA:NOROOT(0)
        DATA
//  238 uint16 ZDApp_SavedPollRate = POLL_RATE;
ZDApp_SavedPollRate:
        DS 2
        REQUIRE `?<Initializer for ZDApp_SavedPollRate>`
        REQUIRE __INIT_XDATA_I
//  239 
//  240 /*********************************************************************
//  241  * @fn      ZDApp_Init
//  242  *
//  243  * @brief   ZDApp Initialization function.
//  244  *
//  245  * @param   task_id - ZDApp Task ID
//  246  *
//  247  * @return  None
//  248  */

        RSEG BANKED_CODE:CODE:NOROOT(0)
//  249 void ZDApp_Init( uint8 task_id )
ZDApp_Init:
        CFI Block cfiBlock0 Using cfiCommon0
        CFI Function ZDApp_Init
//  250 {
        FUNCALL ZDApp_Init, NLME_GetExtAddr
        LOCFRAME ISTACK, 2, STACK
        LOCFRAME PSTACK, 0, STACK
        LOCFRAME XSTACK, 0, STACK
        LOCFRAME IOVERLAY, 0, STATIC
        LOCFRAME DOVERLAY, 0, STATIC
        ARGFRAME ISTACK, 2, STACK
        ARGFRAME PSTACK, 0, STACK
        ARGFRAME XSTACK, 0, STACK
        ARGFRAME IOVERLAY, 0, STATIC
        ARGFRAME DOVERLAY, 0, STATIC
        FUNCALL ZDApp_Init, ZDAppCheckForHoldKey
        LOCFRAME ISTACK, 2, STACK
        LOCFRAME PSTACK, 0, STACK
        LOCFRAME XSTACK, 0, STACK
        LOCFRAME IOVERLAY, 0, STATIC
        LOCFRAME DOVERLAY, 0, STATIC
        ARGFRAME ISTACK, 2, STACK
        ARGFRAME PSTACK, 0, STACK
        ARGFRAME XSTACK, 0, STACK
        ARGFRAME IOVERLAY, 0, STATIC
        ARGFRAME DOVERLAY, 0, STATIC
        FUNCALL ZDApp_Init, ZDO_Init
        LOCFRAME ISTACK, 2, STACK
        LOCFRAME PSTACK, 0, STACK
        LOCFRAME XSTACK, 0, STACK
        LOCFRAME IOVERLAY, 0, STATIC
        LOCFRAME DOVERLAY, 0, STATIC
        ARGFRAME ISTACK, 2, STACK
        ARGFRAME PSTACK, 0, STACK
        ARGFRAME XSTACK, 0, STACK
        ARGFRAME IOVERLAY, 0, STATIC
        ARGFRAME DOVERLAY, 0, STATIC
        FUNCALL ZDApp_Init, afRegister
        LOCFRAME ISTACK, 2, STACK
        LOCFRAME PSTACK, 0, STACK
        LOCFRAME XSTACK, 0, STACK
        LOCFRAME IOVERLAY, 0, STATIC
        LOCFRAME DOVERLAY, 0, STATIC
        ARGFRAME ISTACK, 2, STACK
        ARGFRAME PSTACK, 0, STACK
        ARGFRAME XSTACK, 0, STACK
        ARGFRAME IOVERLAY, 0, STATIC
        ARGFRAME DOVERLAY, 0, STATIC
        FUNCALL ZDApp_Init, ZDApp_InitUserDesc
        LOCFRAME ISTACK, 2, STACK
        LOCFRAME PSTACK, 0, STACK
        LOCFRAME XSTACK, 0, STACK
        LOCFRAME IOVERLAY, 0, STATIC
        LOCFRAME DOVERLAY, 0, STATIC
        ARGFRAME ISTACK, 2, STACK
        ARGFRAME PSTACK, 0, STACK
        ARGFRAME XSTACK, 0, STACK
        ARGFRAME IOVERLAY, 0, STATIC
        ARGFRAME DOVERLAY, 0, STATIC
        FUNCALL ZDApp_Init, ZDOInitDevice
        LOCFRAME ISTACK, 2, STACK
        LOCFRAME PSTACK, 0, STACK
        LOCFRAME XSTACK, 0, STACK
        LOCFRAME IOVERLAY, 0, STATIC
        LOCFRAME DOVERLAY, 0, STATIC
        ARGFRAME ISTACK, 2, STACK
        ARGFRAME PSTACK, 0, STACK
        ARGFRAME XSTACK, 0, STACK
        ARGFRAME IOVERLAY, 0, STATIC
        ARGFRAME DOVERLAY, 0, STATIC
        FUNCALL ZDApp_Init, HalLedBlink
        LOCFRAME ISTACK, 2, STACK
        LOCFRAME PSTACK, 0, STACK
        LOCFRAME XSTACK, 0, STACK
        LOCFRAME IOVERLAY, 0, STATIC
        LOCFRAME DOVERLAY, 0, STATIC
        ARGFRAME ISTACK, 2, STACK
        ARGFRAME PSTACK, 0, STACK
        ARGFRAME XSTACK, 0, STACK
        ARGFRAME IOVERLAY, 0, STATIC
        ARGFRAME DOVERLAY, 0, STATIC
        FUNCALL ZDApp_Init, ZDApp_RegisterCBs
        LOCFRAME ISTACK, 2, STACK
        LOCFRAME PSTACK, 0, STACK
        LOCFRAME XSTACK, 0, STACK
        LOCFRAME IOVERLAY, 0, STATIC
        LOCFRAME DOVERLAY, 0, STATIC
        ARGFRAME ISTACK, 2, STACK
        ARGFRAME PSTACK, 0, STACK
        ARGFRAME XSTACK, 0, STACK
        ARGFRAME IOVERLAY, 0, STATIC
        ARGFRAME DOVERLAY, 0, STATIC
        PUSH    DPL
        CFI DPL0 Frame(CFA_SP, 4)
        CFI CFA_SP SP+-4
        PUSH    DPH
        CFI DPH0 Frame(CFA_SP, 5)
        CFI CFA_SP SP+-5
        ; Saved register size: 2
        ; Auto size: 0
//  251   // Save the task ID
//  252   ZDAppTaskID = task_id;
        MOV     A,R1
        MOV     DPTR,#ZDAppTaskID
        MOVX    @DPTR,A
//  253 
//  254   // Initialize the ZDO global device short address storage
//  255   ZDAppNwkAddr.addrMode = Addr16Bit;
        MOV     A,#0x2
        MOV     DPTR,#(ZDAppNwkAddr + 8)
        MOVX    @DPTR,A
//  256   ZDAppNwkAddr.addr.shortAddr = INVALID_NODE_ADDR;
        MOV     DPTR,#ZDAppNwkAddr
        MOV     A,#-0x2
        MOVX    @DPTR,A
        INC     DPTR
        MOV     A,#-0x1
        MOVX    @DPTR,A
//  257   (void)NLME_GetExtAddr();  // Load the saveExtAddr pointer.
        ; Setup parameters for call to function NLME_GetExtAddr
        LCALL   ??NLME_GetExtAddr?relay
//  258 
//  259   // Check for manual "Hold Auto Start"
//  260   ZDAppCheckForHoldKey();
        ; Setup parameters for call to function ZDAppCheckForHoldKey
        LCALL   ??ZDAppCheckForHoldKey?relay
//  261 
//  262   // Initialize ZDO items and setup the device - type of device to create.
//  263   ZDO_Init();
        ; Setup parameters for call to function ZDO_Init
        LCALL   ??ZDO_Init?relay
//  264 
//  265   // Register the endpoint description with the AF
//  266   // This task doesn't have a Simple description, but we still need
//  267   // to register the endpoint.
//  268   afRegister( (endPointDesc_t *)&ZDApp_epDesc );
        ; Setup parameters for call to function afRegister
        MOV     R2,#(ZDApp_epDesc & 0xff)
        MOV     R3,#((ZDApp_epDesc >> 8) & 0xff)
        LCALL   ??afRegister?relay
//  269 
//  270 #if defined( ZDO_USERDESC_RESPONSE )
//  271   ZDApp_InitUserDesc();
        ; Setup parameters for call to function ZDApp_InitUserDesc
        LCALL   ??ZDApp_InitUserDesc?relay
//  272 #endif // ZDO_USERDESC_RESPONSE
//  273 
//  274   // Start the device?
//  275   if ( devState != DEV_HOLD )
        MOV     DPTR,#devState
        MOVX    A,@DPTR
        JZ      ??ZDApp_Init_0
//  276   {
//  277     ZDOInitDevice( 0 );
        ; Setup parameters for call to function ZDOInitDevice
        MOV     R2,#0x0
        MOV     R3,#0x0
        LCALL   ??ZDOInitDevice?relay
        SJMP    ??ZDApp_Init_1
//  278   }
//  279   else
//  280   {
//  281     // Blink LED to indicate HOLD_START
//  282     HalLedBlink ( HAL_LED_4, 0, 50, 500 );
??ZDApp_Init_0:
        ; Setup parameters for call to function HalLedBlink
        MOV     R4,#-0xc
        MOV     R5,#0x1
        MOV     R3,#0x32
        MOV     R2,#0x0
        MOV     R1,#0x8
        LCALL   ??HalLedBlink?relay
//  283   }
//  284 
//  285   ZDApp_RegisterCBs();
??ZDApp_Init_1:
        ; Setup parameters for call to function ZDApp_RegisterCBs
        LCALL   ??ZDApp_RegisterCBs?relay
//  286 } /* ZDApp_Init() */
        POP     DPH
        CFI DPH0 SameValue
        CFI CFA_SP SP+-4
        POP     DPL
        CFI DPL0 SameValue
        CFI CFA_SP SP+-3
        LJMP    ?BRET
        CFI EndBlock cfiBlock0
//  287 
//  288 /*********************************************************************
//  289  * @fn          ZDApp_SecInit
//  290  *
//  291  * @brief       ZDApp initialize security.
//  292  *
//  293  * @param       state - device initialization state
//  294  *
//  295  * @return      none
//  296  */

        RSEG BANKED_CODE:CODE:NOROOT(0)
//  297 void ZDApp_SecInit( uint8 state )
ZDApp_SecInit:
        CFI Block cfiBlock1 Using cfiCommon0
        CFI Function ZDApp_SecInit
//  298 {
        FUNCALL ZDApp_SecInit, ZDSecMgrInit
        LOCFRAME ISTACK, 2, STACK
        LOCFRAME PSTACK, 0, STACK
        LOCFRAME XSTACK, 0, STACK
        LOCFRAME IOVERLAY, 0, STATIC
        LOCFRAME DOVERLAY, 0, STATIC
        ARGFRAME ISTACK, 2, STACK
        ARGFRAME PSTACK, 0, STACK
        ARGFRAME XSTACK, 0, STACK
        ARGFRAME IOVERLAY, 0, STATIC
        ARGFRAME DOVERLAY, 0, STATIC
        PUSH    DPL
        CFI DPL0 Frame(CFA_SP, 4)
        CFI CFA_SP SP+-4
        PUSH    DPH
        CFI DPH0 Frame(CFA_SP, 5)
        CFI CFA_SP SP+-5
        ; Saved register size: 2
        ; Auto size: 0
//  299   if ( ZG_SECURE_ENABLED && ZG_BUILD_COORDINATOR_TYPE && ZG_DEVICE_COORDINATOR_TYPE )
//  300   {
//  301     // Set the Trust Center bit
//  302     ZDO_Config_Node_Descriptor.ServerMask |= PRIM_TRUST_CENTER;
//  303   }
//  304 
//  305   if ( ZG_CHECK_SECURITY_MODE == ZG_SECURITY_PRO_HIGH )
//  306   {
//  307     ZDO_Config_Node_Descriptor.CapabilityFlags |= CAPINFO_SECURITY_CAPABLE;
//  308   }
//  309 
//  310   // Initialize ZigBee Device Security Manager
//  311   ZDSecMgrInit();
        ; Setup parameters for call to function ZDSecMgrInit
        LCALL   ??ZDSecMgrInit?relay
//  312 
//  313   if ( ZG_SECURE_ENABLED )
//  314   {
//  315     if ( state != ZDO_INITDEV_RESTORED_NETWORK_STATE )
//  316     {
//  317       nwkFrameCounter = 0;
//  318 
//  319       if( _NIB.nwkKeyLoaded == FALSE )
//  320       {
//  321         if ( ( ZG_BUILD_COORDINATOR_TYPE && ZG_DEVICE_COORDINATOR_TYPE          ) ||
//  322              ( ( zgSecurityMode == ZG_SECURITY_RESIDENTIAL ) && zgPreConfigKeys )    )
//  323         {
//  324             SSP_UpdateNwkKey( (byte*)zgPreConfigKey, 0);
//  325             SSP_SwitchNwkKey( 0 );
//  326         }
//  327       }
//  328     }
//  329   }
//  330 }
        POP     DPH
        CFI DPH0 SameValue
        CFI CFA_SP SP+-4
        POP     DPL
        CFI DPL0 SameValue
        CFI CFA_SP SP+-3
        LJMP    ?BRET
        CFI EndBlock cfiBlock1
//  331 
//  332 /*********************************************************************
//  333  * @fn      ZDApp_event_loop()
//  334  *
//  335  * @brief   Main event loop for Zigbee device objects task. This function
//  336  *          should be called at periodic intervals.
//  337  *
//  338  * @param   task_id - Task ID
//  339  * @param   events  - Bitmap of events
//  340  *
//  341  * @return  none
//  342  */

        RSEG BANKED_CODE:CODE:NOROOT(0)
//  343 UINT16 ZDApp_event_loop( uint8 task_id, UINT16 events )
ZDApp_event_loop:
        CFI Block cfiBlock2 Using cfiCommon0
        CFI Function ZDApp_event_loop
//  344 {
        FUNCALL ZDApp_event_loop, ZDO_StartDevice
        LOCFRAME ISTACK, 0, STACK
        LOCFRAME PSTACK, 0, STACK
        LOCFRAME XSTACK, 10, STACK
        LOCFRAME IOVERLAY, 0, STATIC
        LOCFRAME DOVERLAY, 0, STATIC
        ARGFRAME ISTACK, 0, STACK
        ARGFRAME PSTACK, 0, STACK
        ARGFRAME XSTACK, 10, STACK
        ARGFRAME IOVERLAY, 0, STATIC
        ARGFRAME DOVERLAY, 0, STATIC
        FUNCALL ZDApp_event_loop, ZDApp_ProcessOSALMsg
        LOCFRAME ISTACK, 0, STACK
        LOCFRAME PSTACK, 0, STACK
        LOCFRAME XSTACK, 10, STACK
        LOCFRAME IOVERLAY, 0, STATIC
        LOCFRAME DOVERLAY, 0, STATIC
        ARGFRAME ISTACK, 0, STACK
        ARGFRAME PSTACK, 0, STACK
        ARGFRAME XSTACK, 10, STACK
        ARGFRAME IOVERLAY, 0, STATIC
        ARGFRAME DOVERLAY, 0, STATIC
        FUNCALL ZDApp_event_loop, osal_msg_deallocate
        LOCFRAME ISTACK, 0, STACK
        LOCFRAME PSTACK, 0, STACK
        LOCFRAME XSTACK, 10, STACK
        LOCFRAME IOVERLAY, 0, STATIC
        LOCFRAME DOVERLAY, 0, STATIC
        ARGFRAME ISTACK, 0, STACK
        ARGFRAME PSTACK, 0, STACK
        ARGFRAME XSTACK, 10, STACK
        ARGFRAME IOVERLAY, 0, STATIC
        ARGFRAME DOVERLAY, 0, STATIC
        FUNCALL ZDApp_event_loop, osal_msg_receive
        LOCFRAME ISTACK, 0, STACK
        LOCFRAME PSTACK, 0, STACK
        LOCFRAME XSTACK, 10, STACK
        LOCFRAME IOVERLAY, 0, STATIC
        LOCFRAME DOVERLAY, 0, STATIC
        ARGFRAME ISTACK, 0, STACK
        ARGFRAME PSTACK, 0, STACK
        ARGFRAME XSTACK, 10, STACK
        ARGFRAME IOVERLAY, 0, STATIC
        ARGFRAME DOVERLAY, 0, STATIC
        FUNCALL ZDApp_event_loop, ZDApp_NetworkStartEvt
        LOCFRAME ISTACK, 0, STACK
        LOCFRAME PSTACK, 0, STACK
        LOCFRAME XSTACK, 10, STACK
        LOCFRAME IOVERLAY, 0, STATIC
        LOCFRAME DOVERLAY, 0, STATIC
        ARGFRAME ISTACK, 0, STACK
        ARGFRAME PSTACK, 0, STACK
        ARGFRAME XSTACK, 10, STACK
        ARGFRAME IOVERLAY, 0, STATIC
        ARGFRAME DOVERLAY, 0, STATIC
        FUNCALL ZDApp_event_loop, osal_pwrmgr_device
        LOCFRAME ISTACK, 0, STACK
        LOCFRAME PSTACK, 0, STACK
        LOCFRAME XSTACK, 10, STACK
        LOCFRAME IOVERLAY, 0, STATIC
        LOCFRAME DOVERLAY, 0, STATIC
        ARGFRAME ISTACK, 0, STACK
        ARGFRAME PSTACK, 0, STACK
        ARGFRAME XSTACK, 10, STACK
        ARGFRAME IOVERLAY, 0, STATIC
        ARGFRAME DOVERLAY, 0, STATIC
        FUNCALL ZDApp_event_loop, osal_set_event
        LOCFRAME ISTACK, 0, STACK
        LOCFRAME PSTACK, 0, STACK
        LOCFRAME XSTACK, 10, STACK
        LOCFRAME IOVERLAY, 0, STATIC
        LOCFRAME DOVERLAY, 0, STATIC
        ARGFRAME ISTACK, 0, STACK
        ARGFRAME PSTACK, 0, STACK
        ARGFRAME XSTACK, 10, STACK
        ARGFRAME IOVERLAY, 0, STATIC
        ARGFRAME DOVERLAY, 0, STATIC
        FUNCALL ZDApp_event_loop, ZDO_UpdateNwkStatus
        LOCFRAME ISTACK, 0, STACK
        LOCFRAME PSTACK, 0, STACK
        LOCFRAME XSTACK, 10, STACK
        LOCFRAME IOVERLAY, 0, STATIC
        LOCFRAME DOVERLAY, 0, STATIC
        ARGFRAME ISTACK, 0, STACK
        ARGFRAME PSTACK, 0, STACK
        ARGFRAME XSTACK, 10, STACK
        ARGFRAME IOVERLAY, 0, STATIC
        ARGFRAME DOVERLAY, 0, STATIC
        FUNCALL ZDApp_event_loop, ZDApp_SaveNetworkStateEvt
        LOCFRAME ISTACK, 0, STACK
        LOCFRAME PSTACK, 0, STACK
        LOCFRAME XSTACK, 10, STACK
        LOCFRAME IOVERLAY, 0, STATIC
        LOCFRAME DOVERLAY, 0, STATIC
        ARGFRAME ISTACK, 0, STACK
        ARGFRAME PSTACK, 0, STACK
        ARGFRAME XSTACK, 10, STACK
        ARGFRAME IOVERLAY, 0, STATIC
        ARGFRAME DOVERLAY, 0, STATIC
        MOV     A,#-0xa
        LCALL   ?BANKED_ENTER_XDATA
        CFI DPH0 load(1, XDATA, add(CFA_XSP16, literal(-1)))
        CFI DPL0 load(1, XDATA, add(CFA_XSP16, literal(-2)))
        CFI ?BRET_EXT load(1, XDATA, add(CFA_XSP16, literal(-3)))
        CFI ?RET_HIGH load(1, XDATA, add(CFA_XSP16, literal(-4)))
        CFI ?RET_LOW load(1, XDATA, add(CFA_XSP16, literal(-5)))
        CFI R7 load(1, XDATA, add(CFA_XSP16, literal(-6)))
        CFI V1 load(1, XDATA, add(CFA_XSP16, literal(-7)))
        CFI V0 load(1, XDATA, add(CFA_XSP16, literal(-8)))
        CFI VB load(1, XDATA, add(CFA_XSP16, literal(-9)))
        CFI R6 load(1, XDATA, add(CFA_XSP16, literal(-10)))
        CFI CFA_SP SP+0
        CFI CFA_XSP16 add(XSP16, 10)
        ; Saved register size: 10
        ; Auto size: 0
        MOV     A,R2
        MOV     R6,A
        MOV     A,R3
        MOV     R7,A
//  345   uint8 *msg_ptr;
//  346 
//  347   if ( events & SYS_EVENT_MSG )
        MOV     A,#-0x80
        ANL     A,R7
        MOV     R1,A
        CLR     A
        JNZ     ??ZDApp_event_loop_0
        MOV     A,R1
??ZDApp_event_loop_0:
        JNZ     ??ZDApp_event_loop_1
//  348   {
//  349     while ( (msg_ptr = osal_msg_receive( ZDAppTaskID )) )
//  350     {
//  351       ZDApp_ProcessOSALMsg( (osal_event_hdr_t *)msg_ptr );
//  352 
//  353       // Release the memory
//  354       osal_msg_deallocate( msg_ptr );
//  355     }
//  356 
//  357     // Return unprocessed events
//  358     return (events ^ SYS_EVENT_MSG);
//  359   }
//  360 
//  361   if ( events & ZDO_NETWORK_INIT )
        MOV     A,R6
        MOV     C,0xE0 /* A   */.0
        JNC     ??ZDApp_event_loop_2
//  362   {
//  363     // Initialize apps and start the network
//  364     devState = DEV_INIT;
        MOV     A,#0x1
        MOV     DPTR,#devState
        MOVX    @DPTR,A
//  365     ZDO_StartDevice( (uint8)ZDO_Config_Node_Descriptor.LogicalType, devStartMode,
//  366                      DEFAULT_BEACON_ORDER, DEFAULT_SUPERFRAME_ORDER );
        ; Setup parameters for call to function ZDO_StartDevice
        MOV     R4,#0xf
        MOV     R3,#0xf
        MOV     DPTR,#devStartMode
        MOVX    A,@DPTR
        MOV     R2,A
        MOV     DPTR,#ZDO_Config_Node_Descriptor
        MOVX    A,@DPTR
        ANL     A,#0x7
        MOV     R1,A
        LCALL   ??ZDO_StartDevice?relay
//  367 
//  368     // Return unprocessed events
//  369     return (events ^ ZDO_NETWORK_INIT);
        MOV     A,#0x1
??ZDApp_event_loop_3:
        XRL     A,R6
        MOV     R2,A
        MOV     A,R7
??ZDApp_event_loop_4:
        MOV     R3,A
        LJMP    ??ZDApp_event_loop_5 & 0xFFFF
//  370   }
??ZDApp_event_loop_6:
        ; Setup parameters for call to function ZDApp_ProcessOSALMsg
        LCALL   ??ZDApp_ProcessOSALMsg?relay
        ; Setup parameters for call to function osal_msg_deallocate
        MOV     R2,?V0 + 0
        MOV     R3,?V0 + 1
        LCALL   ??osal_msg_deallocate?relay
??ZDApp_event_loop_1:
        ; Setup parameters for call to function osal_msg_receive
        MOV     DPTR,#ZDAppTaskID
        MOVX    A,@DPTR
        MOV     R1,A
        LCALL   ??osal_msg_receive?relay
        MOV     ?V0 + 0,R2
        MOV     ?V0 + 1,R3
        MOV     A,R2
        JNZ     ??ZDApp_event_loop_7
        MOV     A,R3
??ZDApp_event_loop_7:
        JNZ     ??ZDApp_event_loop_6
        MOV     A,R6
        MOV     R2,A
        MOV     A,#-0x80
??ZDApp_event_loop_8:
        XRL     A,R7
        SJMP    ??ZDApp_event_loop_4
//  371 
//  372   if ( ZSTACK_ROUTER_BUILD )
//  373   {
//  374     if ( events & ZDO_NETWORK_START )
??ZDApp_event_loop_2:
        ANL     A,#0x2
        JZ      ??ZDApp_event_loop_9
//  375     {
//  376       ZDApp_NetworkStartEvt();
        ; Setup parameters for call to function ZDApp_NetworkStartEvt
        LCALL   ??ZDApp_NetworkStartEvt?relay
//  377 
//  378       // Return unprocessed events
//  379       return (events ^ ZDO_NETWORK_START);
        MOV     A,#0x2
        SJMP    ??ZDApp_event_loop_3
//  380     }
//  381 
//  382     if ( events & ZDO_ROUTER_START )
??ZDApp_event_loop_9:
        MOV     A,R6
        ANL     A,#0x20
        JZ      ??ZDApp_event_loop_10
//  383     {
//  384       if ( nwkStatus == ZSuccess )
        MOV     DPTR,#nwkStatus
        MOVX    A,@DPTR
        JNZ     ??ZDApp_event_loop_11
//  385       {
//  386         if ( devState == DEV_END_DEVICE )
        MOV     DPTR,#devState
        MOVX    A,@DPTR
        XRL     A,#0x6
        JNZ     ??ZDApp_event_loop_12
//  387           devState = DEV_ROUTER;
        MOV     A,#0x7
        MOVX    @DPTR,A
//  388 
//  389         osal_pwrmgr_device( PWRMGR_ALWAYS_ON );
??ZDApp_event_loop_12:
        ; Setup parameters for call to function osal_pwrmgr_device
        MOV     R1,#0x0
        LCALL   ??osal_pwrmgr_device?relay
//  390       }
//  391       else
//  392       {
//  393         // remain as end device!!
//  394       }
//  395       osal_set_event( ZDAppTaskID, ZDO_STATE_CHANGE_EVT );
??ZDApp_event_loop_11:
        ; Setup parameters for call to function osal_set_event
        MOV     R2,#0x10
        MOV     R3,#0x0
        MOV     DPTR,#ZDAppTaskID
        MOVX    A,@DPTR
        MOV     R1,A
        LCALL   ??osal_set_event?relay
//  396 
//  397       // Return unprocessed events
//  398       return (events ^ ZDO_ROUTER_START);
        MOV     A,#0x20
        SJMP    ??ZDApp_event_loop_3
//  399     }
//  400   }
//  401 
//  402   if ( events & ZDO_STATE_CHANGE_EVT )
??ZDApp_event_loop_10:
        MOV     A,R6
        ANL     A,#0x10
        JZ      ??ZDApp_event_loop_13
//  403   {
//  404     ZDO_UpdateNwkStatus( devState );
        ; Setup parameters for call to function ZDO_UpdateNwkStatus
        MOV     DPTR,#devState
        MOVX    A,@DPTR
        MOV     R1,A
        LCALL   ??ZDO_UpdateNwkStatus?relay
//  405 
//  406     // Return unprocessed events
//  407     return (events ^ ZDO_STATE_CHANGE_EVT);
        MOV     A,#0x10
        SJMP    ??ZDApp_event_loop_3
//  408   }
//  409 
//  410   if ( events & ZDO_COMMAND_CNF )
??ZDApp_event_loop_13:
        MOV     A,R6
        ANL     A,#0x8
        JZ      ??ZDApp_event_loop_14
//  411   {
//  412     // User defined logic
//  413 
//  414     // Return unprocessed events
//  415     return (events ^ ZDO_COMMAND_CNF);
        MOV     A,#0x8
        XRL     A,R6
        MOV     R2,A
        SJMP    ??ZDApp_event_loop_5
//  416   }
//  417 
//  418   if ( events & ZDO_NWK_UPDATE_NV )
??ZDApp_event_loop_14:
        MOV     A,#0x2
        ANL     A,R7
        MOV     R1,A
        CLR     A
        JNZ     ??ZDApp_event_loop_15
        MOV     A,R1
??ZDApp_event_loop_15:
        JZ      ??ZDApp_event_loop_16
//  419   {
//  420     ZDApp_SaveNetworkStateEvt();
        ; Setup parameters for call to function ZDApp_SaveNetworkStateEvt
        LCALL   ??ZDApp_SaveNetworkStateEvt?relay
//  421 
//  422     // Return unprocessed events
//  423     return (events ^ ZDO_NWK_UPDATE_NV);
        MOV     A,R6
        MOV     R2,A
        MOV     A,#0x2
        SJMP    ??ZDApp_event_loop_8
//  424   }
//  425 
//  426   if ( events & ZDO_DEVICE_RESET )
??ZDApp_event_loop_16:
        MOV     A,R6
        ANL     A,#0x4
        JZ      ??ZDApp_event_loop_17
//  427   {
//  428     // The device has been in the UNAUTH state, so reset
//  429     // Note: there will be no return from this call
//  430     SystemReset();
        CLR     0xa8.7
        MOV     0xc9,#-0x55
        MOV     0xc9,#0x5b
??ZDApp_event_loop_18:
        SJMP    ??ZDApp_event_loop_18
//  431   }
//  432 
//  433   if ( ZG_SECURE_ENABLED )
//  434   {
//  435     return ( ZDApp_ProcessSecEvent( task_id, events ) );
//  436   }
//  437   else
//  438   {
//  439     // Discard or make more handlers
//  440     return 0;
??ZDApp_event_loop_17:
        MOV     R2,#0x0
        MOV     R3,#0x0
??ZDApp_event_loop_5:
        MOV     R7,#0x2
        LJMP    ?BANKED_LEAVE_XDATA
        CFI EndBlock cfiBlock2
        REQUIRE _A_IEN0
        REQUIRE WDCTL
//  441   }
//  442 }
//  443 
//  444 /*********************************************************************
//  445  * @fn      ZDApp_ProcessSecEvent()
//  446  *
//  447  * @brief   Process incoming security events.
//  448  *
//  449  * @param   task_id - Task ID
//  450  * @param   events  - Bitmap of events
//  451  *
//  452  * @return  none
//  453  */

        RSEG BANKED_CODE:CODE:NOROOT(0)
//  454 UINT16 ZDApp_ProcessSecEvent( uint8 task_id, UINT16 events )
ZDApp_ProcessSecEvent:
        CFI Block cfiBlock3 Using cfiCommon0
        CFI Function ZDApp_ProcessSecEvent
//  455 {
        FUNCALL ZDApp_ProcessSecEvent, ZDSecMgrNewDeviceEvent
        LOCFRAME ISTACK, 0, STACK
        LOCFRAME PSTACK, 0, STACK
        LOCFRAME XSTACK, 9, STACK
        LOCFRAME IOVERLAY, 0, STATIC
        LOCFRAME DOVERLAY, 0, STATIC
        ARGFRAME ISTACK, 0, STACK
        ARGFRAME PSTACK, 0, STACK
        ARGFRAME XSTACK, 9, STACK
        ARGFRAME IOVERLAY, 0, STATIC
        ARGFRAME DOVERLAY, 0, STATIC
        FUNCALL ZDApp_ProcessSecEvent, osal_start_timerEx
        LOCFRAME ISTACK, 0, STACK
        LOCFRAME PSTACK, 0, STACK
        LOCFRAME XSTACK, 9, STACK
        LOCFRAME IOVERLAY, 0, STATIC
        LOCFRAME DOVERLAY, 0, STATIC
        ARGFRAME ISTACK, 0, STACK
        ARGFRAME PSTACK, 0, STACK
        ARGFRAME XSTACK, 9, STACK
        ARGFRAME IOVERLAY, 0, STATIC
        ARGFRAME DOVERLAY, 0, STATIC
        FUNCALL ZDApp_ProcessSecEvent, ZDApp_DeviceAuthEvt
        LOCFRAME ISTACK, 0, STACK
        LOCFRAME PSTACK, 0, STACK
        LOCFRAME XSTACK, 9, STACK
        LOCFRAME IOVERLAY, 0, STATIC
        LOCFRAME DOVERLAY, 0, STATIC
        ARGFRAME ISTACK, 0, STACK
        ARGFRAME PSTACK, 0, STACK
        ARGFRAME XSTACK, 9, STACK
        ARGFRAME IOVERLAY, 0, STATIC
        ARGFRAME DOVERLAY, 0, STATIC
        FUNCALL ZDApp_ProcessSecEvent, ZDApp_SaveNwkKey
        LOCFRAME ISTACK, 0, STACK
        LOCFRAME PSTACK, 0, STACK
        LOCFRAME XSTACK, 9, STACK
        LOCFRAME IOVERLAY, 0, STATIC
        LOCFRAME DOVERLAY, 0, STATIC
        ARGFRAME ISTACK, 0, STACK
        ARGFRAME PSTACK, 0, STACK
        ARGFRAME XSTACK, 9, STACK
        ARGFRAME IOVERLAY, 0, STATIC
        ARGFRAME DOVERLAY, 0, STATIC
        MOV     A,#-0x9
        LCALL   ?BANKED_ENTER_XDATA
        CFI DPH0 load(1, XDATA, add(CFA_XSP16, literal(-1)))
        CFI DPL0 load(1, XDATA, add(CFA_XSP16, literal(-2)))
        CFI ?BRET_EXT load(1, XDATA, add(CFA_XSP16, literal(-3)))
        CFI ?RET_HIGH load(1, XDATA, add(CFA_XSP16, literal(-4)))
        CFI ?RET_LOW load(1, XDATA, add(CFA_XSP16, literal(-5)))
        CFI R7 load(1, XDATA, add(CFA_XSP16, literal(-6)))
        CFI V0 load(1, XDATA, add(CFA_XSP16, literal(-7)))
        CFI VB load(1, XDATA, add(CFA_XSP16, literal(-8)))
        CFI R6 load(1, XDATA, add(CFA_XSP16, literal(-9)))
        CFI CFA_SP SP+0
        CFI CFA_XSP16 add(XSP16, 9)
        ; Saved register size: 9
        ; Auto size: 0
        MOV     A,R2
        MOV     R6,A
        MOV     A,R3
        MOV     R7,A
//  456   (void)task_id;  // Intentionally unreferenced parameter
//  457 
//  458   if ( ZSTACK_ROUTER_BUILD )
//  459   {
//  460     if ( events & ZDO_NEW_DEVICE )
        MOV     A,R6
        ANL     A,#0x40
        JZ      ??ZDApp_ProcessSecEvent_0
//  461     {
//  462       // process the new device event
//  463       if ( ZDSecMgrNewDeviceEvent() == TRUE )
        ; Setup parameters for call to function ZDSecMgrNewDeviceEvent
        LCALL   ??ZDSecMgrNewDeviceEvent?relay
        MOV     A,R1
        XRL     A,#0x1
        JNZ     ??ZDApp_ProcessSecEvent_1
//  464       {
//  465         osal_start_timerEx( ZDAppTaskID, ZDO_NEW_DEVICE, 1000 );
        ; Setup parameters for call to function osal_start_timerEx
        MOV     R4,#-0x18
        MOV     R5,#0x3
        MOV     R2,#0x40
        MOV     R3,#0x0
        MOV     DPTR,#ZDAppTaskID
        MOVX    A,@DPTR
        MOV     R1,A
        LCALL   ??osal_start_timerEx?relay
//  466       }
//  467 
//  468       // Return unprocessed events
//  469       return (events ^ ZDO_NEW_DEVICE);
??ZDApp_ProcessSecEvent_1:
        MOV     A,#0x40
??ZDApp_ProcessSecEvent_2:
        XRL     A,R6
        MOV     R2,A
        MOV     A,R7
        MOV     R3,A
        SJMP    ??ZDApp_ProcessSecEvent_3
//  470     }
//  471   }
//  472 
//  473   if ( (ZG_CHECK_SECURITY_MODE == ZG_SECURITY_PRO_HIGH)
//  474       || (ZG_CHECK_SECURITY_MODE == ZG_SECURITY_SE_STANDARD) )
//  475   {
//  476     if ( ZG_BUILD_COORDINATOR_TYPE && ZG_DEVICE_COORDINATOR_TYPE )
//  477     {
//  478       if ( events & ZDO_SECMGR_EVENT )
//  479       {
//  480         ZDSecMgrEvent();
//  481 
//  482         // Return unprocessed events
//  483         return (events ^ ZDO_SECMGR_EVENT);
//  484       }
//  485     }
//  486   }
//  487 
//  488   if ( events & ZDO_DEVICE_AUTH )
??ZDApp_ProcessSecEvent_0:
        MOV     A,R6
        ANL     A,#0x80
        JZ      ??ZDApp_ProcessSecEvent_4
//  489   {
//  490     ZDApp_DeviceAuthEvt();
        ; Setup parameters for call to function ZDApp_DeviceAuthEvt
        LCALL   ??ZDApp_DeviceAuthEvt?relay
//  491 
//  492     // Return unprocessed events
//  493     return (events ^ ZDO_DEVICE_AUTH);
        MOV     A,#-0x80
        SJMP    ??ZDApp_ProcessSecEvent_2
//  494   }
//  495 
//  496   if ( events & ZDO_FRAMECOUNTER_CHANGE )
??ZDApp_ProcessSecEvent_4:
        MOV     A,#0x4
        ANL     A,R7
        MOV     R1,A
        CLR     A
        JNZ     ??ZDApp_ProcessSecEvent_5
        MOV     A,R1
??ZDApp_ProcessSecEvent_5:
        JZ      ??ZDApp_ProcessSecEvent_6
//  497   {
//  498     if ( nwkFrameCounterChanges++ > MAX_NWK_FRAMECOUNTER_CHANGES )
        MOV     DPTR,#nwkFrameCounterChanges
        MOVX    A,@DPTR
        MOV     R0,A
        INC     DPTR
        MOVX    A,@DPTR
        MOV     R1,A
        MOV     A,#0x1
        ADD     A,R0
        MOV     R2,A
        CLR     A
        ADDC    A,R1
        MOV     R3,A
        MOV     DPTR,#nwkFrameCounterChanges
        MOV     A,R2
        MOVX    @DPTR,A
        INC     DPTR
        MOV     A,R3
        MOVX    @DPTR,A
        CLR     C
        MOV     A,R0
        SUBB    A,#-0x17
        MOV     A,R1
        SUBB    A,#0x3
        JC      ??ZDApp_ProcessSecEvent_7
//  499       ZDApp_SaveNwkKey();
        ; Setup parameters for call to function ZDApp_SaveNwkKey
        LCALL   ??ZDApp_SaveNwkKey?relay
//  500 
//  501     // Return unprocessed events
//  502     return (events ^ ZDO_FRAMECOUNTER_CHANGE);
??ZDApp_ProcessSecEvent_7:
        MOV     A,R6
        MOV     R2,A
        MOV     A,#0x4
        XRL     A,R7
        MOV     R3,A
        SJMP    ??ZDApp_ProcessSecEvent_3
//  503   }
//  504 
//  505   // Discard or make more handlers
//  506   return 0;
??ZDApp_ProcessSecEvent_6:
        MOV     R2,#0x0
        MOV     R3,#0x0
??ZDApp_ProcessSecEvent_3:
        MOV     R7,#0x1
        LJMP    ?BANKED_LEAVE_XDATA
        CFI EndBlock cfiBlock3
//  507 }
//  508 
//  509 /*********************************************************************
//  510  * Application Functions
//  511  */
//  512 
//  513 /*********************************************************************
//  514  * @fn      ZDOInitDevice
//  515  *
//  516  * @brief   Start the device in the network.  This function will read
//  517  *   ZCD_NV_STARTUP_OPTION (NV item) to determine whether or not to
//  518  *   restore the network state of the device.
//  519  *
//  520  * @param   startDelay - timeDelay to start device (in milliseconds).
//  521  *      There is a jitter added to this delay:
//  522  *              ((NWK_START_DELAY + startDelay)
//  523  *              + (osal_rand() & EXTENDED_JOINING_RANDOM_MASK))
//  524  *
//  525  * NOTE:    If the application would like to force a "new" join, the
//  526  *          application should set the ZCD_STARTOPT_DEFAULT_NETWORK_STATE
//  527  *          bit in the ZCD_NV_STARTUP_OPTION NV item before calling
//  528  *          this function. "new" join means to not restore the network
//  529  *          state of the device. Use zgWriteStartupOptions() to set these
//  530  *          options.
//  531  *
//  532  * @return
//  533  *    ZDO_INITDEV_RESTORED_NETWORK_STATE  - The device's network state was
//  534  *          restored.
//  535  *    ZDO_INITDEV_NEW_NETWORK_STATE - The network state was initialized.
//  536  *          This could mean that ZCD_NV_STARTUP_OPTION said to not restore, or
//  537  *          it could mean that there was no network state to restore.
//  538  *    ZDO_INITDEV_LEAVE_NOT_STARTED - Before the reset, a network leave was issued
//  539  *          with the rejoin option set to TRUE.  So, the device was not
//  540  *          started in the network (one time only).  The next time this
//  541  *          function is called it will start.
//  542  */

        RSEG BANKED_CODE:CODE:NOROOT(0)
//  543 uint8 ZDOInitDevice( uint16 startDelay )
ZDOInitDevice:
        CFI Block cfiBlock4 Using cfiCommon0
        CFI Function ZDOInitDevice
//  544 {
        FUNCALL ZDOInitDevice, zgInitItems
        LOCFRAME ISTACK, 0, STACK
        LOCFRAME PSTACK, 0, STACK
        LOCFRAME XSTACK, 12, STACK
        LOCFRAME IOVERLAY, 0, STATIC
        LOCFRAME DOVERLAY, 0, STATIC
        ARGFRAME ISTACK, 0, STACK
        ARGFRAME PSTACK, 0, STACK
        ARGFRAME XSTACK, 12, STACK
        ARGFRAME IOVERLAY, 0, STATIC
        ARGFRAME DOVERLAY, 0, STATIC
        FUNCALL ZDOInitDevice, ZDConfig_InitDescriptors
        LOCFRAME ISTACK, 0, STACK
        LOCFRAME PSTACK, 0, STACK
        LOCFRAME XSTACK, 12, STACK
        LOCFRAME IOVERLAY, 0, STATIC
        LOCFRAME DOVERLAY, 0, STATIC
        ARGFRAME ISTACK, 0, STACK
        ARGFRAME PSTACK, 0, STACK
        ARGFRAME XSTACK, 12, STACK
        ARGFRAME IOVERLAY, 0, STATIC
        ARGFRAME DOVERLAY, 0, STATIC
        FUNCALL ZDOInitDevice, ZDApp_LeaveCtrlInit
        LOCFRAME ISTACK, 0, STACK
        LOCFRAME PSTACK, 0, STACK
        LOCFRAME XSTACK, 12, STACK
        LOCFRAME IOVERLAY, 0, STATIC
        LOCFRAME DOVERLAY, 0, STATIC
        ARGFRAME ISTACK, 0, STACK
        ARGFRAME PSTACK, 0, STACK
        ARGFRAME XSTACK, 12, STACK
        ARGFRAME IOVERLAY, 0, STATIC
        ARGFRAME DOVERLAY, 0, STATIC
        FUNCALL ZDOInitDevice, ZDApp_LeaveCtrlStartup
        LOCFRAME ISTACK, 0, STACK
        LOCFRAME PSTACK, 0, STACK
        LOCFRAME XSTACK, 12, STACK
        LOCFRAME IOVERLAY, 0, STATIC
        LOCFRAME DOVERLAY, 0, STATIC
        ARGFRAME ISTACK, 0, STACK
        ARGFRAME PSTACK, 0, STACK
        ARGFRAME XSTACK, 12, STACK
        ARGFRAME IOVERLAY, 0, STATIC
        ARGFRAME DOVERLAY, 0, STATIC
        FUNCALL ZDOInitDevice, ZDAppDetermineDeviceType
        LOCFRAME ISTACK, 0, STACK
        LOCFRAME PSTACK, 0, STACK
        LOCFRAME XSTACK, 12, STACK
        LOCFRAME IOVERLAY, 0, STATIC
        LOCFRAME DOVERLAY, 0, STATIC
        ARGFRAME ISTACK, 0, STACK
        ARGFRAME PSTACK, 0, STACK
        ARGFRAME XSTACK, 12, STACK
        ARGFRAME IOVERLAY, 0, STATIC
        ARGFRAME DOVERLAY, 0, STATIC
        FUNCALL ZDOInitDevice, osal_rand
        LOCFRAME ISTACK, 0, STACK
        LOCFRAME PSTACK, 0, STACK
        LOCFRAME XSTACK, 12, STACK
        LOCFRAME IOVERLAY, 0, STATIC
        LOCFRAME DOVERLAY, 0, STATIC
        ARGFRAME ISTACK, 0, STACK
        ARGFRAME PSTACK, 0, STACK
        ARGFRAME XSTACK, 12, STACK
        ARGFRAME IOVERLAY, 0, STATIC
        ARGFRAME DOVERLAY, 0, STATIC
        FUNCALL ZDOInitDevice, ZDApp_SecInit
        LOCFRAME ISTACK, 0, STACK
        LOCFRAME PSTACK, 0, STACK
        LOCFRAME XSTACK, 12, STACK
        LOCFRAME IOVERLAY, 0, STATIC
        LOCFRAME DOVERLAY, 0, STATIC
        ARGFRAME ISTACK, 0, STACK
        ARGFRAME PSTACK, 0, STACK
        ARGFRAME XSTACK, 12, STACK
        ARGFRAME IOVERLAY, 0, STATIC
        ARGFRAME DOVERLAY, 0, STATIC
        FUNCALL ZDOInitDevice, ZDApp_NetworkInit
        LOCFRAME ISTACK, 0, STACK
        LOCFRAME PSTACK, 0, STACK
        LOCFRAME XSTACK, 12, STACK
        LOCFRAME IOVERLAY, 0, STATIC
        LOCFRAME DOVERLAY, 0, STATIC
        ARGFRAME ISTACK, 0, STACK
        ARGFRAME PSTACK, 0, STACK
        ARGFRAME XSTACK, 12, STACK
        ARGFRAME IOVERLAY, 0, STATIC
        ARGFRAME DOVERLAY, 0, STATIC
        FUNCALL ZDOInitDevice, NLME_SetBroadcastFilter
        LOCFRAME ISTACK, 0, STACK
        LOCFRAME PSTACK, 0, STACK
        LOCFRAME XSTACK, 12, STACK
        LOCFRAME IOVERLAY, 0, STATIC
        LOCFRAME DOVERLAY, 0, STATIC
        ARGFRAME ISTACK, 0, STACK
        ARGFRAME PSTACK, 0, STACK
        ARGFRAME XSTACK, 12, STACK
        ARGFRAME IOVERLAY, 0, STATIC
        ARGFRAME DOVERLAY, 0, STATIC
        MOV     A,#-0xa
        LCALL   ?BANKED_ENTER_XDATA
        CFI DPH0 load(1, XDATA, add(CFA_XSP16, literal(-1)))
        CFI DPL0 load(1, XDATA, add(CFA_XSP16, literal(-2)))
        CFI ?BRET_EXT load(1, XDATA, add(CFA_XSP16, literal(-3)))
        CFI ?RET_HIGH load(1, XDATA, add(CFA_XSP16, literal(-4)))
        CFI ?RET_LOW load(1, XDATA, add(CFA_XSP16, literal(-5)))
        CFI R7 load(1, XDATA, add(CFA_XSP16, literal(-6)))
        CFI V1 load(1, XDATA, add(CFA_XSP16, literal(-7)))
        CFI V0 load(1, XDATA, add(CFA_XSP16, literal(-8)))
        CFI VB load(1, XDATA, add(CFA_XSP16, literal(-9)))
        CFI R6 load(1, XDATA, add(CFA_XSP16, literal(-10)))
        CFI CFA_SP SP+0
        CFI CFA_XSP16 add(XSP16, 10)
        ; Saved register size: 10
        ; Auto size: 2
        MOV     A,#-0x2
        LCALL   ?ALLOC_XSTACK8
        CFI CFA_XSP16 add(XSP16, 12)
        MOV     DPL,?XSP + 0
        MOV     DPH,?XSP + 1
        MOV     A,R2
        MOVX    @DPTR,A
        INC     DPTR
        MOV     A,R3
        MOVX    @DPTR,A
//  545   uint8 networkStateNV = ZDO_INITDEV_NEW_NETWORK_STATE;
//  546   uint16 extendedDelay = 0;
//  547 
//  548   if ( devState == DEV_HOLD )
        MOV     DPTR,#devState
        MOVX    A,@DPTR
        JNZ     ??ZDOInitDevice_0
//  549   {
//  550     // Initialize the RAM items table, in case an NV item has been updated.
//  551     zgInitItems( FALSE );
        ; Setup parameters for call to function zgInitItems
        MOV     R1,#0x0
        LCALL   ??zgInitItems?relay
//  552   }
//  553 
//  554   ZDConfig_InitDescriptors();
??ZDOInitDevice_0:
        ; Setup parameters for call to function ZDConfig_InitDescriptors
        LCALL   ??ZDConfig_InitDescriptors?relay
//  555   //devtag.071807.todo - fix this temporary solution
//  556   _NIB.CapabilityInfo = ZDO_Config_Node_Descriptor.CapabilityFlags;
        MOV     DPTR,#(ZDO_Config_Node_Descriptor + 2)
        MOVX    A,@DPTR
        MOV     DPTR,#(_NIB + 14)
        MOVX    @DPTR,A
//  557 
//  558   devState = DEV_INIT;    // Remove the Hold state
        MOV     A,#0x1
        MOV     DPTR,#devState
        MOVX    @DPTR,A
//  559 
//  560   // Initialize leave control logic
//  561   ZDApp_LeaveCtrlInit();
        ; Setup parameters for call to function ZDApp_LeaveCtrlInit
        LCALL   ??ZDApp_LeaveCtrlInit?relay
//  562 
//  563   // Check leave control reset settings
//  564   ZDApp_LeaveCtrlStartup( &devState, &startDelay );
        ; Setup parameters for call to function ZDApp_LeaveCtrlStartup
        MOV     DPL,?XSP + 0
        MOV     DPH,?XSP + 1
        MOV     R4,DPL
        MOV     R5,DPH
        MOV     R2,#(devState & 0xff)
        MOV     R3,#((devState >> 8) & 0xff)
        LCALL   ??ZDApp_LeaveCtrlStartup?relay
//  565 
//  566   // Leave may make the hold state come back
//  567   if ( devState == DEV_HOLD )
        MOV     DPTR,#devState
        MOVX    A,@DPTR
        JNZ     ??ZDOInitDevice_1
//  568     return ( ZDO_INITDEV_LEAVE_NOT_STARTED );   // Don't join - (one time).
        MOV     R1,#0x2
        SJMP    ??ZDOInitDevice_2
//  569 
//  570 #if defined ( NV_RESTORE )
//  571   // Get Keypad directly to see if a reset nv is needed.
//  572   // Hold down the SW_BYPASS_NV key (defined in OnBoard.h)
//  573   // while booting to skip past NV Restore.
//  574   if ( HalKeyRead() == SW_BYPASS_NV )
//  575     networkStateNV = ZDO_INITDEV_NEW_NETWORK_STATE;
//  576   else
//  577   {
//  578     // Determine if NV should be restored
//  579     networkStateNV = ZDApp_ReadNetworkRestoreState();
//  580   }
//  581 
//  582   if ( networkStateNV == ZDO_INITDEV_RESTORED_NETWORK_STATE )
//  583   {
//  584     networkStateNV = ZDApp_RestoreNetworkState();
//  585   }
//  586   else
//  587   {
//  588     // Wipe out the network state in NV
//  589     NLME_InitNV();
//  590     NLME_SetDefaultNV();
//  591   }
//  592 #endif
//  593 
//  594   if ( networkStateNV == ZDO_INITDEV_NEW_NETWORK_STATE )
//  595   {
//  596     ZDAppDetermineDeviceType();
??ZDOInitDevice_1:
        ; Setup parameters for call to function ZDAppDetermineDeviceType
        LCALL   ??ZDAppDetermineDeviceType?relay
//  597 
//  598     // Only delay if joining network - not restoring network state
//  599     extendedDelay = (uint16)((NWK_START_DELAY + startDelay)
//  600               + (osal_rand() & EXTENDED_JOINING_RANDOM_MASK));
        ; Setup parameters for call to function osal_rand
        LCALL   ??osal_rand?relay
        MOV     ?V0 + 0,R2
        MOV     R0,?V0 + 0
        MOV     DPL,?XSP + 0
        MOV     DPH,?XSP + 1
        MOV     A,#0x7f
        ANL     A,R0
        MOV     R0,A
        MOVX    A,@DPTR
        ADD     A,R0
        MOV     R0,A
        INC     DPTR
        MOVX    A,@DPTR
        ADDC    A,#0x0
        MOV     R1,A
        MOV     A,#0x64
        ADD     A,R0
        MOV     R6,A
        CLR     A
        ADDC    A,R1
        MOV     R7,A
//  601   }
//  602 
//  603   // Initialize the security for type of device
//  604   ZDApp_SecInit( networkStateNV );
        ; Setup parameters for call to function ZDApp_SecInit
        MOV     R1,#0x1
        LCALL   ??ZDApp_SecInit?relay
//  605 
//  606   // Trigger the network start
//  607   ZDApp_NetworkInit( extendedDelay );
        ; Setup parameters for call to function ZDApp_NetworkInit
        MOV     A,R6
        MOV     R2,A
        MOV     A,R7
        MOV     R3,A
        LCALL   ??ZDApp_NetworkInit?relay
//  608 
//  609   // set broadcast address mask to support broadcast filtering
//  610   NLME_SetBroadcastFilter( ZDO_Config_Node_Descriptor.CapabilityFlags );
        ; Setup parameters for call to function NLME_SetBroadcastFilter
        MOV     DPTR,#(ZDO_Config_Node_Descriptor + 2)
        MOVX    A,@DPTR
        MOV     R1,A
        LCALL   ??NLME_SetBroadcastFilter?relay
//  611 
//  612   return ( networkStateNV );
        MOV     R1,#0x1
??ZDOInitDevice_2:
        MOV     A,#0x2
        LCALL   ?DEALLOC_XSTACK8
        CFI CFA_XSP16 add(XSP16, 10)
        MOV     R7,#0x2
        LJMP    ?BANKED_LEAVE_XDATA
        CFI EndBlock cfiBlock4
//  613 }
//  614 
//  615 /*********************************************************************
//  616  * @fn      ZDApp_ReadNetworkRestoreState
//  617  *
//  618  * @brief   Read the ZCD_NV_STARTUP_OPTION NV Item to state whether
//  619  *          or not to restore the network state.
//  620  *          If the read value has the ZCD_STARTOPT_DEFAULT_NETWORK_STATE
//  621  *          bit set return the ZDO_INITDEV_NEW_NETWORK_STATE.
//  622  *
//  623  * @param   none
//  624  *
//  625  * @return  ZDO_INITDEV_NEW_NETWORK_STATE
//  626  *          or ZDO_INITDEV_RESTORED_NETWORK_STATE based on whether or
//  627  *          not ZCD_STARTOPT_DEFAULT_NETWORK_STATE bit is set in
//  628  *          ZCD_NV_STARTUP_OPTION
//  629  */

        RSEG BANKED_CODE:CODE:NOROOT(0)
//  630 uint8 ZDApp_ReadNetworkRestoreState( void )
ZDApp_ReadNetworkRestoreState:
        CFI Block cfiBlock5 Using cfiCommon0
        CFI Function ZDApp_ReadNetworkRestoreState
//  631 {
        FUNCALL ZDApp_ReadNetworkRestoreState, zgReadStartupOptions
        LOCFRAME ISTACK, 0, STACK
        LOCFRAME PSTACK, 0, STACK
        LOCFRAME XSTACK, 9, STACK
        LOCFRAME IOVERLAY, 0, STATIC
        LOCFRAME DOVERLAY, 0, STATIC
        ARGFRAME ISTACK, 0, STACK
        ARGFRAME PSTACK, 0, STACK
        ARGFRAME XSTACK, 9, STACK
        ARGFRAME IOVERLAY, 0, STATIC
        ARGFRAME DOVERLAY, 0, STATIC
        MOV     A,#-0x9
        LCALL   ?BANKED_ENTER_XDATA
        CFI DPH0 load(1, XDATA, add(CFA_XSP16, literal(-1)))
        CFI DPL0 load(1, XDATA, add(CFA_XSP16, literal(-2)))
        CFI ?BRET_EXT load(1, XDATA, add(CFA_XSP16, literal(-3)))
        CFI ?RET_HIGH load(1, XDATA, add(CFA_XSP16, literal(-4)))
        CFI ?RET_LOW load(1, XDATA, add(CFA_XSP16, literal(-5)))
        CFI R7 load(1, XDATA, add(CFA_XSP16, literal(-6)))
        CFI V0 load(1, XDATA, add(CFA_XSP16, literal(-7)))
        CFI VB load(1, XDATA, add(CFA_XSP16, literal(-8)))
        CFI R6 load(1, XDATA, add(CFA_XSP16, literal(-9)))
        CFI CFA_SP SP+0
        CFI CFA_XSP16 add(XSP16, 9)
        ; Saved register size: 9
        ; Auto size: 0
//  632   uint8 networkStateNV = ZDO_INITDEV_RESTORED_NETWORK_STATE;
        MOV     R6,#0x0
//  633 
//  634   // Look for the New Network State option.
//  635   if ( zgReadStartupOptions() & ZCD_STARTOPT_DEFAULT_NETWORK_STATE )
        ; Setup parameters for call to function zgReadStartupOptions
        LCALL   ??zgReadStartupOptions?relay
        MOV     A,R1
        MOV     C,0xE0 /* A   */.1
        JNC     ??ZDApp_ReadNetworkRestoreState_0
//  636   {
//  637     networkStateNV = ZDO_INITDEV_NEW_NETWORK_STATE;
        INC     R6
//  638   }
//  639 
//  640   return ( networkStateNV );
??ZDApp_ReadNetworkRestoreState_0:
        MOV     A,R6
        MOV     R1,A
        MOV     R7,#0x1
        LJMP    ?BANKED_LEAVE_XDATA
        CFI EndBlock cfiBlock5
//  641 }
//  642 
//  643 /*********************************************************************
//  644  * @fn      ZDAppDetermineDeviceType()
//  645  *
//  646  * @brief   Determines the type of device to start.
//  647  *
//  648  *          Looks at zgDeviceLogicalType and determines what type of
//  649  *          device to start.  The types are:
//  650  *            ZG_DEVICETYPE_COORDINATOR
//  651  *            ZG_DEVICETYPE_ROUTER
//  652  *            ZG_DEVICETYPE_ENDDEVICE
//  653  *
//  654  * @param   none
//  655  *
//  656  * @return  none
//  657  */

        RSEG BANKED_CODE:CODE:NOROOT(0)
//  658 void ZDAppDetermineDeviceType( void )
ZDAppDetermineDeviceType:
        CFI Block cfiBlock6 Using cfiCommon0
        CFI Function ZDAppDetermineDeviceType
//  659 {
        FUNCALL ZDAppDetermineDeviceType, nwk_ExtPANIDValid
        LOCFRAME ISTACK, 2, STACK
        LOCFRAME PSTACK, 0, STACK
        LOCFRAME XSTACK, 0, STACK
        LOCFRAME IOVERLAY, 0, STATIC
        LOCFRAME DOVERLAY, 0, STATIC
        ARGFRAME ISTACK, 2, STACK
        ARGFRAME PSTACK, 0, STACK
        ARGFRAME XSTACK, 0, STACK
        ARGFRAME IOVERLAY, 0, STATIC
        ARGFRAME DOVERLAY, 0, STATIC
        PUSH    DPL
        CFI DPL0 Frame(CFA_SP, 4)
        CFI CFA_SP SP+-4
        PUSH    DPH
        CFI DPH0 Frame(CFA_SP, 5)
        CFI CFA_SP SP+-5
        ; Saved register size: 2
        ; Auto size: 0
//  660   if ( zgDeviceLogicalType == ZG_DEVICETYPE_COORDINATOR )
        MOV     DPTR,#zgDeviceLogicalType
        MOVX    A,@DPTR
        JNZ     ??ZDAppDetermineDeviceType_0
//  661   {
//  662     devStartMode = MODE_HARD;     // Start as a coordinator
        MOV     A,#0x2
        MOV     DPTR,#devStartMode
        MOVX    @DPTR,A
//  663     ZDO_Config_Node_Descriptor.LogicalType = NODETYPE_COORDINATOR;
        MOV     DPTR,#ZDO_Config_Node_Descriptor
        MOVX    A,@DPTR
        ANL     A,#0xf8
        SJMP    ??ZDAppDetermineDeviceType_1
//  664   }
//  665   else
//  666   {
//  667     if ( zgDeviceLogicalType == ZG_DEVICETYPE_ROUTER  )
??ZDAppDetermineDeviceType_0:
        MOVX    A,@DPTR
        XRL     A,#0x1
        JNZ     ??ZDAppDetermineDeviceType_2
//  668       ZDO_Config_Node_Descriptor.LogicalType = NODETYPE_ROUTER;
        MOV     DPTR,#ZDO_Config_Node_Descriptor
        MOVX    A,@DPTR
        ANL     A,#0xf8
        ORL     A,#0x1
        SJMP    ??ZDAppDetermineDeviceType_3
//  669     else if ( zgDeviceLogicalType == ZG_DEVICETYPE_ENDDEVICE )
??ZDAppDetermineDeviceType_2:
        MOVX    A,@DPTR
        XRL     A,#0x2
        JNZ     ??ZDAppDetermineDeviceType_4
//  670       ZDO_Config_Node_Descriptor.LogicalType = NODETYPE_DEVICE;
        MOV     DPTR,#ZDO_Config_Node_Descriptor
        MOVX    A,@DPTR
        ANL     A,#0xf8
        ORL     A,#0x2
??ZDAppDetermineDeviceType_3:
        MOVX    @DPTR,A
//  671 
//  672     // If AIB_apsUseExtendedPANID is set to a non-zero value by commissioning
//  673     // The device shall do rejoin the network. Otherwise, do normal join
//  674     if ( nwk_ExtPANIDValid( AIB_apsUseExtendedPANID ) == false )
??ZDAppDetermineDeviceType_4:
        ; Setup parameters for call to function nwk_ExtPANIDValid
        MOV     R2,#(AIB_apsUseExtendedPANID & 0xff)
        MOV     R3,#((AIB_apsUseExtendedPANID >> 8) & 0xff)
        LCALL   ??nwk_ExtPANIDValid?relay
        MOV     A,R1
        JNZ     ??ZDAppDetermineDeviceType_5
//  675     {
//  676       devStartMode = MODE_JOIN;     // Assume joining
        CLR     A
        SJMP    ??ZDAppDetermineDeviceType_6
//  677     }
//  678     else
//  679     {
//  680       devStartMode = MODE_REJOIN;
??ZDAppDetermineDeviceType_5:
        MOV     A,#0x3
??ZDAppDetermineDeviceType_6:
        MOV     DPTR,#devStartMode
??ZDAppDetermineDeviceType_1:
        MOVX    @DPTR,A
//  681     }
//  682   }
//  683 }
        POP     DPH
        CFI DPH0 SameValue
        CFI CFA_SP SP+-4
        POP     DPL
        CFI DPL0 SameValue
        CFI CFA_SP SP+-3
        LJMP    ?BRET
        CFI EndBlock cfiBlock6
//  684 
//  685 /*********************************************************************
//  686  * @fn      ZDApp_NetworkStartEvt()
//  687  *
//  688  * @brief   Process the Network Start Event
//  689  *
//  690  * @param   none
//  691  *
//  692  * @return  none
//  693  */

        RSEG BANKED_CODE:CODE:NOROOT(0)
//  694 void ZDApp_NetworkStartEvt( void )
ZDApp_NetworkStartEvt:
        CFI Block cfiBlock7 Using cfiCommon0
        CFI Function ZDApp_NetworkStartEvt
//  695 {
        FUNCALL ZDApp_NetworkStartEvt, osal_pwrmgr_device
        LOCFRAME ISTACK, 2, STACK
        LOCFRAME PSTACK, 0, STACK
        LOCFRAME XSTACK, 0, STACK
        LOCFRAME IOVERLAY, 0, STATIC
        LOCFRAME DOVERLAY, 0, STATIC
        ARGFRAME ISTACK, 2, STACK
        ARGFRAME PSTACK, 0, STACK
        ARGFRAME XSTACK, 0, STACK
        ARGFRAME IOVERLAY, 0, STATIC
        ARGFRAME DOVERLAY, 0, STATIC
        FUNCALL ZDApp_NetworkStartEvt, osal_set_event
        LOCFRAME ISTACK, 2, STACK
        LOCFRAME PSTACK, 0, STACK
        LOCFRAME XSTACK, 0, STACK
        LOCFRAME IOVERLAY, 0, STATIC
        LOCFRAME DOVERLAY, 0, STATIC
        ARGFRAME ISTACK, 2, STACK
        ARGFRAME PSTACK, 0, STACK
        ARGFRAME XSTACK, 0, STACK
        ARGFRAME IOVERLAY, 0, STATIC
        ARGFRAME DOVERLAY, 0, STATIC
        FUNCALL ZDApp_NetworkStartEvt, NLME_GetEnergyThreshold
        LOCFRAME ISTACK, 2, STACK
        LOCFRAME PSTACK, 0, STACK
        LOCFRAME XSTACK, 0, STACK
        LOCFRAME IOVERLAY, 0, STATIC
        LOCFRAME DOVERLAY, 0, STATIC
        ARGFRAME ISTACK, 2, STACK
        ARGFRAME PSTACK, 0, STACK
        ARGFRAME XSTACK, 0, STACK
        ARGFRAME IOVERLAY, 0, STATIC
        ARGFRAME DOVERLAY, 0, STATIC
        FUNCALL ZDApp_NetworkStartEvt, NLME_GetEnergyThreshold
        LOCFRAME ISTACK, 2, STACK
        LOCFRAME PSTACK, 0, STACK
        LOCFRAME XSTACK, 0, STACK
        LOCFRAME IOVERLAY, 0, STATIC
        LOCFRAME DOVERLAY, 0, STATIC
        ARGFRAME ISTACK, 2, STACK
        ARGFRAME PSTACK, 0, STACK
        ARGFRAME XSTACK, 0, STACK
        ARGFRAME IOVERLAY, 0, STATIC
        ARGFRAME DOVERLAY, 0, STATIC
        FUNCALL ZDApp_NetworkStartEvt, NLME_SetEnergyThreshold
        LOCFRAME ISTACK, 2, STACK
        LOCFRAME PSTACK, 0, STACK
        LOCFRAME XSTACK, 0, STACK
        LOCFRAME IOVERLAY, 0, STATIC
        LOCFRAME DOVERLAY, 0, STATIC
        ARGFRAME ISTACK, 2, STACK
        ARGFRAME PSTACK, 0, STACK
        ARGFRAME XSTACK, 0, STACK
        ARGFRAME IOVERLAY, 0, STATIC
        ARGFRAME DOVERLAY, 0, STATIC
        FUNCALL ZDApp_NetworkStartEvt, osal_set_event
        LOCFRAME ISTACK, 2, STACK
        LOCFRAME PSTACK, 0, STACK
        LOCFRAME XSTACK, 0, STACK
        LOCFRAME IOVERLAY, 0, STATIC
        LOCFRAME DOVERLAY, 0, STATIC
        ARGFRAME ISTACK, 2, STACK
        ARGFRAME PSTACK, 0, STACK
        ARGFRAME XSTACK, 0, STACK
        ARGFRAME IOVERLAY, 0, STATIC
        ARGFRAME DOVERLAY, 0, STATIC
        FUNCALL ZDApp_NetworkStartEvt, osal_set_event
        LOCFRAME ISTACK, 2, STACK
        LOCFRAME PSTACK, 0, STACK
        LOCFRAME XSTACK, 0, STACK
        LOCFRAME IOVERLAY, 0, STATIC
        LOCFRAME DOVERLAY, 0, STATIC
        ARGFRAME ISTACK, 2, STACK
        ARGFRAME PSTACK, 0, STACK
        ARGFRAME XSTACK, 0, STACK
        ARGFRAME IOVERLAY, 0, STATIC
        ARGFRAME DOVERLAY, 0, STATIC
        PUSH    DPL
        CFI DPL0 Frame(CFA_SP, 4)
        CFI CFA_SP SP+-4
        PUSH    DPH
        CFI DPH0 Frame(CFA_SP, 5)
        CFI CFA_SP SP+-5
        ; Saved register size: 2
        ; Auto size: 0
//  696   if ( nwkStatus == ZSuccess )
        MOV     DPTR,#nwkStatus
        MOVX    A,@DPTR
        JNZ     ??ZDApp_NetworkStartEvt_0
//  697   {
//  698     // Successfully started a ZigBee network
//  699     if ( devState == DEV_COORD_STARTING )
        MOV     DPTR,#devState
        MOVX    A,@DPTR
        XRL     A,#0x8
        JNZ     ??ZDApp_NetworkStartEvt_1
//  700     {
//  701       devState = DEV_ZB_COORD;
        MOV     A,#0x9
        MOVX    @DPTR,A
//  702     }
//  703 
//  704     osal_pwrmgr_device( PWRMGR_ALWAYS_ON );
??ZDApp_NetworkStartEvt_1:
        ; Setup parameters for call to function osal_pwrmgr_device
        MOV     R1,#0x0
        LCALL   ??osal_pwrmgr_device?relay
//  705     osal_set_event( ZDAppTaskID, ZDO_STATE_CHANGE_EVT );
        ; Setup parameters for call to function osal_set_event
        SJMP    ??ZDApp_NetworkStartEvt_2
//  706   }
//  707   else
//  708   {
//  709     // Try again with a higher energy threshold !!
//  710     if ( ( NLME_GetEnergyThreshold() + ENERGY_SCAN_INCREMENT ) < 0xff )
??ZDApp_NetworkStartEvt_0:
        ; Setup parameters for call to function NLME_GetEnergyThreshold
        LCALL   ??NLME_GetEnergyThreshold?relay
        MOV     A,R1
        MOV     R0,A
        MOV     A,#0x10
        ADD     A,R0
        MOV     R0,A
        CLR     A
        ADDC    A,#0x0
        MOV     R1,A
        MOV     A,R0
        SUBB    A,#-0x1
        MOV     A,R1
        SUBB    A,#0x0
        CLR     C
        XRL     A,PSW
        RLC     A
        JNC     ??ZDApp_NetworkStartEvt_3
//  711     {
//  712       NLME_SetEnergyThreshold( (uint8)(NLME_GetEnergyThreshold() + ENERGY_SCAN_INCREMENT) );
        ; Setup parameters for call to function NLME_SetEnergyThreshold
        ; Setup parameters for call to function NLME_GetEnergyThreshold
        LCALL   ??NLME_GetEnergyThreshold?relay
        MOV     A,R1
        ADD     A,#0x10
        MOV     R1,A
        LCALL   ??NLME_SetEnergyThreshold?relay
//  713       osal_set_event( ZDAppTaskID, ZDO_NETWORK_INIT );
        ; Setup parameters for call to function osal_set_event
        MOV     R2,#0x1
        SJMP    ??ZDApp_NetworkStartEvt_4
//  714     }
//  715     else
//  716     {
//  717       // Failed to start network. Enter a dormant state (until user intervenes)
//  718       devState = DEV_INIT;
??ZDApp_NetworkStartEvt_3:
        MOV     A,#0x1
        MOV     DPTR,#devState
        MOVX    @DPTR,A
//  719       osal_set_event( ZDAppTaskID, ZDO_STATE_CHANGE_EVT );
        ; Setup parameters for call to function osal_set_event
??ZDApp_NetworkStartEvt_2:
        MOV     R2,#0x10
??ZDApp_NetworkStartEvt_4:
        MOV     R3,#0x0
        MOV     DPTR,#ZDAppTaskID
        MOVX    A,@DPTR
        MOV     R1,A
        LCALL   ??osal_set_event?relay
//  720     }
//  721   }
//  722 }
        POP     DPH
        CFI DPH0 SameValue
        CFI CFA_SP SP+-4
        POP     DPL
        CFI DPL0 SameValue
        CFI CFA_SP SP+-3
        LJMP    ?BRET
        CFI EndBlock cfiBlock7
//  723 
//  724 /*********************************************************************
//  725  * @fn      ZDApp_DeviceAuthEvt()
//  726  *
//  727  * @brief   Process the Device Authentic Event
//  728  *
//  729  * @param   none
//  730  *
//  731  * @return  none
//  732  */

        RSEG BANKED_CODE:CODE:NOROOT(0)
//  733 void ZDApp_DeviceAuthEvt( void )
ZDApp_DeviceAuthEvt:
        CFI Block cfiBlock8 Using cfiCommon0
        CFI Function ZDApp_DeviceAuthEvt
//  734 {
        FUNCALL ZDApp_DeviceAuthEvt, ZDApp_ResetTimerCancel
        LOCFRAME ISTACK, 2, STACK
        LOCFRAME PSTACK, 0, STACK
        LOCFRAME XSTACK, 0, STACK
        LOCFRAME IOVERLAY, 0, STATIC
        LOCFRAME DOVERLAY, 0, STATIC
        ARGFRAME ISTACK, 2, STACK
        ARGFRAME PSTACK, 0, STACK
        ARGFRAME XSTACK, 0, STACK
        ARGFRAME IOVERLAY, 0, STATIC
        ARGFRAME DOVERLAY, 0, STATIC
        FUNCALL ZDApp_DeviceAuthEvt, osal_set_event
        LOCFRAME ISTACK, 2, STACK
        LOCFRAME PSTACK, 0, STACK
        LOCFRAME XSTACK, 0, STACK
        LOCFRAME IOVERLAY, 0, STATIC
        LOCFRAME DOVERLAY, 0, STATIC
        ARGFRAME ISTACK, 2, STACK
        ARGFRAME PSTACK, 0, STACK
        ARGFRAME XSTACK, 0, STACK
        ARGFRAME IOVERLAY, 0, STATIC
        ARGFRAME DOVERLAY, 0, STATIC
        FUNCALL ZDApp_DeviceAuthEvt, NLME_StartRouterRequest
        LOCFRAME ISTACK, 2, STACK
        LOCFRAME PSTACK, 0, STACK
        LOCFRAME XSTACK, 0, STACK
        LOCFRAME IOVERLAY, 0, STATIC
        LOCFRAME DOVERLAY, 0, STATIC
        ARGFRAME ISTACK, 2, STACK
        ARGFRAME PSTACK, 0, STACK
        ARGFRAME XSTACK, 0, STACK
        ARGFRAME IOVERLAY, 0, STATIC
        ARGFRAME DOVERLAY, 0, STATIC
        FUNCALL ZDApp_DeviceAuthEvt, ZDApp_NVUpdate
        LOCFRAME ISTACK, 2, STACK
        LOCFRAME PSTACK, 0, STACK
        LOCFRAME XSTACK, 0, STACK
        LOCFRAME IOVERLAY, 0, STATIC
        LOCFRAME DOVERLAY, 0, STATIC
        ARGFRAME ISTACK, 2, STACK
        ARGFRAME PSTACK, 0, STACK
        ARGFRAME XSTACK, 0, STACK
        ARGFRAME IOVERLAY, 0, STATIC
        ARGFRAME DOVERLAY, 0, STATIC
        FUNCALL ZDApp_DeviceAuthEvt, ZDApp_SaveNwkKey
        LOCFRAME ISTACK, 2, STACK
        LOCFRAME PSTACK, 0, STACK
        LOCFRAME XSTACK, 0, STACK
        LOCFRAME IOVERLAY, 0, STATIC
        LOCFRAME DOVERLAY, 0, STATIC
        ARGFRAME ISTACK, 2, STACK
        ARGFRAME PSTACK, 0, STACK
        ARGFRAME XSTACK, 0, STACK
        ARGFRAME IOVERLAY, 0, STATIC
        ARGFRAME DOVERLAY, 0, STATIC
        FUNCALL ZDApp_DeviceAuthEvt, ZDApp_AnnounceNewAddress
        LOCFRAME ISTACK, 2, STACK
        LOCFRAME PSTACK, 0, STACK
        LOCFRAME XSTACK, 0, STACK
        LOCFRAME IOVERLAY, 0, STATIC
        LOCFRAME DOVERLAY, 0, STATIC
        ARGFRAME ISTACK, 2, STACK
        ARGFRAME PSTACK, 0, STACK
        ARGFRAME XSTACK, 0, STACK
        ARGFRAME IOVERLAY, 0, STATIC
        ARGFRAME DOVERLAY, 0, STATIC
        FUNCALL ZDApp_DeviceAuthEvt, NLME_SetPollRate
        LOCFRAME ISTACK, 2, STACK
        LOCFRAME PSTACK, 0, STACK
        LOCFRAME XSTACK, 0, STACK
        LOCFRAME IOVERLAY, 0, STATIC
        LOCFRAME DOVERLAY, 0, STATIC
        ARGFRAME ISTACK, 2, STACK
        ARGFRAME PSTACK, 0, STACK
        ARGFRAME XSTACK, 0, STACK
        ARGFRAME IOVERLAY, 0, STATIC
        ARGFRAME DOVERLAY, 0, STATIC
        FUNCALL ZDApp_DeviceAuthEvt, ZDApp_NVUpdate
        LOCFRAME ISTACK, 2, STACK
        LOCFRAME PSTACK, 0, STACK
        LOCFRAME XSTACK, 0, STACK
        LOCFRAME IOVERLAY, 0, STATIC
        LOCFRAME DOVERLAY, 0, STATIC
        ARGFRAME ISTACK, 2, STACK
        ARGFRAME PSTACK, 0, STACK
        ARGFRAME XSTACK, 0, STACK
        ARGFRAME IOVERLAY, 0, STATIC
        ARGFRAME DOVERLAY, 0, STATIC
        PUSH    DPL
        CFI DPL0 Frame(CFA_SP, 4)
        CFI CFA_SP SP+-4
        PUSH    DPH
        CFI DPH0 Frame(CFA_SP, 5)
        CFI CFA_SP SP+-5
        ; Saved register size: 2
        ; Auto size: 0
//  735   // received authentication from trust center
//  736   if ( devState == DEV_END_DEVICE_UNAUTH )
        MOV     DPTR,#devState
        MOVX    A,@DPTR
        XRL     A,#0x5
        JNZ     ??ZDApp_DeviceAuthEvt_0
//  737   {
//  738     // Stop the reset timer so it doesn't reset
//  739     ZDApp_ResetTimerCancel();
        ; Setup parameters for call to function ZDApp_ResetTimerCancel
        LCALL   ??ZDApp_ResetTimerCancel?relay
//  740 
//  741     devState = DEV_END_DEVICE;
        MOV     A,#0x6
        MOV     DPTR,#devState
        MOVX    @DPTR,A
//  742     osal_set_event( ZDAppTaskID, ZDO_STATE_CHANGE_EVT );
        ; Setup parameters for call to function osal_set_event
        MOV     R2,#0x10
        MOV     R3,#0x0
        MOV     DPTR,#ZDAppTaskID
        MOVX    A,@DPTR
        MOV     R1,A
        LCALL   ??osal_set_event?relay
//  743 
//  744     // Set the Power Manager Device
//  745 #if defined ( POWER_SAVING )
//  746     osal_pwrmgr_device( PWRMGR_BATTERY );
//  747 #endif
//  748 
//  749     if ( ZSTACK_ROUTER_BUILD )
//  750     {
//  751       if ( ZDO_Config_Node_Descriptor.LogicalType != NODETYPE_DEVICE )
        MOV     DPTR,#ZDO_Config_Node_Descriptor
        MOVX    A,@DPTR
        ANL     A,#0x7
        XRL     A,#0x2
        JZ      ??ZDApp_DeviceAuthEvt_1
//  752       {
//  753         // NOTE: first two parameters are not used, see NLMEDE.h for details
//  754         NLME_StartRouterRequest( 0, 0, false );
        ; Setup parameters for call to function NLME_StartRouterRequest
        MOV     R3,#0x0
        MOV     R2,#0x0
        MOV     R1,#0x0
        LCALL   ??NLME_StartRouterRequest?relay
//  755       }
//  756     }
//  757 
//  758     // Notify to save info into NV
//  759     ZDApp_NVUpdate();
??ZDApp_DeviceAuthEvt_1:
        ; Setup parameters for call to function ZDApp_NVUpdate
        LCALL   ??ZDApp_NVUpdate?relay
//  760 
//  761     // Save off the security
//  762     ZDApp_SaveNwkKey();
        ; Setup parameters for call to function ZDApp_SaveNwkKey
        LCALL   ??ZDApp_SaveNwkKey?relay
//  763 
//  764     ZDApp_AnnounceNewAddress();
        ; Setup parameters for call to function ZDApp_AnnounceNewAddress
        LCALL   ??ZDApp_AnnounceNewAddress?relay
//  765 
//  766     if ( (ZDO_Config_Node_Descriptor.CapabilityFlags & CAPINFO_RCVR_ON_IDLE) == 0 )
        MOV     DPTR,#(ZDO_Config_Node_Descriptor + 2)
        MOVX    A,@DPTR
        MOV     C,0xE0 /* A   */.3
        JC      ??ZDApp_DeviceAuthEvt_2
//  767     {
//  768       NLME_SetPollRate( ZDApp_SavedPollRate );
        ; Setup parameters for call to function NLME_SetPollRate
        MOV     DPTR,#ZDApp_SavedPollRate
        MOVX    A,@DPTR
        MOV     R2,A
        INC     DPTR
        MOVX    A,@DPTR
        MOV     R3,A
        LCALL   ??NLME_SetPollRate?relay
        SJMP    ??ZDApp_DeviceAuthEvt_2
//  769     }
//  770   }
//  771   else
//  772   {
//  773     ZDApp_NVUpdate();
??ZDApp_DeviceAuthEvt_0:
        ; Setup parameters for call to function ZDApp_NVUpdate
        LCALL   ??ZDApp_NVUpdate?relay
//  774   }
//  775 }
??ZDApp_DeviceAuthEvt_2:
        POP     DPH
        CFI DPH0 SameValue
        CFI CFA_SP SP+-4
        POP     DPL
        CFI DPL0 SameValue
        CFI CFA_SP SP+-3
        LJMP    ?BRET
        CFI EndBlock cfiBlock8
//  776 
//  777 /*********************************************************************
//  778  * @fn      ZDApp_SaveNetworkStateEvt()
//  779  *
//  780  * @brief   Process the Save the Network State Event
//  781  *
//  782  * @param   none
//  783  *
//  784  * @return  none
//  785  */

        RSEG BANKED_CODE:CODE:NOROOT(0)
//  786 void ZDApp_SaveNetworkStateEvt( void )
ZDApp_SaveNetworkStateEvt:
        CFI Block cfiBlock9 Using cfiCommon0
        CFI Function ZDApp_SaveNetworkStateEvt
//  787 {
        ; Saved register size: 0
        ; Auto size: 0
//  788 #if defined ( NV_RESTORE )
//  789  #if defined ( NV_TURN_OFF_RADIO )
//  790   // Turn off the radio's receiver during an NV update
//  791   uint8 RxOnIdle;
//  792   uint8 x = false;
//  793   ZMacGetReq( ZMacRxOnIdle, &RxOnIdle );
//  794   ZMacSetReq( ZMacRxOnIdle, &x );
//  795  #endif
//  796 
//  797   // Update the Network State in NV
//  798   NLME_UpdateNV( NWK_NV_NIB_ENABLE        |
//  799                  NWK_NV_DEVICELIST_ENABLE |
//  800                  NWK_NV_BINDING_ENABLE    |
//  801                  NWK_NV_ADDRMGR_ENABLE );
//  802 
//  803   // Reset the NV startup option to resume from NV by
//  804   // clearing the "New" join option.
//  805   zgWriteStartupOptions( FALSE, ZCD_STARTOPT_DEFAULT_NETWORK_STATE );
//  806 
//  807  #if defined ( NV_TURN_OFF_RADIO )
//  808   ZMacSetReq( ZMacRxOnIdle, &RxOnIdle );
//  809  #endif
//  810 #endif  // NV_RESTORE
//  811 }
        LJMP    ?BRET
        CFI EndBlock cfiBlock9
//  812 
//  813 /*********************************************************************
//  814  * @fn      ZDApp_RestoreNetworkState()
//  815  *
//  816  * @brief   This function will restore the network state of the
//  817  *          device if the network state is stored in NV.
//  818  *
//  819  * @param   none
//  820  *
//  821  * @return
//  822  *    ZDO_INITDEV_RESTORED_NETWORK_STATE  - The device's network state was
//  823  *          restored.
//  824  *    ZDO_INITDEV_NEW_NETWORK_STATE - The network state was not used.
//  825  *          This could mean that zgStartupOption said to not restore, or
//  826  *          it could mean that there was no network state to restore.
//  827  *
//  828  */

        RSEG BANKED_CODE:CODE:NOROOT(0)
//  829 uint8 ZDApp_RestoreNetworkState( void )
ZDApp_RestoreNetworkState:
        CFI Block cfiBlock10 Using cfiCommon0
        CFI Function ZDApp_RestoreNetworkState
//  830 {
        FUNCALL ZDApp_RestoreNetworkState, NLME_InitNV
        LOCFRAME ISTACK, 0, STACK
        LOCFRAME PSTACK, 0, STACK
        LOCFRAME XSTACK, 9, STACK
        LOCFRAME IOVERLAY, 0, STATIC
        LOCFRAME DOVERLAY, 0, STATIC
        ARGFRAME ISTACK, 0, STACK
        ARGFRAME PSTACK, 0, STACK
        ARGFRAME XSTACK, 9, STACK
        ARGFRAME IOVERLAY, 0, STATIC
        ARGFRAME DOVERLAY, 0, STATIC
        FUNCALL ZDApp_RestoreNetworkState, NLME_RestoreFromNV
        LOCFRAME ISTACK, 0, STACK
        LOCFRAME PSTACK, 0, STACK
        LOCFRAME XSTACK, 9, STACK
        LOCFRAME IOVERLAY, 0, STATIC
        LOCFRAME DOVERLAY, 0, STATIC
        ARGFRAME ISTACK, 0, STACK
        ARGFRAME PSTACK, 0, STACK
        ARGFRAME XSTACK, 9, STACK
        ARGFRAME IOVERLAY, 0, STATIC
        ARGFRAME DOVERLAY, 0, STATIC
        FUNCALL ZDApp_RestoreNetworkState, NLME_GetShortAddr
        LOCFRAME ISTACK, 0, STACK
        LOCFRAME PSTACK, 0, STACK
        LOCFRAME XSTACK, 9, STACK
        LOCFRAME IOVERLAY, 0, STATIC
        LOCFRAME DOVERLAY, 0, STATIC
        ARGFRAME ISTACK, 0, STACK
        ARGFRAME PSTACK, 0, STACK
        ARGFRAME XSTACK, 9, STACK
        ARGFRAME IOVERLAY, 0, STATIC
        ARGFRAME DOVERLAY, 0, STATIC
        FUNCALL ZDApp_RestoreNetworkState, sAddrExtCpy
        LOCFRAME ISTACK, 0, STACK
        LOCFRAME PSTACK, 0, STACK
        LOCFRAME XSTACK, 9, STACK
        LOCFRAME IOVERLAY, 0, STATIC
        LOCFRAME DOVERLAY, 0, STATIC
        ARGFRAME ISTACK, 0, STACK
        ARGFRAME PSTACK, 0, STACK
        ARGFRAME XSTACK, 9, STACK
        ARGFRAME IOVERLAY, 0, STATIC
        ARGFRAME DOVERLAY, 0, STATIC
        MOV     A,#-0x9
        LCALL   ?BANKED_ENTER_XDATA
        CFI DPH0 load(1, XDATA, add(CFA_XSP16, literal(-1)))
        CFI DPL0 load(1, XDATA, add(CFA_XSP16, literal(-2)))
        CFI ?BRET_EXT load(1, XDATA, add(CFA_XSP16, literal(-3)))
        CFI ?RET_HIGH load(1, XDATA, add(CFA_XSP16, literal(-4)))
        CFI ?RET_LOW load(1, XDATA, add(CFA_XSP16, literal(-5)))
        CFI R7 load(1, XDATA, add(CFA_XSP16, literal(-6)))
        CFI V0 load(1, XDATA, add(CFA_XSP16, literal(-7)))
        CFI VB load(1, XDATA, add(CFA_XSP16, literal(-8)))
        CFI R6 load(1, XDATA, add(CFA_XSP16, literal(-9)))
        CFI CFA_SP SP+0
        CFI CFA_XSP16 add(XSP16, 9)
        ; Saved register size: 9
        ; Auto size: 0
//  831   uint8 nvStat;
//  832   nwkActiveKeyItems keyItems;
//  833 
//  834   // Initialize NWK NV items
//  835   nvStat = NLME_InitNV();
        ; Setup parameters for call to function NLME_InitNV
        LCALL   ??NLME_InitNV?relay
        MOV     A,R1
        MOV     R6,A
//  836 
//  837   if ( nvStat != NV_OPER_FAILED )
        MOV     A,#0xa
        XRL     A,R6
        JZ      ??ZDApp_RestoreNetworkState_0
//  838   {
//  839     if ( NLME_RestoreFromNV() )
        ; Setup parameters for call to function NLME_RestoreFromNV
        LCALL   ??NLME_RestoreFromNV?relay
        MOV     A,R1
        JZ      ??ZDApp_RestoreNetworkState_1
//  840     {
//  841       // Are we a coordinator
//  842       ZDAppNwkAddr.addr.shortAddr = NLME_GetShortAddr();
        ; Setup parameters for call to function NLME_GetShortAddr
        LCALL   ??NLME_GetShortAddr?relay
        MOV     DPTR,#ZDAppNwkAddr
        MOV     A,R2
        MOVX    @DPTR,A
        INC     DPTR
        MOV     A,R3
        MOVX    @DPTR,A
//  843       if ( ZDAppNwkAddr.addr.shortAddr == 0 )
        MOV     DPTR,#ZDAppNwkAddr
        MOVX    A,@DPTR
        JNZ     ??ZDApp_RestoreNetworkState_2
        INC     DPTR
        MOVX    A,@DPTR
??ZDApp_RestoreNetworkState_2:
        JNZ     ??ZDApp_RestoreNetworkState_3
//  844         ZDO_Config_Node_Descriptor.LogicalType = NODETYPE_COORDINATOR;
        MOV     DPTR,#ZDO_Config_Node_Descriptor
        MOVX    A,@DPTR
        ANL     A,#0xf8
        MOVX    @DPTR,A
//  845       devStartMode = MODE_RESUME;
??ZDApp_RestoreNetworkState_3:
        MOV     A,#0x1
        MOV     DPTR,#devStartMode
        MOVX    @DPTR,A
//  846       osal_cpyExtAddr( ZDO_UseExtendedPANID, _NIB.extendedPANID );
        ; Setup parameters for call to function sAddrExtCpy
        MOV     R4,#((_NIB + 53) & 0xff)
        MOV     R5,#(((_NIB + 53) >> 8) & 0xff)
        MOV     R2,#(ZDO_UseExtendedPANID & 0xff)
        MOV     R3,#((ZDO_UseExtendedPANID >> 8) & 0xff)
        LCALL   ??sAddrExtCpy?relay
        SJMP    ??ZDApp_RestoreNetworkState_0
//  847     }
//  848     else
//  849       nvStat = NV_ITEM_UNINIT;
??ZDApp_RestoreNetworkState_1:
        MOV     R6,#0x9
//  850 
//  851     if ( ZG_SECURE_ENABLED )
//  852     {
//  853       nwkFrameCounterChanges = 0;
//  854       osal_memset( &keyItems, 0, sizeof( nwkActiveKeyItems ) );
//  855       osal_nv_item_init( ZCD_NV_NWKKEY, sizeof(nwkActiveKeyItems), (void *)&keyItems );
//  856 
//  857       if ( ZG_BUILD_COORDINATOR_TYPE && ZG_DEVICE_COORDINATOR_TYPE )
//  858       {
//  859         ZDApp_RestoreNwkKey();
//  860       }
//  861     }
//  862 
//  863     // The default for RxOnWhenIdle is true for Routers and false for end devices
//  864     // [setup in the NLME_RestoreFromNV()].  Change it here if you want something
//  865     // other than default.
//  866   }
//  867 
//  868   if ( nvStat == ZSUCCESS )
??ZDApp_RestoreNetworkState_0:
        MOV     A,R6
        JNZ     ??ZDApp_RestoreNetworkState_4
//  869     return ( ZDO_INITDEV_RESTORED_NETWORK_STATE );
        MOV     R1,#0x0
        SJMP    ??ZDApp_RestoreNetworkState_5
//  870   else
//  871     return ( ZDO_INITDEV_NEW_NETWORK_STATE );
??ZDApp_RestoreNetworkState_4:
        MOV     R1,#0x1
??ZDApp_RestoreNetworkState_5:
        MOV     R7,#0x1
        LJMP    ?BANKED_LEAVE_XDATA
        CFI EndBlock cfiBlock10
//  872 }
//  873 
//  874 /*********************************************************************
//  875  * @fn      ZDApp_InitUserDesc()
//  876  *
//  877  * @brief   Initialize the User Descriptor, the descriptor is read from NV
//  878  *          when needed.  If you want to initialize the User descriptor to
//  879  *          something other than all zero, do it here.
//  880  *
//  881  * @param   none
//  882  *
//  883  * @return  none
//  884  */

        RSEG BANKED_CODE:CODE:NOROOT(0)
//  885 void ZDApp_InitUserDesc( void )
ZDApp_InitUserDesc:
        CFI Block cfiBlock11 Using cfiCommon0
        CFI Function ZDApp_InitUserDesc
//  886 {
        FUNCALL ZDApp_InitUserDesc, osal_memset
        LOCFRAME ISTACK, 0, STACK
        LOCFRAME PSTACK, 0, STACK
        LOCFRAME XSTACK, 27, STACK
        LOCFRAME IOVERLAY, 0, STATIC
        LOCFRAME DOVERLAY, 0, STATIC
        ARGFRAME ISTACK, 0, STACK
        ARGFRAME PSTACK, 0, STACK
        ARGFRAME XSTACK, 27, STACK
        ARGFRAME IOVERLAY, 0, STATIC
        ARGFRAME DOVERLAY, 0, STATIC
        FUNCALL ZDApp_InitUserDesc, osal_nv_item_init
        LOCFRAME ISTACK, 0, STACK
        LOCFRAME PSTACK, 0, STACK
        LOCFRAME XSTACK, 29, STACK
        LOCFRAME IOVERLAY, 0, STATIC
        LOCFRAME DOVERLAY, 0, STATIC
        ARGFRAME ISTACK, 0, STACK
        ARGFRAME PSTACK, 0, STACK
        ARGFRAME XSTACK, 29, STACK
        ARGFRAME IOVERLAY, 0, STATIC
        ARGFRAME DOVERLAY, 0, STATIC
        FUNCALL ZDApp_InitUserDesc, osal_nv_read
        LOCFRAME ISTACK, 0, STACK
        LOCFRAME PSTACK, 0, STACK
        LOCFRAME XSTACK, 31, STACK
        LOCFRAME IOVERLAY, 0, STATIC
        LOCFRAME DOVERLAY, 0, STATIC
        ARGFRAME ISTACK, 0, STACK
        ARGFRAME PSTACK, 0, STACK
        ARGFRAME XSTACK, 31, STACK
        ARGFRAME IOVERLAY, 0, STATIC
        ARGFRAME DOVERLAY, 0, STATIC
        MOV     A,#-0xa
        LCALL   ?BANKED_ENTER_XDATA
        CFI DPH0 load(1, XDATA, add(CFA_XSP16, literal(-1)))
        CFI DPL0 load(1, XDATA, add(CFA_XSP16, literal(-2)))
        CFI ?BRET_EXT load(1, XDATA, add(CFA_XSP16, literal(-3)))
        CFI ?RET_HIGH load(1, XDATA, add(CFA_XSP16, literal(-4)))
        CFI ?RET_LOW load(1, XDATA, add(CFA_XSP16, literal(-5)))
        CFI R7 load(1, XDATA, add(CFA_XSP16, literal(-6)))
        CFI V1 load(1, XDATA, add(CFA_XSP16, literal(-7)))
        CFI V0 load(1, XDATA, add(CFA_XSP16, literal(-8)))
        CFI VB load(1, XDATA, add(CFA_XSP16, literal(-9)))
        CFI R6 load(1, XDATA, add(CFA_XSP16, literal(-10)))
        CFI CFA_SP SP+0
        CFI CFA_XSP16 add(XSP16, 10)
        ; Saved register size: 10
        ; Auto size: 17
        MOV     A,#-0x11
        LCALL   ?ALLOC_XSTACK8
        CFI CFA_XSP16 add(XSP16, 27)
//  887   UserDescriptorFormat_t ZDO_DefaultUserDescriptor;
//  888 
//  889   // Initialize the User Descriptor, the descriptor is read from NV
//  890   // when needed.  If you want to initialize the User descriptor to something
//  891   // other than all zero, do it here.
//  892   osal_memset( &ZDO_DefaultUserDescriptor, 0, sizeof( UserDescriptorFormat_t ) );
        ; Setup parameters for call to function osal_memset
        MOV     R4,#0x11
        MOV     R5,#0x0
        MOV     R1,#0x0
        MOV     DPL,?XSP + 0
        MOV     DPH,?XSP + 1
        MOV     R2,DPL
        MOV     R3,DPH
        LCALL   ??osal_memset?relay
//  893   if ( ZSUCCESS == osal_nv_item_init( ZCD_NV_USERDESC,
//  894          sizeof(UserDescriptorFormat_t), (void*)&ZDO_DefaultUserDescriptor ) )
        ; Setup parameters for call to function osal_nv_item_init
        MOV     DPL,?XSP + 0
        MOV     DPH,?XSP + 1
        MOV     ?V0 + 0,DPL
        MOV     ?V0 + 1,DPH
        MOV     R0,#?V0 + 0
        LCALL   ?PUSH_XSTACK_I_TWO
        CFI CFA_XSP16 add(XSP16, 29)
        MOV     R4,#0x11
        MOV     R5,#0x0
        MOV     R2,#-0x7f
        MOV     R3,#0x0
        LCALL   ??osal_nv_item_init?relay
        MOV     A,#0x2
        LCALL   ?DEALLOC_XSTACK8
        CFI CFA_XSP16 add(XSP16, 27)
        MOV     A,R1
        JNZ     ??ZDApp_InitUserDesc_0
//  895   {
//  896     if ( ZSUCCESS == osal_nv_read( ZCD_NV_USERDESC, 0,
//  897          sizeof(UserDescriptorFormat_t), (void*)&ZDO_DefaultUserDescriptor ) )
        ; Setup parameters for call to function osal_nv_read
        MOV     R0,#?V0 + 0
        LCALL   ?PUSH_XSTACK_I_TWO
        CFI CFA_XSP16 add(XSP16, 29)
        MOV     ?V0 + 0,#0x11
        MOV     ?V0 + 1,#0x0
        MOV     R0,#?V0 + 0
        LCALL   ?PUSH_XSTACK_I_TWO
        CFI CFA_XSP16 add(XSP16, 31)
        MOV     R4,#0x0
        MOV     R5,#0x0
        MOV     R2,#-0x7f
        MOV     R3,#0x0
        LCALL   ??osal_nv_read?relay
        MOV     A,#0x4
        LCALL   ?DEALLOC_XSTACK8
        CFI CFA_XSP16 add(XSP16, 27)
        MOV     A,R1
        JNZ     ??ZDApp_InitUserDesc_0
//  898     {
//  899       if ( ZDO_DefaultUserDescriptor.len != 0 )
        MOV     DPL,?XSP + 0
        MOV     DPH,?XSP + 1
        MOVX    A,@DPTR
        JZ      ??ZDApp_InitUserDesc_0
//  900       {
//  901         ZDO_Config_Node_Descriptor.UserDescAvail = TRUE;
        MOV     DPTR,#ZDO_Config_Node_Descriptor
        MOVX    A,@DPTR
        SETB    0xE0 /* A   */.4
        MOVX    @DPTR,A
//  902       }
//  903     }
//  904   }
//  905 }
??ZDApp_InitUserDesc_0:
        MOV     A,#0x11
        LCALL   ?DEALLOC_XSTACK8
        CFI CFA_XSP16 add(XSP16, 10)
        MOV     R7,#0x2
        LJMP    ?BANKED_LEAVE_XDATA
        CFI EndBlock cfiBlock11
//  906 
//  907 /*********************************************************************
//  908  * @fn      ZDAppCheckForHoldKey()
//  909  *
//  910  * @brief   Check for key to set the device into Hold Auto Start
//  911  *
//  912  * @param   none
//  913  *
//  914  * @return  none
//  915  */

        RSEG BANKED_CODE:CODE:NOROOT(0)
//  916 void ZDAppCheckForHoldKey( void )
ZDAppCheckForHoldKey:
        CFI Block cfiBlock12 Using cfiCommon0
        CFI Function ZDAppCheckForHoldKey
//  917 {
        FUNCALL ZDAppCheckForHoldKey, HalKeyRead
        LOCFRAME ISTACK, 2, STACK
        LOCFRAME PSTACK, 0, STACK
        LOCFRAME XSTACK, 0, STACK
        LOCFRAME IOVERLAY, 0, STATIC
        LOCFRAME DOVERLAY, 0, STATIC
        ARGFRAME ISTACK, 2, STACK
        ARGFRAME PSTACK, 0, STACK
        ARGFRAME XSTACK, 0, STACK
        ARGFRAME IOVERLAY, 0, STATIC
        ARGFRAME DOVERLAY, 0, STATIC
        PUSH    DPL
        CFI DPL0 Frame(CFA_SP, 4)
        CFI CFA_SP SP+-4
        PUSH    DPH
        CFI DPH0 Frame(CFA_SP, 5)
        CFI CFA_SP SP+-5
        ; Saved register size: 2
        ; Auto size: 0
//  918 #if (defined HAL_KEY) && (HAL_KEY == TRUE)
//  919   // Get Keypad directly to see if a HOLD_START is needed.
//  920   // Hold down the SW_BYPASS_START key (see OnBoard.h)
//  921   // while booting to avoid starting up the device.
//  922   if ( HalKeyRead () == SW_BYPASS_START)
        ; Setup parameters for call to function HalKeyRead
        LCALL   ??HalKeyRead?relay
        MOV     A,R1
        XRL     A,#0x1
        JNZ     ??ZDAppCheckForHoldKey_0
//  923   {
//  924     // Change the device state to HOLD on start up
//  925     devState = DEV_HOLD;
        CLR     A
        MOV     DPTR,#devState
        MOVX    @DPTR,A
//  926   }
//  927 #endif // HAL_KEY
//  928 }
??ZDAppCheckForHoldKey_0:
        POP     DPH
        CFI DPH0 SameValue
        CFI CFA_SP SP+-4
        POP     DPL
        CFI DPL0 SameValue
        CFI CFA_SP SP+-3
        LJMP    ?BRET
        CFI EndBlock cfiBlock12
//  929 
//  930 /*********************************************************************
//  931  * @fn      ZDApp_ProcessOSALMsg()
//  932  *
//  933  * @brief   Process the incoming task message.
//  934  *
//  935  * @param   msgPtr - message to process
//  936  *
//  937  * @return  none
//  938  */

        RSEG BANKED_CODE:CODE:NOROOT(0)
//  939 void ZDApp_ProcessOSALMsg( osal_event_hdr_t *msgPtr )
ZDApp_ProcessOSALMsg:
        CFI Block cfiBlock13 Using cfiCommon0
        CFI Function ZDApp_ProcessOSALMsg
//  940 {
        FUNCALL ZDApp_ProcessOSALMsg, ZDP_IncomingData
        LOCFRAME ISTACK, 0, STACK
        LOCFRAME PSTACK, 0, STACK
        LOCFRAME XSTACK, 11, STACK
        LOCFRAME IOVERLAY, 0, STATIC
        LOCFRAME DOVERLAY, 0, STATIC
        ARGFRAME ISTACK, 0, STACK
        ARGFRAME PSTACK, 0, STACK
        ARGFRAME XSTACK, 11, STACK
        ARGFRAME IOVERLAY, 0, STATIC
        ARGFRAME DOVERLAY, 0, STATIC
        FUNCALL ZDApp_ProcessOSALMsg, ZDApp_ProcessMsgCBs
        LOCFRAME ISTACK, 0, STACK
        LOCFRAME PSTACK, 0, STACK
        LOCFRAME XSTACK, 11, STACK
        LOCFRAME IOVERLAY, 0, STATIC
        LOCFRAME DOVERLAY, 0, STATIC
        ARGFRAME ISTACK, 0, STACK
        ARGFRAME PSTACK, 0, STACK
        ARGFRAME XSTACK, 11, STACK
        ARGFRAME IOVERLAY, 0, STATIC
        ARGFRAME DOVERLAY, 0, STATIC
        FUNCALL ZDApp_ProcessOSALMsg, ZDApp_NodeProfileSync
        LOCFRAME ISTACK, 0, STACK
        LOCFRAME PSTACK, 0, STACK
        LOCFRAME XSTACK, 11, STACK
        LOCFRAME IOVERLAY, 0, STATIC
        LOCFRAME DOVERLAY, 0, STATIC
        ARGFRAME ISTACK, 0, STACK
        ARGFRAME PSTACK, 0, STACK
        ARGFRAME XSTACK, 11, STACK
        ARGFRAME IOVERLAY, 0, STATIC
        ARGFRAME DOVERLAY, 0, STATIC
        FUNCALL ZDApp_ProcessOSALMsg, NLME_JoinRequest
        LOCFRAME ISTACK, 0, STACK
        LOCFRAME PSTACK, 0, STACK
        LOCFRAME XSTACK, 12, STACK
        LOCFRAME IOVERLAY, 0, STATIC
        LOCFRAME DOVERLAY, 0, STATIC
        ARGFRAME ISTACK, 0, STACK
        ARGFRAME PSTACK, 0, STACK
        ARGFRAME XSTACK, 12, STACK
        ARGFRAME IOVERLAY, 0, STATIC
        ARGFRAME DOVERLAY, 0, STATIC
        FUNCALL ZDApp_ProcessOSALMsg, osal_rand
        LOCFRAME ISTACK, 0, STACK
        LOCFRAME PSTACK, 0, STACK
        LOCFRAME XSTACK, 11, STACK
        LOCFRAME IOVERLAY, 0, STATIC
        LOCFRAME DOVERLAY, 0, STATIC
        ARGFRAME ISTACK, 0, STACK
        ARGFRAME PSTACK, 0, STACK
        ARGFRAME XSTACK, 11, STACK
        ARGFRAME IOVERLAY, 0, STATIC
        ARGFRAME DOVERLAY, 0, STATIC
        FUNCALL ZDApp_ProcessOSALMsg, ZDApp_NetworkInit
        LOCFRAME ISTACK, 0, STACK
        LOCFRAME PSTACK, 0, STACK
        LOCFRAME XSTACK, 11, STACK
        LOCFRAME IOVERLAY, 0, STATIC
        LOCFRAME DOVERLAY, 0, STATIC
        ARGFRAME ISTACK, 0, STACK
        ARGFRAME PSTACK, 0, STACK
        ARGFRAME XSTACK, 11, STACK
        ARGFRAME IOVERLAY, 0, STATIC
        ARGFRAME DOVERLAY, 0, STATIC
        FUNCALL ZDApp_ProcessOSALMsg, osal_rand
        LOCFRAME ISTACK, 0, STACK
        LOCFRAME PSTACK, 0, STACK
        LOCFRAME XSTACK, 11, STACK
        LOCFRAME IOVERLAY, 0, STATIC
        LOCFRAME DOVERLAY, 0, STATIC
        ARGFRAME ISTACK, 0, STACK
        ARGFRAME PSTACK, 0, STACK
        ARGFRAME XSTACK, 11, STACK
        ARGFRAME IOVERLAY, 0, STATIC
        ARGFRAME DOVERLAY, 0, STATIC
        FUNCALL ZDApp_ProcessOSALMsg, ZMacSetReq
        LOCFRAME ISTACK, 0, STACK
        LOCFRAME PSTACK, 0, STACK
        LOCFRAME XSTACK, 11, STACK
        LOCFRAME IOVERLAY, 0, STATIC
        LOCFRAME DOVERLAY, 0, STATIC
        ARGFRAME ISTACK, 0, STACK
        ARGFRAME PSTACK, 0, STACK
        ARGFRAME XSTACK, 11, STACK
        ARGFRAME IOVERLAY, 0, STATIC
        ARGFRAME DOVERLAY, 0, STATIC
        FUNCALL ZDApp_ProcessOSALMsg, ZMacSetReq
        LOCFRAME ISTACK, 0, STACK
        LOCFRAME PSTACK, 0, STACK
        LOCFRAME XSTACK, 11, STACK
        LOCFRAME IOVERLAY, 0, STATIC
        LOCFRAME DOVERLAY, 0, STATIC
        ARGFRAME ISTACK, 0, STACK
        ARGFRAME PSTACK, 0, STACK
        ARGFRAME XSTACK, 11, STACK
        ARGFRAME IOVERLAY, 0, STATIC
        ARGFRAME DOVERLAY, 0, STATIC
        FUNCALL ZDApp_ProcessOSALMsg, ZMacSetReq
        LOCFRAME ISTACK, 0, STACK
        LOCFRAME PSTACK, 0, STACK
        LOCFRAME XSTACK, 11, STACK
        LOCFRAME IOVERLAY, 0, STATIC
        LOCFRAME DOVERLAY, 0, STATIC
        ARGFRAME ISTACK, 0, STACK
        ARGFRAME PSTACK, 0, STACK
        ARGFRAME XSTACK, 11, STACK
        ARGFRAME IOVERLAY, 0, STATIC
        ARGFRAME DOVERLAY, 0, STATIC
        FUNCALL ZDApp_ProcessOSALMsg, NLME_ReJoinRequest
        LOCFRAME ISTACK, 0, STACK
        LOCFRAME PSTACK, 0, STACK
        LOCFRAME XSTACK, 11, STACK
        LOCFRAME IOVERLAY, 0, STATIC
        LOCFRAME DOVERLAY, 0, STATIC
        ARGFRAME ISTACK, 0, STACK
        ARGFRAME PSTACK, 0, STACK
        ARGFRAME XSTACK, 11, STACK
        ARGFRAME IOVERLAY, 0, STATIC
        ARGFRAME DOVERLAY, 0, STATIC
        FUNCALL ZDApp_ProcessOSALMsg, osal_rand
        LOCFRAME ISTACK, 0, STACK
        LOCFRAME PSTACK, 0, STACK
        LOCFRAME XSTACK, 11, STACK
        LOCFRAME IOVERLAY, 0, STATIC
        LOCFRAME DOVERLAY, 0, STATIC
        ARGFRAME ISTACK, 0, STACK
        ARGFRAME PSTACK, 0, STACK
        ARGFRAME XSTACK, 11, STACK
        ARGFRAME IOVERLAY, 0, STATIC
        ARGFRAME DOVERLAY, 0, STATIC
        FUNCALL ZDApp_ProcessOSALMsg, ZDApp_NetworkInit
        LOCFRAME ISTACK, 0, STACK
        LOCFRAME PSTACK, 0, STACK
        LOCFRAME XSTACK, 11, STACK
        LOCFRAME IOVERLAY, 0, STATIC
        LOCFRAME DOVERLAY, 0, STATIC
        ARGFRAME ISTACK, 0, STACK
        ARGFRAME PSTACK, 0, STACK
        ARGFRAME XSTACK, 11, STACK
        ARGFRAME IOVERLAY, 0, STATIC
        ARGFRAME DOVERLAY, 0, STATIC
        FUNCALL ZDApp_ProcessOSALMsg, NLME_SetPollRate
        LOCFRAME ISTACK, 0, STACK
        LOCFRAME PSTACK, 0, STACK
        LOCFRAME XSTACK, 11, STACK
        LOCFRAME IOVERLAY, 0, STATIC
        LOCFRAME DOVERLAY, 0, STATIC
        ARGFRAME ISTACK, 0, STACK
        ARGFRAME PSTACK, 0, STACK
        ARGFRAME XSTACK, 11, STACK
        ARGFRAME IOVERLAY, 0, STATIC
        ARGFRAME DOVERLAY, 0, STATIC
        FUNCALL ZDApp_ProcessOSALMsg, NLME_SetQueuedPollRate
        LOCFRAME ISTACK, 0, STACK
        LOCFRAME PSTACK, 0, STACK
        LOCFRAME XSTACK, 11, STACK
        LOCFRAME IOVERLAY, 0, STATIC
        LOCFRAME DOVERLAY, 0, STATIC
        ARGFRAME ISTACK, 0, STACK
        ARGFRAME PSTACK, 0, STACK
        ARGFRAME XSTACK, 11, STACK
        ARGFRAME IOVERLAY, 0, STATIC
        ARGFRAME DOVERLAY, 0, STATIC
        FUNCALL ZDApp_ProcessOSALMsg, NLME_SetResponseRate
        LOCFRAME ISTACK, 0, STACK
        LOCFRAME PSTACK, 0, STACK
        LOCFRAME XSTACK, 11, STACK
        LOCFRAME IOVERLAY, 0, STATIC
        LOCFRAME DOVERLAY, 0, STATIC
        ARGFRAME ISTACK, 0, STACK
        ARGFRAME PSTACK, 0, STACK
        ARGFRAME XSTACK, 11, STACK
        ARGFRAME IOVERLAY, 0, STATIC
        ARGFRAME DOVERLAY, 0, STATIC
        FUNCALL ZDApp_ProcessOSALMsg, osal_rand
        LOCFRAME ISTACK, 0, STACK
        LOCFRAME PSTACK, 0, STACK
        LOCFRAME XSTACK, 11, STACK
        LOCFRAME IOVERLAY, 0, STATIC
        LOCFRAME DOVERLAY, 0, STATIC
        ARGFRAME ISTACK, 0, STACK
        ARGFRAME PSTACK, 0, STACK
        ARGFRAME XSTACK, 11, STACK
        ARGFRAME IOVERLAY, 0, STATIC
        ARGFRAME DOVERLAY, 0, STATIC
        FUNCALL ZDApp_ProcessOSALMsg, ZDApp_NetworkInit
        LOCFRAME ISTACK, 0, STACK
        LOCFRAME PSTACK, 0, STACK
        LOCFRAME XSTACK, 11, STACK
        LOCFRAME IOVERLAY, 0, STATIC
        LOCFRAME DOVERLAY, 0, STATIC
        ARGFRAME ISTACK, 0, STACK
        ARGFRAME PSTACK, 0, STACK
        ARGFRAME XSTACK, 11, STACK
        ARGFRAME IOVERLAY, 0, STATIC
        ARGFRAME DOVERLAY, 0, STATIC
        FUNCALL ZDApp_ProcessOSALMsg, ZDApp_ProcessNetworkJoin
        LOCFRAME ISTACK, 0, STACK
        LOCFRAME PSTACK, 0, STACK
        LOCFRAME XSTACK, 11, STACK
        LOCFRAME IOVERLAY, 0, STATIC
        LOCFRAME DOVERLAY, 0, STATIC
        ARGFRAME ISTACK, 0, STACK
        ARGFRAME PSTACK, 0, STACK
        ARGFRAME XSTACK, 11, STACK
        ARGFRAME IOVERLAY, 0, STATIC
        ARGFRAME DOVERLAY, 0, STATIC
        FUNCALL ZDApp_ProcessOSALMsg, sAddrExtCpy
        LOCFRAME ISTACK, 0, STACK
        LOCFRAME PSTACK, 0, STACK
        LOCFRAME XSTACK, 11, STACK
        LOCFRAME IOVERLAY, 0, STATIC
        LOCFRAME DOVERLAY, 0, STATIC
        ARGFRAME ISTACK, 0, STACK
        ARGFRAME PSTACK, 0, STACK
        ARGFRAME XSTACK, 11, STACK
        ARGFRAME IOVERLAY, 0, STATIC
        ARGFRAME DOVERLAY, 0, STATIC
        FUNCALL ZDApp_ProcessOSALMsg, ZDApp_NetworkInit
        LOCFRAME ISTACK, 0, STACK
        LOCFRAME PSTACK, 0, STACK
        LOCFRAME XSTACK, 11, STACK
        LOCFRAME IOVERLAY, 0, STATIC
        LOCFRAME DOVERLAY, 0, STATIC
        ARGFRAME ISTACK, 0, STACK
        ARGFRAME PSTACK, 0, STACK
        ARGFRAME XSTACK, 11, STACK
        ARGFRAME IOVERLAY, 0, STATIC
        ARGFRAME DOVERLAY, 0, STATIC
        MOV     A,#-0xa
        LCALL   ?BANKED_ENTER_XDATA
        CFI DPH0 load(1, XDATA, add(CFA_XSP16, literal(-1)))
        CFI DPL0 load(1, XDATA, add(CFA_XSP16, literal(-2)))
        CFI ?BRET_EXT load(1, XDATA, add(CFA_XSP16, literal(-3)))
        CFI ?RET_HIGH load(1, XDATA, add(CFA_XSP16, literal(-4)))
        CFI ?RET_LOW load(1, XDATA, add(CFA_XSP16, literal(-5)))
        CFI R7 load(1, XDATA, add(CFA_XSP16, literal(-6)))
        CFI V1 load(1, XDATA, add(CFA_XSP16, literal(-7)))
        CFI V0 load(1, XDATA, add(CFA_XSP16, literal(-8)))
        CFI VB load(1, XDATA, add(CFA_XSP16, literal(-9)))
        CFI R6 load(1, XDATA, add(CFA_XSP16, literal(-10)))
        CFI CFA_SP SP+0
        CFI CFA_XSP16 add(XSP16, 10)
        ; Saved register size: 10
        ; Auto size: 1
        MOV     A,#-0x1
        LCALL   ?ALLOC_XSTACK8
        CFI CFA_XSP16 add(XSP16, 11)
        MOV     A,R2
        MOV     R6,A
        MOV     A,R3
        MOV     R7,A
//  941   // Data Confirmation message fields
//  942   uint8 sentEP;       // This should always be 0
//  943   uint8 sentStatus;
//  944   afDataConfirm_t *afDataConfirm;
//  945   uint8 tmp;
//  946 
//  947   switch ( msgPtr->event )
        MOV     DPL,R6
        MOV     DPH,R7
        MOVX    A,@DPTR
        LCALL   ?UC_SWITCH_SPARSE
`?<Jumptable for ZDApp_ProcessOSALMsg>_0`:
        DATA
        DB        0
        DB        6
        DB        1
        DW        ??ZDApp_ProcessOSALMsg_0
        DB        2
        DW        ??ZDApp_ProcessOSALMsg_1
        DB        3
        DW        ??ZDApp_ProcessOSALMsg_2
        DB        26
        DW        ??ZDApp_ProcessOSALMsg_3
        DB        211
        DW        ??ZDApp_ProcessOSALMsg_4
        DB        253
        DW        ??ZDApp_ProcessOSALMsg_5
        DW        ??ZDApp_ProcessOSALMsg_6
        CODE
//  948   {
//  949     // Incoming ZDO Message
//  950     case AF_INCOMING_MSG_CMD:
//  951       ZDP_IncomingData( (afIncomingMSGPacket_t *)msgPtr );
??ZDApp_ProcessOSALMsg_3:
        ; Setup parameters for call to function ZDP_IncomingData
        LCALL   ??ZDP_IncomingData?relay
        LJMP    ??ZDApp_ProcessOSALMsg_6 & 0xFFFF
//  952       break;
//  953 
//  954     case ZDO_CB_MSG:
//  955       ZDApp_ProcessMsgCBs( (zdoIncomingMsg_t *)msgPtr );
??ZDApp_ProcessOSALMsg_4:
        ; Setup parameters for call to function ZDApp_ProcessMsgCBs
        LCALL   ??ZDApp_ProcessMsgCBs?relay
        LJMP    ??ZDApp_ProcessOSALMsg_6 & 0xFFFF
//  956       break;
//  957 
//  958     case AF_DATA_CONFIRM_CMD:
//  959       // This message is received as a confirmation of a data packet sent.
//  960       // The status is of ZStatus_t type [defined in NLMEDE.h]
//  961       // The message fields are defined in AF.h
//  962       afDataConfirm = (afDataConfirm_t *)msgPtr;
//  963       sentEP = afDataConfirm->endpoint;
//  964       sentStatus = afDataConfirm->hdr.status;
//  965 
//  966       // Action taken when confirmation is received.
//  967 #if defined ( ZIGBEE_FREQ_AGILITY )
//  968       if ( pZDNwkMgr_ProcessDataConfirm )
??ZDApp_ProcessOSALMsg_5:
        MOV     DPTR,#pZDNwkMgr_ProcessDataConfirm
        MOVX    A,@DPTR
        JNZ     ??ZDApp_ProcessOSALMsg_7
        INC     DPTR
        MOVX    A,@DPTR
??ZDApp_ProcessOSALMsg_7:
        JNZ     $+5
        LJMP    ??ZDApp_ProcessOSALMsg_6 & 0xFFFF
//  969         pZDNwkMgr_ProcessDataConfirm( afDataConfirm );
        ; Setup parameters for indirect call
        MOV     DPTR,#pZDNwkMgr_ProcessDataConfirm
        MOVX    A,@DPTR
        MOV     R0,A
        INC     DPTR
        MOVX    A,@DPTR
        MOV     DPH,A
        MOV     DPL,R0
        LCALL   ?CALL_IND
        LJMP    ??ZDApp_ProcessOSALMsg_6 & 0xFFFF
//  970 #endif
//  971       (void)sentEP;
//  972       (void)sentStatus;
//  973       break;
//  974 
//  975     case ZDO_NWK_DISC_CNF:
//  976       if (devState != DEV_NWK_DISC)
??ZDApp_ProcessOSALMsg_0:
        MOV     DPTR,#devState
        MOVX    A,@DPTR
        XRL     A,#0x2
        JZ      $+5
        LJMP    ??ZDApp_ProcessOSALMsg_6 & 0xFFFF
//  977         break;
//  978 
//  979       if ( ZG_BUILD_JOINING_TYPE && ZG_DEVICE_JOINING_TYPE )
        MOV     DPTR,#zgDeviceLogicalType
        MOVX    A,@DPTR
        XRL     A,#0x1
        JZ      ??ZDApp_ProcessOSALMsg_8
        MOVX    A,@DPTR
        XRL     A,#0x2
        JZ      $+5
        LJMP    ??ZDApp_ProcessOSALMsg_6 & 0xFFFF
//  980       {
//  981         if ( (((ZDO_NetworkDiscoveryCfm_t *)msgPtr)->hdr.status == ZDO_SUCCESS) && (zdoDiscCounter > NUM_DISC_ATTEMPTS) )
??ZDApp_ProcessOSALMsg_8:
        MOV     DPL,R6
        MOV     DPH,R7
        INC     DPTR
        MOVX    A,@DPTR
        JZ      $+5
        LJMP    ??ZDApp_ProcessOSALMsg_9 & 0xFFFF
        MOV     DPTR,#zdoDiscCounter
        MOVX    A,@DPTR
        CLR     C
        SUBB    A,#0x3
        JNC     $+5
        LJMP    ??ZDApp_ProcessOSALMsg_9 & 0xFFFF
//  982         {
//  983           if ( devStartMode == MODE_JOIN )
        MOV     DPTR,#devStartMode
        MOVX    A,@DPTR
        JNZ     ??ZDApp_ProcessOSALMsg_10
//  984           {
//  985             devState = DEV_NWK_JOINING;
        MOV     A,#0x3
        MOV     DPTR,#devState
        MOVX    @DPTR,A
//  986 
//  987             ZDApp_NodeProfileSync((ZDO_NetworkDiscoveryCfm_t *)msgPtr);
        ; Setup parameters for call to function ZDApp_NodeProfileSync
        LCALL   ??ZDApp_NodeProfileSync?relay
//  988 
//  989             if ( NLME_JoinRequest( ((ZDO_NetworkDiscoveryCfm_t *)msgPtr)->extendedPANID,
//  990                  BUILD_UINT16( ((ZDO_NetworkDiscoveryCfm_t *)msgPtr)->panIdLSB, ((ZDO_NetworkDiscoveryCfm_t *)msgPtr)->panIdMSB ),
//  991                  ((ZDO_NetworkDiscoveryCfm_t *)msgPtr)->logicalChannel,
//  992                  ZDO_Config_Node_Descriptor.CapabilityFlags ) != ZSuccess )
        ; Setup parameters for call to function NLME_JoinRequest
        MOV     DPTR,#(ZDO_Config_Node_Descriptor + 2)
        MOVX    A,@DPTR
        MOV     ?V0 + 0,A
        MOV     R0,#?V0 + 0
        LCALL   ?PUSH_XSTACK_I_ONE
        CFI CFA_XSP16 add(XSP16, 12)
        MOV     DPL,R6
        MOV     DPH,R7
        INC     DPTR
        INC     DPTR
        INC     DPTR
        INC     DPTR
        MOVX    A,@DPTR
        MOV     R1,A
        MOV     DPL,R6
        MOV     DPH,R7
        INC     DPTR
        INC     DPTR
        MOVX    A,@DPTR
        MOV     R4,A
        MOV     DPL,R6
        MOV     DPH,R7
        INC     DPTR
        INC     DPTR
        INC     DPTR
        MOVX    A,@DPTR
        MOV     R5,A
        MOV     A,R6
        ADD     A,#0x6
        MOV     R2,A
        MOV     A,R7
        ADDC    A,#0x0
        MOV     R3,A
        LCALL   ??NLME_JoinRequest?relay
        MOV     A,#0x1
        LCALL   ?DEALLOC_XSTACK8
        CFI CFA_XSP16 add(XSP16, 11)
        LJMP    ??ZDApp_ProcessOSALMsg_11 & 0xFFFF
//  993             {
//  994               ZDApp_NetworkInit( (uint16)(NWK_START_DELAY
//  995                   + ((uint16)(osal_rand()& EXTENDED_JOINING_RANDOM_MASK))) );
//  996             }
//  997           }
//  998           else if ( devStartMode == MODE_REJOIN )
??ZDApp_ProcessOSALMsg_10:
        MOVX    A,@DPTR
        XRL     A,#0x3
        JZ      $+5
        LJMP    ??ZDApp_ProcessOSALMsg_12 & 0xFFFF
//  999           {
// 1000             devState = DEV_NWK_REJOIN;
        MOV     A,#0x4
        MOV     DPTR,#devState
        MOVX    @DPTR,A
// 1001 
// 1002             // Before trying to do rejoin, check if the device has a valid short address
// 1003             // If not, generate a random short address for itself
// 1004             if ( _NIB.nwkDevAddress == INVALID_NODE_ADDR )
        MOV     DPTR,#(_NIB + 20)
        MOVX    A,@DPTR
        XRL     A,#0xfe
        JNZ     ??ZDApp_ProcessOSALMsg_13
        INC     DPTR
        MOVX    A,@DPTR
        XRL     A,#0xff
??ZDApp_ProcessOSALMsg_13:
        JNZ     ??ZDApp_ProcessOSALMsg_14
// 1005             {
// 1006               _NIB.nwkDevAddress = osal_rand();
        ; Setup parameters for call to function osal_rand
        LCALL   ??osal_rand?relay
        MOV     DPTR,#(_NIB + 20)
        MOV     A,R2
        MOVX    @DPTR,A
        INC     DPTR
        MOV     A,R3
        MOVX    @DPTR,A
// 1007               ZMacSetReq( ZMacShortAddress, (byte*)&_NIB.nwkDevAddress );
        ; Setup parameters for call to function ZMacSetReq
        MOV     R2,#((_NIB + 20) & 0xff)
        MOV     R3,#(((_NIB + 20) >> 8) & 0xff)
        MOV     R1,#0x53
        LCALL   ??ZMacSetReq?relay
// 1008             }
// 1009 
// 1010             if ( ZG_SECURE_ENABLED )
// 1011             {
// 1012               ZDApp_RestoreNwkKey();
// 1013             }
// 1014             
// 1015             // Check if the device has a valid PanID, if not, set it to the discovered Pan
// 1016             if ( _NIB.nwkPanId == INVALID_PAN_ID )
??ZDApp_ProcessOSALMsg_14:
        MOV     DPTR,#(_NIB + 33)
        MOVX    A,@DPTR
        XRL     A,#0xfe
        JNZ     ??ZDApp_ProcessOSALMsg_15
        INC     DPTR
        MOVX    A,@DPTR
        XRL     A,#0xff
??ZDApp_ProcessOSALMsg_15:
        JNZ     ??ZDApp_ProcessOSALMsg_16
// 1017             {
// 1018               _NIB.nwkPanId = BUILD_UINT16( ((ZDO_NetworkDiscoveryCfm_t *)msgPtr)->panIdLSB, ((ZDO_NetworkDiscoveryCfm_t *)msgPtr)->panIdMSB );
        MOV     DPL,R6
        MOV     DPH,R7
        INC     DPTR
        INC     DPTR
        MOVX    A,@DPTR
        MOV     R2,A
        MOV     DPL,R6
        MOV     DPH,R7
        INC     DPTR
        INC     DPTR
        INC     DPTR
        MOVX    A,@DPTR
        MOV     R1,A
        MOV     A,R2
        MOV     DPTR,#(_NIB + 33)
        MOVX    @DPTR,A
        INC     DPTR
        MOV     A,R1
        MOVX    @DPTR,A
// 1019               ZMacSetReq( ZMacPanId, (byte*)&(_NIB.nwkPanId) );
        ; Setup parameters for call to function ZMacSetReq
        MOV     R2,#((_NIB + 33) & 0xff)
        MOV     R3,#(((_NIB + 33) >> 8) & 0xff)
        MOV     R1,#0x50
        LCALL   ??ZMacSetReq?relay
// 1020             }
// 1021 
// 1022             tmp = true;
??ZDApp_ProcessOSALMsg_16:
        MOV     A,#0x1
        MOV     DPL,?XSP + 0
        MOV     DPH,?XSP + 1
        MOVX    @DPTR,A
// 1023             ZMacSetReq( ZMacRxOnIdle, &tmp ); // Set receiver always on during rejoin
        ; Setup parameters for call to function ZMacSetReq
        MOV     R2,DPL
        MOV     R3,DPH
        MOV     R1,#0x52
        LCALL   ??ZMacSetReq?relay
// 1024             if ( NLME_ReJoinRequest( ZDO_UseExtendedPANID, ((ZDO_NetworkDiscoveryCfm_t *)msgPtr)->logicalChannel) != ZSuccess )
        ; Setup parameters for call to function NLME_ReJoinRequest
        MOV     DPL,R6
        MOV     DPH,R7
        INC     DPTR
        INC     DPTR
        INC     DPTR
        INC     DPTR
        MOVX    A,@DPTR
        MOV     R1,A
        MOV     R2,#(ZDO_UseExtendedPANID & 0xff)
        MOV     R3,#((ZDO_UseExtendedPANID >> 8) & 0xff)
        LCALL   ??NLME_ReJoinRequest?relay
??ZDApp_ProcessOSALMsg_11:
        MOV     A,R1
        JZ      ??ZDApp_ProcessOSALMsg_12
// 1025             {
// 1026               ZDApp_NetworkInit( (uint16)(NWK_START_DELAY
// 1027                   + ((uint16)(osal_rand()& EXTENDED_JOINING_RANDOM_MASK))) );
        ; Setup parameters for call to function ZDApp_NetworkInit
        ; Setup parameters for call to function osal_rand
        LCALL   ??osal_rand?relay
        MOV     ?V0 + 0,R2
        MOV     A,#0x7f
        ANL     A,?V0 + 0
        MOV     R0,A
        MOV     A,#0x64
        ADD     A,R0
        MOV     R2,A
        MOV     R3,#0x0
        LCALL   ??ZDApp_NetworkInit?relay
// 1028             }
// 1029           }
// 1030 
// 1031           if ( ZDO_Config_Node_Descriptor.CapabilityFlags & CAPINFO_RCVR_ON_IDLE )
??ZDApp_ProcessOSALMsg_12:
        MOV     DPTR,#(ZDO_Config_Node_Descriptor + 2)
        MOVX    A,@DPTR
        MOV     C,0xE0 /* A   */.3
        JNC     ??ZDApp_ProcessOSALMsg_6
// 1032           {
// 1033             // The receiver is on, turn network layer polling off.
// 1034             NLME_SetPollRate( 0 );
        ; Setup parameters for call to function NLME_SetPollRate
        MOV     R2,#0x0
        MOV     R3,#0x0
        LCALL   ??NLME_SetPollRate?relay
// 1035             NLME_SetQueuedPollRate( 0 );
        ; Setup parameters for call to function NLME_SetQueuedPollRate
        MOV     R2,#0x0
        MOV     R3,#0x0
        LCALL   ??NLME_SetQueuedPollRate?relay
// 1036             NLME_SetResponseRate( 0 );
        ; Setup parameters for call to function NLME_SetResponseRate
        MOV     R2,#0x0
        MOV     R3,#0x0
        LCALL   ??NLME_SetResponseRate?relay
        SJMP    ??ZDApp_ProcessOSALMsg_6
// 1037           }
// 1038           else
// 1039           {
// 1040             if ( (ZG_SECURE_ENABLED) && (devStartMode == MODE_JOIN) )
// 1041             {
// 1042               ZDApp_SavedPollRate = zgPollRate;
// 1043               NLME_SetPollRate( zgRejoinPollRate );
// 1044             }
// 1045           }
// 1046         }
// 1047         else
// 1048         {
// 1049           if ( continueJoining )
??ZDApp_ProcessOSALMsg_9:
        MOV     DPTR,#continueJoining
        MOVX    A,@DPTR
        JZ      ??ZDApp_ProcessOSALMsg_6
// 1050           {
// 1051     #if defined ( MANAGED_SCAN )
// 1052             ZDApp_NetworkInit( MANAGEDSCAN_DELAY_BETWEEN_SCANS );
// 1053     #else
// 1054             zdoDiscCounter++;
        MOV     DPTR,#zdoDiscCounter
        MOVX    A,@DPTR
        INC     A
        MOVX    @DPTR,A
// 1055             ZDApp_NetworkInit( (uint16)(BEACON_REQUEST_DELAY
// 1056                   + ((uint16)(osal_rand()& BEACON_REQ_DELAY_MASK))) );
        ; Setup parameters for call to function ZDApp_NetworkInit
        ; Setup parameters for call to function osal_rand
        LCALL   ??osal_rand?relay
        MOV     ?V0 + 0,R2
        MOV     A,#-0x1
        ANL     A,?V0 + 0
        MOV     R0,A
        MOV     A,#0x64
        ADD     A,R0
        MOV     R2,A
        CLR     A
        ADDC    A,#0x0
        MOV     R3,A
        SJMP    ??ZDApp_ProcessOSALMsg_17
// 1057     #endif
// 1058           }
// 1059         }
// 1060       }
// 1061       break;
// 1062 
// 1063     case ZDO_NWK_JOIN_IND:
// 1064       if ( ZG_BUILD_JOINING_TYPE && ZG_DEVICE_JOINING_TYPE )
??ZDApp_ProcessOSALMsg_1:
        MOV     DPTR,#zgDeviceLogicalType
        MOVX    A,@DPTR
        XRL     A,#0x1
        JZ      ??ZDApp_ProcessOSALMsg_18
        MOVX    A,@DPTR
        XRL     A,#0x2
        JNZ     ??ZDApp_ProcessOSALMsg_6
// 1065       {
// 1066         ZDApp_ProcessNetworkJoin();
??ZDApp_ProcessOSALMsg_18:
        ; Setup parameters for call to function ZDApp_ProcessNetworkJoin
        LCALL   ??ZDApp_ProcessNetworkJoin?relay
        SJMP    ??ZDApp_ProcessOSALMsg_6
// 1067       }
// 1068       break;
// 1069 
// 1070     case ZDO_NWK_JOIN_REQ:
// 1071       if ( ZG_BUILD_JOINING_TYPE && ZG_DEVICE_JOINING_TYPE )
??ZDApp_ProcessOSALMsg_2:
        MOV     DPTR,#zgDeviceLogicalType
        MOVX    A,@DPTR
        XRL     A,#0x1
        JZ      ??ZDApp_ProcessOSALMsg_19
        MOVX    A,@DPTR
        XRL     A,#0x2
        JNZ     ??ZDApp_ProcessOSALMsg_6
// 1072       {
// 1073         retryCnt = 0;
??ZDApp_ProcessOSALMsg_19:
        CLR     A
        MOV     DPTR,#retryCnt
        MOVX    @DPTR,A
// 1074         devStartMode = MODE_RESUME;
        MOV     A,#0x1
        MOV     DPTR,#devStartMode
        MOVX    @DPTR,A
// 1075         _tmpRejoinState = true;
        MOV     DPTR,#_tmpRejoinState
        MOVX    @DPTR,A
// 1076         osal_cpyExtAddr( ZDO_UseExtendedPANID, _NIB.extendedPANID );
        ; Setup parameters for call to function sAddrExtCpy
        MOV     R4,#((_NIB + 53) & 0xff)
        MOV     R5,#(((_NIB + 53) >> 8) & 0xff)
        MOV     R2,#(ZDO_UseExtendedPANID & 0xff)
        MOV     R3,#((ZDO_UseExtendedPANID >> 8) & 0xff)
        LCALL   ??sAddrExtCpy?relay
// 1077         zgDefaultStartingScanDuration = BEACON_ORDER_60_MSEC;
        MOV     A,#0x2
        MOV     DPTR,#zgDefaultStartingScanDuration
        MOVX    @DPTR,A
// 1078         ZDApp_NetworkInit( 0 );
        ; Setup parameters for call to function ZDApp_NetworkInit
        MOV     R2,#0x0
        MOV     R3,#0x0
??ZDApp_ProcessOSALMsg_17:
        LCALL   ??ZDApp_NetworkInit?relay
// 1079       }
// 1080       break;
// 1081 
// 1082     default:
// 1083       if ( ZG_SECURE_ENABLED )
// 1084         ZDApp_ProcessSecMsg( msgPtr );
// 1085       break;
// 1086   }
// 1087 
// 1088 }
??ZDApp_ProcessOSALMsg_6:
        MOV     A,#0x1
        LCALL   ?DEALLOC_XSTACK8
        CFI CFA_XSP16 add(XSP16, 10)
        MOV     R7,#0x2
        LJMP    ?BANKED_LEAVE_XDATA
        CFI EndBlock cfiBlock13
// 1089 
// 1090 /*********************************************************************
// 1091  * @fn      ZDApp_ProcessMsgCBs()
// 1092  *
// 1093  * @brief   Process response messages
// 1094  *
// 1095  * @param   none
// 1096  *
// 1097  * @return  none
// 1098  */

        RSEG BANKED_CODE:CODE:NOROOT(0)
// 1099 void ZDApp_ProcessMsgCBs( zdoIncomingMsg_t *inMsg )
ZDApp_ProcessMsgCBs:
        CFI Block cfiBlock14 Using cfiCommon0
        CFI Function ZDApp_ProcessMsgCBs
// 1100 {
        FUNCALL ZDApp_ProcessMsgCBs, ZDO_ParseAddrRsp
        LOCFRAME ISTACK, 0, STACK
        LOCFRAME PSTACK, 0, STACK
        LOCFRAME XSTACK, 31, STACK
        LOCFRAME IOVERLAY, 0, STATIC
        LOCFRAME DOVERLAY, 0, STATIC
        ARGFRAME ISTACK, 0, STACK
        ARGFRAME PSTACK, 0, STACK
        ARGFRAME XSTACK, 31, STACK
        ARGFRAME IOVERLAY, 0, STATIC
        ARGFRAME DOVERLAY, 0, STATIC
        FUNCALL ZDApp_ProcessMsgCBs, ZDO_UpdateAddrManager
        LOCFRAME ISTACK, 0, STACK
        LOCFRAME PSTACK, 0, STACK
        LOCFRAME XSTACK, 31, STACK
        LOCFRAME IOVERLAY, 0, STATIC
        LOCFRAME DOVERLAY, 0, STATIC
        ARGFRAME ISTACK, 0, STACK
        ARGFRAME PSTACK, 0, STACK
        ARGFRAME XSTACK, 31, STACK
        ARGFRAME IOVERLAY, 0, STATIC
        ARGFRAME DOVERLAY, 0, STATIC
        FUNCALL ZDApp_ProcessMsgCBs, osal_mem_free
        LOCFRAME ISTACK, 0, STACK
        LOCFRAME PSTACK, 0, STACK
        LOCFRAME XSTACK, 31, STACK
        LOCFRAME IOVERLAY, 0, STATIC
        LOCFRAME DOVERLAY, 0, STATIC
        ARGFRAME ISTACK, 0, STACK
        ARGFRAME PSTACK, 0, STACK
        ARGFRAME XSTACK, 31, STACK
        ARGFRAME IOVERLAY, 0, STATIC
        ARGFRAME DOVERLAY, 0, STATIC
        FUNCALL ZDApp_ProcessMsgCBs, ZDO_ParseBindUnbindReq
        LOCFRAME ISTACK, 0, STACK
        LOCFRAME PSTACK, 0, STACK
        LOCFRAME XSTACK, 31, STACK
        LOCFRAME IOVERLAY, 0, STATIC
        LOCFRAME DOVERLAY, 0, STATIC
        ARGFRAME ISTACK, 0, STACK
        ARGFRAME PSTACK, 0, STACK
        ARGFRAME XSTACK, 31, STACK
        ARGFRAME IOVERLAY, 0, STATIC
        ARGFRAME DOVERLAY, 0, STATIC
        FUNCALL ZDApp_ProcessMsgCBs, ZDO_ProcessBindUnbindReq
        LOCFRAME ISTACK, 0, STACK
        LOCFRAME PSTACK, 0, STACK
        LOCFRAME XSTACK, 31, STACK
        LOCFRAME IOVERLAY, 0, STATIC
        LOCFRAME DOVERLAY, 0, STATIC
        ARGFRAME ISTACK, 0, STACK
        ARGFRAME PSTACK, 0, STACK
        ARGFRAME XSTACK, 31, STACK
        ARGFRAME IOVERLAY, 0, STATIC
        ARGFRAME DOVERLAY, 0, STATIC
        MOV     A,#-0xa
        LCALL   ?BANKED_ENTER_XDATA
        CFI DPH0 load(1, XDATA, add(CFA_XSP16, literal(-1)))
        CFI DPL0 load(1, XDATA, add(CFA_XSP16, literal(-2)))
        CFI ?BRET_EXT load(1, XDATA, add(CFA_XSP16, literal(-3)))
        CFI ?RET_HIGH load(1, XDATA, add(CFA_XSP16, literal(-4)))
        CFI ?RET_LOW load(1, XDATA, add(CFA_XSP16, literal(-5)))
        CFI R7 load(1, XDATA, add(CFA_XSP16, literal(-6)))
        CFI V1 load(1, XDATA, add(CFA_XSP16, literal(-7)))
        CFI V0 load(1, XDATA, add(CFA_XSP16, literal(-8)))
        CFI VB load(1, XDATA, add(CFA_XSP16, literal(-9)))
        CFI R6 load(1, XDATA, add(CFA_XSP16, literal(-10)))
        CFI CFA_SP SP+0
        CFI CFA_XSP16 add(XSP16, 10)
        ; Saved register size: 10
        ; Auto size: 21
        MOV     A,#-0x15
        LCALL   ?ALLOC_XSTACK8
        CFI CFA_XSP16 add(XSP16, 31)
        MOV     A,R2
        MOV     R6,A
        MOV     A,R3
        MOV     R7,A
// 1101   switch ( inMsg->clusterID )
        MOV     A,R6
        ADD     A,#0xc
        MOV     DPL,A
        MOV     A,R7
        ADDC    A,#0x0
        MOV     DPH,A
        MOVX    A,@DPTR
        MOV     ?V0 + 0,A
        INC     DPTR
        MOVX    A,@DPTR
        MOV     ?V0 + 1,A
        MOV     R0,#?V0 + 0
        LCALL   ?US_SWITCH_SPARSE
`?<Jumptable for ZDApp_ProcessMsgCBs>_0`:
        DATA
        DW        2
        DW        33
        DW        34
        DW        ??ZDApp_ProcessMsgCBs_0
        DW        32768
        DW        32769
        DW        ??ZDApp_ProcessMsgCBs_1
        DW        0
        DW        ??ZDApp_ProcessMsgCBs_2
        CODE
// 1102   {
// 1103 #if defined ( ZDO_NWKADDR_REQUEST ) || defined ( ZDO_IEEEADDR_REQUEST ) || defined ( REFLECTOR )
// 1104     case NWK_addr_rsp:
// 1105     case IEEE_addr_rsp:
// 1106       {
// 1107         ZDO_NwkIEEEAddrResp_t *pAddrRsp;
// 1108         pAddrRsp = ZDO_ParseAddrRsp( inMsg );
??ZDApp_ProcessMsgCBs_1:
        ; Setup parameters for call to function ZDO_ParseAddrRsp
        LCALL   ??ZDO_ParseAddrRsp?relay
        MOV     ?V0 + 0,R2
        MOV     ?V0 + 1,R3
        MOV     R6,?V0 + 0
        MOV     R7,?V0 + 1
// 1109         if ( pAddrRsp )
        MOV     A,R6
        JNZ     ??ZDApp_ProcessMsgCBs_3
        MOV     A,R7
??ZDApp_ProcessMsgCBs_3:
        JZ      ??ZDApp_ProcessMsgCBs_2
// 1110         {
// 1111           if ( pAddrRsp->status == ZSuccess )
        MOV     DPL,R6
        MOV     DPH,R7
        MOVX    A,@DPTR
        JNZ     ??ZDApp_ProcessMsgCBs_4
// 1112           {
// 1113             ZDO_UpdateAddrManager( pAddrRsp->nwkAddr, pAddrRsp->extAddr );
        ; Setup parameters for call to function ZDO_UpdateAddrManager
        MOV     A,R6
        ADD     A,#0x3
        MOV     R4,A
        MOV     A,R7
        ADDC    A,#0x0
        MOV     R5,A
        INC     DPTR
        MOVX    A,@DPTR
        MOV     R2,A
        INC     DPTR
        MOVX    A,@DPTR
        MOV     R3,A
        LCALL   ??ZDO_UpdateAddrManager?relay
// 1114           }
// 1115           osal_mem_free( pAddrRsp );
??ZDApp_ProcessMsgCBs_4:
        ; Setup parameters for call to function osal_mem_free
        MOV     A,R6
        MOV     R2,A
        MOV     A,R7
        MOV     R3,A
        LCALL   ??osal_mem_free?relay
        SJMP    ??ZDApp_ProcessMsgCBs_2
// 1116         }
// 1117       }
// 1118       break;
// 1119 #endif
// 1120 
// 1121 #if defined ( REFLECTOR )
// 1122     case Bind_req:
// 1123     case Unbind_req:
// 1124       {
// 1125         ZDO_BindUnbindReq_t bindReq;
// 1126         ZDO_ParseBindUnbindReq( inMsg, &bindReq );
??ZDApp_ProcessMsgCBs_0:
        ; Setup parameters for call to function ZDO_ParseBindUnbindReq
        MOV     DPL,?XSP + 0
        MOV     DPH,?XSP + 1
        MOV     R4,DPL
        MOV     R5,DPH
        LCALL   ??ZDO_ParseBindUnbindReq?relay
// 1127         ZDO_ProcessBindUnbindReq( inMsg, &bindReq );
        ; Setup parameters for call to function ZDO_ProcessBindUnbindReq
        MOV     DPL,?XSP + 0
        MOV     DPH,?XSP + 1
        MOV     R4,DPL
        MOV     R5,DPH
        MOV     A,R6
        MOV     R2,A
        MOV     A,R7
        MOV     R3,A
        LCALL   ??ZDO_ProcessBindUnbindReq?relay
// 1128       }
// 1129       break;
// 1130 #endif
// 1131 
// 1132 #if defined ( ZDO_COORDINATOR )
// 1133     case Bind_rsp:
// 1134     case Unbind_rsp:
// 1135       if ( matchED )
// 1136       {
// 1137         ZDMatchSendState(
// 1138              (uint8)((inMsg->clusterID == Bind_rsp) ? ZDMATCH_REASON_BIND_RSP : ZDMATCH_REASON_UNBIND_RSP),
// 1139              ZDO_ParseBindRsp(inMsg), inMsg->TransSeq );
// 1140       }
// 1141       break;
// 1142 
// 1143     case End_Device_Bind_req:
// 1144       {
// 1145         ZDEndDeviceBind_t bindReq;
// 1146         ZDO_ParseEndDeviceBindReq( inMsg, &bindReq );
// 1147         ZDO_MatchEndDeviceBind( &bindReq );
// 1148 
// 1149         // Freeing the cluster lists - if allocated.
// 1150         if ( bindReq.numInClusters )
// 1151           osal_mem_free( bindReq.inClusters );
// 1152         if ( bindReq.numOutClusters )
// 1153           osal_mem_free( bindReq.outClusters );
// 1154       }
// 1155       break;
// 1156 #endif
// 1157   }
// 1158 }
??ZDApp_ProcessMsgCBs_2:
        MOV     A,#0x15
        LCALL   ?DEALLOC_XSTACK8
        CFI CFA_XSP16 add(XSP16, 10)
        MOV     R7,#0x2
        LJMP    ?BANKED_LEAVE_XDATA
        CFI EndBlock cfiBlock14
// 1159 
// 1160 /*********************************************************************
// 1161  * @fn      ZDApp_RegisterCBs()
// 1162  *
// 1163  * @brief   Process response messages
// 1164  *
// 1165  * @param   none
// 1166  *
// 1167  * @return  none
// 1168  */

        RSEG BANKED_CODE:CODE:NOROOT(0)
// 1169 void ZDApp_RegisterCBs( void )
ZDApp_RegisterCBs:
        CFI Block cfiBlock15 Using cfiCommon0
        CFI Function ZDApp_RegisterCBs
// 1170 {
        FUNCALL ZDApp_RegisterCBs, ZDO_RegisterForZDOMsg
        LOCFRAME ISTACK, 2, STACK
        LOCFRAME PSTACK, 0, STACK
        LOCFRAME XSTACK, 0, STACK
        LOCFRAME IOVERLAY, 0, STATIC
        LOCFRAME DOVERLAY, 0, STATIC
        ARGFRAME ISTACK, 2, STACK
        ARGFRAME PSTACK, 0, STACK
        ARGFRAME XSTACK, 0, STACK
        ARGFRAME IOVERLAY, 0, STATIC
        ARGFRAME DOVERLAY, 0, STATIC
        FUNCALL ZDApp_RegisterCBs, ZDO_RegisterForZDOMsg
        LOCFRAME ISTACK, 2, STACK
        LOCFRAME PSTACK, 0, STACK
        LOCFRAME XSTACK, 0, STACK
        LOCFRAME IOVERLAY, 0, STATIC
        LOCFRAME DOVERLAY, 0, STATIC
        ARGFRAME ISTACK, 2, STACK
        ARGFRAME PSTACK, 0, STACK
        ARGFRAME XSTACK, 0, STACK
        ARGFRAME IOVERLAY, 0, STATIC
        ARGFRAME DOVERLAY, 0, STATIC
        FUNCALL ZDApp_RegisterCBs, ZDO_RegisterForZDOMsg
        LOCFRAME ISTACK, 2, STACK
        LOCFRAME PSTACK, 0, STACK
        LOCFRAME XSTACK, 0, STACK
        LOCFRAME IOVERLAY, 0, STATIC
        LOCFRAME DOVERLAY, 0, STATIC
        ARGFRAME ISTACK, 2, STACK
        ARGFRAME PSTACK, 0, STACK
        ARGFRAME XSTACK, 0, STACK
        ARGFRAME IOVERLAY, 0, STATIC
        ARGFRAME DOVERLAY, 0, STATIC
        FUNCALL ZDApp_RegisterCBs, ZDO_RegisterForZDOMsg
        LOCFRAME ISTACK, 2, STACK
        LOCFRAME PSTACK, 0, STACK
        LOCFRAME XSTACK, 0, STACK
        LOCFRAME IOVERLAY, 0, STATIC
        LOCFRAME DOVERLAY, 0, STATIC
        ARGFRAME ISTACK, 2, STACK
        ARGFRAME PSTACK, 0, STACK
        ARGFRAME XSTACK, 0, STACK
        ARGFRAME IOVERLAY, 0, STATIC
        ARGFRAME DOVERLAY, 0, STATIC
        PUSH    DPL
        CFI DPL0 Frame(CFA_SP, 4)
        CFI CFA_SP SP+-4
        PUSH    DPH
        CFI DPH0 Frame(CFA_SP, 5)
        CFI CFA_SP SP+-5
        ; Saved register size: 2
        ; Auto size: 0
// 1171 #if defined ( ZDO_IEEEADDR_REQUEST ) || defined ( REFLECTOR )
// 1172   ZDO_RegisterForZDOMsg( ZDAppTaskID, IEEE_addr_rsp );
        ; Setup parameters for call to function ZDO_RegisterForZDOMsg
        MOV     R2,#0x1
        MOV     R3,#-0x80
        MOV     DPTR,#ZDAppTaskID
        MOVX    A,@DPTR
        MOV     R1,A
        LCALL   ??ZDO_RegisterForZDOMsg?relay
// 1173 #endif
// 1174 #if defined ( ZDO_NWKADDR_REQUEST ) || defined ( REFLECTOR )
// 1175   ZDO_RegisterForZDOMsg( ZDAppTaskID, NWK_addr_rsp );
        ; Setup parameters for call to function ZDO_RegisterForZDOMsg
        MOV     R2,#0x0
        MOV     R3,#-0x80
        MOV     DPTR,#ZDAppTaskID
        MOVX    A,@DPTR
        MOV     R1,A
        LCALL   ??ZDO_RegisterForZDOMsg?relay
// 1176 #endif
// 1177 #if defined ( ZDO_COORDINATOR )
// 1178   ZDO_RegisterForZDOMsg( ZDAppTaskID, Bind_rsp );
// 1179   ZDO_RegisterForZDOMsg( ZDAppTaskID, Unbind_rsp );
// 1180   ZDO_RegisterForZDOMsg( ZDAppTaskID, End_Device_Bind_req );
// 1181 #endif
// 1182 #if defined ( REFLECTOR )
// 1183   ZDO_RegisterForZDOMsg( ZDAppTaskID, Bind_req );
        ; Setup parameters for call to function ZDO_RegisterForZDOMsg
        MOV     R2,#0x21
        MOV     R3,#0x0
        MOV     DPTR,#ZDAppTaskID
        MOVX    A,@DPTR
        MOV     R1,A
        LCALL   ??ZDO_RegisterForZDOMsg?relay
// 1184   ZDO_RegisterForZDOMsg( ZDAppTaskID, Unbind_req );
        ; Setup parameters for call to function ZDO_RegisterForZDOMsg
        MOV     R2,#0x22
        MOV     R3,#0x0
        MOV     DPTR,#ZDAppTaskID
        MOVX    A,@DPTR
        MOV     R1,A
        LCALL   ??ZDO_RegisterForZDOMsg?relay
// 1185 #endif
// 1186 }
        POP     DPH
        CFI DPH0 SameValue
        CFI CFA_SP SP+-4
        POP     DPL
        CFI DPL0 SameValue
        CFI CFA_SP SP+-3
        LJMP    ?BRET
        CFI EndBlock cfiBlock15
// 1187 
// 1188 /*********************************************************************
// 1189  * @fn      ZDApp_ProcessSecMsg()
// 1190  *
// 1191  * @brief   Process the incoming security message.
// 1192  *
// 1193  * @param   msgPtr - message to process
// 1194  *
// 1195  * @return  none
// 1196  */

        RSEG BANKED_CODE:CODE:NOROOT(0)
// 1197 void ZDApp_ProcessSecMsg( osal_event_hdr_t *msgPtr )
ZDApp_ProcessSecMsg:
        CFI Block cfiBlock16 Using cfiCommon0
        CFI Function ZDApp_ProcessSecMsg
// 1198 {
        FUNCALL ZDApp_ProcessSecMsg, ZDSecMgrTransportKeyInd
        LOCFRAME ISTACK, 2, STACK
        LOCFRAME PSTACK, 0, STACK
        LOCFRAME XSTACK, 0, STACK
        LOCFRAME IOVERLAY, 0, STATIC
        LOCFRAME DOVERLAY, 0, STATIC
        ARGFRAME ISTACK, 2, STACK
        ARGFRAME PSTACK, 0, STACK
        ARGFRAME XSTACK, 0, STACK
        ARGFRAME IOVERLAY, 0, STATIC
        ARGFRAME DOVERLAY, 0, STATIC
        FUNCALL ZDApp_ProcessSecMsg, ZDSecMgrRemoveDeviceInd
        LOCFRAME ISTACK, 2, STACK
        LOCFRAME PSTACK, 0, STACK
        LOCFRAME XSTACK, 0, STACK
        LOCFRAME IOVERLAY, 0, STATIC
        LOCFRAME DOVERLAY, 0, STATIC
        ARGFRAME ISTACK, 2, STACK
        ARGFRAME PSTACK, 0, STACK
        ARGFRAME XSTACK, 0, STACK
        ARGFRAME IOVERLAY, 0, STATIC
        ARGFRAME DOVERLAY, 0, STATIC
        FUNCALL ZDApp_ProcessSecMsg, ZDSecMgrSwitchKeyInd
        LOCFRAME ISTACK, 2, STACK
        LOCFRAME PSTACK, 0, STACK
        LOCFRAME XSTACK, 0, STACK
        LOCFRAME IOVERLAY, 0, STATIC
        LOCFRAME DOVERLAY, 0, STATIC
        ARGFRAME ISTACK, 2, STACK
        ARGFRAME PSTACK, 0, STACK
        ARGFRAME XSTACK, 0, STACK
        ARGFRAME IOVERLAY, 0, STATIC
        ARGFRAME DOVERLAY, 0, STATIC
        PUSH    DPL
        CFI DPL0 Frame(CFA_SP, 4)
        CFI CFA_SP SP+-4
        PUSH    DPH
        CFI DPH0 Frame(CFA_SP, 5)
        CFI CFA_SP SP+-5
        ; Saved register size: 2
        ; Auto size: 0
// 1199   switch ( msgPtr->event )
        MOV     DPL,R2
        MOV     DPH,R3
        MOVX    A,@DPTR
        LCALL   ?UC_SWITCH_SPARSE
`?<Jumptable for ZDApp_ProcessSecMsg>_0`:
        DATA
        DB        0
        DB        3
        DB        6
        DW        ??ZDApp_ProcessSecMsg_0
        DB        8
        DW        ??ZDApp_ProcessSecMsg_1
        DB        10
        DW        ??ZDApp_ProcessSecMsg_2
        DW        ??ZDApp_ProcessSecMsg_3
        CODE
// 1200   {
// 1201     case ZDO_ESTABLISH_KEY_CFM:
// 1202       if ( ZG_CHECK_SECURITY_MODE == ZG_SECURITY_PRO_HIGH )
// 1203       {
// 1204         ZDSecMgrEstablishKeyCfm( (ZDO_EstablishKeyCfm_t*)msgPtr );
// 1205       }
// 1206       break;
// 1207 
// 1208     case ZDO_ESTABLISH_KEY_IND:
// 1209       if ( ZG_CHECK_SECURITY_MODE == ZG_SECURITY_PRO_HIGH )
// 1210       {
// 1211         if ( ZG_BUILD_JOINING_TYPE && ZG_DEVICE_JOINING_TYPE )
// 1212         {
// 1213           ZDSecMgrEstablishKeyInd( (ZDO_EstablishKeyInd_t*)msgPtr );
// 1214         }
// 1215       }
// 1216       break;
// 1217 
// 1218     case ZDO_TRANSPORT_KEY_IND:
// 1219       if ( ZG_BUILD_JOINING_TYPE && ZG_DEVICE_JOINING_TYPE )
??ZDApp_ProcessSecMsg_0:
        MOV     DPTR,#zgDeviceLogicalType
        MOVX    A,@DPTR
        XRL     A,#0x1
        JZ      ??ZDApp_ProcessSecMsg_4
        MOVX    A,@DPTR
        XRL     A,#0x2
        JNZ     ??ZDApp_ProcessSecMsg_3
// 1220       {
// 1221         ZDSecMgrTransportKeyInd( (ZDO_TransportKeyInd_t*)msgPtr );
??ZDApp_ProcessSecMsg_4:
        ; Setup parameters for call to function ZDSecMgrTransportKeyInd
        LCALL   ??ZDSecMgrTransportKeyInd?relay
        SJMP    ??ZDApp_ProcessSecMsg_3
// 1222       }
// 1223       break;
// 1224 
// 1225     case ZDO_UPDATE_DEVICE_IND:
// 1226       if ( ZG_BUILD_COORDINATOR_TYPE && ZG_DEVICE_COORDINATOR_TYPE )
// 1227       {
// 1228         ZDSecMgrUpdateDeviceInd( (ZDO_UpdateDeviceInd_t*)msgPtr );
// 1229       }
// 1230       break;
// 1231 
// 1232     case ZDO_REMOVE_DEVICE_IND:
// 1233       if ( ZG_BUILD_RTRONLY_TYPE && ( zgDeviceLogicalType == ZG_DEVICETYPE_ROUTER ) )
??ZDApp_ProcessSecMsg_1:
        MOV     DPTR,#zgDeviceLogicalType
        MOVX    A,@DPTR
        XRL     A,#0x1
        JNZ     ??ZDApp_ProcessSecMsg_3
// 1234       {
// 1235         ZDSecMgrRemoveDeviceInd( (ZDO_RemoveDeviceInd_t*)msgPtr );
        ; Setup parameters for call to function ZDSecMgrRemoveDeviceInd
        LCALL   ??ZDSecMgrRemoveDeviceInd?relay
        SJMP    ??ZDApp_ProcessSecMsg_3
// 1236       }
// 1237       break;
// 1238 
// 1239     case ZDO_REQUEST_KEY_IND:
// 1240       if ( ZG_CHECK_SECURITY_MODE == ZG_SECURITY_PRO_HIGH )
// 1241       {
// 1242         if ( ZG_BUILD_COORDINATOR_TYPE && ZG_DEVICE_COORDINATOR_TYPE )
// 1243         {
// 1244           ZDSecMgrRequestKeyInd( (ZDO_RequestKeyInd_t*)msgPtr );
// 1245         }
// 1246       }
// 1247       break;
// 1248 
// 1249     case ZDO_SWITCH_KEY_IND:
// 1250       if ( ZG_BUILD_JOINING_TYPE && ZG_DEVICE_JOINING_TYPE )
??ZDApp_ProcessSecMsg_2:
        MOV     DPTR,#zgDeviceLogicalType
        MOVX    A,@DPTR
        XRL     A,#0x1
        JZ      ??ZDApp_ProcessSecMsg_5
        MOVX    A,@DPTR
        XRL     A,#0x2
        JNZ     ??ZDApp_ProcessSecMsg_3
// 1251       {
// 1252         ZDSecMgrSwitchKeyInd( (ZDO_SwitchKeyInd_t*)msgPtr );
??ZDApp_ProcessSecMsg_5:
        ; Setup parameters for call to function ZDSecMgrSwitchKeyInd
        LCALL   ??ZDSecMgrSwitchKeyInd?relay
// 1253       }
// 1254       break;
// 1255 
// 1256     case ZDO_AUTHENTICATE_IND:
// 1257       if ( ZG_CHECK_SECURITY_MODE == ZG_SECURITY_PRO_HIGH )
// 1258       {
// 1259         ZDSecMgrAuthenticateInd( (ZDO_AuthenticateInd_t*)msgPtr );
// 1260       }
// 1261       break;
// 1262 
// 1263     case ZDO_AUTHENTICATE_CFM:
// 1264       if ( ZG_CHECK_SECURITY_MODE == ZG_SECURITY_PRO_HIGH )
// 1265       {
// 1266         ZDSecMgrAuthenticateCfm( (ZDO_AuthenticateCfm_t*)msgPtr );
// 1267       }
// 1268       break;
// 1269 
// 1270     default:
// 1271       // Unsupported messages
// 1272       break;
// 1273   }
// 1274 }
??ZDApp_ProcessSecMsg_3:
        POP     DPH
        CFI DPH0 SameValue
        CFI CFA_SP SP+-4
        POP     DPL
        CFI DPL0 SameValue
        CFI CFA_SP SP+-3
        LJMP    ?BRET
        CFI EndBlock cfiBlock16
// 1275 
// 1276 /*********************************************************************
// 1277  * @fn      ZDApp_ProcessNetworkJoin()
// 1278  *
// 1279  * @brief
// 1280  *
// 1281  *   Save off the Network key information.
// 1282  *
// 1283  * @param   none
// 1284  *
// 1285  * @return  none
// 1286  */

        RSEG BANKED_CODE:CODE:NOROOT(0)
// 1287 void ZDApp_ProcessNetworkJoin( void )
ZDApp_ProcessNetworkJoin:
        CFI Block cfiBlock17 Using cfiCommon0
        CFI Function ZDApp_ProcessNetworkJoin
// 1288 {
        FUNCALL ZDApp_ProcessNetworkJoin, osal_set_event
        LOCFRAME ISTACK, 0, STACK
        LOCFRAME PSTACK, 0, STACK
        LOCFRAME XSTACK, 12, STACK
        LOCFRAME IOVERLAY, 0, STATIC
        LOCFRAME DOVERLAY, 0, STATIC
        ARGFRAME ISTACK, 0, STACK
        ARGFRAME PSTACK, 0, STACK
        ARGFRAME XSTACK, 12, STACK
        ARGFRAME IOVERLAY, 0, STATIC
        ARGFRAME DOVERLAY, 0, STATIC
        FUNCALL ZDApp_ProcessNetworkJoin, ZDApp_AnnounceNewAddress
        LOCFRAME ISTACK, 0, STACK
        LOCFRAME PSTACK, 0, STACK
        LOCFRAME XSTACK, 12, STACK
        LOCFRAME IOVERLAY, 0, STATIC
        LOCFRAME DOVERLAY, 0, STATIC
        ARGFRAME ISTACK, 0, STACK
        ARGFRAME PSTACK, 0, STACK
        ARGFRAME XSTACK, 12, STACK
        ARGFRAME IOVERLAY, 0, STATIC
        ARGFRAME DOVERLAY, 0, STATIC
        FUNCALL ZDApp_ProcessNetworkJoin, NLME_StartRouterRequest
        LOCFRAME ISTACK, 0, STACK
        LOCFRAME PSTACK, 0, STACK
        LOCFRAME XSTACK, 12, STACK
        LOCFRAME IOVERLAY, 0, STATIC
        LOCFRAME DOVERLAY, 0, STATIC
        ARGFRAME ISTACK, 0, STACK
        ARGFRAME PSTACK, 0, STACK
        ARGFRAME XSTACK, 12, STACK
        ARGFRAME IOVERLAY, 0, STATIC
        ARGFRAME DOVERLAY, 0, STATIC
        FUNCALL ZDApp_ProcessNetworkJoin, NLME_GetShortAddr
        LOCFRAME ISTACK, 0, STACK
        LOCFRAME PSTACK, 0, STACK
        LOCFRAME XSTACK, 12, STACK
        LOCFRAME IOVERLAY, 0, STATIC
        LOCFRAME DOVERLAY, 0, STATIC
        ARGFRAME ISTACK, 0, STACK
        ARGFRAME PSTACK, 0, STACK
        ARGFRAME XSTACK, 12, STACK
        ARGFRAME IOVERLAY, 0, STATIC
        ARGFRAME DOVERLAY, 0, STATIC
        FUNCALL ZDApp_ProcessNetworkJoin, ZMacSetReq
        LOCFRAME ISTACK, 0, STACK
        LOCFRAME PSTACK, 0, STACK
        LOCFRAME XSTACK, 12, STACK
        LOCFRAME IOVERLAY, 0, STATIC
        LOCFRAME DOVERLAY, 0, STATIC
        ARGFRAME ISTACK, 0, STACK
        ARGFRAME PSTACK, 0, STACK
        ARGFRAME XSTACK, 12, STACK
        ARGFRAME IOVERLAY, 0, STATIC
        ARGFRAME DOVERLAY, 0, STATIC
        FUNCALL ZDApp_ProcessNetworkJoin, osal_rand
        LOCFRAME ISTACK, 0, STACK
        LOCFRAME PSTACK, 0, STACK
        LOCFRAME XSTACK, 12, STACK
        LOCFRAME IOVERLAY, 0, STATIC
        LOCFRAME DOVERLAY, 0, STATIC
        ARGFRAME ISTACK, 0, STACK
        ARGFRAME PSTACK, 0, STACK
        ARGFRAME XSTACK, 12, STACK
        ARGFRAME IOVERLAY, 0, STATIC
        ARGFRAME DOVERLAY, 0, STATIC
        FUNCALL ZDApp_ProcessNetworkJoin, ZDApp_NetworkInit
        LOCFRAME ISTACK, 0, STACK
        LOCFRAME PSTACK, 0, STACK
        LOCFRAME XSTACK, 12, STACK
        LOCFRAME IOVERLAY, 0, STATIC
        LOCFRAME DOVERLAY, 0, STATIC
        ARGFRAME ISTACK, 0, STACK
        ARGFRAME PSTACK, 0, STACK
        ARGFRAME XSTACK, 12, STACK
        ARGFRAME IOVERLAY, 0, STATIC
        ARGFRAME DOVERLAY, 0, STATIC
        FUNCALL ZDApp_ProcessNetworkJoin, osal_set_event
        LOCFRAME ISTACK, 0, STACK
        LOCFRAME PSTACK, 0, STACK
        LOCFRAME XSTACK, 12, STACK
        LOCFRAME IOVERLAY, 0, STATIC
        LOCFRAME DOVERLAY, 0, STATIC
        ARGFRAME ISTACK, 0, STACK
        ARGFRAME PSTACK, 0, STACK
        ARGFRAME XSTACK, 12, STACK
        ARGFRAME IOVERLAY, 0, STATIC
        ARGFRAME DOVERLAY, 0, STATIC
        FUNCALL ZDApp_ProcessNetworkJoin, NLME_SetPollRate
        LOCFRAME ISTACK, 0, STACK
        LOCFRAME PSTACK, 0, STACK
        LOCFRAME XSTACK, 12, STACK
        LOCFRAME IOVERLAY, 0, STATIC
        LOCFRAME DOVERLAY, 0, STATIC
        ARGFRAME ISTACK, 0, STACK
        ARGFRAME PSTACK, 0, STACK
        ARGFRAME XSTACK, 12, STACK
        ARGFRAME IOVERLAY, 0, STATIC
        ARGFRAME DOVERLAY, 0, STATIC
        FUNCALL ZDApp_ProcessNetworkJoin, NLME_SetQueuedPollRate
        LOCFRAME ISTACK, 0, STACK
        LOCFRAME PSTACK, 0, STACK
        LOCFRAME XSTACK, 12, STACK
        LOCFRAME IOVERLAY, 0, STATIC
        LOCFRAME DOVERLAY, 0, STATIC
        ARGFRAME ISTACK, 0, STACK
        ARGFRAME PSTACK, 0, STACK
        ARGFRAME XSTACK, 12, STACK
        ARGFRAME IOVERLAY, 0, STATIC
        ARGFRAME DOVERLAY, 0, STATIC
        FUNCALL ZDApp_ProcessNetworkJoin, NLME_SetResponseRate
        LOCFRAME ISTACK, 0, STACK
        LOCFRAME PSTACK, 0, STACK
        LOCFRAME XSTACK, 12, STACK
        LOCFRAME IOVERLAY, 0, STATIC
        LOCFRAME DOVERLAY, 0, STATIC
        ARGFRAME ISTACK, 0, STACK
        ARGFRAME PSTACK, 0, STACK
        ARGFRAME XSTACK, 12, STACK
        ARGFRAME IOVERLAY, 0, STATIC
        ARGFRAME DOVERLAY, 0, STATIC
        FUNCALL ZDApp_ProcessNetworkJoin, NLME_StartRouterRequest
        LOCFRAME ISTACK, 0, STACK
        LOCFRAME PSTACK, 0, STACK
        LOCFRAME XSTACK, 12, STACK
        LOCFRAME IOVERLAY, 0, STATIC
        LOCFRAME DOVERLAY, 0, STATIC
        ARGFRAME ISTACK, 0, STACK
        ARGFRAME PSTACK, 0, STACK
        ARGFRAME XSTACK, 12, STACK
        ARGFRAME IOVERLAY, 0, STATIC
        ARGFRAME DOVERLAY, 0, STATIC
        FUNCALL ZDApp_ProcessNetworkJoin, ZDApp_AnnounceNewAddress
        LOCFRAME ISTACK, 0, STACK
        LOCFRAME PSTACK, 0, STACK
        LOCFRAME XSTACK, 12, STACK
        LOCFRAME IOVERLAY, 0, STATIC
        LOCFRAME DOVERLAY, 0, STATIC
        ARGFRAME ISTACK, 0, STACK
        ARGFRAME PSTACK, 0, STACK
        ARGFRAME XSTACK, 12, STACK
        ARGFRAME IOVERLAY, 0, STATIC
        ARGFRAME DOVERLAY, 0, STATIC
        FUNCALL ZDApp_ProcessNetworkJoin, osal_rand
        LOCFRAME ISTACK, 0, STACK
        LOCFRAME PSTACK, 0, STACK
        LOCFRAME XSTACK, 12, STACK
        LOCFRAME IOVERLAY, 0, STATIC
        LOCFRAME DOVERLAY, 0, STATIC
        ARGFRAME ISTACK, 0, STACK
        ARGFRAME PSTACK, 0, STACK
        ARGFRAME XSTACK, 12, STACK
        ARGFRAME IOVERLAY, 0, STATIC
        ARGFRAME DOVERLAY, 0, STATIC
        FUNCALL ZDApp_ProcessNetworkJoin, ZDApp_NetworkInit
        LOCFRAME ISTACK, 0, STACK
        LOCFRAME PSTACK, 0, STACK
        LOCFRAME XSTACK, 12, STACK
        LOCFRAME IOVERLAY, 0, STATIC
        LOCFRAME DOVERLAY, 0, STATIC
        ARGFRAME ISTACK, 0, STACK
        ARGFRAME PSTACK, 0, STACK
        ARGFRAME XSTACK, 12, STACK
        ARGFRAME IOVERLAY, 0, STATIC
        ARGFRAME DOVERLAY, 0, STATIC
        MOV     A,#-0xa
        LCALL   ?BANKED_ENTER_XDATA
        CFI DPH0 load(1, XDATA, add(CFA_XSP16, literal(-1)))
        CFI DPL0 load(1, XDATA, add(CFA_XSP16, literal(-2)))
        CFI ?BRET_EXT load(1, XDATA, add(CFA_XSP16, literal(-3)))
        CFI ?RET_HIGH load(1, XDATA, add(CFA_XSP16, literal(-4)))
        CFI ?RET_LOW load(1, XDATA, add(CFA_XSP16, literal(-5)))
        CFI R7 load(1, XDATA, add(CFA_XSP16, literal(-6)))
        CFI V1 load(1, XDATA, add(CFA_XSP16, literal(-7)))
        CFI V0 load(1, XDATA, add(CFA_XSP16, literal(-8)))
        CFI VB load(1, XDATA, add(CFA_XSP16, literal(-9)))
        CFI R6 load(1, XDATA, add(CFA_XSP16, literal(-10)))
        CFI CFA_SP SP+0
        CFI CFA_XSP16 add(XSP16, 10)
        ; Saved register size: 10
        ; Auto size: 2
        MOV     A,#-0x2
        LCALL   ?ALLOC_XSTACK8
        CFI CFA_XSP16 add(XSP16, 12)
// 1289   if ( (devState == DEV_NWK_JOINING) ||
// 1290       ((devState == DEV_NWK_ORPHAN)  &&
// 1291        (ZDO_Config_Node_Descriptor.LogicalType == NODETYPE_ROUTER)) )
        MOV     DPTR,#devState
        MOVX    A,@DPTR
        XRL     A,#0x3
        JZ      ??ZDApp_ProcessNetworkJoin_0
        MOVX    A,@DPTR
        XRL     A,#0xa
        JZ      $+5
        LJMP    ??ZDApp_ProcessNetworkJoin_1 & 0xFFFF
        MOV     DPTR,#ZDO_Config_Node_Descriptor
        MOVX    A,@DPTR
        ANL     A,#0x7
        XRL     A,#0x1
        JZ      $+5
        LJMP    ??ZDApp_ProcessNetworkJoin_1 & 0xFFFF
// 1292   {
// 1293     // Result of a Join attempt by this device.
// 1294     if ( nwkStatus == ZSuccess )
??ZDApp_ProcessNetworkJoin_0:
        MOV     DPTR,#nwkStatus
        MOVX    A,@DPTR
        JNZ     ??ZDApp_ProcessNetworkJoin_2
// 1295     {
// 1296       osal_set_event( ZDAppTaskID, ZDO_STATE_CHANGE_EVT );
        ; Setup parameters for call to function osal_set_event
        MOV     R2,#0x10
        MOV     R3,#0x0
        MOV     DPTR,#ZDAppTaskID
        MOVX    A,@DPTR
        MOV     R1,A
        LCALL   ??osal_set_event?relay
// 1297 
// 1298 #if defined ( POWER_SAVING )
// 1299       osal_pwrmgr_device( PWRMGR_BATTERY );
// 1300 #endif
// 1301 
// 1302       if ( ZG_SECURE_ENABLED && ( ZDApp_RestoreNwkKey() == false ) )
// 1303       {
// 1304         // wait for auth from trust center!!
// 1305         devState = DEV_END_DEVICE_UNAUTH;
// 1306 
// 1307         // Start the reset timer for MAX UNAUTH time
// 1308         ZDApp_ResetTimerStart( 10000 );//MAX_DEVICE_UNAUTH_TIMEOUT );
// 1309       }
// 1310       else
// 1311       {
// 1312         if ( ZSTACK_ROUTER_BUILD )
// 1313         {
// 1314           if ( devState == DEV_NWK_ORPHAN
// 1315             && ZDO_Config_Node_Descriptor.LogicalType != NODETYPE_DEVICE )
        MOV     DPTR,#devState
        MOVX    A,@DPTR
        XRL     A,#0xa
        JNZ     ??ZDApp_ProcessNetworkJoin_3
        MOV     DPTR,#ZDO_Config_Node_Descriptor
        MOVX    A,@DPTR
        ANL     A,#0x7
        XRL     A,#0x2
        JZ      ??ZDApp_ProcessNetworkJoin_3
// 1316           {
// 1317             // Change NIB state to router for restore
// 1318             _NIB.nwkState = NWK_ROUTER;
        MOV     A,#0x8
        MOV     DPTR,#(_NIB + 35)
        MOVX    @DPTR,A
// 1319           }
// 1320         }
// 1321 
// 1322         if ( devState == DEV_NWK_JOINING )
??ZDApp_ProcessNetworkJoin_3:
        MOV     DPTR,#devState
        MOVX    A,@DPTR
        XRL     A,#0x3
        JNZ     ??ZDApp_ProcessNetworkJoin_4
// 1323         {
// 1324           ZDApp_AnnounceNewAddress();
        ; Setup parameters for call to function ZDApp_AnnounceNewAddress
        LCALL   ??ZDApp_AnnounceNewAddress?relay
// 1325         }
// 1326 
// 1327         devState = DEV_END_DEVICE;
??ZDApp_ProcessNetworkJoin_4:
        MOV     A,#0x6
        MOV     DPTR,#devState
        MOVX    @DPTR,A
// 1328         if ( ZSTACK_ROUTER_BUILD )
// 1329         {
// 1330           // NOTE: first two parameters are not used, see NLMEDE.h for details
// 1331           if ( ZDO_Config_Node_Descriptor.LogicalType != NODETYPE_DEVICE )
        MOV     DPTR,#ZDO_Config_Node_Descriptor
        MOVX    A,@DPTR
        ANL     A,#0x7
        XRL     A,#0x2
        JNZ     $+5
        LJMP    ??ZDApp_ProcessNetworkJoin_5 & 0xFFFF
// 1332           {
// 1333             NLME_StartRouterRequest( 0, 0, false );
        ; Setup parameters for call to function NLME_StartRouterRequest
        MOV     R3,#0x0
        MOV     R2,#0x0
        MOV     R1,#0x0
        LCALL   ??NLME_StartRouterRequest?relay
        LJMP    ??ZDApp_ProcessNetworkJoin_5 & 0xFFFF
// 1334           }
// 1335         }
// 1336       }
// 1337     }
// 1338     else
// 1339     {
// 1340       if ( (devStartMode == MODE_RESUME) && (++retryCnt >= MAX_RESUME_RETRY) )
??ZDApp_ProcessNetworkJoin_2:
        MOV     DPTR,#devStartMode
        MOVX    A,@DPTR
        XRL     A,#0x1
        JNZ     ??ZDApp_ProcessNetworkJoin_6
        MOV     DPTR,#retryCnt
        MOVX    A,@DPTR
        INC     A
        MOVX    @DPTR,A
        MOVX    A,@DPTR
        CLR     C
        SUBB    A,#0x3
        JC      ??ZDApp_ProcessNetworkJoin_6
// 1341       {
// 1342         if ( _NIB.nwkPanId == 0xFFFF || _NIB.nwkPanId == INVALID_PAN_ID )
        MOV     DPTR,#(_NIB + 33)
        MOVX    A,@DPTR
        MOV     R0,A
        INC     DPTR
        MOVX    A,@DPTR
        MOV     R1,A
        MOV     A,#-0x1
        XRL     A,R0
        JNZ     ??ZDApp_ProcessNetworkJoin_7
        MOV     A,#-0x1
        XRL     A,R1
??ZDApp_ProcessNetworkJoin_7:
        JZ      ??ZDApp_ProcessNetworkJoin_8
        MOV     A,#-0x2
        XRL     A,R0
        JNZ     ??ZDApp_ProcessNetworkJoin_9
        MOV     A,#-0x1
        XRL     A,R1
??ZDApp_ProcessNetworkJoin_9:
        JNZ     ??ZDApp_ProcessNetworkJoin_10
// 1343           devStartMode = MODE_JOIN;
??ZDApp_ProcessNetworkJoin_8:
        CLR     A
        MOV     DPTR,#devStartMode
        SJMP    ??ZDApp_ProcessNetworkJoin_11
// 1344         else
// 1345         {
// 1346           devStartMode = MODE_REJOIN;
??ZDApp_ProcessNetworkJoin_10:
        MOV     A,#0x3
        MOV     DPTR,#devStartMode
        MOVX    @DPTR,A
// 1347           _tmpRejoinState = true;
        MOV     A,#0x1
        MOV     DPTR,#_tmpRejoinState
??ZDApp_ProcessNetworkJoin_11:
        MOVX    @DPTR,A
// 1348         }
// 1349       }
// 1350 
// 1351       if ( (NLME_GetShortAddr() != INVALID_NODE_ADDR) ||
// 1352            (_NIB.nwkDevAddress != INVALID_NODE_ADDR) )
??ZDApp_ProcessNetworkJoin_6:
        ; Setup parameters for call to function NLME_GetShortAddr
        LCALL   ??NLME_GetShortAddr?relay
        MOV     ?V0 + 0,R2
        MOV     ?V0 + 1,R3
        MOV     A,#-0x2
        XRL     A,?V0 + 0
        JNZ     ??ZDApp_ProcessNetworkJoin_12
        MOV     A,#-0x1
        XRL     A,?V0 + 1
??ZDApp_ProcessNetworkJoin_12:
        JNZ     ??ZDApp_ProcessNetworkJoin_13
        MOV     DPTR,#(_NIB + 20)
        MOVX    A,@DPTR
        XRL     A,#0xfe
        JNZ     ??ZDApp_ProcessNetworkJoin_14
        INC     DPTR
        MOVX    A,@DPTR
        XRL     A,#0xff
??ZDApp_ProcessNetworkJoin_14:
        JZ      ??ZDApp_ProcessNetworkJoin_15
// 1353       {
// 1354         uint16 addr = INVALID_NODE_ADDR;
??ZDApp_ProcessNetworkJoin_13:
        MOV     DPL,?XSP + 0
        MOV     DPH,?XSP + 1
        MOV     A,#-0x2
        MOVX    @DPTR,A
        INC     DPTR
        MOV     A,#-0x1
        MOVX    @DPTR,A
// 1355         // Invalidate nwk addr so end device does not use in its data reqs.
// 1356         _NIB.nwkDevAddress = INVALID_NODE_ADDR;
        MOV     DPTR,#(_NIB + 20)
        MOV     A,#-0x2
        MOVX    @DPTR,A
        INC     DPTR
        MOV     A,#-0x1
        MOVX    @DPTR,A
// 1357         ZMacSetReq( ZMacShortAddress, (uint8 *)&addr );
        ; Setup parameters for call to function ZMacSetReq
        MOV     DPL,?XSP + 0
        MOV     DPH,?XSP + 1
        MOV     R2,DPL
        MOV     R3,DPH
        MOV     R1,#0x53
        LCALL   ??ZMacSetReq?relay
// 1358       }
// 1359 
// 1360       zdoDiscCounter = 1;
??ZDApp_ProcessNetworkJoin_15:
        MOV     A,#0x1
        MOV     DPTR,#zdoDiscCounter
??ZDApp_ProcessNetworkJoin_16:
        MOVX    @DPTR,A
// 1361 
// 1362 //      ZDApp_NetworkInit( (uint16)
// 1363 //                         ((NWK_START_DELAY * (osal_rand() & 0x0F)) +
// 1364 //                          (NWK_START_DELAY * 5)) );
// 1365       ZDApp_NetworkInit( (uint16)(NWK_START_DELAY
// 1366            + ((uint16)(osal_rand()& EXTENDED_JOINING_RANDOM_MASK))) );
        ; Setup parameters for call to function ZDApp_NetworkInit
        ; Setup parameters for call to function osal_rand
        LJMP    ??ZDApp_ProcessNetworkJoin_17 & 0xFFFF
// 1367     }
// 1368   }
// 1369   else if ( devState == DEV_NWK_ORPHAN || devState == DEV_NWK_REJOIN )
??ZDApp_ProcessNetworkJoin_1:
        MOV     DPTR,#devState
        MOVX    A,@DPTR
        XRL     A,#0xa
        JZ      ??ZDApp_ProcessNetworkJoin_18
        MOVX    A,@DPTR
        XRL     A,#0x4
        JZ      $+5
        LJMP    ??ZDApp_ProcessNetworkJoin_5 & 0xFFFF
// 1370   {
// 1371     // results of an orphaning attempt by this device
// 1372     if (nwkStatus == ZSuccess)
??ZDApp_ProcessNetworkJoin_18:
        MOV     DPTR,#nwkStatus
        MOVX    A,@DPTR
        JNZ     ??ZDApp_ProcessNetworkJoin_19
// 1373     {
// 1374       if ( ZG_SECURE_ENABLED )
// 1375       {
// 1376         ZDApp_RestoreNwkKey();
// 1377       }
// 1378 
// 1379       devState = DEV_END_DEVICE;
        MOV     A,#0x6
        MOV     DPTR,#devState
        MOVX    @DPTR,A
// 1380       osal_set_event( ZDAppTaskID, ZDO_STATE_CHANGE_EVT );
        ; Setup parameters for call to function osal_set_event
        MOV     R2,#0x10
        MOV     R3,#0x0
        MOV     DPTR,#ZDAppTaskID
        MOVX    A,@DPTR
        MOV     R1,A
        LCALL   ??osal_set_event?relay
// 1381       // setup Power Manager Device
// 1382 #if defined ( POWER_SAVING )
// 1383       osal_pwrmgr_device( PWRMGR_BATTERY );
// 1384 #endif
// 1385 
// 1386       if ( ZDO_Config_Node_Descriptor.CapabilityFlags & CAPINFO_RCVR_ON_IDLE )
        MOV     DPTR,#(ZDO_Config_Node_Descriptor + 2)
        MOVX    A,@DPTR
        MOV     C,0xE0 /* A   */.3
        JNC     ??ZDApp_ProcessNetworkJoin_20
// 1387       {
// 1388         // The receiver is on, turn network layer polling off.
// 1389         NLME_SetPollRate( 0 );
        ; Setup parameters for call to function NLME_SetPollRate
        MOV     R2,#0x0
        MOV     R3,#0x0
        LCALL   ??NLME_SetPollRate?relay
// 1390         NLME_SetQueuedPollRate( 0 );
        ; Setup parameters for call to function NLME_SetQueuedPollRate
        MOV     R2,#0x0
        MOV     R3,#0x0
        LCALL   ??NLME_SetQueuedPollRate?relay
// 1391         NLME_SetResponseRate( 0 );
        ; Setup parameters for call to function NLME_SetResponseRate
        MOV     R2,#0x0
        MOV     R3,#0x0
        LCALL   ??NLME_SetResponseRate?relay
// 1392       }
// 1393 
// 1394       if ( ZSTACK_ROUTER_BUILD )
// 1395       {
// 1396         // NOTE: first two parameters are not used, see NLMEDE.h for details
// 1397         if ( ZDO_Config_Node_Descriptor.LogicalType != NODETYPE_DEVICE )
??ZDApp_ProcessNetworkJoin_20:
        MOV     DPTR,#ZDO_Config_Node_Descriptor
        MOVX    A,@DPTR
        ANL     A,#0x7
        XRL     A,#0x2
        JZ      ??ZDApp_ProcessNetworkJoin_21
// 1398         {
// 1399           NLME_StartRouterRequest( 0, 0, false );
        ; Setup parameters for call to function NLME_StartRouterRequest
        MOV     R3,#0x0
        MOV     R2,#0x0
        MOV     R1,#0x0
        LCALL   ??NLME_StartRouterRequest?relay
// 1400         }
// 1401       }
// 1402 
// 1403       ZDApp_AnnounceNewAddress();
??ZDApp_ProcessNetworkJoin_21:
        ; Setup parameters for call to function ZDApp_AnnounceNewAddress
        LCALL   ??ZDApp_AnnounceNewAddress?relay
        SJMP    ??ZDApp_ProcessNetworkJoin_5
// 1404     }
// 1405     else
// 1406     {
// 1407       if ( devStartMode == MODE_RESUME )
??ZDApp_ProcessNetworkJoin_19:
        MOV     DPTR,#devStartMode
        MOVX    A,@DPTR
        XRL     A,#0x1
        JNZ     ??ZDApp_ProcessNetworkJoin_17
// 1408       {
// 1409         if ( ++retryCnt <= MAX_RESUME_RETRY )
        MOV     DPTR,#retryCnt
        MOVX    A,@DPTR
        INC     A
        MOVX    @DPTR,A
        MOVX    A,@DPTR
        CLR     C
        SUBB    A,#0x4
        JNC     ??ZDApp_ProcessNetworkJoin_22
// 1410         {
// 1411           if ( _NIB.nwkPanId == 0xFFFF || _NIB.nwkPanId == INVALID_PAN_ID )
        MOV     DPTR,#(_NIB + 33)
        MOVX    A,@DPTR
        MOV     R0,A
        INC     DPTR
        MOVX    A,@DPTR
        MOV     R1,A
        MOV     A,#-0x1
        XRL     A,R0
        JNZ     ??ZDApp_ProcessNetworkJoin_23
        MOV     A,#-0x1
        XRL     A,R1
??ZDApp_ProcessNetworkJoin_23:
        JZ      ??ZDApp_ProcessNetworkJoin_24
        MOV     A,#-0x2
        XRL     A,R0
        JNZ     ??ZDApp_ProcessNetworkJoin_25
        MOV     A,#-0x1
        XRL     A,R1
??ZDApp_ProcessNetworkJoin_25:
        JNZ     ??ZDApp_ProcessNetworkJoin_26
// 1412             devStartMode = MODE_JOIN;
??ZDApp_ProcessNetworkJoin_24:
        CLR     A
        MOV     DPTR,#devStartMode
??ZDApp_ProcessNetworkJoin_27:
        LJMP    ??ZDApp_ProcessNetworkJoin_16 & 0xFFFF
// 1413           else
// 1414           {
// 1415             devStartMode = MODE_REJOIN;
??ZDApp_ProcessNetworkJoin_26:
        MOV     A,#0x3
        MOV     DPTR,#devStartMode
        MOVX    @DPTR,A
// 1416             _tmpRejoinState = true;
        MOV     A,#0x1
        MOV     DPTR,#_tmpRejoinState
        SJMP    ??ZDApp_ProcessNetworkJoin_27
// 1417           }
// 1418         }
// 1419         // Do a normal join to the network after certain times of rejoin retries
// 1420         else if( AIB_apsUseInsecureJoin == true )
??ZDApp_ProcessNetworkJoin_22:
        MOV     DPTR,#AIB_apsUseInsecureJoin
        MOVX    A,@DPTR
        XRL     A,#0x1
        JZ      ??ZDApp_ProcessNetworkJoin_24
// 1421         {
// 1422           devStartMode = MODE_JOIN;
// 1423         }
// 1424       }
// 1425 
// 1426 
// 1427       // setup a retry for later...
// 1428       ZDApp_NetworkInit( (uint16)(NWK_START_DELAY
// 1429            + (osal_rand()& EXTENDED_JOINING_RANDOM_MASK)) );
??ZDApp_ProcessNetworkJoin_17:
        ; Setup parameters for call to function ZDApp_NetworkInit
        ; Setup parameters for call to function osal_rand
        LCALL   ??osal_rand?relay
        MOV     ?V0 + 0,R2
        MOV     A,#0x7f
        ANL     A,?V0 + 0
        MOV     R0,A
        MOV     A,#0x64
        ADD     A,R0
        MOV     R2,A
        MOV     R3,#0x0
        LCALL   ??ZDApp_NetworkInit?relay
// 1430     }
// 1431   }
// 1432 #if defined ( ZIGBEE_STOCHASTIC_ADDRESSING )
// 1433   else
// 1434   {
// 1435     // Assume from address conflict
// 1436     if ( _NIB.nwkAddrAlloc == NWK_ADDRESSING_STOCHASTIC )
// 1437     {
// 1438       // Notify the network
// 1439       ZDApp_AnnounceNewAddress();
// 1440 
// 1441       // Notify apps
// 1442       osal_set_event( ZDAppTaskID, ZDO_STATE_CHANGE_EVT );
// 1443     }
// 1444   }
// 1445 #endif
// 1446 }
??ZDApp_ProcessNetworkJoin_5:
        MOV     A,#0x2
        LCALL   ?DEALLOC_XSTACK8
        CFI CFA_XSP16 add(XSP16, 10)
        MOV     R7,#0x2
        LJMP    ?BANKED_LEAVE_XDATA
        CFI EndBlock cfiBlock17
// 1447 
// 1448 /*********************************************************************
// 1449  * @fn      ZDApp_SaveNwkKey()
// 1450  *
// 1451  * @brief   Save off the Network key information.
// 1452  *
// 1453  * @param   none
// 1454  *
// 1455  * @return  none
// 1456  */

        RSEG BANKED_CODE:CODE:NOROOT(0)
// 1457 void ZDApp_SaveNwkKey( void )
ZDApp_SaveNwkKey:
        CFI Block cfiBlock18 Using cfiCommon0
        CFI Function ZDApp_SaveNwkKey
// 1458 {
        FUNCALL ZDApp_SaveNwkKey, SSP_ReadNwkActiveKey
        LOCFRAME ISTACK, 0, STACK
        LOCFRAME PSTACK, 0, STACK
        LOCFRAME XSTACK, 33, STACK
        LOCFRAME IOVERLAY, 0, STATIC
        LOCFRAME DOVERLAY, 0, STATIC
        ARGFRAME ISTACK, 0, STACK
        ARGFRAME PSTACK, 0, STACK
        ARGFRAME XSTACK, 33, STACK
        ARGFRAME IOVERLAY, 0, STATIC
        ARGFRAME DOVERLAY, 0, STATIC
        FUNCALL ZDApp_SaveNwkKey, osal_nv_write
        LOCFRAME ISTACK, 0, STACK
        LOCFRAME PSTACK, 0, STACK
        LOCFRAME XSTACK, 37, STACK
        LOCFRAME IOVERLAY, 0, STATIC
        LOCFRAME DOVERLAY, 0, STATIC
        ARGFRAME ISTACK, 0, STACK
        ARGFRAME PSTACK, 0, STACK
        ARGFRAME XSTACK, 37, STACK
        ARGFRAME IOVERLAY, 0, STATIC
        ARGFRAME DOVERLAY, 0, STATIC
        MOV     A,#-0xc
        LCALL   ?BANKED_ENTER_XDATA
        CFI DPH0 load(1, XDATA, add(CFA_XSP16, literal(-1)))
        CFI DPL0 load(1, XDATA, add(CFA_XSP16, literal(-2)))
        CFI ?BRET_EXT load(1, XDATA, add(CFA_XSP16, literal(-3)))
        CFI ?RET_HIGH load(1, XDATA, add(CFA_XSP16, literal(-4)))
        CFI ?RET_LOW load(1, XDATA, add(CFA_XSP16, literal(-5)))
        CFI R7 load(1, XDATA, add(CFA_XSP16, literal(-6)))
        CFI V3 load(1, XDATA, add(CFA_XSP16, literal(-7)))
        CFI V2 load(1, XDATA, add(CFA_XSP16, literal(-8)))
        CFI V1 load(1, XDATA, add(CFA_XSP16, literal(-9)))
        CFI V0 load(1, XDATA, add(CFA_XSP16, literal(-10)))
        CFI VB load(1, XDATA, add(CFA_XSP16, literal(-11)))
        CFI R6 load(1, XDATA, add(CFA_XSP16, literal(-12)))
        CFI CFA_SP SP+0
        CFI CFA_XSP16 add(XSP16, 12)
        ; Saved register size: 12
        ; Auto size: 21
        MOV     A,#-0x15
        LCALL   ?ALLOC_XSTACK8
        CFI CFA_XSP16 add(XSP16, 33)
// 1459   nwkActiveKeyItems keyItems;
// 1460 
// 1461   SSP_ReadNwkActiveKey( &keyItems );
        ; Setup parameters for call to function SSP_ReadNwkActiveKey
        MOV     DPL,?XSP + 0
        MOV     DPH,?XSP + 1
        MOV     R2,DPL
        MOV     R3,DPH
        LCALL   ??SSP_ReadNwkActiveKey?relay
// 1462   keyItems.frameCounter++;
        MOV     DPTR,#__Constant_1
        MOV     R0,#?V0 + 0
        LCALL   ?L_MOV_X
        MOV     A,#0x11
        LCALL   ?XSTACK_DISP0_8
        MOV     R0,#?V0 + 0
        LCALL   ?L_ADD_TO_X
// 1463 
// 1464   osal_nv_write( ZCD_NV_NWKKEY, 0, sizeof( nwkActiveKeyItems ),
// 1465                 (void *)&keyItems );
        ; Setup parameters for call to function osal_nv_write
        MOV     DPL,?XSP + 0
        MOV     DPH,?XSP + 1
        MOV     ?V0 + 0,DPL
        MOV     ?V0 + 1,DPH
        MOV     R0,#?V0 + 0
        LCALL   ?PUSH_XSTACK_I_TWO
        CFI CFA_XSP16 add(XSP16, 35)
        MOV     ?V0 + 0,#0x15
        MOV     ?V0 + 1,#0x0
        MOV     R0,#?V0 + 0
        LCALL   ?PUSH_XSTACK_I_TWO
        CFI CFA_XSP16 add(XSP16, 37)
        MOV     R4,#0x0
        MOV     R5,#0x0
        MOV     R2,#-0x7e
        MOV     R3,#0x0
        LCALL   ??osal_nv_write?relay
        MOV     A,#0x4
        LCALL   ?DEALLOC_XSTACK8
        CFI CFA_XSP16 add(XSP16, 33)
// 1466 
// 1467   nwkFrameCounterChanges = 0;
        MOV     DPTR,#nwkFrameCounterChanges
        CLR     A
        MOVX    @DPTR,A
        INC     DPTR
        MOVX    @DPTR,A
// 1468 }
        MOV     A,#0x15
        LCALL   ?DEALLOC_XSTACK8
        CFI CFA_XSP16 add(XSP16, 12)
        MOV     R7,#0x4
        LJMP    ?BANKED_LEAVE_XDATA
        CFI EndBlock cfiBlock18
// 1469 
// 1470 /*********************************************************************
// 1471  * @fn      ZDApp_ResetNwkKey()
// 1472  *
// 1473  * @brief   Reset the Network key information in NV.
// 1474  *
// 1475  * @param   none
// 1476  *
// 1477  * @return  none
// 1478  */

        RSEG BANKED_CODE:CODE:NOROOT(0)
// 1479 void ZDApp_ResetNwkKey( void )
ZDApp_ResetNwkKey:
        CFI Block cfiBlock19 Using cfiCommon0
        CFI Function ZDApp_ResetNwkKey
// 1480 {
        FUNCALL ZDApp_ResetNwkKey, osal_memset
        LOCFRAME ISTACK, 0, STACK
        LOCFRAME PSTACK, 0, STACK
        LOCFRAME XSTACK, 31, STACK
        LOCFRAME IOVERLAY, 0, STATIC
        LOCFRAME DOVERLAY, 0, STATIC
        ARGFRAME ISTACK, 0, STACK
        ARGFRAME PSTACK, 0, STACK
        ARGFRAME XSTACK, 31, STACK
        ARGFRAME IOVERLAY, 0, STATIC
        ARGFRAME DOVERLAY, 0, STATIC
        FUNCALL ZDApp_ResetNwkKey, osal_nv_write
        LOCFRAME ISTACK, 0, STACK
        LOCFRAME PSTACK, 0, STACK
        LOCFRAME XSTACK, 35, STACK
        LOCFRAME IOVERLAY, 0, STATIC
        LOCFRAME DOVERLAY, 0, STATIC
        ARGFRAME ISTACK, 0, STACK
        ARGFRAME PSTACK, 0, STACK
        ARGFRAME XSTACK, 35, STACK
        ARGFRAME IOVERLAY, 0, STATIC
        ARGFRAME DOVERLAY, 0, STATIC
        MOV     A,#-0xa
        LCALL   ?BANKED_ENTER_XDATA
        CFI DPH0 load(1, XDATA, add(CFA_XSP16, literal(-1)))
        CFI DPL0 load(1, XDATA, add(CFA_XSP16, literal(-2)))
        CFI ?BRET_EXT load(1, XDATA, add(CFA_XSP16, literal(-3)))
        CFI ?RET_HIGH load(1, XDATA, add(CFA_XSP16, literal(-4)))
        CFI ?RET_LOW load(1, XDATA, add(CFA_XSP16, literal(-5)))
        CFI R7 load(1, XDATA, add(CFA_XSP16, literal(-6)))
        CFI V1 load(1, XDATA, add(CFA_XSP16, literal(-7)))
        CFI V0 load(1, XDATA, add(CFA_XSP16, literal(-8)))
        CFI VB load(1, XDATA, add(CFA_XSP16, literal(-9)))
        CFI R6 load(1, XDATA, add(CFA_XSP16, literal(-10)))
        CFI CFA_SP SP+0
        CFI CFA_XSP16 add(XSP16, 10)
        ; Saved register size: 10
        ; Auto size: 21
        MOV     A,#-0x15
        LCALL   ?ALLOC_XSTACK8
        CFI CFA_XSP16 add(XSP16, 31)
// 1481   nwkActiveKeyItems keyItems;
// 1482 
// 1483   osal_memset( &keyItems, 0, sizeof( nwkActiveKeyItems ) );
        ; Setup parameters for call to function osal_memset
        MOV     R4,#0x15
        MOV     R5,#0x0
        MOV     R1,#0x0
        MOV     DPL,?XSP + 0
        MOV     DPH,?XSP + 1
        MOV     R2,DPL
        MOV     R3,DPH
        LCALL   ??osal_memset?relay
// 1484   osal_nv_write( ZCD_NV_NWKKEY, 0, sizeof( nwkActiveKeyItems ),
// 1485                 (void *)&keyItems );
        ; Setup parameters for call to function osal_nv_write
        MOV     DPL,?XSP + 0
        MOV     DPH,?XSP + 1
        MOV     ?V0 + 0,DPL
        MOV     ?V0 + 1,DPH
        MOV     R0,#?V0 + 0
        LCALL   ?PUSH_XSTACK_I_TWO
        CFI CFA_XSP16 add(XSP16, 33)
        MOV     ?V0 + 0,#0x15
        MOV     ?V0 + 1,#0x0
        MOV     R0,#?V0 + 0
        LCALL   ?PUSH_XSTACK_I_TWO
        CFI CFA_XSP16 add(XSP16, 35)
        MOV     R4,#0x0
        MOV     R5,#0x0
        MOV     R2,#-0x7e
        MOV     R3,#0x0
        LCALL   ??osal_nv_write?relay
        MOV     A,#0x4
        LCALL   ?DEALLOC_XSTACK8
        CFI CFA_XSP16 add(XSP16, 31)
// 1486 }
        MOV     A,#0x15
        LCALL   ?DEALLOC_XSTACK8
        CFI CFA_XSP16 add(XSP16, 10)
        MOV     R7,#0x2
        LJMP    ?BANKED_LEAVE_XDATA
        CFI EndBlock cfiBlock19
// 1487 
// 1488 /*********************************************************************
// 1489  * @fn      ZDApp_RestoreNwkKey()
// 1490  *
// 1491  * @brief
// 1492  *
// 1493  *   Save off the Network key information.
// 1494  *
// 1495  * @param   none
// 1496  *
// 1497  * @return  true if restored from NV, false if not
// 1498  */

        RSEG BANKED_CODE:CODE:NOROOT(0)
// 1499 uint8 ZDApp_RestoreNwkKey( void )
ZDApp_RestoreNwkKey:
        CFI Block cfiBlock20 Using cfiCommon0
        CFI Function ZDApp_RestoreNwkKey
// 1500 {
        FUNCALL ZDApp_RestoreNwkKey, osal_nv_read
        LOCFRAME ISTACK, 0, STACK
        LOCFRAME PSTACK, 0, STACK
        LOCFRAME XSTACK, 37, STACK
        LOCFRAME IOVERLAY, 0, STATIC
        LOCFRAME DOVERLAY, 0, STATIC
        ARGFRAME ISTACK, 0, STACK
        ARGFRAME PSTACK, 0, STACK
        ARGFRAME XSTACK, 37, STACK
        ARGFRAME IOVERLAY, 0, STATIC
        ARGFRAME DOVERLAY, 0, STATIC
        MOV     A,#-0xc
        LCALL   ?BANKED_ENTER_XDATA
        CFI DPH0 load(1, XDATA, add(CFA_XSP16, literal(-1)))
        CFI DPL0 load(1, XDATA, add(CFA_XSP16, literal(-2)))
        CFI ?BRET_EXT load(1, XDATA, add(CFA_XSP16, literal(-3)))
        CFI ?RET_HIGH load(1, XDATA, add(CFA_XSP16, literal(-4)))
        CFI ?RET_LOW load(1, XDATA, add(CFA_XSP16, literal(-5)))
        CFI R7 load(1, XDATA, add(CFA_XSP16, literal(-6)))
        CFI V3 load(1, XDATA, add(CFA_XSP16, literal(-7)))
        CFI V2 load(1, XDATA, add(CFA_XSP16, literal(-8)))
        CFI V1 load(1, XDATA, add(CFA_XSP16, literal(-9)))
        CFI V0 load(1, XDATA, add(CFA_XSP16, literal(-10)))
        CFI VB load(1, XDATA, add(CFA_XSP16, literal(-11)))
        CFI R6 load(1, XDATA, add(CFA_XSP16, literal(-12)))
        CFI CFA_SP SP+0
        CFI CFA_XSP16 add(XSP16, 12)
        ; Saved register size: 12
        ; Auto size: 21
        MOV     A,#-0x15
        LCALL   ?ALLOC_XSTACK8
        CFI CFA_XSP16 add(XSP16, 33)
// 1501   nwkActiveKeyItems keyItems;
// 1502   uint8 ret = false;
        MOV     R6,#0x0
// 1503 
// 1504   if ( osal_nv_read( ZCD_NV_NWKKEY, 0, sizeof(nwkActiveKeyItems), (void*)&keyItems )
// 1505       == ZSUCCESS )
        ; Setup parameters for call to function osal_nv_read
        MOV     DPL,?XSP + 0
        MOV     DPH,?XSP + 1
        MOV     ?V0 + 0,DPL
        MOV     ?V0 + 1,DPH
        MOV     R0,#?V0 + 0
        LCALL   ?PUSH_XSTACK_I_TWO
        CFI CFA_XSP16 add(XSP16, 35)
        MOV     ?V0 + 0,#0x15
        MOV     ?V0 + 1,R6
        MOV     R0,#?V0 + 0
        LCALL   ?PUSH_XSTACK_I_TWO
        CFI CFA_XSP16 add(XSP16, 37)
        MOV     R4,#0x0
        MOV     R5,#0x0
        MOV     R2,#-0x7e
        MOV     R3,#0x0
        LCALL   ??osal_nv_read?relay
        MOV     A,#0x4
        LCALL   ?DEALLOC_XSTACK8
        CFI CFA_XSP16 add(XSP16, 33)
        MOV     A,R1
        JNZ     ??ZDApp_RestoreNwkKey_0
// 1506   {
// 1507     if ( keyItems.frameCounter > 0 )
        MOV     A,#0x11
        LCALL   ?XSTACK_DISP0_8
        MOV     R0,#?V0 + 0
        LCALL   ?L_MOV_X
        MOV     DPTR,#__Constant_0
        MOV     R0,#?V0 + 0
        LCALL   ?L_EQ_X
        JZ      ??ZDApp_RestoreNwkKey_1
// 1508     {
// 1509       // Restore the key information
// 1510       keyItems.frameCounter += MAX_NWK_FRAMECOUNTER_CHANGES;
// 1511       nwkFrameCounter = keyItems.frameCounter;
        MOV     DPTR,#__Constant_3e8
        MOV     R0,#?V0 + 0
        LCALL   ?L_ADD_X
        MOV     DPTR,#nwkFrameCounter
        MOV     R0,#?V0 + 0
        LCALL   ?L_MOV_TO_X
// 1512       ret = true;
        INC     R6
// 1513     }
// 1514 
// 1515     // Force a save for the first frame counter increment
// 1516     nwkFrameCounterChanges = MAX_NWK_FRAMECOUNTER_CHANGES + 1;
??ZDApp_RestoreNwkKey_1:
        MOV     DPTR,#nwkFrameCounterChanges
        MOV     A,#-0x17
        MOVX    @DPTR,A
        INC     DPTR
        MOV     A,#0x3
        MOVX    @DPTR,A
// 1517   }
// 1518   return ( ret );
??ZDApp_RestoreNwkKey_0:
        MOV     A,R6
        MOV     R1,A
        MOV     A,#0x15
        LCALL   ?DEALLOC_XSTACK8
        CFI CFA_XSP16 add(XSP16, 12)
        MOV     R7,#0x4
        LJMP    ?BANKED_LEAVE_XDATA
        CFI EndBlock cfiBlock20
// 1519 }
// 1520 
// 1521 /*********************************************************************
// 1522  * @fn      ZDApp_ResetTimerStart
// 1523  *
// 1524  * @brief   Start the reset timer.
// 1525  *
// 1526  * @param   delay - delay time(ms) before reset
// 1527  *
// 1528  * @return  none
// 1529  */

        RSEG BANKED_CODE:CODE:NOROOT(0)
// 1530 void ZDApp_ResetTimerStart( uint16 delay )
ZDApp_ResetTimerStart:
        CFI Block cfiBlock21 Using cfiCommon0
        CFI Function ZDApp_ResetTimerStart
// 1531 {
        FUNCALL ZDApp_ResetTimerStart, osal_start_timerEx
        LOCFRAME ISTACK, 2, STACK
        LOCFRAME PSTACK, 0, STACK
        LOCFRAME XSTACK, 0, STACK
        LOCFRAME IOVERLAY, 0, STATIC
        LOCFRAME DOVERLAY, 0, STATIC
        ARGFRAME ISTACK, 2, STACK
        ARGFRAME PSTACK, 0, STACK
        ARGFRAME XSTACK, 0, STACK
        ARGFRAME IOVERLAY, 0, STATIC
        ARGFRAME DOVERLAY, 0, STATIC
        PUSH    DPL
        CFI DPL0 Frame(CFA_SP, 4)
        CFI CFA_SP SP+-4
        PUSH    DPH
        CFI DPH0 Frame(CFA_SP, 5)
        CFI CFA_SP SP+-5
        ; Saved register size: 2
        ; Auto size: 0
// 1532   // Start the rest timer
// 1533   osal_start_timerEx( ZDAppTaskID, ZDO_DEVICE_RESET, delay );
        ; Setup parameters for call to function osal_start_timerEx
        MOV     A,R2
        MOV     R4,A
        MOV     A,R3
        MOV     R5,A
        MOV     R2,#0x4
        MOV     R3,#0x0
        MOV     DPTR,#ZDAppTaskID
        MOVX    A,@DPTR
        MOV     R1,A
        LCALL   ??osal_start_timerEx?relay
// 1534 }
        POP     DPH
        CFI DPH0 SameValue
        CFI CFA_SP SP+-4
        POP     DPL
        CFI DPL0 SameValue
        CFI CFA_SP SP+-3
        LJMP    ?BRET
        CFI EndBlock cfiBlock21
// 1535 
// 1536 /*********************************************************************
// 1537  * @fn      ZDApp_ResetTimerCancel
// 1538  *
// 1539  * @brief   Cancel the reset timer.
// 1540  *
// 1541  * @param   none
// 1542  *
// 1543  * @return  none
// 1544  */

        RSEG BANKED_CODE:CODE:NOROOT(0)
// 1545 void ZDApp_ResetTimerCancel( void )
ZDApp_ResetTimerCancel:
        CFI Block cfiBlock22 Using cfiCommon0
        CFI Function ZDApp_ResetTimerCancel
// 1546 {
        FUNCALL ZDApp_ResetTimerCancel, osal_stop_timerEx
        LOCFRAME ISTACK, 2, STACK
        LOCFRAME PSTACK, 0, STACK
        LOCFRAME XSTACK, 0, STACK
        LOCFRAME IOVERLAY, 0, STATIC
        LOCFRAME DOVERLAY, 0, STATIC
        ARGFRAME ISTACK, 2, STACK
        ARGFRAME PSTACK, 0, STACK
        ARGFRAME XSTACK, 0, STACK
        ARGFRAME IOVERLAY, 0, STATIC
        ARGFRAME DOVERLAY, 0, STATIC
        PUSH    DPL
        CFI DPL0 Frame(CFA_SP, 4)
        CFI CFA_SP SP+-4
        PUSH    DPH
        CFI DPH0 Frame(CFA_SP, 5)
        CFI CFA_SP SP+-5
        ; Saved register size: 2
        ; Auto size: 0
// 1547   // Cancel the reset timer
// 1548   osal_stop_timerEx( ZDAppTaskID, ZDO_DEVICE_RESET );
        ; Setup parameters for call to function osal_stop_timerEx
        MOV     R2,#0x4
        MOV     R3,#0x0
        MOV     DPTR,#ZDAppTaskID
        MOVX    A,@DPTR
        MOV     R1,A
        LCALL   ??osal_stop_timerEx?relay
// 1549 }
        POP     DPH
        CFI DPH0 SameValue
        CFI CFA_SP SP+-4
        POP     DPL
        CFI DPL0 SameValue
        CFI CFA_SP SP+-3
        LJMP    ?BRET
        CFI EndBlock cfiBlock22
// 1550 
// 1551 /*********************************************************************
// 1552  * @fn      ZDApp_LeaveCtrlInit
// 1553  *
// 1554  * @brief   Initialize the leave control logic.
// 1555  *
// 1556  * @param   none
// 1557  *
// 1558  * @return  none
// 1559  */

        RSEG BANKED_CODE:CODE:NOROOT(0)
// 1560 void ZDApp_LeaveCtrlInit( void )
ZDApp_LeaveCtrlInit:
        CFI Block cfiBlock23 Using cfiCommon0
        CFI Function ZDApp_LeaveCtrlInit
// 1561 {
        FUNCALL ZDApp_LeaveCtrlInit, osal_nv_item_init
        LOCFRAME ISTACK, 0, STACK
        LOCFRAME PSTACK, 0, STACK
        LOCFRAME XSTACK, 12, STACK
        LOCFRAME IOVERLAY, 0, STATIC
        LOCFRAME DOVERLAY, 0, STATIC
        ARGFRAME ISTACK, 0, STACK
        ARGFRAME PSTACK, 0, STACK
        ARGFRAME XSTACK, 12, STACK
        ARGFRAME IOVERLAY, 0, STATIC
        ARGFRAME DOVERLAY, 0, STATIC
        FUNCALL ZDApp_LeaveCtrlInit, osal_nv_read
        LOCFRAME ISTACK, 0, STACK
        LOCFRAME PSTACK, 0, STACK
        LOCFRAME XSTACK, 14, STACK
        LOCFRAME IOVERLAY, 0, STATIC
        LOCFRAME DOVERLAY, 0, STATIC
        ARGFRAME ISTACK, 0, STACK
        ARGFRAME PSTACK, 0, STACK
        ARGFRAME XSTACK, 14, STACK
        ARGFRAME IOVERLAY, 0, STATIC
        ARGFRAME DOVERLAY, 0, STATIC
        MOV     A,#-0xa
        LCALL   ?BANKED_ENTER_XDATA
        CFI DPH0 load(1, XDATA, add(CFA_XSP16, literal(-1)))
        CFI DPL0 load(1, XDATA, add(CFA_XSP16, literal(-2)))
        CFI ?BRET_EXT load(1, XDATA, add(CFA_XSP16, literal(-3)))
        CFI ?RET_HIGH load(1, XDATA, add(CFA_XSP16, literal(-4)))
        CFI ?RET_LOW load(1, XDATA, add(CFA_XSP16, literal(-5)))
        CFI R7 load(1, XDATA, add(CFA_XSP16, literal(-6)))
        CFI V1 load(1, XDATA, add(CFA_XSP16, literal(-7)))
        CFI V0 load(1, XDATA, add(CFA_XSP16, literal(-8)))
        CFI VB load(1, XDATA, add(CFA_XSP16, literal(-9)))
        CFI R6 load(1, XDATA, add(CFA_XSP16, literal(-10)))
        CFI CFA_SP SP+0
        CFI CFA_XSP16 add(XSP16, 10)
        ; Saved register size: 10
        ; Auto size: 0
// 1562   uint8 status;
// 1563 
// 1564 
// 1565   // Initialize control state
// 1566   ZDApp_LeaveCtrl = ZDAPP_LEAVE_CTRL_INIT;
        CLR     A
        MOV     DPTR,#ZDApp_LeaveCtrl
        MOVX    @DPTR,A
// 1567 
// 1568   status = osal_nv_item_init( ZCD_NV_LEAVE_CTRL,
// 1569                               sizeof(ZDApp_LeaveCtrl),
// 1570                               &ZDApp_LeaveCtrl );
// 1571 
// 1572   if ( status == ZSUCCESS )
        ; Setup parameters for call to function osal_nv_item_init
        MOV     ?V0 + 0,#(ZDApp_LeaveCtrl & 0xff)
        MOV     ?V0 + 1,#((ZDApp_LeaveCtrl >> 8) & 0xff)
        MOV     R0,#?V0 + 0
        LCALL   ?PUSH_XSTACK_I_TWO
        CFI CFA_XSP16 add(XSP16, 12)
        MOV     R4,#0x1
        MOV     R5,#0x0
        MOV     R2,#-0x7b
        MOV     R3,#0x0
        LCALL   ??osal_nv_item_init?relay
        MOV     A,#0x2
        LCALL   ?DEALLOC_XSTACK8
        CFI CFA_XSP16 add(XSP16, 10)
        MOV     A,R1
        JNZ     ??ZDApp_LeaveCtrlInit_0
// 1573   {
// 1574     // Read saved control
// 1575     osal_nv_read( ZCD_NV_LEAVE_CTRL,
// 1576                   0,
// 1577                   sizeof( uint8 ),
// 1578                   &ZDApp_LeaveCtrl);
        ; Setup parameters for call to function osal_nv_read
        MOV     R0,#?V0 + 0
        LCALL   ?PUSH_XSTACK_I_TWO
        CFI CFA_XSP16 add(XSP16, 12)
        MOV     ?V0 + 0,#0x1
        MOV     ?V0 + 1,#0x0
        MOV     R0,#?V0 + 0
        LCALL   ?PUSH_XSTACK_I_TWO
        CFI CFA_XSP16 add(XSP16, 14)
        MOV     R4,#0x0
        MOV     R5,#0x0
        MOV     R2,#-0x7b
        MOV     R3,#0x0
        LCALL   ??osal_nv_read?relay
        MOV     A,#0x4
        LCALL   ?DEALLOC_XSTACK8
        CFI CFA_XSP16 add(XSP16, 10)
// 1579   }
// 1580 }
??ZDApp_LeaveCtrlInit_0:
        MOV     R7,#0x2
        LJMP    ?BANKED_LEAVE_XDATA
        CFI EndBlock cfiBlock23
// 1581 
// 1582 /*********************************************************************
// 1583  * @fn      ZDApp_LeaveCtrlSet
// 1584  *
// 1585  * @brief   Set the leave control logic.
// 1586  *
// 1587  * @param   ra - reassociate flag
// 1588  *
// 1589  * @return  none
// 1590  */

        RSEG BANKED_CODE:CODE:NOROOT(0)
// 1591 void ZDApp_LeaveCtrlSet( uint8 ra )
ZDApp_LeaveCtrlSet:
        CFI Block cfiBlock24 Using cfiCommon0
        CFI Function ZDApp_LeaveCtrlSet
// 1592 {
        FUNCALL ZDApp_LeaveCtrlSet, osal_nv_write
        LOCFRAME ISTACK, 0, STACK
        LOCFRAME PSTACK, 0, STACK
        LOCFRAME XSTACK, 14, STACK
        LOCFRAME IOVERLAY, 0, STATIC
        LOCFRAME DOVERLAY, 0, STATIC
        ARGFRAME ISTACK, 0, STACK
        ARGFRAME PSTACK, 0, STACK
        ARGFRAME XSTACK, 14, STACK
        ARGFRAME IOVERLAY, 0, STATIC
        ARGFRAME DOVERLAY, 0, STATIC
        MOV     A,#-0xa
        LCALL   ?BANKED_ENTER_XDATA
        CFI DPH0 load(1, XDATA, add(CFA_XSP16, literal(-1)))
        CFI DPL0 load(1, XDATA, add(CFA_XSP16, literal(-2)))
        CFI ?BRET_EXT load(1, XDATA, add(CFA_XSP16, literal(-3)))
        CFI ?RET_HIGH load(1, XDATA, add(CFA_XSP16, literal(-4)))
        CFI ?RET_LOW load(1, XDATA, add(CFA_XSP16, literal(-5)))
        CFI R7 load(1, XDATA, add(CFA_XSP16, literal(-6)))
        CFI V1 load(1, XDATA, add(CFA_XSP16, literal(-7)))
        CFI V0 load(1, XDATA, add(CFA_XSP16, literal(-8)))
        CFI VB load(1, XDATA, add(CFA_XSP16, literal(-9)))
        CFI R6 load(1, XDATA, add(CFA_XSP16, literal(-10)))
        CFI CFA_SP SP+0
        CFI CFA_XSP16 add(XSP16, 10)
        ; Saved register size: 10
        ; Auto size: 0
// 1593   ZDApp_LeaveCtrl = ZDAPP_LEAVE_CTRL_SET;
        MOV     A,#0x1
        MOV     DPTR,#ZDApp_LeaveCtrl
        MOVX    @DPTR,A
// 1594 
// 1595   if ( ra == TRUE )
        XRL     A,R1
        JNZ     ??ZDApp_LeaveCtrlSet_0
// 1596   {
// 1597     ZDApp_LeaveCtrl |= ZDAPP_LEAVE_CTRL_RA;
        MOV     A,#0x3
        MOVX    @DPTR,A
// 1598   }
// 1599 
// 1600   // Write the leave control
// 1601   osal_nv_write( ZCD_NV_LEAVE_CTRL,
// 1602                  0,
// 1603                  sizeof( uint8 ),
// 1604                  &ZDApp_LeaveCtrl);
??ZDApp_LeaveCtrlSet_0:
        ; Setup parameters for call to function osal_nv_write
        MOV     ?V0 + 0,#(ZDApp_LeaveCtrl & 0xff)
        MOV     ?V0 + 1,#((ZDApp_LeaveCtrl >> 8) & 0xff)
        MOV     R0,#?V0 + 0
        LCALL   ?PUSH_XSTACK_I_TWO
        CFI CFA_XSP16 add(XSP16, 12)
        MOV     ?V0 + 0,#0x1
        MOV     ?V0 + 1,#0x0
        MOV     R0,#?V0 + 0
        LCALL   ?PUSH_XSTACK_I_TWO
        CFI CFA_XSP16 add(XSP16, 14)
        MOV     R4,#0x0
        MOV     R5,#0x0
        MOV     R2,#-0x7b
        MOV     R3,#0x0
        LCALL   ??osal_nv_write?relay
        MOV     A,#0x4
        LCALL   ?DEALLOC_XSTACK8
        CFI CFA_XSP16 add(XSP16, 10)
// 1605 }
        MOV     R7,#0x2
        LJMP    ?BANKED_LEAVE_XDATA
        CFI EndBlock cfiBlock24
// 1606 
// 1607 /*********************************************************************
// 1608  * @fn      ZDApp_LeaveCtrlBypass
// 1609  *
// 1610  * @brief   Check if NV restore should be skipped during a leave reset.
// 1611  *
// 1612  * @param   none
// 1613  *
// 1614  * @return  uint8 - (TRUE bypass:FALSE do not bypass)
// 1615  */

        RSEG BANKED_CODE:CODE:NOROOT(0)
// 1616 uint8 ZDApp_LeaveCtrlBypass( void )
ZDApp_LeaveCtrlBypass:
        CFI Block cfiBlock25 Using cfiCommon0
        CFI Function ZDApp_LeaveCtrlBypass
// 1617 {
        PUSH    DPL
        CFI DPL0 Frame(CFA_SP, 4)
        CFI CFA_SP SP+-4
        PUSH    DPH
        CFI DPH0 Frame(CFA_SP, 5)
        CFI CFA_SP SP+-5
        ; Saved register size: 2
        ; Auto size: 0
// 1618   uint8 bypass;
// 1619 
// 1620   if ( ZDApp_LeaveCtrl & ZDAPP_LEAVE_CTRL_SET )
// 1621   {
// 1622     bypass = TRUE;
// 1623   }
// 1624   else
// 1625   {
// 1626     bypass = FALSE;
// 1627   }
// 1628 
// 1629   return bypass;
        MOV     DPTR,#ZDApp_LeaveCtrl
        MOVX    A,@DPTR
        MOV     C,0xE0 /* A   */.0
        CLR     A
        MOV     0xE0 /* A   */.0,C
        MOV     R1,A
        POP     DPH
        CFI DPH0 SameValue
        CFI CFA_SP SP+-4
        POP     DPL
        CFI DPL0 SameValue
        CFI CFA_SP SP+-3
        LJMP    ?BRET
        CFI EndBlock cfiBlock25
// 1630 }
// 1631 
// 1632 /*********************************************************************
// 1633  * @fn      ZDApp_LeaveCtrlStartup
// 1634  *
// 1635  * @brief   Check for startup conditions during a leave reset.
// 1636  *
// 1637  * @param   state      - devState_t determined by leave control logic
// 1638  * @param   startDelay - startup delay
// 1639  *
// 1640  * @return  none
// 1641  */

        RSEG BANKED_CODE:CODE:NOROOT(0)
// 1642 void ZDApp_LeaveCtrlStartup( devStates_t* state, uint16* startDelay )
ZDApp_LeaveCtrlStartup:
        CFI Block cfiBlock26 Using cfiCommon0
        CFI Function ZDApp_LeaveCtrlStartup
// 1643 {
        FUNCALL ZDApp_LeaveCtrlStartup, osal_nv_write
        LOCFRAME ISTACK, 0, STACK
        LOCFRAME PSTACK, 0, STACK
        LOCFRAME XSTACK, 14, STACK
        LOCFRAME IOVERLAY, 0, STATIC
        LOCFRAME DOVERLAY, 0, STATIC
        ARGFRAME ISTACK, 0, STACK
        ARGFRAME PSTACK, 0, STACK
        ARGFRAME XSTACK, 14, STACK
        ARGFRAME IOVERLAY, 0, STATIC
        ARGFRAME DOVERLAY, 0, STATIC
        MOV     A,#-0xa
        LCALL   ?BANKED_ENTER_XDATA
        CFI DPH0 load(1, XDATA, add(CFA_XSP16, literal(-1)))
        CFI DPL0 load(1, XDATA, add(CFA_XSP16, literal(-2)))
        CFI ?BRET_EXT load(1, XDATA, add(CFA_XSP16, literal(-3)))
        CFI ?RET_HIGH load(1, XDATA, add(CFA_XSP16, literal(-4)))
        CFI ?RET_LOW load(1, XDATA, add(CFA_XSP16, literal(-5)))
        CFI R7 load(1, XDATA, add(CFA_XSP16, literal(-6)))
        CFI V1 load(1, XDATA, add(CFA_XSP16, literal(-7)))
        CFI V0 load(1, XDATA, add(CFA_XSP16, literal(-8)))
        CFI VB load(1, XDATA, add(CFA_XSP16, literal(-9)))
        CFI R6 load(1, XDATA, add(CFA_XSP16, literal(-10)))
        CFI CFA_SP SP+0
        CFI CFA_XSP16 add(XSP16, 10)
        ; Saved register size: 10
        ; Auto size: 0
// 1644   *startDelay = 0;
        MOV     DPL,R4
        MOV     DPH,R5
        CLR     A
        MOVX    @DPTR,A
        INC     DPTR
        MOVX    @DPTR,A
// 1645 
// 1646   if ( ZDApp_LeaveCtrl & ZDAPP_LEAVE_CTRL_SET )
        MOV     DPTR,#ZDApp_LeaveCtrl
        MOVX    A,@DPTR
        MOV     C,0xE0 /* A   */.0
        JNC     ??ZDApp_LeaveCtrlStartup_0
// 1647   {
// 1648     if ( ZDApp_LeaveCtrl & ZDAPP_LEAVE_CTRL_RA )
        MOVX    A,@DPTR
        MOV     C,0xE0 /* A   */.1
        JNC     ??ZDApp_LeaveCtrlStartup_1
// 1649     {
// 1650       *startDelay = 5000;
        MOV     DPL,R4
        MOV     DPH,R5
        MOV     A,#-0x78
        MOVX    @DPTR,A
        INC     DPTR
        MOV     A,#0x13
        SJMP    ??ZDApp_LeaveCtrlStartup_2
// 1651     }
// 1652     else
// 1653     {
// 1654       *state = DEV_HOLD;
??ZDApp_LeaveCtrlStartup_1:
        CLR     A
        MOV     DPL,R2
        MOV     DPH,R3
??ZDApp_LeaveCtrlStartup_2:
        MOVX    @DPTR,A
// 1655     }
// 1656 
// 1657     // Set leave control to initialized state
// 1658     ZDApp_LeaveCtrl = ZDAPP_LEAVE_CTRL_INIT;
        CLR     A
        MOV     DPTR,#ZDApp_LeaveCtrl
        MOVX    @DPTR,A
// 1659 
// 1660     // Write initialized control
// 1661     osal_nv_write( ZCD_NV_LEAVE_CTRL,
// 1662                   0,
// 1663                   sizeof( uint8 ),
// 1664                   &ZDApp_LeaveCtrl);
        ; Setup parameters for call to function osal_nv_write
        MOV     ?V0 + 0,#(ZDApp_LeaveCtrl & 0xff)
        MOV     ?V0 + 1,#((ZDApp_LeaveCtrl >> 8) & 0xff)
        MOV     R0,#?V0 + 0
        LCALL   ?PUSH_XSTACK_I_TWO
        CFI CFA_XSP16 add(XSP16, 12)
        MOV     ?V0 + 0,#0x1
        MOV     ?V0 + 1,#0x0
        MOV     R0,#?V0 + 0
        LCALL   ?PUSH_XSTACK_I_TWO
        CFI CFA_XSP16 add(XSP16, 14)
        MOV     R4,#0x0
        MOV     R5,#0x0
        MOV     R2,#-0x7b
        MOV     R3,#0x0
        LCALL   ??osal_nv_write?relay
        MOV     A,#0x4
        LCALL   ?DEALLOC_XSTACK8
        CFI CFA_XSP16 add(XSP16, 10)
// 1665   }
// 1666 }
??ZDApp_LeaveCtrlStartup_0:
        MOV     R7,#0x2
        LJMP    ?BANKED_LEAVE_XDATA
        CFI EndBlock cfiBlock26
// 1667 
// 1668 /*********************************************************************
// 1669  * @fn      ZDApp_LeaveReset
// 1670  *
// 1671  * @brief   Setup a device reset due to a leave indication/confirm.
// 1672  *
// 1673  * @param   ra - reassociate flag
// 1674  *
// 1675  * @return  none
// 1676  */

        RSEG BANKED_CODE:CODE:NOROOT(0)
// 1677 void ZDApp_LeaveReset( uint8 ra )
ZDApp_LeaveReset:
        CFI Block cfiBlock27 Using cfiCommon0
        CFI Function ZDApp_LeaveReset
// 1678 {
        FUNCALL ZDApp_LeaveReset, ZDApp_LeaveCtrlSet
        LOCFRAME ISTACK, 2, STACK
        LOCFRAME PSTACK, 0, STACK
        LOCFRAME XSTACK, 0, STACK
        LOCFRAME IOVERLAY, 0, STATIC
        LOCFRAME DOVERLAY, 0, STATIC
        ARGFRAME ISTACK, 2, STACK
        ARGFRAME PSTACK, 0, STACK
        ARGFRAME XSTACK, 0, STACK
        ARGFRAME IOVERLAY, 0, STATIC
        ARGFRAME DOVERLAY, 0, STATIC
        FUNCALL ZDApp_LeaveReset, ZDApp_ResetTimerStart
        LOCFRAME ISTACK, 2, STACK
        LOCFRAME PSTACK, 0, STACK
        LOCFRAME XSTACK, 0, STACK
        LOCFRAME IOVERLAY, 0, STATIC
        LOCFRAME DOVERLAY, 0, STATIC
        ARGFRAME ISTACK, 2, STACK
        ARGFRAME PSTACK, 0, STACK
        ARGFRAME XSTACK, 0, STACK
        ARGFRAME IOVERLAY, 0, STATIC
        ARGFRAME DOVERLAY, 0, STATIC
        PUSH    DPL
        CFI DPL0 Frame(CFA_SP, 4)
        CFI CFA_SP SP+-4
        PUSH    DPH
        CFI DPH0 Frame(CFA_SP, 5)
        CFI CFA_SP SP+-5
        ; Saved register size: 2
        ; Auto size: 0
// 1679   ZDApp_LeaveCtrlSet( ra );
        ; Setup parameters for call to function ZDApp_LeaveCtrlSet
        LCALL   ??ZDApp_LeaveCtrlSet?relay
// 1680 
// 1681   ZDApp_ResetTimerStart( 5000 );
        ; Setup parameters for call to function ZDApp_ResetTimerStart
        MOV     R2,#-0x78
        MOV     R3,#0x13
        LCALL   ??ZDApp_ResetTimerStart?relay
// 1682 }
        POP     DPH
        CFI DPH0 SameValue
        CFI CFA_SP SP+-4
        POP     DPL
        CFI DPL0 SameValue
        CFI CFA_SP SP+-3
        LJMP    ?BRET
        CFI EndBlock cfiBlock27
// 1683 
// 1684 /*********************************************************************
// 1685  * @fn      ZDApp_LeaveUpdate
// 1686  *
// 1687  * @brief   Update local device data related to leaving device.
// 1688  *
// 1689  * @param   nwkAddr        - NWK address of leaving device
// 1690  * @param   extAddr        - EXT address of leaving device
// 1691  * @param   removeChildren - remove children of leaving device
// 1692  *
// 1693  * @return  none
// 1694  */

        RSEG BANKED_CODE:CODE:NOROOT(0)
// 1695 void ZDApp_LeaveUpdate( uint16 nwkAddr, uint8* extAddr,
ZDApp_LeaveUpdate:
        CFI Block cfiBlock28 Using cfiCommon0
        CFI Function ZDApp_LeaveUpdate
// 1696                         uint8 removeChildren )
// 1697 {
        FUNCALL ZDApp_LeaveUpdate, NLME_RemoveChild
        LOCFRAME ISTACK, 2, STACK
        LOCFRAME PSTACK, 0, STACK
        LOCFRAME XSTACK, 0, STACK
        LOCFRAME IOVERLAY, 0, STATIC
        LOCFRAME DOVERLAY, 0, STATIC
        ARGFRAME ISTACK, 2, STACK
        ARGFRAME PSTACK, 0, STACK
        ARGFRAME XSTACK, 0, STACK
        ARGFRAME IOVERLAY, 0, STATIC
        ARGFRAME DOVERLAY, 0, STATIC
        PUSH    DPL
        CFI DPL0 Frame(CFA_SP, 4)
        CFI CFA_SP SP+-4
        PUSH    DPH
        CFI DPH0 Frame(CFA_SP, 5)
        CFI CFA_SP SP+-5
        ; Saved register size: 2
        ; Auto size: 0
        MOV     A,R4
        MOV     R2,A
        MOV     A,R5
        MOV     R3,A
// 1698   /*
// 1699   AddrMgrEntry_t entry;
// 1700   */
// 1701   (void)nwkAddr;  // Intentionally unreferenced parameter
// 1702 
// 1703   // Remove if child
// 1704   if ( ZSTACK_ROUTER_BUILD )
// 1705   {
// 1706     NLME_RemoveChild( extAddr, removeChildren );
        ; Setup parameters for call to function NLME_RemoveChild
        LCALL   ??NLME_RemoveChild?relay
// 1707   }
// 1708 
// 1709   /*
// 1710   // Set NWK address to invalid
// 1711   entry.user    = ADDRMGR_USER_DEFAULT;
// 1712   entry.nwkAddr = INVALID_NODE_ADDR;
// 1713   AddrMgrExtAddrSet( entry.extAddr, extAddr );
// 1714   AddrMgrEntryUpdate( &entry );
// 1715 
// 1716   // Check
// 1717   if ( removeChildren == TRUE )
// 1718   {
// 1719     // Set index to INVALID_NODE_ADDR to start search
// 1720     entry.index = INVALID_NODE_ADDR;
// 1721 
// 1722     // Get first entry
// 1723     AddrMgrEntryGetNext( &entry );
// 1724 
// 1725     // Remove all descendents
// 1726     while ( entry.index != INVALID_NODE_ADDR )
// 1727     {
// 1728       // Check NWK address allocation algorithm
// 1729       if ( RTG_ANCESTOR( entry.nwkAddr, thisAddr ) != 0 )
// 1730       {
// 1731         // Set NWK address to invalid
// 1732         entry.nwkAddr = INVALID_NODE_ADDR;
// 1733         AddrMgrEntryUpdate( &entry );
// 1734       }
// 1735 
// 1736       // Get next entry
// 1737       AddrMgrEntryGetNext( &entry );
// 1738     }
// 1739   }
// 1740   */
// 1741 }
        POP     DPH
        CFI DPH0 SameValue
        CFI CFA_SP SP+-4
        POP     DPL
        CFI DPL0 SameValue
        CFI CFA_SP SP+-3
        LJMP    ?BRET
        CFI EndBlock cfiBlock28
// 1742 
// 1743 /*********************************************************************
// 1744  * CALLBACK FUNCTIONS
// 1745  */
// 1746 
// 1747 
// 1748 /*********************************************************************
// 1749  * @fn      ZDApp_SendEventMsg()
// 1750  *
// 1751  * @brief
// 1752  *
// 1753  *   Sends a Network Join message
// 1754  *
// 1755  * @param  cmd - command ID
// 1756  * @param  len - length (in bytes) of the buf field
// 1757  * @param  buf - buffer for the rest of the message.
// 1758  *
// 1759  * @return  none
// 1760  */

        RSEG BANKED_CODE:CODE:NOROOT(0)
// 1761 void ZDApp_SendEventMsg( uint8 cmd, uint8 len, uint8 *buf )
ZDApp_SendEventMsg:
        CFI Block cfiBlock29 Using cfiCommon0
        CFI Function ZDApp_SendEventMsg
// 1762 {
        FUNCALL ZDApp_SendEventMsg, ZDApp_SendMsg
        LOCFRAME ISTACK, 2, STACK
        LOCFRAME PSTACK, 0, STACK
        LOCFRAME XSTACK, 0, STACK
        LOCFRAME IOVERLAY, 0, STATIC
        LOCFRAME DOVERLAY, 0, STATIC
        ARGFRAME ISTACK, 2, STACK
        ARGFRAME PSTACK, 0, STACK
        ARGFRAME XSTACK, 0, STACK
        ARGFRAME IOVERLAY, 0, STATIC
        ARGFRAME DOVERLAY, 0, STATIC
        PUSH    DPL
        CFI DPL0 Frame(CFA_SP, 4)
        CFI CFA_SP SP+-4
        PUSH    DPH
        CFI DPH0 Frame(CFA_SP, 5)
        CFI CFA_SP SP+-5
        ; Saved register size: 2
        ; Auto size: 0
// 1763   ZDApp_SendMsg( ZDAppTaskID, cmd, len, buf );
        ; Setup parameters for call to function ZDApp_SendMsg
        MOV     A,R2
        MOV     R3,A
        MOV     A,R1
        MOV     R2,A
        MOV     DPTR,#ZDAppTaskID
        MOVX    A,@DPTR
        MOV     R1,A
        LCALL   ??ZDApp_SendMsg?relay
// 1764 }
        POP     DPH
        CFI DPH0 SameValue
        CFI CFA_SP SP+-4
        POP     DPL
        CFI DPL0 SameValue
        CFI CFA_SP SP+-3
        LJMP    ?BRET
        CFI EndBlock cfiBlock29
// 1765 
// 1766 /*********************************************************************
// 1767  * @fn      ZDApp_SendMsg()
// 1768  *
// 1769  * @brief   Sends a OSAL message
// 1770  *
// 1771  * @param  taskID - Where to send the message
// 1772  * @param  cmd - command ID
// 1773  * @param  len - length (in bytes) of the buf field
// 1774  * @param  buf - buffer for the rest of the message.
// 1775  *
// 1776  * @return  none
// 1777  */

        RSEG BANKED_CODE:CODE:NOROOT(0)
// 1778 void ZDApp_SendMsg( uint8 taskID, uint8 cmd, uint8 len, uint8 *buf )
ZDApp_SendMsg:
        CFI Block cfiBlock30 Using cfiCommon0
        CFI Function ZDApp_SendMsg
// 1779 {
        FUNCALL ZDApp_SendMsg, osal_msg_allocate
        LOCFRAME ISTACK, 0, STACK
        LOCFRAME PSTACK, 0, STACK
        LOCFRAME XSTACK, 17, STACK
        LOCFRAME IOVERLAY, 0, STATIC
        LOCFRAME DOVERLAY, 0, STATIC
        ARGFRAME ISTACK, 0, STACK
        ARGFRAME PSTACK, 0, STACK
        ARGFRAME XSTACK, 17, STACK
        ARGFRAME IOVERLAY, 0, STATIC
        ARGFRAME DOVERLAY, 0, STATIC
        FUNCALL ZDApp_SendMsg, osal_memcpy
        LOCFRAME ISTACK, 0, STACK
        LOCFRAME PSTACK, 0, STACK
        LOCFRAME XSTACK, 20, STACK
        LOCFRAME IOVERLAY, 0, STATIC
        LOCFRAME DOVERLAY, 0, STATIC
        ARGFRAME ISTACK, 0, STACK
        ARGFRAME PSTACK, 0, STACK
        ARGFRAME XSTACK, 20, STACK
        ARGFRAME IOVERLAY, 0, STATIC
        ARGFRAME DOVERLAY, 0, STATIC
        FUNCALL ZDApp_SendMsg, osal_msg_send
        LOCFRAME ISTACK, 0, STACK
        LOCFRAME PSTACK, 0, STACK
        LOCFRAME XSTACK, 17, STACK
        LOCFRAME IOVERLAY, 0, STATIC
        LOCFRAME DOVERLAY, 0, STATIC
        ARGFRAME ISTACK, 0, STACK
        ARGFRAME PSTACK, 0, STACK
        ARGFRAME XSTACK, 17, STACK
        ARGFRAME IOVERLAY, 0, STATIC
        ARGFRAME DOVERLAY, 0, STATIC
        MOV     A,#-0xe
        LCALL   ?BANKED_ENTER_XDATA
        CFI DPH0 load(1, XDATA, add(CFA_XSP16, literal(-1)))
        CFI DPL0 load(1, XDATA, add(CFA_XSP16, literal(-2)))
        CFI ?BRET_EXT load(1, XDATA, add(CFA_XSP16, literal(-3)))
        CFI ?RET_HIGH load(1, XDATA, add(CFA_XSP16, literal(-4)))
        CFI ?RET_LOW load(1, XDATA, add(CFA_XSP16, literal(-5)))
        CFI R7 load(1, XDATA, add(CFA_XSP16, literal(-6)))
        CFI V5 load(1, XDATA, add(CFA_XSP16, literal(-7)))
        CFI V4 load(1, XDATA, add(CFA_XSP16, literal(-8)))
        CFI V3 load(1, XDATA, add(CFA_XSP16, literal(-9)))
        CFI V2 load(1, XDATA, add(CFA_XSP16, literal(-10)))
        CFI V1 load(1, XDATA, add(CFA_XSP16, literal(-11)))
        CFI V0 load(1, XDATA, add(CFA_XSP16, literal(-12)))
        CFI VB load(1, XDATA, add(CFA_XSP16, literal(-13)))
        CFI R6 load(1, XDATA, add(CFA_XSP16, literal(-14)))
        CFI CFA_SP SP+0
        CFI CFA_XSP16 add(XSP16, 14)
        ; Saved register size: 14
        ; Auto size: 3
        MOV     A,#-0x3
        LCALL   ?ALLOC_XSTACK8
        CFI CFA_XSP16 add(XSP16, 17)
        MOV     A,R2
        MOV     DPL,?XSP + 0
        MOV     DPH,?XSP + 1
        MOVX    @DPTR,A
        MOV     A,#0x1
        LCALL   ?XSTACK_DISP0_8
        MOV     A,R4
        MOVX    @DPTR,A
        INC     DPTR
        MOV     A,R5
        MOVX    @DPTR,A
        MOV     ?V0 + 3,R1
// 1780   osal_event_hdr_t *msgPtr;
// 1781 
// 1782   // Send the address to the task
// 1783   msgPtr = (osal_event_hdr_t *)osal_msg_allocate( len );
        MOV     DPL,R3
        MOV     R6,DPL
        ; Setup parameters for call to function osal_msg_allocate
        MOV     A,R6
        MOV     R2,A
        MOV     R3,#0x0
        LCALL   ??osal_msg_allocate?relay
        MOV     ?V0 + 4,R2
        MOV     ?V0 + 5,R3
// 1784   if ( msgPtr )
        MOV     A,R2
        JNZ     ??ZDApp_SendMsg_0
        MOV     A,R3
??ZDApp_SendMsg_0:
        JZ      ??ZDApp_SendMsg_1
// 1785   {
// 1786     if ( (len > 0) && (buf != NULL) )
        MOV     A,R6
        JZ      ??ZDApp_SendMsg_2
        MOV     A,#0x1
        LCALL   ?XSTACK_DISP0_8
        MOVX    A,@DPTR
        JNZ     ??ZDApp_SendMsg_3
        INC     DPTR
        MOVX    A,@DPTR
??ZDApp_SendMsg_3:
        JZ      ??ZDApp_SendMsg_2
// 1787       osal_memcpy( msgPtr, buf, len );
        ; Setup parameters for call to function osal_memcpy
        MOV     A,#0x1
        LCALL   ?XSTACK_DISP0_8
        MOVX    A,@DPTR
        MOV     ?V0 + 0,A
        INC     DPTR
        MOVX    A,@DPTR
        MOV     ?V0 + 1,A
        MOV     ?V0 + 2,#0x0
        MOV     R0,#?V0 + 0
        LCALL   ?PUSH_XSTACK_I_THREE
        CFI CFA_XSP16 add(XSP16, 20)
        MOV     A,R6
        MOV     R4,A
        MOV     R5,#0x0
        LCALL   ??osal_memcpy?relay
        MOV     A,#0x3
        LCALL   ?DEALLOC_XSTACK8
        CFI CFA_XSP16 add(XSP16, 17)
// 1788 
// 1789     msgPtr->event = cmd;
??ZDApp_SendMsg_2:
        MOV     DPL,?XSP + 0
        MOV     DPH,?XSP + 1
        MOVX    A,@DPTR
        MOV     DPL,?V0 + 4
        MOV     DPH,?V0 + 5
        MOVX    @DPTR,A
// 1790     osal_msg_send( taskID, (uint8 *)msgPtr );
        ; Setup parameters for call to function osal_msg_send
        MOV     R2,?V0 + 4
        MOV     R3,?V0 + 5
        MOV     R1,?V0 + 3
        LCALL   ??osal_msg_send?relay
// 1791   }
// 1792 }
??ZDApp_SendMsg_1:
        MOV     A,#0x3
        LCALL   ?DEALLOC_XSTACK8
        CFI CFA_XSP16 add(XSP16, 14)
        MOV     R7,#0x6
        LJMP    ?BANKED_LEAVE_XDATA
        CFI EndBlock cfiBlock30
// 1793 
// 1794 /*********************************************************************
// 1795  * Call Back Functions from NWK  - API
// 1796  */
// 1797 
// 1798 /*********************************************************************
// 1799  * @fn          ZDO_NetworkDiscoveryConfirmCB
// 1800  *
// 1801  * @brief       This function returns a choice of PAN to join.
// 1802  *
// 1803  * @param       ResultCount - Number of routers discovered
// 1804  * @param               NetworkList - Pointer to list of network descriptors
// 1805  *
// 1806  * @return      ZStatus_t
// 1807  */
// 1808 #define STACK_PROFILE_MAX 2

        RSEG BANKED_CODE:CODE:NOROOT(0)
// 1809 ZStatus_t ZDO_NetworkDiscoveryConfirmCB( uint8 ResultCount,
ZDO_NetworkDiscoveryConfirmCB:
        CFI Block cfiBlock31 Using cfiCommon0
        CFI Function ZDO_NetworkDiscoveryConfirmCB
// 1810                                          networkDesc_t *NetworkList )
// 1811 {
        FUNCALL ZDO_NetworkDiscoveryConfirmCB, nwk_ExtPANIDValid
        LOCFRAME ISTACK, 0, STACK
        LOCFRAME PSTACK, 0, STACK
        LOCFRAME XSTACK, 28, STACK
        LOCFRAME IOVERLAY, 0, STATIC
        LOCFRAME DOVERLAY, 0, STATIC
        ARGFRAME ISTACK, 0, STACK
        ARGFRAME PSTACK, 0, STACK
        ARGFRAME XSTACK, 28, STACK
        ARGFRAME IOVERLAY, 0, STATIC
        ARGFRAME DOVERLAY, 0, STATIC
        FUNCALL ZDO_NetworkDiscoveryConfirmCB, sAddrExtCmp
        LOCFRAME ISTACK, 0, STACK
        LOCFRAME PSTACK, 0, STACK
        LOCFRAME XSTACK, 28, STACK
        LOCFRAME IOVERLAY, 0, STATIC
        LOCFRAME DOVERLAY, 0, STATIC
        ARGFRAME ISTACK, 0, STACK
        ARGFRAME PSTACK, 0, STACK
        ARGFRAME XSTACK, 28, STACK
        ARGFRAME IOVERLAY, 0, STATIC
        ARGFRAME DOVERLAY, 0, STATIC
        FUNCALL ZDO_NetworkDiscoveryConfirmCB, sAddrExtCpy
        LOCFRAME ISTACK, 0, STACK
        LOCFRAME PSTACK, 0, STACK
        LOCFRAME XSTACK, 28, STACK
        LOCFRAME IOVERLAY, 0, STATIC
        LOCFRAME DOVERLAY, 0, STATIC
        ARGFRAME ISTACK, 0, STACK
        ARGFRAME PSTACK, 0, STACK
        ARGFRAME XSTACK, 28, STACK
        ARGFRAME IOVERLAY, 0, STATIC
        ARGFRAME DOVERLAY, 0, STATIC
        FUNCALL ZDO_NetworkDiscoveryConfirmCB, ZDApp_SendMsg
        LOCFRAME ISTACK, 0, STACK
        LOCFRAME PSTACK, 0, STACK
        LOCFRAME XSTACK, 28, STACK
        LOCFRAME IOVERLAY, 0, STATIC
        LOCFRAME DOVERLAY, 0, STATIC
        ARGFRAME ISTACK, 0, STACK
        ARGFRAME PSTACK, 0, STACK
        ARGFRAME XSTACK, 28, STACK
        ARGFRAME IOVERLAY, 0, STATIC
        ARGFRAME DOVERLAY, 0, STATIC
        MOV     A,#-0xe
        LCALL   ?BANKED_ENTER_XDATA
        CFI DPH0 load(1, XDATA, add(CFA_XSP16, literal(-1)))
        CFI DPL0 load(1, XDATA, add(CFA_XSP16, literal(-2)))
        CFI ?BRET_EXT load(1, XDATA, add(CFA_XSP16, literal(-3)))
        CFI ?RET_HIGH load(1, XDATA, add(CFA_XSP16, literal(-4)))
        CFI ?RET_LOW load(1, XDATA, add(CFA_XSP16, literal(-5)))
        CFI R7 load(1, XDATA, add(CFA_XSP16, literal(-6)))
        CFI V5 load(1, XDATA, add(CFA_XSP16, literal(-7)))
        CFI V4 load(1, XDATA, add(CFA_XSP16, literal(-8)))
        CFI V3 load(1, XDATA, add(CFA_XSP16, literal(-9)))
        CFI V2 load(1, XDATA, add(CFA_XSP16, literal(-10)))
        CFI V1 load(1, XDATA, add(CFA_XSP16, literal(-11)))
        CFI V0 load(1, XDATA, add(CFA_XSP16, literal(-12)))
        CFI VB load(1, XDATA, add(CFA_XSP16, literal(-13)))
        CFI R6 load(1, XDATA, add(CFA_XSP16, literal(-14)))
        CFI CFA_SP SP+0
        CFI CFA_XSP16 add(XSP16, 14)
        ; Saved register size: 14
        ; Auto size: 14
        MOV     A,#-0xe
        LCALL   ?ALLOC_XSTACK8
        CFI CFA_XSP16 add(XSP16, 28)
        MOV     ?V0 + 3,R1
        MOV     ?V0 + 4,R2
        MOV     ?V0 + 5,R3
// 1812   networkDesc_t *pNwkDesc = NetworkList;
        MOV     R6,?V0 + 4
        MOV     R7,?V0 + 5
// 1813   ZDO_NetworkDiscoveryCfm_t msg;
// 1814   uint8 i = ResultCount;
        MOV     ?V0 + 0,R1
// 1815   uint8 stackProfile;
// 1816   uint8 stackProfilePro;
// 1817   uint8 selected;
// 1818 
// 1819 #if defined ( ZDO_MGMT_NWKDISC_RESPONSE )
// 1820   if ( zdappMgmtNwkDiscReqInProgress )
// 1821   {
// 1822     zdappMgmtNwkDiscReqInProgress = false;
// 1823     ZDO_FinishProcessingMgmtNwkDiscReq( ResultCount, NetworkList );
// 1824     return ( ZSuccess );
// 1825   }
// 1826 #endif
// 1827 
// 1828   // process discovery results
// 1829   stackProfilePro = FALSE;
        MOV     ?V0 + 1,#0x0
// 1830   selected = FALSE;
// 1831 
// 1832   for ( stackProfile = 0; stackProfile < STACK_PROFILE_MAX; stackProfile++ )
        MOV     ?V0 + 2,#0x0
        SJMP    ??ZDO_NetworkDiscoveryConfirmCB_0
??ZDO_NetworkDiscoveryConfirmCB_1:
        INC     ?V0 + 2
??ZDO_NetworkDiscoveryConfirmCB_0:
        MOV     A,?V0 + 2
        CLR     C
        SUBB    A,#0x2
        JC      $+5
        LJMP    ??ZDO_NetworkDiscoveryConfirmCB_2 & 0xFFFF
// 1833   {
// 1834     pNwkDesc = NetworkList;
        MOV     R6,?V0 + 4
        MOV     R7,?V0 + 5
// 1835     for ( i = 0; i < ResultCount; i++, pNwkDesc = pNwkDesc->nextDesc )
        MOV     ?V0 + 0,#0x0
        SJMP    ??ZDO_NetworkDiscoveryConfirmCB_3
// 1836     {
// 1837       if ( zgConfigPANID != 0xFFFF )
// 1838       {
// 1839         // PAN Id is preconfigured. check if it matches
// 1840         if ( pNwkDesc->panId != zgConfigPANID )
// 1841           continue;
// 1842       }
// 1843 
// 1844 
// 1845       if ( nwk_ExtPANIDValid( ZDO_UseExtendedPANID) == true )
// 1846       {
// 1847         // If the extended Pan ID is commissioned to a non zero value
// 1848         // Only join the Pan that has match EPID
// 1849         if ( osal_ExtAddrEqual( ZDO_UseExtendedPANID, pNwkDesc->extendedPANID) == false )
// 1850           continue;
// 1851 
// 1852       }
// 1853 
// 1854 
// 1855         // check that network is allowing joining
// 1856         if ( ZSTACK_ROUTER_BUILD )
// 1857         {
// 1858           if ( stackProfilePro == FALSE )
// 1859           {
// 1860             if ( !pNwkDesc->routerCapacity )
??ZDO_NetworkDiscoveryConfirmCB_4:
        MOVX    A,@DPTR
        JNZ     ??ZDO_NetworkDiscoveryConfirmCB_5
// 1861             {
// 1862               continue;
// 1863             }
// 1864           }
??ZDO_NetworkDiscoveryConfirmCB_6:
        INC     ?V0 + 0
        MOV     A,R6
        ADD     A,#0x16
        MOV     DPL,A
        MOV     A,R7
        ADDC    A,#0x0
        MOV     DPH,A
        MOVX    A,@DPTR
        MOV     R6,A
        INC     DPTR
        MOVX    A,@DPTR
        MOV     R7,A
??ZDO_NetworkDiscoveryConfirmCB_3:
        MOV     A,?V0 + 0
        CLR     C
        SUBB    A,?V0 + 3
        JC      $+5
        LJMP    ??ZDO_NetworkDiscoveryConfirmCB_7 & 0xFFFF
        MOV     DPTR,#zgConfigPANID
        MOVX    A,@DPTR
        XRL     A,#0xff
        JNZ     ??ZDO_NetworkDiscoveryConfirmCB_8
        INC     DPTR
        MOVX    A,@DPTR
        XRL     A,#0xff
??ZDO_NetworkDiscoveryConfirmCB_8:
        JZ      ??ZDO_NetworkDiscoveryConfirmCB_9
        MOV     DPL,R6
        MOV     DPH,R7
        MOVX    A,@DPTR
        MOV     R0,A
        INC     DPTR
        MOVX    A,@DPTR
        MOV     R1,A
        MOV     DPTR,#zgConfigPANID
        MOVX    A,@DPTR
        XRL     A,R0
        JNZ     ??ZDO_NetworkDiscoveryConfirmCB_10
        INC     DPTR
        MOVX    A,@DPTR
        XRL     A,R1
??ZDO_NetworkDiscoveryConfirmCB_10:
        JNZ     ??ZDO_NetworkDiscoveryConfirmCB_6
??ZDO_NetworkDiscoveryConfirmCB_9:
        ; Setup parameters for call to function nwk_ExtPANIDValid
        MOV     R2,#(ZDO_UseExtendedPANID & 0xff)
        MOV     R3,#((ZDO_UseExtendedPANID >> 8) & 0xff)
        LCALL   ??nwk_ExtPANIDValid?relay
        MOV     A,R1
        XRL     A,#0x1
        JNZ     ??ZDO_NetworkDiscoveryConfirmCB_11
        ; Setup parameters for call to function sAddrExtCmp
        MOV     A,R6
        ADD     A,#0xd
        MOV     R4,A
        MOV     A,R7
        ADDC    A,#0x0
        MOV     R5,A
        MOV     R2,#(ZDO_UseExtendedPANID & 0xff)
        MOV     R3,#((ZDO_UseExtendedPANID >> 8) & 0xff)
        LCALL   ??sAddrExtCmp?relay
        MOV     A,R1
        JZ      ??ZDO_NetworkDiscoveryConfirmCB_6
??ZDO_NetworkDiscoveryConfirmCB_11:
        MOV     A,?V0 + 1
        MOV     DPL,R6
        MOV     DPH,R7
        INC     DPTR
        INC     DPTR
        INC     DPTR
        INC     DPTR
        INC     DPTR
        JZ      ??ZDO_NetworkDiscoveryConfirmCB_4
// 1865           else
// 1866           {
// 1867             if ( !pNwkDesc->deviceCapacity )
        INC     DPTR
        MOVX    A,@DPTR
        JZ      ??ZDO_NetworkDiscoveryConfirmCB_6
// 1868             {
// 1869               continue;
// 1870             }
// 1871           }
// 1872         }
// 1873         else if ( ZSTACK_END_DEVICE_BUILD )
// 1874         {
// 1875           if ( !pNwkDesc->deviceCapacity )
// 1876           {
// 1877             continue;
// 1878           }
// 1879         }
// 1880 
// 1881         // check version of zigbee protocol
// 1882         if ( pNwkDesc->version != _NIB.nwkProtocolVersion )
??ZDO_NetworkDiscoveryConfirmCB_5:
        MOV     DPL,R6
        MOV     DPH,R7
        INC     DPTR
        INC     DPTR
        INC     DPTR
        INC     DPTR
        INC     DPTR
        INC     DPTR
        INC     DPTR
        MOVX    A,@DPTR
        MOV     R2,A
        MOV     DPTR,#(_NIB + 17)
        MOVX    A,@DPTR
        XRL     A,R2
        JZ      $+5
        LJMP    ??ZDO_NetworkDiscoveryConfirmCB_6 & 0xFFFF
// 1883           continue;
// 1884 
// 1885         // check version of stack profile
// 1886         if ( pNwkDesc->stackProfile != zgStackProfile  )
        MOV     A,R6
        ADD     A,#0x8
        MOV     R0,A
        MOV     A,R7
        ADDC    A,#0x0
        MOV     R1,A
        MOV     DPL,R0
        MOV     DPH,R1
        MOVX    A,@DPTR
        MOV     R2,A
        MOV     DPTR,#zgStackProfile
        MOVX    A,@DPTR
        XRL     A,R2
        JZ      ??ZDO_NetworkDiscoveryConfirmCB_7
// 1887         {
// 1888           if ( ((zgStackProfile == HOME_CONTROLS) && (pNwkDesc->stackProfile == ZIGBEEPRO_PROFILE))
// 1889               || ((zgStackProfile == ZIGBEEPRO_PROFILE) && (pNwkDesc->stackProfile == HOME_CONTROLS))  )
        MOVX    A,@DPTR
        XRL     A,#0x1
        JNZ     ??ZDO_NetworkDiscoveryConfirmCB_12
        MOV     DPL,R0
        MOV     DPH,R1
        MOVX    A,@DPTR
        XRL     A,#0x2
        JZ      ??ZDO_NetworkDiscoveryConfirmCB_13
??ZDO_NetworkDiscoveryConfirmCB_12:
        MOV     DPTR,#zgStackProfile
        MOVX    A,@DPTR
        XRL     A,#0x2
        JNZ     ??ZDO_NetworkDiscoveryConfirmCB_14
        MOV     DPL,R0
        MOV     DPH,R1
        MOVX    A,@DPTR
        XRL     A,#0x1
        JNZ     ??ZDO_NetworkDiscoveryConfirmCB_14
// 1890             stackProfilePro = TRUE;
??ZDO_NetworkDiscoveryConfirmCB_13:
        MOV     ?V0 + 1,#0x1
// 1891 
// 1892           if ( stackProfile == 0 )
??ZDO_NetworkDiscoveryConfirmCB_14:
        MOV     A,?V0 + 2
        JNZ     $+5
        LJMP    ??ZDO_NetworkDiscoveryConfirmCB_6 & 0xFFFF
// 1893           {
// 1894             continue;
// 1895           }
// 1896         }
// 1897 
// 1898       // check if beacon order is the right value..
// 1899       //  if ( pNwkDesc->beaconOrder < ZDO_CONFIG_MAX_BO )
// 1900       //    continue;
// 1901 
// 1902       // choose this pan for joining
// 1903       break;
// 1904     }
// 1905     if (i < ResultCount)
??ZDO_NetworkDiscoveryConfirmCB_7:
        MOV     A,?V0 + 0
        CLR     C
        SUBB    A,?V0 + 3
        JC      ??ZDO_NetworkDiscoveryConfirmCB_2
// 1906     {
// 1907      selected = TRUE;
// 1908       break;
// 1909     }
// 1910 
// 1911     // break if selected or stack profile pro wasn't found
// 1912     if ( (selected == TRUE) || (stackProfilePro == FALSE) )
        MOV     A,?V0 + 1
        JZ      $+5
        LJMP    ??ZDO_NetworkDiscoveryConfirmCB_1 & 0xFFFF
// 1913     {
// 1914       break;
// 1915     }
// 1916   }
// 1917 
// 1918   if ( i == ResultCount )
??ZDO_NetworkDiscoveryConfirmCB_2:
        MOV     A,?V0 + 3
        XRL     A,?V0 + 0
        JNZ     ??ZDO_NetworkDiscoveryConfirmCB_15
// 1919   {
// 1920     msg.hdr.status = ZDO_FAIL;   // couldn't find appropriate PAN to join !
        MOV     A,#0x1
        PUSH    A
        CFI CFA_SP SP+-1
        LCALL   ?XSTACK_DISP0_8
        POP     A
        CFI CFA_SP SP+0
        MOVX    @DPTR,A
        SJMP    ??ZDO_NetworkDiscoveryConfirmCB_16
// 1921   }
// 1922   else
// 1923   {
// 1924     msg.hdr.status = ZDO_SUCCESS;
??ZDO_NetworkDiscoveryConfirmCB_15:
        CLR     A
        PUSH    A
        CFI CFA_SP SP+-1
        MOV     A,#0x1
        LCALL   ?XSTACK_DISP0_8
        POP     A
        CFI CFA_SP SP+0
        MOVX    @DPTR,A
// 1925     msg.panIdLSB = LO_UINT16( pNwkDesc->panId );
        MOV     DPL,R6
        MOV     DPH,R7
        MOVX    A,@DPTR
        PUSH    A
        CFI CFA_SP SP+-1
        MOV     A,#0x2
        LCALL   ?XSTACK_DISP0_8
        POP     A
        CFI CFA_SP SP+0
        MOVX    @DPTR,A
// 1926     msg.panIdMSB = HI_UINT16( pNwkDesc->panId );
        MOV     DPL,R6
        MOV     DPH,R7
        INC     DPTR
        MOVX    A,@DPTR
        PUSH    A
        CFI CFA_SP SP+-1
        MOV     A,#0x3
        LCALL   ?XSTACK_DISP0_8
        POP     A
        CFI CFA_SP SP+0
        MOVX    @DPTR,A
// 1927     msg.logicalChannel = pNwkDesc->logicalChannel;
        MOV     DPL,R6
        MOV     DPH,R7
        INC     DPTR
        INC     DPTR
        MOVX    A,@DPTR
        PUSH    A
        CFI CFA_SP SP+-1
        MOV     A,#0x4
        LCALL   ?XSTACK_DISP0_8
        POP     A
        CFI CFA_SP SP+0
        MOVX    @DPTR,A
// 1928     msg.version = pNwkDesc->version;
        MOV     DPL,R6
        MOV     DPH,R7
        INC     DPTR
        INC     DPTR
        INC     DPTR
        INC     DPTR
        INC     DPTR
        INC     DPTR
        INC     DPTR
        MOVX    A,@DPTR
        PUSH    A
        CFI CFA_SP SP+-1
        MOV     A,#0x5
        LCALL   ?XSTACK_DISP0_8
        POP     A
        CFI CFA_SP SP+0
        MOVX    @DPTR,A
// 1929     osal_cpyExtAddr( msg.extendedPANID, pNwkDesc->extendedPANID );
        ; Setup parameters for call to function sAddrExtCpy
        MOV     A,R6
        ADD     A,#0xd
        MOV     R4,A
        MOV     A,R7
        ADDC    A,#0x0
        MOV     R5,A
        MOV     A,#0x6
        LCALL   ?XSTACK_DISP0_8
        MOV     R2,DPL
        MOV     R3,DPH
        LCALL   ??sAddrExtCpy?relay
// 1930   }
// 1931 
// 1932   ZDApp_SendMsg( ZDAppTaskID, ZDO_NWK_DISC_CNF, sizeof(ZDO_NetworkDiscoveryCfm_t), (uint8 *)&msg );
??ZDO_NetworkDiscoveryConfirmCB_16:
        ; Setup parameters for call to function ZDApp_SendMsg
        MOV     DPL,?XSP + 0
        MOV     DPH,?XSP + 1
        MOV     R4,DPL
        MOV     R5,DPH
        MOV     R3,#0xe
        MOV     R2,#0x1
        MOV     DPTR,#ZDAppTaskID
        MOVX    A,@DPTR
        MOV     R1,A
        LCALL   ??ZDApp_SendMsg?relay
// 1933 
// 1934   return (ZSuccess);
        MOV     R1,#0x0
        MOV     A,#0xe
        LCALL   ?DEALLOC_XSTACK8
        CFI CFA_XSP16 add(XSP16, 14)
        MOV     R7,#0x6
        LJMP    ?BANKED_LEAVE_XDATA
        CFI EndBlock cfiBlock31
// 1935 }  // ZDO_NetworkDiscoveryConfirmCB
// 1936 
// 1937 /*********************************************************************
// 1938  * @fn          ZDO_NetworkFormationConfirmCB
// 1939  *
// 1940  * @brief       This function reports the results of the request to
// 1941  *              initialize a coordinator in a network.
// 1942  *
// 1943  * @param       Status - Result of NLME_NetworkFormationRequest()
// 1944  *
// 1945  * @return      none
// 1946  */

        RSEG BANKED_CODE:CODE:NOROOT(0)
// 1947 void ZDO_NetworkFormationConfirmCB( ZStatus_t Status )
ZDO_NetworkFormationConfirmCB:
        CFI Block cfiBlock32 Using cfiCommon0
        CFI Function ZDO_NetworkFormationConfirmCB
// 1948 {
        FUNCALL ZDO_NetworkFormationConfirmCB, HalLedSet
        LOCFRAME ISTACK, 2, STACK
        LOCFRAME PSTACK, 0, STACK
        LOCFRAME XSTACK, 0, STACK
        LOCFRAME IOVERLAY, 0, STATIC
        LOCFRAME DOVERLAY, 0, STATIC
        ARGFRAME ISTACK, 2, STACK
        ARGFRAME PSTACK, 0, STACK
        ARGFRAME XSTACK, 0, STACK
        ARGFRAME IOVERLAY, 0, STATIC
        ARGFRAME DOVERLAY, 0, STATIC
        FUNCALL ZDO_NetworkFormationConfirmCB, HalLedSet
        LOCFRAME ISTACK, 2, STACK
        LOCFRAME PSTACK, 0, STACK
        LOCFRAME XSTACK, 0, STACK
        LOCFRAME IOVERLAY, 0, STATIC
        LOCFRAME DOVERLAY, 0, STATIC
        ARGFRAME ISTACK, 2, STACK
        ARGFRAME PSTACK, 0, STACK
        ARGFRAME XSTACK, 0, STACK
        ARGFRAME IOVERLAY, 0, STATIC
        ARGFRAME DOVERLAY, 0, STATIC
        FUNCALL ZDO_NetworkFormationConfirmCB, HalLedSet
        LOCFRAME ISTACK, 2, STACK
        LOCFRAME PSTACK, 0, STACK
        LOCFRAME XSTACK, 0, STACK
        LOCFRAME IOVERLAY, 0, STATIC
        LOCFRAME DOVERLAY, 0, STATIC
        ARGFRAME ISTACK, 2, STACK
        ARGFRAME PSTACK, 0, STACK
        ARGFRAME XSTACK, 0, STACK
        ARGFRAME IOVERLAY, 0, STATIC
        ARGFRAME DOVERLAY, 0, STATIC
        FUNCALL ZDO_NetworkFormationConfirmCB, osal_set_event
        LOCFRAME ISTACK, 2, STACK
        LOCFRAME PSTACK, 0, STACK
        LOCFRAME XSTACK, 0, STACK
        LOCFRAME IOVERLAY, 0, STATIC
        LOCFRAME DOVERLAY, 0, STATIC
        ARGFRAME ISTACK, 2, STACK
        ARGFRAME PSTACK, 0, STACK
        ARGFRAME XSTACK, 0, STACK
        ARGFRAME IOVERLAY, 0, STATIC
        ARGFRAME DOVERLAY, 0, STATIC
        PUSH    DPL
        CFI DPL0 Frame(CFA_SP, 4)
        CFI CFA_SP SP+-4
        PUSH    DPH
        CFI DPH0 Frame(CFA_SP, 5)
        CFI CFA_SP SP+-5
        ; Saved register size: 2
        ; Auto size: 0
// 1949   nwkStatus = (byte)Status;
        MOV     A,R1
        MOV     DPTR,#nwkStatus
        MOVX    @DPTR,A
// 1950 
// 1951   if ( Status == ZSUCCESS )
        JNZ     ??ZDO_NetworkFormationConfirmCB_0
// 1952   {
// 1953     // LED on shows Coordinator started
// 1954     HalLedSet ( HAL_LED_3, HAL_LED_MODE_ON );
        ; Setup parameters for call to function HalLedSet
        MOV     R2,#0x1
        MOV     R1,#0x4
        LCALL   ??HalLedSet?relay
// 1955 
// 1956     // LED off forgets HOLD_AUTO_START
// 1957     HalLedSet (HAL_LED_4, HAL_LED_MODE_OFF);
        ; Setup parameters for call to function HalLedSet
        MOV     R2,#0x0
        MOV     R1,#0x8
        LCALL   ??HalLedSet?relay
// 1958 
// 1959 #if defined ( ZBIT )
// 1960     SIM_SetColor(0xd0ffd0);
// 1961 #endif
// 1962 
// 1963     if ( devState == DEV_HOLD )
        MOV     DPTR,#devState
        MOVX    A,@DPTR
        JNZ     ??ZDO_NetworkFormationConfirmCB_1
// 1964     {
// 1965       // Began with HOLD_AUTO_START
// 1966       devState = DEV_COORD_STARTING;
        MOV     A,#0x8
        MOVX    @DPTR,A
        SJMP    ??ZDO_NetworkFormationConfirmCB_1
// 1967     }
// 1968   }
// 1969 #if defined(BLINK_LEDS)
// 1970   else
// 1971     HalLedSet ( HAL_LED_3, HAL_LED_MODE_FLASH );  // Flash LED to show failure
??ZDO_NetworkFormationConfirmCB_0:
        ; Setup parameters for call to function HalLedSet
        MOV     R2,#0x4
        MOV     R1,#0x4
        LCALL   ??HalLedSet?relay
// 1972 #endif
// 1973 
// 1974   osal_set_event( ZDAppTaskID, ZDO_NETWORK_START );
??ZDO_NetworkFormationConfirmCB_1:
        ; Setup parameters for call to function osal_set_event
        MOV     R2,#0x2
        MOV     R3,#0x0
        MOV     DPTR,#ZDAppTaskID
        MOVX    A,@DPTR
        MOV     R1,A
        LCALL   ??osal_set_event?relay
// 1975 }
        POP     DPH
        CFI DPH0 SameValue
        CFI CFA_SP SP+-4
        POP     DPL
        CFI DPL0 SameValue
        CFI CFA_SP SP+-3
        LJMP    ?BRET
        CFI EndBlock cfiBlock32
// 1976 
// 1977 /*********************************************************************
// 1978  * @fn          ZDO_StartRouterConfirmCB
// 1979  *
// 1980  * @brief       This function reports the results of the request to
// 1981  *              start functioning as a router in a network.
// 1982  *
// 1983  * @param       Status - Result of NLME_StartRouterRequest()
// 1984  *
// 1985  * @return      none
// 1986  */

        RSEG BANKED_CODE:CODE:NOROOT(0)
// 1987 void ZDO_StartRouterConfirmCB( ZStatus_t Status )
ZDO_StartRouterConfirmCB:
        CFI Block cfiBlock33 Using cfiCommon0
        CFI Function ZDO_StartRouterConfirmCB
// 1988 {
        FUNCALL ZDO_StartRouterConfirmCB, HalLedSet
        LOCFRAME ISTACK, 2, STACK
        LOCFRAME PSTACK, 0, STACK
        LOCFRAME XSTACK, 0, STACK
        LOCFRAME IOVERLAY, 0, STATIC
        LOCFRAME DOVERLAY, 0, STATIC
        ARGFRAME ISTACK, 2, STACK
        ARGFRAME PSTACK, 0, STACK
        ARGFRAME XSTACK, 0, STACK
        ARGFRAME IOVERLAY, 0, STATIC
        ARGFRAME DOVERLAY, 0, STATIC
        FUNCALL ZDO_StartRouterConfirmCB, HalLedSet
        LOCFRAME ISTACK, 2, STACK
        LOCFRAME PSTACK, 0, STACK
        LOCFRAME XSTACK, 0, STACK
        LOCFRAME IOVERLAY, 0, STATIC
        LOCFRAME DOVERLAY, 0, STATIC
        ARGFRAME ISTACK, 2, STACK
        ARGFRAME PSTACK, 0, STACK
        ARGFRAME XSTACK, 0, STACK
        ARGFRAME IOVERLAY, 0, STATIC
        ARGFRAME DOVERLAY, 0, STATIC
        FUNCALL ZDO_StartRouterConfirmCB, HalLedSet
        LOCFRAME ISTACK, 2, STACK
        LOCFRAME PSTACK, 0, STACK
        LOCFRAME XSTACK, 0, STACK
        LOCFRAME IOVERLAY, 0, STATIC
        LOCFRAME DOVERLAY, 0, STATIC
        ARGFRAME ISTACK, 2, STACK
        ARGFRAME PSTACK, 0, STACK
        ARGFRAME XSTACK, 0, STACK
        ARGFRAME IOVERLAY, 0, STATIC
        ARGFRAME DOVERLAY, 0, STATIC
        FUNCALL ZDO_StartRouterConfirmCB, osal_set_event
        LOCFRAME ISTACK, 2, STACK
        LOCFRAME PSTACK, 0, STACK
        LOCFRAME XSTACK, 0, STACK
        LOCFRAME IOVERLAY, 0, STATIC
        LOCFRAME DOVERLAY, 0, STATIC
        ARGFRAME ISTACK, 2, STACK
        ARGFRAME PSTACK, 0, STACK
        ARGFRAME XSTACK, 0, STACK
        ARGFRAME IOVERLAY, 0, STATIC
        ARGFRAME DOVERLAY, 0, STATIC
        PUSH    DPL
        CFI DPL0 Frame(CFA_SP, 4)
        CFI CFA_SP SP+-4
        PUSH    DPH
        CFI DPH0 Frame(CFA_SP, 5)
        CFI CFA_SP SP+-5
        ; Saved register size: 2
        ; Auto size: 0
// 1989   nwkStatus = (byte)Status;
        MOV     A,R1
        MOV     DPTR,#nwkStatus
        MOVX    @DPTR,A
// 1990 
// 1991   if ( Status == ZSUCCESS )
        JNZ     ??ZDO_StartRouterConfirmCB_0
// 1992   {
// 1993     // LED on shows Router started
// 1994     HalLedSet ( HAL_LED_3, HAL_LED_MODE_ON );
        ; Setup parameters for call to function HalLedSet
        MOV     R2,#0x1
        MOV     R1,#0x4
        LCALL   ??HalLedSet?relay
// 1995     // LED off forgets HOLD_AUTO_START
// 1996     HalLedSet ( HAL_LED_4, HAL_LED_MODE_OFF);
        ; Setup parameters for call to function HalLedSet
        MOV     R2,#0x0
        MOV     R1,#0x8
        LCALL   ??HalLedSet?relay
// 1997     if ( devState == DEV_HOLD )
        MOV     DPTR,#devState
        MOVX    A,@DPTR
        JNZ     ??ZDO_StartRouterConfirmCB_1
// 1998     {
// 1999       // Began with HOLD_AUTO_START
// 2000       devState = DEV_END_DEVICE;
        MOV     A,#0x6
        MOVX    @DPTR,A
        SJMP    ??ZDO_StartRouterConfirmCB_1
// 2001     }
// 2002   }
// 2003 #if defined(BLINK_LEDS)
// 2004   else
// 2005     HalLedSet( HAL_LED_3, HAL_LED_MODE_FLASH );  // Flash LED to show failure
??ZDO_StartRouterConfirmCB_0:
        ; Setup parameters for call to function HalLedSet
        MOV     R2,#0x4
        MOV     R1,#0x4
        LCALL   ??HalLedSet?relay
// 2006 #endif
// 2007 
// 2008   osal_set_event( ZDAppTaskID, ZDO_ROUTER_START );
??ZDO_StartRouterConfirmCB_1:
        ; Setup parameters for call to function osal_set_event
        MOV     R2,#0x20
        MOV     R3,#0x0
        MOV     DPTR,#ZDAppTaskID
        MOVX    A,@DPTR
        MOV     R1,A
        LCALL   ??osal_set_event?relay
// 2009 }
        POP     DPH
        CFI DPH0 SameValue
        CFI CFA_SP SP+-4
        POP     DPL
        CFI DPL0 SameValue
        CFI CFA_SP SP+-3
        LJMP    ?BRET
        CFI EndBlock cfiBlock33
// 2010 
// 2011 /*********************************************************************
// 2012  * @fn          ZDO_JoinConfirmCB
// 2013  *
// 2014  * @brief       This function allows the next hight layer to be notified
// 2015  *              of the results of its request to join itself or another
// 2016  *              device to a network.
// 2017  *
// 2018  * @param       Status - Result of NLME_JoinRequest()
// 2019  *
// 2020  * @return      none
// 2021  */

        RSEG BANKED_CODE:CODE:NOROOT(0)
// 2022 void ZDO_JoinConfirmCB( uint16 PanId, ZStatus_t Status )
ZDO_JoinConfirmCB:
        CFI Block cfiBlock34 Using cfiCommon0
        CFI Function ZDO_JoinConfirmCB
// 2023 {
        FUNCALL ZDO_JoinConfirmCB, HalLedSet
        LOCFRAME ISTACK, 2, STACK
        LOCFRAME PSTACK, 0, STACK
        LOCFRAME XSTACK, 0, STACK
        LOCFRAME IOVERLAY, 0, STATIC
        LOCFRAME DOVERLAY, 0, STATIC
        ARGFRAME ISTACK, 2, STACK
        ARGFRAME PSTACK, 0, STACK
        ARGFRAME XSTACK, 0, STACK
        ARGFRAME IOVERLAY, 0, STATIC
        ARGFRAME DOVERLAY, 0, STATIC
        FUNCALL ZDO_JoinConfirmCB, HalLedSet
        LOCFRAME ISTACK, 2, STACK
        LOCFRAME PSTACK, 0, STACK
        LOCFRAME XSTACK, 0, STACK
        LOCFRAME IOVERLAY, 0, STATIC
        LOCFRAME DOVERLAY, 0, STATIC
        ARGFRAME ISTACK, 2, STACK
        ARGFRAME PSTACK, 0, STACK
        ARGFRAME XSTACK, 0, STACK
        ARGFRAME IOVERLAY, 0, STATIC
        ARGFRAME DOVERLAY, 0, STATIC
        FUNCALL ZDO_JoinConfirmCB, ZDApp_NVUpdate
        LOCFRAME ISTACK, 2, STACK
        LOCFRAME PSTACK, 0, STACK
        LOCFRAME XSTACK, 0, STACK
        LOCFRAME IOVERLAY, 0, STATIC
        LOCFRAME DOVERLAY, 0, STATIC
        ARGFRAME ISTACK, 2, STACK
        ARGFRAME PSTACK, 0, STACK
        ARGFRAME XSTACK, 0, STACK
        ARGFRAME IOVERLAY, 0, STATIC
        ARGFRAME DOVERLAY, 0, STATIC
        FUNCALL ZDO_JoinConfirmCB, HalLedSet
        LOCFRAME ISTACK, 2, STACK
        LOCFRAME PSTACK, 0, STACK
        LOCFRAME XSTACK, 0, STACK
        LOCFRAME IOVERLAY, 0, STATIC
        LOCFRAME DOVERLAY, 0, STATIC
        ARGFRAME ISTACK, 2, STACK
        ARGFRAME PSTACK, 0, STACK
        ARGFRAME XSTACK, 0, STACK
        ARGFRAME IOVERLAY, 0, STATIC
        ARGFRAME DOVERLAY, 0, STATIC
        FUNCALL ZDO_JoinConfirmCB, ZDApp_SendMsg
        LOCFRAME ISTACK, 2, STACK
        LOCFRAME PSTACK, 0, STACK
        LOCFRAME XSTACK, 0, STACK
        LOCFRAME IOVERLAY, 0, STATIC
        LOCFRAME DOVERLAY, 0, STATIC
        ARGFRAME ISTACK, 2, STACK
        ARGFRAME PSTACK, 0, STACK
        ARGFRAME XSTACK, 0, STACK
        ARGFRAME IOVERLAY, 0, STATIC
        ARGFRAME DOVERLAY, 0, STATIC
        PUSH    DPL
        CFI DPL0 Frame(CFA_SP, 4)
        CFI CFA_SP SP+-4
        PUSH    DPH
        CFI DPH0 Frame(CFA_SP, 5)
        CFI CFA_SP SP+-5
        ; Saved register size: 2
        ; Auto size: 0
// 2024   (void)PanId;  // remove if this parameter is used.
// 2025 
// 2026   nwkStatus = (byte)Status;
        MOV     A,R1
        MOV     DPTR,#nwkStatus
        MOVX    @DPTR,A
// 2027 
// 2028   if ( Status == ZSUCCESS )
        JNZ     ??ZDO_JoinConfirmCB_0
// 2029   {
// 2030     // LED on shows device joined
// 2031     HalLedSet ( HAL_LED_3, HAL_LED_MODE_ON );
        ; Setup parameters for call to function HalLedSet
        MOV     R2,#0x1
        MOV     R1,#0x4
        LCALL   ??HalLedSet?relay
// 2032     // LED off forgets HOLD_AUTO_START
// 2033     HalLedSet ( HAL_LED_4, HAL_LED_MODE_OFF);
        ; Setup parameters for call to function HalLedSet
        MOV     R2,#0x0
        MOV     R1,#0x8
        LCALL   ??HalLedSet?relay
// 2034     if ( (devState == DEV_HOLD) )
        MOV     DPTR,#devState
        MOVX    A,@DPTR
        JNZ     ??ZDO_JoinConfirmCB_1
// 2035     {
// 2036       // Began with HOLD_AUTO_START
// 2037       devState = DEV_NWK_JOINING;
        MOV     A,#0x3
        MOVX    @DPTR,A
// 2038     }
// 2039 
// 2040     if ( !ZG_SECURE_ENABLED )
// 2041     {
// 2042       // Notify to save info into NV
// 2043       ZDApp_NVUpdate();
??ZDO_JoinConfirmCB_1:
        ; Setup parameters for call to function ZDApp_NVUpdate
        LCALL   ??ZDApp_NVUpdate?relay
        SJMP    ??ZDO_JoinConfirmCB_2
// 2044     }
// 2045   }
// 2046 #if defined(BLINK_LEDS)
// 2047   else
// 2048     HalLedSet ( HAL_LED_3, HAL_LED_MODE_FLASH );  // Flash LED to show failure
??ZDO_JoinConfirmCB_0:
        ; Setup parameters for call to function HalLedSet
        MOV     R2,#0x4
        MOV     R1,#0x4
        LCALL   ??HalLedSet?relay
// 2049 #endif
// 2050 
// 2051   // Notify ZDApp
// 2052   ZDApp_SendMsg( ZDAppTaskID, ZDO_NWK_JOIN_IND, sizeof(osal_event_hdr_t), (byte*)NULL );
??ZDO_JoinConfirmCB_2:
        ; Setup parameters for call to function ZDApp_SendMsg
        MOV     R4,#0x0
        MOV     R5,#0x0
        MOV     R3,#0x2
        MOV     R2,#0x2
        MOV     DPTR,#ZDAppTaskID
        MOVX    A,@DPTR
        MOV     R1,A
        LCALL   ??ZDApp_SendMsg?relay
// 2053 }
        POP     DPH
        CFI DPH0 SameValue
        CFI CFA_SP SP+-4
        POP     DPL
        CFI DPL0 SameValue
        CFI CFA_SP SP+-3
        LJMP    ?BRET
        CFI EndBlock cfiBlock34
// 2054 
// 2055 /*********************************************************************
// 2056  * @fn          ZDO_AddrChangeIndicationCB
// 2057  *
// 2058  * @brief       This function notifies the application that this
// 2059  *              device's address has changed.  Could happen in
// 2060  *              a network with stochastic addressing (PRO).
// 2061  *
// 2062  * @param       newAddr - the new address
// 2063  *
// 2064  * @return      none
// 2065  */

        RSEG BANKED_CODE:CODE:NOROOT(0)
// 2066 void ZDO_AddrChangeIndicationCB( uint16 newAddr )
ZDO_AddrChangeIndicationCB:
        CFI Block cfiBlock35 Using cfiCommon0
        CFI Function ZDO_AddrChangeIndicationCB
// 2067 {
        FUNCALL ZDO_AddrChangeIndicationCB, ZDApp_NVUpdate
        LOCFRAME ISTACK, 2, STACK
        LOCFRAME PSTACK, 0, STACK
        LOCFRAME XSTACK, 0, STACK
        LOCFRAME IOVERLAY, 0, STATIC
        LOCFRAME DOVERLAY, 0, STATIC
        ARGFRAME ISTACK, 2, STACK
        ARGFRAME PSTACK, 0, STACK
        ARGFRAME XSTACK, 0, STACK
        ARGFRAME IOVERLAY, 0, STATIC
        ARGFRAME DOVERLAY, 0, STATIC
        FUNCALL ZDO_AddrChangeIndicationCB, osal_set_event
        LOCFRAME ISTACK, 2, STACK
        LOCFRAME PSTACK, 0, STACK
        LOCFRAME XSTACK, 0, STACK
        LOCFRAME IOVERLAY, 0, STATIC
        LOCFRAME DOVERLAY, 0, STATIC
        ARGFRAME ISTACK, 2, STACK
        ARGFRAME PSTACK, 0, STACK
        ARGFRAME XSTACK, 0, STACK
        ARGFRAME IOVERLAY, 0, STATIC
        ARGFRAME DOVERLAY, 0, STATIC
        FUNCALL ZDO_AddrChangeIndicationCB, ZDApp_AnnounceNewAddress
        LOCFRAME ISTACK, 2, STACK
        LOCFRAME PSTACK, 0, STACK
        LOCFRAME XSTACK, 0, STACK
        LOCFRAME IOVERLAY, 0, STATIC
        LOCFRAME DOVERLAY, 0, STATIC
        ARGFRAME ISTACK, 2, STACK
        ARGFRAME PSTACK, 0, STACK
        ARGFRAME XSTACK, 0, STACK
        ARGFRAME IOVERLAY, 0, STATIC
        ARGFRAME DOVERLAY, 0, STATIC
        PUSH    DPL
        CFI DPL0 Frame(CFA_SP, 4)
        CFI CFA_SP SP+-4
        PUSH    DPH
        CFI DPH0 Frame(CFA_SP, 5)
        CFI CFA_SP SP+-5
        ; Saved register size: 2
        ; Auto size: 0
// 2068   (void)newAddr;  // remove if this parameter is used
// 2069 
// 2070   // Notify to save info into NV
// 2071   ZDApp_NVUpdate();
        ; Setup parameters for call to function ZDApp_NVUpdate
        LCALL   ??ZDApp_NVUpdate?relay
// 2072 
// 2073   // Notify the applications
// 2074   osal_set_event( ZDAppTaskID, ZDO_STATE_CHANGE_EVT );
        ; Setup parameters for call to function osal_set_event
        MOV     R2,#0x10
        MOV     R3,#0x0
        MOV     DPTR,#ZDAppTaskID
        MOVX    A,@DPTR
        MOV     R1,A
        LCALL   ??osal_set_event?relay
// 2075 
// 2076   // Send out a device announce
// 2077   ZDApp_AnnounceNewAddress();
        ; Setup parameters for call to function ZDApp_AnnounceNewAddress
        LCALL   ??ZDApp_AnnounceNewAddress?relay
// 2078 }
        POP     DPH
        CFI DPH0 SameValue
        CFI CFA_SP SP+-4
        POP     DPL
        CFI DPL0 SameValue
        CFI CFA_SP SP+-3
        LJMP    ?BRET
        CFI EndBlock cfiBlock35
// 2079 
// 2080 /*********************************************************************
// 2081  * @fn          ZDO_JoinIndicationCB
// 2082  *
// 2083  * @brief       This function allows the next higher layer of a
// 2084  *              coordinator to be notified of a remote join request.
// 2085  *
// 2086  * @param       ShortAddress - 16-bit address
// 2087  * @param       ExtendedAddress - IEEE (64-bit) address
// 2088  * @param       CapabilityInformation - Association Capability Information
// 2089  * @param       type - of joining -
// 2090  *                          NWK_ASSOC_JOIN
// 2091  *                          NWK_ASSOC_REJOIN_UNSECURE
// 2092  *                          NWK_ASSOC_REJOIN_SECURE
// 2093  *
// 2094  * @return      ZStatus_t
// 2095  */

        RSEG BANKED_CODE:CODE:NOROOT(0)
// 2096 ZStatus_t ZDO_JoinIndicationCB( uint16 ShortAddress, uint8 *ExtendedAddress,
ZDO_JoinIndicationCB:
        CFI Block cfiBlock36 Using cfiCommon0
        CFI Function ZDO_JoinIndicationCB
// 2097                                 uint8 CapabilityInformation, uint8 type )
// 2098 {
        FUNCALL ZDO_JoinIndicationCB, ZDApp_NVUpdate
        LOCFRAME ISTACK, 2, STACK
        LOCFRAME PSTACK, 0, STACK
        LOCFRAME XSTACK, 0, STACK
        LOCFRAME IOVERLAY, 0, STATIC
        LOCFRAME DOVERLAY, 0, STATIC
        ARGFRAME ISTACK, 2, STACK
        ARGFRAME PSTACK, 0, STACK
        ARGFRAME XSTACK, 0, STACK
        ARGFRAME IOVERLAY, 0, STATIC
        ARGFRAME DOVERLAY, 0, STATIC
        PUSH    DPL
        CFI DPL0 Frame(CFA_SP, 4)
        CFI CFA_SP SP+-4
        PUSH    DPH
        CFI DPH0 Frame(CFA_SP, 5)
        CFI CFA_SP SP+-5
        ; Saved register size: 2
        ; Auto size: 0
// 2099   (void)ShortAddress;
// 2100   (void)ExtendedAddress;
// 2101   (void)CapabilityInformation;
// 2102 
// 2103     // Notify to save info into NV
// 2104     ZDApp_NVUpdate();
        ; Setup parameters for call to function ZDApp_NVUpdate
        LCALL   ??ZDApp_NVUpdate?relay
// 2105 
// 2106     // send notification to TC of new device..
// 2107     if ( ZG_SECURE_ENABLED )
// 2108     {
// 2109       if ( type == NWK_ASSOC_JOIN || type == NWK_ASSOC_REJOIN_UNSECURE )
// 2110       {
// 2111         osal_start_timerEx( ZDAppTaskID, ZDO_NEW_DEVICE, 600 );
// 2112       }
// 2113     }
// 2114 
// 2115     return ( ZSuccess );
        MOV     R1,#0x0
        POP     DPH
        CFI DPH0 SameValue
        CFI CFA_SP SP+-4
        POP     DPL
        CFI DPL0 SameValue
        CFI CFA_SP SP+-3
        LJMP    ?BRET
        CFI EndBlock cfiBlock36
// 2116 }
// 2117 
// 2118 /*********************************************************************
// 2119  * @fn          ZDO_ConcentratorIndicationCB
// 2120  *
// 2121  * @brief       This function allows the next higher layer of a
// 2122  *              device to be notified of existence of the concentrator.
// 2123  *
// 2124  * @param       nwkAddr - 16-bit NWK address of the concentrator
// 2125  *
// 2126  * @return      void
// 2127  */

        RSEG BANKED_CODE:CODE:NOROOT(0)
// 2128 void ZDO_ConcentratorIndicationCB( uint16 nwkAddr )
ZDO_ConcentratorIndicationCB:
        CFI Block cfiBlock37 Using cfiCommon0
        CFI Function ZDO_ConcentratorIndicationCB
// 2129 {
        ; Saved register size: 0
        ; Auto size: 0
// 2130   // Write your code here to do something with the concentrator's
// 2131   // address.
// 2132   (void)nwkAddr;
// 2133 }
        LJMP    ?BRET
        CFI EndBlock cfiBlock37
// 2134 
// 2135 /*********************************************************************
// 2136  * @fn          ZDO_LeaveCnf
// 2137  *
// 2138  * @brief       This function allows the next higher layer to be
// 2139  *              notified of the results of its request for this or
// 2140  *              a child device to leave the network.
// 2141  *
// 2142  * @param       cnf - NLME_LeaveCnf_t
// 2143  *
// 2144  * @return      none
// 2145  */

        RSEG BANKED_CODE:CODE:NOROOT(0)
// 2146 void ZDO_LeaveCnf( NLME_LeaveCnf_t* cnf )
ZDO_LeaveCnf:
        CFI Block cfiBlock38 Using cfiCommon0
        CFI Function ZDO_LeaveCnf
// 2147 {
        FUNCALL ZDO_LeaveCnf, NLME_GetExtAddr
        LOCFRAME ISTACK, 0, STACK
        LOCFRAME PSTACK, 0, STACK
        LOCFRAME XSTACK, 10, STACK
        LOCFRAME IOVERLAY, 0, STATIC
        LOCFRAME DOVERLAY, 0, STATIC
        ARGFRAME ISTACK, 0, STACK
        ARGFRAME PSTACK, 0, STACK
        ARGFRAME XSTACK, 10, STACK
        ARGFRAME IOVERLAY, 0, STATIC
        ARGFRAME DOVERLAY, 0, STATIC
        FUNCALL ZDO_LeaveCnf, sAddrExtCmp
        LOCFRAME ISTACK, 0, STACK
        LOCFRAME PSTACK, 0, STACK
        LOCFRAME XSTACK, 10, STACK
        LOCFRAME IOVERLAY, 0, STATIC
        LOCFRAME DOVERLAY, 0, STATIC
        ARGFRAME ISTACK, 0, STACK
        ARGFRAME PSTACK, 0, STACK
        ARGFRAME XSTACK, 10, STACK
        ARGFRAME IOVERLAY, 0, STATIC
        ARGFRAME DOVERLAY, 0, STATIC
        FUNCALL ZDO_LeaveCnf, ZDApp_LeaveReset
        LOCFRAME ISTACK, 0, STACK
        LOCFRAME PSTACK, 0, STACK
        LOCFRAME XSTACK, 10, STACK
        LOCFRAME IOVERLAY, 0, STATIC
        LOCFRAME DOVERLAY, 0, STATIC
        ARGFRAME ISTACK, 0, STACK
        ARGFRAME PSTACK, 0, STACK
        ARGFRAME XSTACK, 10, STACK
        ARGFRAME IOVERLAY, 0, STATIC
        ARGFRAME DOVERLAY, 0, STATIC
        FUNCALL ZDO_LeaveCnf, ZDApp_LeaveUpdate
        LOCFRAME ISTACK, 0, STACK
        LOCFRAME PSTACK, 0, STACK
        LOCFRAME XSTACK, 10, STACK
        LOCFRAME IOVERLAY, 0, STATIC
        LOCFRAME DOVERLAY, 0, STATIC
        ARGFRAME ISTACK, 0, STACK
        ARGFRAME PSTACK, 0, STACK
        ARGFRAME XSTACK, 10, STACK
        ARGFRAME IOVERLAY, 0, STATIC
        ARGFRAME DOVERLAY, 0, STATIC
        MOV     A,#-0xa
        LCALL   ?BANKED_ENTER_XDATA
        CFI DPH0 load(1, XDATA, add(CFA_XSP16, literal(-1)))
        CFI DPL0 load(1, XDATA, add(CFA_XSP16, literal(-2)))
        CFI ?BRET_EXT load(1, XDATA, add(CFA_XSP16, literal(-3)))
        CFI ?RET_HIGH load(1, XDATA, add(CFA_XSP16, literal(-4)))
        CFI ?RET_LOW load(1, XDATA, add(CFA_XSP16, literal(-5)))
        CFI R7 load(1, XDATA, add(CFA_XSP16, literal(-6)))
        CFI V1 load(1, XDATA, add(CFA_XSP16, literal(-7)))
        CFI V0 load(1, XDATA, add(CFA_XSP16, literal(-8)))
        CFI VB load(1, XDATA, add(CFA_XSP16, literal(-9)))
        CFI R6 load(1, XDATA, add(CFA_XSP16, literal(-10)))
        CFI CFA_SP SP+0
        CFI CFA_XSP16 add(XSP16, 10)
        ; Saved register size: 10
        ; Auto size: 0
        MOV     A,R2
        MOV     R6,A
        MOV     A,R3
        MOV     R7,A
// 2148   // Check for this device
// 2149   if ( osal_ExtAddrEqual( cnf->extAddr,
// 2150                           NLME_GetExtAddr() ) == TRUE )
        MOV     A,R6
        ADD     A,#0x2
        MOV     ?V0 + 0,A
        MOV     A,R7
        ADDC    A,#0x0
        MOV     ?V0 + 1,A
        ; Setup parameters for call to function sAddrExtCmp
        ; Setup parameters for call to function NLME_GetExtAddr
        LCALL   ??NLME_GetExtAddr?relay
        MOV     A,R2
        MOV     R4,A
        MOV     A,R3
        MOV     R5,A
        MOV     R2,?V0 + 0
        MOV     R3,?V0 + 1
        LCALL   ??sAddrExtCmp?relay
        MOV     A,R1
        XRL     A,#0x1
        JNZ     ??ZDO_LeaveCnf_0
// 2151   {
// 2152     // Prepare to leave with reset
// 2153     ZDApp_LeaveReset( cnf->rejoin );
        ; Setup parameters for call to function ZDApp_LeaveReset
        MOV     A,R6
        ADD     A,#0xb
        MOV     DPL,A
        MOV     A,R7
        ADDC    A,#0x0
        MOV     DPH,A
        MOVX    A,@DPTR
        MOV     R1,A
        LCALL   ??ZDApp_LeaveReset?relay
        SJMP    ??ZDO_LeaveCnf_1
// 2154   }
// 2155   else if ( ZSTACK_ROUTER_BUILD )
// 2156   {
// 2157     // Remove device address(optionally descendents) from data
// 2158     ZDApp_LeaveUpdate( cnf->dstAddr,
// 2159                        cnf->extAddr,
// 2160                        cnf->removeChildren );
??ZDO_LeaveCnf_0:
        ; Setup parameters for call to function ZDApp_LeaveUpdate
        MOV     DPL,R6
        MOV     DPH,R7
        INC     DPTR
        INC     DPTR
        INC     DPTR
        INC     DPTR
        INC     DPTR
        INC     DPTR
        INC     DPTR
        INC     DPTR
        INC     DPTR
        INC     DPTR
        MOVX    A,@DPTR
        MOV     R1,A
        MOV     R4,?V0 + 0
        MOV     R5,?V0 + 1
        MOV     DPL,R6
        MOV     DPH,R7
        MOVX    A,@DPTR
        MOV     R2,A
        INC     DPTR
        MOVX    A,@DPTR
        MOV     R3,A
        LCALL   ??ZDApp_LeaveUpdate?relay
// 2161   }
// 2162 }
??ZDO_LeaveCnf_1:
        MOV     R7,#0x2
        LJMP    ?BANKED_LEAVE_XDATA
        CFI EndBlock cfiBlock38
// 2163 
// 2164 /*********************************************************************
// 2165  * @fn          ZDO_LeaveInd
// 2166  *
// 2167  * @brief       This function allows the next higher layer of a
// 2168  *              device to be notified of a remote leave request or
// 2169  *              indication.
// 2170  *
// 2171  * @param       ind - NLME_LeaveInd_t
// 2172  *
// 2173  * @return      none
// 2174  */

        RSEG BANKED_CODE:CODE:NOROOT(0)
// 2175 void ZDO_LeaveInd( NLME_LeaveInd_t* ind )
ZDO_LeaveInd:
        CFI Block cfiBlock39 Using cfiCommon0
        CFI Function ZDO_LeaveInd
// 2176 {
        FUNCALL ZDO_LeaveInd, NLME_LeaveRsp
        LOCFRAME ISTACK, 0, STACK
        LOCFRAME PSTACK, 0, STACK
        LOCFRAME XSTACK, 14, STACK
        LOCFRAME IOVERLAY, 0, STATIC
        LOCFRAME DOVERLAY, 0, STATIC
        ARGFRAME ISTACK, 0, STACK
        ARGFRAME PSTACK, 0, STACK
        ARGFRAME XSTACK, 14, STACK
        ARGFRAME IOVERLAY, 0, STATIC
        ARGFRAME DOVERLAY, 0, STATIC
        FUNCALL ZDO_LeaveInd, ZDApp_LeaveReset
        LOCFRAME ISTACK, 0, STACK
        LOCFRAME PSTACK, 0, STACK
        LOCFRAME XSTACK, 14, STACK
        LOCFRAME IOVERLAY, 0, STATIC
        LOCFRAME DOVERLAY, 0, STATIC
        ARGFRAME ISTACK, 0, STACK
        ARGFRAME PSTACK, 0, STACK
        ARGFRAME XSTACK, 14, STACK
        ARGFRAME IOVERLAY, 0, STATIC
        ARGFRAME DOVERLAY, 0, STATIC
        FUNCALL ZDO_LeaveInd, NLME_GetCoordShortAddr
        LOCFRAME ISTACK, 2, STACK
        LOCFRAME PSTACK, 0, STACK
        LOCFRAME XSTACK, 14, STACK
        LOCFRAME IOVERLAY, 0, STATIC
        LOCFRAME DOVERLAY, 0, STATIC
        ARGFRAME ISTACK, 2, STACK
        ARGFRAME PSTACK, 0, STACK
        ARGFRAME XSTACK, 14, STACK
        ARGFRAME IOVERLAY, 0, STATIC
        ARGFRAME DOVERLAY, 0, STATIC
        FUNCALL ZDO_LeaveInd, ZDApp_LeaveReset
        LOCFRAME ISTACK, 0, STACK
        LOCFRAME PSTACK, 0, STACK
        LOCFRAME XSTACK, 14, STACK
        LOCFRAME IOVERLAY, 0, STATIC
        LOCFRAME DOVERLAY, 0, STATIC
        ARGFRAME ISTACK, 0, STACK
        ARGFRAME PSTACK, 0, STACK
        ARGFRAME XSTACK, 14, STACK
        ARGFRAME IOVERLAY, 0, STATIC
        ARGFRAME DOVERLAY, 0, STATIC
        FUNCALL ZDO_LeaveInd, ZDApp_LeaveUpdate
        LOCFRAME ISTACK, 0, STACK
        LOCFRAME PSTACK, 0, STACK
        LOCFRAME XSTACK, 14, STACK
        LOCFRAME IOVERLAY, 0, STATIC
        LOCFRAME DOVERLAY, 0, STATIC
        ARGFRAME ISTACK, 0, STACK
        ARGFRAME PSTACK, 0, STACK
        ARGFRAME XSTACK, 14, STACK
        ARGFRAME IOVERLAY, 0, STATIC
        ARGFRAME DOVERLAY, 0, STATIC
        MOV     A,#-0xc
        LCALL   ?BANKED_ENTER_XDATA
        CFI DPH0 load(1, XDATA, add(CFA_XSP16, literal(-1)))
        CFI DPL0 load(1, XDATA, add(CFA_XSP16, literal(-2)))
        CFI ?BRET_EXT load(1, XDATA, add(CFA_XSP16, literal(-3)))
        CFI ?RET_HIGH load(1, XDATA, add(CFA_XSP16, literal(-4)))
        CFI ?RET_LOW load(1, XDATA, add(CFA_XSP16, literal(-5)))
        CFI R7 load(1, XDATA, add(CFA_XSP16, literal(-6)))
        CFI V3 load(1, XDATA, add(CFA_XSP16, literal(-7)))
        CFI V2 load(1, XDATA, add(CFA_XSP16, literal(-8)))
        CFI V1 load(1, XDATA, add(CFA_XSP16, literal(-9)))
        CFI V0 load(1, XDATA, add(CFA_XSP16, literal(-10)))
        CFI VB load(1, XDATA, add(CFA_XSP16, literal(-11)))
        CFI R6 load(1, XDATA, add(CFA_XSP16, literal(-12)))
        CFI CFA_SP SP+0
        CFI CFA_XSP16 add(XSP16, 12)
        ; Saved register size: 12
        ; Auto size: 2
        MOV     A,#-0x2
        LCALL   ?ALLOC_XSTACK8
        CFI CFA_XSP16 add(XSP16, 14)
        MOV     A,R2
        MOV     R6,A
        MOV     A,R3
        MOV     R7,A
// 2177   uint8 leave;
// 2178 
// 2179 
// 2180   // Parent is requesting the leave - NWK layer filters out illegal
// 2181   // requests
// 2182   if ( ind->request == TRUE )
        MOV     DPL,R6
        MOV     DPH,R7
        INC     DPTR
        INC     DPTR
        INC     DPTR
        INC     DPTR
        INC     DPTR
        INC     DPTR
        INC     DPTR
        INC     DPTR
        INC     DPTR
        INC     DPTR
        MOVX    A,@DPTR
        XRL     A,#0x1
        JNZ     ??ZDO_LeaveInd_0
// 2183   {
// 2184     // Notify network of leave
// 2185     if ( ZSTACK_ROUTER_BUILD )
// 2186     {
// 2187       NLME_LeaveRsp_t rsp;
// 2188       rsp.rejoin         = ind->rejoin;
        MOV     A,R6
        ADD     A,#0xc
        MOV     ?V0 + 0,A
        MOV     A,R7
        ADDC    A,#0x0
        MOV     ?V0 + 1,A
        MOV     DPL,?V0 + 0
        MOV     DPH,A
        MOVX    A,@DPTR
        PUSH    A
        CFI CFA_SP SP+-1
        MOV     A,#0x1
        LCALL   ?XSTACK_DISP0_8
        POP     A
        CFI CFA_SP SP+0
        MOVX    @DPTR,A
// 2189       rsp.removeChildren = ind->removeChildren;
        MOV     A,R6
        ADD     A,#0xb
        MOV     DPL,A
        MOV     A,R7
        ADDC    A,#0x0
        MOV     DPH,A
        MOVX    A,@DPTR
        MOV     DPL,?XSP + 0
        MOV     DPH,?XSP + 1
        MOVX    @DPTR,A
// 2190       NLME_LeaveRsp( &rsp );
        ; Setup parameters for call to function NLME_LeaveRsp
        MOV     R2,DPL
        MOV     R3,DPH
        LCALL   ??NLME_LeaveRsp?relay
// 2191     }
// 2192 
// 2193     // Prepare to leave with reset
// 2194     ZDApp_LeaveReset( ind->rejoin );
        ; Setup parameters for call to function ZDApp_LeaveReset
        MOV     DPL,?V0 + 0
        MOV     DPH,?V0 + 1
??ZDO_LeaveInd_1:
        MOVX    A,@DPTR
        MOV     R1,A
        LCALL   ??ZDApp_LeaveReset?relay
        SJMP    ??ZDO_LeaveInd_2
// 2195   }
// 2196   else
// 2197   {
// 2198     leave = FALSE;
??ZDO_LeaveInd_0:
        MOV     ?V0 + 0,#0x0
// 2199 
// 2200     // Check if this device needs to leave as a child or descendent
// 2201     if ( ind->srcAddr == NLME_GetCoordShortAddr() )
        MOV     DPL,R6
        MOV     DPH,R7
        PUSH    DPL
        CFI CFA_SP SP+-1
        PUSH    DPH
        CFI CFA_SP SP+-2
        ; Setup parameters for call to function NLME_GetCoordShortAddr
        LCALL   ??NLME_GetCoordShortAddr?relay
        MOV     ?V0 + 2,R2
        MOV     ?V0 + 3,R3
        POP     DPH
        CFI CFA_SP SP+-1
        POP     DPL
        CFI CFA_SP SP+0
        MOVX    A,@DPTR
        XRL     A,?V0 + 2
        JNZ     ??ZDO_LeaveInd_3
        INC     DPTR
        MOVX    A,@DPTR
        XRL     A,?V0 + 3
??ZDO_LeaveInd_3:
        JNZ     ??ZDO_LeaveInd_4
// 2202     {
// 2203       if ( ( ind->removeChildren == TRUE               ) ||
// 2204            ( ZDO_Config_Node_Descriptor.LogicalType ==
// 2205              NODETYPE_DEVICE                           )    )
        MOV     A,R6
        ADD     A,#0xb
        MOV     DPL,A
        MOV     A,R7
        ADDC    A,#0x0
        MOV     DPH,A
        MOVX    A,@DPTR
        XRL     A,#0x1
        JZ      ??ZDO_LeaveInd_5
        MOV     DPTR,#ZDO_Config_Node_Descriptor
        MOVX    A,@DPTR
        ANL     A,#0x7
        XRL     A,#0x2
        JNZ     ??ZDO_LeaveInd_4
// 2206       {
// 2207         leave = TRUE;
??ZDO_LeaveInd_5:
        MOV     ?V0 + 0,#0x1
// 2208       }
// 2209     }
// 2210     else if ( ind->removeChildren == TRUE )
// 2211     {
// 2212       // Check NWK address allocation algorithm
// 2213       //leave = RTG_ANCESTOR(nwkAddr,thisAddr);
// 2214     }
// 2215 
// 2216     if ( leave == TRUE )
??ZDO_LeaveInd_4:
        MOV     A,#0x1
        XRL     A,?V0 + 0
        JNZ     ??ZDO_LeaveInd_6
// 2217     {
// 2218       // Prepare to leave with reset
// 2219       ZDApp_LeaveReset( ind->rejoin );
        ; Setup parameters for call to function ZDApp_LeaveReset
        MOV     A,R6
        ADD     A,#0xc
        MOV     DPL,A
        MOV     A,R7
        ADDC    A,#0x0
        MOV     DPH,A
        SJMP    ??ZDO_LeaveInd_1
// 2220     }
// 2221     else
// 2222     {
// 2223       // Remove device address(optionally descendents) from data
// 2224       ZDApp_LeaveUpdate( ind->srcAddr,
// 2225                          ind->extAddr,
// 2226                          ind->removeChildren );
??ZDO_LeaveInd_6:
        ; Setup parameters for call to function ZDApp_LeaveUpdate
        MOV     A,R6
        ADD     A,#0xb
        MOV     DPL,A
        MOV     A,R7
        ADDC    A,#0x0
        MOV     DPH,A
        MOVX    A,@DPTR
        MOV     R1,A
        MOV     A,R6
        ADD     A,#0x2
        MOV     R4,A
        MOV     A,R7
        ADDC    A,#0x0
        MOV     R5,A
        MOV     DPL,R6
        MOV     DPH,R7
        MOVX    A,@DPTR
        MOV     R2,A
        INC     DPTR
        MOVX    A,@DPTR
        MOV     R3,A
        LCALL   ??ZDApp_LeaveUpdate?relay
// 2227     }
// 2228   }
// 2229 }
??ZDO_LeaveInd_2:
        MOV     A,#0x2
        LCALL   ?DEALLOC_XSTACK8
        CFI CFA_XSP16 add(XSP16, 12)
        MOV     R7,#0x4
        LJMP    ?BANKED_LEAVE_XDATA
        CFI EndBlock cfiBlock39
// 2230 
// 2231 /*********************************************************************
// 2232  * @fn          ZDO_SyncIndicationCB
// 2233  *
// 2234  * @brief       This function allows the next higher layer of a
// 2235  *              coordinator to be notified of a loss of synchronization
// 2236  *                          with the parent/child device.
// 2237  *
// 2238  * @param       type: 0 - child; 1 - parent
// 2239  *
// 2240  *
// 2241  * @return      none
// 2242  */

        RSEG BANKED_CODE:CODE:NOROOT(0)
// 2243 void ZDO_SyncIndicationCB( uint8 type, uint16 shortAddr )
ZDO_SyncIndicationCB:
        CFI Block cfiBlock40 Using cfiCommon0
        CFI Function ZDO_SyncIndicationCB
// 2244 {
        FUNCALL ZDO_SyncIndicationCB, nwkNeighborInitTable
        LOCFRAME ISTACK, 2, STACK
        LOCFRAME PSTACK, 0, STACK
        LOCFRAME XSTACK, 0, STACK
        LOCFRAME IOVERLAY, 0, STATIC
        LOCFRAME DOVERLAY, 0, STATIC
        ARGFRAME ISTACK, 2, STACK
        ARGFRAME PSTACK, 0, STACK
        ARGFRAME XSTACK, 0, STACK
        ARGFRAME IOVERLAY, 0, STATIC
        ARGFRAME DOVERLAY, 0, STATIC
        FUNCALL ZDO_SyncIndicationCB, ZDApp_SendMsg
        LOCFRAME ISTACK, 2, STACK
        LOCFRAME PSTACK, 0, STACK
        LOCFRAME XSTACK, 0, STACK
        LOCFRAME IOVERLAY, 0, STATIC
        LOCFRAME DOVERLAY, 0, STATIC
        ARGFRAME ISTACK, 2, STACK
        ARGFRAME PSTACK, 0, STACK
        ARGFRAME XSTACK, 0, STACK
        ARGFRAME IOVERLAY, 0, STATIC
        ARGFRAME DOVERLAY, 0, STATIC
        PUSH    DPL
        CFI DPL0 Frame(CFA_SP, 4)
        CFI CFA_SP SP+-4
        PUSH    DPH
        CFI DPH0 Frame(CFA_SP, 5)
        CFI CFA_SP SP+-5
        ; Saved register size: 2
        ; Auto size: 0
// 2245   (void)shortAddr;  // Remove this line if this parameter is used.
// 2246 
// 2247   if ( ZSTACK_END_DEVICE_BUILD
// 2248     || (ZSTACK_ROUTER_BUILD && ((_NIB.CapabilityInfo & ZMAC_ASSOC_CAPINFO_FFD_TYPE) == 0)))
        MOV     DPTR,#(_NIB + 14)
        MOVX    A,@DPTR
        MOV     C,0xE0 /* A   */.1
        JC      ??ZDO_SyncIndicationCB_0
// 2249   {
// 2250     if ( type == 1 )
        MOV     A,#0x1
        XRL     A,R1
        JNZ     ??ZDO_SyncIndicationCB_0
// 2251     {
// 2252       // We lost contact with our parent.  Clear the neighbor Table.
// 2253       nwkNeighborInitTable();
        ; Setup parameters for call to function nwkNeighborInitTable
        LCALL   ??nwkNeighborInitTable?relay
// 2254 
// 2255       // Start the rejoin process.
// 2256       ZDApp_SendMsg( ZDAppTaskID, ZDO_NWK_JOIN_REQ, sizeof(osal_event_hdr_t), NULL );
        ; Setup parameters for call to function ZDApp_SendMsg
        MOV     R4,#0x0
        MOV     R5,#0x0
        MOV     R3,#0x2
        MOV     R2,#0x3
        MOV     DPTR,#ZDAppTaskID
        MOVX    A,@DPTR
        MOV     R1,A
        LCALL   ??ZDApp_SendMsg?relay
// 2257     }
// 2258   }
// 2259 }
??ZDO_SyncIndicationCB_0:
        POP     DPH
        CFI DPH0 SameValue
        CFI CFA_SP SP+-4
        POP     DPL
        CFI DPL0 SameValue
        CFI CFA_SP SP+-3
        LJMP    ?BRET
        CFI EndBlock cfiBlock40
// 2260 
// 2261 /*********************************************************************
// 2262  * @fn          ZDO_ManytoOneFailureIndicationCB
// 2263  *
// 2264  * @brief       This function allows the next higher layer of a
// 2265  *              concentrator to be notified of a many-to-one route
// 2266  *              failure.
// 2267  *
// 2268  * @param       none
// 2269  *
// 2270  *
// 2271  * @return      none
// 2272  */

        RSEG BANKED_CODE:CODE:NOROOT(0)
// 2273 void ZDO_ManytoOneFailureIndicationCB()
ZDO_ManytoOneFailureIndicationCB:
        CFI Block cfiBlock41 Using cfiCommon0
        CFI Function ZDO_ManytoOneFailureIndicationCB
// 2274 {
        FUNCALL ZDO_ManytoOneFailureIndicationCB, NLME_RouteDiscoveryRequest
        LOCFRAME ISTACK, 2, STACK
        LOCFRAME PSTACK, 0, STACK
        LOCFRAME XSTACK, 0, STACK
        LOCFRAME IOVERLAY, 0, STATIC
        LOCFRAME DOVERLAY, 0, STATIC
        ARGFRAME ISTACK, 2, STACK
        ARGFRAME PSTACK, 0, STACK
        ARGFRAME XSTACK, 0, STACK
        ARGFRAME IOVERLAY, 0, STATIC
        ARGFRAME DOVERLAY, 0, STATIC
        FUNCALL ZDO_ManytoOneFailureIndicationCB, NLME_RouteDiscoveryRequest
        LOCFRAME ISTACK, 2, STACK
        LOCFRAME PSTACK, 0, STACK
        LOCFRAME XSTACK, 0, STACK
        LOCFRAME IOVERLAY, 0, STATIC
        LOCFRAME DOVERLAY, 0, STATIC
        ARGFRAME ISTACK, 2, STACK
        ARGFRAME PSTACK, 0, STACK
        ARGFRAME XSTACK, 0, STACK
        ARGFRAME IOVERLAY, 0, STATIC
        ARGFRAME DOVERLAY, 0, STATIC
        PUSH    DPL
        CFI DPL0 Frame(CFA_SP, 4)
        CFI CFA_SP SP+-4
        PUSH    DPH
        CFI DPH0 Frame(CFA_SP, 5)
        CFI CFA_SP SP+-5
        ; Saved register size: 2
        ; Auto size: 0
// 2275   // By default, the concentrator automatically redo many-to-one route
// 2276   // discovery to update all many-to-one routes in the network
// 2277   // If you want anything processing other than the default,
// 2278   // please replace the following code.
// 2279 
// 2280   if( zgConcentratorRC == true )  // concentrator with route cache
        MOV     DPTR,#zgConcentratorRC
        MOVX    A,@DPTR
        XRL     A,#0x1
        MOV     DPTR,#zgConcentratorRadius
        JNZ     ??ZDO_ManytoOneFailureIndicationCB_0
// 2281   {
// 2282     NLME_RouteDiscoveryRequest( 0x00, MTO_ROUTE, zgConcentratorRadius);
        ; Setup parameters for call to function NLME_RouteDiscoveryRequest
        MOVX    A,@DPTR
        MOV     R4,A
        MOV     R1,#0x1
        SJMP    ??ZDO_ManytoOneFailureIndicationCB_1
// 2283   }
// 2284   else
// 2285   { // Concentrator with no route cache
// 2286     NLME_RouteDiscoveryRequest( 0x00, MTO_ROUTE | NO_ROUTE_CACHE, zgConcentratorRadius);
??ZDO_ManytoOneFailureIndicationCB_0:
        ; Setup parameters for call to function NLME_RouteDiscoveryRequest
        MOVX    A,@DPTR
        MOV     R4,A
        MOV     R1,#0x3
??ZDO_ManytoOneFailureIndicationCB_1:
        MOV     R2,#0x0
        MOV     R3,#0x0
        LCALL   ??NLME_RouteDiscoveryRequest?relay
// 2287   }
// 2288 }
        POP     DPH
        CFI DPH0 SameValue
        CFI CFA_SP SP+-4
        POP     DPL
        CFI DPL0 SameValue
        CFI CFA_SP SP+-3
        LJMP    ?BRET
        CFI EndBlock cfiBlock41
// 2289 
// 2290 
// 2291 /*********************************************************************
// 2292  * @fn          ZDO_PollConfirmCB
// 2293  *
// 2294  * @brief       This function allows the next higher layer to be
// 2295  *              notified of a Poll Confirm.
// 2296  *
// 2297  * @param       none
// 2298  *
// 2299  * @return      none
// 2300  */

        RSEG BANKED_CODE:CODE:NOROOT(0)
// 2301 void ZDO_PollConfirmCB( uint8 status )
ZDO_PollConfirmCB:
        CFI Block cfiBlock42 Using cfiCommon0
        CFI Function ZDO_PollConfirmCB
// 2302 {
        ; Saved register size: 0
        ; Auto size: 0
// 2303   (void)status;  // Remove this line if this parameter is used.
// 2304   return;
        LJMP    ?BRET
        CFI EndBlock cfiBlock42
// 2305 }
// 2306 
// 2307 /******************************************************************************
// 2308  * @fn          ZDApp_NwkWriteNVRequest (stubs AddrMgrWriteNVRequest)
// 2309  *
// 2310  * @brief       Stub routine implemented by NHLE. NHLE should call
// 2311  *              <AddrMgrWriteNV> when appropriate.
// 2312  *
// 2313  * @param       none
// 2314  *
// 2315  * @return      none
// 2316  */

        RSEG BANKED_CODE:CODE:NOROOT(0)
// 2317 void ZDApp_NwkWriteNVRequest( void )
AddrMgrWriteNVRequest:
        CFI Block cfiBlock43 Using cfiCommon0
        CFI Function AddrMgrWriteNVRequest
// 2318 {
        ; Saved register size: 0
        ; Auto size: 0
// 2319 #if defined ( NV_RESTORE )
// 2320   if ( !osal_get_timeoutEx( ZDAppTaskID, ZDO_NWK_UPDATE_NV ) )
// 2321   {
// 2322     // Trigger to save info into NV
// 2323     ZDApp_NVUpdate();
// 2324   }
// 2325 #endif
// 2326 }
        LJMP    ?BRET
        CFI EndBlock cfiBlock43
// 2327 
// 2328 /*********************************************************************
// 2329  * Call Back Functions from Security  - API
// 2330  */
// 2331 
// 2332  /*********************************************************************
// 2333  * @fn          ZDO_UpdateDeviceIndication
// 2334  *
// 2335  * @brief       This function notifies the "Trust Center" of a
// 2336  *              network when a device joins or leaves the network.
// 2337  *
// 2338  * @param       extAddr - pointer to 64 bit address of new device
// 2339  * @param       status  - 0 if a new device joined securely
// 2340  *                      - 1 if a new device joined un-securely
// 2341  *                      - 2 if a device left the network
// 2342  *
// 2343  * @return      true if newly joined device should be allowed to
// 2344  *                                              remain on network
// 2345  */

        RSEG BANKED_CODE:CODE:NOROOT(0)
// 2346 ZStatus_t ZDO_UpdateDeviceIndication( uint8 *extAddr, uint8 status )
ZDO_UpdateDeviceIndication:
        CFI Block cfiBlock44 Using cfiCommon0
        CFI Function ZDO_UpdateDeviceIndication
// 2347 {
        ; Saved register size: 0
        ; Auto size: 0
// 2348   // can implement a network access policy based on the
// 2349   // IEEE address of newly joining devices...
// 2350   (void)extAddr;
// 2351   (void)status;
// 2352 
// 2353   return ZSuccess;
        MOV     R1,#0x0
        LJMP    ?BRET
        CFI EndBlock cfiBlock44
// 2354 }
// 2355 
// 2356 /*********************************************************************
// 2357  * @fn          ZDApp_InMsgCB
// 2358  *
// 2359  * @brief       This function is called to pass up any message that is
// 2360  *              not yet supported.  This allows for the developer to
// 2361  *              support features themselves..
// 2362  *
// 2363  * @return      none
// 2364  */

        RSEG BANKED_CODE:CODE:NOROOT(0)
// 2365 void ZDApp_InMsgCB( zdoIncomingMsg_t *inMsg )
ZDApp_InMsgCB:
        CFI Block cfiBlock45 Using cfiCommon0
        CFI Function ZDApp_InMsgCB
// 2366 {
        FUNCALL ZDApp_InMsgCB, ZDP_GenericRsp
        LOCFRAME ISTACK, 0, STACK
        LOCFRAME PSTACK, 0, STACK
        LOCFRAME XSTACK, 14, STACK
        LOCFRAME IOVERLAY, 0, STATIC
        LOCFRAME DOVERLAY, 0, STATIC
        ARGFRAME ISTACK, 0, STACK
        ARGFRAME PSTACK, 0, STACK
        ARGFRAME XSTACK, 14, STACK
        ARGFRAME IOVERLAY, 0, STATIC
        ARGFRAME DOVERLAY, 0, STATIC
        MOV     A,#-0xa
        LCALL   ?BANKED_ENTER_XDATA
        CFI DPH0 load(1, XDATA, add(CFA_XSP16, literal(-1)))
        CFI DPL0 load(1, XDATA, add(CFA_XSP16, literal(-2)))
        CFI ?BRET_EXT load(1, XDATA, add(CFA_XSP16, literal(-3)))
        CFI ?RET_HIGH load(1, XDATA, add(CFA_XSP16, literal(-4)))
        CFI ?RET_LOW load(1, XDATA, add(CFA_XSP16, literal(-5)))
        CFI R7 load(1, XDATA, add(CFA_XSP16, literal(-6)))
        CFI V1 load(1, XDATA, add(CFA_XSP16, literal(-7)))
        CFI V0 load(1, XDATA, add(CFA_XSP16, literal(-8)))
        CFI VB load(1, XDATA, add(CFA_XSP16, literal(-9)))
        CFI R6 load(1, XDATA, add(CFA_XSP16, literal(-10)))
        CFI CFA_SP SP+0
        CFI CFA_XSP16 add(XSP16, 10)
        ; Saved register size: 10
        ; Auto size: 0
        MOV     A,R2
        MOV     R6,A
        MOV     A,R3
        MOV     R7,A
// 2367   if ( inMsg->clusterID & ZDO_RESPONSE_BIT )
        MOV     A,R6
        ADD     A,#0xc
        MOV     R0,A
        MOV     A,R7
        ADDC    A,#0x0
        MOV     R1,A
        MOV     DPL,R0
        MOV     DPH,R1
        INC     DPTR
        MOVX    A,@DPTR
        ANL     A,#0x80
        MOV     R3,A
        CLR     A
        JNZ     ??ZDApp_InMsgCB_0
        MOV     A,R3
??ZDApp_InMsgCB_0:
        JNZ     ??ZDApp_InMsgCB_1
// 2368   {
// 2369     // Handle the response message
// 2370   }
// 2371   else
// 2372   {
// 2373     // Handle the request message by sending a generic "not supported".
// 2374     // Device Announce doesn't have a response.
// 2375     if ( !(inMsg->wasBroadcast) && inMsg->clusterID != Device_annce )
        MOV     A,R6
        ADD     A,#0xb
        MOV     DPL,A
        MOV     A,R7
        ADDC    A,#0x0
        MOV     DPH,A
        MOVX    A,@DPTR
        JNZ     ??ZDApp_InMsgCB_1
        MOV     DPL,R0
        MOV     DPH,R1
        MOVX    A,@DPTR
        XRL     A,#0x13
        JNZ     ??ZDApp_InMsgCB_2
        INC     DPTR
        MOVX    A,@DPTR
??ZDApp_InMsgCB_2:
        JZ      ??ZDApp_InMsgCB_1
// 2376     {
// 2377       ZDP_GenericRsp( inMsg->TransSeq, &(inMsg->srcAddr), ZDP_NOT_SUPPORTED, 0,
// 2378                       (uint16)(inMsg->clusterID | ZDO_RESPONSE_BIT), inMsg->SecurityUse );
        ; Setup parameters for call to function ZDP_GenericRsp
        MOV     DPL,R0
        MOV     DPH,R1
        MOVX    A,@DPTR
        MOV     ?V0 + 0,A
        INC     DPTR
        MOVX    A,@DPTR
        ORL     A,#0x80
        MOV     ?V0 + 1,A
        MOV     R0,#?V0 + 0
        LCALL   ?PUSH_XSTACK_I_TWO
        CFI CFA_XSP16 add(XSP16, 12)
        MOV     ?V0 + 0,#0x0
        MOV     ?V0 + 1,#0x0
        MOV     R0,#?V0 + 0
        LCALL   ?PUSH_XSTACK_I_TWO
        CFI CFA_XSP16 add(XSP16, 14)
        MOV     A,R6
        ADD     A,#0xe
        MOV     DPL,A
        MOV     A,R7
        ADDC    A,#0x0
        MOV     DPH,A
        MOVX    A,@DPTR
        MOV     R5,A
        MOV     R4,#-0x7c
        MOV     A,R6
        ADD     A,#0x2
        INC     R2
        INC     R2
        MOV     A,R7
        ADDC    A,#0x0
        MOV     R3,A
        MOV     A,R6
        ADD     A,#0xf
        MOV     DPL,A
        MOV     A,R7
        ADDC    A,#0x0
        MOV     DPH,A
        MOVX    A,@DPTR
        MOV     R1,A
        LCALL   ??ZDP_GenericRsp?relay
        MOV     A,#0x4
        LCALL   ?DEALLOC_XSTACK8
        CFI CFA_XSP16 add(XSP16, 10)
// 2379     }
// 2380   }
// 2381 }
??ZDApp_InMsgCB_1:
        MOV     R7,#0x2
        LJMP    ?BANKED_LEAVE_XDATA
        CFI EndBlock cfiBlock45
// 2382 
// 2383 
// 2384 /*********************************************************************
// 2385  * @fn      ZDApp_ChangeMatchDescRespPermission()
// 2386  *
// 2387  * @brief   Changes the Match Descriptor Response permission.
// 2388  *
// 2389  * @param   endpoint - endpoint to allow responses
// 2390  * @param   action - true to allow responses, false to not
// 2391  *
// 2392  * @return  none
// 2393  */

        RSEG BANKED_CODE:CODE:NOROOT(0)
// 2394 void ZDApp_ChangeMatchDescRespPermission( uint8 endpoint, uint8 action )
ZDApp_ChangeMatchDescRespPermission:
        CFI Block cfiBlock46 Using cfiCommon0
        CFI Function ZDApp_ChangeMatchDescRespPermission
// 2395 {
        FUNCALL ZDApp_ChangeMatchDescRespPermission, afSetMatch
        LOCFRAME ISTACK, 2, STACK
        LOCFRAME PSTACK, 0, STACK
        LOCFRAME XSTACK, 0, STACK
        LOCFRAME IOVERLAY, 0, STATIC
        LOCFRAME DOVERLAY, 0, STATIC
        ARGFRAME ISTACK, 2, STACK
        ARGFRAME PSTACK, 0, STACK
        ARGFRAME XSTACK, 0, STACK
        ARGFRAME IOVERLAY, 0, STATIC
        ARGFRAME DOVERLAY, 0, STATIC
        PUSH    DPL
        CFI DPL0 Frame(CFA_SP, 4)
        CFI CFA_SP SP+-4
        PUSH    DPH
        CFI DPH0 Frame(CFA_SP, 5)
        CFI CFA_SP SP+-5
        ; Saved register size: 2
        ; Auto size: 0
// 2396   // Store the action
// 2397   afSetMatch( endpoint, action );
        ; Setup parameters for call to function afSetMatch
        LCALL   ??afSetMatch?relay
// 2398 }
        POP     DPH
        CFI DPH0 SameValue
        CFI CFA_SP SP+-4
        POP     DPL
        CFI DPL0 SameValue
        CFI CFA_SP SP+-3
        LJMP    ?BRET
        CFI EndBlock cfiBlock46
// 2399 
// 2400 /*********************************************************************
// 2401  * @fn      ZDApp_NetworkInit()
// 2402  *
// 2403  * @brief   Used to start the network joining process
// 2404  *
// 2405  * @param   delay - mSec delay to wait before starting
// 2406  *
// 2407  * @return  none
// 2408  */

        RSEG BANKED_CODE:CODE:NOROOT(0)
// 2409 void ZDApp_NetworkInit( uint16 delay )
ZDApp_NetworkInit:
        CFI Block cfiBlock47 Using cfiCommon0
        CFI Function ZDApp_NetworkInit
// 2410 {
        FUNCALL ZDApp_NetworkInit, osal_start_timerEx
        LOCFRAME ISTACK, 2, STACK
        LOCFRAME PSTACK, 0, STACK
        LOCFRAME XSTACK, 0, STACK
        LOCFRAME IOVERLAY, 0, STATIC
        LOCFRAME DOVERLAY, 0, STATIC
        ARGFRAME ISTACK, 2, STACK
        ARGFRAME PSTACK, 0, STACK
        ARGFRAME XSTACK, 0, STACK
        ARGFRAME IOVERLAY, 0, STATIC
        ARGFRAME DOVERLAY, 0, STATIC
        FUNCALL ZDApp_NetworkInit, osal_set_event
        LOCFRAME ISTACK, 2, STACK
        LOCFRAME PSTACK, 0, STACK
        LOCFRAME XSTACK, 0, STACK
        LOCFRAME IOVERLAY, 0, STATIC
        LOCFRAME DOVERLAY, 0, STATIC
        ARGFRAME ISTACK, 2, STACK
        ARGFRAME PSTACK, 0, STACK
        ARGFRAME XSTACK, 0, STACK
        ARGFRAME IOVERLAY, 0, STATIC
        ARGFRAME DOVERLAY, 0, STATIC
        PUSH    DPL
        CFI DPL0 Frame(CFA_SP, 4)
        CFI CFA_SP SP+-4
        PUSH    DPH
        CFI DPH0 Frame(CFA_SP, 5)
        CFI CFA_SP SP+-5
        ; Saved register size: 2
        ; Auto size: 0
// 2411   if ( delay )
        MOV     A,R2
        JNZ     ??ZDApp_NetworkInit_0
        MOV     A,R3
??ZDApp_NetworkInit_0:
        JZ      ??ZDApp_NetworkInit_1
// 2412   {
// 2413     // Wait awhile before starting the device
// 2414     osal_start_timerEx( ZDAppTaskID, ZDO_NETWORK_INIT, delay );
        ; Setup parameters for call to function osal_start_timerEx
        MOV     A,R2
        MOV     R4,A
        MOV     A,R3
        MOV     R5,A
        MOV     R2,#0x1
        MOV     R3,#0x0
        MOV     DPTR,#ZDAppTaskID
        MOVX    A,@DPTR
        MOV     R1,A
        LCALL   ??osal_start_timerEx?relay
        SJMP    ??ZDApp_NetworkInit_2
// 2415   }
// 2416   else
// 2417   {
// 2418     osal_set_event( ZDAppTaskID, ZDO_NETWORK_INIT );
??ZDApp_NetworkInit_1:
        ; Setup parameters for call to function osal_set_event
        MOV     R2,#0x1
        MOV     R3,#0x0
        MOV     DPTR,#ZDAppTaskID
        MOVX    A,@DPTR
        MOV     R1,A
        LCALL   ??osal_set_event?relay
// 2419   }
// 2420 }
??ZDApp_NetworkInit_2:
        POP     DPH
        CFI DPH0 SameValue
        CFI CFA_SP SP+-4
        POP     DPL
        CFI DPL0 SameValue
        CFI CFA_SP SP+-3
        LJMP    ?BRET
        CFI EndBlock cfiBlock47
// 2421 
// 2422 /*********************************************************************
// 2423  * @fn      ZDApp_NwkStateUpdateCB()
// 2424  *
// 2425  * @brief   This function notifies that this device's network
// 2426  *          state info has been changed.
// 2427  *
// 2428  * @param   none
// 2429  *
// 2430  * @return  none
// 2431  */

        RSEG BANKED_CODE:CODE:NOROOT(0)
// 2432 void ZDApp_NwkStateUpdateCB( void )
ZDApp_NwkStateUpdateCB:
        CFI Block cfiBlock48 Using cfiCommon0
        CFI Function ZDApp_NwkStateUpdateCB
// 2433 {
        FUNCALL ZDApp_NwkStateUpdateCB, osal_get_timeoutEx
        LOCFRAME ISTACK, 0, STACK
        LOCFRAME PSTACK, 0, STACK
        LOCFRAME XSTACK, 10, STACK
        LOCFRAME IOVERLAY, 0, STATIC
        LOCFRAME DOVERLAY, 0, STATIC
        ARGFRAME ISTACK, 0, STACK
        ARGFRAME PSTACK, 0, STACK
        ARGFRAME XSTACK, 10, STACK
        ARGFRAME IOVERLAY, 0, STATIC
        ARGFRAME DOVERLAY, 0, STATIC
        FUNCALL ZDApp_NwkStateUpdateCB, ZDApp_NVUpdate
        LOCFRAME ISTACK, 0, STACK
        LOCFRAME PSTACK, 0, STACK
        LOCFRAME XSTACK, 10, STACK
        LOCFRAME IOVERLAY, 0, STATIC
        LOCFRAME DOVERLAY, 0, STATIC
        ARGFRAME ISTACK, 0, STACK
        ARGFRAME PSTACK, 0, STACK
        ARGFRAME XSTACK, 10, STACK
        ARGFRAME IOVERLAY, 0, STATIC
        ARGFRAME DOVERLAY, 0, STATIC
        MOV     A,#-0xa
        LCALL   ?BANKED_ENTER_XDATA
        CFI DPH0 load(1, XDATA, add(CFA_XSP16, literal(-1)))
        CFI DPL0 load(1, XDATA, add(CFA_XSP16, literal(-2)))
        CFI ?BRET_EXT load(1, XDATA, add(CFA_XSP16, literal(-3)))
        CFI ?RET_HIGH load(1, XDATA, add(CFA_XSP16, literal(-4)))
        CFI ?RET_LOW load(1, XDATA, add(CFA_XSP16, literal(-5)))
        CFI R7 load(1, XDATA, add(CFA_XSP16, literal(-6)))
        CFI V1 load(1, XDATA, add(CFA_XSP16, literal(-7)))
        CFI V0 load(1, XDATA, add(CFA_XSP16, literal(-8)))
        CFI VB load(1, XDATA, add(CFA_XSP16, literal(-9)))
        CFI R6 load(1, XDATA, add(CFA_XSP16, literal(-10)))
        CFI CFA_SP SP+0
        CFI CFA_XSP16 add(XSP16, 10)
        ; Saved register size: 10
        ; Auto size: 0
// 2434   // Notify to save info into NV
// 2435   if ( !osal_get_timeoutEx( ZDAppTaskID, ZDO_NWK_UPDATE_NV ) )
        ; Setup parameters for call to function osal_get_timeoutEx
        MOV     R2,#0x0
        MOV     R3,#0x2
        MOV     DPTR,#ZDAppTaskID
        MOVX    A,@DPTR
        MOV     R1,A
        LCALL   ??osal_get_timeoutEx?relay
        MOV     A,R2
        JNZ     ??ZDApp_NwkStateUpdateCB_0
        MOV     A,R3
??ZDApp_NwkStateUpdateCB_0:
        JNZ     ??ZDApp_NwkStateUpdateCB_1
// 2436   {
// 2437     // Trigger to save info into NV
// 2438     ZDApp_NVUpdate();
        ; Setup parameters for call to function ZDApp_NVUpdate
        LCALL   ??ZDApp_NVUpdate?relay
// 2439   }
// 2440 }
??ZDApp_NwkStateUpdateCB_1:
        MOV     R7,#0x2
        LJMP    ?BANKED_LEAVE_XDATA
        CFI EndBlock cfiBlock48
// 2441 
// 2442 /*********************************************************************
// 2443  * @fn      ZDApp_NodeProfileSync()
// 2444  *
// 2445  * @brief   Sync node with stack profile.
// 2446  *
// 2447  * @param   cfm - ZDO_NetworkDiscoveryCfm_t
// 2448  *
// 2449  * @return  none
// 2450  */

        RSEG BANKED_CODE:CODE:NOROOT(0)
// 2451 void ZDApp_NodeProfileSync( ZDO_NetworkDiscoveryCfm_t* cfm )
ZDApp_NodeProfileSync:
        CFI Block cfiBlock49 Using cfiCommon0
        CFI Function ZDApp_NodeProfileSync
// 2452 {
        FUNCALL ZDApp_NodeProfileSync, nwk_getNetworkDesc
        LOCFRAME ISTACK, 0, STACK
        LOCFRAME PSTACK, 0, STACK
        LOCFRAME XSTACK, 10, STACK
        LOCFRAME IOVERLAY, 0, STATIC
        LOCFRAME DOVERLAY, 0, STATIC
        ARGFRAME ISTACK, 0, STACK
        ARGFRAME PSTACK, 0, STACK
        ARGFRAME XSTACK, 10, STACK
        ARGFRAME IOVERLAY, 0, STATIC
        ARGFRAME DOVERLAY, 0, STATIC
        FUNCALL ZDApp_NodeProfileSync, NLME_SetBroadcastFilter
        LOCFRAME ISTACK, 0, STACK
        LOCFRAME PSTACK, 0, STACK
        LOCFRAME XSTACK, 10, STACK
        LOCFRAME IOVERLAY, 0, STATIC
        LOCFRAME DOVERLAY, 0, STATIC
        ARGFRAME ISTACK, 0, STACK
        ARGFRAME PSTACK, 0, STACK
        ARGFRAME XSTACK, 10, STACK
        ARGFRAME IOVERLAY, 0, STATIC
        ARGFRAME DOVERLAY, 0, STATIC
        MOV     A,#-0xa
        LCALL   ?BANKED_ENTER_XDATA
        CFI DPH0 load(1, XDATA, add(CFA_XSP16, literal(-1)))
        CFI DPL0 load(1, XDATA, add(CFA_XSP16, literal(-2)))
        CFI ?BRET_EXT load(1, XDATA, add(CFA_XSP16, literal(-3)))
        CFI ?RET_HIGH load(1, XDATA, add(CFA_XSP16, literal(-4)))
        CFI ?RET_LOW load(1, XDATA, add(CFA_XSP16, literal(-5)))
        CFI R7 load(1, XDATA, add(CFA_XSP16, literal(-6)))
        CFI V1 load(1, XDATA, add(CFA_XSP16, literal(-7)))
        CFI V0 load(1, XDATA, add(CFA_XSP16, literal(-8)))
        CFI VB load(1, XDATA, add(CFA_XSP16, literal(-9)))
        CFI R6 load(1, XDATA, add(CFA_XSP16, literal(-10)))
        CFI CFA_SP SP+0
        CFI CFA_XSP16 add(XSP16, 10)
        ; Saved register size: 10
        ; Auto size: 0
// 2453   networkDesc_t* desc;
// 2454   uint16         panID;
// 2455 
// 2456   if ( ZDO_Config_Node_Descriptor.CapabilityFlags & CAPINFO_DEVICETYPE_FFD  )
        MOV     DPTR,#(ZDO_Config_Node_Descriptor + 2)
        MOVX    A,@DPTR
        MOV     C,0xE0 /* A   */.1
        JNC     ??ZDApp_NodeProfileSync_0
// 2457   {
// 2458     panID = BUILD_UINT16( cfm->panIdLSB, cfm->panIdMSB );
// 2459 
// 2460     desc = nwk_getNetworkDesc( cfm->extendedPANID, panID, cfm->logicalChannel );
        ; Setup parameters for call to function nwk_getNetworkDesc
        MOV     DPL,R2
        MOV     DPH,R3
        INC     DPTR
        INC     DPTR
        INC     DPTR
        INC     DPTR
        MOVX    A,@DPTR
        MOV     R1,A
        MOV     DPL,R2
        MOV     DPH,R3
        INC     DPTR
        INC     DPTR
        MOVX    A,@DPTR
        MOV     R6,A
        MOV     DPL,R2
        MOV     DPH,R3
        INC     DPTR
        INC     DPTR
        INC     DPTR
        MOVX    A,@DPTR
        MOV     R5,A
        MOV     A,R6
        MOV     R4,A
        MOV     A,R2
        ADD     A,#0x6
        MOV     R2,A
        MOV     A,R3
        ADDC    A,#0x0
        MOV     R3,A
        LCALL   ??nwk_getNetworkDesc?relay
        MOV     DPL,R2
        MOV     DPH,R3
// 2461 
// 2462     if (desc != NULL)
        MOV     A,DPL
        JNZ     ??ZDApp_NodeProfileSync_1
        MOV     A,DPH
??ZDApp_NodeProfileSync_1:
        JZ      ??ZDApp_NodeProfileSync_0
// 2463     {
// 2464       if ( desc->stackProfile != zgStackProfile )
        INC     DPTR
        INC     DPTR
        INC     DPTR
        INC     DPTR
        INC     DPTR
        INC     DPTR
        INC     DPTR
        INC     DPTR
        MOVX    A,@DPTR
        MOV     R2,A
        MOV     DPTR,#zgStackProfile
        MOVX    A,@DPTR
        XRL     A,R2
        JZ      ??ZDApp_NodeProfileSync_0
// 2465       {
// 2466         ZDO_Config_Node_Descriptor.LogicalType = NODETYPE_DEVICE;
        MOV     DPTR,#ZDO_Config_Node_Descriptor
        MOVX    A,@DPTR
        ANL     A,#0xf8
        ORL     A,#0x2
        MOVX    @DPTR,A
// 2467         ZDO_Config_Node_Descriptor.CapabilityFlags = CAPINFO_DEVICETYPE_RFD | CAPINFO_POWER_AC | CAPINFO_RCVR_ON_IDLE;
        MOV     A,#0xc
        MOV     DPTR,#(ZDO_Config_Node_Descriptor + 2)
        MOVX    @DPTR,A
// 2468         NLME_SetBroadcastFilter( ZDO_Config_Node_Descriptor.CapabilityFlags );
        ; Setup parameters for call to function NLME_SetBroadcastFilter
        MOV     R1,A
        LCALL   ??NLME_SetBroadcastFilter?relay
// 2469       }
// 2470     }
// 2471   }
// 2472 }
??ZDApp_NodeProfileSync_0:
        MOV     R7,#0x2
        LJMP    ?BANKED_LEAVE_XDATA
        CFI EndBlock cfiBlock49
// 2473 
// 2474 /*********************************************************************
// 2475  * @fn      ZDApp_StartJoiningCycle()
// 2476  *
// 2477  * @brief   Starts the joining cycle of a device.  This will only
// 2478  *          continue an already started (or stopped) joining cycle.
// 2479  *
// 2480  * @param   none
// 2481  *
// 2482  * @return  TRUE if joining stopped, FALSE if joining or rejoining
// 2483  */

        RSEG BANKED_CODE:CODE:NOROOT(0)
// 2484 uint8 ZDApp_StartJoiningCycle( void )
ZDApp_StartJoiningCycle:
        CFI Block cfiBlock50 Using cfiCommon0
        CFI Function ZDApp_StartJoiningCycle
// 2485 {
        FUNCALL ZDApp_StartJoiningCycle, ZDApp_NetworkInit
        LOCFRAME ISTACK, 2, STACK
        LOCFRAME PSTACK, 0, STACK
        LOCFRAME XSTACK, 0, STACK
        LOCFRAME IOVERLAY, 0, STATIC
        LOCFRAME DOVERLAY, 0, STATIC
        ARGFRAME ISTACK, 2, STACK
        ARGFRAME PSTACK, 0, STACK
        ARGFRAME XSTACK, 0, STACK
        ARGFRAME IOVERLAY, 0, STATIC
        ARGFRAME DOVERLAY, 0, STATIC
        PUSH    DPL
        CFI DPL0 Frame(CFA_SP, 4)
        CFI CFA_SP SP+-4
        PUSH    DPH
        CFI DPH0 Frame(CFA_SP, 5)
        CFI CFA_SP SP+-5
        ; Saved register size: 2
        ; Auto size: 0
// 2486   if ( devState == DEV_INIT || devState == DEV_NWK_DISC )
        MOV     DPTR,#devState
        MOVX    A,@DPTR
        XRL     A,#0x1
        JZ      ??ZDApp_StartJoiningCycle_0
        MOVX    A,@DPTR
        XRL     A,#0x2
        JNZ     ??ZDApp_StartJoiningCycle_1
// 2487   {
// 2488     continueJoining = TRUE;
??ZDApp_StartJoiningCycle_0:
        MOV     A,#0x1
        MOV     DPTR,#continueJoining
        MOVX    @DPTR,A
// 2489     ZDApp_NetworkInit( 0 );
        ; Setup parameters for call to function ZDApp_NetworkInit
        MOV     R2,#0x0
        MOV     R3,#0x0
        LCALL   ??ZDApp_NetworkInit?relay
// 2490 
// 2491     return ( TRUE );
        MOV     R1,#0x1
        SJMP    ??ZDApp_StartJoiningCycle_2
// 2492   }
// 2493   else
// 2494     return ( FALSE );
??ZDApp_StartJoiningCycle_1:
        MOV     R1,#0x0
??ZDApp_StartJoiningCycle_2:
        POP     DPH
        CFI DPH0 SameValue
        CFI CFA_SP SP+-4
        POP     DPL
        CFI DPL0 SameValue
        CFI CFA_SP SP+-3
        LJMP    ?BRET
        CFI EndBlock cfiBlock50
// 2495 }
// 2496 
// 2497 /*********************************************************************
// 2498  * @fn      ZDApp_StopJoiningCycle()
// 2499  *
// 2500  * @brief   Stops the joining or rejoining process of a device.
// 2501  *
// 2502  * @param   none
// 2503  *
// 2504  * @return  TRUE if joining stopped, FALSE if joining or rejoining
// 2505  */

        RSEG BANKED_CODE:CODE:NOROOT(0)
// 2506 uint8 ZDApp_StopJoiningCycle( void )
ZDApp_StopJoiningCycle:
        CFI Block cfiBlock51 Using cfiCommon0
        CFI Function ZDApp_StopJoiningCycle
// 2507 {
        PUSH    DPL
        CFI DPL0 Frame(CFA_SP, 4)
        CFI CFA_SP SP+-4
        PUSH    DPH
        CFI DPH0 Frame(CFA_SP, 5)
        CFI CFA_SP SP+-5
        ; Saved register size: 2
        ; Auto size: 0
// 2508   if ( devState == DEV_INIT || devState == DEV_NWK_DISC )
        MOV     DPTR,#devState
        MOVX    A,@DPTR
        XRL     A,#0x1
        JZ      ??ZDApp_StopJoiningCycle_0
        MOVX    A,@DPTR
        XRL     A,#0x2
        JNZ     ??ZDApp_StopJoiningCycle_1
// 2509   {
// 2510     continueJoining = FALSE;
??ZDApp_StopJoiningCycle_0:
        CLR     A
        MOV     DPTR,#continueJoining
        MOVX    @DPTR,A
// 2511     return ( TRUE );
        MOV     R1,#0x1
        SJMP    ??ZDApp_StopJoiningCycle_2
// 2512   }
// 2513   else
// 2514     return ( FALSE );
??ZDApp_StopJoiningCycle_1:
        MOV     R1,#0x0
??ZDApp_StopJoiningCycle_2:
        POP     DPH
        CFI DPH0 SameValue
        CFI CFA_SP SP+-4
        POP     DPL
        CFI DPL0 SameValue
        CFI CFA_SP SP+-3
        LJMP    ?BRET
        CFI EndBlock cfiBlock51
// 2515 }
// 2516 
// 2517 /*********************************************************************
// 2518  * @fn      ZDApp_AnnounceNewAddress()
// 2519  *
// 2520  * @brief   Send Device Announce and hold all transmissions for
// 2521  *          new address timeout.
// 2522  *
// 2523  * @param   none
// 2524  *
// 2525  * @return  none
// 2526  */

        RSEG BANKED_CODE:CODE:NOROOT(0)
// 2527 void ZDApp_AnnounceNewAddress( void )
ZDApp_AnnounceNewAddress:
        CFI Block cfiBlock52 Using cfiCommon0
        CFI Function ZDApp_AnnounceNewAddress
// 2528 {
        FUNCALL ZDApp_AnnounceNewAddress, NLME_GetExtAddr
        LOCFRAME ISTACK, 0, STACK
        LOCFRAME PSTACK, 0, STACK
        LOCFRAME XSTACK, 10, STACK
        LOCFRAME IOVERLAY, 0, STATIC
        LOCFRAME DOVERLAY, 0, STATIC
        ARGFRAME ISTACK, 0, STACK
        ARGFRAME PSTACK, 0, STACK
        ARGFRAME XSTACK, 10, STACK
        ARGFRAME IOVERLAY, 0, STATIC
        ARGFRAME DOVERLAY, 0, STATIC
        FUNCALL ZDApp_AnnounceNewAddress, NLME_GetShortAddr
        LOCFRAME ISTACK, 0, STACK
        LOCFRAME PSTACK, 0, STACK
        LOCFRAME XSTACK, 10, STACK
        LOCFRAME IOVERLAY, 0, STATIC
        LOCFRAME DOVERLAY, 0, STATIC
        ARGFRAME ISTACK, 0, STACK
        ARGFRAME PSTACK, 0, STACK
        ARGFRAME XSTACK, 10, STACK
        ARGFRAME IOVERLAY, 0, STATIC
        ARGFRAME DOVERLAY, 0, STATIC
        FUNCALL ZDApp_AnnounceNewAddress, ZDP_DeviceAnnce
        LOCFRAME ISTACK, 0, STACK
        LOCFRAME PSTACK, 0, STACK
        LOCFRAME XSTACK, 11, STACK
        LOCFRAME IOVERLAY, 0, STATIC
        LOCFRAME DOVERLAY, 0, STATIC
        ARGFRAME ISTACK, 0, STACK
        ARGFRAME PSTACK, 0, STACK
        ARGFRAME XSTACK, 11, STACK
        ARGFRAME IOVERLAY, 0, STATIC
        ARGFRAME DOVERLAY, 0, STATIC
        MOV     A,#-0xa
        LCALL   ?BANKED_ENTER_XDATA
        CFI DPH0 load(1, XDATA, add(CFA_XSP16, literal(-1)))
        CFI DPL0 load(1, XDATA, add(CFA_XSP16, literal(-2)))
        CFI ?BRET_EXT load(1, XDATA, add(CFA_XSP16, literal(-3)))
        CFI ?RET_HIGH load(1, XDATA, add(CFA_XSP16, literal(-4)))
        CFI ?RET_LOW load(1, XDATA, add(CFA_XSP16, literal(-5)))
        CFI R7 load(1, XDATA, add(CFA_XSP16, literal(-6)))
        CFI V1 load(1, XDATA, add(CFA_XSP16, literal(-7)))
        CFI V0 load(1, XDATA, add(CFA_XSP16, literal(-8)))
        CFI VB load(1, XDATA, add(CFA_XSP16, literal(-9)))
        CFI R6 load(1, XDATA, add(CFA_XSP16, literal(-10)))
        CFI CFA_SP SP+0
        CFI CFA_XSP16 add(XSP16, 10)
        ; Saved register size: 10
        ; Auto size: 0
// 2529 #if defined ( ZIGBEE_NWK_UNIQUE_ADDR_CHECK )
// 2530   // Turn off data request hold
// 2531   APSME_HoldDataRequests( 0 );
// 2532 #endif
// 2533 
// 2534   ZDP_DeviceAnnce( NLME_GetShortAddr(), NLME_GetExtAddr(),
// 2535                      ZDO_Config_Node_Descriptor.CapabilityFlags, 0 );
        ; Setup parameters for call to function NLME_GetExtAddr
        LCALL   ??NLME_GetExtAddr?relay
        MOV     ?V0 + 0,R2
        MOV     ?V0 + 1,R3
        MOV     R6,?V0 + 0
        ; Setup parameters for call to function NLME_GetShortAddr
        LCALL   ??NLME_GetShortAddr?relay
        ; Setup parameters for call to function ZDP_DeviceAnnce
        MOV     ?V0 + 0,#0x0
        MOV     R0,#?V0 + 0
        LCALL   ?PUSH_XSTACK_I_ONE
        CFI CFA_XSP16 add(XSP16, 11)
        MOV     DPTR,#(ZDO_Config_Node_Descriptor + 2)
        MOVX    A,@DPTR
        MOV     R1,A
        MOV     A,R6
        MOV     R4,A
        MOV     R5,?V0 + 1
        LCALL   ??ZDP_DeviceAnnce?relay
        MOV     A,#0x1
        LCALL   ?DEALLOC_XSTACK8
        CFI CFA_XSP16 add(XSP16, 10)
// 2536 
// 2537 #if defined ( ZIGBEE_NWK_UNIQUE_ADDR_CHECK )
// 2538   // Setup the timeout
// 2539   APSME_HoldDataRequests( ZDAPP_HOLD_DATA_REQUESTS_TIMEOUT );
// 2540 #endif
// 2541 }
        MOV     R7,#0x2
        LJMP    ?BANKED_LEAVE_XDATA
        CFI EndBlock cfiBlock52
// 2542 
// 2543 /*********************************************************************
// 2544  * @fn          ZDApp_NVUpdate
// 2545  *
// 2546  * @brief       Set the NV Update Timer.
// 2547  *
// 2548  * @param       none
// 2549  *
// 2550  * @return      none
// 2551  */

        RSEG BANKED_CODE:CODE:NOROOT(0)
// 2552 void ZDApp_NVUpdate( void )
ZDApp_NVUpdate:
        CFI Block cfiBlock53 Using cfiCommon0
        CFI Function ZDApp_NVUpdate
// 2553 {
        ; Saved register size: 0
        ; Auto size: 0
// 2554 #if defined ( NV_RESTORE )
// 2555   osal_start_timerEx( ZDAppTaskID, ZDO_NWK_UPDATE_NV, ZDAPP_UPDATE_NWK_NV_TIME );
// 2556 #endif
// 2557 }
        LJMP    ?BRET
        CFI EndBlock cfiBlock53
// 2558 
// 2559 /*********************************************************************
// 2560  * @fn      ZDApp_CoordStartPANIDConflictCB()
// 2561  *
// 2562  * @brief   Returns a PAN ID for the network layer to use during
// 2563  *          a coordinator start and there is another network with
// 2564  *          the intended PANID.
// 2565  *
// 2566  * @param   panid - the intended PAN ID
// 2567  *
// 2568  * @return  PANID to try
// 2569  */

        RSEG BANKED_CODE:CODE:NOROOT(0)
// 2570 uint16 ZDApp_CoordStartPANIDConflictCB( uint16 panid )
ZDApp_CoordStartPANIDConflictCB:
        CFI Block cfiBlock54 Using cfiCommon0
        CFI Function ZDApp_CoordStartPANIDConflictCB
// 2571 {
        ; Saved register size: 0
        ; Auto size: 0
// 2572   return ( panid + 1 );
        MOV     A,#0x1
        ADD     A,R2
        INC     R2
        CLR     A
        ADDC    A,R3
        MOV     R3,A
        LJMP    ?BRET
        CFI EndBlock cfiBlock54
// 2573 }

        RSEG XDATA_ID:CODE:NOROOT(0)
        DATA
`?<Initializer for zdoDiscCounter>`:
        DB 1

        RSEG XDATA_ID:CODE:NOROOT(0)
        DATA
`?<Initializer for continueJoining>`:
        DB 1

        RSEG XDATA_ID:CODE:NOROOT(0)
        DATA
`?<Initializer for devState>`:
        DB 1

        RSEG XDATA_ID:CODE:NOROOT(0)
        DATA
`?<Initializer for ZDApp_epDesc>`:
        DB 0
        DW ZDAppTaskID, 0H
        DB 0

        RSEG XDATA_ID:CODE:NOROOT(0)
        DATA
`?<Initializer for ZDApp_SavedPollRate>`:
        DW 1000

        RSEG XDATA_ROM_C:CONST:REORDER:NOROOT(0)
        DATA
__Constant_1:
        DD 1

        RSEG XDATA_ROM_C:CONST:REORDER:NOROOT(0)
        DATA
__Constant_0:
        DD 0

        RSEG XDATA_ROM_C:CONST:REORDER:NOROOT(0)
        DATA
__Constant_3e8:
        DD 1000

        RSEG BANK_RELAYS:CODE:REORDER:NOROOT(0)
??ZDApp_Init?relay:
        LCALL   ?BDISPATCH
        DATA
        DC24    ZDApp_Init

        RSEG BANK_RELAYS:CODE:REORDER:NOROOT(0)
??ZDApp_SecInit?relay:
        LCALL   ?BDISPATCH
        DATA
        DC24    ZDApp_SecInit

        RSEG BANK_RELAYS:CODE:REORDER:NOROOT(0)
??ZDApp_event_loop?relay:
        LCALL   ?BDISPATCH
        DATA
        DC24    ZDApp_event_loop

        RSEG BANK_RELAYS:CODE:REORDER:NOROOT(0)
??ZDApp_ProcessSecEvent?relay:
        LCALL   ?BDISPATCH
        DATA
        DC24    ZDApp_ProcessSecEvent

        RSEG BANK_RELAYS:CODE:REORDER:NOROOT(0)
??ZDOInitDevice?relay:
        LCALL   ?BDISPATCH
        DATA
        DC24    ZDOInitDevice

        RSEG BANK_RELAYS:CODE:REORDER:NOROOT(0)
??ZDApp_ReadNetworkRestoreState?relay:
        LCALL   ?BDISPATCH
        DATA
        DC24    ZDApp_ReadNetworkRestoreState

        RSEG BANK_RELAYS:CODE:REORDER:NOROOT(0)
??ZDAppDetermineDeviceType?relay:
        LCALL   ?BDISPATCH
        DATA
        DC24    ZDAppDetermineDeviceType

        RSEG BANK_RELAYS:CODE:REORDER:NOROOT(0)
??ZDApp_NetworkStartEvt?relay:
        LCALL   ?BDISPATCH
        DATA
        DC24    ZDApp_NetworkStartEvt

        RSEG BANK_RELAYS:CODE:REORDER:NOROOT(0)
??ZDApp_DeviceAuthEvt?relay:
        LCALL   ?BDISPATCH
        DATA
        DC24    ZDApp_DeviceAuthEvt

        RSEG BANK_RELAYS:CODE:REORDER:NOROOT(0)
??ZDApp_SaveNetworkStateEvt?relay:
        LCALL   ?BDISPATCH
        DATA
        DC24    ZDApp_SaveNetworkStateEvt

        RSEG BANK_RELAYS:CODE:REORDER:NOROOT(0)
??ZDApp_RestoreNetworkState?relay:
        LCALL   ?BDISPATCH
        DATA
        DC24    ZDApp_RestoreNetworkState

        RSEG BANK_RELAYS:CODE:REORDER:NOROOT(0)
??ZDApp_InitUserDesc?relay:
        LCALL   ?BDISPATCH
        DATA
        DC24    ZDApp_InitUserDesc

        RSEG BANK_RELAYS:CODE:REORDER:NOROOT(0)
??ZDAppCheckForHoldKey?relay:
        LCALL   ?BDISPATCH
        DATA
        DC24    ZDAppCheckForHoldKey

        RSEG BANK_RELAYS:CODE:REORDER:NOROOT(0)
??ZDApp_ProcessOSALMsg?relay:
        LCALL   ?BDISPATCH
        DATA
        DC24    ZDApp_ProcessOSALMsg

        RSEG BANK_RELAYS:CODE:REORDER:NOROOT(0)
??ZDApp_ProcessMsgCBs?relay:
        LCALL   ?BDISPATCH
        DATA
        DC24    ZDApp_ProcessMsgCBs

        RSEG BANK_RELAYS:CODE:REORDER:NOROOT(0)
??ZDApp_RegisterCBs?relay:
        LCALL   ?BDISPATCH
        DATA
        DC24    ZDApp_RegisterCBs

        RSEG BANK_RELAYS:CODE:REORDER:NOROOT(0)
??ZDApp_ProcessSecMsg?relay:
        LCALL   ?BDISPATCH
        DATA
        DC24    ZDApp_ProcessSecMsg

        RSEG BANK_RELAYS:CODE:REORDER:NOROOT(0)
??ZDApp_ProcessNetworkJoin?relay:
        LCALL   ?BDISPATCH
        DATA
        DC24    ZDApp_ProcessNetworkJoin

        RSEG BANK_RELAYS:CODE:REORDER:NOROOT(0)
??ZDApp_SaveNwkKey?relay:
        LCALL   ?BDISPATCH
        DATA
        DC24    ZDApp_SaveNwkKey

        RSEG BANK_RELAYS:CODE:REORDER:NOROOT(0)
??ZDApp_ResetNwkKey?relay:
        LCALL   ?BDISPATCH
        DATA
        DC24    ZDApp_ResetNwkKey

        RSEG BANK_RELAYS:CODE:REORDER:NOROOT(0)
??ZDApp_RestoreNwkKey?relay:
        LCALL   ?BDISPATCH
        DATA
        DC24    ZDApp_RestoreNwkKey

        RSEG BANK_RELAYS:CODE:REORDER:NOROOT(0)
??ZDApp_ResetTimerStart?relay:
        LCALL   ?BDISPATCH
        DATA
        DC24    ZDApp_ResetTimerStart

        RSEG BANK_RELAYS:CODE:REORDER:NOROOT(0)
??ZDApp_ResetTimerCancel?relay:
        LCALL   ?BDISPATCH
        DATA
        DC24    ZDApp_ResetTimerCancel

        RSEG BANK_RELAYS:CODE:REORDER:NOROOT(0)
??ZDApp_LeaveCtrlInit?relay:
        LCALL   ?BDISPATCH
        DATA
        DC24    ZDApp_LeaveCtrlInit

        RSEG BANK_RELAYS:CODE:REORDER:NOROOT(0)
??ZDApp_LeaveCtrlSet?relay:
        LCALL   ?BDISPATCH
        DATA
        DC24    ZDApp_LeaveCtrlSet

        RSEG BANK_RELAYS:CODE:REORDER:NOROOT(0)
??ZDApp_LeaveCtrlBypass?relay:
        LCALL   ?BDISPATCH
        DATA
        DC24    ZDApp_LeaveCtrlBypass

        RSEG BANK_RELAYS:CODE:REORDER:NOROOT(0)
??ZDApp_LeaveCtrlStartup?relay:
        LCALL   ?BDISPATCH
        DATA
        DC24    ZDApp_LeaveCtrlStartup

        RSEG BANK_RELAYS:CODE:REORDER:NOROOT(0)
??ZDApp_LeaveReset?relay:
        LCALL   ?BDISPATCH
        DATA
        DC24    ZDApp_LeaveReset

        RSEG BANK_RELAYS:CODE:REORDER:NOROOT(0)
??ZDApp_LeaveUpdate?relay:
        LCALL   ?BDISPATCH
        DATA
        DC24    ZDApp_LeaveUpdate

        RSEG BANK_RELAYS:CODE:REORDER:NOROOT(0)
??ZDApp_SendEventMsg?relay:
        LCALL   ?BDISPATCH
        DATA
        DC24    ZDApp_SendEventMsg

        RSEG BANK_RELAYS:CODE:REORDER:NOROOT(0)
??ZDApp_SendMsg?relay:
        LCALL   ?BDISPATCH
        DATA
        DC24    ZDApp_SendMsg

        RSEG BANK_RELAYS:CODE:REORDER:NOROOT(0)
??ZDO_NetworkDiscoveryConfirmCB?relay:
        LCALL   ?BDISPATCH
        DATA
        DC24    ZDO_NetworkDiscoveryConfirmCB

        RSEG BANK_RELAYS:CODE:REORDER:NOROOT(0)
??ZDO_NetworkFormationConfirmCB?relay:
        LCALL   ?BDISPATCH
        DATA
        DC24    ZDO_NetworkFormationConfirmCB

        RSEG BANK_RELAYS:CODE:REORDER:NOROOT(0)
??ZDO_StartRouterConfirmCB?relay:
        LCALL   ?BDISPATCH
        DATA
        DC24    ZDO_StartRouterConfirmCB

        RSEG BANK_RELAYS:CODE:REORDER:NOROOT(0)
??ZDO_JoinConfirmCB?relay:
        LCALL   ?BDISPATCH
        DATA
        DC24    ZDO_JoinConfirmCB

        RSEG BANK_RELAYS:CODE:REORDER:NOROOT(0)
??ZDO_AddrChangeIndicationCB?relay:
        LCALL   ?BDISPATCH
        DATA
        DC24    ZDO_AddrChangeIndicationCB

        RSEG BANK_RELAYS:CODE:REORDER:NOROOT(0)
??ZDO_JoinIndicationCB?relay:
        LCALL   ?BDISPATCH
        DATA
        DC24    ZDO_JoinIndicationCB

        RSEG BANK_RELAYS:CODE:REORDER:NOROOT(0)
??ZDO_ConcentratorIndicationCB?relay:
        LCALL   ?BDISPATCH
        DATA
        DC24    ZDO_ConcentratorIndicationCB

        RSEG BANK_RELAYS:CODE:REORDER:NOROOT(0)
??ZDO_LeaveCnf?relay:
        LCALL   ?BDISPATCH
        DATA
        DC24    ZDO_LeaveCnf

        RSEG BANK_RELAYS:CODE:REORDER:NOROOT(0)
??ZDO_LeaveInd?relay:
        LCALL   ?BDISPATCH
        DATA
        DC24    ZDO_LeaveInd

        RSEG BANK_RELAYS:CODE:REORDER:NOROOT(0)
??ZDO_SyncIndicationCB?relay:
        LCALL   ?BDISPATCH
        DATA
        DC24    ZDO_SyncIndicationCB

        RSEG BANK_RELAYS:CODE:REORDER:NOROOT(0)
??ZDO_ManytoOneFailureIndicationCB?relay:
        LCALL   ?BDISPATCH
        DATA
        DC24    ZDO_ManytoOneFailureIndicationCB

        RSEG BANK_RELAYS:CODE:REORDER:NOROOT(0)
??ZDO_PollConfirmCB?relay:
        LCALL   ?BDISPATCH
        DATA
        DC24    ZDO_PollConfirmCB

        RSEG BANK_RELAYS:CODE:REORDER:NOROOT(0)
??AddrMgrWriteNVRequest?relay:
        LCALL   ?BDISPATCH
        DATA
        DC24    AddrMgrWriteNVRequest

        RSEG BANK_RELAYS:CODE:REORDER:NOROOT(0)
??ZDO_UpdateDeviceIndication?relay:
        LCALL   ?BDISPATCH
        DATA
        DC24    ZDO_UpdateDeviceIndication

        RSEG BANK_RELAYS:CODE:REORDER:NOROOT(0)
??ZDApp_InMsgCB?relay:
        LCALL   ?BDISPATCH
        DATA
        DC24    ZDApp_InMsgCB

        RSEG BANK_RELAYS:CODE:REORDER:NOROOT(0)
??ZDApp_ChangeMatchDescRespPermission?relay:
        LCALL   ?BDISPATCH
        DATA
        DC24    ZDApp_ChangeMatchDescRespPermission

        RSEG BANK_RELAYS:CODE:REORDER:NOROOT(0)
??ZDApp_NetworkInit?relay:
        LCALL   ?BDISPATCH
        DATA
        DC24    ZDApp_NetworkInit

        RSEG BANK_RELAYS:CODE:REORDER:NOROOT(0)
??ZDApp_NwkStateUpdateCB?relay:
        LCALL   ?BDISPATCH
        DATA
        DC24    ZDApp_NwkStateUpdateCB

        RSEG BANK_RELAYS:CODE:REORDER:NOROOT(0)
??ZDApp_NodeProfileSync?relay:
        LCALL   ?BDISPATCH
        DATA
        DC24    ZDApp_NodeProfileSync

        RSEG BANK_RELAYS:CODE:REORDER:NOROOT(0)
??ZDApp_StartJoiningCycle?relay:
        LCALL   ?BDISPATCH
        DATA
        DC24    ZDApp_StartJoiningCycle

        RSEG BANK_RELAYS:CODE:REORDER:NOROOT(0)
??ZDApp_StopJoiningCycle?relay:
        LCALL   ?BDISPATCH
        DATA
        DC24    ZDApp_StopJoiningCycle

        RSEG BANK_RELAYS:CODE:REORDER:NOROOT(0)
??ZDApp_AnnounceNewAddress?relay:
        LCALL   ?BDISPATCH
        DATA
        DC24    ZDApp_AnnounceNewAddress

        RSEG BANK_RELAYS:CODE:REORDER:NOROOT(0)
??ZDApp_NVUpdate?relay:
        LCALL   ?BDISPATCH
        DATA
        DC24    ZDApp_NVUpdate

        RSEG BANK_RELAYS:CODE:REORDER:NOROOT(0)
??ZDApp_CoordStartPANIDConflictCB?relay:
        LCALL   ?BDISPATCH
        DATA
        DC24    ZDApp_CoordStartPANIDConflictCB

        END
// 2574 
// 2575 /*********************************************************************
// 2576 *********************************************************************/
// 
// 4 681 bytes in segment BANKED_CODE
//   330 bytes in segment BANK_RELAYS
//     2 bytes in segment SFR_AN
//    11 bytes in segment XDATA_I
//    11 bytes in segment XDATA_ID
//    12 bytes in segment XDATA_ROM_C
//    41 bytes in segment XDATA_Z
// 
// 5 022 bytes of CODE  memory
//     0 bytes of CONST memory (+ 12 bytes shared)
//     0 bytes of DATA  memory (+  2 bytes shared)
//    52 bytes of XDATA memory
//
//Errors: none
//Warnings: none
