###############################################################################
#                                                                             #
# IAR C/C++ Compiler V7.51A/W32 for 8051                08/Apr/2013  11:22:24 #
# Copyright 2004-2009 IAR Systems AB.                                         #
#                                                                             #
#    Core               =  plain                                              #
#    Code model         =  banked                                             #
#    Data model         =  large                                              #
#    Calling convention =  xdata reentrant                                    #
#    Constant location  =  data_rom                                           #
#    Dptr setup         =  1,16                                               #
#    Source file        =  C:\Texas Instruments\ZStack-CC2530-2.2.2-1.3.0\Com #
#                          ponents\stack\zdo\ZDObject.c                       #
#    Command line       =  -f "C:\Texas Instruments\ZStack-CC2530-2.2.2-1.3.0 #
#                          \Projects\zstack\Samples\WSN_sensors\CC2530DB\..\. #
#                          .\..\Tools\CC2530DB\f8wRouter.cfg" (-DCPU32MHZ     #
#                          -DROOT=__near_func -DMAC_CFG_APP_PENDING_QUEUE=TRU #
#                          E -DRTR_NWK -DBLINK_LEDS) -f "C:\Texas             #
#                          Instruments\ZStack-CC2530-2.2.2-1.3.0\Projects\zst #
#                          ack\Samples\WSN_sensors\CC2530DB\..\..\..\Tools\CC #
#                          2530DB\f8wConfig.cfg" (-DSECURE=0                  #
#                          -DZG_SECURE_DYNAMIC=0 -DREFLECTOR                  #
#                          -DDEFAULT_CHANLIST=0x00000800                      #
#                          -DZDAPP_CONFIG_PAN_ID=0xFFFF                       #
#                          -DNWK_START_DELAY=100 -DEXTENDED_JOINING_RANDOM_MA #
#                          SK=0x007F -DBEACON_REQUEST_DELAY=100               #
#                          -DBEACON_REQ_DELAY_MASK=0x00FF                     #
#                          -DROUTE_EXPIRY_TIME=30 -DAPSC_ACK_WAIT_DURATION_PO #
#                          LLED=3000 -DNWK_INDIRECT_MSG_TIMEOUT=7             #
#                          -DMAX_RREQ_ENTRIES=8 -DAPSC_MAX_FRAME_RETRIES=3    #
#                          -DNWK_MAX_DATA_RETRIES=2                           #
#                          -DMAX_POLL_FAILURE_RETRIES=2 -DMAX_BCAST=9         #
#                          -DAPS_MAX_GROUPS=16 -DMAX_RTG_ENTRIES=40           #
#                          -DNWK_MAX_BINDING_ENTRIES=4                        #
#                          -DMAX_BINDING_CLUSTER_IDS=4 "-DDEFAULT_KEY={0x01,  #
#                          0x03, 0x05, 0x07, 0x09, 0x0B, 0x0D, 0x0F, 0x00,    #
#                          0x02, 0x04, 0x06, 0x08, 0x0A, 0x0C, 0x0D}"         #
#                          -DMAC_MAX_FRAME_SIZE=116 "-DCONST=const __code"    #
#                          -DGENERIC=__generic -DRFD_RCVC_ALWAYS_ON=FALSE     #
#                          -DPOLL_RATE=1000 -DQUEUED_POLL_RATE=100            #
#                          -DRESPONSE_POLL_RATE=100) -DREJOIN_POLL_RATE=440   #
#                          "C:\Texas Instruments\ZStack-CC2530-2.2.2-1.3.0\Co #
#                          mponents\stack\zdo\ZDObject.c" -D ZTOOL_P1 -D      #
#                          MT_TASK -D MT_SYS_FUNC -D MT_ZDO_FUNC -D           #
#                          LCD_SUPPORTED=DEBUG -lC "C:\Texas                  #
#                          Instruments\ZStack-CC2530-2.2.2-1.3.0\Projects\zst #
#                          ack\Samples\WSN_sensors\CC2530DB\RouterEB\List\"   #
#                          -lA "C:\Texas Instruments\ZStack-CC2530-2.2.2-1.3. #
#                          0\Projects\zstack\Samples\WSN_sensors\CC2530DB\Rou #
#                          terEB\List\" --diag_suppress Pe001,Pa010 -o        #
#                          "C:\Texas Instruments\ZStack-CC2530-2.2.2-1.3.0\Pr #
#                          ojects\zstack\Samples\WSN_sensors\CC2530DB\RouterE #
#                          B\Obj\" -e --require_prototypes --no_unroll        #
#                          --no_inline --no_tbaa --debug --core=plain         #
#                          --dptr=16,1 --data_model=large                     #
#                          --code_model=banked --calling_convention=xdata_ree #
#                          ntrant --place_constants=data_rom                  #
#                          --nr_virtual_regs 8 -I "C:\Texas                   #
#                          Instruments\ZStack-CC2530-2.2.2-1.3.0\Projects\zst #
#                          ack\Samples\WSN_sensors\CC2530DB\" -I "C:\Texas    #
#                          Instruments\ZStack-CC2530-2.2.2-1.3.0\Projects\zst #
#                          ack\Samples\WSN_sensors\CC2530DB\..\SOURCE\" -I    #
#                          "C:\Texas Instruments\ZStack-CC2530-2.2.2-1.3.0\Pr #
#                          ojects\zstack\Samples\WSN_sensors\CC2530DB\..\..\. #
#                          .\ZMAIN\TI2530DB\" -I "C:\Texas                    #
#                          Instruments\ZStack-CC2530-2.2.2-1.3.0\Projects\zst #
#                          ack\Samples\WSN_sensors\CC2530DB\..\..\..\..\..\CO #
#                          MPONENTS\MT\" -I "C:\Texas                         #
#                          Instruments\ZStack-CC2530-2.2.2-1.3.0\Projects\zst #
#                          ack\Samples\WSN_sensors\CC2530DB\..\..\..\..\..\CO #
#                          MPONENTS\HAL\INCLUDE\" -I "C:\Texas                #
#                          Instruments\ZStack-CC2530-2.2.2-1.3.0\Projects\zst #
#                          ack\Samples\WSN_sensors\CC2530DB\..\..\..\..\..\CO #
#                          MPONENTS\HAL\TARGET\CC2530EB\" -I "C:\Texas        #
#                          Instruments\ZStack-CC2530-2.2.2-1.3.0\Projects\zst #
#                          ack\Samples\WSN_sensors\CC2530DB\..\..\..\..\..\CO #
#                          MPONENTS\OSAL\MCU\CCSOC\" -I "C:\Texas             #
#                          Instruments\ZStack-CC2530-2.2.2-1.3.0\Projects\zst #
#                          ack\Samples\WSN_sensors\CC2530DB\..\..\..\..\..\CO #
#                          MPONENTS\OSAL\INCLUDE\" -I "C:\Texas               #
#                          Instruments\ZStack-CC2530-2.2.2-1.3.0\Projects\zst #
#                          ack\Samples\WSN_sensors\CC2530DB\..\..\..\..\..\CO #
#                          MPONENTS\STACK\AF\" -I "C:\Texas                   #
#                          Instruments\ZStack-CC2530-2.2.2-1.3.0\Projects\zst #
#                          ack\Samples\WSN_sensors\CC2530DB\..\..\..\..\..\CO #
#                          MPONENTS\STACK\NWK\" -I "C:\Texas                  #
#                          Instruments\ZStack-CC2530-2.2.2-1.3.0\Projects\zst #
#                          ack\Samples\WSN_sensors\CC2530DB\..\..\..\..\..\CO #
#                          MPONENTS\STACK\SEC\" -I "C:\Texas                  #
#                          Instruments\ZStack-CC2530-2.2.2-1.3.0\Projects\zst #
#                          ack\Samples\WSN_sensors\CC2530DB\..\..\..\..\..\CO #
#                          MPONENTS\STACK\SAPI\" -I "C:\Texas                 #
#                          Instruments\ZStack-CC2530-2.2.2-1.3.0\Projects\zst #
#                          ack\Samples\WSN_sensors\CC2530DB\..\..\..\..\..\CO #
#                          MPONENTS\STACK\SYS\" -I "C:\Texas                  #
#                          Instruments\ZStack-CC2530-2.2.2-1.3.0\Projects\zst #
#                          ack\Samples\WSN_sensors\CC2530DB\..\..\..\..\..\CO #
#                          MPONENTS\STACK\ZDO\" -I "C:\Texas                  #
#                          Instruments\ZStack-CC2530-2.2.2-1.3.0\Projects\zst #
#                          ack\Samples\WSN_sensors\CC2530DB\..\..\..\..\..\CO #
#                          MPONENTS\ZMAC\F8W\" -I "C:\Texas                   #
#                          Instruments\ZStack-CC2530-2.2.2-1.3.0\Projects\zst #
#                          ack\Samples\WSN_sensors\CC2530DB\..\..\..\..\..\CO #
#                          MPONENTS\ZMAC\" -I "C:\Texas                       #
#                          Instruments\ZStack-CC2530-2.2.2-1.3.0\Projects\zst #
#                          ack\Samples\WSN_sensors\CC2530DB\..\..\..\..\..\CO #
#                          MPONENTS\SERVICES\SADDR\" -I "C:\Texas             #
#                          Instruments\ZStack-CC2530-2.2.2-1.3.0\Projects\zst #
#                          ack\Samples\WSN_sensors\CC2530DB\..\..\..\..\..\CO #
#                          MPONENTS\SERVICES\SDATA\" -I "C:\Texas             #
#                          Instruments\ZStack-CC2530-2.2.2-1.3.0\Projects\zst #
#                          ack\Samples\WSN_sensors\CC2530DB\..\..\..\..\..\CO #
#                          MPONENTS\MAC\INCLUDE\" -I "C:\Texas                #
#                          Instruments\ZStack-CC2530-2.2.2-1.3.0\Projects\zst #
#                          ack\Samples\WSN_sensors\CC2530DB\..\..\..\..\..\CO #
#                          MPONENTS\MAC\HIGH_LEVEL\" -I "C:\Texas             #
#                          Instruments\ZStack-CC2530-2.2.2-1.3.0\Projects\zst #
#                          ack\Samples\WSN_sensors\CC2530DB\..\..\..\..\..\CO #
#                          MPONENTS\MAC\LOW_LEVEL\srf04\" -I "C:\Texas        #
#                          Instruments\ZStack-CC2530-2.2.2-1.3.0\Projects\zst #
#                          ack\Samples\WSN_sensors\CC2530DB\..\..\..\..\..\CO #
#                          MPONENTS\MAC\LOW_LEVEL\srf04\SINGLE_CHIP\" -I      #
#                          "D:\Program Files\IAR Systems\Embedded Workbench   #
#                          5.3\8051\INC\" -I "D:\Program Files\IAR            #
#                          Systems\Embedded Workbench 5.3\8051\INC\CLIB\" -Om #
#    List file          =  C:\Texas Instruments\ZStack-CC2530-2.2.2-1.3.0\Pro #
#                          jects\zstack\Samples\WSN_sensors\CC2530DB\RouterEB #
#                          \List\ZDObject.lst                                 #
#    Object file        =  C:\Texas Instruments\ZStack-CC2530-2.2.2-1.3.0\Pro #
#                          jects\zstack\Samples\WSN_sensors\CC2530DB\RouterEB #
#                          \Obj\ZDObject.r51                                  #
#                                                                             #
#                                                                             #
###############################################################################

C:\Texas Instruments\ZStack-CC2530-2.2.2-1.3.0\Components\stack\zdo\ZDObject.c
      1          /**************************************************************************************************
      2            Filename:       ZDObject.c
      3            Revised:        $Date: 2009-08-06 14:54:27 -0700 (Thu, 06 Aug 2009) $
      4            Revision:       $Revision: 20492 $
      5          
      6            Description:    This is the Zigbee Device Object.
      7          
      8          
      9            Copyright 2004-2009 Texas Instruments Incorporated. All rights reserved.
     10          
     11            IMPORTANT: Your use of this Software is limited to those specific rights
     12            granted under the terms of a software license agreement between the user
     13            who downloaded the software, his/her employer (which must be your employer)
     14            and Texas Instruments Incorporated (the "License").  You may not use this
     15            Software unless you agree to abide by the terms of the License. The License
     16            limits your use, and you acknowledge, that the Software may not be modified,
     17            copied or distributed unless embedded on a Texas Instruments microcontroller
     18            or used solely and exclusively in conjunction with a Texas Instruments radio
     19            frequency transceiver, which is integrated into your product.  Other than for
     20            the foregoing purpose, you may not use, reproduce, copy, prepare derivative
     21            works of, modify, distribute, perform, display or sell this Software and/or
     22            its documentation for any purpose.
     23          
     24            YOU FURTHER ACKNOWLEDGE AND AGREE THAT THE SOFTWARE AND DOCUMENTATION ARE
     25            PROVIDED “AS IS” WITHOUT WARRANTY OF ANY KIND, EITHER EXPRESS OR IMPLIED,
     26            INCLUDING WITHOUT LIMITATION, ANY WARRANTY OF MERCHANTABILITY, TITLE,
     27            NON-INFRINGEMENT AND FITNESS FOR A PARTICULAR PURPOSE. IN NO EVENT SHALL
     28            TEXAS INSTRUMENTS OR ITS LICENSORS BE LIABLE OR OBLIGATED UNDER CONTRACT,
     29            NEGLIGENCE, STRICT LIABILITY, CONTRIBUTION, BREACH OF WARRANTY, OR OTHER
     30            LEGAL EQUITABLE THEORY ANY DIRECT OR INDIRECT DAMAGES OR EXPENSES
     31            INCLUDING BUT NOT LIMITED TO ANY INCIDENTAL, SPECIAL, INDIRECT, PUNITIVE
     32            OR CONSEQUENTIAL DAMAGES, LOST PROFITS OR LOST DATA, COST OF PROCUREMENT
     33            OF SUBSTITUTE GOODS, TECHNOLOGY, SERVICES, OR ANY CLAIMS BY THIRD PARTIES
     34            (INCLUDING BUT NOT LIMITED TO ANY DEFENSE THEREOF), OR OTHER SIMILAR COSTS.
     35          
     36            Should you have any questions regarding your right to use this Software,
     37            contact Texas Instruments Incorporated at www.TI.com.
     38          **************************************************************************************************/
     39          
     40          /*********************************************************************
     41           * INCLUDES
     42           */
     43          #include "ZComdef.h"
     44          #include "OSAL.h"
     45          #include "OSAL_Nv.h"
     46          #include "rtg.h"
     47          #include "NLMEDE.h"
     48          #include "nwk_globals.h"
     49          #include "APS.h"
     50          #include "APSMEDE.h"
     51          #include "AssocList.h"
     52          #include "BindingTable.h"
     53          #include "AddrMgr.h"
     54          #include "AF.h"
     55          #include "ZDObject.h"
     56          #include "ZDProfile.h"
     57          #include "ZDConfig.h"
     58          #include "ZDSecMgr.h"
     59          #include "ZDApp.h"
     60          #include "nwk_util.h"   // NLME_IsAddressBroadcast()
     61          #include "ZGlobals.h"
     62          
     63          #if defined( LCD_SUPPORTED )
     64            #include "OnBoard.h"
     65          #endif
     66          
     67          /* HAL */
     68          #include "hal_lcd.h"
     69          
     70          /*********************************************************************
     71           * MACROS
     72           */
     73          
     74          /*********************************************************************
     75           * CONSTANTS
     76           */
     77          // NLME Stub Implementations
     78          #define ZDO_ProcessMgmtPermitJoinTimeout NLME_PermitJoiningTimeout
     79          
     80          // Status fields used by ZDO_ProcessMgmtRtgReq
     81          #define ZDO_MGMT_RTG_ENTRY_ACTIVE             0x00
     82          #define ZDO_MGMT_RTG_ENTRY_DISCOVERY_UNDERWAY 0x01
     83          #define ZDO_MGMT_RTG_ENTRY_DISCOVERY_FAILED   0x02
     84          #define ZDO_MGMT_RTG_ENTRY_INACTIVE           0x03
     85          
     86          /*********************************************************************
     87           * TYPEDEFS
     88           */
     89          #if defined ( REFLECTOR )
     90          typedef struct
     91          {
     92            byte SrcTransSeq;
     93            zAddrType_t SrcAddr;
     94            uint16 LocalCoordinator;
     95            byte epIntf;
     96            uint16 ProfileID;
     97            byte numInClusters;
     98            uint16 *inClusters;
     99            byte numOutClusters;
    100            uint16 *outClusters;
    101            byte SecurityUse;
    102            byte status;
    103          } ZDO_EDBind_t;
    104          #endif // defined ( REFLECTOR )
    105          
    106          enum
    107          {
    108            ZDMATCH_INIT,           // Initialized
    109            ZDMATCH_WAIT_REQ,       // Received first request, waiting for second
    110            ZDMATCH_SENDING_BINDS   // Received both requests, sending unbind/binds
    111          };
    112          
    113          enum
    114          {
    115            ZDMATCH_SENDING_NOT,
    116            ZDMATCH_SENDING_UNBIND,
    117            ZDMATCH_SENDING_BIND
    118          };
    119          
    120          /*********************************************************************
    121           * GLOBAL VARIABLES
    122           */
    123          
    124          /*********************************************************************
    125           * EXTERNAL VARIABLES
    126           */
    127          
    128          /*********************************************************************
    129           * EXTERNAL FUNCTIONS
    130           */
    131          
    132          /*********************************************************************
    133           * LOCAL VARIABLES
    134           */

   \                                 In  segment XDATA_Z, align 1, keep-with-next
    135          static uint16 ZDOBuildBuf[26];  // temp area to build data without allocation
   \                     ZDOBuildBuf:
   \   000000                DS 52
   \   000034                REQUIRE __INIT_XDATA_Z
    136          
    137          #if defined ( REFLECTOR )

   \                                 In  segment XDATA_Z, align 1, keep-with-next
    138          static ZDO_EDBind_t *ZDO_EDBind;     // Null when not used
   \                     ZDO_EDBind:
   \   000000                DS 2
   \   000002                REQUIRE __INIT_XDATA_Z
    139          #endif
    140          
    141          #if defined ( MANAGED_SCAN )
    142            uint32 managedScanNextChannel = 0;
    143            uint32 managedScanChannelMask = 0;
    144            uint8  managedScanTimesPerChannel = 0;
    145          #endif
    146          

   \                                 In  segment XDATA_Z, align 1, keep-with-next
    147          ZDMatchEndDeviceBind_t *matchED = (ZDMatchEndDeviceBind_t *)NULL;
   \                     matchED:
   \   000000                DS 2
   \   000002                REQUIRE __INIT_XDATA_Z
    148          

   \                                 In  segment XDATA_Z, align 1, keep-with-next
    149          uint32 apsChannelMask = 0;
   \                     apsChannelMask:
   \   000000                DS 4
   \   000004                REQUIRE __INIT_XDATA_Z
    150          
    151          /*********************************************************************
    152           * LOCAL FUNCTIONS
    153           */
    154          static void ZDODeviceSetup( void );
    155          #if defined ( MANAGED_SCAN )
    156            static void ZDOManagedScan_Next( void );
    157          #endif
    158          #if defined ( REFLECTOR )
    159            static void ZDO_RemoveEndDeviceBind( void );
    160            static void ZDO_SendEDBindRsp( byte TransSeq, zAddrType_t *dstAddr, byte Status, byte secUse );
    161          #endif
    162          static byte ZDO_CompareClusterLists( byte numList1, uint16 *list1,
    163                                          byte numList2, uint16 *list2, uint16 *pMatches );
    164          static void ZDO_RemoveMatchMemory( void );
    165          static uint8 ZDO_CopyMatchInfo( ZDEndDeviceBind_t *destReq, ZDEndDeviceBind_t *srcReq );
    166          static void ZDO_EndDeviceBindMatchTimeoutCB( void );
    167          uint8 *ZDO_ConvertOTAClusters( uint8 cnt, uint8 *inBuf, uint16 *outList );
    168          
    169          /*********************************************************************
    170           * @fn          ZDO_Init
    171           *
    172           * @brief       ZDObject and ZDProfile initialization.
    173           *
    174           * @param       none
    175           *
    176           * @return      none
    177           */

   \                                 In  segment BANKED_CODE, align 1, keep-with-next
    178          void ZDO_Init( void )
   \                     ZDO_Init:
    179          {
   \   000000   C082         PUSH    DPL
   \   000002   C083         PUSH    DPH
   \   000004                ; Saved register size: 2
   \   000004                ; Auto size: 0
    180            // Initialize ZD items
    181            #if defined ( REFLECTOR )
    182            ZDO_EDBind = NULL;
   \   000004   90....       MOV     DPTR,#ZDO_EDBind
   \   000007   E4           CLR     A
   \   000008   F0           MOVX    @DPTR,A
   \   000009   A3           INC     DPTR
   \   00000A   F0           MOVX    @DPTR,A
    183            #endif
    184          
    185            // Initialize default ZDO_UseExtendedPANID to the APS one.
    186            osal_cpyExtAddr( ZDO_UseExtendedPANID, AIB_apsUseExtendedPANID );
   \   00000B                ; Setup parameters for call to function sAddrExtCpy
   \   00000B   7C..         MOV     R4,#(AIB_apsUseExtendedPANID & 0xff)
   \   00000D   7D..         MOV     R5,#((AIB_apsUseExtendedPANID >> 8) & 0xff)
   \   00000F   7A..         MOV     R2,#(ZDO_UseExtendedPANID & 0xff)
   \   000011   7B..         MOV     R3,#((ZDO_UseExtendedPANID >> 8) & 0xff)
   \   000013   12....       LCALL   ??sAddrExtCpy?relay
    187          
    188            // Setup the device - type of device to create.
    189            ZDODeviceSetup();
   \   000016                ; Setup parameters for call to function ZDODeviceSetup
   \   000016   12....       LCALL   ??ZDODeviceSetup?relay
    190          }
   \   000019   D083         POP     DPH
   \   00001B   D082         POP     DPL
   \   00001D   02....       LJMP    ?BRET
    191          
    192          #if defined ( MANAGED_SCAN )
    193          /*********************************************************************
    194           * @fn      ZDOManagedScan_Next()
    195           *
    196           * @brief   Setup a managed scan.
    197           *
    198           * @param   none
    199           *
    200           * @return  none
    201           */
    202          static void ZDOManagedScan_Next( void )
    203          {
    204            // Is it the first time
    205            if ( managedScanNextChannel == 0 && managedScanTimesPerChannel == 0 )
    206            {
    207              // Setup the defaults
    208              managedScanNextChannel  = 1;
    209          
    210              while( managedScanNextChannel && (zgDefaultChannelList & managedScanNextChannel) == 0 )
    211                managedScanNextChannel <<= 1;
    212          
    213              managedScanChannelMask = managedScanNextChannel;
    214              managedScanTimesPerChannel = MANAGEDSCAN_TIMES_PRE_CHANNEL;
    215            }
    216            else
    217            {
    218              // Do we need to go to the next channel
    219              if ( managedScanTimesPerChannel == 0 )
    220              {
    221                // Find next active channel
    222                managedScanChannelMask  = managedScanNextChannel;
    223                managedScanTimesPerChannel = MANAGEDSCAN_TIMES_PRE_CHANNEL;
    224              }
    225              else
    226              {
    227                managedScanTimesPerChannel--;
    228          
    229                if ( managedScanTimesPerChannel == 0 )
    230                {
    231                  managedScanNextChannel  <<= 1;
    232                  while( managedScanNextChannel && (zgDefaultChannelList & managedScanNextChannel) == 0 )
    233                    managedScanNextChannel <<= 1;
    234          
    235                  if ( managedScanNextChannel == 0 )
    236                    zdoDiscCounter  = NUM_DISC_ATTEMPTS + 1; // Stop
    237                }
    238              }
    239            }
    240          }
    241          #endif // MANAGED_SCAN
    242          
    243          /*********************************************************************
    244           * @fn      ZDODeviceSetup()
    245           *
    246           * @brief   Call set functions depending on the type of device compiled.
    247           *
    248           * @param   none
    249           *
    250           * @return  none
    251           */

   \                                 In  segment BANKED_CODE, align 1, keep-with-next
    252          static void ZDODeviceSetup( void )
   \                     ZDODeviceSetup:
    253          {
   \   000000   C082         PUSH    DPL
   \   000002   C083         PUSH    DPH
   \   000004                ; Saved register size: 2
   \   000004                ; Auto size: 0
    254            if ( ZG_BUILD_COORDINATOR_TYPE )
    255            {
    256              NLME_CoordinatorInit();
    257            }
    258          
    259          #if defined ( REFLECTOR )
    260            APS_ReflectorInit( (ZG_DEVICE_COORDINATOR_TYPE) ? APS_REFLECTOR_PUBLIC :  APS_REFLECTOR_PRIVATE );
   \   000004   90....       MOV     DPTR,#zgDeviceLogicalType
   \   000007   E0           MOVX    A,@DPTR
   \   000008   7004         JNZ     ??ZDODeviceSetup_0
   \   00000A   7900         MOV     R1,#0x0
   \   00000C   8002         SJMP    ??ZDODeviceSetup_1
   \                     ??ZDODeviceSetup_0:
   \   00000E   7901         MOV     R1,#0x1
   \                     ??ZDODeviceSetup_1:
   \   000010                ; Setup parameters for call to function APS_ReflectorInit
   \   000010   12....       LCALL   ??APS_ReflectorInit?relay
    261          #endif
    262          
    263            if ( ZG_BUILD_JOINING_TYPE )
    264            {
    265              NLME_DeviceJoiningInit();
   \   000013                ; Setup parameters for call to function NLME_DeviceJoiningInit
   \   000013   12....       LCALL   ??NLME_DeviceJoiningInit?relay
    266            }
    267          }
   \   000016   D083         POP     DPH
   \   000018   D082         POP     DPL
   \   00001A   02....       LJMP    ?BRET
    268          
    269          /*********************************************************************
    270           * @fn          ZDO_StartDevice
    271           *
    272           * @brief       This function starts a device in a network.
    273           *
    274           * @param       logicalType     - Device type to start
    275           *              startMode       - indicates mode of device startup
    276           *              beaconOrder     - indicates time betwen beacons
    277           *              superframeOrder - indicates length of active superframe
    278           *
    279           * @return      none
    280           */

   \                                 In  segment BANKED_CODE, align 1, keep-with-next
    281          void ZDO_StartDevice( byte logicalType, devStartModes_t startMode, byte beaconOrder, byte superframeOrder )
   \                     ZDO_StartDevice:
    282          {
   \   000000   74F4         MOV     A,#-0xc
   \   000002   12....       LCALL   ?BANKED_ENTER_XDATA
   \   000005                ; Saved register size: 12
   \   000005                ; Auto size: 11
   \   000005   74F5         MOV     A,#-0xb
   \   000007   12....       LCALL   ?ALLOC_XSTACK8
    283            ZStatus_t ret;
    284          #if defined ( ZIGBEE_FREQ_AGILITY )
    285            static uint8 discRetries = 0;
    286          #endif
    287          #if defined ( ZIGBEE_COMMISSIONING )
    288            static uint8 scanCnt = 0;
    289          #endif
    290          
    291            ret = ZUnsupportedMode;
   \   00000A   7E12         MOV     R6,#0x12
    292          
    293            if ( ZG_BUILD_COORDINATOR_TYPE && logicalType == NODETYPE_COORDINATOR )
    294            {
    295              if ( startMode == MODE_HARD )
    296              {
    297                devState = DEV_COORD_STARTING;
    298                ret = NLME_NetworkFormationRequest( zgConfigPANID, zgApsUseExtendedPANID, zgDefaultChannelList,
    299                                                    zgDefaultStartingScanDuration, beaconOrder,
    300                                                    superframeOrder, false );
    301              }
    302              else if ( startMode == MODE_RESUME )
    303              {
    304                // Just start the coordinator
    305                devState = DEV_COORD_STARTING;
    306                ret = NLME_StartRouterRequest( beaconOrder, beaconOrder, false );
    307              }
    308              else
    309              {
    310          #if defined( LCD_SUPPORTED )
    311                HalLcdWriteScreen( "StartDevice ERR", "MODE unknown" );
    312          #endif
    313              }
    314            }
    315          
    316            if ( ZG_BUILD_JOINING_TYPE && (logicalType == NODETYPE_ROUTER || logicalType == NODETYPE_DEVICE) )
   \   00000C   7401         MOV     A,#0x1
   \   00000E   69           XRL     A,R1
   \   00000F   6008         JZ      ??ZDO_StartDevice_0
   \   000011   7402         MOV     A,#0x2
   \   000013   69           XRL     A,R1
   \   000014   6003         JZ      $+5
   \   000016   02....       LJMP    ??ZDO_StartDevice_1 & 0xFFFF
    317            {
    318              if ( (startMode == MODE_JOIN) || (startMode == MODE_REJOIN) )
   \                     ??ZDO_StartDevice_0:
   \   000019   EA           MOV     A,R2
   \   00001A   6005         JZ      ??ZDO_StartDevice_2
   \   00001C   7403         MOV     A,#0x3
   \   00001E   6A           XRL     A,R2
   \   00001F   7052         JNZ     ??ZDO_StartDevice_3
    319              {
    320                devState = DEV_NWK_DISC;
   \                     ??ZDO_StartDevice_2:
   \   000021   7402         MOV     A,#0x2
   \   000023   90....       MOV     DPTR,#devState
   \   000026   F0           MOVX    @DPTR,A
    321          
    322            #if defined( MANAGED_SCAN )
    323                ZDOManagedScan_Next();
    324                ret = NLME_NetworkDiscoveryRequest( managedScanChannelMask, BEACON_ORDER_15_MSEC );
    325            #else
    326                ret = NLME_NetworkDiscoveryRequest( zgDefaultChannelList, zgDefaultStartingScanDuration );
   \   000027                ; Setup parameters for call to function NLME_NetworkDiscoveryRequest
   \   000027   90....       MOV     DPTR,#zgDefaultStartingScanDuration
   \   00002A   E0           MOVX    A,@DPTR
   \   00002B   F9           MOV     R1,A
   \   00002C   90....       MOV     DPTR,#zgDefaultChannelList
   \   00002F   78..         MOV     R0,#?V0 + 0
   \   000031   12....       LCALL   ?L_MOV_X
   \   000034   AA..         MOV     R2,?V0 + 0
   \   000036   AB..         MOV     R3,?V0 + 1
   \   000038   AC..         MOV     R4,?V0 + 2
   \   00003A   AD..         MOV     R5,?V0 + 3
   \   00003C   12....       LCALL   ??NLME_NetworkDiscoveryRequest?relay
   \   00003F   E9           MOV     A,R1
   \   000040   FE           MOV     R6,A
    327              #if defined ( ZIGBEE_FREQ_AGILITY )
    328                if ( !( ZDO_Config_Node_Descriptor.CapabilityFlags & CAPINFO_RCVR_ON_IDLE ) &&
    329                      ( ret == ZSuccess ) && ( ++discRetries == 4 ) )
   \   000041   90....       MOV     DPTR,#(ZDO_Config_Node_Descriptor + 2)
   \   000044   E0           MOVX    A,@DPTR
   \   000045   A2E3         MOV     C,0xE0 /* A   */.3
   \   000047   5003         JNC     $+5
   \   000049   02....       LJMP    ??ZDO_StartDevice_1 & 0xFFFF
   \   00004C   EE           MOV     A,R6
   \   00004D   6003         JZ      $+5
   \   00004F   02....       LJMP    ??ZDO_StartDevice_1 & 0xFFFF
   \   000052   90....       MOV     DPTR,#??discRetries
   \   000055   E0           MOVX    A,@DPTR
   \   000056   04           INC     A
   \   000057   F0           MOVX    @DPTR,A
   \   000058   E0           MOVX    A,@DPTR
   \   000059   6404         XRL     A,#0x4
   \   00005B   6003         JZ      $+5
   \   00005D   02....       LJMP    ??ZDO_StartDevice_1 & 0xFFFF
    330                {
    331                  // For devices with RxOnWhenIdle equals to FALSE, any network channel
    332                  // change will not be recieved. On these devices or routers that have
    333                  // lost the network, an active scan shall be conducted on the Default
    334                  // Channel list using the extended PANID to find the network. If the
    335                  // extended PANID isn't found using the Default Channel list, an scan
    336                  // should be completed using all channels.
    337                  zgDefaultChannelList = MAX_CHANNELS_24GHZ;
   \   000060   90....       MOV     DPTR,#__Constant_7fff800
   \   000063   78..         MOV     R0,#?V0 + 0
   \   000065   12....       LCALL   ?L_MOV_X
   \   000068   90....       MOV     DPTR,#zgDefaultChannelList
   \   00006B   78..         MOV     R0,#?V0 + 0
   \   00006D   12....       LCALL   ?L_MOV_TO_X
   \   000070   02....       LJMP    ??ZDO_StartDevice_1 & 0xFFFF
    338                }
    339              #endif // ZIGBEE_FREQ_AGILITY
    340              #if defined ( ZIGBEE_COMMISSIONING )
    341                if (startMode == MODE_REJOIN && scanCnt++ >= 5 )
    342                {
    343                  // When ApsUseExtendedPanID is commissioned to a non zero value via
    344                  // application specific means, the device shall conduct an active scan
    345                  // on the Default Channel list and join the PAN with the same
    346                  // ExtendedPanID. If the PAN is not found, an scan should be completed
    347                  // on all channels.
    348                  // When devices rejoin the network and the PAN is not found from
    349                  zgDefaultChannelList = MAX_CHANNELS_24GHZ;
    350                }
    351              #endif // ZIGBEE_COMMISSIONING
    352            #endif
    353              }
    354              else if ( startMode == MODE_RESUME )
   \                     ??ZDO_StartDevice_3:
   \   000073   7401         MOV     A,#0x1
   \   000075   6A           XRL     A,R2
   \   000076   7072         JNZ     ??ZDO_StartDevice_4
    355              {
    356                if ( logicalType == NODETYPE_ROUTER )
   \   000078   7401         MOV     A,#0x1
   \   00007A   69           XRL     A,R1
   \   00007B   704B         JNZ     ??ZDO_StartDevice_5
    357                {
    358                  ZMacScanCnf_t scanCnf;
    359                  devState = DEV_NWK_ORPHAN;
   \   00007D   740A         MOV     A,#0xa
   \   00007F   90....       MOV     DPTR,#devState
   \   000082   F0           MOVX    @DPTR,A
    360          
    361                  /* if router and nvram is available, fake successful orphan scan */
    362                  scanCnf.hdr.Status = ZSUCCESS;
   \   000083   E4           CLR     A
   \   000084   C0E0         PUSH    A
   \   000086   7401         MOV     A,#0x1
   \   000088   12....       LCALL   ?XSTACK_DISP0_8
   \   00008B   D0E0         POP     A
   \   00008D   F0           MOVX    @DPTR,A
    363                  scanCnf.ScanType = ZMAC_ORPHAN_SCAN;
   \   00008E   7403         MOV     A,#0x3
   \   000090   C0E0         PUSH    A
   \   000092   7402         MOV     A,#0x2
   \   000094   12....       LCALL   ?XSTACK_DISP0_8
   \   000097   D0E0         POP     A
   \   000099   F0           MOVX    @DPTR,A
    364                  scanCnf.UnscannedChannels = 0;
   \   00009A   90....       MOV     DPTR,#__Constant_0
   \   00009D   78..         MOV     R0,#?V0 + 0
   \   00009F   12....       LCALL   ?L_MOV_X
   \   0000A2   7404         MOV     A,#0x4
   \   0000A4   12....       LCALL   ?XSTACK_DISP0_8
   \   0000A7   78..         MOV     R0,#?V0 + 0
   \   0000A9   12....       LCALL   ?L_MOV_TO_X
    365                  scanCnf.ResultListSize = 0;
   \   0000AC   E4           CLR     A
   \   0000AD   C0E0         PUSH    A
   \   0000AF   7408         MOV     A,#0x8
   \   0000B1   12....       LCALL   ?XSTACK_DISP0_8
   \   0000B4   D0E0         POP     A
   \   0000B6   F0           MOVX    @DPTR,A
    366                  nwk_ScanJoiningOrphan(&scanCnf);
   \   0000B7                ; Setup parameters for call to function nwk_ScanJoiningOrphan
   \   0000B7   85..82       MOV     DPL,?XSP + 0
   \   0000BA   85..83       MOV     DPH,?XSP + 1
   \   0000BD   AA82         MOV     R2,DPL
   \   0000BF   AB83         MOV     R3,DPH
   \   0000C1   12....       LCALL   ??nwk_ScanJoiningOrphan?relay
    367          
    368                  ret = ZSuccess;
   \   0000C4   7E00         MOV     R6,#0x0
   \   0000C6   802D         SJMP    ??ZDO_StartDevice_1
    369                }
    370                else
    371                {
    372                  devState = DEV_NWK_ORPHAN;
   \                     ??ZDO_StartDevice_5:
   \   0000C8   740A         MOV     A,#0xa
   \   0000CA   90....       MOV     DPTR,#devState
   \   0000CD   F0           MOVX    @DPTR,A
    373                  ret = NLME_OrphanJoinRequest( zgDefaultChannelList,
    374                                                zgDefaultStartingScanDuration );
   \   0000CE                ; Setup parameters for call to function NLME_OrphanJoinRequest
   \   0000CE   90....       MOV     DPTR,#zgDefaultStartingScanDuration
   \   0000D1   E0           MOVX    A,@DPTR
   \   0000D2   F9           MOV     R1,A
   \   0000D3   90....       MOV     DPTR,#zgDefaultChannelList
   \   0000D6   78..         MOV     R0,#?V0 + 0
   \   0000D8   12....       LCALL   ?L_MOV_X
   \   0000DB   AA..         MOV     R2,?V0 + 0
   \   0000DD   AB..         MOV     R3,?V0 + 1
   \   0000DF   AC..         MOV     R4,?V0 + 2
   \   0000E1   AD..         MOV     R5,?V0 + 3
   \   0000E3   12....       LCALL   ??NLME_OrphanJoinRequest?relay
   \   0000E6   E9           MOV     A,R1
   \   0000E7   FE           MOV     R6,A
   \   0000E8   800B         SJMP    ??ZDO_StartDevice_1
    375                }
    376              }
    377              else
    378              {
    379          #if defined( LCD_SUPPORTED )
    380                HalLcdWriteScreen( "StartDevice ERR", "MODE unknown" );
   \                     ??ZDO_StartDevice_4:
   \   0000EA                ; Setup parameters for call to function HalLcdWriteScreen
   \   0000EA   7C..         MOV     R4,#(`?<Constant "MODE unknown">` & 0xff)
   \   0000EC   7D..         MOV     R5,#((`?<Constant "MODE unknown">` >> 8) & 0xff)
   \   0000EE   7A..         MOV     R2,#(`?<Constant "StartDevice ERR">` & 0xff)
   \   0000F0   7B..         MOV     R3,#((`?<Constant "StartDevice ERR">` >> 8) & 0xff)
   \   0000F2   12....       LCALL   ??HalLcdWriteScreen?relay
    381          #endif
    382              }
    383            }
    384          
    385            if ( ret != ZSuccess )
   \                     ??ZDO_StartDevice_1:
   \   0000F5   EE           MOV     A,R6
   \   0000F6   6010         JZ      ??ZDO_StartDevice_6
    386              osal_start_timerEx(ZDAppTaskID, ZDO_NETWORK_INIT, NWK_RETRY_DELAY );
   \   0000F8                ; Setup parameters for call to function osal_start_timerEx
   \   0000F8   7CE8         MOV     R4,#-0x18
   \   0000FA   7D03         MOV     R5,#0x3
   \   0000FC   7A01         MOV     R2,#0x1
   \   0000FE   7B00         MOV     R3,#0x0
   \   000100   90....       MOV     DPTR,#ZDAppTaskID
   \   000103   E0           MOVX    A,@DPTR
   \   000104   F9           MOV     R1,A
   \   000105   12....       LCALL   ??osal_start_timerEx?relay
    387          }
   \                     ??ZDO_StartDevice_6:
   \   000108   740B         MOV     A,#0xb
   \   00010A   12....       LCALL   ?DEALLOC_XSTACK8
   \   00010D   7F04         MOV     R7,#0x4
   \   00010F   02....       LJMP    ?BANKED_LEAVE_XDATA

   \                                 In  segment XDATA_Z, align 1, keep-with-next
   \                     ??discRetries:
   \   000000                DS 1
   \   000001                REQUIRE __INIT_XDATA_Z
    388          
    389          /*********************************************************************
    390           * @fn      ZDO_UpdateNwkStatus()
    391           *
    392           * @brief
    393           *
    394           *   This function will send an update message to each registered
    395           *   application endpoint/interface about a network status change.
    396           *
    397           * @param   none
    398           *
    399           * @return  none
    400           */

   \                                 In  segment BANKED_CODE, align 1, keep-with-next
    401          void ZDO_UpdateNwkStatus( devStates_t state )
   \                     ZDO_UpdateNwkStatus:
    402          {
   \   000000   74F4         MOV     A,#-0xc
   \   000002   12....       LCALL   ?BANKED_ENTER_XDATA
   \   000005                ; Saved register size: 12
   \   000005                ; Auto size: 0
   \   000005   89..         MOV     ?V0 + 0,R1
    403            // Endpoint/Interface descriptor list.
    404            epList_t *epDesc = epList;
   \   000007   90....       MOV     DPTR,#epList
   \   00000A   E0           MOVX    A,@DPTR
   \   00000B   FE           MOV     R6,A
   \   00000C   A3           INC     DPTR
   \   00000D   E0           MOVX    A,@DPTR
   \   00000E   FF           MOV     R7,A
    405            byte bufLen = sizeof(osal_event_hdr_t);
    406            osal_event_hdr_t *msgPtr;
    407          
    408            ZDAppNwkAddr.addr.shortAddr = NLME_GetShortAddr();
   \   00000F                ; Setup parameters for call to function NLME_GetShortAddr
   \   00000F   12....       LCALL   ??NLME_GetShortAddr?relay
   \   000012   90....       MOV     DPTR,#ZDAppNwkAddr
   \   000015   EA           MOV     A,R2
   \   000016   F0           MOVX    @DPTR,A
   \   000017   A3           INC     DPTR
   \   000018   EB           MOV     A,R3
   \   000019   F0           MOVX    @DPTR,A
    409            (void)NLME_GetExtAddr();  // Load the saveExtAddr pointer.
   \   00001A                ; Setup parameters for call to function NLME_GetExtAddr
   \   00001A   12....       LCALL   ??NLME_GetExtAddr?relay
   \   00001D   804F         SJMP    ??ZDO_UpdateNwkStatus_0
    410          
    411            while ( epDesc )
    412            {
    413              if ( epDesc->epDesc->endPoint != ZDO_EP )
   \                     ??ZDO_UpdateNwkStatus_1:
   \   00001F   8E82         MOV     DPL,R6
   \   000021   8F83         MOV     DPH,R7
   \   000023   E0           MOVX    A,@DPTR
   \   000024   F8           MOV     R0,A
   \   000025   A3           INC     DPTR
   \   000026   E0           MOVX    A,@DPTR
   \   000027   F583         MOV     DPH,A
   \   000029   8882         MOV     DPL,R0
   \   00002B   E0           MOVX    A,@DPTR
   \   00002C   6032         JZ      ??ZDO_UpdateNwkStatus_2
    414              {
    415                msgPtr = (osal_event_hdr_t *)osal_msg_allocate( bufLen );
   \   00002E                ; Setup parameters for call to function osal_msg_allocate
   \   00002E   7A02         MOV     R2,#0x2
   \   000030   7B00         MOV     R3,#0x0
   \   000032   12....       LCALL   ??osal_msg_allocate?relay
    416                if ( msgPtr )
   \   000035   EA           MOV     A,R2
   \   000036   7001         JNZ     ??ZDO_UpdateNwkStatus_3
   \   000038   EB           MOV     A,R3
   \                     ??ZDO_UpdateNwkStatus_3:
   \   000039   6025         JZ      ??ZDO_UpdateNwkStatus_2
    417                {
    418                  msgPtr->event = ZDO_STATE_CHANGE; // Command ID
   \   00003B   74D1         MOV     A,#-0x2f
   \   00003D   8A82         MOV     DPL,R2
   \   00003F   8B83         MOV     DPH,R3
   \   000041   F0           MOVX    @DPTR,A
    419                  msgPtr->status = (byte)state;
   \   000042   A3           INC     DPTR
   \   000043   E5..         MOV     A,?V0 + 0
   \   000045   F0           MOVX    @DPTR,A
    420          
    421                  osal_msg_send( *(epDesc->epDesc->task_id), (uint8 *)msgPtr );
   \   000046                ; Setup parameters for call to function osal_msg_send
   \   000046   8E82         MOV     DPL,R6
   \   000048   8F83         MOV     DPH,R7
   \   00004A   E0           MOVX    A,@DPTR
   \   00004B   F8           MOV     R0,A
   \   00004C   A3           INC     DPTR
   \   00004D   E0           MOVX    A,@DPTR
   \   00004E   F583         MOV     DPH,A
   \   000050   8882         MOV     DPL,R0
   \   000052   A3           INC     DPTR
   \   000053   E0           MOVX    A,@DPTR
   \   000054   F8           MOV     R0,A
   \   000055   A3           INC     DPTR
   \   000056   E0           MOVX    A,@DPTR
   \   000057   F583         MOV     DPH,A
   \   000059   8882         MOV     DPL,R0
   \   00005B   E0           MOVX    A,@DPTR
   \   00005C   F9           MOV     R1,A
   \   00005D   12....       LCALL   ??osal_msg_send?relay
    422                }
    423              }
    424              epDesc = epDesc->nextDesc;
   \                     ??ZDO_UpdateNwkStatus_2:
   \   000060   8E82         MOV     DPL,R6
   \   000062   8F83         MOV     DPH,R7
   \   000064   A3           INC     DPTR
   \   000065   A3           INC     DPTR
   \   000066   A3           INC     DPTR
   \   000067   A3           INC     DPTR
   \   000068   A3           INC     DPTR
   \   000069   E0           MOVX    A,@DPTR
   \   00006A   FE           MOV     R6,A
   \   00006B   A3           INC     DPTR
   \   00006C   E0           MOVX    A,@DPTR
   \   00006D   FF           MOV     R7,A
    425            }
   \                     ??ZDO_UpdateNwkStatus_0:
   \   00006E   EE           MOV     A,R6
   \   00006F   7001         JNZ     ??ZDO_UpdateNwkStatus_4
   \   000071   EF           MOV     A,R7
   \                     ??ZDO_UpdateNwkStatus_4:
   \   000072   70AB         JNZ     ??ZDO_UpdateNwkStatus_1
    426          }
   \   000074   7F04         MOV     R7,#0x4
   \   000076   02....       LJMP    ?BANKED_LEAVE_XDATA
    427          
    428          #if defined ( REFLECTOR )
    429          /*********************************************************************
    430           * @fn          ZDO_RemoveEndDeviceBind
    431           *
    432           * @brief       Remove the end device bind
    433           *
    434           * @param  none
    435           *
    436           * @return      none
    437           */

   \                                 In  segment BANKED_CODE, align 1, keep-with-next
    438          static void ZDO_RemoveEndDeviceBind( void )
   \                     ZDO_RemoveEndDeviceBind:
    439          {
   \   000000   C082         PUSH    DPL
   \   000002   C083         PUSH    DPH
   \   000004                ; Saved register size: 2
   \   000004                ; Auto size: 0
    440            if ( ZDO_EDBind != NULL )
   \   000004   90....       MOV     DPTR,#ZDO_EDBind
   \   000007   E0           MOVX    A,@DPTR
   \   000008   7002         JNZ     ??ZDO_RemoveEndDeviceBind_0
   \   00000A   A3           INC     DPTR
   \   00000B   E0           MOVX    A,@DPTR
   \                     ??ZDO_RemoveEndDeviceBind_0:
   \   00000C   6058         JZ      ??ZDO_RemoveEndDeviceBind_1
    441            {
    442              // Free the RAM
    443              if ( ZDO_EDBind->inClusters != NULL )
   \   00000E   90....       MOV     DPTR,#ZDO_EDBind
   \   000011   E0           MOVX    A,@DPTR
   \   000012   2410         ADD     A,#0x10
   \   000014   F8           MOV     R0,A
   \   000015   A3           INC     DPTR
   \   000016   E0           MOVX    A,@DPTR
   \   000017   3400         ADDC    A,#0x0
   \   000019   F9           MOV     R1,A
   \   00001A   8882         MOV     DPL,R0
   \   00001C   8983         MOV     DPH,R1
   \   00001E   E0           MOVX    A,@DPTR
   \   00001F   7002         JNZ     ??ZDO_RemoveEndDeviceBind_2
   \   000021   A3           INC     DPTR
   \   000022   E0           MOVX    A,@DPTR
   \                     ??ZDO_RemoveEndDeviceBind_2:
   \   000023   600C         JZ      ??ZDO_RemoveEndDeviceBind_3
    444                osal_mem_free( ZDO_EDBind->inClusters );
   \   000025                ; Setup parameters for call to function osal_mem_free
   \   000025   8882         MOV     DPL,R0
   \   000027   8983         MOV     DPH,R1
   \   000029   E0           MOVX    A,@DPTR
   \   00002A   FA           MOV     R2,A
   \   00002B   A3           INC     DPTR
   \   00002C   E0           MOVX    A,@DPTR
   \   00002D   FB           MOV     R3,A
   \   00002E   12....       LCALL   ??osal_mem_free?relay
    445              if ( ZDO_EDBind->outClusters != NULL )
   \                     ??ZDO_RemoveEndDeviceBind_3:
   \   000031   90....       MOV     DPTR,#ZDO_EDBind
   \   000034   E0           MOVX    A,@DPTR
   \   000035   2413         ADD     A,#0x13
   \   000037   F8           MOV     R0,A
   \   000038   A3           INC     DPTR
   \   000039   E0           MOVX    A,@DPTR
   \   00003A   3400         ADDC    A,#0x0
   \   00003C   F9           MOV     R1,A
   \   00003D   8882         MOV     DPL,R0
   \   00003F   8983         MOV     DPH,R1
   \   000041   E0           MOVX    A,@DPTR
   \   000042   7002         JNZ     ??ZDO_RemoveEndDeviceBind_4
   \   000044   A3           INC     DPTR
   \   000045   E0           MOVX    A,@DPTR
   \                     ??ZDO_RemoveEndDeviceBind_4:
   \   000046   600C         JZ      ??ZDO_RemoveEndDeviceBind_5
    446                osal_mem_free( ZDO_EDBind->outClusters );
   \   000048                ; Setup parameters for call to function osal_mem_free
   \   000048   8882         MOV     DPL,R0
   \   00004A   8983         MOV     DPH,R1
   \   00004C   E0           MOVX    A,@DPTR
   \   00004D   FA           MOV     R2,A
   \   00004E   A3           INC     DPTR
   \   00004F   E0           MOVX    A,@DPTR
   \   000050   FB           MOV     R3,A
   \   000051   12....       LCALL   ??osal_mem_free?relay
    447              osal_mem_free( ZDO_EDBind );
   \                     ??ZDO_RemoveEndDeviceBind_5:
   \   000054                ; Setup parameters for call to function osal_mem_free
   \   000054   90....       MOV     DPTR,#ZDO_EDBind
   \   000057   E0           MOVX    A,@DPTR
   \   000058   FA           MOV     R2,A
   \   000059   A3           INC     DPTR
   \   00005A   E0           MOVX    A,@DPTR
   \   00005B   FB           MOV     R3,A
   \   00005C   12....       LCALL   ??osal_mem_free?relay
    448              ZDO_EDBind = NULL;
   \   00005F   90....       MOV     DPTR,#ZDO_EDBind
   \   000062   E4           CLR     A
   \   000063   F0           MOVX    @DPTR,A
   \   000064   A3           INC     DPTR
   \   000065   F0           MOVX    @DPTR,A
    449            }
    450          }
   \                     ??ZDO_RemoveEndDeviceBind_1:
   \   000066   D083         POP     DPH
   \   000068   D082         POP     DPL
   \   00006A   02....       LJMP    ?BRET
    451          #endif // REFLECTOR
    452          
    453          #if defined ( REFLECTOR )
    454          /*********************************************************************
    455           * @fn          ZDO_RemoveEndDeviceBind
    456           *
    457           * @brief       Remove the end device bind
    458           *
    459           * @param  none
    460           *
    461           * @return      none
    462           */

   \                                 In  segment BANKED_CODE, align 1, keep-with-next
    463          static void ZDO_SendEDBindRsp( byte TransSeq, zAddrType_t *dstAddr, byte Status, byte secUse )
   \                     ZDO_SendEDBindRsp:
    464          {
   \   000000   74F6         MOV     A,#-0xa
   \   000002   12....       LCALL   ?BANKED_ENTER_XDATA
   \   000005                ; Saved register size: 10
   \   000005                ; Auto size: 2
   \   000005   74FE         MOV     A,#-0x2
   \   000007   12....       LCALL   ?ALLOC_XSTACK8
   \   00000A   E9           MOV     A,R1
   \   00000B   C0E0         PUSH    A
   \   00000D   7401         MOV     A,#0x1
   \   00000F   12....       LCALL   ?XSTACK_DISP0_8
   \   000012   D0E0         POP     A
   \   000014   F0           MOVX    @DPTR,A
   \   000015   EC           MOV     A,R4
   \   000016   85..82       MOV     DPL,?XSP + 0
   \   000019   85..83       MOV     DPH,?XSP + 1
   \   00001C   F0           MOVX    @DPTR,A
    465            ZDP_EndDeviceBindRsp( TransSeq, dstAddr, Status, secUse );
   \   00001D                ; Setup parameters for call to function ZDP_SendData
   \   00001D   ED           MOV     A,R5
   \   00001E   F5..         MOV     ?V0 + 0,A
   \   000020   78..         MOV     R0,#?V0 + 0
   \   000022   12....       LCALL   ?PUSH_XSTACK_I_ONE
   \   000025   7401         MOV     A,#0x1
   \   000027   12....       LCALL   ?XSTACK_DISP0_8
   \   00002A   8582..       MOV     ?V0 + 0,DPL
   \   00002D   8583..       MOV     ?V0 + 1,DPH
   \   000030   78..         MOV     R0,#?V0 + 0
   \   000032   12....       LCALL   ?PUSH_XSTACK_I_TWO
   \   000035   75..20       MOV     ?V0 + 0,#0x20
   \   000038   75..80       MOV     ?V0 + 1,#-0x80
   \   00003B   78..         MOV     R0,#?V0 + 0
   \   00003D   12....       LCALL   ?PUSH_XSTACK_I_TWO
   \   000040   7901         MOV     R1,#0x1
   \   000042   EA           MOV     A,R2
   \   000043   FC           MOV     R4,A
   \   000044   EB           MOV     A,R3
   \   000045   FD           MOV     R5,A
   \   000046   7406         MOV     A,#0x6
   \   000048   12....       LCALL   ?XSTACK_DISP0_8
   \   00004B   AA82         MOV     R2,DPL
   \   00004D   AB83         MOV     R3,DPH
   \   00004F   12....       LCALL   ??ZDP_SendData?relay
   \   000052   7405         MOV     A,#0x5
   \   000054   12....       LCALL   ?DEALLOC_XSTACK8
    466          
    467          #if defined( LCD_SUPPORTED )
    468            HalLcdWriteString( "End Device Bind", HAL_LCD_LINE_1 );
   \   000057                ; Setup parameters for call to function HalLcdWriteString
   \   000057   7901         MOV     R1,#0x1
   \   000059   7A..         MOV     R2,#(`?<Constant "End Device Bind">` & 0xff)
   \   00005B   7B..         MOV     R3,#((`?<Constant "End Device Bind">` >> 8) & 0xff)
   \   00005D   12....       LCALL   ??HalLcdWriteString?relay
    469            if ( Status == ZDP_SUCCESS )
   \   000060   85..82       MOV     DPL,?XSP + 0
   \   000063   85..83       MOV     DPH,?XSP + 1
   \   000066   E0           MOVX    A,@DPTR
   \   000067   7902         MOV     R1,#0x2
   \   000069   7006         JNZ     ??ZDO_SendEDBindRsp_0
    470              HalLcdWriteString( "Success Sent", HAL_LCD_LINE_2 );
   \   00006B                ; Setup parameters for call to function HalLcdWriteString
   \   00006B   7A..         MOV     R2,#(`?<Constant "Success Sent">` & 0xff)
   \   00006D   7B..         MOV     R3,#((`?<Constant "Success Sent">` >> 8) & 0xff)
   \   00006F   8004         SJMP    ??ZDO_SendEDBindRsp_1
    471            else
    472              HalLcdWriteString( "Timeout", HAL_LCD_LINE_2 );
   \                     ??ZDO_SendEDBindRsp_0:
   \   000071                ; Setup parameters for call to function HalLcdWriteString
   \   000071   7A..         MOV     R2,#(`?<Constant "Timeout">` & 0xff)
   \   000073   7B..         MOV     R3,#((`?<Constant "Timeout">` >> 8) & 0xff)
   \                     ??ZDO_SendEDBindRsp_1:
   \   000075   12....       LCALL   ??HalLcdWriteString?relay
    473          #endif
    474          
    475          }
   \   000078   7402         MOV     A,#0x2
   \   00007A   12....       LCALL   ?DEALLOC_XSTACK8
   \   00007D   7F02         MOV     R7,#0x2
   \   00007F   02....       LJMP    ?BANKED_LEAVE_XDATA
    476          #endif // REFLECTOR
    477          
    478          /*********************************************************************
    479           * @fn          ZDO_CompareClusterLists
    480           *
    481           * @brief       Compare one list to another list
    482           *
    483           * @param       numList1 - number of items in list 1
    484           * @param       list1 - first list of cluster IDs
    485           * @param       numList2 - number of items in list 2
    486           * @param       list2 - second list of cluster IDs
    487           * @param       pMatches - buffer to put matches
    488           *
    489           * @return      number of matches
    490           */

   \                                 In  segment BANKED_CODE, align 1, keep-with-next
    491          static byte ZDO_CompareClusterLists( byte numList1, uint16 *list1,
   \                     ZDO_CompareClusterLists:
    492                                    byte numList2, uint16 *list2, uint16 *pMatches )
    493          {
   \   000000   74F0         MOV     A,#-0x10
   \   000002   12....       LCALL   ?BANKED_ENTER_XDATA
   \   000005                ; Saved register size: 16
   \   000005                ; Auto size: 0
   \   000005   89..         MOV     ?V0 + 2,R1
   \   000007   8A..         MOV     ?V0 + 6,R2
   \   000009   8B..         MOV     ?V0 + 7,R3
   \   00000B   7410         MOV     A,#0x10
   \   00000D   12....       LCALL   ?XSTACK_DISP0_8
   \   000010   E0           MOVX    A,@DPTR
   \   000011   FA           MOV     R2,A
   \   000012   A3           INC     DPTR
   \   000013   E0           MOVX    A,@DPTR
   \   000014   FB           MOV     R3,A
   \   000015   7412         MOV     A,#0x12
   \   000017   12....       LCALL   ?XSTACK_DISP0_8
   \   00001A   E0           MOVX    A,@DPTR
   \   00001B   FE           MOV     R6,A
   \   00001C   A3           INC     DPTR
   \   00001D   E0           MOVX    A,@DPTR
   \   00001E   FF           MOV     R7,A
    494            byte x, y;
    495            uint16 z;
    496            byte numMatches = 0;
   \   00001F   7D00         MOV     R5,#0x0
    497          
    498            // Check the first in against the seconds out
    499            for ( x = 0; x < numList1; x++ )
   \   000021   8D..         MOV     ?V0 + 3,R5
   \   000023   8055         SJMP    ??ZDO_CompareClusterLists_0
    500            {
    501              for ( y = 0; y < numList2; y++ )
    502              {
    503                z = list2[y];
   \                     ??ZDO_CompareClusterLists_1:
   \   000025   E5..         MOV     A,?V0 + 4
   \   000027   C3           CLR     C
   \   000028   33           RLC     A
   \   000029   F8           MOV     R0,A
   \   00002A   E4           CLR     A
   \   00002B   33           RLC     A
   \   00002C   F9           MOV     R1,A
   \   00002D   EA           MOV     A,R2
   \   00002E   28           ADD     A,R0
   \   00002F   F582         MOV     DPL,A
   \   000031   EB           MOV     A,R3
   \   000032   39           ADDC    A,R1
   \   000033   F583         MOV     DPH,A
   \   000035   E0           MOVX    A,@DPTR
   \   000036   F5..         MOV     ?V0 + 0,A
   \   000038   A3           INC     DPTR
   \   000039   E0           MOVX    A,@DPTR
   \   00003A   F5..         MOV     ?V0 + 1,A
    504                if ( list1[x] == z )
   \   00003C   E5..         MOV     A,?V0 + 3
   \   00003E   C3           CLR     C
   \   00003F   33           RLC     A
   \   000040   F8           MOV     R0,A
   \   000041   E4           CLR     A
   \   000042   33           RLC     A
   \   000043   F9           MOV     R1,A
   \   000044   E5..         MOV     A,?V0 + 6
   \   000046   28           ADD     A,R0
   \   000047   F582         MOV     DPL,A
   \   000049   E5..         MOV     A,?V0 + 7
   \   00004B   39           ADDC    A,R1
   \   00004C   F583         MOV     DPH,A
   \   00004E   E0           MOVX    A,@DPTR
   \   00004F   65..         XRL     A,?V0 + 0
   \   000051   7004         JNZ     ??ZDO_CompareClusterLists_2
   \   000053   A3           INC     DPTR
   \   000054   E0           MOVX    A,@DPTR
   \   000055   65..         XRL     A,?V0 + 1
   \                     ??ZDO_CompareClusterLists_2:
   \   000057   7017         JNZ     ??ZDO_CompareClusterLists_3
    505                  pMatches[numMatches++] = z;
   \   000059   ED           MOV     A,R5
   \   00005A   C3           CLR     C
   \   00005B   33           RLC     A
   \   00005C   F8           MOV     R0,A
   \   00005D   E4           CLR     A
   \   00005E   33           RLC     A
   \   00005F   F9           MOV     R1,A
   \   000060   EE           MOV     A,R6
   \   000061   28           ADD     A,R0
   \   000062   F582         MOV     DPL,A
   \   000064   EF           MOV     A,R7
   \   000065   39           ADDC    A,R1
   \   000066   F583         MOV     DPH,A
   \   000068   E5..         MOV     A,?V0 + 0
   \   00006A   F0           MOVX    @DPTR,A
   \   00006B   A3           INC     DPTR
   \   00006C   E5..         MOV     A,?V0 + 1
   \   00006E   F0           MOVX    @DPTR,A
   \   00006F   0D           INC     R5
    506              }
   \                     ??ZDO_CompareClusterLists_3:
   \   000070   05..         INC     ?V0 + 4
   \                     ??ZDO_CompareClusterLists_4:
   \   000072   E5..         MOV     A,?V0 + 4
   \   000074   C3           CLR     C
   \   000075   9C           SUBB    A,R4
   \   000076   40AD         JC      ??ZDO_CompareClusterLists_1
   \   000078   05..         INC     ?V0 + 3
   \                     ??ZDO_CompareClusterLists_0:
   \   00007A   E5..         MOV     A,?V0 + 3
   \   00007C   C3           CLR     C
   \   00007D   95..         SUBB    A,?V0 + 2
   \   00007F   5005         JNC     ??ZDO_CompareClusterLists_5
   \   000081   75..00       MOV     ?V0 + 4,#0x0
   \   000084   80EC         SJMP    ??ZDO_CompareClusterLists_4
    507            }
    508          
    509            return ( numMatches );
   \                     ??ZDO_CompareClusterLists_5:
   \   000086   ED           MOV     A,R5
   \   000087   F9           MOV     R1,A
   \   000088   7F08         MOV     R7,#0x8
   \   00008A   02....       LJMP    ?BANKED_LEAVE_XDATA
    510          }
    511          
    512          /*********************************************************************
    513           * Utility functions
    514           */
    515          
    516          /*********************************************************************
    517           * @fn          ZDO_CompareByteLists
    518           *
    519           * @brief       Compares two lists for matches.
    520           *
    521           * @param       ACnt  - number of entries in list A
    522           * @param       AList  - List A
    523           * @param       BCnt  - number of entries in list B
    524           * @param       BList  - List B
    525           *
    526           * @return      true if a match is found
    527           */

   \                                 In  segment BANKED_CODE, align 1, keep-with-next
    528          byte ZDO_AnyClusterMatches( byte ACnt, uint16 *AList, byte BCnt, uint16 *BList )
   \                     ZDO_AnyClusterMatches:
    529          {
   \   000000   74F4         MOV     A,#-0xc
   \   000002   12....       LCALL   ?BANKED_ENTER_XDATA
   \   000005                ; Saved register size: 12
   \   000005                ; Auto size: 0
   \   000005   89..         MOV     ?V0 + 0,R1
   \   000007   8C..         MOV     ?V0 + 1,R4
   \   000009   740C         MOV     A,#0xc
   \   00000B   12....       LCALL   ?XSTACK_DISP0_8
   \   00000E   E0           MOVX    A,@DPTR
   \   00000F   F8           MOV     R0,A
   \   000010   A3           INC     DPTR
   \   000011   E0           MOVX    A,@DPTR
   \   000012   F9           MOV     R1,A
    530            byte x, y;
    531          
    532            for ( x = 0; x < ACnt; x++ )
   \   000013   75..00       MOV     ?V0 + 3,#0x0
   \   000016   8002         SJMP    ??ZDO_AnyClusterMatches_0
   \                     ??ZDO_AnyClusterMatches_1:
   \   000018   05..         INC     ?V0 + 3
   \                     ??ZDO_AnyClusterMatches_0:
   \   00001A   E5..         MOV     A,?V0 + 3
   \   00001C   C3           CLR     C
   \   00001D   95..         SUBB    A,?V0 + 0
   \   00001F   5040         JNC     ??ZDO_AnyClusterMatches_2
    533            {
    534              for ( y = 0; y < BCnt; y++ )
   \   000021   75..00       MOV     ?V0 + 2,#0x0
   \   000024   8002         SJMP    ??ZDO_AnyClusterMatches_3
   \                     ??ZDO_AnyClusterMatches_4:
   \   000026   05..         INC     ?V0 + 2
   \                     ??ZDO_AnyClusterMatches_3:
   \   000028   E5..         MOV     A,?V0 + 2
   \   00002A   C3           CLR     C
   \   00002B   95..         SUBB    A,?V0 + 1
   \   00002D   50E9         JNC     ??ZDO_AnyClusterMatches_1
    535              {
    536                if ( AList[x] == BList[y] )
   \   00002F   E5..         MOV     A,?V0 + 3
   \   000031   C3           CLR     C
   \   000032   33           RLC     A
   \   000033   FC           MOV     R4,A
   \   000034   E4           CLR     A
   \   000035   33           RLC     A
   \   000036   FD           MOV     R5,A
   \   000037   EA           MOV     A,R2
   \   000038   2C           ADD     A,R4
   \   000039   F582         MOV     DPL,A
   \   00003B   EB           MOV     A,R3
   \   00003C   3D           ADDC    A,R5
   \   00003D   F583         MOV     DPH,A
   \   00003F   E0           MOVX    A,@DPTR
   \   000040   FE           MOV     R6,A
   \   000041   A3           INC     DPTR
   \   000042   E0           MOVX    A,@DPTR
   \   000043   FF           MOV     R7,A
   \   000044   E5..         MOV     A,?V0 + 2
   \   000046   C3           CLR     C
   \   000047   33           RLC     A
   \   000048   FC           MOV     R4,A
   \   000049   E4           CLR     A
   \   00004A   33           RLC     A
   \   00004B   FD           MOV     R5,A
   \   00004C   E8           MOV     A,R0
   \   00004D   2C           ADD     A,R4
   \   00004E   F582         MOV     DPL,A
   \   000050   E9           MOV     A,R1
   \   000051   3D           ADDC    A,R5
   \   000052   F583         MOV     DPH,A
   \   000054   E0           MOVX    A,@DPTR
   \   000055   6E           XRL     A,R6
   \   000056   7003         JNZ     ??ZDO_AnyClusterMatches_5
   \   000058   A3           INC     DPTR
   \   000059   E0           MOVX    A,@DPTR
   \   00005A   6F           XRL     A,R7
   \                     ??ZDO_AnyClusterMatches_5:
   \   00005B   70C9         JNZ     ??ZDO_AnyClusterMatches_4
    537                {
    538                  return true;
   \   00005D   7901         MOV     R1,#0x1
   \   00005F   8002         SJMP    ??ZDO_AnyClusterMatches_6
    539                }
    540              }
    541            }
    542          
    543            return false;
   \                     ??ZDO_AnyClusterMatches_2:
   \   000061   7900         MOV     R1,#0x0
   \                     ??ZDO_AnyClusterMatches_6:
   \   000063   7F04         MOV     R7,#0x4
   \   000065   02....       LJMP    ?BANKED_LEAVE_XDATA
    544          }
    545          
    546          /*********************************************************************
    547           * Callback functions from ZDProfile
    548           */
    549          
    550          /*********************************************************************
    551           * @fn          ZDO_ProcessNodeDescReq
    552           *
    553           * @brief       This function processes and responds to the
    554           *              Node_Desc_req message.
    555           *
    556           * @param       inMsg - incoming message
    557           *
    558           * @return      none
    559           */

   \                                 In  segment BANKED_CODE, align 1, keep-with-next
    560          void ZDO_ProcessNodeDescReq( zdoIncomingMsg_t *inMsg )
   \                     ZDO_ProcessNodeDescReq:
    561          {
   \   000000   74F6         MOV     A,#-0xa
   \   000002   12....       LCALL   ?BANKED_ENTER_XDATA
   \   000005                ; Saved register size: 10
   \   000005                ; Auto size: 0
   \   000005   EA           MOV     A,R2
   \   000006   FE           MOV     R6,A
   \   000007   EB           MOV     A,R3
   \   000008   FF           MOV     R7,A
    562            uint16 aoi = BUILD_UINT16( inMsg->asdu[0], inMsg->asdu[1] );
   \   000009   EE           MOV     A,R6
   \   00000A   2413         ADD     A,#0x13
   \   00000C   F8           MOV     R0,A
   \   00000D   EF           MOV     A,R7
   \   00000E   3400         ADDC    A,#0x0
   \   000010   F9           MOV     R1,A
   \   000011   8882         MOV     DPL,R0
   \   000013   8983         MOV     DPH,R1
   \   000015   E0           MOVX    A,@DPTR
   \   000016   FA           MOV     R2,A
   \   000017   A3           INC     DPTR
   \   000018   E0           MOVX    A,@DPTR
   \   000019   F583         MOV     DPH,A
   \   00001B   8A82         MOV     DPL,R2
   \   00001D   E0           MOVX    A,@DPTR
   \   00001E   FA           MOV     R2,A
   \   00001F   8882         MOV     DPL,R0
   \   000021   8983         MOV     DPH,R1
   \   000023   E0           MOVX    A,@DPTR
   \   000024   F8           MOV     R0,A
   \   000025   A3           INC     DPTR
   \   000026   E0           MOVX    A,@DPTR
   \   000027   F583         MOV     DPH,A
   \   000029   8882         MOV     DPL,R0
   \   00002B   A3           INC     DPTR
   \   00002C   E0           MOVX    A,@DPTR
   \   00002D   F8           MOV     R0,A
   \   00002E   E4           CLR     A
   \   00002F   C8           XCH     A,R0
   \   000030   F9           MOV     R1,A
   \   000031   EA           MOV     A,R2
   \   000032   FC           MOV     R4,A
   \   000033   E9           MOV     A,R1
   \   000034   FD           MOV     R5,A
    563            NodeDescriptorFormat_t *desc = NULL;
   \   000035   88..         MOV     ?V0 + 0,R0
   \   000037   88..         MOV     ?V0 + 1,R0
    564          
    565            if ( aoi == ZDAppNwkAddr.addr.shortAddr )
   \   000039   90....       MOV     DPTR,#ZDAppNwkAddr
   \   00003C   E0           MOVX    A,@DPTR
   \   00003D   6C           XRL     A,R4
   \   00003E   7003         JNZ     ??ZDO_ProcessNodeDescReq_0
   \   000040   A3           INC     DPTR
   \   000041   E0           MOVX    A,@DPTR
   \   000042   6D           XRL     A,R5
   \                     ??ZDO_ProcessNodeDescReq_0:
   \   000043   7006         JNZ     ??ZDO_ProcessNodeDescReq_1
    566            {
    567              desc = &ZDO_Config_Node_Descriptor;
   \   000045   75....       MOV     ?V0 + 0,#(ZDO_Config_Node_Descriptor & 0xff)
   \   000048   75....       MOV     ?V0 + 1,#((ZDO_Config_Node_Descriptor >> 8) & 0xff)
    568            }
    569          
    570            if ( desc != NULL )
   \                     ??ZDO_ProcessNodeDescReq_1:
   \   00004B   E5..         MOV     A,?V0 + 0
   \   00004D   7002         JNZ     ??ZDO_ProcessNodeDescReq_2
   \   00004F   E5..         MOV     A,?V0 + 1
   \                     ??ZDO_ProcessNodeDescReq_2:
   \   000051   6011         JZ      ??ZDO_ProcessNodeDescReq_3
    571            {
    572              ZDP_NodeDescMsg( inMsg, aoi, desc );
   \   000053                ; Setup parameters for call to function ZDP_NodeDescMsg
   \   000053   78..         MOV     R0,#?V0 + 0
   \   000055   12....       LCALL   ?PUSH_XSTACK_I_TWO
   \   000058   EE           MOV     A,R6
   \   000059   FA           MOV     R2,A
   \   00005A   12....       LCALL   ??ZDP_NodeDescMsg?relay
   \   00005D   7402         MOV     A,#0x2
   \   00005F   12....       LCALL   ?DEALLOC_XSTACK8
   \   000062   803E         SJMP    ??ZDO_ProcessNodeDescReq_4
    573            }
    574            else
    575            {
    576              ZDP_GenericRsp( inMsg->TransSeq, &(inMsg->srcAddr),
    577                        ZDP_INVALID_REQTYPE, aoi, Node_Desc_rsp, inMsg->SecurityUse );
   \                     ??ZDO_ProcessNodeDescReq_3:
   \   000064                ; Setup parameters for call to function ZDP_GenericRsp
   \   000064   75..02       MOV     ?V0 + 0,#0x2
   \   000067   75..80       MOV     ?V0 + 1,#-0x80
   \   00006A   78..         MOV     R0,#?V0 + 0
   \   00006C   12....       LCALL   ?PUSH_XSTACK_I_TWO
   \   00006F   8C..         MOV     ?V0 + 0,R4
   \   000071   8D..         MOV     ?V0 + 1,R5
   \   000073   78..         MOV     R0,#?V0 + 0
   \   000075   12....       LCALL   ?PUSH_XSTACK_I_TWO
   \   000078   EE           MOV     A,R6
   \   000079   240E         ADD     A,#0xe
   \   00007B   F582         MOV     DPL,A
   \   00007D   EF           MOV     A,R7
   \   00007E   3400         ADDC    A,#0x0
   \   000080   F583         MOV     DPH,A
   \   000082   E0           MOVX    A,@DPTR
   \   000083   FD           MOV     R5,A
   \   000084   7C80         MOV     R4,#-0x80
   \   000086   EE           MOV     A,R6
   \   000087   2402         ADD     A,#0x2
   \   000089   FA           MOV     R2,A
   \   00008A   EF           MOV     A,R7
   \   00008B   3400         ADDC    A,#0x0
   \   00008D   FB           MOV     R3,A
   \   00008E   EE           MOV     A,R6
   \   00008F   240F         ADD     A,#0xf
   \   000091   F582         MOV     DPL,A
   \   000093   EF           MOV     A,R7
   \   000094   3400         ADDC    A,#0x0
   \   000096   F583         MOV     DPH,A
   \   000098   E0           MOVX    A,@DPTR
   \   000099   F9           MOV     R1,A
   \   00009A   12....       LCALL   ??ZDP_GenericRsp?relay
   \   00009D   7404         MOV     A,#0x4
   \   00009F   12....       LCALL   ?DEALLOC_XSTACK8
    578            }
    579          }
   \                     ??ZDO_ProcessNodeDescReq_4:
   \   0000A2   7F02         MOV     R7,#0x2
   \   0000A4   02....       LJMP    ?BANKED_LEAVE_XDATA
    580          
    581          /*********************************************************************
    582           * @fn          ZDO_ProcessPowerDescReq
    583           *
    584           * @brief       This function processes and responds to the
    585           *              Node_Power_req message.
    586           *
    587           * @param       inMsg  - incoming request
    588           *
    589           * @return      none
    590           */

   \                                 In  segment BANKED_CODE, align 1, keep-with-next
    591          void ZDO_ProcessPowerDescReq( zdoIncomingMsg_t *inMsg )
   \                     ZDO_ProcessPowerDescReq:
    592          {
   \   000000   74F6         MOV     A,#-0xa
   \   000002   12....       LCALL   ?BANKED_ENTER_XDATA
   \   000005                ; Saved register size: 10
   \   000005                ; Auto size: 0
   \   000005   EA           MOV     A,R2
   \   000006   FE           MOV     R6,A
   \   000007   EB           MOV     A,R3
   \   000008   FF           MOV     R7,A
    593            uint16 aoi = BUILD_UINT16( inMsg->asdu[0], inMsg->asdu[1] );
   \   000009   EE           MOV     A,R6
   \   00000A   2413         ADD     A,#0x13
   \   00000C   F8           MOV     R0,A
   \   00000D   EF           MOV     A,R7
   \   00000E   3400         ADDC    A,#0x0
   \   000010   F9           MOV     R1,A
   \   000011   8882         MOV     DPL,R0
   \   000013   8983         MOV     DPH,R1
   \   000015   E0           MOVX    A,@DPTR
   \   000016   FA           MOV     R2,A
   \   000017   A3           INC     DPTR
   \   000018   E0           MOVX    A,@DPTR
   \   000019   F583         MOV     DPH,A
   \   00001B   8A82         MOV     DPL,R2
   \   00001D   E0           MOVX    A,@DPTR
   \   00001E   FA           MOV     R2,A
   \   00001F   8882         MOV     DPL,R0
   \   000021   8983         MOV     DPH,R1
   \   000023   E0           MOVX    A,@DPTR
   \   000024   F8           MOV     R0,A
   \   000025   A3           INC     DPTR
   \   000026   E0           MOVX    A,@DPTR
   \   000027   F583         MOV     DPH,A
   \   000029   8882         MOV     DPL,R0
   \   00002B   A3           INC     DPTR
   \   00002C   E0           MOVX    A,@DPTR
   \   00002D   F8           MOV     R0,A
   \   00002E   E4           CLR     A
   \   00002F   C8           XCH     A,R0
   \   000030   F9           MOV     R1,A
   \   000031   EA           MOV     A,R2
   \   000032   FC           MOV     R4,A
   \   000033   E9           MOV     A,R1
   \   000034   FD           MOV     R5,A
    594            NodePowerDescriptorFormat_t *desc = NULL;
   \   000035   88..         MOV     ?V0 + 0,R0
   \   000037   88..         MOV     ?V0 + 1,R0
    595          
    596            if ( aoi == ZDAppNwkAddr.addr.shortAddr )
   \   000039   90....       MOV     DPTR,#ZDAppNwkAddr
   \   00003C   E0           MOVX    A,@DPTR
   \   00003D   6C           XRL     A,R4
   \   00003E   7003         JNZ     ??ZDO_ProcessPowerDescReq_0
   \   000040   A3           INC     DPTR
   \   000041   E0           MOVX    A,@DPTR
   \   000042   6D           XRL     A,R5
   \                     ??ZDO_ProcessPowerDescReq_0:
   \   000043   7006         JNZ     ??ZDO_ProcessPowerDescReq_1
    597            {
    598              desc = &ZDO_Config_Power_Descriptor;
   \   000045   75....       MOV     ?V0 + 0,#(ZDO_Config_Power_Descriptor & 0xff)
   \   000048   75....       MOV     ?V0 + 1,#((ZDO_Config_Power_Descriptor >> 8) & 0xff)
    599            }
    600          
    601            if ( desc != NULL )
   \                     ??ZDO_ProcessPowerDescReq_1:
   \   00004B   E5..         MOV     A,?V0 + 0
   \   00004D   7002         JNZ     ??ZDO_ProcessPowerDescReq_2
   \   00004F   E5..         MOV     A,?V0 + 1
   \                     ??ZDO_ProcessPowerDescReq_2:
   \   000051   6011         JZ      ??ZDO_ProcessPowerDescReq_3
    602            {
    603              ZDP_PowerDescMsg( inMsg, aoi, desc );
   \   000053                ; Setup parameters for call to function ZDP_PowerDescMsg
   \   000053   78..         MOV     R0,#?V0 + 0
   \   000055   12....       LCALL   ?PUSH_XSTACK_I_TWO
   \   000058   EE           MOV     A,R6
   \   000059   FA           MOV     R2,A
   \   00005A   12....       LCALL   ??ZDP_PowerDescMsg?relay
   \   00005D   7402         MOV     A,#0x2
   \   00005F   12....       LCALL   ?DEALLOC_XSTACK8
   \   000062   803E         SJMP    ??ZDO_ProcessPowerDescReq_4
    604            }
    605            else
    606            {
    607              ZDP_GenericRsp( inMsg->TransSeq, &(inMsg->srcAddr),
    608                        ZDP_INVALID_REQTYPE, aoi, Power_Desc_rsp, inMsg->SecurityUse );
   \                     ??ZDO_ProcessPowerDescReq_3:
   \   000064                ; Setup parameters for call to function ZDP_GenericRsp
   \   000064   75..03       MOV     ?V0 + 0,#0x3
   \   000067   75..80       MOV     ?V0 + 1,#-0x80
   \   00006A   78..         MOV     R0,#?V0 + 0
   \   00006C   12....       LCALL   ?PUSH_XSTACK_I_TWO
   \   00006F   8C..         MOV     ?V0 + 0,R4
   \   000071   8D..         MOV     ?V0 + 1,R5
   \   000073   78..         MOV     R0,#?V0 + 0
   \   000075   12....       LCALL   ?PUSH_XSTACK_I_TWO
   \   000078   EE           MOV     A,R6
   \   000079   240E         ADD     A,#0xe
   \   00007B   F582         MOV     DPL,A
   \   00007D   EF           MOV     A,R7
   \   00007E   3400         ADDC    A,#0x0
   \   000080   F583         MOV     DPH,A
   \   000082   E0           MOVX    A,@DPTR
   \   000083   FD           MOV     R5,A
   \   000084   7C80         MOV     R4,#-0x80
   \   000086   EE           MOV     A,R6
   \   000087   2402         ADD     A,#0x2
   \   000089   FA           MOV     R2,A
   \   00008A   EF           MOV     A,R7
   \   00008B   3400         ADDC    A,#0x0
   \   00008D   FB           MOV     R3,A
   \   00008E   EE           MOV     A,R6
   \   00008F   240F         ADD     A,#0xf
   \   000091   F582         MOV     DPL,A
   \   000093   EF           MOV     A,R7
   \   000094   3400         ADDC    A,#0x0
   \   000096   F583         MOV     DPH,A
   \   000098   E0           MOVX    A,@DPTR
   \   000099   F9           MOV     R1,A
   \   00009A   12....       LCALL   ??ZDP_GenericRsp?relay
   \   00009D   7404         MOV     A,#0x4
   \   00009F   12....       LCALL   ?DEALLOC_XSTACK8
    609            }
    610          }
   \                     ??ZDO_ProcessPowerDescReq_4:
   \   0000A2   7F02         MOV     R7,#0x2
   \   0000A4   02....       LJMP    ?BANKED_LEAVE_XDATA
    611          
    612          /*********************************************************************
    613           * @fn          ZDO_ProcessSimpleDescReq
    614           *
    615           * @brief       This function processes and responds to the
    616           *              Simple_Desc_req message.
    617           *
    618           * @param       inMsg - incoming message (request)
    619           *
    620           * @return      none
    621           */

   \                                 In  segment BANKED_CODE, align 1, keep-with-next
    622          void ZDO_ProcessSimpleDescReq( zdoIncomingMsg_t *inMsg )
   \                     ZDO_ProcessSimpleDescReq:
    623          {
   \   000000   74F6         MOV     A,#-0xa
   \   000002   12....       LCALL   ?BANKED_ENTER_XDATA
   \   000005                ; Saved register size: 10
   \   000005                ; Auto size: 2
   \   000005   74FE         MOV     A,#-0x2
   \   000007   12....       LCALL   ?ALLOC_XSTACK8
   \   00000A   EA           MOV     A,R2
   \   00000B   FE           MOV     R6,A
   \   00000C   EB           MOV     A,R3
   \   00000D   FF           MOV     R7,A
    624            SimpleDescriptionFormat_t *sDesc = NULL;
   \   00000E   85..82       MOV     DPL,?XSP + 0
   \   000011   85..83       MOV     DPH,?XSP + 1
   \   000014   E4           CLR     A
   \   000015   F0           MOVX    @DPTR,A
   \   000016   A3           INC     DPTR
   \   000017   F0           MOVX    @DPTR,A
    625            uint16 aoi = BUILD_UINT16( inMsg->asdu[0], inMsg->asdu[1] );
   \   000018   EE           MOV     A,R6
   \   000019   2413         ADD     A,#0x13
   \   00001B   F8           MOV     R0,A
   \   00001C   EF           MOV     A,R7
   \   00001D   3400         ADDC    A,#0x0
   \   00001F   F9           MOV     R1,A
   \   000020   8882         MOV     DPL,R0
   \   000022   8983         MOV     DPH,R1
   \   000024   E0           MOVX    A,@DPTR
   \   000025   FA           MOV     R2,A
   \   000026   A3           INC     DPTR
   \   000027   E0           MOVX    A,@DPTR
   \   000028   F583         MOV     DPH,A
   \   00002A   8A82         MOV     DPL,R2
   \   00002C   E0           MOVX    A,@DPTR
   \   00002D   FC           MOV     R4,A
   \   00002E   8882         MOV     DPL,R0
   \   000030   8983         MOV     DPH,R1
   \   000032   E0           MOVX    A,@DPTR
   \   000033   FA           MOV     R2,A
   \   000034   A3           INC     DPTR
   \   000035   E0           MOVX    A,@DPTR
   \   000036   F583         MOV     DPH,A
   \   000038   8A82         MOV     DPL,R2
   \   00003A   A3           INC     DPTR
   \   00003B   E0           MOVX    A,@DPTR
   \   00003C   FB           MOV     R3,A
   \   00003D   E4           CLR     A
   \   00003E   2C           ADD     A,R4
   \   00003F   FA           MOV     R2,A
    626            byte endPoint = inMsg->asdu[2];
   \   000040   8882         MOV     DPL,R0
   \   000042   8983         MOV     DPH,R1
   \   000044   E0           MOVX    A,@DPTR
   \   000045   F8           MOV     R0,A
   \   000046   A3           INC     DPTR
   \   000047   E0           MOVX    A,@DPTR
   \   000048   F583         MOV     DPH,A
   \   00004A   8882         MOV     DPL,R0
   \   00004C   A3           INC     DPTR
   \   00004D   A3           INC     DPTR
   \   00004E   E0           MOVX    A,@DPTR
   \   00004F   F9           MOV     R1,A
    627            byte free = false;
   \   000050   75..00       MOV     ?V0 + 0,#0x0
    628            byte stat = ZDP_SUCCESS;
   \   000053   75..00       MOV     ?V0 + 1,#0x0
    629          
    630            if ( (endPoint == ZDO_EP) || (endPoint > MAX_ENDPOINTS) )
   \   000056   6004         JZ      ??ZDO_ProcessSimpleDescReq_0
   \   000058   94F1         SUBB    A,#-0xf
   \   00005A   4005         JC      ??ZDO_ProcessSimpleDescReq_1
    631            {
    632              stat = ZDP_INVALID_EP;
   \                     ??ZDO_ProcessSimpleDescReq_0:
   \   00005C   75..82       MOV     ?V0 + 1,#-0x7e
   \   00005F   8031         SJMP    ??ZDO_ProcessSimpleDescReq_2
    633            }
    634            else if ( aoi == ZDAppNwkAddr.addr.shortAddr )
   \                     ??ZDO_ProcessSimpleDescReq_1:
   \   000061   90....       MOV     DPTR,#ZDAppNwkAddr
   \   000064   E0           MOVX    A,@DPTR
   \   000065   6A           XRL     A,R2
   \   000066   7003         JNZ     ??ZDO_ProcessSimpleDescReq_3
   \   000068   A3           INC     DPTR
   \   000069   E0           MOVX    A,@DPTR
   \   00006A   6B           XRL     A,R3
   \                     ??ZDO_ProcessSimpleDescReq_3:
   \   00006B   7022         JNZ     ??ZDO_ProcessSimpleDescReq_4
    635            {
    636              free = afFindSimpleDesc( &sDesc, endPoint );
   \   00006D                ; Setup parameters for call to function afFindSimpleDesc
   \   00006D   85..82       MOV     DPL,?XSP + 0
   \   000070   85..83       MOV     DPH,?XSP + 1
   \   000073   AA82         MOV     R2,DPL
   \   000075   AB83         MOV     R3,DPH
   \   000077   12....       LCALL   ??afFindSimpleDesc?relay
   \   00007A   E9           MOV     A,R1
   \   00007B   F5..         MOV     ?V0 + 0,A
    637              if ( sDesc == NULL )
   \   00007D   85..82       MOV     DPL,?XSP + 0
   \   000080   85..83       MOV     DPH,?XSP + 1
   \   000083   E0           MOVX    A,@DPTR
   \   000084   7002         JNZ     ??ZDO_ProcessSimpleDescReq_5
   \   000086   A3           INC     DPTR
   \   000087   E0           MOVX    A,@DPTR
   \                     ??ZDO_ProcessSimpleDescReq_5:
   \   000088   7008         JNZ     ??ZDO_ProcessSimpleDescReq_2
    638              {
    639                stat = ZDP_NOT_ACTIVE;
   \   00008A   75..83       MOV     ?V0 + 1,#-0x7d
   \   00008D   8003         SJMP    ??ZDO_ProcessSimpleDescReq_2
    640              }
    641            }
    642            else
    643            {
    644              if ( ZSTACK_ROUTER_BUILD )
    645              {
    646                stat = ZDP_DEVICE_NOT_FOUND;
   \                     ??ZDO_ProcessSimpleDescReq_4:
   \   00008F   75..81       MOV     ?V0 + 1,#-0x7f
    647              }
    648              else if ( ZSTACK_END_DEVICE_BUILD )
    649              {
    650                stat = ZDP_INVALID_REQTYPE;
    651              }
    652            }
    653          
    654            ZDP_SimpleDescMsg( inMsg, stat, sDesc );
   \                     ??ZDO_ProcessSimpleDescReq_2:
   \   000092                ; Setup parameters for call to function ZDP_SimpleDescMsg
   \   000092   85..82       MOV     DPL,?XSP + 0
   \   000095   85..83       MOV     DPH,?XSP + 1
   \   000098   E0           MOVX    A,@DPTR
   \   000099   FC           MOV     R4,A
   \   00009A   A3           INC     DPTR
   \   00009B   E0           MOVX    A,@DPTR
   \   00009C   FD           MOV     R5,A
   \   00009D   A9..         MOV     R1,?V0 + 1
   \   00009F   EE           MOV     A,R6
   \   0000A0   FA           MOV     R2,A
   \   0000A1   EF           MOV     A,R7
   \   0000A2   FB           MOV     R3,A
   \   0000A3   12....       LCALL   ??ZDP_SimpleDescMsg?relay
    655          
    656            if ( free && sDesc )
   \   0000A6   E5..         MOV     A,?V0 + 0
   \   0000A8   601B         JZ      ??ZDO_ProcessSimpleDescReq_6
   \   0000AA   85..82       MOV     DPL,?XSP + 0
   \   0000AD   85..83       MOV     DPH,?XSP + 1
   \   0000B0   E0           MOVX    A,@DPTR
   \   0000B1   7002         JNZ     ??ZDO_ProcessSimpleDescReq_7
   \   0000B3   A3           INC     DPTR
   \   0000B4   E0           MOVX    A,@DPTR
   \                     ??ZDO_ProcessSimpleDescReq_7:
   \   0000B5   600E         JZ      ??ZDO_ProcessSimpleDescReq_6
    657            {
    658              osal_mem_free( sDesc );
   \   0000B7                ; Setup parameters for call to function osal_mem_free
   \   0000B7   85..82       MOV     DPL,?XSP + 0
   \   0000BA   85..83       MOV     DPH,?XSP + 1
   \   0000BD   E0           MOVX    A,@DPTR
   \   0000BE   FA           MOV     R2,A
   \   0000BF   A3           INC     DPTR
   \   0000C0   E0           MOVX    A,@DPTR
   \   0000C1   FB           MOV     R3,A
   \   0000C2   12....       LCALL   ??osal_mem_free?relay
    659            }
    660          }
   \                     ??ZDO_ProcessSimpleDescReq_6:
   \   0000C5   7402         MOV     A,#0x2
   \   0000C7   12....       LCALL   ?DEALLOC_XSTACK8
   \   0000CA   7F02         MOV     R7,#0x2
   \   0000CC   02....       LJMP    ?BANKED_LEAVE_XDATA
    661          
    662          /*********************************************************************
    663           * @fn          ZDO_ProcessActiveEPReq
    664           *
    665           * @brief       This function processes and responds to the
    666           *              Active_EP_req message.
    667           *
    668           * @param       inMsg  - incoming message (request)
    669           *
    670           * @return      none
    671           */

   \                                 In  segment BANKED_CODE, align 1, keep-with-next
    672          void ZDO_ProcessActiveEPReq( zdoIncomingMsg_t *inMsg )
   \                     ZDO_ProcessActiveEPReq:
    673          {
   \   000000   74F2         MOV     A,#-0xe
   \   000002   12....       LCALL   ?BANKED_ENTER_XDATA
   \   000005                ; Saved register size: 14
   \   000005                ; Auto size: 0
   \   000005   8A..         MOV     ?V0 + 4,R2
   \   000007   8B..         MOV     ?V0 + 5,R3
    674            byte cnt = 0;
   \   000009   75..00       MOV     ?V0 + 0,#0x0
    675            uint16 aoi;
    676            byte stat = ZDP_SUCCESS;
   \   00000C   75..00       MOV     ?V0 + 1,#0x0
    677          
    678            aoi = BUILD_UINT16( inMsg->asdu[0], inMsg->asdu[1] );
   \   00000F   EA           MOV     A,R2
   \   000010   2413         ADD     A,#0x13
   \   000012   F8           MOV     R0,A
   \   000013   EB           MOV     A,R3
   \   000014   3400         ADDC    A,#0x0
   \   000016   F9           MOV     R1,A
   \   000017   8882         MOV     DPL,R0
   \   000019   8983         MOV     DPH,R1
   \   00001B   E0           MOVX    A,@DPTR
   \   00001C   FA           MOV     R2,A
   \   00001D   A3           INC     DPTR
   \   00001E   E0           MOVX    A,@DPTR
   \   00001F   F583         MOV     DPH,A
   \   000021   8A82         MOV     DPL,R2
   \   000023   E0           MOVX    A,@DPTR
   \   000024   FA           MOV     R2,A
   \   000025   8882         MOV     DPL,R0
   \   000027   8983         MOV     DPH,R1
   \   000029   E0           MOVX    A,@DPTR
   \   00002A   F8           MOV     R0,A
   \   00002B   A3           INC     DPTR
   \   00002C   E0           MOVX    A,@DPTR
   \   00002D   F583         MOV     DPH,A
   \   00002F   8882         MOV     DPL,R0
   \   000031   A3           INC     DPTR
   \   000032   E0           MOVX    A,@DPTR
   \   000033   F9           MOV     R1,A
   \   000034   EA           MOV     A,R2
   \   000035   FE           MOV     R6,A
   \   000036   E9           MOV     A,R1
   \   000037   FF           MOV     R7,A
    679          
    680            if ( aoi == NLME_GetShortAddr() )
   \   000038                ; Setup parameters for call to function NLME_GetShortAddr
   \   000038   12....       LCALL   ??NLME_GetShortAddr?relay
   \   00003B   EA           MOV     A,R2
   \   00003C   6E           XRL     A,R6
   \   00003D   7002         JNZ     ??ZDO_ProcessActiveEPReq_0
   \   00003F   EB           MOV     A,R3
   \   000040   6F           XRL     A,R7
   \                     ??ZDO_ProcessActiveEPReq_0:
   \   000041   7012         JNZ     ??ZDO_ProcessActiveEPReq_1
    681            {
    682              cnt = afNumEndPoints() - 1;  // -1 for ZDO endpoint descriptor
   \   000043                ; Setup parameters for call to function afNumEndPoints
   \   000043   12....       LCALL   ??afNumEndPoints?relay
   \   000046   E9           MOV     A,R1
   \   000047   14           DEC     A
   \   000048   F5..         MOV     ?V0 + 0,A
    683              afEndPoints( (uint8 *)ZDOBuildBuf, true );
   \   00004A                ; Setup parameters for call to function afEndPoints
   \   00004A   7901         MOV     R1,#0x1
   \   00004C   7A..         MOV     R2,#(ZDOBuildBuf & 0xff)
   \   00004E   7B..         MOV     R3,#((ZDOBuildBuf >> 8) & 0xff)
   \   000050   12....       LCALL   ??afEndPoints?relay
   \   000053   8003         SJMP    ??ZDO_ProcessActiveEPReq_2
    684            }
    685            else
    686            {
    687              stat = ZDP_INVALID_REQTYPE;
   \                     ??ZDO_ProcessActiveEPReq_1:
   \   000055   75..80       MOV     ?V0 + 1,#-0x80
    688            }
    689          
    690            ZDP_ActiveEPRsp( inMsg->TransSeq, &(inMsg->srcAddr), stat,
    691                            aoi, cnt, (uint8 *)ZDOBuildBuf, inMsg->SecurityUse );
   \                     ??ZDO_ProcessActiveEPReq_2:
   \   000058                ; Setup parameters for call to function ZDP_EPRsp
   \   000058   E5..         MOV     A,?V0 + 4
   \   00005A   240E         ADD     A,#0xe
   \   00005C   F582         MOV     DPL,A
   \   00005E   E5..         MOV     A,?V0 + 5
   \   000060   3400         ADDC    A,#0x0
   \   000062   F583         MOV     DPH,A
   \   000064   E0           MOVX    A,@DPTR
   \   000065   F5..         MOV     ?V0 + 2,A
   \   000067   78..         MOV     R0,#?V0 + 2
   \   000069   12....       LCALL   ?PUSH_XSTACK_I_ONE
   \   00006C   75....       MOV     ?V0 + 2,#(ZDOBuildBuf & 0xff)
   \   00006F   75....       MOV     ?V0 + 3,#((ZDOBuildBuf >> 8) & 0xff)
   \   000072   78..         MOV     R0,#?V0 + 2
   \   000074   12....       LCALL   ?PUSH_XSTACK_I_TWO
   \   000077   78..         MOV     R0,#?V0 + 0
   \   000079   12....       LCALL   ?PUSH_XSTACK_I_ONE
   \   00007C   8E..         MOV     ?V0 + 2,R6
   \   00007E   8F..         MOV     ?V0 + 3,R7
   \   000080   78..         MOV     R0,#?V0 + 2
   \   000082   12....       LCALL   ?PUSH_XSTACK_I_TWO
   \   000085   E5..         MOV     A,?V0 + 1
   \   000087   F5..         MOV     ?V0 + 0,A
   \   000089   78..         MOV     R0,#?V0 + 0
   \   00008B   12....       LCALL   ?PUSH_XSTACK_I_ONE
   \   00008E   E5..         MOV     A,?V0 + 4
   \   000090   2402         ADD     A,#0x2
   \   000092   FC           MOV     R4,A
   \   000093   E5..         MOV     A,?V0 + 5
   \   000095   3400         ADDC    A,#0x0
   \   000097   FD           MOV     R5,A
   \   000098   E5..         MOV     A,?V0 + 4
   \   00009A   240F         ADD     A,#0xf
   \   00009C   F582         MOV     DPL,A
   \   00009E   E5..         MOV     A,?V0 + 5
   \   0000A0   3400         ADDC    A,#0x0
   \   0000A2   F583         MOV     DPH,A
   \   0000A4   E0           MOVX    A,@DPTR
   \   0000A5   F9           MOV     R1,A
   \   0000A6   7A05         MOV     R2,#0x5
   \   0000A8   7B80         MOV     R3,#-0x80
   \   0000AA   12....       LCALL   ??ZDP_EPRsp?relay
   \   0000AD   7407         MOV     A,#0x7
   \   0000AF   12....       LCALL   ?DEALLOC_XSTACK8
    692          }
   \   0000B2   7F06         MOV     R7,#0x6
   \   0000B4   02....       LJMP    ?BANKED_LEAVE_XDATA
    693          
    694          /*********************************************************************
    695           * @fn          ZDO_ConvertOTAClusters
    696           *
    697           * @brief       This function will convert the over-the-air cluster list
    698           *              format to an internal format.
    699           *
    700           * @param       inMsg  - incoming message (request)
    701           *
    702           * @return      pointer to incremented inBuf
    703           */

   \                                 In  segment BANKED_CODE, align 1, keep-with-next
    704          uint8 *ZDO_ConvertOTAClusters( uint8 cnt, uint8 *inBuf, uint16 *outList )
   \                     ZDO_ConvertOTAClusters:
    705          {
   \   000000   74F5         MOV     A,#-0xb
   \   000002   12....       LCALL   ?BANKED_ENTER_XDATA
   \   000005                ; Saved register size: 11
   \   000005                ; Auto size: 0
   \   000005   E9           MOV     A,R1
   \   000006   FE           MOV     R6,A
    706            uint8 x;
    707          
    708            for ( x = 0; x < cnt; x++ )
   \   000007   7F00         MOV     R7,#0x0
   \   000009   802F         SJMP    ??ZDO_ConvertOTAClusters_0
    709            {
    710              // convert ota format to internal
    711              outList[x] = BUILD_UINT16( inBuf[0], inBuf[1] );
   \                     ??ZDO_ConvertOTAClusters_1:
   \   00000B   8A82         MOV     DPL,R2
   \   00000D   8B83         MOV     DPH,R3
   \   00000F   E0           MOVX    A,@DPTR
   \   000010   F5..         MOV     ?V0 + 0,A
   \   000012   A3           INC     DPTR
   \   000013   E0           MOVX    A,@DPTR
   \   000014   F9           MOV     R1,A
   \   000015   E4           CLR     A
   \   000016   25..         ADD     A,?V0 + 0
   \   000018   E9           MOV     A,R1
   \   000019   F5..         MOV     ?V0 + 1,A
   \   00001B   EF           MOV     A,R7
   \   00001C   33           RLC     A
   \   00001D   F8           MOV     R0,A
   \   00001E   E4           CLR     A
   \   00001F   33           RLC     A
   \   000020   F9           MOV     R1,A
   \   000021   EC           MOV     A,R4
   \   000022   28           ADD     A,R0
   \   000023   F582         MOV     DPL,A
   \   000025   ED           MOV     A,R5
   \   000026   39           ADDC    A,R1
   \   000027   F583         MOV     DPH,A
   \   000029   E5..         MOV     A,?V0 + 0
   \   00002B   F0           MOVX    @DPTR,A
   \   00002C   A3           INC     DPTR
   \   00002D   E5..         MOV     A,?V0 + 1
   \   00002F   F0           MOVX    @DPTR,A
    712              inBuf += sizeof( uint16 );
   \   000030   EA           MOV     A,R2
   \   000031   2402         ADD     A,#0x2
   \   000033   0A           INC     R2
   \   000034   0A           INC     R2
   \   000035   EB           MOV     A,R3
   \   000036   3400         ADDC    A,#0x0
   \   000038   FB           MOV     R3,A
    713            }
   \   000039   0F           INC     R7
   \                     ??ZDO_ConvertOTAClusters_0:
   \   00003A   EF           MOV     A,R7
   \   00003B   C3           CLR     C
   \   00003C   9E           SUBB    A,R6
   \   00003D   40CC         JC      ??ZDO_ConvertOTAClusters_1
    714            return ( inBuf );
   \   00003F   7F03         MOV     R7,#0x3
   \   000041   02....       LJMP    ?BANKED_LEAVE_XDATA
    715          }
    716          
    717          /*********************************************************************
    718           * @fn          ZDO_ProcessMatchDescReq
    719           *
    720           * @brief       This function processes and responds to the
    721           *              Match_Desc_req message.
    722           *
    723           * @param       inMsg  - incoming message (request)
    724           *
    725           * @return      none
    726           */

   \                                 In  segment BANKED_CODE, align 1, keep-with-next
    727          void ZDO_ProcessMatchDescReq( zdoIncomingMsg_t *inMsg )
   \                     ZDO_ProcessMatchDescReq:
    728          {
   \   000000   74F0         MOV     A,#-0x10
   \   000002   12....       LCALL   ?BANKED_ENTER_XDATA
   \   000005                ; Saved register size: 16
   \   000005                ; Auto size: 11
   \   000005   74F5         MOV     A,#-0xb
   \   000007   12....       LCALL   ?ALLOC_XSTACK8
   \   00000A   7405         MOV     A,#0x5
   \   00000C   12....       LCALL   ?XSTACK_DISP0_8
   \   00000F   EA           MOV     A,R2
   \   000010   F0           MOVX    @DPTR,A
   \   000011   A3           INC     DPTR
   \   000012   EB           MOV     A,R3
   \   000013   F0           MOVX    @DPTR,A
    729            uint8 epCnt = 0;
   \   000014   E4           CLR     A
   \   000015   C0E0         PUSH    A
   \   000017   7404         MOV     A,#0x4
   \   000019   12....       LCALL   ?XSTACK_DISP0_8
   \   00001C   D0E0         POP     A
   \   00001E   F0           MOVX    @DPTR,A
    730            uint8 numInClusters;
    731            uint16 *inClusters = NULL;
   \   00001F   7409         MOV     A,#0x9
   \   000021   12....       LCALL   ?XSTACK_DISP0_8
   \   000024   E4           CLR     A
   \   000025   F0           MOVX    @DPTR,A
   \   000026   A3           INC     DPTR
   \   000027   F0           MOVX    @DPTR,A
    732            uint8 numOutClusters;
    733            uint16 *outClusters = NULL;
   \   000028   7407         MOV     A,#0x7
   \   00002A   12....       LCALL   ?XSTACK_DISP0_8
   \   00002D   E4           CLR     A
   \   00002E   F0           MOVX    @DPTR,A
   \   00002F   A3           INC     DPTR
   \   000030   F0           MOVX    @DPTR,A
    734            epList_t *epDesc;
    735            SimpleDescriptionFormat_t *sDesc = NULL;
    736            uint8 allocated;
    737            uint8 *msg;
    738            uint16 aoi;
    739            uint16 profileID;
    740          
    741            // Parse the incoming message
    742            msg = inMsg->asdu;
   \   000031   7405         MOV     A,#0x5
   \   000033   12....       LCALL   ?XSTACK_DISP0_8
   \   000036   E0           MOVX    A,@DPTR
   \   000037   2413         ADD     A,#0x13
   \   000039   F8           MOV     R0,A
   \   00003A   A3           INC     DPTR
   \   00003B   E0           MOVX    A,@DPTR
   \   00003C   3400         ADDC    A,#0x0
   \   00003E   F9           MOV     R1,A
   \   00003F   8882         MOV     DPL,R0
   \   000041   8983         MOV     DPH,R1
   \   000043   E0           MOVX    A,@DPTR
   \   000044   F5..         MOV     ?V0 + 2,A
   \   000046   A3           INC     DPTR
   \   000047   E0           MOVX    A,@DPTR
   \   000048   F5..         MOV     ?V0 + 3,A
    743            aoi = BUILD_UINT16( msg[0], msg[1] );
   \   00004A   85..82       MOV     DPL,?V0 + 2
   \   00004D   F583         MOV     DPH,A
   \   00004F   E0           MOVX    A,@DPTR
   \   000050   FA           MOV     R2,A
   \   000051   A3           INC     DPTR
   \   000052   E0           MOVX    A,@DPTR
   \   000053   F9           MOV     R1,A
   \   000054   EA           MOV     A,R2
   \   000055   F5..         MOV     ?V0 + 0,A
   \   000057   E9           MOV     A,R1
   \   000058   F5..         MOV     ?V0 + 1,A
    744            profileID = BUILD_UINT16( msg[2], msg[3] );
   \   00005A   85..82       MOV     DPL,?V0 + 2
   \   00005D   85..83       MOV     DPH,?V0 + 3
   \   000060   A3           INC     DPTR
   \   000061   A3           INC     DPTR
   \   000062   E0           MOVX    A,@DPTR
   \   000063   FA           MOV     R2,A
   \   000064   85..82       MOV     DPL,?V0 + 2
   \   000067   85..83       MOV     DPH,?V0 + 3
   \   00006A   A3           INC     DPTR
   \   00006B   A3           INC     DPTR
   \   00006C   A3           INC     DPTR
   \   00006D   E0           MOVX    A,@DPTR
   \   00006E   F9           MOV     R1,A
   \   00006F   EA           MOV     A,R2
   \   000070   FE           MOV     R6,A
   \   000071   E9           MOV     A,R1
   \   000072   FF           MOV     R7,A
    745            msg += 4;
   \   000073   E5..         MOV     A,?V0 + 2
   \   000075   2404         ADD     A,#0x4
   \   000077   F5..         MOV     ?V0 + 2,A
   \   000079   E5..         MOV     A,?V0 + 3
   \   00007B   3400         ADDC    A,#0x0
   \   00007D   F5..         MOV     ?V0 + 3,A
    746          
    747            if ( ADDR_BCAST_NOT_ME == NLME_IsAddressBroadcast(aoi) )
   \   00007F                ; Setup parameters for call to function NLME_IsAddressBroadcast
   \   00007F   AA..         MOV     R2,?V0 + 0
   \   000081   AB..         MOV     R3,?V0 + 1
   \   000083   12....       LCALL   ??NLME_IsAddressBroadcast?relay
   \   000086   E9           MOV     A,R1
   \   000087   6401         XRL     A,#0x1
   \   000089   7069         JNZ     ??ZDO_ProcessMatchDescReq_0
    748            {
    749              ZDP_MatchDescRsp( inMsg->TransSeq, &(inMsg->srcAddr), ZDP_INVALID_REQTYPE,
    750                                    ZDAppNwkAddr.addr.shortAddr, 0, NULL, inMsg->SecurityUse );
   \                     ??ZDO_ProcessMatchDescReq_1:
   \   00008B                ; Setup parameters for call to function ZDP_EPRsp
   \   00008B   7405         MOV     A,#0x5
   \   00008D   12....       LCALL   ?XSTACK_DISP0_8
   \   000090   E0           MOVX    A,@DPTR
   \   000091   240E         ADD     A,#0xe
   \   000093   F8           MOV     R0,A
   \   000094   A3           INC     DPTR
   \   000095   E0           MOVX    A,@DPTR
   \   000096   3400         ADDC    A,#0x0
   \   000098   F9           MOV     R1,A
   \   000099   8882         MOV     DPL,R0
   \   00009B   8983         MOV     DPH,R1
   \   00009D   E0           MOVX    A,@DPTR
   \   00009E   F5..         MOV     ?V0 + 0,A
   \   0000A0   78..         MOV     R0,#?V0 + 0
   \   0000A2   12....       LCALL   ?PUSH_XSTACK_I_ONE
   \   0000A5   75..00       MOV     ?V0 + 0,#0x0
   \   0000A8   75..00       MOV     ?V0 + 1,#0x0
   \   0000AB   78..         MOV     R0,#?V0 + 0
   \   0000AD   12....       LCALL   ?PUSH_XSTACK_I_TWO
   \   0000B0   78..         MOV     R0,#?V0 + 0
   \   0000B2   12....       LCALL   ?PUSH_XSTACK_I_ONE
   \   0000B5   90....       MOV     DPTR,#ZDAppNwkAddr
   \   0000B8   12....       LCALL   ?PUSH_XSTACK8_X_TWO
   \   0000BB   75..80       MOV     ?V0 + 0,#-0x80
   \   0000BE   78..         MOV     R0,#?V0 + 0
   \   0000C0   12....       LCALL   ?PUSH_XSTACK_I_ONE
   \   0000C3   740C         MOV     A,#0xc
   \   0000C5   12....       LCALL   ?XSTACK_DISP0_8
   \   0000C8   E0           MOVX    A,@DPTR
   \   0000C9   2402         ADD     A,#0x2
   \   0000CB   FC           MOV     R4,A
   \   0000CC   A3           INC     DPTR
   \   0000CD   E0           MOVX    A,@DPTR
   \   0000CE   3400         ADDC    A,#0x0
   \   0000D0   FD           MOV     R5,A
   \   0000D1   740C         MOV     A,#0xc
   \   0000D3   12....       LCALL   ?XSTACK_DISP0_8
   \   0000D6   E0           MOVX    A,@DPTR
   \   0000D7   240F         ADD     A,#0xf
   \   0000D9   F8           MOV     R0,A
   \   0000DA   A3           INC     DPTR
   \   0000DB   E0           MOVX    A,@DPTR
   \   0000DC   3400         ADDC    A,#0x0
   \   0000DE   F9           MOV     R1,A
   \   0000DF   8882         MOV     DPL,R0
   \   0000E1   8983         MOV     DPH,R1
   \   0000E3   E0           MOVX    A,@DPTR
   \   0000E4   F9           MOV     R1,A
   \   0000E5   7A06         MOV     R2,#0x6
   \   0000E7   7B80         MOV     R3,#-0x80
   \   0000E9   12....       LCALL   ??ZDP_EPRsp?relay
   \   0000EC   7407         MOV     A,#0x7
   \   0000EE   12....       LCALL   ?DEALLOC_XSTACK8
    751              return;
   \   0000F1   02....       LJMP    ??ZDO_ProcessMatchDescReq_2 & 0xFFFF
    752            }
    753            else if ( (ADDR_NOT_BCAST == NLME_IsAddressBroadcast(aoi)) && (aoi != ZDAppNwkAddr.addr.shortAddr) )
   \                     ??ZDO_ProcessMatchDescReq_0:
   \   0000F4                ; Setup parameters for call to function NLME_IsAddressBroadcast
   \   0000F4   AA..         MOV     R2,?V0 + 0
   \   0000F6   AB..         MOV     R3,?V0 + 1
   \   0000F8   12....       LCALL   ??NLME_IsAddressBroadcast?relay
   \   0000FB   E9           MOV     A,R1
   \   0000FC   7011         JNZ     ??ZDO_ProcessMatchDescReq_3
   \   0000FE   90....       MOV     DPTR,#ZDAppNwkAddr
   \   000101   E0           MOVX    A,@DPTR
   \   000102   65..         XRL     A,?V0 + 0
   \   000104   7004         JNZ     ??ZDO_ProcessMatchDescReq_4
   \   000106   A3           INC     DPTR
   \   000107   E0           MOVX    A,@DPTR
   \   000108   65..         XRL     A,?V0 + 1
   \                     ??ZDO_ProcessMatchDescReq_4:
   \   00010A   6003         JZ      $+5
   \   00010C   02....       LJMP    ??ZDO_ProcessMatchDescReq_1 & 0xFFFF
    754            {
    755              ZDP_MatchDescRsp( inMsg->TransSeq, &(inMsg->srcAddr), ZDP_INVALID_REQTYPE,
    756                                       ZDAppNwkAddr.addr.shortAddr, 0, NULL, inMsg->SecurityUse );
    757              return;
    758            }
    759          
    760            if ((numInClusters = *msg++) &&
    761                (inClusters = (uint16*)osal_mem_alloc( numInClusters * sizeof( uint16 ) )))
   \                     ??ZDO_ProcessMatchDescReq_3:
   \   00010F   85..82       MOV     DPL,?V0 + 2
   \   000112   85..83       MOV     DPH,?V0 + 3
   \   000115   E0           MOVX    A,@DPTR
   \   000116   FA           MOV     R2,A
   \   000117   A3           INC     DPTR
   \   000118   8582..       MOV     ?V0 + 2,DPL
   \   00011B   8583..       MOV     ?V0 + 3,DPH
   \   00011E   8A..         MOV     ?V0 + 5,R2
   \   000120   6038         JZ      ??ZDO_ProcessMatchDescReq_5
   \   000122                ; Setup parameters for call to function osal_mem_alloc
   \   000122   C3           CLR     C
   \   000123   33           RLC     A
   \   000124   FA           MOV     R2,A
   \   000125   E4           CLR     A
   \   000126   33           RLC     A
   \   000127   FB           MOV     R3,A
   \   000128   12....       LCALL   ??osal_mem_alloc?relay
   \   00012B   7409         MOV     A,#0x9
   \   00012D   12....       LCALL   ?XSTACK_DISP0_8
   \   000130   EA           MOV     A,R2
   \   000131   F0           MOVX    @DPTR,A
   \   000132   A3           INC     DPTR
   \   000133   EB           MOV     A,R3
   \   000134   F0           MOVX    @DPTR,A
   \   000135   7409         MOV     A,#0x9
   \   000137   12....       LCALL   ?XSTACK_DISP0_8
   \   00013A   E0           MOVX    A,@DPTR
   \   00013B   7002         JNZ     ??ZDO_ProcessMatchDescReq_6
   \   00013D   A3           INC     DPTR
   \   00013E   E0           MOVX    A,@DPTR
   \                     ??ZDO_ProcessMatchDescReq_6:
   \   00013F   6019         JZ      ??ZDO_ProcessMatchDescReq_5
    762            {
    763              msg = ZDO_ConvertOTAClusters( numInClusters, msg, inClusters );
   \   000141                ; Setup parameters for call to function ZDO_ConvertOTAClusters
   \   000141   7409         MOV     A,#0x9
   \   000143   12....       LCALL   ?XSTACK_DISP0_8
   \   000146   E0           MOVX    A,@DPTR
   \   000147   FC           MOV     R4,A
   \   000148   A3           INC     DPTR
   \   000149   E0           MOVX    A,@DPTR
   \   00014A   FD           MOV     R5,A
   \   00014B   AA..         MOV     R2,?V0 + 2
   \   00014D   AB..         MOV     R3,?V0 + 3
   \   00014F   A9..         MOV     R1,?V0 + 5
   \   000151   12....       LCALL   ??ZDO_ConvertOTAClusters?relay
   \   000154   8A..         MOV     ?V0 + 2,R2
   \   000156   8B..         MOV     ?V0 + 3,R3
   \   000158   8003         SJMP    ??ZDO_ProcessMatchDescReq_7
    764            }
    765            else
    766            {
    767              numInClusters = 0;
   \                     ??ZDO_ProcessMatchDescReq_5:
   \   00015A   75..00       MOV     ?V0 + 5,#0x0
    768            }
    769          
    770            if ((numOutClusters = *msg++) &&
    771                (outClusters = (uint16 *)osal_mem_alloc( numOutClusters * sizeof( uint16 ) )))
   \                     ??ZDO_ProcessMatchDescReq_7:
   \   00015D   85..82       MOV     DPL,?V0 + 2
   \   000160   85..83       MOV     DPH,?V0 + 3
   \   000163   E0           MOVX    A,@DPTR
   \   000164   FA           MOV     R2,A
   \   000165   A3           INC     DPTR
   \   000166   8582..       MOV     ?V0 + 2,DPL
   \   000169   8583..       MOV     ?V0 + 3,DPH
   \   00016C   8A..         MOV     ?V0 + 4,R2
   \   00016E   6034         JZ      ??ZDO_ProcessMatchDescReq_8
   \   000170                ; Setup parameters for call to function osal_mem_alloc
   \   000170   C3           CLR     C
   \   000171   33           RLC     A
   \   000172   FA           MOV     R2,A
   \   000173   E4           CLR     A
   \   000174   33           RLC     A
   \   000175   FB           MOV     R3,A
   \   000176   12....       LCALL   ??osal_mem_alloc?relay
   \   000179   7407         MOV     A,#0x7
   \   00017B   12....       LCALL   ?XSTACK_DISP0_8
   \   00017E   EA           MOV     A,R2
   \   00017F   F0           MOVX    @DPTR,A
   \   000180   A3           INC     DPTR
   \   000181   EB           MOV     A,R3
   \   000182   F0           MOVX    @DPTR,A
   \   000183   7407         MOV     A,#0x7
   \   000185   12....       LCALL   ?XSTACK_DISP0_8
   \   000188   E0           MOVX    A,@DPTR
   \   000189   7002         JNZ     ??ZDO_ProcessMatchDescReq_9
   \   00018B   A3           INC     DPTR
   \   00018C   E0           MOVX    A,@DPTR
   \                     ??ZDO_ProcessMatchDescReq_9:
   \   00018D   6015         JZ      ??ZDO_ProcessMatchDescReq_8
    772            {
    773              msg = ZDO_ConvertOTAClusters( numOutClusters, msg, outClusters );
   \   00018F                ; Setup parameters for call to function ZDO_ConvertOTAClusters
   \   00018F   7407         MOV     A,#0x7
   \   000191   12....       LCALL   ?XSTACK_DISP0_8
   \   000194   E0           MOVX    A,@DPTR
   \   000195   FC           MOV     R4,A
   \   000196   A3           INC     DPTR
   \   000197   E0           MOVX    A,@DPTR
   \   000198   FD           MOV     R5,A
   \   000199   AA..         MOV     R2,?V0 + 2
   \   00019B   AB..         MOV     R3,?V0 + 3
   \   00019D   A9..         MOV     R1,?V0 + 4
   \   00019F   12....       LCALL   ??ZDO_ConvertOTAClusters?relay
   \   0001A2   8003         SJMP    ??ZDO_ProcessMatchDescReq_10
    774            }
    775            else
    776            {
    777              numOutClusters = 0;
   \                     ??ZDO_ProcessMatchDescReq_8:
   \   0001A4   75..00       MOV     ?V0 + 4,#0x0
    778            }
    779          
    780            // First count the number of endpoints that match.
    781            epDesc = epList;
   \                     ??ZDO_ProcessMatchDescReq_10:
   \   0001A7   90....       MOV     DPTR,#epList
   \   0001AA   807E         SJMP    ??ZDO_ProcessMatchDescReq_11
    782            while ( epDesc )
    783            {
    784              // Don't search endpoint 0 and check if response is allowed
    785              if ( epDesc->epDesc->endPoint != ZDO_EP && (epDesc->flags&eEP_AllowMatch) )
    786              {
    787                if ( epDesc->pfnDescCB )
    788                {
    789                  sDesc = (SimpleDescriptionFormat_t *)epDesc->pfnDescCB( AF_DESCRIPTOR_SIMPLE, epDesc->epDesc->endPoint );
    790                  allocated = TRUE;
    791                }
    792                else
    793                {
    794                  sDesc = epDesc->epDesc->simpleDesc;
    795                  allocated = FALSE;
    796                }
    797          
    798                if ( sDesc && sDesc->AppProfId == profileID )
    799                {
    800                  uint8 *uint8Buf = (uint8 *)ZDOBuildBuf;
    801          
    802                  // If there are no search input/ouput clusters - respond
    803                  if ( ((numInClusters == 0) && (numOutClusters == 0))
    804                      // Are there matching input clusters?
    805                       || (ZDO_AnyClusterMatches( numInClusters, inClusters,
    806                            sDesc->AppNumInClusters, sDesc->pAppInClusterList ))
    807                      // Are there matching output clusters?
    808                       || (ZDO_AnyClusterMatches( numOutClusters, outClusters,
    809                            sDesc->AppNumOutClusters, sDesc->pAppOutClusterList ))     )
    810                  {
    811                    // Notify the endpoint of the match.
    812                    uint8 bufLen = sizeof( ZDO_MatchDescRspSent_t ) + (numOutClusters + numInClusters) * sizeof(uint16);
    813                    ZDO_MatchDescRspSent_t *pRspSent = (ZDO_MatchDescRspSent_t *) osal_msg_allocate( bufLen );
    814          
    815                    if (pRspSent)
    816                    {
    817                      pRspSent->hdr.event = ZDO_MATCH_DESC_RSP_SENT;
    818                      pRspSent->nwkAddr = inMsg->srcAddr.addr.shortAddr;
    819                      pRspSent->numInClusters = numInClusters;
    820                      pRspSent->numOutClusters = numOutClusters;
    821          
    822                      if (numInClusters)
    823                      {
    824                        pRspSent->pInClusters = (uint16*) (pRspSent + 1);
    825                        osal_memcpy(pRspSent->pInClusters, inClusters, numInClusters * sizeof(uint16));
    826                      }
    827                      else
    828                      {
    829                        pRspSent->pInClusters = NULL;
    830                      }
    831          
    832                      if (numOutClusters)
    833                      {
    834                        pRspSent->pOutClusters = (uint16*)(pRspSent + 1) + numInClusters;
    835                        osal_memcpy(pRspSent->pOutClusters, outClusters, numOutClusters * sizeof(uint16));
    836                      }
    837                      else
    838                      {
    839                        pRspSent->pOutClusters = NULL;
   \                     ??ZDO_ProcessMatchDescReq_12:
   \   0001AC   8A82         MOV     DPL,R2
   \   0001AE   8B83         MOV     DPH,R3
   \   0001B0   E4           CLR     A
   \   0001B1   F0           MOVX    @DPTR,A
   \   0001B2   A3           INC     DPTR
   \   0001B3   F0           MOVX    @DPTR,A
    840                      }
    841          
    842                      osal_msg_send( *epDesc->epDesc->task_id, (uint8 *)pRspSent );
   \                     ??ZDO_ProcessMatchDescReq_13:
   \   0001B4                ; Setup parameters for call to function osal_msg_send
   \   0001B4   AA..         MOV     R2,?V0 + 6
   \   0001B6   AB..         MOV     R3,?V0 + 7
   \   0001B8   7402         MOV     A,#0x2
   \   0001BA   12....       LCALL   ?XSTACK_DISP0_8
   \   0001BD   E0           MOVX    A,@DPTR
   \   0001BE   F8           MOV     R0,A
   \   0001BF   A3           INC     DPTR
   \   0001C0   E0           MOVX    A,@DPTR
   \   0001C1   F583         MOV     DPH,A
   \   0001C3   8882         MOV     DPL,R0
   \   0001C5   E0           MOVX    A,@DPTR
   \   0001C6   F8           MOV     R0,A
   \   0001C7   A3           INC     DPTR
   \   0001C8   E0           MOVX    A,@DPTR
   \   0001C9   F583         MOV     DPH,A
   \   0001CB   8882         MOV     DPL,R0
   \   0001CD   A3           INC     DPTR
   \   0001CE   E0           MOVX    A,@DPTR
   \   0001CF   F8           MOV     R0,A
   \   0001D0   A3           INC     DPTR
   \   0001D1   E0           MOVX    A,@DPTR
   \   0001D2   F583         MOV     DPH,A
   \   0001D4   8882         MOV     DPL,R0
   \   0001D6   E0           MOVX    A,@DPTR
   \   0001D7   F9           MOV     R1,A
   \   0001D8   12....       LCALL   ??osal_msg_send?relay
    843                    }
    844          
    845                    uint8Buf[epCnt++] = sDesc->EndPoint;
   \                     ??ZDO_ProcessMatchDescReq_14:
   \   0001DB   85..82       MOV     DPL,?XSP + 0
   \   0001DE   85..83       MOV     DPH,?XSP + 1
   \   0001E1   E0           MOVX    A,@DPTR
   \   0001E2   F8           MOV     R0,A
   \   0001E3   A3           INC     DPTR
   \   0001E4   E0           MOVX    A,@DPTR
   \   0001E5   F583         MOV     DPH,A
   \   0001E7   8882         MOV     DPL,R0
   \   0001E9   E0           MOVX    A,@DPTR
   \   0001EA   C0E0         PUSH    A
   \   0001EC   7404         MOV     A,#0x4
   \   0001EE   12....       LCALL   ?XSTACK_DISP0_8
   \   0001F1   E0           MOVX    A,@DPTR
   \   0001F2   24..         ADD     A,#(ZDOBuildBuf & 0xff)
   \   0001F4   F582         MOV     DPL,A
   \   0001F6   E4           CLR     A
   \   0001F7   34..         ADDC    A,#((ZDOBuildBuf >> 8) & 0xff)
   \   0001F9   F583         MOV     DPH,A
   \   0001FB   D0E0         POP     A
   \   0001FD   F0           MOVX    @DPTR,A
   \   0001FE   7404         MOV     A,#0x4
   \   000200   12....       LCALL   ?XSTACK_DISP0_8
   \   000203   E0           MOVX    A,@DPTR
   \   000204   04           INC     A
   \   000205   F0           MOVX    @DPTR,A
    846                  }
    847                }
    848          
    849                if ( allocated )
   \                     ??ZDO_ProcessMatchDescReq_15:
   \   000206   E5..         MOV     A,?V0 + 3
   \   000208   600E         JZ      ??ZDO_ProcessMatchDescReq_16
    850                  osal_mem_free( sDesc );
   \   00020A                ; Setup parameters for call to function osal_mem_free
   \   00020A   85..82       MOV     DPL,?XSP + 0
   \   00020D   85..83       MOV     DPH,?XSP + 1
   \   000210   E0           MOVX    A,@DPTR
   \   000211   FA           MOV     R2,A
   \   000212   A3           INC     DPTR
   \   000213   E0           MOVX    A,@DPTR
   \   000214   FB           MOV     R3,A
   \   000215   12....       LCALL   ??osal_mem_free?relay
    851              }
    852              epDesc = epDesc->nextDesc;
   \                     ??ZDO_ProcessMatchDescReq_16:
   \   000218   7402         MOV     A,#0x2
   \   00021A   12....       LCALL   ?XSTACK_DISP0_8
   \   00021D   E0           MOVX    A,@DPTR
   \   00021E   F8           MOV     R0,A
   \   00021F   A3           INC     DPTR
   \   000220   E0           MOVX    A,@DPTR
   \   000221   F583         MOV     DPH,A
   \   000223   8882         MOV     DPL,R0
   \   000225   A3           INC     DPTR
   \   000226   A3           INC     DPTR
   \   000227   A3           INC     DPTR
   \   000228   A3           INC     DPTR
   \   000229   A3           INC     DPTR
   \                     ??ZDO_ProcessMatchDescReq_11:
   \   00022A   E0           MOVX    A,@DPTR
   \   00022B   F8           MOV     R0,A
   \   00022C   A3           INC     DPTR
   \   00022D   E0           MOVX    A,@DPTR
   \   00022E   F9           MOV     R1,A
   \   00022F   7402         MOV     A,#0x2
   \   000231   12....       LCALL   ?XSTACK_DISP0_8
   \   000234   E8           MOV     A,R0
   \   000235   F0           MOVX    @DPTR,A
   \   000236   A3           INC     DPTR
   \   000237   E9           MOV     A,R1
   \   000238   F0           MOVX    @DPTR,A
   \   000239   7402         MOV     A,#0x2
   \   00023B   12....       LCALL   ?XSTACK_DISP0_8
   \   00023E   E0           MOVX    A,@DPTR
   \   00023F   7002         JNZ     ??ZDO_ProcessMatchDescReq_17
   \   000241   A3           INC     DPTR
   \   000242   E0           MOVX    A,@DPTR
   \                     ??ZDO_ProcessMatchDescReq_17:
   \   000243   7003         JNZ     $+5
   \   000245   02....       LJMP    ??ZDO_ProcessMatchDescReq_18 & 0xFFFF
   \   000248   7402         MOV     A,#0x2
   \   00024A   12....       LCALL   ?XSTACK_DISP0_8
   \   00024D   E0           MOVX    A,@DPTR
   \   00024E   F8           MOV     R0,A
   \   00024F   A3           INC     DPTR
   \   000250   E0           MOVX    A,@DPTR
   \   000251   F583         MOV     DPH,A
   \   000253   8882         MOV     DPL,R0
   \   000255   E0           MOVX    A,@DPTR
   \   000256   F8           MOV     R0,A
   \   000257   A3           INC     DPTR
   \   000258   E0           MOVX    A,@DPTR
   \   000259   F583         MOV     DPH,A
   \   00025B   8882         MOV     DPL,R0
   \   00025D   E0           MOVX    A,@DPTR
   \   00025E   60B8         JZ      ??ZDO_ProcessMatchDescReq_16
   \   000260   7402         MOV     A,#0x2
   \   000262   12....       LCALL   ?XSTACK_DISP0_8
   \   000265   E0           MOVX    A,@DPTR
   \   000266   F8           MOV     R0,A
   \   000267   A3           INC     DPTR
   \   000268   E0           MOVX    A,@DPTR
   \   000269   F583         MOV     DPH,A
   \   00026B   8882         MOV     DPL,R0
   \   00026D   A3           INC     DPTR
   \   00026E   A3           INC     DPTR
   \   00026F   E0           MOVX    A,@DPTR
   \   000270   A2E0         MOV     C,0xE0 /* A   */.0
   \   000272   50A4         JNC     ??ZDO_ProcessMatchDescReq_16
   \   000274   7402         MOV     A,#0x2
   \   000276   12....       LCALL   ?XSTACK_DISP0_8
   \   000279   E0           MOVX    A,@DPTR
   \   00027A   2403         ADD     A,#0x3
   \   00027C   F8           MOV     R0,A
   \   00027D   A3           INC     DPTR
   \   00027E   E0           MOVX    A,@DPTR
   \   00027F   3400         ADDC    A,#0x0
   \   000281   F9           MOV     R1,A
   \   000282   E8           MOV     A,R0
   \   000283   FC           MOV     R4,A
   \   000284   E9           MOV     A,R1
   \   000285   FD           MOV     R5,A
   \   000286   8C82         MOV     DPL,R4
   \   000288   8D83         MOV     DPH,R5
   \   00028A   E0           MOVX    A,@DPTR
   \   00028B   7002         JNZ     ??ZDO_ProcessMatchDescReq_19
   \   00028D   A3           INC     DPTR
   \   00028E   E0           MOVX    A,@DPTR
   \                     ??ZDO_ProcessMatchDescReq_19:
   \   00028F   6038         JZ      ??ZDO_ProcessMatchDescReq_20
   \   000291                ; Setup parameters for indirect call
   \   000291   7402         MOV     A,#0x2
   \   000293   12....       LCALL   ?XSTACK_DISP0_8
   \   000296   E0           MOVX    A,@DPTR
   \   000297   F8           MOV     R0,A
   \   000298   A3           INC     DPTR
   \   000299   E0           MOVX    A,@DPTR
   \   00029A   F583         MOV     DPH,A
   \   00029C   8882         MOV     DPL,R0
   \   00029E   E0           MOVX    A,@DPTR
   \   00029F   F8           MOV     R0,A
   \   0002A0   A3           INC     DPTR
   \   0002A1   E0           MOVX    A,@DPTR
   \   0002A2   F583         MOV     DPH,A
   \   0002A4   8882         MOV     DPL,R0
   \   0002A6   E0           MOVX    A,@DPTR
   \   0002A7   FA           MOV     R2,A
   \   0002A8   7901         MOV     R1,#0x1
   \   0002AA   8C82         MOV     DPL,R4
   \   0002AC   8D83         MOV     DPH,R5
   \   0002AE   E0           MOVX    A,@DPTR
   \   0002AF   F8           MOV     R0,A
   \   0002B0   A3           INC     DPTR
   \   0002B1   E0           MOVX    A,@DPTR
   \   0002B2   F583         MOV     DPH,A
   \   0002B4   8882         MOV     DPL,R0
   \   0002B6   12....       LCALL   ?CALL_IND
   \   0002B9   85..82       MOV     DPL,?XSP + 0
   \   0002BC   85..83       MOV     DPH,?XSP + 1
   \   0002BF   EA           MOV     A,R2
   \   0002C0   F0           MOVX    @DPTR,A
   \   0002C1   A3           INC     DPTR
   \   0002C2   EB           MOV     A,R3
   \   0002C3   F0           MOVX    @DPTR,A
   \   0002C4   75..01       MOV     ?V0 + 3,#0x1
   \   0002C7   802B         SJMP    ??ZDO_ProcessMatchDescReq_21
   \                     ??ZDO_ProcessMatchDescReq_20:
   \   0002C9   7402         MOV     A,#0x2
   \   0002CB   12....       LCALL   ?XSTACK_DISP0_8
   \   0002CE   E0           MOVX    A,@DPTR
   \   0002CF   F8           MOV     R0,A
   \   0002D0   A3           INC     DPTR
   \   0002D1   E0           MOVX    A,@DPTR
   \   0002D2   F583         MOV     DPH,A
   \   0002D4   8882         MOV     DPL,R0
   \   0002D6   E0           MOVX    A,@DPTR
   \   0002D7   F8           MOV     R0,A
   \   0002D8   A3           INC     DPTR
   \   0002D9   E0           MOVX    A,@DPTR
   \   0002DA   F583         MOV     DPH,A
   \   0002DC   8882         MOV     DPL,R0
   \   0002DE   A3           INC     DPTR
   \   0002DF   A3           INC     DPTR
   \   0002E0   A3           INC     DPTR
   \   0002E1   E0           MOVX    A,@DPTR
   \   0002E2   F8           MOV     R0,A
   \   0002E3   A3           INC     DPTR
   \   0002E4   E0           MOVX    A,@DPTR
   \   0002E5   F9           MOV     R1,A
   \   0002E6   85..82       MOV     DPL,?XSP + 0
   \   0002E9   85..83       MOV     DPH,?XSP + 1
   \   0002EC   E8           MOV     A,R0
   \   0002ED   F0           MOVX    @DPTR,A
   \   0002EE   A3           INC     DPTR
   \   0002EF   E9           MOV     A,R1
   \   0002F0   F0           MOVX    @DPTR,A
   \   0002F1   75..00       MOV     ?V0 + 3,#0x0
   \                     ??ZDO_ProcessMatchDescReq_21:
   \   0002F4   85..82       MOV     DPL,?XSP + 0
   \   0002F7   85..83       MOV     DPH,?XSP + 1
   \   0002FA   E0           MOVX    A,@DPTR
   \   0002FB   7002         JNZ     ??ZDO_ProcessMatchDescReq_22
   \   0002FD   A3           INC     DPTR
   \   0002FE   E0           MOVX    A,@DPTR
   \                     ??ZDO_ProcessMatchDescReq_22:
   \   0002FF   7003         JNZ     $+5
   \   000301   02....       LJMP    ??ZDO_ProcessMatchDescReq_15 & 0xFFFF
   \   000304   85..82       MOV     DPL,?XSP + 0
   \   000307   85..83       MOV     DPH,?XSP + 1
   \   00030A   E0           MOVX    A,@DPTR
   \   00030B   F8           MOV     R0,A
   \   00030C   A3           INC     DPTR
   \   00030D   E0           MOVX    A,@DPTR
   \   00030E   F583         MOV     DPH,A
   \   000310   8882         MOV     DPL,R0
   \   000312   A3           INC     DPTR
   \   000313   E0           MOVX    A,@DPTR
   \   000314   6E           XRL     A,R6
   \   000315   7003         JNZ     ??ZDO_ProcessMatchDescReq_23
   \   000317   A3           INC     DPTR
   \   000318   E0           MOVX    A,@DPTR
   \   000319   6F           XRL     A,R7
   \                     ??ZDO_ProcessMatchDescReq_23:
   \   00031A   6003         JZ      $+5
   \   00031C   02....       LJMP    ??ZDO_ProcessMatchDescReq_15 & 0xFFFF
   \   00031F   E5..         MOV     A,?V0 + 5
   \   000321   7007         JNZ     ??ZDO_ProcessMatchDescReq_24
   \   000323   E5..         MOV     A,?V0 + 4
   \   000325   7003         JNZ     $+5
   \   000327   02....       LJMP    ??ZDO_ProcessMatchDescReq_25 & 0xFFFF
   \                     ??ZDO_ProcessMatchDescReq_24:
   \   00032A                ; Setup parameters for call to function ZDO_AnyClusterMatches
   \   00032A   85..82       MOV     DPL,?XSP + 0
   \   00032D   85..83       MOV     DPH,?XSP + 1
   \   000330   E0           MOVX    A,@DPTR
   \   000331   F8           MOV     R0,A
   \   000332   A3           INC     DPTR
   \   000333   E0           MOVX    A,@DPTR
   \   000334   F583         MOV     DPH,A
   \   000336   8882         MOV     DPL,R0
   \   000338   A3           INC     DPTR
   \   000339   A3           INC     DPTR
   \   00033A   A3           INC     DPTR
   \   00033B   A3           INC     DPTR
   \   00033C   A3           INC     DPTR
   \   00033D   A3           INC     DPTR
   \   00033E   A3           INC     DPTR
   \   00033F   12....       LCALL   ?PUSH_XSTACK8_X_TWO
   \   000342   7402         MOV     A,#0x2
   \   000344   12....       LCALL   ?XSTACK_DISP0_8
   \   000347   E0           MOVX    A,@DPTR
   \   000348   F8           MOV     R0,A
   \   000349   A3           INC     DPTR
   \   00034A   E0           MOVX    A,@DPTR
   \   00034B   F583         MOV     DPH,A
   \   00034D   8882         MOV     DPL,R0
   \   00034F   A3           INC     DPTR
   \   000350   A3           INC     DPTR
   \   000351   A3           INC     DPTR
   \   000352   A3           INC     DPTR
   \   000353   A3           INC     DPTR
   \   000354   A3           INC     DPTR
   \   000355   E0           MOVX    A,@DPTR
   \   000356   FC           MOV     R4,A
   \   000357   740B         MOV     A,#0xb
   \   000359   12....       LCALL   ?XSTACK_DISP0_8
   \   00035C   E0           MOVX    A,@DPTR
   \   00035D   FA           MOV     R2,A
   \   00035E   A3           INC     DPTR
   \   00035F   E0           MOVX    A,@DPTR
   \   000360   FB           MOV     R3,A
   \   000361   A9..         MOV     R1,?V0 + 5
   \   000363   12....       LCALL   ??ZDO_AnyClusterMatches?relay
   \   000366   7402         MOV     A,#0x2
   \   000368   12....       LCALL   ?DEALLOC_XSTACK8
   \   00036B   E9           MOV     A,R1
   \   00036C   704D         JNZ     ??ZDO_ProcessMatchDescReq_25
   \   00036E                ; Setup parameters for call to function ZDO_AnyClusterMatches
   \   00036E   85..82       MOV     DPL,?XSP + 0
   \   000371   85..83       MOV     DPH,?XSP + 1
   \   000374   E0           MOVX    A,@DPTR
   \   000375   F8           MOV     R0,A
   \   000376   A3           INC     DPTR
   \   000377   E0           MOVX    A,@DPTR
   \   000378   F583         MOV     DPH,A
   \   00037A   8882         MOV     DPL,R0
   \   00037C   A3           INC     DPTR
   \   00037D   A3           INC     DPTR
   \   00037E   A3           INC     DPTR
   \   00037F   A3           INC     DPTR
   \   000380   A3           INC     DPTR
   \   000381   A3           INC     DPTR
   \   000382   A3           INC     DPTR
   \   000383   A3           INC     DPTR
   \   000384   A3           INC     DPTR
   \   000385   A3           INC     DPTR
   \   000386   12....       LCALL   ?PUSH_XSTACK8_X_TWO
   \   000389   7402         MOV     A,#0x2
   \   00038B   12....       LCALL   ?XSTACK_DISP0_8
   \   00038E   E0           MOVX    A,@DPTR
   \   00038F   F8           MOV     R0,A
   \   000390   A3           INC     DPTR
   \   000391   E0           MOVX    A,@DPTR
   \   000392   F583         MOV     DPH,A
   \   000394   8882         MOV     DPL,R0
   \   000396   A3           INC     DPTR
   \   000397   A3           INC     DPTR
   \   000398   A3           INC     DPTR
   \   000399   A3           INC     DPTR
   \   00039A   A3           INC     DPTR
   \   00039B   A3           INC     DPTR
   \   00039C   A3           INC     DPTR
   \   00039D   A3           INC     DPTR
   \   00039E   A3           INC     DPTR
   \   00039F   E0           MOVX    A,@DPTR
   \   0003A0   FC           MOV     R4,A
   \   0003A1   7409         MOV     A,#0x9
   \   0003A3   12....       LCALL   ?XSTACK_DISP0_8
   \   0003A6   E0           MOVX    A,@DPTR
   \   0003A7   FA           MOV     R2,A
   \   0003A8   A3           INC     DPTR
   \   0003A9   E0           MOVX    A,@DPTR
   \   0003AA   FB           MOV     R3,A
   \   0003AB   A9..         MOV     R1,?V0 + 4
   \   0003AD   12....       LCALL   ??ZDO_AnyClusterMatches?relay
   \   0003B0   7402         MOV     A,#0x2
   \   0003B2   12....       LCALL   ?DEALLOC_XSTACK8
   \   0003B5   E9           MOV     A,R1
   \   0003B6   7003         JNZ     $+5
   \   0003B8   02....       LJMP    ??ZDO_ProcessMatchDescReq_15 & 0xFFFF
   \                     ??ZDO_ProcessMatchDescReq_25:
   \   0003BB                ; Setup parameters for call to function osal_msg_allocate
   \   0003BB   E5..         MOV     A,?V0 + 5
   \   0003BD   25..         ADD     A,?V0 + 4
   \   0003BF   C3           CLR     C
   \   0003C0   33           RLC     A
   \   0003C1   240A         ADD     A,#0xa
   \   0003C3   FA           MOV     R2,A
   \   0003C4   7B00         MOV     R3,#0x0
   \   0003C6   12....       LCALL   ??osal_msg_allocate?relay
   \   0003C9   8A..         MOV     ?V0 + 6,R2
   \   0003CB   8B..         MOV     ?V0 + 7,R3
   \   0003CD   EA           MOV     A,R2
   \   0003CE   7001         JNZ     ??ZDO_ProcessMatchDescReq_26
   \   0003D0   EB           MOV     A,R3
   \                     ??ZDO_ProcessMatchDescReq_26:
   \   0003D1   7003         JNZ     $+5
   \   0003D3   02....       LJMP    ??ZDO_ProcessMatchDescReq_14 & 0xFFFF
   \   0003D6   74D2         MOV     A,#-0x2e
   \   0003D8   8A82         MOV     DPL,R2
   \   0003DA   8B83         MOV     DPH,R3
   \   0003DC   F0           MOVX    @DPTR,A
   \   0003DD   7405         MOV     A,#0x5
   \   0003DF   12....       LCALL   ?XSTACK_DISP0_8
   \   0003E2   E0           MOVX    A,@DPTR
   \   0003E3   F8           MOV     R0,A
   \   0003E4   A3           INC     DPTR
   \   0003E5   E0           MOVX    A,@DPTR
   \   0003E6   F583         MOV     DPH,A
   \   0003E8   8882         MOV     DPL,R0
   \   0003EA   A3           INC     DPTR
   \   0003EB   A3           INC     DPTR
   \   0003EC   E0           MOVX    A,@DPTR
   \   0003ED   F8           MOV     R0,A
   \   0003EE   A3           INC     DPTR
   \   0003EF   E0           MOVX    A,@DPTR
   \   0003F0   F9           MOV     R1,A
   \   0003F1   8A82         MOV     DPL,R2
   \   0003F3   8B83         MOV     DPH,R3
   \   0003F5   A3           INC     DPTR
   \   0003F6   A3           INC     DPTR
   \   0003F7   E8           MOV     A,R0
   \   0003F8   F0           MOVX    @DPTR,A
   \   0003F9   A3           INC     DPTR
   \   0003FA   E9           MOV     A,R1
   \   0003FB   F0           MOVX    @DPTR,A
   \   0003FC   8A82         MOV     DPL,R2
   \   0003FE   8B83         MOV     DPH,R3
   \   000400   A3           INC     DPTR
   \   000401   A3           INC     DPTR
   \   000402   A3           INC     DPTR
   \   000403   A3           INC     DPTR
   \   000404   E5..         MOV     A,?V0 + 5
   \   000406   F0           MOVX    @DPTR,A
   \   000407   8A82         MOV     DPL,R2
   \   000409   8B83         MOV     DPH,R3
   \   00040B   A3           INC     DPTR
   \   00040C   A3           INC     DPTR
   \   00040D   A3           INC     DPTR
   \   00040E   A3           INC     DPTR
   \   00040F   A3           INC     DPTR
   \   000410   A3           INC     DPTR
   \   000411   A3           INC     DPTR
   \   000412   E5..         MOV     A,?V0 + 4
   \   000414   F0           MOVX    @DPTR,A
   \   000415   EA           MOV     A,R2
   \   000416   2405         ADD     A,#0x5
   \   000418   FA           MOV     R2,A
   \   000419   EB           MOV     A,R3
   \   00041A   3400         ADDC    A,#0x0
   \   00041C   FB           MOV     R3,A
   \   00041D   E5..         MOV     A,?V0 + 5
   \   00041F   6042         JZ      ??ZDO_ProcessMatchDescReq_27
   \   000421   E5..         MOV     A,?V0 + 6
   \   000423   240A         ADD     A,#0xa
   \   000425   F8           MOV     R0,A
   \   000426   E5..         MOV     A,?V0 + 7
   \   000428   3400         ADDC    A,#0x0
   \   00042A   F9           MOV     R1,A
   \   00042B   8A82         MOV     DPL,R2
   \   00042D   8B83         MOV     DPH,R3
   \   00042F   E8           MOV     A,R0
   \   000430   F0           MOVX    @DPTR,A
   \   000431   A3           INC     DPTR
   \   000432   E9           MOV     A,R1
   \   000433   F0           MOVX    @DPTR,A
   \   000434                ; Setup parameters for call to function osal_memcpy
   \   000434   7409         MOV     A,#0x9
   \   000436   12....       LCALL   ?XSTACK_DISP0_8
   \   000439   E0           MOVX    A,@DPTR
   \   00043A   F5..         MOV     ?V0 + 0,A
   \   00043C   A3           INC     DPTR
   \   00043D   E0           MOVX    A,@DPTR
   \   00043E   F5..         MOV     ?V0 + 1,A
   \   000440   75..00       MOV     ?V0 + 2,#0x0
   \   000443   78..         MOV     R0,#?V0 + 0
   \   000445   12....       LCALL   ?PUSH_XSTACK_I_THREE
   \   000448   E5..         MOV     A,?V0 + 5
   \   00044A   C3           CLR     C
   \   00044B   33           RLC     A
   \   00044C   FC           MOV     R4,A
   \   00044D   E4           CLR     A
   \   00044E   33           RLC     A
   \   00044F   FD           MOV     R5,A
   \   000450   8A82         MOV     DPL,R2
   \   000452   8B83         MOV     DPH,R3
   \   000454   E0           MOVX    A,@DPTR
   \   000455   FA           MOV     R2,A
   \   000456   A3           INC     DPTR
   \   000457   E0           MOVX    A,@DPTR
   \   000458   FB           MOV     R3,A
   \   000459   12....       LCALL   ??osal_memcpy?relay
   \   00045C   7403         MOV     A,#0x3
   \   00045E   12....       LCALL   ?DEALLOC_XSTACK8
   \   000461   8008         SJMP    ??ZDO_ProcessMatchDescReq_28
   \                     ??ZDO_ProcessMatchDescReq_27:
   \   000463   8A82         MOV     DPL,R2
   \   000465   8B83         MOV     DPH,R3
   \   000467   E4           CLR     A
   \   000468   F0           MOVX    @DPTR,A
   \   000469   A3           INC     DPTR
   \   00046A   F0           MOVX    @DPTR,A
   \                     ??ZDO_ProcessMatchDescReq_28:
   \   00046B   E5..         MOV     A,?V0 + 6
   \   00046D   2408         ADD     A,#0x8
   \   00046F   FA           MOV     R2,A
   \   000470   E5..         MOV     A,?V0 + 7
   \   000472   3400         ADDC    A,#0x0
   \   000474   FB           MOV     R3,A
   \   000475   E5..         MOV     A,?V0 + 4
   \   000477   7003         JNZ     $+5
   \   000479   02....       LJMP    ??ZDO_ProcessMatchDescReq_12 & 0xFFFF
   \   00047C   E5..         MOV     A,?V0 + 5
   \   00047E   C3           CLR     C
   \   00047F   33           RLC     A
   \   000480   F8           MOV     R0,A
   \   000481   E4           CLR     A
   \   000482   33           RLC     A
   \   000483   F9           MOV     R1,A
   \   000484   E5..         MOV     A,?V0 + 6
   \   000486   28           ADD     A,R0
   \   000487   F8           MOV     R0,A
   \   000488   E5..         MOV     A,?V0 + 7
   \   00048A   39           ADDC    A,R1
   \   00048B   F9           MOV     R1,A
   \   00048C   740A         MOV     A,#0xa
   \   00048E   28           ADD     A,R0
   \   00048F   F8           MOV     R0,A
   \   000490   E4           CLR     A
   \   000491   39           ADDC    A,R1
   \   000492   F9           MOV     R1,A
   \   000493   8A82         MOV     DPL,R2
   \   000495   8B83         MOV     DPH,R3
   \   000497   E8           MOV     A,R0
   \   000498   F0           MOVX    @DPTR,A
   \   000499   A3           INC     DPTR
   \   00049A   E9           MOV     A,R1
   \   00049B   F0           MOVX    @DPTR,A
   \   00049C                ; Setup parameters for call to function osal_memcpy
   \   00049C   7407         MOV     A,#0x7
   \   00049E   12....       LCALL   ?XSTACK_DISP0_8
   \   0004A1   E0           MOVX    A,@DPTR
   \   0004A2   F5..         MOV     ?V0 + 0,A
   \   0004A4   A3           INC     DPTR
   \   0004A5   E0           MOVX    A,@DPTR
   \   0004A6   F5..         MOV     ?V0 + 1,A
   \   0004A8   75..00       MOV     ?V0 + 2,#0x0
   \   0004AB   78..         MOV     R0,#?V0 + 0
   \   0004AD   12....       LCALL   ?PUSH_XSTACK_I_THREE
   \   0004B0   E5..         MOV     A,?V0 + 4
   \   0004B2   C3           CLR     C
   \   0004B3   33           RLC     A
   \   0004B4   FC           MOV     R4,A
   \   0004B5   E4           CLR     A
   \   0004B6   33           RLC     A
   \   0004B7   FD           MOV     R5,A
   \   0004B8   8A82         MOV     DPL,R2
   \   0004BA   8B83         MOV     DPH,R3
   \   0004BC   E0           MOVX    A,@DPTR
   \   0004BD   FA           MOV     R2,A
   \   0004BE   A3           INC     DPTR
   \   0004BF   E0           MOVX    A,@DPTR
   \   0004C0   FB           MOV     R3,A
   \   0004C1   12....       LCALL   ??osal_memcpy?relay
   \   0004C4   7403         MOV     A,#0x3
   \   0004C6   12....       LCALL   ?DEALLOC_XSTACK8
   \   0004C9   02....       LJMP    ??ZDO_ProcessMatchDescReq_13 & 0xFFFF
    853            }
    854          
    855            // Send the message only if at least one match found.
    856            if ( epCnt )
   \                     ??ZDO_ProcessMatchDescReq_18:
   \   0004CC   7404         MOV     A,#0x4
   \   0004CE   12....       LCALL   ?XSTACK_DISP0_8
   \   0004D1   E0           MOVX    A,@DPTR
   \   0004D2   6077         JZ      ??ZDO_ProcessMatchDescReq_29
    857            {
    858              if ( ZSuccess == ZDP_MatchDescRsp( inMsg->TransSeq, &(inMsg->srcAddr), ZDP_SUCCESS,
    859                        ZDAppNwkAddr.addr.shortAddr, epCnt, (uint8 *)ZDOBuildBuf, inMsg->SecurityUse ) )
   \   0004D4                ; Setup parameters for call to function ZDP_EPRsp
   \   0004D4   7405         MOV     A,#0x5
   \   0004D6   12....       LCALL   ?XSTACK_DISP0_8
   \   0004D9   E0           MOVX    A,@DPTR
   \   0004DA   240E         ADD     A,#0xe
   \   0004DC   F8           MOV     R0,A
   \   0004DD   A3           INC     DPTR
   \   0004DE   E0           MOVX    A,@DPTR
   \   0004DF   3400         ADDC    A,#0x0
   \   0004E1   F9           MOV     R1,A
   \   0004E2   8882         MOV     DPL,R0
   \   0004E4   8983         MOV     DPH,R1
   \   0004E6   E0           MOVX    A,@DPTR
   \   0004E7   F5..         MOV     ?V0 + 0,A
   \   0004E9   78..         MOV     R0,#?V0 + 0
   \   0004EB   12....       LCALL   ?PUSH_XSTACK_I_ONE
   \   0004EE   75....       MOV     ?V0 + 0,#(ZDOBuildBuf & 0xff)
   \   0004F1   75....       MOV     ?V0 + 1,#((ZDOBuildBuf >> 8) & 0xff)
   \   0004F4   78..         MOV     R0,#?V0 + 0
   \   0004F6   12....       LCALL   ?PUSH_XSTACK_I_TWO
   \   0004F9   7407         MOV     A,#0x7
   \   0004FB   12....       LCALL   ?XSTACK_DISP0_8
   \   0004FE   E0           MOVX    A,@DPTR
   \   0004FF   F5..         MOV     ?V0 + 0,A
   \   000501   78..         MOV     R0,#?V0 + 0
   \   000503   12....       LCALL   ?PUSH_XSTACK_I_ONE
   \   000506   90....       MOV     DPTR,#ZDAppNwkAddr
   \   000509   12....       LCALL   ?PUSH_XSTACK8_X_TWO
   \   00050C   75..00       MOV     ?V0 + 0,#0x0
   \   00050F   78..         MOV     R0,#?V0 + 0
   \   000511   12....       LCALL   ?PUSH_XSTACK_I_ONE
   \   000514   740C         MOV     A,#0xc
   \   000516   12....       LCALL   ?XSTACK_DISP0_8
   \   000519   E0           MOVX    A,@DPTR
   \   00051A   2402         ADD     A,#0x2
   \   00051C   FC           MOV     R4,A
   \   00051D   A3           INC     DPTR
   \   00051E   E0           MOVX    A,@DPTR
   \   00051F   3400         ADDC    A,#0x0
   \   000521   FD           MOV     R5,A
   \   000522   740C         MOV     A,#0xc
   \   000524   12....       LCALL   ?XSTACK_DISP0_8
   \   000527   E0           MOVX    A,@DPTR
   \   000528   240F         ADD     A,#0xf
   \   00052A   F8           MOV     R0,A
   \   00052B   A3           INC     DPTR
   \   00052C   E0           MOVX    A,@DPTR
   \   00052D   3400         ADDC    A,#0x0
   \   00052F   F9           MOV     R1,A
   \   000530   8882         MOV     DPL,R0
   \   000532   8983         MOV     DPH,R1
   \   000534   E0           MOVX    A,@DPTR
   \   000535   F9           MOV     R1,A
   \   000536   7A06         MOV     R2,#0x6
   \   000538   7B80         MOV     R3,#-0x80
   \   00053A   12....       LCALL   ??ZDP_EPRsp?relay
   \   00053D   7407         MOV     A,#0x7
   \   00053F   12....       LCALL   ?DEALLOC_XSTACK8
   \   000542   E9           MOV     A,R1
   \   000543   7011         JNZ     ??ZDO_ProcessMatchDescReq_30
    860              {
    861          #if defined( LCD_SUPPORTED )
    862                HalLcdWriteScreen( "Match Desc Req", "Rsp Sent" );
   \   000545                ; Setup parameters for call to function HalLcdWriteScreen
   \   000545   7C..         MOV     R4,#(`?<Constant "Rsp Sent">` & 0xff)
   \   000547   7D..         MOV     R5,#((`?<Constant "Rsp Sent">` >> 8) & 0xff)
   \   000549   8004         SJMP    ??ZDO_ProcessMatchDescReq_31
    863          #endif
    864              }
    865            }
    866            else
    867            {
    868          #if defined( LCD_SUPPORTED )
    869              HalLcdWriteScreen( "Match Desc Req", "Non Matched" );
   \                     ??ZDO_ProcessMatchDescReq_29:
   \   00054B                ; Setup parameters for call to function HalLcdWriteScreen
   \   00054B   7C..         MOV     R4,#(`?<Constant "Non Matched">` & 0xff)
   \   00054D   7D..         MOV     R5,#((`?<Constant "Non Matched">` >> 8) & 0xff)
   \                     ??ZDO_ProcessMatchDescReq_31:
   \   00054F   7A..         MOV     R2,#(`?<Constant "Match Desc Req">` & 0xff)
   \   000551   7B..         MOV     R3,#((`?<Constant "Match Desc Req">` >> 8) & 0xff)
   \   000553   12....       LCALL   ??HalLcdWriteScreen?relay
    870          #endif
    871            }
    872          
    873            if ( inClusters != NULL )
   \                     ??ZDO_ProcessMatchDescReq_30:
   \   000556   7409         MOV     A,#0x9
   \   000558   12....       LCALL   ?XSTACK_DISP0_8
   \   00055B   E0           MOVX    A,@DPTR
   \   00055C   7002         JNZ     ??ZDO_ProcessMatchDescReq_32
   \   00055E   A3           INC     DPTR
   \   00055F   E0           MOVX    A,@DPTR
   \                     ??ZDO_ProcessMatchDescReq_32:
   \   000560   600D         JZ      ??ZDO_ProcessMatchDescReq_33
    874              osal_mem_free( inClusters );
   \   000562                ; Setup parameters for call to function osal_mem_free
   \   000562   7409         MOV     A,#0x9
   \   000564   12....       LCALL   ?XSTACK_DISP0_8
   \   000567   E0           MOVX    A,@DPTR
   \   000568   FA           MOV     R2,A
   \   000569   A3           INC     DPTR
   \   00056A   E0           MOVX    A,@DPTR
   \   00056B   FB           MOV     R3,A
   \   00056C   12....       LCALL   ??osal_mem_free?relay
    875            if ( outClusters != NULL )
   \                     ??ZDO_ProcessMatchDescReq_33:
   \   00056F   7407         MOV     A,#0x7
   \   000571   12....       LCALL   ?XSTACK_DISP0_8
   \   000574   E0           MOVX    A,@DPTR
   \   000575   7002         JNZ     ??ZDO_ProcessMatchDescReq_34
   \   000577   A3           INC     DPTR
   \   000578   E0           MOVX    A,@DPTR
   \                     ??ZDO_ProcessMatchDescReq_34:
   \   000579   600D         JZ      ??ZDO_ProcessMatchDescReq_2
    876              osal_mem_free( outClusters );
   \   00057B                ; Setup parameters for call to function osal_mem_free
   \   00057B   7407         MOV     A,#0x7
   \   00057D   12....       LCALL   ?XSTACK_DISP0_8
   \   000580   E0           MOVX    A,@DPTR
   \   000581   FA           MOV     R2,A
   \   000582   A3           INC     DPTR
   \   000583   E0           MOVX    A,@DPTR
   \   000584   FB           MOV     R3,A
   \   000585   12....       LCALL   ??osal_mem_free?relay
   \                     ??ZDO_ProcessMatchDescReq_2:
   \   000588   740B         MOV     A,#0xb
   \   00058A   12....       LCALL   ?DEALLOC_XSTACK8
   \   00058D   7F08         MOV     R7,#0x8
   \   00058F   02....       LJMP    ?BANKED_LEAVE_XDATA
    877          }
    878          
    879          
    880          /*********************************************************************
    881           * @fn      ZDO_ProcessBindUnbindReq()
    882           *
    883           * @brief   Called to process a Bind or Unbind Request message.
    884           *
    885           * @param   inMsg  - incoming message (request)
    886           * @param   pReq - place to put parsed information
    887           *
    888           * @return  none
    889           */

   \                                 In  segment BANKED_CODE, align 1, keep-with-next
    890          void ZDO_ProcessBindUnbindReq( zdoIncomingMsg_t *inMsg, ZDO_BindUnbindReq_t *pReq )
   \                     ZDO_ProcessBindUnbindReq:
    891          {
   \   000000   74F0         MOV     A,#-0x10
   \   000002   12....       LCALL   ?BANKED_ENTER_XDATA
   \   000005                ; Saved register size: 16
   \   000005                ; Auto size: 12
   \   000005   74F4         MOV     A,#-0xc
   \   000007   12....       LCALL   ?ALLOC_XSTACK8
   \   00000A   8A..         MOV     ?V0 + 6,R2
   \   00000C   8B..         MOV     ?V0 + 7,R3
   \   00000E   EC           MOV     A,R4
   \   00000F   FE           MOV     R6,A
   \   000010   ED           MOV     A,R5
   \   000011   FF           MOV     R7,A
    892            zAddrType_t SourceAddr;       // Binding Source addres
    893            byte bindStat;
    894          
    895            SourceAddr.addrMode = Addr64Bit;
   \   000012   7403         MOV     A,#0x3
   \   000014   C0E0         PUSH    A
   \   000016   740B         MOV     A,#0xb
   \   000018   12....       LCALL   ?XSTACK_DISP0_8
   \   00001B   D0E0         POP     A
   \   00001D   F0           MOVX    @DPTR,A
    896            osal_cpyExtAddr( SourceAddr.addr.extAddr, pReq->srcAddress );
   \   00001E                ; Setup parameters for call to function sAddrExtCpy
   \   00001E   7403         MOV     A,#0x3
   \   000020   12....       LCALL   ?XSTACK_DISP0_8
   \   000023   AA82         MOV     R2,DPL
   \   000025   AB83         MOV     R3,DPH
   \   000027   12....       LCALL   ??sAddrExtCpy?relay
    897          
    898          
    899            // If the local device is not the primary binding cache
    900            // check the src address of the bind request.
    901            // If it is not the local device's extended address
    902            // discard the request.
    903            if ( !osal_ExtAddrEqual( SourceAddr.addr.extAddr, NLME_GetExtAddr()) ||
    904                  (pReq->dstAddress.addrMode != Addr64Bit &&
    905                   pReq->dstAddress.addrMode != AddrGroup) )
   \   00002A                ; Setup parameters for call to function sAddrExtCmp
   \   00002A                ; Setup parameters for call to function NLME_GetExtAddr
   \   00002A   12....       LCALL   ??NLME_GetExtAddr?relay
   \   00002D   EA           MOV     A,R2
   \   00002E   FC           MOV     R4,A
   \   00002F   EB           MOV     A,R3
   \   000030   FD           MOV     R5,A
   \   000031   7403         MOV     A,#0x3
   \   000033   12....       LCALL   ?XSTACK_DISP0_8
   \   000036   AA82         MOV     R2,DPL
   \   000038   AB83         MOV     R3,DPH
   \   00003A   12....       LCALL   ??sAddrExtCmp?relay
   \   00003D   E9           MOV     A,R1
   \   00003E   6019         JZ      ??ZDO_ProcessBindUnbindReq_0
   \   000040   EE           MOV     A,R6
   \   000041   2413         ADD     A,#0x13
   \   000043   F5..         MOV     ?V0 + 2,A
   \   000045   EF           MOV     A,R7
   \   000046   3400         ADDC    A,#0x0
   \   000048   F5..         MOV     ?V0 + 3,A
   \   00004A   85..82       MOV     DPL,?V0 + 2
   \   00004D   F583         MOV     DPH,A
   \   00004F   E0           MOVX    A,@DPTR
   \   000050   6403         XRL     A,#0x3
   \   000052   600A         JZ      ??ZDO_ProcessBindUnbindReq_1
   \   000054   E0           MOVX    A,@DPTR
   \   000055   6401         XRL     A,#0x1
   \   000057   6005         JZ      ??ZDO_ProcessBindUnbindReq_1
    906            {
    907              bindStat = ZDP_NOT_SUPPORTED;
   \                     ??ZDO_ProcessBindUnbindReq_0:
   \   000059   7484         MOV     A,#-0x7c
   \   00005B   02....       LJMP    ??ZDO_ProcessBindUnbindReq_2 & 0xFFFF
    908            }
    909            else
    910            {
    911              // Check source & destination endpoints
    912              if ( (pReq->srcEndpoint == 0 || pReq->srcEndpoint > MAX_ENDPOINTS)
    913                  || (( pReq->dstAddress.addrMode == Addr64Bit ) &&
    914                      (pReq->dstEndpoint == 0 || pReq->dstEndpoint > MAX_ENDPOINTS)) )
   \                     ??ZDO_ProcessBindUnbindReq_1:
   \   00005E   EE           MOV     A,R6
   \   00005F   2408         ADD     A,#0x8
   \   000061   F5..         MOV     ?V0 + 0,A
   \   000063   EF           MOV     A,R7
   \   000064   3400         ADDC    A,#0x0
   \   000066   F5..         MOV     ?V0 + 1,A
   \   000068   85..82       MOV     DPL,?V0 + 0
   \   00006B   F583         MOV     DPH,A
   \   00006D   E0           MOVX    A,@DPTR
   \   00006E   6024         JZ      ??ZDO_ProcessBindUnbindReq_3
   \   000070   E0           MOVX    A,@DPTR
   \   000071   C3           CLR     C
   \   000072   94F1         SUBB    A,#-0xf
   \   000074   501E         JNC     ??ZDO_ProcessBindUnbindReq_3
   \   000076   85..82       MOV     DPL,?V0 + 2
   \   000079   85..83       MOV     DPH,?V0 + 3
   \   00007C   E0           MOVX    A,@DPTR
   \   00007D   6403         XRL     A,#0x3
   \   00007F   7018         JNZ     ??ZDO_ProcessBindUnbindReq_4
   \   000081   EE           MOV     A,R6
   \   000082   2414         ADD     A,#0x14
   \   000084   F582         MOV     DPL,A
   \   000086   EF           MOV     A,R7
   \   000087   3400         ADDC    A,#0x0
   \   000089   F583         MOV     DPH,A
   \   00008B   E0           MOVX    A,@DPTR
   \   00008C   6006         JZ      ??ZDO_ProcessBindUnbindReq_3
   \   00008E   E0           MOVX    A,@DPTR
   \   00008F   C3           CLR     C
   \   000090   94F1         SUBB    A,#-0xf
   \   000092   4005         JC      ??ZDO_ProcessBindUnbindReq_4
    915              {
    916                bindStat = ZDP_INVALID_EP;
   \                     ??ZDO_ProcessBindUnbindReq_3:
   \   000094   7482         MOV     A,#-0x7e
   \   000096   02....       LJMP    ??ZDO_ProcessBindUnbindReq_2 & 0xFFFF
    917              }
    918              else
    919              {
    920                if ( inMsg->clusterID == Bind_req )
   \                     ??ZDO_ProcessBindUnbindReq_4:
   \   000099   E5..         MOV     A,?V0 + 6
   \   00009B   240C         ADD     A,#0xc
   \   00009D   F582         MOV     DPL,A
   \   00009F   E5..         MOV     A,?V0 + 7
   \   0000A1   3400         ADDC    A,#0x0
   \   0000A3   F583         MOV     DPH,A
   \   0000A5   E0           MOVX    A,@DPTR
   \   0000A6   6421         XRL     A,#0x21
   \   0000A8   7002         JNZ     ??ZDO_ProcessBindUnbindReq_5
   \   0000AA   A3           INC     DPTR
   \   0000AB   E0           MOVX    A,@DPTR
   \                     ??ZDO_ProcessBindUnbindReq_5:
   \   0000AC   6003         JZ      $+5
   \   0000AE   02....       LJMP    ??ZDO_ProcessBindUnbindReq_6 & 0xFFFF
    921                {
    922                  // Assume the table is full
    923                  bindStat = ZDP_TABLE_FULL;
   \   0000B1   7487         MOV     A,#-0x79
   \   0000B3   85..82       MOV     DPL,?XSP + 0
   \   0000B6   85..83       MOV     DPH,?XSP + 1
   \   0000B9   F0           MOVX    @DPTR,A
    924          
    925                  if ( bindNumOfEntries() < gNWK_MAX_BINDING_ENTRIES )
   \   0000BA                ; Setup parameters for call to function bindNumOfEntries
   \   0000BA   12....       LCALL   ??bindNumOfEntries?relay
   \   0000BD   90....       MOV     DPTR,#gNWK_MAX_BINDING_ENTRIES
   \   0000C0   E4           CLR     A
   \   0000C1   93           MOVC    A,@A+DPTR
   \   0000C2   F8           MOV     R0,A
   \   0000C3   7401         MOV     A,#0x1
   \   0000C5   93           MOVC    A,@A+DPTR
   \   0000C6   F9           MOV     R1,A
   \   0000C7   C3           CLR     C
   \   0000C8   EA           MOV     A,R2
   \   0000C9   98           SUBB    A,R0
   \   0000CA   EB           MOV     A,R3
   \   0000CB   99           SUBB    A,R1
   \   0000CC   4003         JC      $+5
   \   0000CE   02....       LJMP    ??ZDO_ProcessBindUnbindReq_7 & 0xFFFF
   \   0000D1                ; Setup parameters for call to function APSME_BindRequest
   \   0000D1   EE           MOV     A,R6
   \   0000D2   2414         ADD     A,#0x14
   \   0000D4   F582         MOV     DPL,A
   \   0000D6   EF           MOV     A,R7
   \   0000D7   3400         ADDC    A,#0x0
   \   0000D9   F583         MOV     DPH,A
   \   0000DB   E0           MOVX    A,@DPTR
   \   0000DC   F5..         MOV     ?V0 + 4,A
   \   0000DE   78..         MOV     R0,#?V0 + 4
   \   0000E0   12....       LCALL   ?PUSH_XSTACK_I_ONE
   \   0000E3   EE           MOV     A,R6
   \   0000E4   240B         ADD     A,#0xb
   \   0000E6   FC           MOV     R4,A
   \   0000E7   EF           MOV     A,R7
   \   0000E8   3400         ADDC    A,#0x0
   \   0000EA   FD           MOV     R5,A
   \   0000EB   8E82         MOV     DPL,R6
   \   0000ED   8F83         MOV     DPH,R7
   \   0000EF   A3           INC     DPTR
   \   0000F0   A3           INC     DPTR
   \   0000F1   A3           INC     DPTR
   \   0000F2   A3           INC     DPTR
   \   0000F3   A3           INC     DPTR
   \   0000F4   A3           INC     DPTR
   \   0000F5   A3           INC     DPTR
   \   0000F6   A3           INC     DPTR
   \   0000F7   A3           INC     DPTR
   \   0000F8   E0           MOVX    A,@DPTR
   \   0000F9   FA           MOV     R2,A
   \   0000FA   A3           INC     DPTR
   \   0000FB   E0           MOVX    A,@DPTR
   \   0000FC   FB           MOV     R3,A
   \   0000FD   85..82       MOV     DPL,?V0 + 0
   \   000100   85..83       MOV     DPH,?V0 + 1
   \   000103   E0           MOVX    A,@DPTR
   \   000104   F9           MOV     R1,A
    926                  {
    927                    if ( APSME_BindRequest( pReq->srcEndpoint, pReq->clusterID,
    928                                   &(pReq->dstAddress), pReq->dstEndpoint ) == ZSuccess )
   \   000105   12....       LCALL   ??APSME_BindRequest?relay
   \   000108   7401         MOV     A,#0x1
   \   00010A   12....       LCALL   ?DEALLOC_XSTACK8
   \   00010D   E9           MOV     A,R1
   \   00010E   6003         JZ      $+5
   \   000110   02....       LJMP    ??ZDO_ProcessBindUnbindReq_7 & 0xFFFF
    929                    {
    930                      uint16 nwkAddr;
    931          
    932                      // valid entry
    933                      bindStat = ZDP_SUCCESS;
   \   000113   E4           CLR     A
   \   000114   85..82       MOV     DPL,?XSP + 0
   \   000117   85..83       MOV     DPH,?XSP + 1
   \   00011A   F0           MOVX    @DPTR,A
    934          
    935                      // Notify to save info into NV
    936                      ZDApp_NVUpdate();
   \   00011B                ; Setup parameters for call to function ZDApp_NVUpdate
   \   00011B   12....       LCALL   ??ZDApp_NVUpdate?relay
    937          
    938                      // Check for the destination address
    939                      if ( pReq->dstAddress.addrMode == Addr64Bit )
   \   00011E   85..82       MOV     DPL,?V0 + 2
   \   000121   85..83       MOV     DPH,?V0 + 3
   \   000124   E0           MOVX    A,@DPTR
   \   000125   6403         XRL     A,#0x3
   \   000127   707F         JNZ     ??ZDO_ProcessBindUnbindReq_7
    940                      {
    941                        if ( APSME_LookupNwkAddr( pReq->dstAddress.addr.extAddr, &nwkAddr ) == FALSE )
   \   000129                ; Setup parameters for call to function APSME_LookupNwkAddr
   \   000129   7401         MOV     A,#0x1
   \   00012B   12....       LCALL   ?XSTACK_DISP0_8
   \   00012E   AC82         MOV     R4,DPL
   \   000130   AD83         MOV     R5,DPH
   \   000132   EE           MOV     A,R6
   \   000133   240B         ADD     A,#0xb
   \   000135   FA           MOV     R2,A
   \   000136   EF           MOV     A,R7
   \   000137   3400         ADDC    A,#0x0
   \   000139   FB           MOV     R3,A
   \   00013A   12....       LCALL   ??APSME_LookupNwkAddr?relay
   \   00013D   E9           MOV     A,R1
   \   00013E   7068         JNZ     ??ZDO_ProcessBindUnbindReq_7
    942                        {
    943                          ZDP_NwkAddrReq( pReq->dstAddress.addr.extAddr, ZDP_ADDR_REQTYPE_SINGLE, 0, 0 );
   \   000140                ; Setup parameters for call to function ZDP_NwkAddrReq
   \   000140   7D00         MOV     R5,#0x0
   \   000142   7C00         MOV     R4,#0x0
   \   000144   7900         MOV     R1,#0x0
   \   000146   EE           MOV     A,R6
   \   000147   240B         ADD     A,#0xb
   \   000149   FA           MOV     R2,A
   \   00014A   EF           MOV     A,R7
   \   00014B   3400         ADDC    A,#0x0
   \   00014D   FB           MOV     R3,A
   \   00014E   12....       LCALL   ??ZDP_NwkAddrReq?relay
   \   000151   8055         SJMP    ??ZDO_ProcessBindUnbindReq_7
    944                        }
    945                      }
    946                    }
    947                  }
    948                }
    949                else // Unbind_req
    950                {
    951                  if ( APSME_UnBindRequest( pReq->srcEndpoint, pReq->clusterID,
    952                                 &(pReq->dstAddress), pReq->dstEndpoint ) == ZSuccess )
   \                     ??ZDO_ProcessBindUnbindReq_6:
   \   000153                ; Setup parameters for call to function APSME_UnBindRequest
   \   000153   EE           MOV     A,R6
   \   000154   2414         ADD     A,#0x14
   \   000156   F582         MOV     DPL,A
   \   000158   EF           MOV     A,R7
   \   000159   3400         ADDC    A,#0x0
   \   00015B   F583         MOV     DPH,A
   \   00015D   E0           MOVX    A,@DPTR
   \   00015E   F5..         MOV     ?V0 + 2,A
   \   000160   78..         MOV     R0,#?V0 + 2
   \   000162   12....       LCALL   ?PUSH_XSTACK_I_ONE
   \   000165   EE           MOV     A,R6
   \   000166   240B         ADD     A,#0xb
   \   000168   FC           MOV     R4,A
   \   000169   EF           MOV     A,R7
   \   00016A   3400         ADDC    A,#0x0
   \   00016C   FD           MOV     R5,A
   \   00016D   8E82         MOV     DPL,R6
   \   00016F   8F83         MOV     DPH,R7
   \   000171   A3           INC     DPTR
   \   000172   A3           INC     DPTR
   \   000173   A3           INC     DPTR
   \   000174   A3           INC     DPTR
   \   000175   A3           INC     DPTR
   \   000176   A3           INC     DPTR
   \   000177   A3           INC     DPTR
   \   000178   A3           INC     DPTR
   \   000179   A3           INC     DPTR
   \   00017A   E0           MOVX    A,@DPTR
   \   00017B   FA           MOV     R2,A
   \   00017C   A3           INC     DPTR
   \   00017D   E0           MOVX    A,@DPTR
   \   00017E   FB           MOV     R3,A
   \   00017F   85..82       MOV     DPL,?V0 + 0
   \   000182   85..83       MOV     DPH,?V0 + 1
   \   000185   E0           MOVX    A,@DPTR
   \   000186   F9           MOV     R1,A
   \   000187   12....       LCALL   ??APSME_UnBindRequest?relay
   \   00018A   7401         MOV     A,#0x1
   \   00018C   12....       LCALL   ?DEALLOC_XSTACK8
   \   00018F   E9           MOV     A,R1
   \   000190   700D         JNZ     ??ZDO_ProcessBindUnbindReq_8
    953                  {
    954                    bindStat = ZDP_SUCCESS;
   \   000192   E4           CLR     A
   \   000193   85..82       MOV     DPL,?XSP + 0
   \   000196   85..83       MOV     DPH,?XSP + 1
   \   000199   F0           MOVX    @DPTR,A
    955          
    956                    // Notify to save info into NV
    957                    ZDApp_NVUpdate();
   \   00019A                ; Setup parameters for call to function ZDApp_NVUpdate
   \   00019A   12....       LCALL   ??ZDApp_NVUpdate?relay
   \   00019D   8009         SJMP    ??ZDO_ProcessBindUnbindReq_7
    958                  }
    959                  else
    960                    bindStat = ZDP_NO_ENTRY;
   \                     ??ZDO_ProcessBindUnbindReq_8:
   \   00019F   7488         MOV     A,#-0x78
   \                     ??ZDO_ProcessBindUnbindReq_2:
   \   0001A1   85..82       MOV     DPL,?XSP + 0
   \   0001A4   85..83       MOV     DPH,?XSP + 1
   \   0001A7   F0           MOVX    @DPTR,A
    961                }
    962              }
    963            }
    964          
    965            // Send back a response message
    966            ZDP_SendData( &(inMsg->TransSeq), &(inMsg->srcAddr),
    967                         (inMsg->clusterID | ZDO_RESPONSE_BIT), 1, &bindStat,
    968                         inMsg->SecurityUse );
   \                     ??ZDO_ProcessBindUnbindReq_7:
   \   0001A8                ; Setup parameters for call to function ZDP_SendData
   \   0001A8   E5..         MOV     A,?V0 + 6
   \   0001AA   240E         ADD     A,#0xe
   \   0001AC   F582         MOV     DPL,A
   \   0001AE   E5..         MOV     A,?V0 + 7
   \   0001B0   3400         ADDC    A,#0x0
   \   0001B2   F583         MOV     DPH,A
   \   0001B4   E0           MOVX    A,@DPTR
   \   0001B5   F5..         MOV     ?V0 + 0,A
   \   0001B7   78..         MOV     R0,#?V0 + 0
   \   0001B9   12....       LCALL   ?PUSH_XSTACK_I_ONE
   \   0001BC   7401         MOV     A,#0x1
   \   0001BE   12....       LCALL   ?XSTACK_DISP0_8
   \   0001C1   8582..       MOV     ?V0 + 0,DPL
   \   0001C4   8583..       MOV     ?V0 + 1,DPH
   \   0001C7   78..         MOV     R0,#?V0 + 0
   \   0001C9   12....       LCALL   ?PUSH_XSTACK_I_TWO
   \   0001CC   E5..         MOV     A,?V0 + 6
   \   0001CE   240C         ADD     A,#0xc
   \   0001D0   F582         MOV     DPL,A
   \   0001D2   E5..         MOV     A,?V0 + 7
   \   0001D4   3400         ADDC    A,#0x0
   \   0001D6   F583         MOV     DPH,A
   \   0001D8   E0           MOVX    A,@DPTR
   \   0001D9   F5..         MOV     ?V0 + 0,A
   \   0001DB   A3           INC     DPTR
   \   0001DC   E0           MOVX    A,@DPTR
   \   0001DD   4480         ORL     A,#0x80
   \   0001DF   F5..         MOV     ?V0 + 1,A
   \   0001E1   78..         MOV     R0,#?V0 + 0
   \   0001E3   12....       LCALL   ?PUSH_XSTACK_I_TWO
   \   0001E6   7901         MOV     R1,#0x1
   \   0001E8   E5..         MOV     A,?V0 + 6
   \   0001EA   2402         ADD     A,#0x2
   \   0001EC   FC           MOV     R4,A
   \   0001ED   E5..         MOV     A,?V0 + 7
   \   0001EF   3400         ADDC    A,#0x0
   \   0001F1   FD           MOV     R5,A
   \   0001F2   E5..         MOV     A,?V0 + 6
   \   0001F4   240F         ADD     A,#0xf
   \   0001F6   FA           MOV     R2,A
   \   0001F7   E5..         MOV     A,?V0 + 7
   \   0001F9   3400         ADDC    A,#0x0
   \   0001FB   FB           MOV     R3,A
   \   0001FC   12....       LCALL   ??ZDP_SendData?relay
   \   0001FF   7405         MOV     A,#0x5
   \   000201   12....       LCALL   ?DEALLOC_XSTACK8
    969          }
   \   000204   740C         MOV     A,#0xc
   \   000206   12....       LCALL   ?DEALLOC_XSTACK8
   \   000209   7F08         MOV     R7,#0x8
   \   00020B   02....       LJMP    ?BANKED_LEAVE_XDATA
    970          
    971          /*********************************************************************
    972           * @fn      ZDO_UpdateAddrManager
    973           *
    974           * @brief   Update the Address Manager.
    975           *
    976           * @param   nwkAddr - network address
    977           * @param   extAddr - extended address
    978           *
    979           * @return  none
    980           */

   \                                 In  segment BANKED_CODE, align 1, keep-with-next
    981          void ZDO_UpdateAddrManager( uint16 nwkAddr, uint8 *extAddr )
   \                     ZDO_UpdateAddrManager:
    982          {
   \   000000   C082         PUSH    DPL
   \   000002   C083         PUSH    DPH
   \   000004                ; Saved register size: 2
   \   000004                ; Auto size: 13
   \   000004   74F3         MOV     A,#-0xd
   \   000006   12....       LCALL   ?ALLOC_XSTACK8
    983            AddrMgrEntry_t addrEntry;
    984          
    985            // Update the address manager
    986            addrEntry.user = ADDRMGR_USER_DEFAULT;
   \   000009   E4           CLR     A
   \   00000A   85..82       MOV     DPL,?XSP + 0
   \   00000D   85..83       MOV     DPH,?XSP + 1
   \   000010   F0           MOVX    @DPTR,A
    987            addrEntry.nwkAddr = nwkAddr;
   \   000011   7401         MOV     A,#0x1
   \   000013   12....       LCALL   ?XSTACK_DISP0_8
   \   000016   EA           MOV     A,R2
   \   000017   F0           MOVX    @DPTR,A
   \   000018   A3           INC     DPTR
   \   000019   EB           MOV     A,R3
   \   00001A   F0           MOVX    @DPTR,A
    988            AddrMgrExtAddrSet( addrEntry.extAddr, extAddr );
   \   00001B                ; Setup parameters for call to function AddrMgrExtAddrSet
   \   00001B   7403         MOV     A,#0x3
   \   00001D   12....       LCALL   ?XSTACK_DISP0_8
   \   000020   AA82         MOV     R2,DPL
   \   000022   AB83         MOV     R3,DPH
   \   000024   12....       LCALL   ??AddrMgrExtAddrSet?relay
    989            AddrMgrEntryUpdate( &addrEntry );
   \   000027                ; Setup parameters for call to function AddrMgrEntryUpdate
   \   000027   85..82       MOV     DPL,?XSP + 0
   \   00002A   85..83       MOV     DPH,?XSP + 1
   \   00002D   AA82         MOV     R2,DPL
   \   00002F   AB83         MOV     R3,DPH
   \   000031   12....       LCALL   ??AddrMgrEntryUpdate?relay
    990          }
   \   000034   740D         MOV     A,#0xd
   \   000036   12....       LCALL   ?DEALLOC_XSTACK8
   \   000039   D083         POP     DPH
   \   00003B   D082         POP     DPL
   \   00003D   02....       LJMP    ?BRET
    991          
    992          /*********************************************************************
    993           * @fn      ZDO_ProcessServerDiscReq
    994           *
    995           * @brief   Process the Server_Discovery_req message.
    996           *
    997           * @param   inMsg  - incoming message (request)
    998           *
    999           * @return  none
   1000           */

   \                                 In  segment BANKED_CODE, align 1, keep-with-next
   1001          void ZDO_ProcessServerDiscReq( zdoIncomingMsg_t *inMsg )
   \                     ZDO_ProcessServerDiscReq:
   1002          {
   \   000000   74F6         MOV     A,#-0xa
   \   000002   12....       LCALL   ?BANKED_ENTER_XDATA
   \   000005                ; Saved register size: 10
   \   000005                ; Auto size: 0
   \   000005   EA           MOV     A,R2
   \   000006   FE           MOV     R6,A
   \   000007   EB           MOV     A,R3
   \   000008   FF           MOV     R7,A
   1003            uint16 serverMask = BUILD_UINT16( inMsg->asdu[0], inMsg->asdu[1] );
   1004            uint16 matchMask = serverMask & ZDO_Config_Node_Descriptor.ServerMask;
   \   000009   EE           MOV     A,R6
   \   00000A   2413         ADD     A,#0x13
   \   00000C   F8           MOV     R0,A
   \   00000D   EF           MOV     A,R7
   \   00000E   3400         ADDC    A,#0x0
   \   000010   F9           MOV     R1,A
   \   000011   8882         MOV     DPL,R0
   \   000013   8983         MOV     DPH,R1
   \   000015   E0           MOVX    A,@DPTR
   \   000016   FA           MOV     R2,A
   \   000017   A3           INC     DPTR
   \   000018   E0           MOVX    A,@DPTR
   \   000019   F583         MOV     DPH,A
   \   00001B   8A82         MOV     DPL,R2
   \   00001D   E0           MOVX    A,@DPTR
   \   00001E   FA           MOV     R2,A
   \   00001F   8882         MOV     DPL,R0
   \   000021   8983         MOV     DPH,R1
   \   000023   E0           MOVX    A,@DPTR
   \   000024   F8           MOV     R0,A
   \   000025   A3           INC     DPTR
   \   000026   E0           MOVX    A,@DPTR
   \   000027   F583         MOV     DPH,A
   \   000029   8882         MOV     DPL,R0
   \   00002B   A3           INC     DPTR
   \   00002C   E0           MOVX    A,@DPTR
   \   00002D   F9           MOV     R1,A
   \   00002E   EA           MOV     A,R2
   \   00002F   F8           MOV     R0,A
   \   000030   90....       MOV     DPTR,#(ZDO_Config_Node_Descriptor + 8)
   \   000033   E0           MOVX    A,@DPTR
   \   000034   58           ANL     A,R0
   \   000035   F5..         MOV     ?V0 + 0,A
   \   000037   A3           INC     DPTR
   \   000038   E0           MOVX    A,@DPTR
   \   000039   59           ANL     A,R1
   \   00003A   F5..         MOV     ?V0 + 1,A
   1005          
   1006            if ( matchMask )
   \   00003C   E5..         MOV     A,?V0 + 0
   \   00003E   7002         JNZ     ??ZDO_ProcessServerDiscReq_0
   \   000040   E5..         MOV     A,?V0 + 1
   \                     ??ZDO_ProcessServerDiscReq_0:
   \   000042   6035         JZ      ??ZDO_ProcessServerDiscReq_1
   1007            {
   1008              ZDP_ServerDiscRsp( inMsg->TransSeq, &(inMsg->srcAddr), ZSUCCESS,
   1009                          ZDAppNwkAddr.addr.shortAddr, matchMask, inMsg->SecurityUse );
   \   000044                ; Setup parameters for call to function ZDP_ServerDiscRsp
   \   000044   78..         MOV     R0,#?V0 + 0
   \   000046   12....       LCALL   ?PUSH_XSTACK_I_TWO
   \   000049   90....       MOV     DPTR,#ZDAppNwkAddr
   \   00004C   12....       LCALL   ?PUSH_XSTACK8_X_TWO
   \   00004F   EE           MOV     A,R6
   \   000050   240E         ADD     A,#0xe
   \   000052   F582         MOV     DPL,A
   \   000054   EF           MOV     A,R7
   \   000055   3400         ADDC    A,#0x0
   \   000057   F583         MOV     DPH,A
   \   000059   E0           MOVX    A,@DPTR
   \   00005A   FD           MOV     R5,A
   \   00005B   7C00         MOV     R4,#0x0
   \   00005D   EE           MOV     A,R6
   \   00005E   2402         ADD     A,#0x2
   \   000060   FA           MOV     R2,A
   \   000061   EF           MOV     A,R7
   \   000062   3400         ADDC    A,#0x0
   \   000064   FB           MOV     R3,A
   \   000065   EE           MOV     A,R6
   \   000066   240F         ADD     A,#0xf
   \   000068   F582         MOV     DPL,A
   \   00006A   EF           MOV     A,R7
   \   00006B   3400         ADDC    A,#0x0
   \   00006D   F583         MOV     DPH,A
   \   00006F   E0           MOVX    A,@DPTR
   \   000070   F9           MOV     R1,A
   \   000071   12....       LCALL   ??ZDP_ServerDiscRsp?relay
   \   000074   7404         MOV     A,#0x4
   \   000076   12....       LCALL   ?DEALLOC_XSTACK8
   1010            }
   1011          }
   \                     ??ZDO_ProcessServerDiscReq_1:
   \   000079   7F02         MOV     R7,#0x2
   \   00007B   02....       LJMP    ?BANKED_LEAVE_XDATA
   1012          
   1013          /*********************************************************************
   1014           * Call Back Functions from APS  - API
   1015           */
   1016          
   1017          /*********************************************************************
   1018           * @fn          ZDO_EndDeviceTimeoutCB
   1019           *
   1020           * @brief       This function handles the binding timer for the End
   1021           *              Device Bind command.
   1022           *
   1023           * @param       none
   1024           *
   1025           * @return      none
   1026           */

   \                                 In  segment BANKED_CODE, align 1, keep-with-next
   1027          void ZDO_EndDeviceTimeoutCB( void )
   \                     ZDO_EndDeviceTimeoutCB:
   1028          {
   \   000000   C082         PUSH    DPL
   \   000002   C083         PUSH    DPH
   \   000004                ; Saved register size: 2
   \   000004                ; Auto size: 0
   1029          #if defined ( REFLECTOR )
   1030            byte stat;
   1031            if ( ZDO_EDBind )
   \   000004   90....       MOV     DPTR,#ZDO_EDBind
   \   000007   E0           MOVX    A,@DPTR
   \   000008   7002         JNZ     ??ZDO_EndDeviceTimeoutCB_0
   \   00000A   A3           INC     DPTR
   \   00000B   E0           MOVX    A,@DPTR
   \                     ??ZDO_EndDeviceTimeoutCB_0:
   \   00000C   6043         JZ      ??ZDO_EndDeviceTimeoutCB_1
   1032            {
   1033              stat = ZDO_EDBind->status;
   1034          
   1035              // Send the response message to the first sent
   1036              ZDO_SendEDBindRsp( ZDO_EDBind->SrcTransSeq, &(ZDO_EDBind->SrcAddr),
   1037                                  stat, ZDO_EDBind->SecurityUse );
   \   00000E                ; Setup parameters for call to function ZDO_SendEDBindRsp
   \   00000E   90....       MOV     DPTR,#ZDO_EDBind
   \   000011   E0           MOVX    A,@DPTR
   \   000012   2415         ADD     A,#0x15
   \   000014   F8           MOV     R0,A
   \   000015   A3           INC     DPTR
   \   000016   E0           MOVX    A,@DPTR
   \   000017   3400         ADDC    A,#0x0
   \   000019   F9           MOV     R1,A
   \   00001A   8882         MOV     DPL,R0
   \   00001C   8983         MOV     DPH,R1
   \   00001E   E0           MOVX    A,@DPTR
   \   00001F   FD           MOV     R5,A
   \   000020   90....       MOV     DPTR,#ZDO_EDBind
   \   000023   E0           MOVX    A,@DPTR
   \   000024   2416         ADD     A,#0x16
   \   000026   F8           MOV     R0,A
   \   000027   A3           INC     DPTR
   \   000028   E0           MOVX    A,@DPTR
   \   000029   3400         ADDC    A,#0x0
   \   00002B   F9           MOV     R1,A
   \   00002C   8882         MOV     DPL,R0
   \   00002E   8983         MOV     DPH,R1
   \   000030   E0           MOVX    A,@DPTR
   \   000031   FC           MOV     R4,A
   \   000032   90....       MOV     DPTR,#ZDO_EDBind
   \   000035   E0           MOVX    A,@DPTR
   \   000036   2401         ADD     A,#0x1
   \   000038   FA           MOV     R2,A
   \   000039   A3           INC     DPTR
   \   00003A   E0           MOVX    A,@DPTR
   \   00003B   3400         ADDC    A,#0x0
   \   00003D   FB           MOV     R3,A
   \   00003E   90....       MOV     DPTR,#ZDO_EDBind
   \   000041   E0           MOVX    A,@DPTR
   \   000042   F8           MOV     R0,A
   \   000043   A3           INC     DPTR
   \   000044   E0           MOVX    A,@DPTR
   \   000045   F583         MOV     DPH,A
   \   000047   8882         MOV     DPL,R0
   \   000049   E0           MOVX    A,@DPTR
   \   00004A   F9           MOV     R1,A
   \   00004B   12....       LCALL   ??ZDO_SendEDBindRsp?relay
   1038          
   1039              ZDO_RemoveEndDeviceBind();
   \   00004E                ; Setup parameters for call to function ZDO_RemoveEndDeviceBind
   \   00004E   12....       LCALL   ??ZDO_RemoveEndDeviceBind?relay
   1040            }
   1041          #endif  // REFLECTOR
   1042          }
   \                     ??ZDO_EndDeviceTimeoutCB_1:
   \   000051   D083         POP     DPH
   \   000053   D082         POP     DPL
   \   000055   02....       LJMP    ?BRET
   1043          
   1044          /*********************************************************************
   1045           * Optional Management Messages
   1046           */
   1047          
   1048          /*********************************************************************
   1049           * @fn          ZDO_ProcessMgmtLqiReq
   1050           *
   1051           * @brief       This function handles parsing the incoming Management
   1052           *              LQI request and generate the response.
   1053           *
   1054           *   Note:      This function will limit the number of items returned
   1055           *              to ZDO_MAX_LQI_ITEMS items.
   1056           *
   1057           * @param       inMsg - incoming message (request)
   1058           *
   1059           * @return      none
   1060           */

   \                                 In  segment BANKED_CODE, align 1, keep-with-next
   1061          void ZDO_ProcessMgmtLqiReq( zdoIncomingMsg_t *inMsg )
   \                     ZDO_ProcessMgmtLqiReq:
   1062          {
   \   000000   74F0         MOV     A,#-0x10
   \   000002   12....       LCALL   ?BANKED_ENTER_XDATA
   \   000005                ; Saved register size: 16
   \   000005                ; Auto size: 43
   \   000005   74D5         MOV     A,#-0x2b
   \   000007   12....       LCALL   ?ALLOC_XSTACK8
   \   00000A   7405         MOV     A,#0x5
   \   00000C   12....       LCALL   ?XSTACK_DISP0_8
   \   00000F   EA           MOV     A,R2
   \   000010   F0           MOVX    @DPTR,A
   \   000011   A3           INC     DPTR
   \   000012   EB           MOV     A,R3
   \   000013   F0           MOVX    @DPTR,A
   1063            byte x;
   1064            byte index;
   1065            byte numItems;
   1066            byte maxItems;
   1067            ZDP_MgmtLqiItem_t* table = NULL;
   \   000014   7401         MOV     A,#0x1
   \   000016   12....       LCALL   ?XSTACK_DISP0_8
   \   000019   E4           CLR     A
   \   00001A   F0           MOVX    @DPTR,A
   \   00001B   A3           INC     DPTR
   \   00001C   F0           MOVX    @DPTR,A
   1068            ZDP_MgmtLqiItem_t* item;
   1069            neighborEntry_t    entry;
   1070            byte aItems;
   1071            associated_devices_t *aDevice;
   1072            AddrMgrEntry_t  nwkEntry;
   1073            uint8 StartIndex = inMsg->asdu[0];
   \   00001D   7405         MOV     A,#0x5
   \   00001F   12....       LCALL   ?XSTACK_DISP0_8
   \   000022   E0           MOVX    A,@DPTR
   \   000023   2413         ADD     A,#0x13
   \   000025   F8           MOV     R0,A
   \   000026   A3           INC     DPTR
   \   000027   E0           MOVX    A,@DPTR
   \   000028   3400         ADDC    A,#0x0
   \   00002A   F9           MOV     R1,A
   \   00002B   8882         MOV     DPL,R0
   \   00002D   8983         MOV     DPH,R1
   \   00002F   E0           MOVX    A,@DPTR
   \   000030   F8           MOV     R0,A
   \   000031   A3           INC     DPTR
   \   000032   E0           MOVX    A,@DPTR
   \   000033   F583         MOV     DPH,A
   \   000035   8882         MOV     DPL,R0
   \   000037   E0           MOVX    A,@DPTR
   \   000038   F5..         MOV     ?V0 + 4,A
   1074          
   1075            // Get the number of neighbor items
   1076            NLME_GetRequest( nwkNumNeighborTableEntries, 0, &maxItems );
   \   00003A                ; Setup parameters for call to function NLME_GetRequest
   \   00003A   85..82       MOV     DPL,?XSP + 0
   \   00003D   85..83       MOV     DPH,?XSP + 1
   \   000040   AC82         MOV     R4,DPL
   \   000042   AD83         MOV     R5,DPH
   \   000044   7A00         MOV     R2,#0x0
   \   000046   7B00         MOV     R3,#0x0
   \   000048   799C         MOV     R1,#-0x64
   \   00004A   12....       LCALL   ??NLME_GetRequest?relay
   1077          
   1078            // Get the number of associated items
   1079            aItems = (uint8)AssocCount( PARENT, CHILD_FFD_RX_IDLE );
   \   00004D                ; Setup parameters for call to function AssocCount
   \   00004D   7A04         MOV     R2,#0x4
   \   00004F   7900         MOV     R1,#0x0
   \   000051   12....       LCALL   ??AssocCount?relay
   \   000054   EA           MOV     A,R2
   \   000055   F5..         MOV     ?V0 + 2,A
   1080          
   1081            // Total number of items
   1082            maxItems += aItems;
   \   000057   85..82       MOV     DPL,?XSP + 0
   \   00005A   85..83       MOV     DPH,?XSP + 1
   \   00005D   E0           MOVX    A,@DPTR
   \   00005E   25..         ADD     A,?V0 + 2
   \   000060   F0           MOVX    @DPTR,A
   1083          
   1084            // Start with the supplied index
   1085            if ( maxItems > StartIndex )
   \   000061   E0           MOVX    A,@DPTR
   \   000062   FA           MOV     R2,A
   \   000063   E5..         MOV     A,?V0 + 4
   \   000065   C3           CLR     C
   \   000066   9A           SUBB    A,R2
   \   000067   4003         JC      $+5
   \   000069   02....       LJMP    ??ZDO_ProcessMgmtLqiReq_0 & 0xFFFF
   1086            {
   1087              numItems = maxItems - StartIndex;
   \   00006C   E0           MOVX    A,@DPTR
   \   00006D   C3           CLR     C
   \   00006E   95..         SUBB    A,?V0 + 4
   \   000070   F5..         MOV     ?V0 + 1,A
   1088          
   1089              // limit the size of the list
   1090              if ( numItems > ZDO_MAX_LQI_ITEMS )
   \   000072   C3           CLR     C
   \   000073   9404         SUBB    A,#0x4
   \   000075   4003         JC      ??ZDO_ProcessMgmtLqiReq_1
   1091                numItems = ZDO_MAX_LQI_ITEMS;
   \   000077   75..03       MOV     ?V0 + 1,#0x3
   1092          
   1093              // Allocate the memory to build the table
   1094              table = (ZDP_MgmtLqiItem_t*)osal_mem_alloc( (short)
   1095                        ( numItems * sizeof( ZDP_MgmtLqiItem_t ) ) );
   \                     ??ZDO_ProcessMgmtLqiReq_1:
   \   00007A                ; Setup parameters for call to function osal_mem_alloc
   \   00007A   E5..         MOV     A,?V0 + 1
   \   00007C   75F01A       MOV     B,#0x1a
   \   00007F   A4           MUL     AB
   \   000080   FA           MOV     R2,A
   \   000081   ABF0         MOV     R3,B
   \   000083   12....       LCALL   ??osal_mem_alloc?relay
   \   000086   7401         MOV     A,#0x1
   \   000088   12....       LCALL   ?XSTACK_DISP0_8
   \   00008B   EA           MOV     A,R2
   \   00008C   F0           MOVX    @DPTR,A
   \   00008D   A3           INC     DPTR
   \   00008E   EB           MOV     A,R3
   \   00008F   F0           MOVX    @DPTR,A
   1096          
   1097              if ( table != NULL )
   \   000090   7401         MOV     A,#0x1
   \   000092   12....       LCALL   ?XSTACK_DISP0_8
   \   000095   E0           MOVX    A,@DPTR
   \   000096   7002         JNZ     ??ZDO_ProcessMgmtLqiReq_2
   \   000098   A3           INC     DPTR
   \   000099   E0           MOVX    A,@DPTR
   \                     ??ZDO_ProcessMgmtLqiReq_2:
   \   00009A   7003         JNZ     $+5
   \   00009C   02....       LJMP    ??ZDO_ProcessMgmtLqiReq_3 & 0xFFFF
   1098              {
   1099                x = 0;
   \   00009F   75..00       MOV     ?V0 + 3,#0x0
   1100                item = table;
   \   0000A2   7401         MOV     A,#0x1
   \   0000A4   12....       LCALL   ?XSTACK_DISP0_8
   \   0000A7   E0           MOVX    A,@DPTR
   \   0000A8   FE           MOV     R6,A
   \   0000A9   A3           INC     DPTR
   \   0000AA   E0           MOVX    A,@DPTR
   \   0000AB   FF           MOV     R7,A
   1101                index = StartIndex;
   \   0000AC   85....       MOV     ?V0 + 0,?V0 + 4
   \   0000AF   02....       LJMP    ??ZDO_ProcessMgmtLqiReq_4 & 0xFFFF
   1102          
   1103                // Loop through associated items and build list
   1104                for ( ; x < numItems; x++ )
   1105                {
   1106                  if ( index < aItems )
   1107                  {
   1108                    // get next associated device
   1109                    aDevice = AssocFindDevice( index++ );
   1110          
   1111                    // set basic fields
   1112                    item->panID   = _NIB.nwkPanId;
   1113                    osal_cpyExtAddr( item->extPanID, _NIB.extendedPANID );
   1114                    item->nwkAddr = aDevice->shortAddr;
   1115                    item->permit  = ZDP_MGMT_BOOL_UNKNOWN;
   1116                    item->depth   = 0xFF;
   1117                    item->lqi     = aDevice->linkInfo.rxLqi;
   1118          
   1119                    // set extented address
   1120                    nwkEntry.user    = ADDRMGR_USER_DEFAULT;
   1121                    nwkEntry.nwkAddr = aDevice->shortAddr;
   1122          
   1123                    if ( AddrMgrEntryLookupNwk( &nwkEntry ) == TRUE )
   1124                    {
   1125                      osal_cpyExtAddr( item->extAddr, nwkEntry.extAddr );
   1126                    }
   1127                    else
   1128                    {
   1129                      osal_memset( item->extAddr, 0xFF, Z_EXTADDR_LEN );
   \                     ??ZDO_ProcessMgmtLqiReq_5:
   \   0000B2                ; Setup parameters for call to function osal_memset
   \   0000B2   7C08         MOV     R4,#0x8
   \   0000B4   7D00         MOV     R5,#0x0
   \   0000B6   79FF         MOV     R1,#-0x1
   \   0000B8   EE           MOV     A,R6
   \   0000B9   240A         ADD     A,#0xa
   \   0000BB   FA           MOV     R2,A
   \   0000BC   EF           MOV     A,R7
   \   0000BD   3400         ADDC    A,#0x0
   \   0000BF   FB           MOV     R3,A
   \   0000C0   12....       LCALL   ??osal_memset?relay
   1130                    }
   1131          
   1132                    // use association info to set other fields
   1133                    if ( aDevice->nodeRelation == PARENT )
   \                     ??ZDO_ProcessMgmtLqiReq_6:
   \   0000C3   EE           MOV     A,R6
   \   0000C4   2414         ADD     A,#0x14
   \   0000C6   FA           MOV     R2,A
   \   0000C7   EF           MOV     A,R7
   \   0000C8   3400         ADDC    A,#0x0
   \   0000CA   FB           MOV     R3,A
   \   0000CB   7403         MOV     A,#0x3
   \   0000CD   12....       LCALL   ?XSTACK_DISP0_8
   \   0000D0   E0           MOVX    A,@DPTR
   \   0000D1   2404         ADD     A,#0x4
   \   0000D3   F8           MOV     R0,A
   \   0000D4   A3           INC     DPTR
   \   0000D5   E0           MOVX    A,@DPTR
   \   0000D6   3400         ADDC    A,#0x0
   \   0000D8   F9           MOV     R1,A
   \   0000D9   8882         MOV     DPL,R0
   \   0000DB   8983         MOV     DPH,R1
   \   0000DD   E0           MOVX    A,@DPTR
   \   0000DE   7043         JNZ     ??ZDO_ProcessMgmtLqiReq_7
   1134                    {
   1135                      if (  aDevice->shortAddr == 0 )
   \   0000E0   7403         MOV     A,#0x3
   \   0000E2   12....       LCALL   ?XSTACK_DISP0_8
   \   0000E5   E0           MOVX    A,@DPTR
   \   0000E6   F8           MOV     R0,A
   \   0000E7   A3           INC     DPTR
   \   0000E8   E0           MOVX    A,@DPTR
   \   0000E9   F583         MOV     DPH,A
   \   0000EB   8882         MOV     DPL,R0
   \   0000ED   E0           MOVX    A,@DPTR
   \   0000EE   7002         JNZ     ??ZDO_ProcessMgmtLqiReq_8
   \   0000F0   A3           INC     DPTR
   \   0000F1   E0           MOVX    A,@DPTR
   \                     ??ZDO_ProcessMgmtLqiReq_8:
   \   0000F2   7008         JNZ     ??ZDO_ProcessMgmtLqiReq_9
   1136                      {
   1137                        item->devType = ZDP_MGMT_DT_COORD;
   \   0000F4   E4           CLR     A
   \   0000F5   8A82         MOV     DPL,R2
   \   0000F7   8B83         MOV     DPH,R3
   \   0000F9   F0           MOVX    @DPTR,A
   1138                        item->depth = 0;
   \   0000FA   800C         SJMP    ??ZDO_ProcessMgmtLqiReq_10
   1139                      }
   1140                      else
   1141                      {
   1142                        item->devType = ZDP_MGMT_DT_ROUTER;
   \                     ??ZDO_ProcessMgmtLqiReq_9:
   \   0000FC   7401         MOV     A,#0x1
   \   0000FE   8A82         MOV     DPL,R2
   \   000100   8B83         MOV     DPH,R3
   \   000102   F0           MOVX    @DPTR,A
   1143                        item->depth = _NIB.nodeDepth - 1;
   \   000103   90....       MOV     DPTR,#(_NIB + 52)
   \   000106   E0           MOVX    A,@DPTR
   \   000107   14           DEC     A
   \                     ??ZDO_ProcessMgmtLqiReq_10:
   \   000108   85..82       MOV     DPL,?V0 + 6
   \   00010B   85..83       MOV     DPH,?V0 + 7
   \   00010E   F0           MOVX    @DPTR,A
   1144                      }
   1145          
   1146                      item->rxOnIdle = ZDP_MGMT_BOOL_UNKNOWN;
   \   00010F   7402         MOV     A,#0x2
   \   000111   C0E0         PUSH    A
   \   000113   EE           MOV     A,R6
   \   000114   2415         ADD     A,#0x15
   \   000116   F582         MOV     DPL,A
   \   000118   EF           MOV     A,R7
   \   000119   3400         ADDC    A,#0x0
   \   00011B   F583         MOV     DPH,A
   \   00011D   D0E0         POP     A
   \   00011F   F0           MOVX    @DPTR,A
   1147                      item->relation = ZDP_MGMT_REL_PARENT;
   \   000120   E4           CLR     A
   \   000121   803E         SJMP    ??ZDO_ProcessMgmtLqiReq_11
   1148                    }
   1149                    else
   1150                    {
   1151                      // If not parent, then it's a child
   1152                      item->depth = _NIB.nodeDepth + 1;
   \                     ??ZDO_ProcessMgmtLqiReq_7:
   \   000123   90....       MOV     DPTR,#(_NIB + 52)
   \   000126   E0           MOVX    A,@DPTR
   \   000127   04           INC     A
   \   000128   85..82       MOV     DPL,?V0 + 6
   \   00012B   85..83       MOV     DPH,?V0 + 7
   \   00012E   F0           MOVX    @DPTR,A
   1153          
   1154                      if ( aDevice->nodeRelation < CHILD_FFD )
   \   00012F   8882         MOV     DPL,R0
   \   000131   8983         MOV     DPH,R1
   \   000133   E0           MOVX    A,@DPTR
   \   000134   C3           CLR     C
   \   000135   9403         SUBB    A,#0x3
   \   000137   4003         JC      $+5
   \   000139   02....       LJMP    ??ZDO_ProcessMgmtLqiReq_12 & 0xFFFF
   1155                      {
   1156                        item->devType = ZDP_MGMT_DT_ENDDEV;
   \   00013C   7402         MOV     A,#0x2
   \   00013E   8A82         MOV     DPL,R2
   \   000140   8B83         MOV     DPH,R3
   \   000142   F0           MOVX    @DPTR,A
   1157          
   1158                        if ( aDevice->nodeRelation == CHILD_RFD )
   \   000143   8882         MOV     DPL,R0
   \   000145   8983         MOV     DPH,R1
   \   000147   E0           MOVX    A,@DPTR
   \   000148   6401         XRL     A,#0x1
   \   00014A   6003         JZ      $+5
   \   00014C   02....       LJMP    ??ZDO_ProcessMgmtLqiReq_13 & 0xFFFF
   1159                        {
   1160                          item->rxOnIdle = FALSE;
   \                     ??ZDO_ProcessMgmtLqiReq_14:
   \   00014F   E4           CLR     A
   \                     ??ZDO_ProcessMgmtLqiReq_15:
   \   000150   C0E0         PUSH    A
   \   000152   EE           MOV     A,R6
   \   000153   2415         ADD     A,#0x15
   \   000155   F582         MOV     DPL,A
   \   000157   EF           MOV     A,R7
   \   000158   3400         ADDC    A,#0x0
   \   00015A   F583         MOV     DPH,A
   \   00015C   D0E0         POP     A
   \   00015E   F0           MOVX    @DPTR,A
   1161                        }
   1162                        else
   1163                        {
   1164                          item->rxOnIdle = TRUE;
   1165                        }
   1166                      }
   1167                      else
   1168                      {
   1169                        item->devType = ZDP_MGMT_DT_ROUTER;
   1170          
   1171                        if ( aDevice->nodeRelation == CHILD_FFD )
   1172                        {
   1173                          item->rxOnIdle = FALSE;
   1174                        }
   1175                        else
   1176                        {
   1177                          item->rxOnIdle = TRUE;
   1178                        }
   1179                      }
   1180          
   1181                      item->relation = ZDP_MGMT_REL_CHILD;
   \   00015F   7401         MOV     A,#0x1
   \                     ??ZDO_ProcessMgmtLqiReq_11:
   \   000161   C0E0         PUSH    A
   \   000163   EE           MOV     A,R6
   \   000164   2416         ADD     A,#0x16
   \   000166   F582         MOV     DPL,A
   \   000168   EF           MOV     A,R7
   \   000169   3400         ADDC    A,#0x0
   \   00016B   F583         MOV     DPH,A
   \   00016D   D0E0         POP     A
   \   00016F   F0           MOVX    @DPTR,A
   1182                    }
   1183          
   1184                    item++;
   \   000170   EE           MOV     A,R6
   \   000171   241A         ADD     A,#0x1a
   \   000173   FE           MOV     R6,A
   \   000174   EF           MOV     A,R7
   \   000175   3400         ADDC    A,#0x0
   \   000177   FF           MOV     R7,A
   \   000178   05..         INC     ?V0 + 3
   \                     ??ZDO_ProcessMgmtLqiReq_4:
   \   00017A   E5..         MOV     A,?V0 + 3
   \   00017C   C3           CLR     C
   \   00017D   95..         SUBB    A,?V0 + 1
   \   00017F   4003         JC      $+5
   \   000181   02....       LJMP    ??ZDO_ProcessMgmtLqiReq_16 & 0xFFFF
   \   000184   E5..         MOV     A,?V0 + 0
   \   000186   C3           CLR     C
   \   000187   95..         SUBB    A,?V0 + 2
   \   000189   4003         JC      $+5
   \   00018B   02....       LJMP    ??ZDO_ProcessMgmtLqiReq_17 & 0xFFFF
   \   00018E                ; Setup parameters for call to function AssocFindDevice
   \   00018E   A9..         MOV     R1,?V0 + 0
   \   000190   12....       LCALL   ??AssocFindDevice?relay
   \   000193   7403         MOV     A,#0x3
   \   000195   12....       LCALL   ?XSTACK_DISP0_8
   \   000198   EA           MOV     A,R2
   \   000199   F0           MOVX    @DPTR,A
   \   00019A   A3           INC     DPTR
   \   00019B   EB           MOV     A,R3
   \   00019C   F0           MOVX    @DPTR,A
   \   00019D   05..         INC     ?V0 + 0
   \   00019F   90....       MOV     DPTR,#(_NIB + 33)
   \   0001A2   E0           MOVX    A,@DPTR
   \   0001A3   F8           MOV     R0,A
   \   0001A4   A3           INC     DPTR
   \   0001A5   E0           MOVX    A,@DPTR
   \   0001A6   F9           MOV     R1,A
   \   0001A7   8E82         MOV     DPL,R6
   \   0001A9   8F83         MOV     DPH,R7
   \   0001AB   E8           MOV     A,R0
   \   0001AC   F0           MOVX    @DPTR,A
   \   0001AD   A3           INC     DPTR
   \   0001AE   E9           MOV     A,R1
   \   0001AF   F0           MOVX    @DPTR,A
   \   0001B0                ; Setup parameters for call to function sAddrExtCpy
   \   0001B0   7C..         MOV     R4,#((_NIB + 53) & 0xff)
   \   0001B2   7D..         MOV     R5,#(((_NIB + 53) >> 8) & 0xff)
   \   0001B4   EE           MOV     A,R6
   \   0001B5   2402         ADD     A,#0x2
   \   0001B7   FA           MOV     R2,A
   \   0001B8   EF           MOV     A,R7
   \   0001B9   3400         ADDC    A,#0x0
   \   0001BB   FB           MOV     R3,A
   \   0001BC   12....       LCALL   ??sAddrExtCpy?relay
   \   0001BF   7403         MOV     A,#0x3
   \   0001C1   12....       LCALL   ?XSTACK_DISP0_8
   \   0001C4   E0           MOVX    A,@DPTR
   \   0001C5   F8           MOV     R0,A
   \   0001C6   A3           INC     DPTR
   \   0001C7   E0           MOVX    A,@DPTR
   \   0001C8   F583         MOV     DPH,A
   \   0001CA   8882         MOV     DPL,R0
   \   0001CC   E0           MOVX    A,@DPTR
   \   0001CD   F8           MOV     R0,A
   \   0001CE   A3           INC     DPTR
   \   0001CF   E0           MOVX    A,@DPTR
   \   0001D0   F9           MOV     R1,A
   \   0001D1   EE           MOV     A,R6
   \   0001D2   2412         ADD     A,#0x12
   \   0001D4   F582         MOV     DPL,A
   \   0001D6   EF           MOV     A,R7
   \   0001D7   3400         ADDC    A,#0x0
   \   0001D9   F583         MOV     DPH,A
   \   0001DB   E8           MOV     A,R0
   \   0001DC   F0           MOVX    @DPTR,A
   \   0001DD   A3           INC     DPTR
   \   0001DE   E9           MOV     A,R1
   \   0001DF   F0           MOVX    @DPTR,A
   \   0001E0   7402         MOV     A,#0x2
   \   0001E2   C0E0         PUSH    A
   \   0001E4   EE           MOV     A,R6
   \   0001E5   2417         ADD     A,#0x17
   \   0001E7   F582         MOV     DPL,A
   \   0001E9   EF           MOV     A,R7
   \   0001EA   3400         ADDC    A,#0x0
   \   0001EC   F583         MOV     DPH,A
   \   0001EE   D0E0         POP     A
   \   0001F0   F0           MOVX    @DPTR,A
   \   0001F1   EE           MOV     A,R6
   \   0001F2   2418         ADD     A,#0x18
   \   0001F4   F5..         MOV     ?V0 + 6,A
   \   0001F6   EF           MOV     A,R7
   \   0001F7   3400         ADDC    A,#0x0
   \   0001F9   F5..         MOV     ?V0 + 7,A
   \   0001FB   74FF         MOV     A,#-0x1
   \   0001FD   85..82       MOV     DPL,?V0 + 6
   \   000200   85..83       MOV     DPH,?V0 + 7
   \   000203   F0           MOVX    @DPTR,A
   \   000204   7403         MOV     A,#0x3
   \   000206   12....       LCALL   ?XSTACK_DISP0_8
   \   000209   E0           MOVX    A,@DPTR
   \   00020A   F8           MOV     R0,A
   \   00020B   A3           INC     DPTR
   \   00020C   E0           MOVX    A,@DPTR
   \   00020D   F583         MOV     DPH,A
   \   00020F   8882         MOV     DPL,R0
   \   000211   A3           INC     DPTR
   \   000212   A3           INC     DPTR
   \   000213   A3           INC     DPTR
   \   000214   A3           INC     DPTR
   \   000215   A3           INC     DPTR
   \   000216   A3           INC     DPTR
   \   000217   A3           INC     DPTR
   \   000218   A3           INC     DPTR
   \   000219   A3           INC     DPTR
   \   00021A   A3           INC     DPTR
   \   00021B   E0           MOVX    A,@DPTR
   \   00021C   C0E0         PUSH    A
   \   00021E   EE           MOV     A,R6
   \   00021F   2419         ADD     A,#0x19
   \   000221   F582         MOV     DPL,A
   \   000223   EF           MOV     A,R7
   \   000224   3400         ADDC    A,#0x0
   \   000226   F583         MOV     DPH,A
   \   000228   D0E0         POP     A
   \   00022A   F0           MOVX    @DPTR,A
   \   00022B   E4           CLR     A
   \   00022C   C0E0         PUSH    A
   \   00022E   7407         MOV     A,#0x7
   \   000230   12....       LCALL   ?XSTACK_DISP0_8
   \   000233   D0E0         POP     A
   \   000235   F0           MOVX    @DPTR,A
   \   000236   7403         MOV     A,#0x3
   \   000238   12....       LCALL   ?XSTACK_DISP0_8
   \   00023B   E0           MOVX    A,@DPTR
   \   00023C   F8           MOV     R0,A
   \   00023D   A3           INC     DPTR
   \   00023E   E0           MOVX    A,@DPTR
   \   00023F   F583         MOV     DPH,A
   \   000241   8882         MOV     DPL,R0
   \   000243   E0           MOVX    A,@DPTR
   \   000244   F8           MOV     R0,A
   \   000245   A3           INC     DPTR
   \   000246   E0           MOVX    A,@DPTR
   \   000247   F9           MOV     R1,A
   \   000248   7408         MOV     A,#0x8
   \   00024A   12....       LCALL   ?XSTACK_DISP0_8
   \   00024D   E8           MOV     A,R0
   \   00024E   F0           MOVX    @DPTR,A
   \   00024F   A3           INC     DPTR
   \   000250   E9           MOV     A,R1
   \   000251   F0           MOVX    @DPTR,A
   \   000252                ; Setup parameters for call to function AddrMgrEntryLookupNwk
   \   000252   7407         MOV     A,#0x7
   \   000254   12....       LCALL   ?XSTACK_DISP0_8
   \   000257   AA82         MOV     R2,DPL
   \   000259   AB83         MOV     R3,DPH
   \   00025B   12....       LCALL   ??AddrMgrEntryLookupNwk?relay
   \   00025E   E9           MOV     A,R1
   \   00025F   6401         XRL     A,#0x1
   \   000261   6003         JZ      $+5
   \   000263   02....       LJMP    ??ZDO_ProcessMgmtLqiReq_5 & 0xFFFF
   \   000266                ; Setup parameters for call to function sAddrExtCpy
   \   000266   740A         MOV     A,#0xa
   \   000268   12....       LCALL   ?XSTACK_DISP0_8
   \   00026B   AC82         MOV     R4,DPL
   \   00026D   AD83         MOV     R5,DPH
   \   00026F   EE           MOV     A,R6
   \   000270   240A         ADD     A,#0xa
   \   000272   FA           MOV     R2,A
   \   000273   EF           MOV     A,R7
   \   000274   3400         ADDC    A,#0x0
   \   000276   FB           MOV     R3,A
   \   000277   12....       LCALL   ??sAddrExtCpy?relay
   \   00027A   02....       LJMP    ??ZDO_ProcessMgmtLqiReq_6 & 0xFFFF
   \                     ??ZDO_ProcessMgmtLqiReq_12:
   \   00027D   7401         MOV     A,#0x1
   \   00027F   8A82         MOV     DPL,R2
   \   000281   8B83         MOV     DPH,R3
   \   000283   F0           MOVX    @DPTR,A
   \   000284   8882         MOV     DPL,R0
   \   000286   8983         MOV     DPH,R1
   \   000288   E0           MOVX    A,@DPTR
   \   000289   6403         XRL     A,#0x3
   \   00028B   7003         JNZ     $+5
   \   00028D   02....       LJMP    ??ZDO_ProcessMgmtLqiReq_14 & 0xFFFF
   \                     ??ZDO_ProcessMgmtLqiReq_13:
   \   000290   7401         MOV     A,#0x1
   \   000292   02....       LJMP    ??ZDO_ProcessMgmtLqiReq_15 & 0xFFFF
   1185                  }
   1186                  else
   1187                  {
   1188                    if ( StartIndex <= aItems )
   \                     ??ZDO_ProcessMgmtLqiReq_17:
   \   000295   E5..         MOV     A,?V0 + 2
   \   000297   C3           CLR     C
   \   000298   95..         SUBB    A,?V0 + 4
   \   00029A   4005         JC      ??ZDO_ProcessMgmtLqiReq_18
   1189                      // Start with 1st neighbor
   1190                      index = 0;
   \   00029C   75..00       MOV     ?V0 + 0,#0x0
   \   00029F   801A         SJMP    ??ZDO_ProcessMgmtLqiReq_16
   1191                    else
   1192                      // Start with >1st neighbor
   1193                      index = StartIndex - aItems;
   \                     ??ZDO_ProcessMgmtLqiReq_18:
   \   0002A1   E5..         MOV     A,?V0 + 4
   \   0002A3   C3           CLR     C
   \   0002A4   95..         SUBB    A,?V0 + 2
   \   0002A6   F5..         MOV     ?V0 + 0,A
   \   0002A8   8011         SJMP    ??ZDO_ProcessMgmtLqiReq_16
   1194                    break;
   1195                  }
   1196                }
   1197          
   1198                // Loop through neighbor items and finish list
   1199                for ( ; x < numItems; x++ )
   1200                {
   1201                  // Add next neighbor table item
   1202                  NLME_GetRequest( nwkNeighborTable, index++, &entry );
   1203          
   1204                  // set ZDP_MgmtLqiItem_t fields
   1205                  item->panID    = entry.panId;
   1206                  osal_cpyExtAddr( item->extPanID, _NIB.extendedPANID );
   1207                  osal_memset( item->extAddr, 0xFF, Z_EXTADDR_LEN );
   1208                  item->nwkAddr  = entry.neighborAddress;
   1209                  item->rxOnIdle = ZDP_MGMT_BOOL_UNKNOWN;
   1210                  item->relation = ZDP_MGMT_REL_UNKNOWN;
   1211                  item->permit   = ZDP_MGMT_BOOL_UNKNOWN;
   1212                  item->depth    = 0xFF;
   1213                  item->lqi      = entry.linkInfo.rxLqi;
   1214          
   1215                  if ( item->nwkAddr == 0 )
   1216                  {
   1217                    item->devType = ZDP_MGMT_DT_COORD;
   1218                  }
   1219                  else
   1220                  {
   1221                    item->devType = ZDP_MGMT_DT_ROUTER;
   \                     ??ZDO_ProcessMgmtLqiReq_19:
   \   0002AA   7401         MOV     A,#0x1
   \                     ??ZDO_ProcessMgmtLqiReq_20:
   \   0002AC   8A82         MOV     DPL,R2
   \   0002AE   8B83         MOV     DPH,R3
   \   0002B0   F0           MOVX    @DPTR,A
   1222                  }
   1223          
   1224                  item++;
   \   0002B1   EE           MOV     A,R6
   \   0002B2   241A         ADD     A,#0x1a
   \   0002B4   FE           MOV     R6,A
   \   0002B5   EF           MOV     A,R7
   \   0002B6   3400         ADDC    A,#0x0
   \   0002B8   FF           MOV     R7,A
   \   0002B9   05..         INC     ?V0 + 3
   \                     ??ZDO_ProcessMgmtLqiReq_16:
   \   0002BB   E5..         MOV     A,?V0 + 3
   \   0002BD   C3           CLR     C
   \   0002BE   95..         SUBB    A,?V0 + 1
   \   0002C0   4003         JC      $+5
   \   0002C2   02....       LJMP    ??ZDO_ProcessMgmtLqiReq_3 & 0xFFFF
   \   0002C5                ; Setup parameters for call to function NLME_GetRequest
   \   0002C5   7414         MOV     A,#0x14
   \   0002C7   12....       LCALL   ?XSTACK_DISP0_8
   \   0002CA   AC82         MOV     R4,DPL
   \   0002CC   AD83         MOV     R5,DPH
   \   0002CE   AA..         MOV     R2,?V0 + 0
   \   0002D0   7B00         MOV     R3,#0x0
   \   0002D2   7987         MOV     R1,#-0x79
   \   0002D4   12....       LCALL   ??NLME_GetRequest?relay
   \   0002D7   05..         INC     ?V0 + 0
   \   0002D9   741E         MOV     A,#0x1e
   \   0002DB   12....       LCALL   ?XSTACK_DISP0_8
   \   0002DE   E0           MOVX    A,@DPTR
   \   0002DF   F8           MOV     R0,A
   \   0002E0   A3           INC     DPTR
   \   0002E1   E0           MOVX    A,@DPTR
   \   0002E2   F9           MOV     R1,A
   \   0002E3   8E82         MOV     DPL,R6
   \   0002E5   8F83         MOV     DPH,R7
   \   0002E7   E8           MOV     A,R0
   \   0002E8   F0           MOVX    @DPTR,A
   \   0002E9   A3           INC     DPTR
   \   0002EA   E9           MOV     A,R1
   \   0002EB   F0           MOVX    @DPTR,A
   \   0002EC                ; Setup parameters for call to function sAddrExtCpy
   \   0002EC   7C..         MOV     R4,#((_NIB + 53) & 0xff)
   \   0002EE   7D..         MOV     R5,#(((_NIB + 53) >> 8) & 0xff)
   \   0002F0   EE           MOV     A,R6
   \   0002F1   2402         ADD     A,#0x2
   \   0002F3   FA           MOV     R2,A
   \   0002F4   EF           MOV     A,R7
   \   0002F5   3400         ADDC    A,#0x0
   \   0002F7   FB           MOV     R3,A
   \   0002F8   12....       LCALL   ??sAddrExtCpy?relay
   \   0002FB                ; Setup parameters for call to function osal_memset
   \   0002FB   7C08         MOV     R4,#0x8
   \   0002FD   7D00         MOV     R5,#0x0
   \   0002FF   79FF         MOV     R1,#-0x1
   \   000301   EE           MOV     A,R6
   \   000302   240A         ADD     A,#0xa
   \   000304   FA           MOV     R2,A
   \   000305   EF           MOV     A,R7
   \   000306   3400         ADDC    A,#0x0
   \   000308   FB           MOV     R3,A
   \   000309   12....       LCALL   ??osal_memset?relay
   \   00030C   EE           MOV     A,R6
   \   00030D   2412         ADD     A,#0x12
   \   00030F   F8           MOV     R0,A
   \   000310   EF           MOV     A,R7
   \   000311   3400         ADDC    A,#0x0
   \   000313   F9           MOV     R1,A
   \   000314   7414         MOV     A,#0x14
   \   000316   12....       LCALL   ?XSTACK_DISP0_8
   \   000319   E0           MOVX    A,@DPTR
   \   00031A   FA           MOV     R2,A
   \   00031B   A3           INC     DPTR
   \   00031C   E0           MOVX    A,@DPTR
   \   00031D   FB           MOV     R3,A
   \   00031E   8882         MOV     DPL,R0
   \   000320   8983         MOV     DPH,R1
   \   000322   EA           MOV     A,R2
   \   000323   F0           MOVX    @DPTR,A
   \   000324   A3           INC     DPTR
   \   000325   EB           MOV     A,R3
   \   000326   F0           MOVX    @DPTR,A
   \   000327   7402         MOV     A,#0x2
   \   000329   C0E0         PUSH    A
   \   00032B   EE           MOV     A,R6
   \   00032C   2415         ADD     A,#0x15
   \   00032E   F582         MOV     DPL,A
   \   000330   EF           MOV     A,R7
   \   000331   3400         ADDC    A,#0x0
   \   000333   F583         MOV     DPH,A
   \   000335   D0E0         POP     A
   \   000337   F0           MOVX    @DPTR,A
   \   000338   7403         MOV     A,#0x3
   \   00033A   C0E0         PUSH    A
   \   00033C   EE           MOV     A,R6
   \   00033D   2416         ADD     A,#0x16
   \   00033F   F582         MOV     DPL,A
   \   000341   EF           MOV     A,R7
   \   000342   3400         ADDC    A,#0x0
   \   000344   F583         MOV     DPH,A
   \   000346   D0E0         POP     A
   \   000348   F0           MOVX    @DPTR,A
   \   000349   7402         MOV     A,#0x2
   \   00034B   C0E0         PUSH    A
   \   00034D   EE           MOV     A,R6
   \   00034E   2417         ADD     A,#0x17
   \   000350   F582         MOV     DPL,A
   \   000352   EF           MOV     A,R7
   \   000353   3400         ADDC    A,#0x0
   \   000355   F583         MOV     DPH,A
   \   000357   D0E0         POP     A
   \   000359   F0           MOVX    @DPTR,A
   \   00035A   74FF         MOV     A,#-0x1
   \   00035C   C0E0         PUSH    A
   \   00035E   EE           MOV     A,R6
   \   00035F   2418         ADD     A,#0x18
   \   000361   F582         MOV     DPL,A
   \   000363   EF           MOV     A,R7
   \   000364   3400         ADDC    A,#0x0
   \   000366   F583         MOV     DPH,A
   \   000368   D0E0         POP     A
   \   00036A   F0           MOVX    @DPTR,A
   \   00036B   7423         MOV     A,#0x23
   \   00036D   12....       LCALL   ?XSTACK_DISP0_8
   \   000370   E0           MOVX    A,@DPTR
   \   000371   C0E0         PUSH    A
   \   000373   EE           MOV     A,R6
   \   000374   2419         ADD     A,#0x19
   \   000376   F582         MOV     DPL,A
   \   000378   EF           MOV     A,R7
   \   000379   3400         ADDC    A,#0x0
   \   00037B   F583         MOV     DPH,A
   \   00037D   D0E0         POP     A
   \   00037F   F0           MOVX    @DPTR,A
   \   000380   EE           MOV     A,R6
   \   000381   2414         ADD     A,#0x14
   \   000383   FA           MOV     R2,A
   \   000384   EF           MOV     A,R7
   \   000385   3400         ADDC    A,#0x0
   \   000387   FB           MOV     R3,A
   \   000388   8882         MOV     DPL,R0
   \   00038A   8983         MOV     DPH,R1
   \   00038C   E0           MOVX    A,@DPTR
   \   00038D   7002         JNZ     ??ZDO_ProcessMgmtLqiReq_21
   \   00038F   A3           INC     DPTR
   \   000390   E0           MOVX    A,@DPTR
   \                     ??ZDO_ProcessMgmtLqiReq_21:
   \   000391   6003         JZ      $+5
   \   000393   02....       LJMP    ??ZDO_ProcessMgmtLqiReq_19 & 0xFFFF
   \   000396   E4           CLR     A
   \   000397   02....       LJMP    ??ZDO_ProcessMgmtLqiReq_20 & 0xFFFF
   1225                }
   1226              }
   1227            }
   1228            else
   1229            {
   1230              numItems = 0;
   \                     ??ZDO_ProcessMgmtLqiReq_0:
   \   00039A   75..00       MOV     ?V0 + 1,#0x0
   1231            }
   1232          
   1233            // Send response
   1234            ZDP_MgmtLqiRsp( inMsg->TransSeq, &(inMsg->srcAddr), ZSuccess, maxItems,
   1235                            StartIndex, numItems, table, false );
   \                     ??ZDO_ProcessMgmtLqiReq_3:
   \   00039D                ; Setup parameters for call to function ZDP_MgmtLqiRsp
   \   00039D   75..00       MOV     ?V0 + 0,#0x0
   \   0003A0   78..         MOV     R0,#?V0 + 0
   \   0003A2   12....       LCALL   ?PUSH_XSTACK_I_ONE
   \   0003A5   7402         MOV     A,#0x2
   \   0003A7   12....       LCALL   ?XSTACK_DISP0_8
   \   0003AA   12....       LCALL   ?PUSH_XSTACK8_X_TWO
   \   0003AD   E5..         MOV     A,?V0 + 1
   \   0003AF   F5..         MOV     ?V0 + 0,A
   \   0003B1   78..         MOV     R0,#?V0 + 0
   \   0003B3   12....       LCALL   ?PUSH_XSTACK_I_ONE
   \   0003B6   E5..         MOV     A,?V0 + 4
   \   0003B8   F5..         MOV     ?V0 + 0,A
   \   0003BA   78..         MOV     R0,#?V0 + 0
   \   0003BC   12....       LCALL   ?PUSH_XSTACK_I_ONE
   \   0003BF   7405         MOV     A,#0x5
   \   0003C1   12....       LCALL   ?XSTACK_DISP0_8
   \   0003C4   E0           MOVX    A,@DPTR
   \   0003C5   FD           MOV     R5,A
   \   0003C6   7C00         MOV     R4,#0x0
   \   0003C8   740A         MOV     A,#0xa
   \   0003CA   12....       LCALL   ?XSTACK_DISP0_8
   \   0003CD   E0           MOVX    A,@DPTR
   \   0003CE   2402         ADD     A,#0x2
   \   0003D0   FA           MOV     R2,A
   \   0003D1   A3           INC     DPTR
   \   0003D2   E0           MOVX    A,@DPTR
   \   0003D3   3400         ADDC    A,#0x0
   \   0003D5   FB           MOV     R3,A
   \   0003D6   740A         MOV     A,#0xa
   \   0003D8   12....       LCALL   ?XSTACK_DISP0_8
   \   0003DB   E0           MOVX    A,@DPTR
   \   0003DC   240F         ADD     A,#0xf
   \   0003DE   F8           MOV     R0,A
   \   0003DF   A3           INC     DPTR
   \   0003E0   E0           MOVX    A,@DPTR
   \   0003E1   3400         ADDC    A,#0x0
   \   0003E3   F9           MOV     R1,A
   \   0003E4   8882         MOV     DPL,R0
   \   0003E6   8983         MOV     DPH,R1
   \   0003E8   E0           MOVX    A,@DPTR
   \   0003E9   F9           MOV     R1,A
   \   0003EA   12....       LCALL   ??ZDP_MgmtLqiRsp?relay
   \   0003ED   7405         MOV     A,#0x5
   \   0003EF   12....       LCALL   ?DEALLOC_XSTACK8
   1236          
   1237            if ( table )
   \   0003F2   7401         MOV     A,#0x1
   \   0003F4   12....       LCALL   ?XSTACK_DISP0_8
   \   0003F7   E0           MOVX    A,@DPTR
   \   0003F8   7002         JNZ     ??ZDO_ProcessMgmtLqiReq_22
   \   0003FA   A3           INC     DPTR
   \   0003FB   E0           MOVX    A,@DPTR
   \                     ??ZDO_ProcessMgmtLqiReq_22:
   \   0003FC   600D         JZ      ??ZDO_ProcessMgmtLqiReq_23
   1238            {
   1239              osal_mem_free( table );
   \   0003FE                ; Setup parameters for call to function osal_mem_free
   \   0003FE   7401         MOV     A,#0x1
   \   000400   12....       LCALL   ?XSTACK_DISP0_8
   \   000403   E0           MOVX    A,@DPTR
   \   000404   FA           MOV     R2,A
   \   000405   A3           INC     DPTR
   \   000406   E0           MOVX    A,@DPTR
   \   000407   FB           MOV     R3,A
   \   000408   12....       LCALL   ??osal_mem_free?relay
   1240            }
   1241          }
   \                     ??ZDO_ProcessMgmtLqiReq_23:
   \   00040B   742B         MOV     A,#0x2b
   \   00040D   12....       LCALL   ?DEALLOC_XSTACK8
   \   000410   7F08         MOV     R7,#0x8
   \   000412   02....       LJMP    ?BANKED_LEAVE_XDATA
   1242          
   1243          /*********************************************************************
   1244           * @fn          ZDO_ProcessMgmtNwkDiscReq
   1245           *
   1246           * @brief       This function handles parsing the incoming Management
   1247           *              Network Discover request and starts the request.
   1248           *
   1249           * @param       inMsg - incoming message (request)
   1250           *
   1251           * @return      none
   1252           */

   \                                 In  segment BANKED_CODE, align 1, keep-with-next
   1253          void ZDO_ProcessMgmtNwkDiscReq( zdoIncomingMsg_t *inMsg )
   \                     ZDO_ProcessMgmtNwkDiscReq:
   1254          {
   \   000000   74F2         MOV     A,#-0xe
   \   000002   12....       LCALL   ?BANKED_ENTER_XDATA
   \   000005                ; Saved register size: 14
   \   000005                ; Auto size: 7
   \   000005   74F9         MOV     A,#-0x7
   \   000007   12....       LCALL   ?ALLOC_XSTACK8
   \   00000A   8A..         MOV     ?V0 + 4,R2
   \   00000C   8B..         MOV     ?V0 + 5,R3
   1255            NLME_ScanFields_t scan;
   1256            uint8             index;
   1257            uint8             *msg;
   1258          
   1259            msg = inMsg->asdu;
   \   00000E   EA           MOV     A,R2
   \   00000F   2413         ADD     A,#0x13
   \   000011   F582         MOV     DPL,A
   \   000013   EB           MOV     A,R3
   \   000014   3400         ADDC    A,#0x0
   \   000016   F583         MOV     DPH,A
   \   000018   E0           MOVX    A,@DPTR
   \   000019   FE           MOV     R6,A
   \   00001A   A3           INC     DPTR
   \   00001B   E0           MOVX    A,@DPTR
   \   00001C   FF           MOV     R7,A
   1260            scan.channels = osal_build_uint32( msg, 4 );
   \   00001D                ; Setup parameters for call to function osal_build_uint32
   \   00001D   7904         MOV     R1,#0x4
   \   00001F   EE           MOV     A,R6
   \   000020   FA           MOV     R2,A
   \   000021   EF           MOV     A,R7
   \   000022   FB           MOV     R3,A
   \   000023   12....       LCALL   ??osal_build_uint32?relay
   \   000026   85..82       MOV     DPL,?XSP + 0
   \   000029   85..83       MOV     DPH,?XSP + 1
   \   00002C   EA           MOV     A,R2
   \   00002D   F0           MOVX    @DPTR,A
   \   00002E   A3           INC     DPTR
   \   00002F   EB           MOV     A,R3
   \   000030   F0           MOVX    @DPTR,A
   \   000031   A3           INC     DPTR
   \   000032   EC           MOV     A,R4
   \   000033   F0           MOVX    @DPTR,A
   \   000034   A3           INC     DPTR
   \   000035   ED           MOV     A,R5
   \   000036   F0           MOVX    @DPTR,A
   1261            msg += 4;
   \   000037   EE           MOV     A,R6
   \   000038   2404         ADD     A,#0x4
   \   00003A   FE           MOV     R6,A
   \   00003B   EF           MOV     A,R7
   \   00003C   3400         ADDC    A,#0x0
   \   00003E   FF           MOV     R7,A
   1262            scan.duration = *msg++;
   \   00003F   8E82         MOV     DPL,R6
   \   000041   8F83         MOV     DPH,R7
   \   000043   E0           MOVX    A,@DPTR
   \   000044   C0E0         PUSH    A
   \   000046   7404         MOV     A,#0x4
   \   000048   12....       LCALL   ?XSTACK_DISP0_8
   \   00004B   D0E0         POP     A
   \   00004D   F0           MOVX    @DPTR,A
   \   00004E   8E82         MOV     DPL,R6
   \   000050   8F83         MOV     DPH,R7
   \   000052   A3           INC     DPTR
   1263            index         = *msg;
   \   000053   E0           MOVX    A,@DPTR
   \   000054   FA           MOV     R2,A
   1264            scan.scanType = ZMAC_ACTIVE_SCAN;
   \   000055   7401         MOV     A,#0x1
   \   000057   C0E0         PUSH    A
   \   000059   7405         MOV     A,#0x5
   \   00005B   12....       LCALL   ?XSTACK_DISP0_8
   \   00005E   D0E0         POP     A
   \   000060   F0           MOVX    @DPTR,A
   1265            scan.scanApp  = NLME_DISC_SCAN;
   \   000061   7401         MOV     A,#0x1
   \   000063   C0E0         PUSH    A
   \   000065   7406         MOV     A,#0x6
   \   000067   12....       LCALL   ?XSTACK_DISP0_8
   \   00006A   D0E0         POP     A
   \   00006C   F0           MOVX    @DPTR,A
   1266          
   1267            // Save off the information to be used for the response
   1268            zdappMgmtNwkDiscReqInProgress          = true;
   \   00006D   7401         MOV     A,#0x1
   \   00006F   90....       MOV     DPTR,#zdappMgmtNwkDiscReqInProgress
   \   000072   F0           MOVX    @DPTR,A
   1269            zdappMgmtNwkDiscRspAddr.addrMode       = Addr16Bit;
   \   000073   7402         MOV     A,#0x2
   \   000075   90....       MOV     DPTR,#(zdappMgmtNwkDiscRspAddr + 8)
   \   000078   F0           MOVX    @DPTR,A
   1270            zdappMgmtNwkDiscRspAddr.addr.shortAddr = inMsg->srcAddr.addr.shortAddr;
   \   000079   85..82       MOV     DPL,?V0 + 4
   \   00007C   85..83       MOV     DPH,?V0 + 5
   \   00007F   A3           INC     DPTR
   \   000080   A3           INC     DPTR
   \   000081   E0           MOVX    A,@DPTR
   \   000082   F8           MOV     R0,A
   \   000083   A3           INC     DPTR
   \   000084   E0           MOVX    A,@DPTR
   \   000085   F9           MOV     R1,A
   \   000086   90....       MOV     DPTR,#zdappMgmtNwkDiscRspAddr
   \   000089   E8           MOV     A,R0
   \   00008A   F0           MOVX    @DPTR,A
   \   00008B   A3           INC     DPTR
   \   00008C   E9           MOV     A,R1
   \   00008D   F0           MOVX    @DPTR,A
   1271            zdappMgmtNwkDiscStartIndex             = index;
   \   00008E   EA           MOV     A,R2
   \   00008F   90....       MOV     DPTR,#zdappMgmtNwkDiscStartIndex
   \   000092   F0           MOVX    @DPTR,A
   1272            zdappMgmtNwkDiscRspTransSeq            = inMsg->TransSeq;
   \   000093   E5..         MOV     A,?V0 + 4
   \   000095   240F         ADD     A,#0xf
   \   000097   F582         MOV     DPL,A
   \   000099   E5..         MOV     A,?V0 + 5
   \   00009B   3400         ADDC    A,#0x0
   \   00009D   F583         MOV     DPH,A
   \   00009F   E0           MOVX    A,@DPTR
   \   0000A0   90....       MOV     DPTR,#zdappMgmtNwkDiscRspTransSeq
   \   0000A3   F0           MOVX    @DPTR,A
   1273          
   1274            if ( NLME_NwkDiscReq2( &scan ) != ZSuccess )
   \   0000A4                ; Setup parameters for call to function NLME_NwkDiscReq2
   \   0000A4   85..82       MOV     DPL,?XSP + 0
   \   0000A7   85..83       MOV     DPH,?XSP + 1
   \   0000AA   AA82         MOV     R2,DPL
   \   0000AC   AB83         MOV     R3,DPH
   \   0000AE   12....       LCALL   ??NLME_NwkDiscReq2?relay
   \   0000B1   E9           MOV     A,R1
   \   0000B2   6003         JZ      ??ZDO_ProcessMgmtNwkDiscReq_0
   1275            {
   1276              NLME_NwkDiscTerm();
   \   0000B4                ; Setup parameters for call to function NLME_NwkDiscTerm
   \   0000B4   12....       LCALL   ??NLME_NwkDiscTerm?relay
   1277          
   1278              // zdappMgmtNwkDiscReqInProgress will be reset in the confirm callback
   1279            }
   1280          }
   \                     ??ZDO_ProcessMgmtNwkDiscReq_0:
   \   0000B7   7407         MOV     A,#0x7
   \   0000B9   12....       LCALL   ?DEALLOC_XSTACK8
   \   0000BC   7F06         MOV     R7,#0x6
   \   0000BE   02....       LJMP    ?BANKED_LEAVE_XDATA
   1281          
   1282          #if defined ( ZDO_MGMT_NWKDISC_RESPONSE )
   1283          /*********************************************************************
   1284           * @fn          ZDO_FinishProcessingMgmtNwkDiscReq
   1285           *
   1286           * @brief       This function finishes the processing of the Management
   1287           *              Network Discover Request and generates the response.
   1288           *
   1289           *   Note:      This function will limit the number of items returned
   1290           *              to ZDO_MAX_NWKDISC_ITEMS items.
   1291           *
   1292           * @param       ResultCountSrcAddr - source of the request
   1293           * @param       msg - pointer to incoming message
   1294           * @param       SecurityUse -
   1295           *
   1296           * @return      none
   1297           */
   1298          void ZDO_FinishProcessingMgmtNwkDiscReq( byte ResultCount,
   1299                                                   networkDesc_t *NetworkList )
   1300          {
   1301            byte count, i;
   1302            networkDesc_t *newDesc = NULL, *pList = NetworkList;
   1303          
   1304            if ( ZSTACK_ROUTER_BUILD )
   1305            {
   1306              // Look for my PanID.
   1307              while ( pList )
   1308              {
   1309                if ( pList->panId == _NIB.nwkPanId )
   1310                {
   1311                  break;
   1312                }
   1313          
   1314          
   1315                if ( !pList->nextDesc )
   1316                {
   1317                  break;
   1318                }
   1319                pList = pList->nextDesc;
   1320              }
   1321          
   1322          
   1323              // If my Pan not present (query to a star network ZC or an isolated ZR?),
   1324              // prepend it.
   1325              if ( !pList || (pList->panId != _NIB.nwkPanId) )
   1326              {
   1327                newDesc = (networkDesc_t *)osal_mem_alloc( sizeof( networkDesc_t ) );
   1328                if ( newDesc )
   1329                {
   1330                  byte pJoin;
   1331          
   1332                  newDesc->panId = _NIB.nwkPanId;
   1333                  newDesc->logicalChannel = _NIB.nwkLogicalChannel;
   1334                  newDesc->beaconOrder = _NIB.beaconOrder;
   1335                  newDesc->superFrameOrder = _NIB.superFrameOrder;
   1336                  newDesc->version = NLME_GetProtocolVersion();
   1337                  newDesc->stackProfile = zgStackProfile;
   1338                  //Extended PanID
   1339                  osal_cpyExtAddr( newDesc->extendedPANID, _NIB.extendedPANID);
   1340          
   1341                  ZMacGetReq( ZMacAssociationPermit, &pJoin );
   1342                  newDesc->chosenRouter = ((pJoin) ? ZDAppNwkAddr.addr.shortAddr :
   1343                                                     INVALID_NODE_ADDR);
   1344          
   1345                  newDesc->nextDesc = NetworkList;
   1346                  NetworkList = newDesc;
   1347                  ResultCount++;
   1348                }
   1349              }
   1350            }
   1351          
   1352            // Calc the count and apply a max count.
   1353            if ( zdappMgmtNwkDiscStartIndex > ResultCount )
   1354            {
   1355              count = 0;
   1356            }
   1357            else
   1358            {
   1359              count = ResultCount - zdappMgmtNwkDiscStartIndex;
   1360              if ( count > ZDO_MAX_NWKDISC_ITEMS )
   1361              {
   1362                count = ZDO_MAX_NWKDISC_ITEMS;
   1363              }
   1364          
   1365              // Move the list pointer up to the start index.
   1366              for ( i = 0; i < zdappMgmtNwkDiscStartIndex; i++ )
   1367              {
   1368                NetworkList = NetworkList->nextDesc;
   1369              }
   1370            }
   1371          
   1372            ZDP_MgmtNwkDiscRsp( zdappMgmtNwkDiscRspTransSeq,
   1373                               &zdappMgmtNwkDiscRspAddr, ZSuccess, ResultCount,
   1374                                zdappMgmtNwkDiscStartIndex,
   1375                                count,
   1376                                NetworkList,
   1377                                false );
   1378          
   1379            if ( ZSTACK_ROUTER_BUILD )
   1380            {
   1381              if ( newDesc != NULL )
   1382              {
   1383                osal_mem_free( newDesc );
   1384              }
   1385            }
   1386          
   1387            NLME_NwkDiscTerm();
   1388          }
   1389          #endif
   1390          
   1391          /*********************************************************************
   1392           * @fn          ZDO_ProcessMgmtRtgReq
   1393           *
   1394           * @brief       This function finishes the processing of the Management
   1395           *              Routing Request and generates the response.
   1396           *
   1397           *   Note:      This function will limit the number of items returned
   1398           *              to ZDO_MAX_RTG_ITEMS items.
   1399           *
   1400           * @param       inMsg - incoming message (request)
   1401           *
   1402           * @return      none
   1403           */

   \                                 In  segment BANKED_CODE, align 1, keep-with-next
   1404          void ZDO_ProcessMgmtRtgReq( zdoIncomingMsg_t *inMsg )
   \                     ZDO_ProcessMgmtRtgReq:
   1405          {
   \   000000   74F0         MOV     A,#-0x10
   \   000002   12....       LCALL   ?BANKED_ENTER_XDATA
   \   000005                ; Saved register size: 16
   \   000005                ; Auto size: 5
   \   000005   74FB         MOV     A,#-0x5
   \   000007   12....       LCALL   ?ALLOC_XSTACK8
   \   00000A   7403         MOV     A,#0x3
   \   00000C   12....       LCALL   ?XSTACK_DISP0_8
   \   00000F   EA           MOV     A,R2
   \   000010   F0           MOVX    @DPTR,A
   \   000011   A3           INC     DPTR
   \   000012   EB           MOV     A,R3
   \   000013   F0           MOVX    @DPTR,A
   1406            byte x;
   1407            byte maxNumItems;
   1408            byte numItems = 0;
   \   000014   7E00         MOV     R6,#0x0
   1409            uint8 *pBuf = NULL;
   \   000016   8E..         MOV     ?V0 + 6,R6
   \   000018   8E..         MOV     ?V0 + 7,R6
   1410            rtgItem_t *pList;
   1411            uint8 StartIndex = inMsg->asdu[0];
   \   00001A   7403         MOV     A,#0x3
   \   00001C   12....       LCALL   ?XSTACK_DISP0_8
   \   00001F   E0           MOVX    A,@DPTR
   \   000020   2413         ADD     A,#0x13
   \   000022   F8           MOV     R0,A
   \   000023   A3           INC     DPTR
   \   000024   E0           MOVX    A,@DPTR
   \   000025   3400         ADDC    A,#0x0
   \   000027   F9           MOV     R1,A
   \   000028   8882         MOV     DPL,R0
   \   00002A   8983         MOV     DPH,R1
   \   00002C   E0           MOVX    A,@DPTR
   \   00002D   F8           MOV     R0,A
   \   00002E   A3           INC     DPTR
   \   00002F   E0           MOVX    A,@DPTR
   \   000030   F583         MOV     DPH,A
   \   000032   8882         MOV     DPL,R0
   \   000034   E0           MOVX    A,@DPTR
   \   000035   F5..         MOV     ?V0 + 4,A
   1412          
   1413            // Get the number of table items
   1414            NLME_GetRequest( nwkNumRoutingTableEntries, 0, &maxNumItems );
   \   000037                ; Setup parameters for call to function NLME_GetRequest
   \   000037   85..82       MOV     DPL,?XSP + 0
   \   00003A   85..83       MOV     DPH,?XSP + 1
   \   00003D   AC82         MOV     R4,DPL
   \   00003F   AD83         MOV     R5,DPH
   \   000041   7A00         MOV     R2,#0x0
   \   000043   7B00         MOV     R3,#0x0
   \   000045   799D         MOV     R1,#-0x63
   \   000047   12....       LCALL   ??NLME_GetRequest?relay
   1415          
   1416            if ( maxNumItems > StartIndex )
   \   00004A   85..82       MOV     DPL,?XSP + 0
   \   00004D   85..83       MOV     DPH,?XSP + 1
   \   000050   E0           MOVX    A,@DPTR
   \   000051   FA           MOV     R2,A
   \   000052   E5..         MOV     A,?V0 + 4
   \   000054   C3           CLR     C
   \   000055   9A           SUBB    A,R2
   \   000056   4003         JC      $+5
   \   000058   02....       LJMP    ??ZDO_ProcessMgmtRtgReq_0 & 0xFFFF
   1417            {
   1418              numItems = maxNumItems - StartIndex;    // Start at the passed in index
   \   00005B   E0           MOVX    A,@DPTR
   \   00005C   C3           CLR     C
   \   00005D   95..         SUBB    A,?V0 + 4
   \   00005F   FE           MOV     R6,A
   1419          
   1420              // limit the size of the list
   1421              if ( numItems > ZDO_MAX_RTG_ITEMS )
   \   000060   C3           CLR     C
   \   000061   940B         SUBB    A,#0xb
   \   000063   4002         JC      ??ZDO_ProcessMgmtRtgReq_1
   1422              {
   1423                numItems = ZDO_MAX_RTG_ITEMS;
   \   000065   7E0A         MOV     R6,#0xa
   1424              }
   1425          
   1426              // Allocate the memory to build the table
   1427              pBuf = osal_mem_alloc( (short)(sizeof( rtgItem_t ) * numItems) );
   \                     ??ZDO_ProcessMgmtRtgReq_1:
   \   000067                ; Setup parameters for call to function osal_mem_alloc
   \   000067   EE           MOV     A,R6
   \   000068   75F006       MOV     B,#0x6
   \   00006B   A4           MUL     AB
   \   00006C   FA           MOV     R2,A
   \   00006D   ABF0         MOV     R3,B
   \   00006F   12....       LCALL   ??osal_mem_alloc?relay
   \   000072   8A..         MOV     ?V0 + 6,R2
   \   000074   8B..         MOV     ?V0 + 7,R3
   1428          
   1429              if ( pBuf != NULL )
   \   000076   EA           MOV     A,R2
   \   000077   7001         JNZ     ??ZDO_ProcessMgmtRtgReq_2
   \   000079   EB           MOV     A,R3
   \                     ??ZDO_ProcessMgmtRtgReq_2:
   \   00007A   607E         JZ      ??ZDO_ProcessMgmtRtgReq_3
   1430              {
   1431                // Convert buffer to list
   1432                pList = (rtgItem_t *)pBuf;
   \   00007C   7401         MOV     A,#0x1
   \   00007E   12....       LCALL   ?XSTACK_DISP0_8
   \   000081   EA           MOV     A,R2
   \   000082   F0           MOVX    @DPTR,A
   \   000083   A3           INC     DPTR
   \   000084   EB           MOV     A,R3
   \   000085   F0           MOVX    @DPTR,A
   1433          
   1434                // Loop through items and build list
   1435                for ( x = 0; x < numItems; x++ )
   \   000086   7F00         MOV     R7,#0x0
   \   000088   8027         SJMP    ??ZDO_ProcessMgmtRtgReq_4
   1436                {
   1437                  NLME_GetRequest( nwkRoutingTable, (uint16)(x + StartIndex), (void*)pList );
   1438          
   1439                  // Remap the status to the RoutingTableList Record Format defined in the ZigBee spec
   1440                  switch( pList->status )
   1441                  {
   1442                    case RT_ACTIVE:
   1443                      pList->status = ZDO_MGMT_RTG_ENTRY_ACTIVE;
   1444                      break;
   1445          
   1446                    case RT_DISC:
   1447                      pList->status = ZDO_MGMT_RTG_ENTRY_DISCOVERY_UNDERWAY;
   1448                      break;
   1449          
   1450                    case RT_LINK_FAIL:
   1451                      pList->status = ZDO_MGMT_RTG_ENTRY_DISCOVERY_FAILED;
   \                     ??ZDO_ProcessMgmtRtgReq_5:
   \   00008A   7402         MOV     A,#0x2
   \   00008C   8882         MOV     DPL,R0
   \   00008E   8983         MOV     DPH,R1
   \   000090   F0           MOVX    @DPTR,A
   1452          
   1453                    case RT_INIT:
   1454                    case RT_REPAIR:
   1455                    default:
   1456                      pList->status = ZDO_MGMT_RTG_ENTRY_INACTIVE;
   \                     ??ZDO_ProcessMgmtRtgReq_6:
   \   000091   7403         MOV     A,#0x3
   \                     ??ZDO_ProcessMgmtRtgReq_7:
   \   000093   8882         MOV     DPL,R0
   \   000095   8983         MOV     DPH,R1
   \   000097   F0           MOVX    @DPTR,A
   1457                      break;
   1458                  }
   1459          
   1460                  // Increment pointer to next record
   1461                  pList++;
   \   000098   7401         MOV     A,#0x1
   \   00009A   12....       LCALL   ?XSTACK_DISP0_8
   \   00009D   E0           MOVX    A,@DPTR
   \   00009E   2406         ADD     A,#0x6
   \   0000A0   F8           MOV     R0,A
   \   0000A1   A3           INC     DPTR
   \   0000A2   E0           MOVX    A,@DPTR
   \   0000A3   3400         ADDC    A,#0x0
   \   0000A5   F9           MOV     R1,A
   \   0000A6   7401         MOV     A,#0x1
   \   0000A8   12....       LCALL   ?XSTACK_DISP0_8
   \   0000AB   E8           MOV     A,R0
   \   0000AC   F0           MOVX    @DPTR,A
   \   0000AD   A3           INC     DPTR
   \   0000AE   E9           MOV     A,R1
   \   0000AF   F0           MOVX    @DPTR,A
   \   0000B0   0F           INC     R7
   \                     ??ZDO_ProcessMgmtRtgReq_4:
   \   0000B1   EF           MOV     A,R7
   \   0000B2   C3           CLR     C
   \   0000B3   9E           SUBB    A,R6
   \   0000B4   5046         JNC     ??ZDO_ProcessMgmtRtgReq_0
   \   0000B6                ; Setup parameters for call to function NLME_GetRequest
   \   0000B6   7401         MOV     A,#0x1
   \   0000B8   12....       LCALL   ?XSTACK_DISP0_8
   \   0000BB   E0           MOVX    A,@DPTR
   \   0000BC   FC           MOV     R4,A
   \   0000BD   A3           INC     DPTR
   \   0000BE   E0           MOVX    A,@DPTR
   \   0000BF   FD           MOV     R5,A
   \   0000C0   8F..         MOV     ?V0 + 2,R7
   \   0000C2   85....       MOV     ?V0 + 0,?V0 + 4
   \   0000C5   E5..         MOV     A,?V0 + 0
   \   0000C7   25..         ADD     A,?V0 + 2
   \   0000C9   FA           MOV     R2,A
   \   0000CA   E4           CLR     A
   \   0000CB   3400         ADDC    A,#0x0
   \   0000CD   FB           MOV     R3,A
   \   0000CE   798B         MOV     R1,#-0x75
   \   0000D0   12....       LCALL   ??NLME_GetRequest?relay
   \   0000D3   7401         MOV     A,#0x1
   \   0000D5   12....       LCALL   ?XSTACK_DISP0_8
   \   0000D8   E0           MOVX    A,@DPTR
   \   0000D9   2405         ADD     A,#0x5
   \   0000DB   F8           MOV     R0,A
   \   0000DC   A3           INC     DPTR
   \   0000DD   E0           MOVX    A,@DPTR
   \   0000DE   3400         ADDC    A,#0x0
   \   0000E0   F9           MOV     R1,A
   \   0000E1   8882         MOV     DPL,R0
   \   0000E3   8983         MOV     DPH,R1
   \   0000E5   E0           MOVX    A,@DPTR
   \   0000E6   12....       LCALL   ?UC_SWITCH_DENSE
   \                     `?<Jumptable for ZDO_ProcessMgmtRtgReq>_0`:
   \   0000E9   01           DB        1
   \   0000EA   02           DB        2
   \   0000EB   ....         DW        ??ZDO_ProcessMgmtRtgReq_6
   \   0000ED   ....         DW        ??ZDO_ProcessMgmtRtgReq_8
   \   0000EF   ....         DW        ??ZDO_ProcessMgmtRtgReq_9
   \   0000F1   ....         DW        ??ZDO_ProcessMgmtRtgReq_5
   \                     ??ZDO_ProcessMgmtRtgReq_8:
   \   0000F3   E4           CLR     A
   \   0000F4   809D         SJMP    ??ZDO_ProcessMgmtRtgReq_7
   \                     ??ZDO_ProcessMgmtRtgReq_9:
   \   0000F6   7401         MOV     A,#0x1
   \   0000F8   8099         SJMP    ??ZDO_ProcessMgmtRtgReq_7
   1462                }
   1463              }
   1464              else
   1465              {
   1466                numItems = 0;
   \                     ??ZDO_ProcessMgmtRtgReq_3:
   \   0000FA   7E00         MOV     R6,#0x0
   1467              }
   1468            }
   1469          
   1470            // Send response
   1471            ZDP_MgmtRtgRsp( inMsg->TransSeq, &(inMsg->srcAddr), ZSuccess, maxNumItems, StartIndex, numItems,
   1472                                  (rtgItem_t *)pBuf, false );
   \                     ??ZDO_ProcessMgmtRtgReq_0:
   \   0000FC                ; Setup parameters for call to function ZDP_MgmtRtgRsp
   \   0000FC   75..00       MOV     ?V0 + 0,#0x0
   \   0000FF   78..         MOV     R0,#?V0 + 0
   \   000101   12....       LCALL   ?PUSH_XSTACK_I_ONE
   \   000104   78..         MOV     R0,#?V0 + 6
   \   000106   12....       LCALL   ?PUSH_XSTACK_I_TWO
   \   000109   EE           MOV     A,R6
   \   00010A   F5..         MOV     ?V0 + 0,A
   \   00010C   78..         MOV     R0,#?V0 + 0
   \   00010E   12....       LCALL   ?PUSH_XSTACK_I_ONE
   \   000111   E5..         MOV     A,?V0 + 4
   \   000113   F5..         MOV     ?V0 + 0,A
   \   000115   78..         MOV     R0,#?V0 + 0
   \   000117   12....       LCALL   ?PUSH_XSTACK_I_ONE
   \   00011A   7405         MOV     A,#0x5
   \   00011C   12....       LCALL   ?XSTACK_DISP0_8
   \   00011F   E0           MOVX    A,@DPTR
   \   000120   FD           MOV     R5,A
   \   000121   7C00         MOV     R4,#0x0
   \   000123   7408         MOV     A,#0x8
   \   000125   12....       LCALL   ?XSTACK_DISP0_8
   \   000128   E0           MOVX    A,@DPTR
   \   000129   2402         ADD     A,#0x2
   \   00012B   FA           MOV     R2,A
   \   00012C   A3           INC     DPTR
   \   00012D   E0           MOVX    A,@DPTR
   \   00012E   3400         ADDC    A,#0x0
   \   000130   FB           MOV     R3,A
   \   000131   7408         MOV     A,#0x8
   \   000133   12....       LCALL   ?XSTACK_DISP0_8
   \   000136   E0           MOVX    A,@DPTR
   \   000137   240F         ADD     A,#0xf
   \   000139   F8           MOV     R0,A
   \   00013A   A3           INC     DPTR
   \   00013B   E0           MOVX    A,@DPTR
   \   00013C   3400         ADDC    A,#0x0
   \   00013E   F9           MOV     R1,A
   \   00013F   8882         MOV     DPL,R0
   \   000141   8983         MOV     DPH,R1
   \   000143   E0           MOVX    A,@DPTR
   \   000144   F9           MOV     R1,A
   \   000145   12....       LCALL   ??ZDP_MgmtRtgRsp?relay
   \   000148   7405         MOV     A,#0x5
   \   00014A   12....       LCALL   ?DEALLOC_XSTACK8
   1473          
   1474            if ( pBuf )
   \   00014D   E5..         MOV     A,?V0 + 6
   \   00014F   7002         JNZ     ??ZDO_ProcessMgmtRtgReq_10
   \   000151   E5..         MOV     A,?V0 + 7
   \                     ??ZDO_ProcessMgmtRtgReq_10:
   \   000153   6007         JZ      ??ZDO_ProcessMgmtRtgReq_11
   1475            {
   1476              osal_mem_free( pBuf );
   \   000155                ; Setup parameters for call to function osal_mem_free
   \   000155   AA..         MOV     R2,?V0 + 6
   \   000157   AB..         MOV     R3,?V0 + 7
   \   000159   12....       LCALL   ??osal_mem_free?relay
   1477            }
   1478          }
   \                     ??ZDO_ProcessMgmtRtgReq_11:
   \   00015C   7405         MOV     A,#0x5
   \   00015E   12....       LCALL   ?DEALLOC_XSTACK8
   \   000161   7F08         MOV     R7,#0x8
   \   000163   02....       LJMP    ?BANKED_LEAVE_XDATA
   1479          
   1480          /*********************************************************************
   1481           * @fn          ZDO_ProcessMgmtBindReq
   1482           *
   1483           * @brief       This function finishes the processing of the Management
   1484           *              Bind Request and generates the response.
   1485           *
   1486           *   Note:      This function will limit the number of items returned
   1487           *              to ZDO_MAX_BIND_ITEMS items.
   1488           *
   1489           * @param       inMsg - incoming message (request)
   1490           *
   1491           * @return      none
   1492           */

   \                                 In  segment BANKED_CODE, align 1, keep-with-next
   1493          void ZDO_ProcessMgmtBindReq( zdoIncomingMsg_t *inMsg )
   \                     ZDO_ProcessMgmtBindReq:
   1494          {
   \   000000   74F1         MOV     A,#-0xf
   \   000002   12....       LCALL   ?BANKED_ENTER_XDATA
   \   000005                ; Saved register size: 15
   \   000005                ; Auto size: 8
   \   000005   74F8         MOV     A,#-0x8
   \   000007   12....       LCALL   ?ALLOC_XSTACK8
   \   00000A   7406         MOV     A,#0x6
   \   00000C   12....       LCALL   ?XSTACK_DISP0_8
   \   00000F   EA           MOV     A,R2
   \   000010   F0           MOVX    @DPTR,A
   \   000011   A3           INC     DPTR
   \   000012   EB           MOV     A,R3
   \   000013   F0           MOVX    @DPTR,A
   1495          #if defined ( REFLECTOR )
   1496            byte x;
   1497            uint16 maxNumItems;
   1498            uint16 numItems;
   1499            uint8 *pBuf = NULL;
   \   000014   85..82       MOV     DPL,?XSP + 0
   \   000017   85..83       MOV     DPH,?XSP + 1
   \   00001A   E4           CLR     A
   \   00001B   F0           MOVX    @DPTR,A
   \   00001C   A3           INC     DPTR
   \   00001D   F0           MOVX    @DPTR,A
   1500            apsBindingItem_t *pList;
   1501            uint8 StartIndex = inMsg->asdu[0];
   \   00001E   7406         MOV     A,#0x6
   \   000020   12....       LCALL   ?XSTACK_DISP0_8
   \   000023   E0           MOVX    A,@DPTR
   \   000024   2413         ADD     A,#0x13
   \   000026   F8           MOV     R0,A
   \   000027   A3           INC     DPTR
   \   000028   E0           MOVX    A,@DPTR
   \   000029   3400         ADDC    A,#0x0
   \   00002B   F9           MOV     R1,A
   \   00002C   8882         MOV     DPL,R0
   \   00002E   8983         MOV     DPH,R1
   \   000030   E0           MOVX    A,@DPTR
   \   000031   F8           MOV     R0,A
   \   000032   A3           INC     DPTR
   \   000033   E0           MOVX    A,@DPTR
   \   000034   F583         MOV     DPH,A
   \   000036   8882         MOV     DPL,R0
   \   000038   E0           MOVX    A,@DPTR
   \   000039   F5..         MOV     ?V0 + 1,A
   1502            uint8 status;
   1503          
   1504            // Get the number of table items
   1505            APSME_GetRequest( apsNumBindingTableEntries, 0, (byte*)(&maxNumItems) );
   \   00003B                ; Setup parameters for call to function APSME_GetRequest
   \   00003B   7402         MOV     A,#0x2
   \   00003D   12....       LCALL   ?XSTACK_DISP0_8
   \   000040   AC82         MOV     R4,DPL
   \   000042   AD83         MOV     R5,DPH
   \   000044   7A00         MOV     R2,#0x0
   \   000046   7B00         MOV     R3,#0x0
   \   000048   79A3         MOV     R1,#-0x5d
   \   00004A   12....       LCALL   ??APSME_GetRequest?relay
   1506          
   1507            if ( maxNumItems > StartIndex )
   \   00004D   85..82       MOV     DPL,?V0 + 1
   \   000050   AA82         MOV     R2,DPL
   \   000052   7402         MOV     A,#0x2
   \   000054   12....       LCALL   ?XSTACK_DISP0_8
   \   000057   E0           MOVX    A,@DPTR
   \   000058   F8           MOV     R0,A
   \   000059   A3           INC     DPTR
   \   00005A   E0           MOVX    A,@DPTR
   \   00005B   F9           MOV     R1,A
   \   00005C   C3           CLR     C
   \   00005D   EA           MOV     A,R2
   \   00005E   98           SUBB    A,R0
   \   00005F   E4           CLR     A
   \   000060   99           SUBB    A,R1
   \   000061   5010         JNC     ??ZDO_ProcessMgmtBindReq_0
   1508            {
   1509              numItems = maxNumItems - StartIndex;    // Start at the passed in index
   \   000063   7402         MOV     A,#0x2
   \   000065   12....       LCALL   ?XSTACK_DISP0_8
   \   000068   E0           MOVX    A,@DPTR
   \   000069   C3           CLR     C
   \   00006A   9A           SUBB    A,R2
   \   00006B   FE           MOV     R6,A
   \   00006C   A3           INC     DPTR
   \   00006D   E0           MOVX    A,@DPTR
   \   00006E   9400         SUBB    A,#0x0
   \   000070   FF           MOV     R7,A
   \   000071   8004         SJMP    ??ZDO_ProcessMgmtBindReq_1
   1510            }
   1511            else
   1512            {
   1513              numItems = 0;
   \                     ??ZDO_ProcessMgmtBindReq_0:
   \   000073   7E00         MOV     R6,#0x0
   \   000075   7F00         MOV     R7,#0x0
   1514            }
   1515          
   1516            // limit the size of the list
   1517            if ( numItems > ZDO_MAX_BIND_ITEMS )
   \                     ??ZDO_ProcessMgmtBindReq_1:
   \   000077   C3           CLR     C
   \   000078   EE           MOV     A,R6
   \   000079   9404         SUBB    A,#0x4
   \   00007B   EF           MOV     A,R7
   \   00007C   9400         SUBB    A,#0x0
   \   00007E   4004         JC      ??ZDO_ProcessMgmtBindReq_2
   1518            {
   1519              numItems = ZDO_MAX_BIND_ITEMS;
   \   000080   7E03         MOV     R6,#0x3
   \   000082   7F00         MOV     R7,#0x0
   1520            }
   1521          
   1522            // Allocate the memory to build the table
   1523            if ( numItems && (pBuf = osal_mem_alloc( sizeof( apsBindingItem_t ) * numItems )) )
   \                     ??ZDO_ProcessMgmtBindReq_2:
   \   000084   EE           MOV     A,R6
   \   000085   7001         JNZ     ??ZDO_ProcessMgmtBindReq_3
   \   000087   EF           MOV     A,R7
   \                     ??ZDO_ProcessMgmtBindReq_3:
   \   000088   7003         JNZ     $+5
   \   00008A   02....       LJMP    ??ZDO_ProcessMgmtBindReq_4 & 0xFFFF
   \   00008D                ; Setup parameters for call to function osal_mem_alloc
   \   00008D   EE           MOV     A,R6
   \   00008E   FA           MOV     R2,A
   \   00008F   EF           MOV     A,R7
   \   000090   FB           MOV     R3,A
   \   000091   EA           MOV     A,R2
   \   000092   75F015       MOV     B,#0x15
   \   000095   A4           MUL     AB
   \   000096   FA           MOV     R2,A
   \   000097   ACF0         MOV     R4,B
   \   000099   75F015       MOV     B,#0x15
   \   00009C   EB           MOV     A,R3
   \   00009D   A4           MUL     AB
   \   00009E   2C           ADD     A,R4
   \   00009F   FB           MOV     R3,A
   \   0000A0   12....       LCALL   ??osal_mem_alloc?relay
   \   0000A3   85..82       MOV     DPL,?XSP + 0
   \   0000A6   85..83       MOV     DPH,?XSP + 1
   \   0000A9   EA           MOV     A,R2
   \   0000AA   F0           MOVX    @DPTR,A
   \   0000AB   A3           INC     DPTR
   \   0000AC   EB           MOV     A,R3
   \   0000AD   F0           MOVX    @DPTR,A
   \   0000AE   85..82       MOV     DPL,?XSP + 0
   \   0000B1   85..83       MOV     DPH,?XSP + 1
   \   0000B4   E0           MOVX    A,@DPTR
   \   0000B5   7002         JNZ     ??ZDO_ProcessMgmtBindReq_5
   \   0000B7   A3           INC     DPTR
   \   0000B8   E0           MOVX    A,@DPTR
   \                     ??ZDO_ProcessMgmtBindReq_5:
   \   0000B9   6060         JZ      ??ZDO_ProcessMgmtBindReq_4
   1524            {
   1525              status = ZSuccess;
   \   0000BB   75..00       MOV     ?V0 + 6,#0x0
   1526          
   1527              // Convert buffer to list
   1528              pList = (apsBindingItem_t *)pBuf;
   \   0000BE   85..82       MOV     DPL,?XSP + 0
   \   0000C1   85..83       MOV     DPH,?XSP + 1
   \   0000C4   E0           MOVX    A,@DPTR
   \   0000C5   F8           MOV     R0,A
   \   0000C6   A3           INC     DPTR
   \   0000C7   E0           MOVX    A,@DPTR
   \   0000C8   F9           MOV     R1,A
   \   0000C9   7404         MOV     A,#0x4
   \   0000CB   12....       LCALL   ?XSTACK_DISP0_8
   \   0000CE   E8           MOV     A,R0
   \   0000CF   F0           MOVX    @DPTR,A
   \   0000D0   A3           INC     DPTR
   \   0000D1   E9           MOV     A,R1
   \   0000D2   F0           MOVX    @DPTR,A
   1529          
   1530              // Loop through items and build list
   1531              for ( x = 0; x < numItems; x++ )
   \   0000D3   75..00       MOV     ?V0 + 0,#0x0
   \                     ??ZDO_ProcessMgmtBindReq_6:
   \   0000D6   85....       MOV     ?V0 + 2,?V0 + 0
   \   0000D9   C3           CLR     C
   \   0000DA   E5..         MOV     A,?V0 + 2
   \   0000DC   9E           SUBB    A,R6
   \   0000DD   E4           CLR     A
   \   0000DE   9F           SUBB    A,R7
   \   0000DF   503F         JNC     ??ZDO_ProcessMgmtBindReq_7
   1532              {
   1533                APSME_GetRequest( apsBindingTable, (x + StartIndex), (void*)pList );
   \   0000E1                ; Setup parameters for call to function APSME_GetRequest
   \   0000E1   7404         MOV     A,#0x4
   \   0000E3   12....       LCALL   ?XSTACK_DISP0_8
   \   0000E6   E0           MOVX    A,@DPTR
   \   0000E7   FC           MOV     R4,A
   \   0000E8   A3           INC     DPTR
   \   0000E9   E0           MOVX    A,@DPTR
   \   0000EA   FD           MOV     R5,A
   \   0000EB   85....       MOV     ?V0 + 4,?V0 + 0
   \   0000EE   85....       MOV     ?V0 + 2,?V0 + 1
   \   0000F1   E5..         MOV     A,?V0 + 2
   \   0000F3   25..         ADD     A,?V0 + 4
   \   0000F5   FA           MOV     R2,A
   \   0000F6   E4           CLR     A
   \   0000F7   3400         ADDC    A,#0x0
   \   0000F9   FB           MOV     R3,A
   \   0000FA   79A2         MOV     R1,#-0x5e
   \   0000FC   12....       LCALL   ??APSME_GetRequest?relay
   1534                pList++;
   \   0000FF   7404         MOV     A,#0x4
   \   000101   12....       LCALL   ?XSTACK_DISP0_8
   \   000104   E0           MOVX    A,@DPTR
   \   000105   2415         ADD     A,#0x15
   \   000107   F8           MOV     R0,A
   \   000108   A3           INC     DPTR
   \   000109   E0           MOVX    A,@DPTR
   \   00010A   3400         ADDC    A,#0x0
   \   00010C   F9           MOV     R1,A
   \   00010D   7404         MOV     A,#0x4
   \   00010F   12....       LCALL   ?XSTACK_DISP0_8
   \   000112   E8           MOV     A,R0
   \   000113   F0           MOVX    @DPTR,A
   \   000114   A3           INC     DPTR
   \   000115   E9           MOV     A,R1
   \   000116   F0           MOVX    @DPTR,A
   1535              }
   \   000117   05..         INC     ?V0 + 0
   \   000119   80BB         SJMP    ??ZDO_ProcessMgmtBindReq_6
   1536          
   1537            }
   1538            else
   1539            {
   1540              status = ZDP_NOT_PERMITTED;
   \                     ??ZDO_ProcessMgmtBindReq_4:
   \   00011B   75..8B       MOV     ?V0 + 6,#-0x75
   1541              numItems = 0;
   \   00011E   7E00         MOV     R6,#0x0
   1542            }
   1543          
   1544            // Send response
   1545            ZDP_MgmtBindRsp( inMsg->TransSeq, &(inMsg->srcAddr), status, (byte)maxNumItems, StartIndex,
   1546                             (byte)numItems, (apsBindingItem_t *)pBuf, false );
   \                     ??ZDO_ProcessMgmtBindReq_7:
   \   000120                ; Setup parameters for call to function ZDP_MgmtBindRsp
   \   000120   75..00       MOV     ?V0 + 0,#0x0
   \   000123   78..         MOV     R0,#?V0 + 0
   \   000125   12....       LCALL   ?PUSH_XSTACK_I_ONE
   \   000128   7401         MOV     A,#0x1
   \   00012A   12....       LCALL   ?XSTACK_DISP0_8
   \   00012D   12....       LCALL   ?PUSH_XSTACK8_X_TWO
   \   000130   EE           MOV     A,R6
   \   000131   F5..         MOV     ?V0 + 0,A
   \   000133   78..         MOV     R0,#?V0 + 0
   \   000135   12....       LCALL   ?PUSH_XSTACK_I_ONE
   \   000138   E5..         MOV     A,?V0 + 1
   \   00013A   F5..         MOV     ?V0 + 0,A
   \   00013C   78..         MOV     R0,#?V0 + 0
   \   00013E   12....       LCALL   ?PUSH_XSTACK_I_ONE
   \   000141   7407         MOV     A,#0x7
   \   000143   12....       LCALL   ?XSTACK_DISP0_8
   \   000146   E0           MOVX    A,@DPTR
   \   000147   FD           MOV     R5,A
   \   000148   AC..         MOV     R4,?V0 + 6
   \   00014A   740B         MOV     A,#0xb
   \   00014C   12....       LCALL   ?XSTACK_DISP0_8
   \   00014F   E0           MOVX    A,@DPTR
   \   000150   2402         ADD     A,#0x2
   \   000152   FA           MOV     R2,A
   \   000153   A3           INC     DPTR
   \   000154   E0           MOVX    A,@DPTR
   \   000155   3400         ADDC    A,#0x0
   \   000157   FB           MOV     R3,A
   \   000158   740B         MOV     A,#0xb
   \   00015A   12....       LCALL   ?XSTACK_DISP0_8
   \   00015D   E0           MOVX    A,@DPTR
   \   00015E   240F         ADD     A,#0xf
   \   000160   F8           MOV     R0,A
   \   000161   A3           INC     DPTR
   \   000162   E0           MOVX    A,@DPTR
   \   000163   3400         ADDC    A,#0x0
   \   000165   F9           MOV     R1,A
   \   000166   8882         MOV     DPL,R0
   \   000168   8983         MOV     DPH,R1
   \   00016A   E0           MOVX    A,@DPTR
   \   00016B   F9           MOV     R1,A
   \   00016C   12....       LCALL   ??ZDP_MgmtBindRsp?relay
   \   00016F   7405         MOV     A,#0x5
   \   000171   12....       LCALL   ?DEALLOC_XSTACK8
   1547          
   1548            if ( pBuf )
   \   000174   85..82       MOV     DPL,?XSP + 0
   \   000177   85..83       MOV     DPH,?XSP + 1
   \   00017A   E0           MOVX    A,@DPTR
   \   00017B   7002         JNZ     ??ZDO_ProcessMgmtBindReq_8
   \   00017D   A3           INC     DPTR
   \   00017E   E0           MOVX    A,@DPTR
   \                     ??ZDO_ProcessMgmtBindReq_8:
   \   00017F   600E         JZ      ??ZDO_ProcessMgmtBindReq_9
   1549            {
   1550              osal_mem_free( pBuf );
   \   000181                ; Setup parameters for call to function osal_mem_free
   \   000181   85..82       MOV     DPL,?XSP + 0
   \   000184   85..83       MOV     DPH,?XSP + 1
   \   000187   E0           MOVX    A,@DPTR
   \   000188   FA           MOV     R2,A
   \   000189   A3           INC     DPTR
   \   00018A   E0           MOVX    A,@DPTR
   \   00018B   FB           MOV     R3,A
   \   00018C   12....       LCALL   ??osal_mem_free?relay
   1551            }
   1552          #else
   1553            (void)inMsg;
   1554          #endif
   1555          }
   \                     ??ZDO_ProcessMgmtBindReq_9:
   \   00018F   7408         MOV     A,#0x8
   \   000191   12....       LCALL   ?DEALLOC_XSTACK8
   \   000194   7F07         MOV     R7,#0x7
   \   000196   02....       LJMP    ?BANKED_LEAVE_XDATA
   1556          
   1557          /*********************************************************************
   1558           * @fn          ZDO_ProcessMgmtDirectJoinReq
   1559           *
   1560           * @brief       This function finishes the processing of the Management
   1561           *              Direct Join Request and generates the response.
   1562           *
   1563           * @param       inMsg - incoming message (request)
   1564           *
   1565           * @return      none
   1566           */

   \                                 In  segment BANKED_CODE, align 1, keep-with-next
   1567          void ZDO_ProcessMgmtDirectJoinReq( zdoIncomingMsg_t *inMsg )
   \                     ZDO_ProcessMgmtDirectJoinReq:
   1568          {
   \   000000   74F6         MOV     A,#-0xa
   \   000002   12....       LCALL   ?BANKED_ENTER_XDATA
   \   000005                ; Saved register size: 10
   \   000005                ; Auto size: 1
   \   000005   74FF         MOV     A,#-0x1
   \   000007   12....       LCALL   ?ALLOC_XSTACK8
   \   00000A   EA           MOV     A,R2
   \   00000B   FE           MOV     R6,A
   \   00000C   EB           MOV     A,R3
   \   00000D   FF           MOV     R7,A
   1569            uint8 *deviceAddr;
   1570            uint8 capInfo;
   1571            uint8 stat;
   1572          
   1573            // Parse the message
   1574            deviceAddr = inMsg->asdu;
   1575            capInfo = inMsg->asdu[Z_EXTADDR_LEN];
   1576          
   1577            stat = (byte) NLME_DirectJoinRequest( deviceAddr, capInfo );
   \   00000E   EE           MOV     A,R6
   \   00000F   2413         ADD     A,#0x13
   \   000011   F8           MOV     R0,A
   \   000012   EF           MOV     A,R7
   \   000013   3400         ADDC    A,#0x0
   \   000015   F9           MOV     R1,A
   \   000016   E8           MOV     A,R0
   \   000017   FA           MOV     R2,A
   \   000018   E9           MOV     A,R1
   \   000019   FB           MOV     R3,A
   \   00001A                ; Setup parameters for call to function NLME_DirectJoinRequest
   \   00001A   8A82         MOV     DPL,R2
   \   00001C   8B83         MOV     DPH,R3
   \   00001E   E0           MOVX    A,@DPTR
   \   00001F   F8           MOV     R0,A
   \   000020   A3           INC     DPTR
   \   000021   E0           MOVX    A,@DPTR
   \   000022   F583         MOV     DPH,A
   \   000024   8882         MOV     DPL,R0
   \   000026   A3           INC     DPTR
   \   000027   A3           INC     DPTR
   \   000028   A3           INC     DPTR
   \   000029   A3           INC     DPTR
   \   00002A   A3           INC     DPTR
   \   00002B   A3           INC     DPTR
   \   00002C   A3           INC     DPTR
   \   00002D   A3           INC     DPTR
   \   00002E   E0           MOVX    A,@DPTR
   \   00002F   F9           MOV     R1,A
   \   000030   8A82         MOV     DPL,R2
   \   000032   8B83         MOV     DPH,R3
   \   000034   E0           MOVX    A,@DPTR
   \   000035   FA           MOV     R2,A
   \   000036   A3           INC     DPTR
   \   000037   E0           MOVX    A,@DPTR
   \   000038   FB           MOV     R3,A
   \   000039   12....       LCALL   ??NLME_DirectJoinRequest?relay
   \   00003C   E9           MOV     A,R1
   \   00003D   85..82       MOV     DPL,?XSP + 0
   \   000040   85..83       MOV     DPH,?XSP + 1
   \   000043   F0           MOVX    @DPTR,A
   1578          
   1579            ZDP_MgmtDirectJoinRsp( inMsg->TransSeq, &(inMsg->srcAddr), stat, false );
   \   000044                ; Setup parameters for call to function ZDP_SendData
   \   000044   75..00       MOV     ?V0 + 0,#0x0
   \   000047   78..         MOV     R0,#?V0 + 0
   \   000049   12....       LCALL   ?PUSH_XSTACK_I_ONE
   \   00004C   7401         MOV     A,#0x1
   \   00004E   12....       LCALL   ?XSTACK_DISP0_8
   \   000051   8582..       MOV     ?V0 + 0,DPL
   \   000054   8583..       MOV     ?V0 + 1,DPH
   \   000057   78..         MOV     R0,#?V0 + 0
   \   000059   12....       LCALL   ?PUSH_XSTACK_I_TWO
   \   00005C   75..35       MOV     ?V0 + 0,#0x35
   \   00005F   75..80       MOV     ?V0 + 1,#-0x80
   \   000062   78..         MOV     R0,#?V0 + 0
   \   000064   12....       LCALL   ?PUSH_XSTACK_I_TWO
   \   000067   7901         MOV     R1,#0x1
   \   000069   EE           MOV     A,R6
   \   00006A   2402         ADD     A,#0x2
   \   00006C   FC           MOV     R4,A
   \   00006D   EF           MOV     A,R7
   \   00006E   3400         ADDC    A,#0x0
   \   000070   FD           MOV     R5,A
   \   000071   EE           MOV     A,R6
   \   000072   240F         ADD     A,#0xf
   \   000074   FA           MOV     R2,A
   \   000075   EF           MOV     A,R7
   \   000076   3400         ADDC    A,#0x0
   \   000078   FB           MOV     R3,A
   \   000079   12....       LCALL   ??ZDP_SendData?relay
   \   00007C   7405         MOV     A,#0x5
   \   00007E   12....       LCALL   ?DEALLOC_XSTACK8
   1580          }
   \   000081   7401         MOV     A,#0x1
   \   000083   12....       LCALL   ?DEALLOC_XSTACK8
   \   000086   7F02         MOV     R7,#0x2
   \   000088   02....       LJMP    ?BANKED_LEAVE_XDATA
   1581          
   1582          /*********************************************************************
   1583           * @fn          ZDO_ProcessMgmtLeaveReq
   1584           *
   1585           * @brief       This function processes a Management Leave Request
   1586           *              and generates the response.
   1587           *
   1588           * @param       inMsg - incoming message (request)
   1589           *
   1590           * @return      none
   1591           */

   \                                 In  segment BANKED_CODE, align 1, keep-with-next
   1592          void ZDO_ProcessMgmtLeaveReq( zdoIncomingMsg_t *inMsg )
   \                     ZDO_ProcessMgmtLeaveReq:
   1593          {
   \   000000   74F4         MOV     A,#-0xc
   \   000002   12....       LCALL   ?BANKED_ENTER_XDATA
   \   000005                ; Saved register size: 12
   \   000005                ; Auto size: 6
   \   000005   74FA         MOV     A,#-0x6
   \   000007   12....       LCALL   ?ALLOC_XSTACK8
   \   00000A   8A..         MOV     ?V0 + 0,R2
   \   00000C   8B..         MOV     ?V0 + 1,R3
   1594            NLME_LeaveReq_t req;
   1595            ZStatus_t       status;
   1596            uint8           option;
   1597            uint8 *msg = inMsg->asdu;
   \   00000E   EA           MOV     A,R2
   \   00000F   2413         ADD     A,#0x13
   \   000011   F582         MOV     DPL,A
   \   000013   EB           MOV     A,R3
   \   000014   3400         ADDC    A,#0x0
   \   000016   F583         MOV     DPH,A
   \   000018   E0           MOVX    A,@DPTR
   \   000019   FE           MOV     R6,A
   \   00001A   A3           INC     DPTR
   \   00001B   E0           MOVX    A,@DPTR
   \   00001C   FF           MOV     R7,A
   1598          
   1599            if ( ( AddrMgrExtAddrValid( msg ) == FALSE                 ) ||
   1600                 ( osal_ExtAddrEqual( msg, NLME_GetExtAddr() ) == TRUE )    )
   \   00001D                ; Setup parameters for call to function AddrMgrExtAddrValid
   \   00001D   EE           MOV     A,R6
   \   00001E   FA           MOV     R2,A
   \   00001F   EF           MOV     A,R7
   \   000020   FB           MOV     R3,A
   \   000021   12....       LCALL   ??AddrMgrExtAddrValid?relay
   \   000024   E9           MOV     A,R1
   \   000025   6013         JZ      ??ZDO_ProcessMgmtLeaveReq_0
   \   000027                ; Setup parameters for call to function sAddrExtCmp
   \   000027                ; Setup parameters for call to function NLME_GetExtAddr
   \   000027   12....       LCALL   ??NLME_GetExtAddr?relay
   \   00002A   EA           MOV     A,R2
   \   00002B   FC           MOV     R4,A
   \   00002C   EB           MOV     A,R3
   \   00002D   FD           MOV     R5,A
   \   00002E   EE           MOV     A,R6
   \   00002F   FA           MOV     R2,A
   \   000030   EF           MOV     A,R7
   \   000031   FB           MOV     R3,A
   \   000032   12....       LCALL   ??sAddrExtCmp?relay
   \   000035   E9           MOV     A,R1
   \   000036   6401         XRL     A,#0x1
   \   000038   700A         JNZ     ??ZDO_ProcessMgmtLeaveReq_1
   1601            {
   1602              // Remove this device
   1603              req.extAddr = NULL;
   \                     ??ZDO_ProcessMgmtLeaveReq_0:
   \   00003A   7401         MOV     A,#0x1
   \   00003C   12....       LCALL   ?XSTACK_DISP0_8
   \   00003F   E4           CLR     A
   \   000040   F0           MOVX    @DPTR,A
   \   000041   A3           INC     DPTR
   \   000042   8009         SJMP    ??ZDO_ProcessMgmtLeaveReq_2
   1604            }
   1605            else
   1606            {
   1607              // Remove child device
   1608              req.extAddr = msg;
   \                     ??ZDO_ProcessMgmtLeaveReq_1:
   \   000044   7401         MOV     A,#0x1
   \   000046   12....       LCALL   ?XSTACK_DISP0_8
   \   000049   EE           MOV     A,R6
   \   00004A   F0           MOVX    @DPTR,A
   \   00004B   A3           INC     DPTR
   \   00004C   EF           MOV     A,R7
   \                     ??ZDO_ProcessMgmtLeaveReq_2:
   \   00004D   F0           MOVX    @DPTR,A
   1609            }
   1610          
   1611            option = msg[Z_EXTADDR_LEN];
   \   00004E   8E82         MOV     DPL,R6
   \   000050   8F83         MOV     DPH,R7
   \   000052   A3           INC     DPTR
   \   000053   A3           INC     DPTR
   \   000054   A3           INC     DPTR
   \   000055   A3           INC     DPTR
   \   000056   A3           INC     DPTR
   \   000057   A3           INC     DPTR
   \   000058   A3           INC     DPTR
   \   000059   A3           INC     DPTR
   \   00005A   E0           MOVX    A,@DPTR
   \   00005B   FA           MOV     R2,A
   1612            if ( option & ZDP_MGMT_LEAVE_REQ_RC )
   \   00005C   A2E6         MOV     C,0xE0 /* A   */.6
   \   00005E   500C         JNC     ??ZDO_ProcessMgmtLeaveReq_3
   1613            {
   1614              req.removeChildren = TRUE;
   \   000060   7401         MOV     A,#0x1
   \   000062   C0E0         PUSH    A
   \   000064   7403         MOV     A,#0x3
   \   000066   12....       LCALL   ?XSTACK_DISP0_8
   \   000069   D0E0         POP     A
   \   00006B   F0           MOVX    @DPTR,A
   1615            }
   1616          
   1617            if ( option & ZDP_MGMT_LEAVE_REQ_REJOIN )
   \                     ??ZDO_ProcessMgmtLeaveReq_3:
   \   00006C   EA           MOV     A,R2
   \   00006D   A2E7         MOV     C,0xE0 /* A   */.7
   \   00006F   500C         JNC     ??ZDO_ProcessMgmtLeaveReq_4
   1618            {
   1619               req.rejoin = TRUE;
   \   000071   7401         MOV     A,#0x1
   \   000073   C0E0         PUSH    A
   \   000075   7404         MOV     A,#0x4
   \   000077   12....       LCALL   ?XSTACK_DISP0_8
   \   00007A   D0E0         POP     A
   \   00007C   F0           MOVX    @DPTR,A
   1620            }
   1621          
   1622            req.silent = FALSE;
   \                     ??ZDO_ProcessMgmtLeaveReq_4:
   \   00007D   E4           CLR     A
   \   00007E   C0E0         PUSH    A
   \   000080   7405         MOV     A,#0x5
   \   000082   12....       LCALL   ?XSTACK_DISP0_8
   \   000085   D0E0         POP     A
   \   000087   F0           MOVX    @DPTR,A
   1623          
   1624            status = NLME_LeaveReq( &req );
   \   000088                ; Setup parameters for call to function NLME_LeaveReq
   \   000088   7401         MOV     A,#0x1
   \   00008A   12....       LCALL   ?XSTACK_DISP0_8
   \   00008D   AA82         MOV     R2,DPL
   \   00008F   AB83         MOV     R3,DPH
   \   000091   12....       LCALL   ??NLME_LeaveReq?relay
   \   000094   E9           MOV     A,R1
   \   000095   85..82       MOV     DPL,?XSP + 0
   \   000098   85..83       MOV     DPH,?XSP + 1
   \   00009B   F0           MOVX    @DPTR,A
   1625          
   1626            ZDP_MgmtLeaveRsp( inMsg->TransSeq, &(inMsg->srcAddr), status, FALSE );
   \   00009C                ; Setup parameters for call to function ZDP_SendData
   \   00009C   75..00       MOV     ?V0 + 2,#0x0
   \   00009F   78..         MOV     R0,#?V0 + 2
   \   0000A1   12....       LCALL   ?PUSH_XSTACK_I_ONE
   \   0000A4   7401         MOV     A,#0x1
   \   0000A6   12....       LCALL   ?XSTACK_DISP0_8
   \   0000A9   8582..       MOV     ?V0 + 2,DPL
   \   0000AC   8583..       MOV     ?V0 + 3,DPH
   \   0000AF   78..         MOV     R0,#?V0 + 2
   \   0000B1   12....       LCALL   ?PUSH_XSTACK_I_TWO
   \   0000B4   75..34       MOV     ?V0 + 2,#0x34
   \   0000B7   75..80       MOV     ?V0 + 3,#-0x80
   \   0000BA   78..         MOV     R0,#?V0 + 2
   \   0000BC   12....       LCALL   ?PUSH_XSTACK_I_TWO
   \   0000BF   7901         MOV     R1,#0x1
   \   0000C1   E5..         MOV     A,?V0 + 0
   \   0000C3   2402         ADD     A,#0x2
   \   0000C5   FC           MOV     R4,A
   \   0000C6   E5..         MOV     A,?V0 + 1
   \   0000C8   3400         ADDC    A,#0x0
   \   0000CA   FD           MOV     R5,A
   \   0000CB   E5..         MOV     A,?V0 + 0
   \   0000CD   240F         ADD     A,#0xf
   \   0000CF   FA           MOV     R2,A
   \   0000D0   E5..         MOV     A,?V0 + 1
   \   0000D2   3400         ADDC    A,#0x0
   \   0000D4   FB           MOV     R3,A
   \   0000D5   12....       LCALL   ??ZDP_SendData?relay
   \   0000D8   7405         MOV     A,#0x5
   \   0000DA   12....       LCALL   ?DEALLOC_XSTACK8
   1627          }
   \   0000DD   7406         MOV     A,#0x6
   \   0000DF   12....       LCALL   ?DEALLOC_XSTACK8
   \   0000E2   7F04         MOV     R7,#0x4
   \   0000E4   02....       LJMP    ?BANKED_LEAVE_XDATA
   1628          
   1629          
   1630          /*********************************************************************
   1631           * @fn          ZDO_ProcessMgmtPermitJoinReq
   1632           *
   1633           * @brief       This function processes a Management Permit Join Request
   1634           *              and generates the response.
   1635           *
   1636           * @param       inMsg - incoming message (request)
   1637           *
   1638           * @return      none
   1639           */

   \                                 In  segment BANKED_CODE, align 1, keep-with-next
   1640          void ZDO_ProcessMgmtPermitJoinReq( zdoIncomingMsg_t *inMsg )
   \                     ZDO_ProcessMgmtPermitJoinReq:
   1641          {
   \   000000   74F6         MOV     A,#-0xa
   \   000002   12....       LCALL   ?BANKED_ENTER_XDATA
   \   000005                ; Saved register size: 10
   \   000005                ; Auto size: 1
   \   000005   74FF         MOV     A,#-0x1
   \   000007   12....       LCALL   ?ALLOC_XSTACK8
   \   00000A   EA           MOV     A,R2
   \   00000B   FE           MOV     R6,A
   \   00000C   EB           MOV     A,R3
   \   00000D   FF           MOV     R7,A
   1642            uint8 stat;
   1643            uint8 duration;
   1644            uint8 tcsig;
   1645          
   1646            duration = inMsg->asdu[ZDP_MGMT_PERMIT_JOIN_REQ_DURATION];
   1647            tcsig    = inMsg->asdu[ZDP_MGMT_PERMIT_JOIN_REQ_TC_SIG];
   1648          
   1649            // Set the network layer permit join duration
   1650            stat = (byte) NLME_PermitJoiningRequest( duration );
   \   00000E                ; Setup parameters for call to function NLME_PermitJoiningRequest
   \   00000E   EE           MOV     A,R6
   \   00000F   2413         ADD     A,#0x13
   \   000011   F582         MOV     DPL,A
   \   000013   EF           MOV     A,R7
   \   000014   3400         ADDC    A,#0x0
   \   000016   F583         MOV     DPH,A
   \   000018   E0           MOVX    A,@DPTR
   \   000019   F8           MOV     R0,A
   \   00001A   A3           INC     DPTR
   \   00001B   E0           MOVX    A,@DPTR
   \   00001C   F583         MOV     DPH,A
   \   00001E   8882         MOV     DPL,R0
   \   000020   E0           MOVX    A,@DPTR
   \   000021   F9           MOV     R1,A
   \   000022   12....       LCALL   ??NLME_PermitJoiningRequest?relay
   \   000025   E9           MOV     A,R1
   \   000026   85..82       MOV     DPL,?XSP + 0
   \   000029   85..83       MOV     DPH,?XSP + 1
   \   00002C   F0           MOVX    @DPTR,A
   1651          
   1652            // Handle the Trust Center Significance
   1653            if ( ZG_SECURE_ENABLED && ZG_BUILD_COORDINATOR_TYPE && ZG_DEVICE_COORDINATOR_TYPE )
   1654            {
   1655              if ( tcsig == TRUE )
   1656              {
   1657                ZDSecMgrPermitJoining( duration );
   1658              }
   1659            }
   1660          
   1661            // Send a response if unicast
   1662            if (inMsg->srcAddr.addr.shortAddr != NWK_BROADCAST_SHORTADDR)
   \   00002D   EE           MOV     A,R6
   \   00002E   2402         ADD     A,#0x2
   \   000030   FC           MOV     R4,A
   \   000031   EF           MOV     A,R7
   \   000032   3400         ADDC    A,#0x0
   \   000034   FD           MOV     R5,A
   \   000035   8C82         MOV     DPL,R4
   \   000037   8D83         MOV     DPH,R5
   \   000039   E0           MOVX    A,@DPTR
   \   00003A   64FF         XRL     A,#0xff
   \   00003C   7004         JNZ     ??ZDO_ProcessMgmtPermitJoinReq_0
   \   00003E   A3           INC     DPTR
   \   00003F   E0           MOVX    A,@DPTR
   \   000040   64FF         XRL     A,#0xff
   \                     ??ZDO_ProcessMgmtPermitJoinReq_0:
   \   000042   6035         JZ      ??ZDO_ProcessMgmtPermitJoinReq_1
   1663            {
   1664              ZDP_MgmtPermitJoinRsp( inMsg->TransSeq, &(inMsg->srcAddr), stat, false );
   \   000044                ; Setup parameters for call to function ZDP_SendData
   \   000044   75..00       MOV     ?V0 + 0,#0x0
   \   000047   78..         MOV     R0,#?V0 + 0
   \   000049   12....       LCALL   ?PUSH_XSTACK_I_ONE
   \   00004C   7401         MOV     A,#0x1
   \   00004E   12....       LCALL   ?XSTACK_DISP0_8
   \   000051   8582..       MOV     ?V0 + 0,DPL
   \   000054   8583..       MOV     ?V0 + 1,DPH
   \   000057   78..         MOV     R0,#?V0 + 0
   \   000059   12....       LCALL   ?PUSH_XSTACK_I_TWO
   \   00005C   75..36       MOV     ?V0 + 0,#0x36
   \   00005F   75..80       MOV     ?V0 + 1,#-0x80
   \   000062   78..         MOV     R0,#?V0 + 0
   \   000064   12....       LCALL   ?PUSH_XSTACK_I_TWO
   \   000067   7901         MOV     R1,#0x1
   \   000069   EE           MOV     A,R6
   \   00006A   240F         ADD     A,#0xf
   \   00006C   FA           MOV     R2,A
   \   00006D   EF           MOV     A,R7
   \   00006E   3400         ADDC    A,#0x0
   \   000070   FB           MOV     R3,A
   \   000071   12....       LCALL   ??ZDP_SendData?relay
   \   000074   7405         MOV     A,#0x5
   \   000076   12....       LCALL   ?DEALLOC_XSTACK8
   1665            }
   1666          }
   \                     ??ZDO_ProcessMgmtPermitJoinReq_1:
   \   000079   7401         MOV     A,#0x1
   \   00007B   12....       LCALL   ?DEALLOC_XSTACK8
   \   00007E   7F02         MOV     R7,#0x2
   \   000080   02....       LJMP    ?BANKED_LEAVE_XDATA
   1667          
   1668          /*
   1669           * This function stub allows the next higher layer to be notified of
   1670           * a permit joining timeout.
   1671           */
   1672          /*********************************************************************
   1673           * @fn          ZDO_ProcessMgmtPermitJoinTimeout
   1674           *
   1675           * @brief       This function stub allows the next higher layer to be
   1676           *              notified of a permit joining timeout. Currently, this
   1677           *              directly bypasses the APS layer.
   1678           *
   1679           * @param       none
   1680           *
   1681           * @return      none
   1682           */

   \                                 In  segment BANKED_CODE, align 1, keep-with-next
   1683          void ZDO_ProcessMgmtPermitJoinTimeout( void )
   \                     NLME_PermitJoiningTimeout:
   1684          {
   \   000000                ; Saved register size: 0
   \   000000                ; Auto size: 0
   1685            #if defined( ZDO_MGMT_PERMIT_JOIN_RESPONSE )
   1686            // Currently, only the ZDSecMgr needs to be notified
   1687            if ( ZG_SECURE_ENABLED && ZG_BUILD_COORDINATOR_TYPE && ZG_DEVICE_COORDINATOR_TYPE )
   1688            {
   1689              ZDSecMgrPermitJoiningTimeout();
   1690            }
   1691            #endif
   1692          }
   \   000000   02....       LJMP    ?BRET
   1693          
   1694          /*********************************************************************
   1695           * @fn          ZDO_ProcessUserDescReq
   1696           *
   1697           * @brief       This function finishes the processing of the User
   1698           *              Descriptor Request and generates the response.
   1699           *
   1700           * @param       inMsg - incoming message (request)
   1701           *
   1702           * @return      none
   1703           */

   \                                 In  segment BANKED_CODE, align 1, keep-with-next
   1704          void ZDO_ProcessUserDescReq( zdoIncomingMsg_t *inMsg )
   \                     ZDO_ProcessUserDescReq:
   1705          {
   \   000000   74F4         MOV     A,#-0xc
   \   000002   12....       LCALL   ?BANKED_ENTER_XDATA
   \   000005                ; Saved register size: 12
   \   000005                ; Auto size: 17
   \   000005   74EF         MOV     A,#-0x11
   \   000007   12....       LCALL   ?ALLOC_XSTACK8
   \   00000A   EA           MOV     A,R2
   \   00000B   FE           MOV     R6,A
   \   00000C   EB           MOV     A,R3
   \   00000D   FF           MOV     R7,A
   1706            uint16 aoi = BUILD_UINT16( inMsg->asdu[0], inMsg->asdu[1] );
   \   00000E   EE           MOV     A,R6
   \   00000F   2413         ADD     A,#0x13
   \   000011   F8           MOV     R0,A
   \   000012   EF           MOV     A,R7
   \   000013   3400         ADDC    A,#0x0
   \   000015   F9           MOV     R1,A
   \   000016   8882         MOV     DPL,R0
   \   000018   8983         MOV     DPH,R1
   \   00001A   E0           MOVX    A,@DPTR
   \   00001B   FA           MOV     R2,A
   \   00001C   A3           INC     DPTR
   \   00001D   E0           MOVX    A,@DPTR
   \   00001E   F583         MOV     DPH,A
   \   000020   8A82         MOV     DPL,R2
   \   000022   E0           MOVX    A,@DPTR
   \   000023   FA           MOV     R2,A
   \   000024   8882         MOV     DPL,R0
   \   000026   8983         MOV     DPH,R1
   \   000028   E0           MOVX    A,@DPTR
   \   000029   F8           MOV     R0,A
   \   00002A   A3           INC     DPTR
   \   00002B   E0           MOVX    A,@DPTR
   \   00002C   F583         MOV     DPH,A
   \   00002E   8882         MOV     DPL,R0
   \   000030   A3           INC     DPTR
   \   000031   E0           MOVX    A,@DPTR
   \   000032   F9           MOV     R1,A
   \   000033   EA           MOV     A,R2
   \   000034   F5..         MOV     ?V0 + 0,A
   \   000036   E9           MOV     A,R1
   \   000037   F5..         MOV     ?V0 + 1,A
   1707            UserDescriptorFormat_t userDesc;
   1708          
   1709            if ( (aoi == ZDAppNwkAddr.addr.shortAddr) && (ZSUCCESS == osal_nv_read(
   1710                       ZCD_NV_USERDESC, 0, sizeof(UserDescriptorFormat_t), &userDesc )) )
   \   000039   90....       MOV     DPTR,#ZDAppNwkAddr
   \   00003C   E0           MOVX    A,@DPTR
   \   00003D   65..         XRL     A,?V0 + 0
   \   00003F   7004         JNZ     ??ZDO_ProcessUserDescReq_0
   \   000041   A3           INC     DPTR
   \   000042   E0           MOVX    A,@DPTR
   \   000043   65..         XRL     A,?V0 + 1
   \                     ??ZDO_ProcessUserDescReq_0:
   \   000045   7069         JNZ     ??ZDO_ProcessUserDescReq_1
   \   000047                ; Setup parameters for call to function osal_nv_read
   \   000047   85..82       MOV     DPL,?XSP + 0
   \   00004A   85..83       MOV     DPH,?XSP + 1
   \   00004D   8582..       MOV     ?V0 + 2,DPL
   \   000050   8583..       MOV     ?V0 + 3,DPH
   \   000053   78..         MOV     R0,#?V0 + 2
   \   000055   12....       LCALL   ?PUSH_XSTACK_I_TWO
   \   000058   75..11       MOV     ?V0 + 2,#0x11
   \   00005B   75..00       MOV     ?V0 + 3,#0x0
   \   00005E   78..         MOV     R0,#?V0 + 2
   \   000060   12....       LCALL   ?PUSH_XSTACK_I_TWO
   \   000063   7C00         MOV     R4,#0x0
   \   000065   7D00         MOV     R5,#0x0
   \   000067   7A81         MOV     R2,#-0x7f
   \   000069   7B00         MOV     R3,#0x0
   \   00006B   12....       LCALL   ??osal_nv_read?relay
   \   00006E   7404         MOV     A,#0x4
   \   000070   12....       LCALL   ?DEALLOC_XSTACK8
   \   000073   E9           MOV     A,R1
   \   000074   703A         JNZ     ??ZDO_ProcessUserDescReq_1
   1711            {
   1712              ZDP_UserDescRsp( inMsg->TransSeq, &(inMsg->srcAddr), aoi, &userDesc, false );
   \   000076                ; Setup parameters for call to function ZDP_UserDescRsp
   \   000076   75..00       MOV     ?V0 + 2,#0x0
   \   000079   78..         MOV     R0,#?V0 + 2
   \   00007B   12....       LCALL   ?PUSH_XSTACK_I_ONE
   \   00007E   7401         MOV     A,#0x1
   \   000080   12....       LCALL   ?XSTACK_DISP0_8
   \   000083   8582..       MOV     ?V0 + 2,DPL
   \   000086   8583..       MOV     ?V0 + 3,DPH
   \   000089   78..         MOV     R0,#?V0 + 2
   \   00008B   12....       LCALL   ?PUSH_XSTACK_I_TWO
   \   00008E   AC..         MOV     R4,?V0 + 0
   \   000090   AD..         MOV     R5,?V0 + 1
   \   000092   EE           MOV     A,R6
   \   000093   2402         ADD     A,#0x2
   \   000095   FA           MOV     R2,A
   \   000096   EF           MOV     A,R7
   \   000097   3400         ADDC    A,#0x0
   \   000099   FB           MOV     R3,A
   \   00009A   EE           MOV     A,R6
   \   00009B   240F         ADD     A,#0xf
   \   00009D   F582         MOV     DPL,A
   \   00009F   EF           MOV     A,R7
   \   0000A0   3400         ADDC    A,#0x0
   \   0000A2   F583         MOV     DPH,A
   \   0000A4   E0           MOVX    A,@DPTR
   \   0000A5   F9           MOV     R1,A
   \   0000A6   12....       LCALL   ??ZDP_UserDescRsp?relay
   \   0000A9   7403         MOV     A,#0x3
   \   0000AB   12....       LCALL   ?DEALLOC_XSTACK8
   \   0000AE   803A         SJMP    ??ZDO_ProcessUserDescReq_2
   1713            }
   1714            else
   1715            {
   1716              ZDP_GenericRsp(inMsg->TransSeq, &(inMsg->srcAddr),
   1717                     ZDP_NOT_SUPPORTED, aoi, User_Desc_rsp, inMsg->SecurityUse );
   \                     ??ZDO_ProcessUserDescReq_1:
   \   0000B0                ; Setup parameters for call to function ZDP_GenericRsp
   \   0000B0   75..11       MOV     ?V0 + 2,#0x11
   \   0000B3   75..80       MOV     ?V0 + 3,#-0x80
   \   0000B6   78..         MOV     R0,#?V0 + 2
   \   0000B8   12....       LCALL   ?PUSH_XSTACK_I_TWO
   \   0000BB   78..         MOV     R0,#?V0 + 0
   \   0000BD   12....       LCALL   ?PUSH_XSTACK_I_TWO
   \   0000C0   EE           MOV     A,R6
   \   0000C1   240E         ADD     A,#0xe
   \   0000C3   F582         MOV     DPL,A
   \   0000C5   EF           MOV     A,R7
   \   0000C6   3400         ADDC    A,#0x0
   \   0000C8   F583         MOV     DPH,A
   \   0000CA   E0           MOVX    A,@DPTR
   \   0000CB   FD           MOV     R5,A
   \   0000CC   7C84         MOV     R4,#-0x7c
   \   0000CE   EE           MOV     A,R6
   \   0000CF   2402         ADD     A,#0x2
   \   0000D1   FA           MOV     R2,A
   \   0000D2   EF           MOV     A,R7
   \   0000D3   3400         ADDC    A,#0x0
   \   0000D5   FB           MOV     R3,A
   \   0000D6   EE           MOV     A,R6
   \   0000D7   240F         ADD     A,#0xf
   \   0000D9   F582         MOV     DPL,A
   \   0000DB   EF           MOV     A,R7
   \   0000DC   3400         ADDC    A,#0x0
   \   0000DE   F583         MOV     DPH,A
   \   0000E0   E0           MOVX    A,@DPTR
   \   0000E1   F9           MOV     R1,A
   \   0000E2   12....       LCALL   ??ZDP_GenericRsp?relay
   \   0000E5   7404         MOV     A,#0x4
   \   0000E7   12....       LCALL   ?DEALLOC_XSTACK8
   1718            }
   1719          }
   \                     ??ZDO_ProcessUserDescReq_2:
   \   0000EA   7411         MOV     A,#0x11
   \   0000EC   12....       LCALL   ?DEALLOC_XSTACK8
   \   0000EF   7F04         MOV     R7,#0x4
   \   0000F1   02....       LJMP    ?BANKED_LEAVE_XDATA
   1720          
   1721          /*********************************************************************
   1722           * @fn          ZDO_ProcessUserDescSet
   1723           *
   1724           * @brief       This function finishes the processing of the User
   1725           *              Descriptor Set and generates the response.
   1726           *
   1727           * @param       inMsg - incoming message (request)
   1728           *
   1729           * @return      none
   1730           */

   \                                 In  segment BANKED_CODE, align 1, keep-with-next
   1731          void ZDO_ProcessUserDescSet( zdoIncomingMsg_t *inMsg )
   \                     ZDO_ProcessUserDescSet:
   1732          {
   \   000000   74F2         MOV     A,#-0xe
   \   000002   12....       LCALL   ?BANKED_ENTER_XDATA
   \   000005                ; Saved register size: 14
   \   000005                ; Auto size: 20
   \   000005   74EC         MOV     A,#-0x14
   \   000007   12....       LCALL   ?ALLOC_XSTACK8
   \   00000A   8A..         MOV     ?V0 + 4,R2
   \   00000C   8B..         MOV     ?V0 + 5,R3
   1733            uint8 *msg;
   1734            uint16 aoi;
   1735            UserDescriptorFormat_t userDesc;
   1736            uint8 outMsg[3];
   1737            uint8 status;
   1738          
   1739            msg = inMsg->asdu;
   \   00000E   EA           MOV     A,R2
   \   00000F   2413         ADD     A,#0x13
   \   000011   F582         MOV     DPL,A
   \   000013   EB           MOV     A,R3
   \   000014   3400         ADDC    A,#0x0
   \   000016   F583         MOV     DPH,A
   \   000018   E0           MOVX    A,@DPTR
   \   000019   F8           MOV     R0,A
   \   00001A   A3           INC     DPTR
   \   00001B   E0           MOVX    A,@DPTR
   \   00001C   F9           MOV     R1,A
   1740            aoi = BUILD_UINT16( msg[0], msg[1] );
   \   00001D   8882         MOV     DPL,R0
   \   00001F   8983         MOV     DPH,R1
   \   000021   E0           MOVX    A,@DPTR
   \   000022   FC           MOV     R4,A
   \   000023   A3           INC     DPTR
   \   000024   E0           MOVX    A,@DPTR
   \   000025   FB           MOV     R3,A
   \   000026   EC           MOV     A,R4
   \   000027   FE           MOV     R6,A
   \   000028   EB           MOV     A,R3
   \   000029   FF           MOV     R7,A
   1741          
   1742            if ( aoi == ZDAppNwkAddr.addr.shortAddr )
   \   00002A   90....       MOV     DPTR,#ZDAppNwkAddr
   \   00002D   E0           MOVX    A,@DPTR
   \   00002E   6E           XRL     A,R6
   \   00002F   7003         JNZ     ??ZDO_ProcessUserDescSet_0
   \   000031   A3           INC     DPTR
   \   000032   E0           MOVX    A,@DPTR
   \   000033   6F           XRL     A,R7
   \                     ??ZDO_ProcessUserDescSet_0:
   \   000034   6003         JZ      $+5
   \   000036   02....       LJMP    ??ZDO_ProcessUserDescSet_1 & 0xFFFF
   1743            {
   1744              userDesc.len = (msg[2] < AF_MAX_USER_DESCRIPTOR_LEN) ? msg[2] : AF_MAX_USER_DESCRIPTOR_LEN;
   \   000039   E8           MOV     A,R0
   \   00003A   2402         ADD     A,#0x2
   \   00003C   F582         MOV     DPL,A
   \   00003E   E9           MOV     A,R1
   \   00003F   3400         ADDC    A,#0x0
   \   000041   F583         MOV     DPH,A
   \   000043   E0           MOVX    A,@DPTR
   \   000044   C3           CLR     C
   \   000045   9410         SUBB    A,#0x10
   \   000047   5004         JNC     ??ZDO_ProcessUserDescSet_2
   \   000049   E0           MOVX    A,@DPTR
   \   00004A   FA           MOV     R2,A
   \   00004B   8002         SJMP    ??ZDO_ProcessUserDescSet_3
   \                     ??ZDO_ProcessUserDescSet_2:
   \   00004D   7A10         MOV     R2,#0x10
   \                     ??ZDO_ProcessUserDescSet_3:
   \   00004F   EA           MOV     A,R2
   \   000050   C0E0         PUSH    A
   \   000052   7403         MOV     A,#0x3
   \   000054   12....       LCALL   ?XSTACK_DISP0_8
   \   000057   D0E0         POP     A
   \   000059   F0           MOVX    @DPTR,A
   1745              msg ++;  // increment one for the length field
   1746          
   1747              osal_memcpy( userDesc.desc, &msg[2], userDesc.len );
   \   00005A                ; Setup parameters for call to function osal_memcpy
   \   00005A   8882         MOV     DPL,R0
   \   00005C   8983         MOV     DPH,R1
   \   00005E   A3           INC     DPTR
   \   00005F   A3           INC     DPTR
   \   000060   A3           INC     DPTR
   \   000061   A982         MOV     R1,DPL
   \   000063   AA83         MOV     R2,DPH
   \   000065   89..         MOV     ?V0 + 0,R1
   \   000067   8A..         MOV     ?V0 + 1,R2
   \   000069   75..00       MOV     ?V0 + 2,#0x0
   \   00006C   78..         MOV     R0,#?V0 + 0
   \   00006E   12....       LCALL   ?PUSH_XSTACK_I_THREE
   \   000071   7406         MOV     A,#0x6
   \   000073   12....       LCALL   ?XSTACK_DISP0_8
   \   000076   E0           MOVX    A,@DPTR
   \   000077   FC           MOV     R4,A
   \   000078   7D00         MOV     R5,#0x0
   \   00007A   7407         MOV     A,#0x7
   \   00007C   12....       LCALL   ?XSTACK_DISP0_8
   \   00007F   AA82         MOV     R2,DPL
   \   000081   AB83         MOV     R3,DPH
   \   000083   12....       LCALL   ??osal_memcpy?relay
   \   000086   7403         MOV     A,#0x3
   \   000088   12....       LCALL   ?DEALLOC_XSTACK8
   1748              osal_nv_write( ZCD_NV_USERDESC, 0, sizeof(UserDescriptorFormat_t), &userDesc );
   \   00008B                ; Setup parameters for call to function osal_nv_write
   \   00008B   7403         MOV     A,#0x3
   \   00008D   12....       LCALL   ?XSTACK_DISP0_8
   \   000090   8582..       MOV     ?V0 + 0,DPL
   \   000093   8583..       MOV     ?V0 + 1,DPH
   \   000096   78..         MOV     R0,#?V0 + 0
   \   000098   12....       LCALL   ?PUSH_XSTACK_I_TWO
   \   00009B   75..11       MOV     ?V0 + 0,#0x11
   \   00009E   75..00       MOV     ?V0 + 1,#0x0
   \   0000A1   78..         MOV     R0,#?V0 + 0
   \   0000A3   12....       LCALL   ?PUSH_XSTACK_I_TWO
   \   0000A6   7C00         MOV     R4,#0x0
   \   0000A8   7D00         MOV     R5,#0x0
   \   0000AA   7A81         MOV     R2,#-0x7f
   \   0000AC   7B00         MOV     R3,#0x0
   \   0000AE   12....       LCALL   ??osal_nv_write?relay
   \   0000B1   7404         MOV     A,#0x4
   \   0000B3   12....       LCALL   ?DEALLOC_XSTACK8
   1749              if ( userDesc.len != 0 )
   \   0000B6   7403         MOV     A,#0x3
   \   0000B8   12....       LCALL   ?XSTACK_DISP0_8
   \   0000BB   E0           MOVX    A,@DPTR
   \   0000BC   90....       MOV     DPTR,#ZDO_Config_Node_Descriptor
   \   0000BF   6005         JZ      ??ZDO_ProcessUserDescSet_4
   1750              {
   1751                ZDO_Config_Node_Descriptor.UserDescAvail = TRUE;
   \   0000C1   E0           MOVX    A,@DPTR
   \   0000C2   D2E4         SETB    0xE0 /* A   */.4
   \   0000C4   8003         SJMP    ??ZDO_ProcessUserDescSet_5
   1752              }
   1753              else
   1754              {
   1755                ZDO_Config_Node_Descriptor.UserDescAvail = FALSE;
   \                     ??ZDO_ProcessUserDescSet_4:
   \   0000C6   E0           MOVX    A,@DPTR
   \   0000C7   C2E4         CLR     0xE0 /* A   */.4
   \                     ??ZDO_ProcessUserDescSet_5:
   \   0000C9   F0           MOVX    @DPTR,A
   1756              }
   1757          
   1758              status = ZDP_SUCCESS;
   \   0000CA   7A00         MOV     R2,#0x0
   \   0000CC   8002         SJMP    ??ZDO_ProcessUserDescSet_6
   1759            }
   1760            else
   1761            {
   1762              status =  ZDP_NOT_SUPPORTED;
   \                     ??ZDO_ProcessUserDescSet_1:
   \   0000CE   7A84         MOV     R2,#-0x7c
   1763            }
   1764          
   1765            outMsg[0] = status;
   \                     ??ZDO_ProcessUserDescSet_6:
   \   0000D0   EA           MOV     A,R2
   \   0000D1   85..82       MOV     DPL,?XSP + 0
   \   0000D4   85..83       MOV     DPH,?XSP + 1
   \   0000D7   F0           MOVX    @DPTR,A
   1766            outMsg[1] = LO_UINT16( aoi );
   \   0000D8   EE           MOV     A,R6
   \   0000D9   C0E0         PUSH    A
   \   0000DB   7401         MOV     A,#0x1
   \   0000DD   12....       LCALL   ?XSTACK_DISP0_8
   \   0000E0   D0E0         POP     A
   \   0000E2   F0           MOVX    @DPTR,A
   1767            outMsg[2] = LO_UINT16( aoi );
   \   0000E3   EE           MOV     A,R6
   \   0000E4   C0E0         PUSH    A
   \   0000E6   7402         MOV     A,#0x2
   \   0000E8   12....       LCALL   ?XSTACK_DISP0_8
   \   0000EB   D0E0         POP     A
   \   0000ED   F0           MOVX    @DPTR,A
   1768          
   1769            ZDP_SendData( &(inMsg->TransSeq), &(inMsg->srcAddr), User_Desc_conf, 3, outMsg,
   1770                         inMsg->SecurityUse );
   \   0000EE                ; Setup parameters for call to function ZDP_SendData
   \   0000EE   E5..         MOV     A,?V0 + 4
   \   0000F0   240E         ADD     A,#0xe
   \   0000F2   F582         MOV     DPL,A
   \   0000F4   E5..         MOV     A,?V0 + 5
   \   0000F6   3400         ADDC    A,#0x0
   \   0000F8   F583         MOV     DPH,A
   \   0000FA   E0           MOVX    A,@DPTR
   \   0000FB   F5..         MOV     ?V0 + 0,A
   \   0000FD   78..         MOV     R0,#?V0 + 0
   \   0000FF   12....       LCALL   ?PUSH_XSTACK_I_ONE
   \   000102   7401         MOV     A,#0x1
   \   000104   12....       LCALL   ?XSTACK_DISP0_8
   \   000107   8582..       MOV     ?V0 + 0,DPL
   \   00010A   8583..       MOV     ?V0 + 1,DPH
   \   00010D   78..         MOV     R0,#?V0 + 0
   \   00010F   12....       LCALL   ?PUSH_XSTACK_I_TWO
   \   000112   75..14       MOV     ?V0 + 0,#0x14
   \   000115   75..80       MOV     ?V0 + 1,#-0x80
   \   000118   78..         MOV     R0,#?V0 + 0
   \   00011A   12....       LCALL   ?PUSH_XSTACK_I_TWO
   \   00011D   7903         MOV     R1,#0x3
   \   00011F   E5..         MOV     A,?V0 + 4
   \   000121   2402         ADD     A,#0x2
   \   000123   FC           MOV     R4,A
   \   000124   E5..         MOV     A,?V0 + 5
   \   000126   3400         ADDC    A,#0x0
   \   000128   FD           MOV     R5,A
   \   000129   E5..         MOV     A,?V0 + 4
   \   00012B   240F         ADD     A,#0xf
   \   00012D   FA           MOV     R2,A
   \   00012E   E5..         MOV     A,?V0 + 5
   \   000130   3400         ADDC    A,#0x0
   \   000132   FB           MOV     R3,A
   \   000133   12....       LCALL   ??ZDP_SendData?relay
   \   000136   7405         MOV     A,#0x5
   \   000138   12....       LCALL   ?DEALLOC_XSTACK8
   1771          }
   \   00013B   7414         MOV     A,#0x14
   \   00013D   12....       LCALL   ?DEALLOC_XSTACK8
   \   000140   7F06         MOV     R7,#0x6
   \   000142   02....       LJMP    ?BANKED_LEAVE_XDATA
   1772          
   1773          /*********************************************************************
   1774           * @fn          ZDO_ProcessDeviceAnnce
   1775           *
   1776           * @brief       This function processes a device annouce message.
   1777           *
   1778           * @param       inMsg - incoming message
   1779           *
   1780           * @return      none
   1781           */

   \                                 In  segment BANKED_CODE, align 1, keep-with-next
   1782          void ZDO_ProcessDeviceAnnce( zdoIncomingMsg_t *inMsg )
   \                     ZDO_ProcessDeviceAnnce:
   1783          {
   \   000000   C082         PUSH    DPL
   \   000002   C083         PUSH    DPH
   \   000004                ; Saved register size: 2
   \   000004                ; Auto size: 32
   \   000004   74E0         MOV     A,#-0x20
   \   000006   12....       LCALL   ?ALLOC_XSTACK8
   1784            ZDO_DeviceAnnce_t Annce;
   1785            AddrMgrEntry_t addrEntry;
   1786            uint8 parentExt[Z_EXTADDR_LEN];
   1787          
   1788            // Parse incoming message
   1789            ZDO_ParseDeviceAnnce( inMsg, &Annce );
   \   000009                ; Setup parameters for call to function ZDO_ParseDeviceAnnce
   \   000009   7415         MOV     A,#0x15
   \   00000B   12....       LCALL   ?XSTACK_DISP0_8
   \   00000E   AC82         MOV     R4,DPL
   \   000010   AD83         MOV     R5,DPH
   \   000012   12....       LCALL   ??ZDO_ParseDeviceAnnce?relay
   1790          
   1791            if ( ZSTACK_END_DEVICE_BUILD )
   1792            {
   1793              // Make sure the message didn't come from myself - end device only
   1794              if ( osal_ExtAddrEqual( NLME_GetExtAddr(), Annce.extAddr ) && Annce.nwkAddr == NLME_GetShortAddr() )
   1795              {
   1796                return;
   1797              }
   1798            }
   1799          
   1800          #if defined ( ZIGBEE_STOCHASTIC_ADDRESSING )
   1801            // Clean up the neighbor table
   1802            nwkNeighborRemoveAllStranded();
   1803          
   1804            // If address conflict is detected, no need to update the address manager
   1805            if ( NLME_CheckNewAddrSet( Annce.nwkAddr, Annce.extAddr )== ZFailure )
   1806            {
   1807              return;
   1808            }
   1809          #endif
   1810          
   1811          #if defined ( ZIGBEE_STOCHASTIC_ADDRESSING )
   1812            // Check for parent's address
   1813            NLME_GetCoordExtAddr( parentExt );
   1814            if ( osal_ExtAddrEqual( parentExt, Annce.extAddr ) )
   1815            {
   1816              if ( Annce.nwkAddr != NLME_GetCoordShortAddr() )
   1817              {
   1818                // Set the Parent's MAC's new short address
   1819                _NIB.nwkCoordAddress = Annce.nwkAddr;
   1820                ZMacSetReq( ZMacCoordShortAddress, (byte*)&(_NIB.nwkCoordAddress) );
   1821              }
   1822            }
   1823          
   1824            if ( ZSTACK_ROUTER_BUILD )
   1825            {
   1826              // If the device annce comes from a end device child that has moved
   1827              // to another parent, remove it from associated device list
   1828          
   1829              // If the dev annce is coming from other device's children,
   1830              // (The dev annce from its own children shall be unicast to itself,
   1831              // So check the mac destination address)
   1832              // Remove it from the associated device list. If it is not
   1833              // a child, no action will be taken in AssocRemove() anyway.
   1834              if ( inMsg->macDestAddr != NLME_GetShortAddr() )
   1835              {
   1836                associated_devices_t *dev_ptr;
   1837          
   1838                // If it's an end device child
   1839                dev_ptr = AssocGetWithExt( Annce.extAddr );
   1840                if ( dev_ptr )
   1841                {
   1842                  if ( dev_ptr->nodeRelation == CHILD_RFD ||
   1843                       dev_ptr->nodeRelation == CHILD_RFD_RX_IDLE )
   1844                  {
   1845                    AssocRemove( Annce.extAddr );
   1846                  }
   1847                }
   1848              }
   1849          
   1850              if ( Annce.nwkAddr != NLME_GetShortAddr() )
   1851              {
   1852                // If an associated device is found with matched extended Address,
   1853                // update its short address
   1854                if ( AssocChangeNwkAddr( Annce.nwkAddr, Annce.extAddr ) )
   1855                {
   1856                  // Update the neighbor table
   1857                  nwkNeighborUpdateNwkAddr( Annce.nwkAddr, Annce.extAddr );
   1858          
   1859                  // Set event to save NV
   1860                  ZDApp_NVUpdate();
   1861                }
   1862              }
   1863            }
   1864          #endif // ZIGBEE_STOCHASTIC_ADDRESSING
   1865          
   1866          
   1867            // Fill in the extended address in address manager if we don't have it already.
   1868            addrEntry.user = ADDRMGR_USER_DEFAULT;
   \   000015   E4           CLR     A
   \   000016   85..82       MOV     DPL,?XSP + 0
   \   000019   85..83       MOV     DPH,?XSP + 1
   \   00001C   F0           MOVX    @DPTR,A
   1869            addrEntry.nwkAddr = Annce.nwkAddr;
   \   00001D   7415         MOV     A,#0x15
   \   00001F   12....       LCALL   ?XSTACK_DISP0_8
   \   000022   E0           MOVX    A,@DPTR
   \   000023   F8           MOV     R0,A
   \   000024   A3           INC     DPTR
   \   000025   E0           MOVX    A,@DPTR
   \   000026   F9           MOV     R1,A
   \   000027   7401         MOV     A,#0x1
   \   000029   12....       LCALL   ?XSTACK_DISP0_8
   \   00002C   E8           MOV     A,R0
   \   00002D   F0           MOVX    @DPTR,A
   \   00002E   A3           INC     DPTR
   \   00002F   E9           MOV     A,R1
   \   000030   F0           MOVX    @DPTR,A
   1870            if ( AddrMgrEntryLookupNwk( &addrEntry ) )
   \   000031                ; Setup parameters for call to function AddrMgrEntryLookupNwk
   \   000031   85..82       MOV     DPL,?XSP + 0
   \   000034   85..83       MOV     DPH,?XSP + 1
   \   000037   AA82         MOV     R2,DPL
   \   000039   AB83         MOV     R3,DPH
   \   00003B   12....       LCALL   ??AddrMgrEntryLookupNwk?relay
   \   00003E   E9           MOV     A,R1
   \   00003F   604C         JZ      ??ZDO_ProcessDeviceAnnce_0
   1871            {
   1872              osal_memset( parentExt, 0, Z_EXTADDR_LEN );
   \   000041                ; Setup parameters for call to function osal_memset
   \   000041   7C08         MOV     R4,#0x8
   \   000043   7D00         MOV     R5,#0x0
   \   000045   7900         MOV     R1,#0x0
   \   000047   740D         MOV     A,#0xd
   \   000049   12....       LCALL   ?XSTACK_DISP0_8
   \   00004C   AA82         MOV     R2,DPL
   \   00004E   AB83         MOV     R3,DPH
   \   000050   12....       LCALL   ??osal_memset?relay
   1873              if ( osal_ExtAddrEqual( parentExt, addrEntry.extAddr ) )
   \   000053                ; Setup parameters for call to function sAddrExtCmp
   \   000053   7403         MOV     A,#0x3
   \   000055   12....       LCALL   ?XSTACK_DISP0_8
   \   000058   AC82         MOV     R4,DPL
   \   00005A   AD83         MOV     R5,DPH
   \   00005C   740D         MOV     A,#0xd
   \   00005E   12....       LCALL   ?XSTACK_DISP0_8
   \   000061   AA82         MOV     R2,DPL
   \   000063   AB83         MOV     R3,DPH
   \   000065   12....       LCALL   ??sAddrExtCmp?relay
   \   000068   E9           MOV     A,R1
   \   000069   6022         JZ      ??ZDO_ProcessDeviceAnnce_0
   1874              {
   1875                AddrMgrExtAddrSet( addrEntry.extAddr, Annce.extAddr );
   \   00006B                ; Setup parameters for call to function AddrMgrExtAddrSet
   \   00006B   7417         MOV     A,#0x17
   \   00006D   12....       LCALL   ?XSTACK_DISP0_8
   \   000070   AC82         MOV     R4,DPL
   \   000072   AD83         MOV     R5,DPH
   \   000074   7403         MOV     A,#0x3
   \   000076   12....       LCALL   ?XSTACK_DISP0_8
   \   000079   AA82         MOV     R2,DPL
   \   00007B   AB83         MOV     R3,DPH
   \   00007D   12....       LCALL   ??AddrMgrExtAddrSet?relay
   1876                AddrMgrEntryUpdate( &addrEntry );
   \   000080                ; Setup parameters for call to function AddrMgrEntryUpdate
   \   000080   85..82       MOV     DPL,?XSP + 0
   \   000083   85..83       MOV     DPH,?XSP + 1
   \   000086   AA82         MOV     R2,DPL
   \   000088   AB83         MOV     R3,DPH
   \   00008A   12....       LCALL   ??AddrMgrEntryUpdate?relay
   1877              }
   1878            }
   1879          }
   \                     ??ZDO_ProcessDeviceAnnce_0:
   \   00008D   7420         MOV     A,#0x20
   \   00008F   12....       LCALL   ?DEALLOC_XSTACK8
   \   000092   D083         POP     DPH
   \   000094   D082         POP     DPL
   \   000096   02....       LJMP    ?BRET
   1880          
   1881          /*********************************************************************
   1882           * @fn          ZDO_BuildSimpleDescBuf
   1883           *
   1884           * @brief       Build a byte sequence representation of a Simple Descriptor.
   1885           *
   1886           * @param       buf  - pointer to a byte array big enough for data.
   1887           * @param       desc - SimpleDescriptionFormat_t *
   1888           *
   1889           * @return      none
   1890           */

   \                                 In  segment BANKED_CODE, align 1, keep-with-next
   1891          void ZDO_BuildSimpleDescBuf( uint8 *buf, SimpleDescriptionFormat_t *desc )
   \                     ZDO_BuildSimpleDescBuf:
   1892          {
   \   000000   74F2         MOV     A,#-0xe
   \   000002   12....       LCALL   ?BANKED_ENTER_XDATA
   \   000005                ; Saved register size: 14
   \   000005                ; Auto size: 0
   1893            byte cnt;
   1894            uint16 *ptr;
   1895          
   1896            *buf++ = desc->EndPoint;
   \   000005   8C82         MOV     DPL,R4
   \   000007   8D83         MOV     DPH,R5
   \   000009   E0           MOVX    A,@DPTR
   \   00000A   8A82         MOV     DPL,R2
   \   00000C   8B83         MOV     DPH,R3
   \   00000E   F0           MOVX    @DPTR,A
   \   00000F   A3           INC     DPTR
   \   000010   AA82         MOV     R2,DPL
   \   000012   AB83         MOV     R3,DPH
   1897            *buf++ = HI_UINT16( desc->AppProfId );
   \   000014   8C82         MOV     DPL,R4
   \   000016   8D83         MOV     DPH,R5
   \   000018   A3           INC     DPTR
   \   000019   A882         MOV     R0,DPL
   \   00001B   A983         MOV     R1,DPH
   \   00001D   A3           INC     DPTR
   \   00001E   E0           MOVX    A,@DPTR
   \   00001F   8A82         MOV     DPL,R2
   \   000021   8B83         MOV     DPH,R3
   \   000023   F0           MOVX    @DPTR,A
   \   000024   A3           INC     DPTR
   \   000025   0A           INC     R2
   \   000026   AB83         MOV     R3,DPH
   1898            *buf++ = LO_UINT16( desc->AppProfId );
   \   000028   8882         MOV     DPL,R0
   \   00002A   8983         MOV     DPH,R1
   \   00002C   E0           MOVX    A,@DPTR
   \   00002D   8A82         MOV     DPL,R2
   \   00002F   8B83         MOV     DPH,R3
   \   000031   F0           MOVX    @DPTR,A
   \   000032   A3           INC     DPTR
   \   000033   0A           INC     R2
   \   000034   AB83         MOV     R3,DPH
   1899            *buf++ = HI_UINT16( desc->AppDeviceId );
   \   000036   EC           MOV     A,R4
   \   000037   2403         ADD     A,#0x3
   \   000039   F8           MOV     R0,A
   \   00003A   ED           MOV     A,R5
   \   00003B   3400         ADDC    A,#0x0
   \   00003D   F9           MOV     R1,A
   \   00003E   8882         MOV     DPL,R0
   \   000040   8983         MOV     DPH,R1
   \   000042   A3           INC     DPTR
   \   000043   E0           MOVX    A,@DPTR
   \   000044   8A82         MOV     DPL,R2
   \   000046   8B83         MOV     DPH,R3
   \   000048   F0           MOVX    @DPTR,A
   \   000049   A3           INC     DPTR
   \   00004A   0A           INC     R2
   \   00004B   AB83         MOV     R3,DPH
   1900            *buf++ = LO_UINT16( desc->AppDeviceId );
   \   00004D   8882         MOV     DPL,R0
   \   00004F   8983         MOV     DPH,R1
   \   000051   E0           MOVX    A,@DPTR
   \   000052   8A82         MOV     DPL,R2
   \   000054   8B83         MOV     DPH,R3
   \   000056   F0           MOVX    @DPTR,A
   \   000057   A3           INC     DPTR
   \   000058   0A           INC     R2
   \   000059   AB83         MOV     R3,DPH
   1901          
   1902            *buf++ = (byte)(desc->AppDevVer << 4);
   \   00005B   8C82         MOV     DPL,R4
   \   00005D   8D83         MOV     DPH,R5
   \   00005F   A3           INC     DPTR
   \   000060   A3           INC     DPTR
   \   000061   A3           INC     DPTR
   \   000062   A3           INC     DPTR
   \   000063   A3           INC     DPTR
   \   000064   E0           MOVX    A,@DPTR
   \   000065   C4           SWAP    A
   \   000066   54F0         ANL     A,#0xf0
   \   000068   8A82         MOV     DPL,R2
   \   00006A   8B83         MOV     DPH,R3
   \   00006C   F0           MOVX    @DPTR,A
   \   00006D   A3           INC     DPTR
   \   00006E   0A           INC     R2
   \   00006F   AB83         MOV     R3,DPH
   1903          
   1904            *buf++ = desc->AppNumInClusters;
   \   000071   EC           MOV     A,R4
   \   000072   2406         ADD     A,#0x6
   \   000074   F5..         MOV     ?V0 + 0,A
   \   000076   ED           MOV     A,R5
   \   000077   3400         ADDC    A,#0x0
   \   000079   F5..         MOV     ?V0 + 1,A
   \   00007B   85..82       MOV     DPL,?V0 + 0
   \   00007E   F583         MOV     DPH,A
   \   000080   E0           MOVX    A,@DPTR
   \   000081   8A82         MOV     DPL,R2
   \   000083   8B83         MOV     DPH,R3
   \   000085   F0           MOVX    @DPTR,A
   \   000086   A3           INC     DPTR
   \   000087   0A           INC     R2
   \   000088   AB83         MOV     R3,DPH
   1905            ptr = desc->pAppInClusterList;
   \   00008A   8C82         MOV     DPL,R4
   \   00008C   8D83         MOV     DPH,R5
   \   00008E   A3           INC     DPTR
   \   00008F   A3           INC     DPTR
   \   000090   A3           INC     DPTR
   \   000091   A3           INC     DPTR
   \   000092   A3           INC     DPTR
   \   000093   A3           INC     DPTR
   \   000094   A3           INC     DPTR
   \   000095   E0           MOVX    A,@DPTR
   \   000096   FE           MOV     R6,A
   \   000097   A3           INC     DPTR
   \   000098   E0           MOVX    A,@DPTR
   \   000099   FF           MOV     R7,A
   1906            for ( cnt = 0; cnt < desc->AppNumInClusters; ptr++, cnt++ )
   \   00009A   75..00       MOV     ?V0 + 2,#0x0
   \   00009D   8028         SJMP    ??ZDO_BuildSimpleDescBuf_0
   1907            {
   1908              *buf++ = HI_UINT16( *ptr );
   \                     ??ZDO_BuildSimpleDescBuf_1:
   \   00009F   8E82         MOV     DPL,R6
   \   0000A1   8F83         MOV     DPH,R7
   \   0000A3   A3           INC     DPTR
   \   0000A4   E0           MOVX    A,@DPTR
   \   0000A5   8A82         MOV     DPL,R2
   \   0000A7   8B83         MOV     DPH,R3
   \   0000A9   F0           MOVX    @DPTR,A
   \   0000AA   E8           MOV     A,R0
   \   0000AB   FA           MOV     R2,A
   \   0000AC   E9           MOV     A,R1
   \   0000AD   FB           MOV     R3,A
   1909              *buf++ = LO_UINT16( *ptr );
   \   0000AE   8E82         MOV     DPL,R6
   \   0000B0   8F83         MOV     DPH,R7
   \   0000B2   E0           MOVX    A,@DPTR
   \   0000B3   8A82         MOV     DPL,R2
   \   0000B5   8B83         MOV     DPH,R3
   \   0000B7   F0           MOVX    @DPTR,A
   \   0000B8   A3           INC     DPTR
   \   0000B9   0A           INC     R2
   \   0000BA   AB83         MOV     R3,DPH
   1910            }
   \   0000BC   EE           MOV     A,R6
   \   0000BD   2402         ADD     A,#0x2
   \   0000BF   0E           INC     R6
   \   0000C0   0E           INC     R6
   \   0000C1   EF           MOV     A,R7
   \   0000C2   3400         ADDC    A,#0x0
   \   0000C4   FF           MOV     R7,A
   \   0000C5   05..         INC     ?V0 + 2
   \                     ??ZDO_BuildSimpleDescBuf_0:
   \   0000C7   8A82         MOV     DPL,R2
   \   0000C9   8B83         MOV     DPH,R3
   \   0000CB   A3           INC     DPTR
   \   0000CC   A882         MOV     R0,DPL
   \   0000CE   A983         MOV     R1,DPH
   \   0000D0   85..82       MOV     DPL,?V0 + 0
   \   0000D3   85..83       MOV     DPH,?V0 + 1
   \   0000D6   E0           MOVX    A,@DPTR
   \   0000D7   F5..         MOV     ?V0 + 3,A
   \   0000D9   E5..         MOV     A,?V0 + 2
   \   0000DB   C3           CLR     C
   \   0000DC   95..         SUBB    A,?V0 + 3
   \   0000DE   40BF         JC      ??ZDO_BuildSimpleDescBuf_1
   1911          
   1912            *buf++ = desc->AppNumOutClusters;
   \   0000E0   EC           MOV     A,R4
   \   0000E1   2409         ADD     A,#0x9
   \   0000E3   F5..         MOV     ?V0 + 0,A
   \   0000E5   ED           MOV     A,R5
   \   0000E6   3400         ADDC    A,#0x0
   \   0000E8   F5..         MOV     ?V0 + 1,A
   \   0000EA   85..82       MOV     DPL,?V0 + 0
   \   0000ED   F583         MOV     DPH,A
   \   0000EF   E0           MOVX    A,@DPTR
   \   0000F0   8A82         MOV     DPL,R2
   \   0000F2   8B83         MOV     DPH,R3
   \   0000F4   F0           MOVX    @DPTR,A
   \   0000F5   E8           MOV     A,R0
   \   0000F6   FA           MOV     R2,A
   \   0000F7   E9           MOV     A,R1
   \   0000F8   FB           MOV     R3,A
   1913            ptr = desc->pAppOutClusterList;
   \   0000F9   8C82         MOV     DPL,R4
   \   0000FB   8D83         MOV     DPH,R5
   \   0000FD   A3           INC     DPTR
   \   0000FE   A3           INC     DPTR
   \   0000FF   A3           INC     DPTR
   \   000100   A3           INC     DPTR
   \   000101   A3           INC     DPTR
   \   000102   A3           INC     DPTR
   \   000103   A3           INC     DPTR
   \   000104   A3           INC     DPTR
   \   000105   A3           INC     DPTR
   \   000106   A3           INC     DPTR
   \   000107   E0           MOVX    A,@DPTR
   \   000108   FE           MOV     R6,A
   \   000109   A3           INC     DPTR
   \   00010A   E0           MOVX    A,@DPTR
   \   00010B   FF           MOV     R7,A
   1914            for ( cnt = 0; cnt < desc->AppNumOutClusters; ptr++, cnt++ )
   \   00010C   75..00       MOV     ?V0 + 2,#0x0
   \   00010F   8029         SJMP    ??ZDO_BuildSimpleDescBuf_2
   1915            {
   1916              *buf++ = HI_UINT16( *ptr );
   \                     ??ZDO_BuildSimpleDescBuf_3:
   \   000111   8E82         MOV     DPL,R6
   \   000113   8F83         MOV     DPH,R7
   \   000115   A3           INC     DPTR
   \   000116   E0           MOVX    A,@DPTR
   \   000117   8A82         MOV     DPL,R2
   \   000119   8B83         MOV     DPH,R3
   \   00011B   F0           MOVX    @DPTR,A
   \   00011C   A3           INC     DPTR
   \   00011D   AA82         MOV     R2,DPL
   \   00011F   AB83         MOV     R3,DPH
   1917              *buf++ = LO_UINT16( *ptr );
   \   000121   8E82         MOV     DPL,R6
   \   000123   8F83         MOV     DPH,R7
   \   000125   E0           MOVX    A,@DPTR
   \   000126   8A82         MOV     DPL,R2
   \   000128   8B83         MOV     DPH,R3
   \   00012A   F0           MOVX    @DPTR,A
   \   00012B   A3           INC     DPTR
   \   00012C   0A           INC     R2
   \   00012D   AB83         MOV     R3,DPH
   1918            }
   \   00012F   EE           MOV     A,R6
   \   000130   2402         ADD     A,#0x2
   \   000132   0E           INC     R6
   \   000133   0E           INC     R6
   \   000134   EF           MOV     A,R7
   \   000135   3400         ADDC    A,#0x0
   \   000137   FF           MOV     R7,A
   \   000138   05..         INC     ?V0 + 2
   \                     ??ZDO_BuildSimpleDescBuf_2:
   \   00013A   85..82       MOV     DPL,?V0 + 0
   \   00013D   85..83       MOV     DPH,?V0 + 1
   \   000140   E0           MOVX    A,@DPTR
   \   000141   FC           MOV     R4,A
   \   000142   E5..         MOV     A,?V0 + 2
   \   000144   C3           CLR     C
   \   000145   9C           SUBB    A,R4
   \   000146   40C9         JC      ??ZDO_BuildSimpleDescBuf_3
   1919          }
   \   000148   7F06         MOV     R7,#0x6
   \   00014A   02....       LJMP    ?BANKED_LEAVE_XDATA
   1920          
   1921          /*********************************************************************
   1922           * @fn      ZDO_MatchEndDeviceBind()
   1923           *
   1924           * @brief
   1925           *
   1926           *   Called to match end device binding requests
   1927           *
   1928           * @param  bindReq  - binding request information
   1929           * @param  SecurityUse - Security enable/disable
   1930           *
   1931           * @return  none
   1932           */

   \                                 In  segment BANKED_CODE, align 1, keep-with-next
   1933          void ZDO_MatchEndDeviceBind( ZDEndDeviceBind_t *bindReq )
   \                     ZDO_MatchEndDeviceBind:
   1934          {
   \   000000   74F2         MOV     A,#-0xe
   \   000002   12....       LCALL   ?BANKED_ENTER_XDATA
   \   000005                ; Saved register size: 14
   \   000005                ; Auto size: 10
   \   000005   74F6         MOV     A,#-0xa
   \   000007   12....       LCALL   ?ALLOC_XSTACK8
   \   00000A   8A..         MOV     ?V0 + 4,R2
   \   00000C   8B..         MOV     ?V0 + 5,R3
   1935            zAddrType_t dstAddr;
   1936            uint8 sendRsp = FALSE;
   \   00000E   7E00         MOV     R6,#0x0
   1937            uint8 status;
   1938          
   1939            // Is this the first request?
   1940            if ( matchED == NULL )
   \   000010   90....       MOV     DPTR,#matchED
   \   000013   E0           MOVX    A,@DPTR
   \   000014   7002         JNZ     ??ZDO_MatchEndDeviceBind_0
   \   000016   A3           INC     DPTR
   \   000017   E0           MOVX    A,@DPTR
   \                     ??ZDO_MatchEndDeviceBind_0:
   \   000018   7075         JNZ     ??ZDO_MatchEndDeviceBind_1
   1941            {
   1942              // Create match info structure
   1943              matchED = (ZDMatchEndDeviceBind_t *)osal_mem_alloc( sizeof ( ZDMatchEndDeviceBind_t ) );
   \   00001A                ; Setup parameters for call to function osal_mem_alloc
   \   00001A   7A37         MOV     R2,#0x37
   \   00001C   7B00         MOV     R3,#0x0
   \   00001E   12....       LCALL   ??osal_mem_alloc?relay
   \   000021   90....       MOV     DPTR,#matchED
   \   000024   EA           MOV     A,R2
   \   000025   F0           MOVX    @DPTR,A
   \   000026   A3           INC     DPTR
   \   000027   EB           MOV     A,R3
   \   000028   F0           MOVX    @DPTR,A
   1944              if ( matchED )
   \   000029   90....       MOV     DPTR,#matchED
   \   00002C   E0           MOVX    A,@DPTR
   \   00002D   7002         JNZ     ??ZDO_MatchEndDeviceBind_2
   \   00002F   A3           INC     DPTR
   \   000030   E0           MOVX    A,@DPTR
   \                     ??ZDO_MatchEndDeviceBind_2:
   \   000031   6023         JZ      ??ZDO_MatchEndDeviceBind_3
   1945              {
   1946                // Clear the structure
   1947                osal_memset( (uint8 *)matchED, 0, sizeof ( ZDMatchEndDeviceBind_t ) );
   \   000033                ; Setup parameters for call to function osal_memset
   \   000033   7C37         MOV     R4,#0x37
   \   000035   7D00         MOV     R5,#0x0
   \   000037   7900         MOV     R1,#0x0
   \   000039   90....       MOV     DPTR,#matchED
   \   00003C   E0           MOVX    A,@DPTR
   \   00003D   FA           MOV     R2,A
   \   00003E   A3           INC     DPTR
   \   00003F   E0           MOVX    A,@DPTR
   \   000040   FB           MOV     R3,A
   \   000041   12....       LCALL   ??osal_memset?relay
   1948          
   1949                // Copy the first request's information
   1950                if ( !ZDO_CopyMatchInfo( &(matchED->ed1), bindReq ) )
   \   000044                ; Setup parameters for call to function ZDO_CopyMatchInfo
   \   000044   AC..         MOV     R4,?V0 + 4
   \   000046   AD..         MOV     R5,?V0 + 5
   \   000048   90....       MOV     DPTR,#matchED
   \   00004B   E0           MOVX    A,@DPTR
   \   00004C   FA           MOV     R2,A
   \   00004D   A3           INC     DPTR
   \   00004E   E0           MOVX    A,@DPTR
   \   00004F   FB           MOV     R3,A
   \   000050   12....       LCALL   ??ZDO_CopyMatchInfo?relay
   \   000053   E9           MOV     A,R1
   \   000054   700A         JNZ     ??ZDO_MatchEndDeviceBind_4
   1951                {
   1952          
   1953                  status = ZDP_NO_ENTRY;
   \                     ??ZDO_MatchEndDeviceBind_3:
   \   000056   7488         MOV     A,#-0x78
   \   000058   85..82       MOV     DPL,?XSP + 0
   \   00005B   85..83       MOV     DPH,?XSP + 1
   \   00005E   F0           MOVX    @DPTR,A
   1954                  sendRsp = TRUE;
   \   00005F   0E           INC     R6
   1955                }
   1956              }
   1957              else
   1958              {
   1959                status = ZDP_NO_ENTRY;
   1960                sendRsp = TRUE;
   1961              }
   1962          
   1963              if ( !sendRsp )
   \                     ??ZDO_MatchEndDeviceBind_4:
   \   000060   EE           MOV     A,R6
   \   000061   6003         JZ      $+5
   \   000063   02....       LJMP    ??ZDO_MatchEndDeviceBind_5 & 0xFFFF
   1964              {
   1965                // Set into the correct state
   1966                matchED->state = ZDMATCH_WAIT_REQ;
   \   000066   7401         MOV     A,#0x1
   \   000068   C0E0         PUSH    A
   \   00006A   90....       MOV     DPTR,#matchED
   \   00006D   E0           MOVX    A,@DPTR
   \   00006E   242E         ADD     A,#0x2e
   \   000070   F8           MOV     R0,A
   \   000071   A3           INC     DPTR
   \   000072   E0           MOVX    A,@DPTR
   \   000073   3400         ADDC    A,#0x0
   \   000075   F9           MOV     R1,A
   \   000076   8882         MOV     DPL,R0
   \   000078   8983         MOV     DPH,R1
   \   00007A   D0E0         POP     A
   \   00007C   F0           MOVX    @DPTR,A
   1967          
   1968                // Setup the timeout
   1969                APS_SetEndDeviceBindTimeout( AIB_MaxBindingTime, ZDO_EndDeviceBindMatchTimeoutCB );
   \   00007D                ; Setup parameters for call to function APS_SetEndDeviceBindTimeout
   \   00007D   7C..         MOV     R4,#(??ZDO_EndDeviceBindMatchTimeoutCB?relay & 0xff)
   \   00007F   7D..         MOV     R5,#((??ZDO_EndDeviceBindMatchTimeoutCB?relay >> 8) & 0xff)
   \   000081   90....       MOV     DPTR,#AIB_MaxBindingTime
   \   000084   E0           MOVX    A,@DPTR
   \   000085   FA           MOV     R2,A
   \   000086   A3           INC     DPTR
   \   000087   E0           MOVX    A,@DPTR
   \   000088   FB           MOV     R3,A
   \   000089   12....       LCALL   ??APS_SetEndDeviceBindTimeout?relay
   \   00008C   02....       LJMP    ??ZDO_MatchEndDeviceBind_5 & 0xFFFF
   1970              }
   1971            }
   1972            else
   1973            {
   1974                matchED->state = ZDMATCH_SENDING_BINDS;
   \                     ??ZDO_MatchEndDeviceBind_1:
   \   00008F   7402         MOV     A,#0x2
   \   000091   C0E0         PUSH    A
   \   000093   90....       MOV     DPTR,#matchED
   \   000096   E0           MOVX    A,@DPTR
   \   000097   242E         ADD     A,#0x2e
   \   000099   F8           MOV     R0,A
   \   00009A   A3           INC     DPTR
   \   00009B   E0           MOVX    A,@DPTR
   \   00009C   3400         ADDC    A,#0x0
   \   00009E   F9           MOV     R1,A
   \   00009F   8882         MOV     DPL,R0
   \   0000A1   8983         MOV     DPH,R1
   \   0000A3   D0E0         POP     A
   \   0000A5   F0           MOVX    @DPTR,A
   1975          
   1976                // Copy the 2nd request's information
   1977                if ( !ZDO_CopyMatchInfo( &(matchED->ed2), bindReq ) )
   \   0000A6                ; Setup parameters for call to function ZDO_CopyMatchInfo
   \   0000A6   AC..         MOV     R4,?V0 + 4
   \   0000A8   AD..         MOV     R5,?V0 + 5
   \   0000AA   90....       MOV     DPTR,#matchED
   \   0000AD   E0           MOVX    A,@DPTR
   \   0000AE   2417         ADD     A,#0x17
   \   0000B0   FA           MOV     R2,A
   \   0000B1   A3           INC     DPTR
   \   0000B2   E0           MOVX    A,@DPTR
   \   0000B3   3400         ADDC    A,#0x0
   \   0000B5   FB           MOV     R3,A
   \   0000B6   12....       LCALL   ??ZDO_CopyMatchInfo?relay
   \   0000B9   E9           MOV     A,R1
   \   0000BA   700A         JNZ     ??ZDO_MatchEndDeviceBind_6
   1978                {
   1979                  status = ZDP_NO_ENTRY;
   \   0000BC   7488         MOV     A,#-0x78
   \   0000BE   85..82       MOV     DPL,?XSP + 0
   \   0000C1   85..83       MOV     DPH,?XSP + 1
   \   0000C4   F0           MOVX    @DPTR,A
   1980                  sendRsp = TRUE;
   \   0000C5   0E           INC     R6
   1981                }
   1982          
   1983                // Make a source match for ed1
   1984                matchED->ed1numMatched = ZDO_CompareClusterLists(
   1985                            matchED->ed1.numOutClusters, matchED->ed1.outClusters,
   1986                            matchED->ed2.numInClusters, matchED->ed2.inClusters, ZDOBuildBuf );
   \                     ??ZDO_MatchEndDeviceBind_6:
   \   0000C6                ; Setup parameters for call to function ZDO_CompareClusterLists
   \   0000C6   75....       MOV     ?V0 + 0,#(ZDOBuildBuf & 0xff)
   \   0000C9   75....       MOV     ?V0 + 1,#((ZDOBuildBuf >> 8) & 0xff)
   \   0000CC   78..         MOV     R0,#?V0 + 0
   \   0000CE   12....       LCALL   ?PUSH_XSTACK_I_TWO
   \   0000D1   90....       MOV     DPTR,#matchED
   \   0000D4   E0           MOVX    A,@DPTR
   \   0000D5   2429         ADD     A,#0x29
   \   0000D7   F8           MOV     R0,A
   \   0000D8   A3           INC     DPTR
   \   0000D9   E0           MOVX    A,@DPTR
   \   0000DA   3400         ADDC    A,#0x0
   \   0000DC   F9           MOV     R1,A
   \   0000DD   8882         MOV     DPL,R0
   \   0000DF   8983         MOV     DPH,R1
   \   0000E1   12....       LCALL   ?PUSH_XSTACK8_X_TWO
   \   0000E4   90....       MOV     DPTR,#matchED
   \   0000E7   E0           MOVX    A,@DPTR
   \   0000E8   2428         ADD     A,#0x28
   \   0000EA   F8           MOV     R0,A
   \   0000EB   A3           INC     DPTR
   \   0000EC   E0           MOVX    A,@DPTR
   \   0000ED   3400         ADDC    A,#0x0
   \   0000EF   F9           MOV     R1,A
   \   0000F0   8882         MOV     DPL,R0
   \   0000F2   8983         MOV     DPH,R1
   \   0000F4   E0           MOVX    A,@DPTR
   \   0000F5   FC           MOV     R4,A
   \   0000F6   90....       MOV     DPTR,#matchED
   \   0000F9   E0           MOVX    A,@DPTR
   \   0000FA   2415         ADD     A,#0x15
   \   0000FC   F8           MOV     R0,A
   \   0000FD   A3           INC     DPTR
   \   0000FE   E0           MOVX    A,@DPTR
   \   0000FF   3400         ADDC    A,#0x0
   \   000101   F9           MOV     R1,A
   \   000102   8882         MOV     DPL,R0
   \   000104   8983         MOV     DPH,R1
   \   000106   E0           MOVX    A,@DPTR
   \   000107   FA           MOV     R2,A
   \   000108   A3           INC     DPTR
   \   000109   E0           MOVX    A,@DPTR
   \   00010A   FB           MOV     R3,A
   \   00010B   90....       MOV     DPTR,#matchED
   \   00010E   E0           MOVX    A,@DPTR
   \   00010F   2414         ADD     A,#0x14
   \   000111   F8           MOV     R0,A
   \   000112   A3           INC     DPTR
   \   000113   E0           MOVX    A,@DPTR
   \   000114   3400         ADDC    A,#0x0
   \   000116   F9           MOV     R1,A
   \   000117   8882         MOV     DPL,R0
   \   000119   8983         MOV     DPH,R1
   \   00011B   E0           MOVX    A,@DPTR
   \   00011C   F9           MOV     R1,A
   \   00011D   12....       LCALL   ??ZDO_CompareClusterLists?relay
   \   000120   7404         MOV     A,#0x4
   \   000122   12....       LCALL   ?DEALLOC_XSTACK8
   \   000125   E9           MOV     A,R1
   \   000126   C0E0         PUSH    A
   \   000128   90....       MOV     DPTR,#matchED
   \   00012B   E0           MOVX    A,@DPTR
   \   00012C   2431         ADD     A,#0x31
   \   00012E   F8           MOV     R0,A
   \   00012F   A3           INC     DPTR
   \   000130   E0           MOVX    A,@DPTR
   \   000131   3400         ADDC    A,#0x0
   \   000133   F9           MOV     R1,A
   \   000134   8882         MOV     DPL,R0
   \   000136   8983         MOV     DPH,R1
   \   000138   D0E0         POP     A
   \   00013A   F0           MOVX    @DPTR,A
   1987                if ( matchED->ed1numMatched )
   \   00013B   90....       MOV     DPTR,#matchED
   \   00013E   E0           MOVX    A,@DPTR
   \   00013F   2431         ADD     A,#0x31
   \   000141   F8           MOV     R0,A
   \   000142   A3           INC     DPTR
   \   000143   E0           MOVX    A,@DPTR
   \   000144   3400         ADDC    A,#0x0
   \   000146   F9           MOV     R1,A
   \   000147   8882         MOV     DPL,R0
   \   000149   8983         MOV     DPH,R1
   \   00014B   E0           MOVX    A,@DPTR
   \   00014C   7003         JNZ     $+5
   \   00014E   02....       LJMP    ??ZDO_MatchEndDeviceBind_7 & 0xFFFF
   1988                {
   1989                  // Save the match list
   1990                  matchED->ed1Matched = osal_mem_alloc( (short)(matchED->ed1numMatched * sizeof ( uint16 )) );
   \   000151                ; Setup parameters for call to function osal_mem_alloc
   \   000151   E0           MOVX    A,@DPTR
   \   000152   C3           CLR     C
   \   000153   33           RLC     A
   \   000154   FA           MOV     R2,A
   \   000155   E4           CLR     A
   \   000156   33           RLC     A
   \   000157   FB           MOV     R3,A
   \   000158   12....       LCALL   ??osal_mem_alloc?relay
   \   00015B   8A..         MOV     ?V0 + 0,R2
   \   00015D   8B..         MOV     ?V0 + 1,R3
   \   00015F   90....       MOV     DPTR,#matchED
   \   000162   E0           MOVX    A,@DPTR
   \   000163   2432         ADD     A,#0x32
   \   000165   FA           MOV     R2,A
   \   000166   A3           INC     DPTR
   \   000167   E0           MOVX    A,@DPTR
   \   000168   3400         ADDC    A,#0x0
   \   00016A   FB           MOV     R3,A
   \   00016B   8A82         MOV     DPL,R2
   \   00016D   8B83         MOV     DPH,R3
   \   00016F   E5..         MOV     A,?V0 + 0
   \   000171   F0           MOVX    @DPTR,A
   \   000172   A3           INC     DPTR
   \   000173   E5..         MOV     A,?V0 + 1
   \   000175   F0           MOVX    @DPTR,A
   1991                  if ( matchED->ed1Matched )
   \   000176   90....       MOV     DPTR,#matchED
   \   000179   E0           MOVX    A,@DPTR
   \   00017A   2432         ADD     A,#0x32
   \   00017C   F8           MOV     R0,A
   \   00017D   A3           INC     DPTR
   \   00017E   E0           MOVX    A,@DPTR
   \   00017F   3400         ADDC    A,#0x0
   \   000181   F9           MOV     R1,A
   \   000182   E8           MOV     A,R0
   \   000183   FA           MOV     R2,A
   \   000184   E9           MOV     A,R1
   \   000185   FB           MOV     R3,A
   \   000186   8A82         MOV     DPL,R2
   \   000188   8B83         MOV     DPH,R3
   \   00018A   E0           MOVX    A,@DPTR
   \   00018B   7002         JNZ     ??ZDO_MatchEndDeviceBind_8
   \   00018D   A3           INC     DPTR
   \   00018E   E0           MOVX    A,@DPTR
   \                     ??ZDO_MatchEndDeviceBind_8:
   \   00018F   6038         JZ      ??ZDO_MatchEndDeviceBind_9
   1992                  {
   1993                    osal_memcpy( matchED->ed1Matched, ZDOBuildBuf, (matchED->ed1numMatched * sizeof ( uint16 )) );
   \   000191                ; Setup parameters for call to function osal_memcpy
   \   000191   75....       MOV     ?V0 + 0,#(ZDOBuildBuf & 0xff)
   \   000194   75....       MOV     ?V0 + 1,#((ZDOBuildBuf >> 8) & 0xff)
   \   000197   75..00       MOV     ?V0 + 2,#0x0
   \   00019A   78..         MOV     R0,#?V0 + 0
   \   00019C   12....       LCALL   ?PUSH_XSTACK_I_THREE
   \   00019F   90....       MOV     DPTR,#matchED
   \   0001A2   E0           MOVX    A,@DPTR
   \   0001A3   2431         ADD     A,#0x31
   \   0001A5   F8           MOV     R0,A
   \   0001A6   A3           INC     DPTR
   \   0001A7   E0           MOVX    A,@DPTR
   \   0001A8   3400         ADDC    A,#0x0
   \   0001AA   F9           MOV     R1,A
   \   0001AB   8882         MOV     DPL,R0
   \   0001AD   8983         MOV     DPH,R1
   \   0001AF   E0           MOVX    A,@DPTR
   \   0001B0   C3           CLR     C
   \   0001B1   33           RLC     A
   \   0001B2   FC           MOV     R4,A
   \   0001B3   E4           CLR     A
   \   0001B4   33           RLC     A
   \   0001B5   FD           MOV     R5,A
   \   0001B6   8A82         MOV     DPL,R2
   \   0001B8   8B83         MOV     DPH,R3
   \   0001BA   E0           MOVX    A,@DPTR
   \   0001BB   FA           MOV     R2,A
   \   0001BC   A3           INC     DPTR
   \   0001BD   E0           MOVX    A,@DPTR
   \   0001BE   FB           MOV     R3,A
   \   0001BF   12....       LCALL   ??osal_memcpy?relay
   \   0001C2   7403         MOV     A,#0x3
   \   0001C4   12....       LCALL   ?DEALLOC_XSTACK8
   \   0001C7   800B         SJMP    ??ZDO_MatchEndDeviceBind_7
   1994                  }
   1995                  else
   1996                  {
   1997                    // Allocation error, stop
   1998                    status = ZDP_NO_ENTRY;
   \                     ??ZDO_MatchEndDeviceBind_9:
   \   0001C9   7488         MOV     A,#-0x78
   \   0001CB   85..82       MOV     DPL,?XSP + 0
   \   0001CE   85..83       MOV     DPH,?XSP + 1
   \   0001D1   F0           MOVX    @DPTR,A
   1999                    sendRsp = TRUE;
   \   0001D2   7E01         MOV     R6,#0x1
   2000                  }
   2001                }
   2002          
   2003                // Make a source match for ed2
   2004                matchED->ed2numMatched = ZDO_CompareClusterLists(
   2005                            matchED->ed2.numOutClusters, matchED->ed2.outClusters,
   2006                            matchED->ed1.numInClusters, matchED->ed1.inClusters, ZDOBuildBuf );
   \                     ??ZDO_MatchEndDeviceBind_7:
   \   0001D4                ; Setup parameters for call to function ZDO_CompareClusterLists
   \   0001D4   75....       MOV     ?V0 + 0,#(ZDOBuildBuf & 0xff)
   \   0001D7   75....       MOV     ?V0 + 1,#((ZDOBuildBuf >> 8) & 0xff)
   \   0001DA   78..         MOV     R0,#?V0 + 0
   \   0001DC   12....       LCALL   ?PUSH_XSTACK_I_TWO
   \   0001DF   90....       MOV     DPTR,#matchED
   \   0001E2   E0           MOVX    A,@DPTR
   \   0001E3   2412         ADD     A,#0x12
   \   0001E5   F8           MOV     R0,A
   \   0001E6   A3           INC     DPTR
   \   0001E7   E0           MOVX    A,@DPTR
   \   0001E8   3400         ADDC    A,#0x0
   \   0001EA   F9           MOV     R1,A
   \   0001EB   8882         MOV     DPL,R0
   \   0001ED   8983         MOV     DPH,R1
   \   0001EF   12....       LCALL   ?PUSH_XSTACK8_X_TWO
   \   0001F2   90....       MOV     DPTR,#matchED
   \   0001F5   E0           MOVX    A,@DPTR
   \   0001F6   2411         ADD     A,#0x11
   \   0001F8   F8           MOV     R0,A
   \   0001F9   A3           INC     DPTR
   \   0001FA   E0           MOVX    A,@DPTR
   \   0001FB   3400         ADDC    A,#0x0
   \   0001FD   F9           MOV     R1,A
   \   0001FE   8882         MOV     DPL,R0
   \   000200   8983         MOV     DPH,R1
   \   000202   E0           MOVX    A,@DPTR
   \   000203   FC           MOV     R4,A
   \   000204   90....       MOV     DPTR,#matchED
   \   000207   E0           MOVX    A,@DPTR
   \   000208   242C         ADD     A,#0x2c
   \   00020A   F8           MOV     R0,A
   \   00020B   A3           INC     DPTR
   \   00020C   E0           MOVX    A,@DPTR
   \   00020D   3400         ADDC    A,#0x0
   \   00020F   F9           MOV     R1,A
   \   000210   8882         MOV     DPL,R0
   \   000212   8983         MOV     DPH,R1
   \   000214   E0           MOVX    A,@DPTR
   \   000215   FA           MOV     R2,A
   \   000216   A3           INC     DPTR
   \   000217   E0           MOVX    A,@DPTR
   \   000218   FB           MOV     R3,A
   \   000219   90....       MOV     DPTR,#matchED
   \   00021C   E0           MOVX    A,@DPTR
   \   00021D   242B         ADD     A,#0x2b
   \   00021F   F8           MOV     R0,A
   \   000220   A3           INC     DPTR
   \   000221   E0           MOVX    A,@DPTR
   \   000222   3400         ADDC    A,#0x0
   \   000224   F9           MOV     R1,A
   \   000225   8882         MOV     DPL,R0
   \   000227   8983         MOV     DPH,R1
   \   000229   E0           MOVX    A,@DPTR
   \   00022A   F9           MOV     R1,A
   \   00022B   12....       LCALL   ??ZDO_CompareClusterLists?relay
   \   00022E   7404         MOV     A,#0x4
   \   000230   12....       LCALL   ?DEALLOC_XSTACK8
   \   000233   E9           MOV     A,R1
   \   000234   C0E0         PUSH    A
   \   000236   90....       MOV     DPTR,#matchED
   \   000239   E0           MOVX    A,@DPTR
   \   00023A   2434         ADD     A,#0x34
   \   00023C   F8           MOV     R0,A
   \   00023D   A3           INC     DPTR
   \   00023E   E0           MOVX    A,@DPTR
   \   00023F   3400         ADDC    A,#0x0
   \   000241   F9           MOV     R1,A
   \   000242   8882         MOV     DPL,R0
   \   000244   8983         MOV     DPH,R1
   \   000246   D0E0         POP     A
   \   000248   F0           MOVX    @DPTR,A
   2007                if ( matchED->ed2numMatched )
   \   000249   90....       MOV     DPTR,#matchED
   \   00024C   E0           MOVX    A,@DPTR
   \   00024D   2434         ADD     A,#0x34
   \   00024F   F8           MOV     R0,A
   \   000250   A3           INC     DPTR
   \   000251   E0           MOVX    A,@DPTR
   \   000252   3400         ADDC    A,#0x0
   \   000254   F9           MOV     R1,A
   \   000255   8882         MOV     DPL,R0
   \   000257   8983         MOV     DPH,R1
   \   000259   E0           MOVX    A,@DPTR
   \   00025A   7003         JNZ     $+5
   \   00025C   02....       LJMP    ??ZDO_MatchEndDeviceBind_10 & 0xFFFF
   2008                {
   2009                  // Save the match list
   2010                  matchED->ed2Matched = osal_mem_alloc( (short)(matchED->ed2numMatched * sizeof ( uint16 )) );
   \   00025F                ; Setup parameters for call to function osal_mem_alloc
   \   00025F   E0           MOVX    A,@DPTR
   \   000260   C3           CLR     C
   \   000261   33           RLC     A
   \   000262   FA           MOV     R2,A
   \   000263   E4           CLR     A
   \   000264   33           RLC     A
   \   000265   FB           MOV     R3,A
   \   000266   12....       LCALL   ??osal_mem_alloc?relay
   \   000269   8A..         MOV     ?V0 + 0,R2
   \   00026B   8B..         MOV     ?V0 + 1,R3
   \   00026D   90....       MOV     DPTR,#matchED
   \   000270   E0           MOVX    A,@DPTR
   \   000271   2435         ADD     A,#0x35
   \   000273   FA           MOV     R2,A
   \   000274   A3           INC     DPTR
   \   000275   E0           MOVX    A,@DPTR
   \   000276   3400         ADDC    A,#0x0
   \   000278   FB           MOV     R3,A
   \   000279   8A82         MOV     DPL,R2
   \   00027B   8B83         MOV     DPH,R3
   \   00027D   E5..         MOV     A,?V0 + 0
   \   00027F   F0           MOVX    @DPTR,A
   \   000280   A3           INC     DPTR
   \   000281   E5..         MOV     A,?V0 + 1
   \   000283   F0           MOVX    @DPTR,A
   2011                  if ( matchED->ed2Matched )
   \   000284   90....       MOV     DPTR,#matchED
   \   000287   E0           MOVX    A,@DPTR
   \   000288   2435         ADD     A,#0x35
   \   00028A   F8           MOV     R0,A
   \   00028B   A3           INC     DPTR
   \   00028C   E0           MOVX    A,@DPTR
   \   00028D   3400         ADDC    A,#0x0
   \   00028F   F9           MOV     R1,A
   \   000290   E8           MOV     A,R0
   \   000291   FA           MOV     R2,A
   \   000292   E9           MOV     A,R1
   \   000293   FB           MOV     R3,A
   \   000294   8A82         MOV     DPL,R2
   \   000296   8B83         MOV     DPH,R3
   \   000298   E0           MOVX    A,@DPTR
   \   000299   7002         JNZ     ??ZDO_MatchEndDeviceBind_11
   \   00029B   A3           INC     DPTR
   \   00029C   E0           MOVX    A,@DPTR
   \                     ??ZDO_MatchEndDeviceBind_11:
   \   00029D   6038         JZ      ??ZDO_MatchEndDeviceBind_12
   2012                  {
   2013                    osal_memcpy( matchED->ed2Matched, ZDOBuildBuf, (matchED->ed2numMatched * sizeof ( uint16 )) );
   \   00029F                ; Setup parameters for call to function osal_memcpy
   \   00029F   75....       MOV     ?V0 + 0,#(ZDOBuildBuf & 0xff)
   \   0002A2   75....       MOV     ?V0 + 1,#((ZDOBuildBuf >> 8) & 0xff)
   \   0002A5   75..00       MOV     ?V0 + 2,#0x0
   \   0002A8   78..         MOV     R0,#?V0 + 0
   \   0002AA   12....       LCALL   ?PUSH_XSTACK_I_THREE
   \   0002AD   90....       MOV     DPTR,#matchED
   \   0002B0   E0           MOVX    A,@DPTR
   \   0002B1   2434         ADD     A,#0x34
   \   0002B3   F8           MOV     R0,A
   \   0002B4   A3           INC     DPTR
   \   0002B5   E0           MOVX    A,@DPTR
   \   0002B6   3400         ADDC    A,#0x0
   \   0002B8   F9           MOV     R1,A
   \   0002B9   8882         MOV     DPL,R0
   \   0002BB   8983         MOV     DPH,R1
   \   0002BD   E0           MOVX    A,@DPTR
   \   0002BE   C3           CLR     C
   \   0002BF   33           RLC     A
   \   0002C0   FC           MOV     R4,A
   \   0002C1   E4           CLR     A
   \   0002C2   33           RLC     A
   \   0002C3   FD           MOV     R5,A
   \   0002C4   8A82         MOV     DPL,R2
   \   0002C6   8B83         MOV     DPH,R3
   \   0002C8   E0           MOVX    A,@DPTR
   \   0002C9   FA           MOV     R2,A
   \   0002CA   A3           INC     DPTR
   \   0002CB   E0           MOVX    A,@DPTR
   \   0002CC   FB           MOV     R3,A
   \   0002CD   12....       LCALL   ??osal_memcpy?relay
   \   0002D0   7403         MOV     A,#0x3
   \   0002D2   12....       LCALL   ?DEALLOC_XSTACK8
   \   0002D5   800B         SJMP    ??ZDO_MatchEndDeviceBind_10
   2014                  }
   2015                  else
   2016                  {
   2017                    // Allocation error, stop
   2018                    status = ZDP_NO_ENTRY;
   \                     ??ZDO_MatchEndDeviceBind_12:
   \   0002D7   7488         MOV     A,#-0x78
   \   0002D9   85..82       MOV     DPL,?XSP + 0
   \   0002DC   85..83       MOV     DPH,?XSP + 1
   \   0002DF   F0           MOVX    @DPTR,A
   2019                    sendRsp = TRUE;
   \   0002E0   7E01         MOV     R6,#0x1
   2020                  }
   2021                }
   2022          
   2023                if ( (sendRsp == FALSE) && (matchED->ed1numMatched || matchED->ed2numMatched) )
   \                     ??ZDO_MatchEndDeviceBind_10:
   \   0002E2   EE           MOV     A,R6
   \   0002E3   7031         JNZ     ??ZDO_MatchEndDeviceBind_13
   \   0002E5   90....       MOV     DPTR,#matchED
   \   0002E8   E0           MOVX    A,@DPTR
   \   0002E9   2431         ADD     A,#0x31
   \   0002EB   F8           MOV     R0,A
   \   0002EC   A3           INC     DPTR
   \   0002ED   E0           MOVX    A,@DPTR
   \   0002EE   3400         ADDC    A,#0x0
   \   0002F0   F9           MOV     R1,A
   \   0002F1   8882         MOV     DPL,R0
   \   0002F3   8983         MOV     DPH,R1
   \   0002F5   E0           MOVX    A,@DPTR
   \   0002F6   7013         JNZ     ??ZDO_MatchEndDeviceBind_14
   \   0002F8   90....       MOV     DPTR,#matchED
   \   0002FB   E0           MOVX    A,@DPTR
   \   0002FC   2434         ADD     A,#0x34
   \   0002FE   F8           MOV     R0,A
   \   0002FF   A3           INC     DPTR
   \   000300   E0           MOVX    A,@DPTR
   \   000301   3400         ADDC    A,#0x0
   \   000303   F9           MOV     R1,A
   \   000304   8882         MOV     DPL,R0
   \   000306   8983         MOV     DPH,R1
   \   000308   E0           MOVX    A,@DPTR
   \   000309   600B         JZ      ??ZDO_MatchEndDeviceBind_13
   2024                {
   2025                  // Do the first unbind/bind state
   2026                  ZDMatchSendState( ZDMATCH_REASON_START, ZDP_SUCCESS, 0 );
   \                     ??ZDO_MatchEndDeviceBind_14:
   \   00030B                ; Setup parameters for call to function ZDMatchSendState
   \   00030B   7B00         MOV     R3,#0x0
   \   00030D   7A00         MOV     R2,#0x0
   \   00030F   7900         MOV     R1,#0x0
   \   000311   12....       LCALL   ??ZDMatchSendState?relay
   \   000314   800B         SJMP    ??ZDO_MatchEndDeviceBind_5
   2027                }
   2028                else
   2029                {
   2030                  status = ZDP_NO_MATCH;
   \                     ??ZDO_MatchEndDeviceBind_13:
   \   000316   7486         MOV     A,#-0x7a
   \   000318   85..82       MOV     DPL,?XSP + 0
   \   00031B   85..83       MOV     DPH,?XSP + 1
   \   00031E   F0           MOVX    @DPTR,A
   2031                  sendRsp = TRUE;
   \   00031F   7E01         MOV     R6,#0x1
   2032                }
   2033            }
   2034          
   2035            if ( sendRsp )
   \                     ??ZDO_MatchEndDeviceBind_5:
   \   000321   EE           MOV     A,R6
   \   000322   7003         JNZ     $+5
   \   000324   02....       LJMP    ??ZDO_MatchEndDeviceBind_15 & 0xFFFF
   2036            {
   2037              // send response to this requester
   2038              dstAddr.addrMode = Addr16Bit;
   \   000327   7402         MOV     A,#0x2
   \   000329   C0E0         PUSH    A
   \   00032B   7409         MOV     A,#0x9
   \   00032D   12....       LCALL   ?XSTACK_DISP0_8
   \   000330   D0E0         POP     A
   \   000332   F0           MOVX    @DPTR,A
   2039              dstAddr.addr.shortAddr = bindReq->srcAddr;
   \   000333   85..82       MOV     DPL,?V0 + 4
   \   000336   85..83       MOV     DPH,?V0 + 5
   \   000339   A3           INC     DPTR
   \   00033A   A3           INC     DPTR
   \   00033B   E0           MOVX    A,@DPTR
   \   00033C   F8           MOV     R0,A
   \   00033D   A3           INC     DPTR
   \   00033E   E0           MOVX    A,@DPTR
   \   00033F   F9           MOV     R1,A
   \   000340   7401         MOV     A,#0x1
   \   000342   12....       LCALL   ?XSTACK_DISP0_8
   \   000345   E8           MOV     A,R0
   \   000346   F0           MOVX    @DPTR,A
   \   000347   A3           INC     DPTR
   \   000348   E9           MOV     A,R1
   \   000349   F0           MOVX    @DPTR,A
   2040              ZDP_EndDeviceBindRsp( bindReq->TransSeq, &dstAddr, status, bindReq->SecurityUse );
   \   00034A                ; Setup parameters for call to function ZDP_SendData
   \   00034A   85..82       MOV     DPL,?V0 + 4
   \   00034D   85..83       MOV     DPH,?V0 + 5
   \   000350   A3           INC     DPTR
   \   000351   E0           MOVX    A,@DPTR
   \   000352   F5..         MOV     ?V0 + 0,A
   \   000354   78..         MOV     R0,#?V0 + 0
   \   000356   12....       LCALL   ?PUSH_XSTACK_I_ONE
   \   000359   7401         MOV     A,#0x1
   \   00035B   12....       LCALL   ?XSTACK_DISP0_8
   \   00035E   8582..       MOV     ?V0 + 0,DPL
   \   000361   8583..       MOV     ?V0 + 1,DPH
   \   000364   78..         MOV     R0,#?V0 + 0
   \   000366   12....       LCALL   ?PUSH_XSTACK_I_TWO
   \   000369   75..20       MOV     ?V0 + 0,#0x20
   \   00036C   75..80       MOV     ?V0 + 1,#-0x80
   \   00036F   78..         MOV     R0,#?V0 + 0
   \   000371   12....       LCALL   ?PUSH_XSTACK_I_TWO
   \   000374   7901         MOV     R1,#0x1
   \   000376   7406         MOV     A,#0x6
   \   000378   12....       LCALL   ?XSTACK_DISP0_8
   \   00037B   AC82         MOV     R4,DPL
   \   00037D   AD83         MOV     R5,DPH
   \   00037F   AA..         MOV     R2,?V0 + 4
   \   000381   AB..         MOV     R3,?V0 + 5
   \   000383   12....       LCALL   ??ZDP_SendData?relay
   \   000386   7405         MOV     A,#0x5
   \   000388   12....       LCALL   ?DEALLOC_XSTACK8
   2041          
   2042              if ( matchED->state == ZDMATCH_SENDING_BINDS )
   \   00038B   90....       MOV     DPTR,#matchED
   \   00038E   E0           MOVX    A,@DPTR
   \   00038F   242E         ADD     A,#0x2e
   \   000391   F8           MOV     R0,A
   \   000392   A3           INC     DPTR
   \   000393   E0           MOVX    A,@DPTR
   \   000394   3400         ADDC    A,#0x0
   \   000396   F9           MOV     R1,A
   \   000397   8882         MOV     DPL,R0
   \   000399   8983         MOV     DPH,R1
   \   00039B   E0           MOVX    A,@DPTR
   \   00039C   6402         XRL     A,#0x2
   \   00039E   7072         JNZ     ??ZDO_MatchEndDeviceBind_16
   2043              {
   2044                // send response to first requester
   2045                dstAddr.addrMode = Addr16Bit;
   \   0003A0   7402         MOV     A,#0x2
   \   0003A2   C0E0         PUSH    A
   \   0003A4   7409         MOV     A,#0x9
   \   0003A6   12....       LCALL   ?XSTACK_DISP0_8
   \   0003A9   D0E0         POP     A
   \   0003AB   F0           MOVX    @DPTR,A
   2046                dstAddr.addr.shortAddr = matchED->ed1.srcAddr;
   \   0003AC   90....       MOV     DPTR,#matchED
   \   0003AF   E0           MOVX    A,@DPTR
   \   0003B0   F8           MOV     R0,A
   \   0003B1   A3           INC     DPTR
   \   0003B2   E0           MOVX    A,@DPTR
   \   0003B3   F583         MOV     DPH,A
   \   0003B5   8882         MOV     DPL,R0
   \   0003B7   A3           INC     DPTR
   \   0003B8   A3           INC     DPTR
   \   0003B9   E0           MOVX    A,@DPTR
   \   0003BA   F8           MOV     R0,A
   \   0003BB   A3           INC     DPTR
   \   0003BC   E0           MOVX    A,@DPTR
   \   0003BD   F9           MOV     R1,A
   \   0003BE   7401         MOV     A,#0x1
   \   0003C0   12....       LCALL   ?XSTACK_DISP0_8
   \   0003C3   E8           MOV     A,R0
   \   0003C4   F0           MOVX    @DPTR,A
   \   0003C5   A3           INC     DPTR
   \   0003C6   E9           MOV     A,R1
   \   0003C7   F0           MOVX    @DPTR,A
   2047                ZDP_EndDeviceBindRsp( matchED->ed1.TransSeq, &dstAddr, status, matchED->ed1.SecurityUse );
   \   0003C8                ; Setup parameters for call to function ZDP_SendData
   \   0003C8   90....       MOV     DPTR,#matchED
   \   0003CB   E0           MOVX    A,@DPTR
   \   0003CC   F8           MOV     R0,A
   \   0003CD   A3           INC     DPTR
   \   0003CE   E0           MOVX    A,@DPTR
   \   0003CF   F583         MOV     DPH,A
   \   0003D1   8882         MOV     DPL,R0
   \   0003D3   A3           INC     DPTR
   \   0003D4   E0           MOVX    A,@DPTR
   \   0003D5   F5..         MOV     ?V0 + 0,A
   \   0003D7   78..         MOV     R0,#?V0 + 0
   \   0003D9   12....       LCALL   ?PUSH_XSTACK_I_ONE
   \   0003DC   7401         MOV     A,#0x1
   \   0003DE   12....       LCALL   ?XSTACK_DISP0_8
   \   0003E1   8582..       MOV     ?V0 + 0,DPL
   \   0003E4   8583..       MOV     ?V0 + 1,DPH
   \   0003E7   78..         MOV     R0,#?V0 + 0
   \   0003E9   12....       LCALL   ?PUSH_XSTACK_I_TWO
   \   0003EC   75..20       MOV     ?V0 + 0,#0x20
   \   0003EF   75..80       MOV     ?V0 + 1,#-0x80
   \   0003F2   78..         MOV     R0,#?V0 + 0
   \   0003F4   12....       LCALL   ?PUSH_XSTACK_I_TWO
   \   0003F7   7901         MOV     R1,#0x1
   \   0003F9   7406         MOV     A,#0x6
   \   0003FB   12....       LCALL   ?XSTACK_DISP0_8
   \   0003FE   AC82         MOV     R4,DPL
   \   000400   AD83         MOV     R5,DPH
   \   000402   90....       MOV     DPTR,#matchED
   \   000405   E0           MOVX    A,@DPTR
   \   000406   FA           MOV     R2,A
   \   000407   A3           INC     DPTR
   \   000408   E0           MOVX    A,@DPTR
   \   000409   FB           MOV     R3,A
   \   00040A   12....       LCALL   ??ZDP_SendData?relay
   \   00040D   7405         MOV     A,#0x5
   \   00040F   12....       LCALL   ?DEALLOC_XSTACK8
   2048              }
   2049          
   2050              // Process ended - release memory used
   2051              ZDO_RemoveMatchMemory();
   \                     ??ZDO_MatchEndDeviceBind_16:
   \   000412                ; Setup parameters for call to function ZDO_RemoveMatchMemory
   \   000412   12....       LCALL   ??ZDO_RemoveMatchMemory?relay
   2052            }
   2053          }
   \                     ??ZDO_MatchEndDeviceBind_15:
   \   000415   740A         MOV     A,#0xa
   \   000417   12....       LCALL   ?DEALLOC_XSTACK8
   \   00041A   7F06         MOV     R7,#0x6
   \   00041C   02....       LJMP    ?BANKED_LEAVE_XDATA
   2054          
   2055          /*********************************************************************
   2056           * @fn      ZDO_RemoveMatchMemory()
   2057           *
   2058           * @brief   Called to clear the memory used for the end device bind.
   2059           *
   2060           * @param  none
   2061           *
   2062           * @return  none
   2063           */

   \                                 In  segment BANKED_CODE, align 1, keep-with-next
   2064          static void ZDO_RemoveMatchMemory( void )
   \                     ZDO_RemoveMatchMemory:
   2065          {
   \   000000   C082         PUSH    DPL
   \   000002   C083         PUSH    DPH
   \   000004                ; Saved register size: 2
   \   000004                ; Auto size: 0
   2066            if ( matchED != NULL )
   \   000004   90....       MOV     DPTR,#matchED
   \   000007   E0           MOVX    A,@DPTR
   \   000008   7002         JNZ     ??ZDO_RemoveMatchMemory_0
   \   00000A   A3           INC     DPTR
   \   00000B   E0           MOVX    A,@DPTR
   \                     ??ZDO_RemoveMatchMemory_0:
   \   00000C   7003         JNZ     $+5
   \   00000E   02....       LJMP    ??ZDO_RemoveMatchMemory_1 & 0xFFFF
   2067            {
   2068              if ( matchED->ed2Matched != NULL )
   \   000011   90....       MOV     DPTR,#matchED
   \   000014   E0           MOVX    A,@DPTR
   \   000015   2435         ADD     A,#0x35
   \   000017   F8           MOV     R0,A
   \   000018   A3           INC     DPTR
   \   000019   E0           MOVX    A,@DPTR
   \   00001A   3400         ADDC    A,#0x0
   \   00001C   F9           MOV     R1,A
   \   00001D   8882         MOV     DPL,R0
   \   00001F   8983         MOV     DPH,R1
   \   000021   E0           MOVX    A,@DPTR
   \   000022   7002         JNZ     ??ZDO_RemoveMatchMemory_2
   \   000024   A3           INC     DPTR
   \   000025   E0           MOVX    A,@DPTR
   \                     ??ZDO_RemoveMatchMemory_2:
   \   000026   600C         JZ      ??ZDO_RemoveMatchMemory_3
   2069                osal_mem_free( matchED->ed2Matched );
   \   000028                ; Setup parameters for call to function osal_mem_free
   \   000028   8882         MOV     DPL,R0
   \   00002A   8983         MOV     DPH,R1
   \   00002C   E0           MOVX    A,@DPTR
   \   00002D   FA           MOV     R2,A
   \   00002E   A3           INC     DPTR
   \   00002F   E0           MOVX    A,@DPTR
   \   000030   FB           MOV     R3,A
   \   000031   12....       LCALL   ??osal_mem_free?relay
   2070              if ( matchED->ed1Matched != NULL )
   \                     ??ZDO_RemoveMatchMemory_3:
   \   000034   90....       MOV     DPTR,#matchED
   \   000037   E0           MOVX    A,@DPTR
   \   000038   2432         ADD     A,#0x32
   \   00003A   F8           MOV     R0,A
   \   00003B   A3           INC     DPTR
   \   00003C   E0           MOVX    A,@DPTR
   \   00003D   3400         ADDC    A,#0x0
   \   00003F   F9           MOV     R1,A
   \   000040   8882         MOV     DPL,R0
   \   000042   8983         MOV     DPH,R1
   \   000044   E0           MOVX    A,@DPTR
   \   000045   7002         JNZ     ??ZDO_RemoveMatchMemory_4
   \   000047   A3           INC     DPTR
   \   000048   E0           MOVX    A,@DPTR
   \                     ??ZDO_RemoveMatchMemory_4:
   \   000049   600C         JZ      ??ZDO_RemoveMatchMemory_5
   2071                osal_mem_free( matchED->ed1Matched );
   \   00004B                ; Setup parameters for call to function osal_mem_free
   \   00004B   8882         MOV     DPL,R0
   \   00004D   8983         MOV     DPH,R1
   \   00004F   E0           MOVX    A,@DPTR
   \   000050   FA           MOV     R2,A
   \   000051   A3           INC     DPTR
   \   000052   E0           MOVX    A,@DPTR
   \   000053   FB           MOV     R3,A
   \   000054   12....       LCALL   ??osal_mem_free?relay
   2072          
   2073              if ( matchED->ed1.inClusters != NULL )
   \                     ??ZDO_RemoveMatchMemory_5:
   \   000057   90....       MOV     DPTR,#matchED
   \   00005A   E0           MOVX    A,@DPTR
   \   00005B   2412         ADD     A,#0x12
   \   00005D   F8           MOV     R0,A
   \   00005E   A3           INC     DPTR
   \   00005F   E0           MOVX    A,@DPTR
   \   000060   3400         ADDC    A,#0x0
   \   000062   F9           MOV     R1,A
   \   000063   8882         MOV     DPL,R0
   \   000065   8983         MOV     DPH,R1
   \   000067   E0           MOVX    A,@DPTR
   \   000068   7002         JNZ     ??ZDO_RemoveMatchMemory_6
   \   00006A   A3           INC     DPTR
   \   00006B   E0           MOVX    A,@DPTR
   \                     ??ZDO_RemoveMatchMemory_6:
   \   00006C   600C         JZ      ??ZDO_RemoveMatchMemory_7
   2074                osal_mem_free( matchED->ed1.inClusters );
   \   00006E                ; Setup parameters for call to function osal_mem_free
   \   00006E   8882         MOV     DPL,R0
   \   000070   8983         MOV     DPH,R1
   \   000072   E0           MOVX    A,@DPTR
   \   000073   FA           MOV     R2,A
   \   000074   A3           INC     DPTR
   \   000075   E0           MOVX    A,@DPTR
   \   000076   FB           MOV     R3,A
   \   000077   12....       LCALL   ??osal_mem_free?relay
   2075          
   2076              if ( matchED->ed1.outClusters != NULL )
   \                     ??ZDO_RemoveMatchMemory_7:
   \   00007A   90....       MOV     DPTR,#matchED
   \   00007D   E0           MOVX    A,@DPTR
   \   00007E   2415         ADD     A,#0x15
   \   000080   F8           MOV     R0,A
   \   000081   A3           INC     DPTR
   \   000082   E0           MOVX    A,@DPTR
   \   000083   3400         ADDC    A,#0x0
   \   000085   F9           MOV     R1,A
   \   000086   8882         MOV     DPL,R0
   \   000088   8983         MOV     DPH,R1
   \   00008A   E0           MOVX    A,@DPTR
   \   00008B   7002         JNZ     ??ZDO_RemoveMatchMemory_8
   \   00008D   A3           INC     DPTR
   \   00008E   E0           MOVX    A,@DPTR
   \                     ??ZDO_RemoveMatchMemory_8:
   \   00008F   600C         JZ      ??ZDO_RemoveMatchMemory_9
   2077                osal_mem_free( matchED->ed1.outClusters );
   \   000091                ; Setup parameters for call to function osal_mem_free
   \   000091   8882         MOV     DPL,R0
   \   000093   8983         MOV     DPH,R1
   \   000095   E0           MOVX    A,@DPTR
   \   000096   FA           MOV     R2,A
   \   000097   A3           INC     DPTR
   \   000098   E0           MOVX    A,@DPTR
   \   000099   FB           MOV     R3,A
   \   00009A   12....       LCALL   ??osal_mem_free?relay
   2078          
   2079              if ( matchED->ed2.inClusters != NULL )
   \                     ??ZDO_RemoveMatchMemory_9:
   \   00009D   90....       MOV     DPTR,#matchED
   \   0000A0   E0           MOVX    A,@DPTR
   \   0000A1   2429         ADD     A,#0x29
   \   0000A3   F8           MOV     R0,A
   \   0000A4   A3           INC     DPTR
   \   0000A5   E0           MOVX    A,@DPTR
   \   0000A6   3400         ADDC    A,#0x0
   \   0000A8   F9           MOV     R1,A
   \   0000A9   8882         MOV     DPL,R0
   \   0000AB   8983         MOV     DPH,R1
   \   0000AD   E0           MOVX    A,@DPTR
   \   0000AE   7002         JNZ     ??ZDO_RemoveMatchMemory_10
   \   0000B0   A3           INC     DPTR
   \   0000B1   E0           MOVX    A,@DPTR
   \                     ??ZDO_RemoveMatchMemory_10:
   \   0000B2   600C         JZ      ??ZDO_RemoveMatchMemory_11
   2080                osal_mem_free( matchED->ed2.inClusters );
   \   0000B4                ; Setup parameters for call to function osal_mem_free
   \   0000B4   8882         MOV     DPL,R0
   \   0000B6   8983         MOV     DPH,R1
   \   0000B8   E0           MOVX    A,@DPTR
   \   0000B9   FA           MOV     R2,A
   \   0000BA   A3           INC     DPTR
   \   0000BB   E0           MOVX    A,@DPTR
   \   0000BC   FB           MOV     R3,A
   \   0000BD   12....       LCALL   ??osal_mem_free?relay
   2081          
   2082              if ( matchED->ed2.outClusters != NULL )
   \                     ??ZDO_RemoveMatchMemory_11:
   \   0000C0   90....       MOV     DPTR,#matchED
   \   0000C3   E0           MOVX    A,@DPTR
   \   0000C4   242C         ADD     A,#0x2c
   \   0000C6   F8           MOV     R0,A
   \   0000C7   A3           INC     DPTR
   \   0000C8   E0           MOVX    A,@DPTR
   \   0000C9   3400         ADDC    A,#0x0
   \   0000CB   F9           MOV     R1,A
   \   0000CC   8882         MOV     DPL,R0
   \   0000CE   8983         MOV     DPH,R1
   \   0000D0   E0           MOVX    A,@DPTR
   \   0000D1   7002         JNZ     ??ZDO_RemoveMatchMemory_12
   \   0000D3   A3           INC     DPTR
   \   0000D4   E0           MOVX    A,@DPTR
   \                     ??ZDO_RemoveMatchMemory_12:
   \   0000D5   600C         JZ      ??ZDO_RemoveMatchMemory_13
   2083                osal_mem_free( matchED->ed2.outClusters );
   \   0000D7                ; Setup parameters for call to function osal_mem_free
   \   0000D7   8882         MOV     DPL,R0
   \   0000D9   8983         MOV     DPH,R1
   \   0000DB   E0           MOVX    A,@DPTR
   \   0000DC   FA           MOV     R2,A
   \   0000DD   A3           INC     DPTR
   \   0000DE   E0           MOVX    A,@DPTR
   \   0000DF   FB           MOV     R3,A
   \   0000E0   12....       LCALL   ??osal_mem_free?relay
   2084          
   2085              osal_mem_free( matchED );
   \                     ??ZDO_RemoveMatchMemory_13:
   \   0000E3                ; Setup parameters for call to function osal_mem_free
   \   0000E3   90....       MOV     DPTR,#matchED
   \   0000E6   E0           MOVX    A,@DPTR
   \   0000E7   FA           MOV     R2,A
   \   0000E8   A3           INC     DPTR
   \   0000E9   E0           MOVX    A,@DPTR
   \   0000EA   FB           MOV     R3,A
   \   0000EB   12....       LCALL   ??osal_mem_free?relay
   2086          
   2087              matchED = (ZDMatchEndDeviceBind_t *)NULL;
   \   0000EE   90....       MOV     DPTR,#matchED
   \   0000F1   E4           CLR     A
   \   0000F2   F0           MOVX    @DPTR,A
   \   0000F3   A3           INC     DPTR
   \   0000F4   F0           MOVX    @DPTR,A
   2088            }
   2089          }
   \                     ??ZDO_RemoveMatchMemory_1:
   \   0000F5   D083         POP     DPH
   \   0000F7   D082         POP     DPL
   \   0000F9   02....       LJMP    ?BRET
   2090          
   2091          /*********************************************************************
   2092           * @fn      ZDO_CopyMatchInfo()
   2093           *
   2094           * @brief   Called to copy memory used for the end device bind.
   2095           *
   2096           * @param  srcReq - source information
   2097           * @param  dstReq - destination location
   2098           *
   2099           * @return  TRUE if copy was successful.
   2100           */

   \                                 In  segment BANKED_CODE, align 1, keep-with-next
   2101          static uint8 ZDO_CopyMatchInfo( ZDEndDeviceBind_t *destReq, ZDEndDeviceBind_t *srcReq )
   \                     ZDO_CopyMatchInfo:
   2102          {
   \   000000   74F0         MOV     A,#-0x10
   \   000002   12....       LCALL   ?BANKED_ENTER_XDATA
   \   000005                ; Saved register size: 16
   \   000005                ; Auto size: 4
   \   000005   74FC         MOV     A,#-0x4
   \   000007   12....       LCALL   ?ALLOC_XSTACK8
   \   00000A   7402         MOV     A,#0x2
   \   00000C   12....       LCALL   ?XSTACK_DISP0_8
   \   00000F   EC           MOV     A,R4
   \   000010   F0           MOVX    @DPTR,A
   \   000011   A3           INC     DPTR
   \   000012   ED           MOV     A,R5
   \   000013   F0           MOVX    @DPTR,A
   \   000014   8A..         MOV     ?V0 + 4,R2
   \   000016   8B..         MOV     ?V0 + 5,R3
   2103            uint8 allOK = TRUE;
   \   000018   7E01         MOV     R6,#0x1
   2104          
   2105            // Copy bind information into the match info structure
   2106            osal_memcpy( (uint8 *)destReq, srcReq, sizeof ( ZDEndDeviceBind_t ) );
   \   00001A                ; Setup parameters for call to function osal_memcpy
   \   00001A   7402         MOV     A,#0x2
   \   00001C   12....       LCALL   ?XSTACK_DISP0_8
   \   00001F   E0           MOVX    A,@DPTR
   \   000020   F5..         MOV     ?V0 + 0,A
   \   000022   A3           INC     DPTR
   \   000023   E0           MOVX    A,@DPTR
   \   000024   F5..         MOV     ?V0 + 1,A
   \   000026   75..00       MOV     ?V0 + 2,#0x0
   \   000029   78..         MOV     R0,#?V0 + 0
   \   00002B   12....       LCALL   ?PUSH_XSTACK_I_THREE
   \   00002E   7C17         MOV     R4,#0x17
   \   000030   7D00         MOV     R5,#0x0
   \   000032   12....       LCALL   ??osal_memcpy?relay
   \   000035   7403         MOV     A,#0x3
   \   000037   12....       LCALL   ?DEALLOC_XSTACK8
   2107          
   2108            // Initialize the destination cluster pointers
   2109            destReq->inClusters = NULL;
   \   00003A   E5..         MOV     A,?V0 + 4
   \   00003C   2412         ADD     A,#0x12
   \   00003E   F5..         MOV     ?V0 + 6,A
   \   000040   E5..         MOV     A,?V0 + 5
   \   000042   3400         ADDC    A,#0x0
   \   000044   F5..         MOV     ?V0 + 7,A
   \   000046   85..82       MOV     DPL,?V0 + 6
   \   000049   F583         MOV     DPH,A
   \   00004B   E4           CLR     A
   \   00004C   F0           MOVX    @DPTR,A
   \   00004D   A3           INC     DPTR
   \   00004E   F0           MOVX    @DPTR,A
   2110            destReq->outClusters = NULL;
   \   00004F   E5..         MOV     A,?V0 + 4
   \   000051   2415         ADD     A,#0x15
   \   000053   F5..         MOV     ?V0 + 4,A
   \   000055   E5..         MOV     A,?V0 + 5
   \   000057   3400         ADDC    A,#0x0
   \   000059   F5..         MOV     ?V0 + 5,A
   \   00005B   85..82       MOV     DPL,?V0 + 4
   \   00005E   F583         MOV     DPH,A
   \   000060   E4           CLR     A
   \   000061   F0           MOVX    @DPTR,A
   \   000062   A3           INC     DPTR
   \   000063   F0           MOVX    @DPTR,A
   2111          
   2112            // Copy input cluster IDs
   2113            if ( srcReq->numInClusters )
   \   000064   7402         MOV     A,#0x2
   \   000066   12....       LCALL   ?XSTACK_DISP0_8
   \   000069   E0           MOVX    A,@DPTR
   \   00006A   2411         ADD     A,#0x11
   \   00006C   F8           MOV     R0,A
   \   00006D   A3           INC     DPTR
   \   00006E   E0           MOVX    A,@DPTR
   \   00006F   3400         ADDC    A,#0x0
   \   000071   F9           MOV     R1,A
   \   000072   85..82       MOV     DPL,?XSP + 0
   \   000075   85..83       MOV     DPH,?XSP + 1
   \   000078   E8           MOV     A,R0
   \   000079   F0           MOVX    @DPTR,A
   \   00007A   A3           INC     DPTR
   \   00007B   E9           MOV     A,R1
   \   00007C   F0           MOVX    @DPTR,A
   \   00007D   85..82       MOV     DPL,?XSP + 0
   \   000080   85..83       MOV     DPH,?XSP + 1
   \   000083   E0           MOVX    A,@DPTR
   \   000084   F8           MOV     R0,A
   \   000085   A3           INC     DPTR
   \   000086   E0           MOVX    A,@DPTR
   \   000087   F583         MOV     DPH,A
   \   000089   8882         MOV     DPL,R0
   \   00008B   E0           MOVX    A,@DPTR
   \   00008C   6078         JZ      ??ZDO_CopyMatchInfo_0
   2114            {
   2115              destReq->inClusters = osal_mem_alloc( (short)(srcReq->numInClusters * sizeof ( uint16 )) );
   \   00008E                ; Setup parameters for call to function osal_mem_alloc
   \   00008E   85..82       MOV     DPL,?XSP + 0
   \   000091   85..83       MOV     DPH,?XSP + 1
   \   000094   E0           MOVX    A,@DPTR
   \   000095   F8           MOV     R0,A
   \   000096   A3           INC     DPTR
   \   000097   E0           MOVX    A,@DPTR
   \   000098   F583         MOV     DPH,A
   \   00009A   8882         MOV     DPL,R0
   \   00009C   E0           MOVX    A,@DPTR
   \   00009D   C3           CLR     C
   \   00009E   33           RLC     A
   \   00009F   FA           MOV     R2,A
   \   0000A0   E4           CLR     A
   \   0000A1   33           RLC     A
   \   0000A2   FB           MOV     R3,A
   \   0000A3   12....       LCALL   ??osal_mem_alloc?relay
   \   0000A6   85..82       MOV     DPL,?V0 + 6
   \   0000A9   85..83       MOV     DPH,?V0 + 7
   \   0000AC   EA           MOV     A,R2
   \   0000AD   F0           MOVX    @DPTR,A
   \   0000AE   A3           INC     DPTR
   \   0000AF   EB           MOV     A,R3
   \   0000B0   F0           MOVX    @DPTR,A
   2116              if ( destReq->inClusters )
   \   0000B1   85..82       MOV     DPL,?V0 + 6
   \   0000B4   85..83       MOV     DPH,?V0 + 7
   \   0000B7   E0           MOVX    A,@DPTR
   \   0000B8   7002         JNZ     ??ZDO_CopyMatchInfo_1
   \   0000BA   A3           INC     DPTR
   \   0000BB   E0           MOVX    A,@DPTR
   \                     ??ZDO_CopyMatchInfo_1:
   \   0000BC   6047         JZ      ??ZDO_CopyMatchInfo_2
   2117              {
   2118                // Copy the clusters
   2119                osal_memcpy( (uint8*)(destReq->inClusters), (uint8 *)(srcReq->inClusters),
   2120                                (srcReq->numInClusters * sizeof ( uint16 )) );
   \   0000BE                ; Setup parameters for call to function osal_memcpy
   \   0000BE   7402         MOV     A,#0x2
   \   0000C0   12....       LCALL   ?XSTACK_DISP0_8
   \   0000C3   E0           MOVX    A,@DPTR
   \   0000C4   2412         ADD     A,#0x12
   \   0000C6   F8           MOV     R0,A
   \   0000C7   A3           INC     DPTR
   \   0000C8   E0           MOVX    A,@DPTR
   \   0000C9   3400         ADDC    A,#0x0
   \   0000CB   F9           MOV     R1,A
   \   0000CC   8882         MOV     DPL,R0
   \   0000CE   8983         MOV     DPH,R1
   \   0000D0   E0           MOVX    A,@DPTR
   \   0000D1   F5..         MOV     ?V0 + 0,A
   \   0000D3   A3           INC     DPTR
   \   0000D4   E0           MOVX    A,@DPTR
   \   0000D5   F5..         MOV     ?V0 + 1,A
   \   0000D7   78..         MOV     R0,#?V0 + 0
   \   0000D9   12....       LCALL   ?PUSH_XSTACK_I_THREE
   \   0000DC   7403         MOV     A,#0x3
   \   0000DE   12....       LCALL   ?XSTACK_DISP0_8
   \   0000E1   E0           MOVX    A,@DPTR
   \   0000E2   F8           MOV     R0,A
   \   0000E3   A3           INC     DPTR
   \   0000E4   E0           MOVX    A,@DPTR
   \   0000E5   F583         MOV     DPH,A
   \   0000E7   8882         MOV     DPL,R0
   \   0000E9   E0           MOVX    A,@DPTR
   \   0000EA   C3           CLR     C
   \   0000EB   33           RLC     A
   \   0000EC   FC           MOV     R4,A
   \   0000ED   E4           CLR     A
   \   0000EE   33           RLC     A
   \   0000EF   FD           MOV     R5,A
   \   0000F0   85..82       MOV     DPL,?V0 + 6
   \   0000F3   85..83       MOV     DPH,?V0 + 7
   \   0000F6   E0           MOVX    A,@DPTR
   \   0000F7   FA           MOV     R2,A
   \   0000F8   A3           INC     DPTR
   \   0000F9   E0           MOVX    A,@DPTR
   \   0000FA   FB           MOV     R3,A
   \   0000FB   12....       LCALL   ??osal_memcpy?relay
   \   0000FE   7403         MOV     A,#0x3
   \   000100   12....       LCALL   ?DEALLOC_XSTACK8
   \   000103   8001         SJMP    ??ZDO_CopyMatchInfo_0
   2121              }
   2122              else
   2123                allOK = FALSE;
   \                     ??ZDO_CopyMatchInfo_2:
   \   000105   1E           DEC     R6
   2124            }
   2125          
   2126            // Copy output cluster IDs
   2127            if ( srcReq->numOutClusters )
   \                     ??ZDO_CopyMatchInfo_0:
   \   000106   7402         MOV     A,#0x2
   \   000108   12....       LCALL   ?XSTACK_DISP0_8
   \   00010B   E0           MOVX    A,@DPTR
   \   00010C   2414         ADD     A,#0x14
   \   00010E   F8           MOV     R0,A
   \   00010F   A3           INC     DPTR
   \   000110   E0           MOVX    A,@DPTR
   \   000111   3400         ADDC    A,#0x0
   \   000113   F9           MOV     R1,A
   \   000114   85..82       MOV     DPL,?XSP + 0
   \   000117   85..83       MOV     DPH,?XSP + 1
   \   00011A   E8           MOV     A,R0
   \   00011B   F0           MOVX    @DPTR,A
   \   00011C   A3           INC     DPTR
   \   00011D   E9           MOV     A,R1
   \   00011E   F0           MOVX    @DPTR,A
   \   00011F   85..82       MOV     DPL,?XSP + 0
   \   000122   85..83       MOV     DPH,?XSP + 1
   \   000125   E0           MOVX    A,@DPTR
   \   000126   F8           MOV     R0,A
   \   000127   A3           INC     DPTR
   \   000128   E0           MOVX    A,@DPTR
   \   000129   F583         MOV     DPH,A
   \   00012B   8882         MOV     DPL,R0
   \   00012D   E0           MOVX    A,@DPTR
   \   00012E   6079         JZ      ??ZDO_CopyMatchInfo_3
   2128            {
   2129              destReq->outClusters = osal_mem_alloc( (short)(srcReq->numOutClusters * sizeof ( uint16 )) );
   \   000130                ; Setup parameters for call to function osal_mem_alloc
   \   000130   85..82       MOV     DPL,?XSP + 0
   \   000133   85..83       MOV     DPH,?XSP + 1
   \   000136   E0           MOVX    A,@DPTR
   \   000137   F8           MOV     R0,A
   \   000138   A3           INC     DPTR
   \   000139   E0           MOVX    A,@DPTR
   \   00013A   F583         MOV     DPH,A
   \   00013C   8882         MOV     DPL,R0
   \   00013E   E0           MOVX    A,@DPTR
   \   00013F   C3           CLR     C
   \   000140   33           RLC     A
   \   000141   FA           MOV     R2,A
   \   000142   E4           CLR     A
   \   000143   33           RLC     A
   \   000144   FB           MOV     R3,A
   \   000145   12....       LCALL   ??osal_mem_alloc?relay
   \   000148   85..82       MOV     DPL,?V0 + 4
   \   00014B   85..83       MOV     DPH,?V0 + 5
   \   00014E   EA           MOV     A,R2
   \   00014F   F0           MOVX    @DPTR,A
   \   000150   A3           INC     DPTR
   \   000151   EB           MOV     A,R3
   \   000152   F0           MOVX    @DPTR,A
   2130              if ( destReq->outClusters )
   \   000153   85..82       MOV     DPL,?V0 + 4
   \   000156   85..83       MOV     DPH,?V0 + 5
   \   000159   E0           MOVX    A,@DPTR
   \   00015A   7002         JNZ     ??ZDO_CopyMatchInfo_4
   \   00015C   A3           INC     DPTR
   \   00015D   E0           MOVX    A,@DPTR
   \                     ??ZDO_CopyMatchInfo_4:
   \   00015E   6047         JZ      ??ZDO_CopyMatchInfo_5
   2131              {
   2132                // Copy the clusters
   2133                osal_memcpy( (uint8 *)(destReq->outClusters), (uint8 *)(srcReq->outClusters),
   2134                                (srcReq->numOutClusters * sizeof ( uint16 )) );
   \   000160                ; Setup parameters for call to function osal_memcpy
   \   000160   7402         MOV     A,#0x2
   \   000162   12....       LCALL   ?XSTACK_DISP0_8
   \   000165   E0           MOVX    A,@DPTR
   \   000166   2415         ADD     A,#0x15
   \   000168   F8           MOV     R0,A
   \   000169   A3           INC     DPTR
   \   00016A   E0           MOVX    A,@DPTR
   \   00016B   3400         ADDC    A,#0x0
   \   00016D   F9           MOV     R1,A
   \   00016E   8882         MOV     DPL,R0
   \   000170   8983         MOV     DPH,R1
   \   000172   E0           MOVX    A,@DPTR
   \   000173   F5..         MOV     ?V0 + 0,A
   \   000175   A3           INC     DPTR
   \   000176   E0           MOVX    A,@DPTR
   \   000177   F5..         MOV     ?V0 + 1,A
   \   000179   78..         MOV     R0,#?V0 + 0
   \   00017B   12....       LCALL   ?PUSH_XSTACK_I_THREE
   \   00017E   7403         MOV     A,#0x3
   \   000180   12....       LCALL   ?XSTACK_DISP0_8
   \   000183   E0           MOVX    A,@DPTR
   \   000184   F8           MOV     R0,A
   \   000185   A3           INC     DPTR
   \   000186   E0           MOVX    A,@DPTR
   \   000187   F583         MOV     DPH,A
   \   000189   8882         MOV     DPL,R0
   \   00018B   E0           MOVX    A,@DPTR
   \   00018C   C3           CLR     C
   \   00018D   33           RLC     A
   \   00018E   FC           MOV     R4,A
   \   00018F   E4           CLR     A
   \   000190   33           RLC     A
   \   000191   FD           MOV     R5,A
   \   000192   85..82       MOV     DPL,?V0 + 4
   \   000195   85..83       MOV     DPH,?V0 + 5
   \   000198   E0           MOVX    A,@DPTR
   \   000199   FA           MOV     R2,A
   \   00019A   A3           INC     DPTR
   \   00019B   E0           MOVX    A,@DPTR
   \   00019C   FB           MOV     R3,A
   \   00019D   12....       LCALL   ??osal_memcpy?relay
   \   0001A0   7403         MOV     A,#0x3
   \   0001A2   12....       LCALL   ?DEALLOC_XSTACK8
   \   0001A5   8002         SJMP    ??ZDO_CopyMatchInfo_3
   2135              }
   2136              else
   2137                allOK = FALSE;
   \                     ??ZDO_CopyMatchInfo_5:
   \   0001A7   7E00         MOV     R6,#0x0
   2138            }
   2139          
   2140            if ( !allOK )
   \                     ??ZDO_CopyMatchInfo_3:
   \   0001A9   EE           MOV     A,R6
   \   0001AA   7036         JNZ     ??ZDO_CopyMatchInfo_6
   2141            {
   2142              if ( destReq->inClusters != NULL )
   \   0001AC   85..82       MOV     DPL,?V0 + 6
   \   0001AF   85..83       MOV     DPH,?V0 + 7
   \   0001B2   E0           MOVX    A,@DPTR
   \   0001B3   7002         JNZ     ??ZDO_CopyMatchInfo_7
   \   0001B5   A3           INC     DPTR
   \   0001B6   E0           MOVX    A,@DPTR
   \                     ??ZDO_CopyMatchInfo_7:
   \   0001B7   600E         JZ      ??ZDO_CopyMatchInfo_8
   2143                osal_mem_free( destReq->inClusters );
   \   0001B9                ; Setup parameters for call to function osal_mem_free
   \   0001B9   85..82       MOV     DPL,?V0 + 6
   \   0001BC   85..83       MOV     DPH,?V0 + 7
   \   0001BF   E0           MOVX    A,@DPTR
   \   0001C0   FA           MOV     R2,A
   \   0001C1   A3           INC     DPTR
   \   0001C2   E0           MOVX    A,@DPTR
   \   0001C3   FB           MOV     R3,A
   \   0001C4   12....       LCALL   ??osal_mem_free?relay
   2144              if ( destReq->outClusters != NULL )
   \                     ??ZDO_CopyMatchInfo_8:
   \   0001C7   85..82       MOV     DPL,?V0 + 4
   \   0001CA   85..83       MOV     DPH,?V0 + 5
   \   0001CD   E0           MOVX    A,@DPTR
   \   0001CE   7002         JNZ     ??ZDO_CopyMatchInfo_9
   \   0001D0   A3           INC     DPTR
   \   0001D1   E0           MOVX    A,@DPTR
   \                     ??ZDO_CopyMatchInfo_9:
   \   0001D2   600E         JZ      ??ZDO_CopyMatchInfo_6
   2145                osal_mem_free( destReq->outClusters );
   \   0001D4                ; Setup parameters for call to function osal_mem_free
   \   0001D4   85..82       MOV     DPL,?V0 + 4
   \   0001D7   85..83       MOV     DPH,?V0 + 5
   \   0001DA   E0           MOVX    A,@DPTR
   \   0001DB   FA           MOV     R2,A
   \   0001DC   A3           INC     DPTR
   \   0001DD   E0           MOVX    A,@DPTR
   \   0001DE   FB           MOV     R3,A
   \   0001DF   12....       LCALL   ??osal_mem_free?relay
   2146            }
   2147          
   2148            return ( allOK );
   \                     ??ZDO_CopyMatchInfo_6:
   \   0001E2   EE           MOV     A,R6
   \   0001E3   F9           MOV     R1,A
   \   0001E4   7404         MOV     A,#0x4
   \   0001E6   12....       LCALL   ?DEALLOC_XSTACK8
   \   0001E9   7F08         MOV     R7,#0x8
   \   0001EB   02....       LJMP    ?BANKED_LEAVE_XDATA
   2149          }
   2150          
   2151          /*********************************************************************
   2152           * @fn      ZDMatchSendState()
   2153           *
   2154           * @brief   State machine for the End device match message algorithm.
   2155           *
   2156           * @param  reason - state of algoritm
   2157           * @param  status - initial message status
   2158           * @param  TransSeq - next transaction sequence number
   2159           *
   2160           * @return  FALSE if error and we are not currently matching, TRUE
   2161           *          if success.
   2162           */

   \                                 In  segment BANKED_CODE, align 1, keep-with-next
   2163          uint8 ZDMatchSendState( uint8 reason, uint8 status, uint8 TransSeq )
   \                     ZDMatchSendState:
   2164          {
   \   000000   74F0         MOV     A,#-0x10
   \   000002   12....       LCALL   ?BANKED_ENTER_XDATA
   \   000005                ; Saved register size: 16
   \   000005                ; Auto size: 19
   \   000005   74ED         MOV     A,#-0x13
   \   000007   12....       LCALL   ?ALLOC_XSTACK8
   \   00000A   89..         MOV     ?V0 + 0,R1
   \   00000C   8A..         MOV     ?V0 + 1,R2
   2165            uint8 *dstIEEEAddr = NULL;
   \   00000E   75..00       MOV     ?V0 + 6,#0x0
   \   000011   75..00       MOV     ?V0 + 7,#0x0
   2166            uint8 dstEP = 0xFF;
   \   000014   75..FF       MOV     ?V0 + 2,#-0x1
   2167            zAddrType_t dstAddr;
   2168            zAddrType_t destinationAddr;
   2169            uint16 msgType;
   2170            uint16 clusterID = 0xFFFF;
   \   000017   7EFF         MOV     R6,#-0x1
   \   000019   7FFF         MOV     R7,#-0x1
   2171            ZDEndDeviceBind_t *ed = NULL;
   \   00001B   75..00       MOV     ?V0 + 4,#0x0
   \   00001E   75..00       MOV     ?V0 + 5,#0x0
   2172            uint8 rspStatus = ZDP_SUCCESS;
   \   000021   E4           CLR     A
   \   000022   85..82       MOV     DPL,?XSP + 0
   \   000025   85..83       MOV     DPH,?XSP + 1
   \   000028   F0           MOVX    @DPTR,A
   2173          
   2174            if ( matchED == NULL )
   \   000029   90....       MOV     DPTR,#matchED
   \   00002C   E0           MOVX    A,@DPTR
   \   00002D   7002         JNZ     ??ZDMatchSendState_0
   \   00002F   A3           INC     DPTR
   \   000030   E0           MOVX    A,@DPTR
   \                     ??ZDMatchSendState_0:
   \   000031   7005         JNZ     ??ZDMatchSendState_1
   2175              return ( FALSE );
   \                     ??ZDMatchSendState_2:
   \   000033   7900         MOV     R1,#0x0
   \   000035   02....       LJMP    ??ZDMatchSendState_3 & 0xFFFF
   2176          
   2177            // Check sequence number
   2178            if ( reason == ZDMATCH_REASON_BIND_RSP || reason == ZDMATCH_REASON_UNBIND_RSP )
   \                     ??ZDMatchSendState_1:
   \   000038   7403         MOV     A,#0x3
   \   00003A   65..         XRL     A,?V0 + 0
   \   00003C   6006         JZ      ??ZDMatchSendState_4
   \   00003E   7402         MOV     A,#0x2
   \   000040   65..         XRL     A,?V0 + 0
   \   000042   7014         JNZ     ??ZDMatchSendState_5
   2179            {
   2180              if ( TransSeq != matchED->transSeq )
   \                     ??ZDMatchSendState_4:
   \   000044   90....       MOV     DPTR,#matchED
   \   000047   E0           MOVX    A,@DPTR
   \   000048   2430         ADD     A,#0x30
   \   00004A   F8           MOV     R0,A
   \   00004B   A3           INC     DPTR
   \   00004C   E0           MOVX    A,@DPTR
   \   00004D   3400         ADDC    A,#0x0
   \   00004F   F9           MOV     R1,A
   \   000050   8882         MOV     DPL,R0
   \   000052   8983         MOV     DPH,R1
   \   000054   E0           MOVX    A,@DPTR
   \   000055   6B           XRL     A,R3
   \   000056   70DB         JNZ     ??ZDMatchSendState_2
   2181                return( FALSE ); // ignore the message
   2182            }
   2183          
   2184            // turn off timer
   2185            APS_SetEndDeviceBindTimeout( 0, ZDO_EndDeviceBindMatchTimeoutCB );
   \                     ??ZDMatchSendState_5:
   \   000058                ; Setup parameters for call to function APS_SetEndDeviceBindTimeout
   \   000058   7C..         MOV     R4,#(??ZDO_EndDeviceBindMatchTimeoutCB?relay & 0xff)
   \   00005A   7D..         MOV     R5,#((??ZDO_EndDeviceBindMatchTimeoutCB?relay >> 8) & 0xff)
   \   00005C   7A00         MOV     R2,#0x0
   \   00005E   7B00         MOV     R3,#0x0
   \   000060   12....       LCALL   ??APS_SetEndDeviceBindTimeout?relay
   2186          
   2187            if ( reason == ZDMATCH_REASON_TIMEOUT )
   \   000063   7401         MOV     A,#0x1
   \   000065   65..         XRL     A,?V0 + 0
   \   000067   7009         JNZ     ??ZDMatchSendState_6
   2188            {
   2189              rspStatus = ZDP_TIMEOUT;    // The process will stop
   \   000069   7485         MOV     A,#-0x7b
   \   00006B   85..82       MOV     DPL,?XSP + 0
   \   00006E   85..83       MOV     DPH,?XSP + 1
   \   000071   F0           MOVX    @DPTR,A
   2190            }
   2191          
   2192            if ( reason == ZDMATCH_REASON_START || reason == ZDMATCH_REASON_BIND_RSP )
   \                     ??ZDMatchSendState_6:
   \   000072   E5..         MOV     A,?V0 + 0
   \   000074   6006         JZ      ??ZDMatchSendState_7
   \   000076   7403         MOV     A,#0x3
   \   000078   65..         XRL     A,?V0 + 0
   \   00007A   7029         JNZ     ??ZDMatchSendState_8
   2193            {
   2194              matchED->sending = ZDMATCH_SENDING_UNBIND;
   \                     ??ZDMatchSendState_7:
   \   00007C   7401         MOV     A,#0x1
   \   00007E   C0E0         PUSH    A
   \   000080   90....       MOV     DPTR,#matchED
   \   000083   E0           MOVX    A,@DPTR
   \   000084   242F         ADD     A,#0x2f
   \   000086   F8           MOV     R0,A
   \   000087   A3           INC     DPTR
   \   000088   E0           MOVX    A,@DPTR
   \   000089   3400         ADDC    A,#0x0
   \   00008B   F9           MOV     R1,A
   \   00008C   8882         MOV     DPL,R0
   \   00008E   8983         MOV     DPH,R1
   \   000090   D0E0         POP     A
   \   000092   F0           MOVX    @DPTR,A
   2195          
   2196              if ( reason == ZDMATCH_REASON_BIND_RSP && status != ZDP_SUCCESS )
   \   000093   7403         MOV     A,#0x3
   \   000095   65..         XRL     A,?V0 + 0
   \   000097   702D         JNZ     ??ZDMatchSendState_9
   \   000099   E5..         MOV     A,?V0 + 1
   \   00009B   6029         JZ      ??ZDMatchSendState_9
   2197              {
   2198                rspStatus = status;
   \   00009D   85..82       MOV     DPL,?XSP + 0
   \   0000A0   85..83       MOV     DPH,?XSP + 1
   \   0000A3   8020         SJMP    ??ZDMatchSendState_10
   2199              }
   2200            }
   2201            else if ( reason == ZDMATCH_REASON_UNBIND_RSP )
   \                     ??ZDMatchSendState_8:
   \   0000A5   7402         MOV     A,#0x2
   \   0000A7   65..         XRL     A,?V0 + 0
   \   0000A9   701B         JNZ     ??ZDMatchSendState_9
   2202            {
   2203              if ( status == ZDP_SUCCESS )
   \   0000AB   90....       MOV     DPTR,#matchED
   \   0000AE   E0           MOVX    A,@DPTR
   \   0000AF   242F         ADD     A,#0x2f
   \   0000B1   F8           MOV     R0,A
   \   0000B2   A3           INC     DPTR
   \   0000B3   E0           MOVX    A,@DPTR
   \   0000B4   3400         ADDC    A,#0x0
   \   0000B6   F9           MOV     R1,A
   \   0000B7   8882         MOV     DPL,R0
   \   0000B9   8983         MOV     DPH,R1
   \   0000BB   E5..         MOV     A,?V0 + 1
   \   0000BD   7004         JNZ     ??ZDMatchSendState_11
   2204              {
   2205                matchED->sending = ZDMATCH_SENDING_UNBIND;
   \   0000BF   7401         MOV     A,#0x1
   \   0000C1   8002         SJMP    ??ZDMatchSendState_10
   2206              }
   2207              else
   2208              {
   2209                matchED->sending = ZDMATCH_SENDING_BIND;
   \                     ??ZDMatchSendState_11:
   \   0000C3   7402         MOV     A,#0x2
   \                     ??ZDMatchSendState_10:
   \   0000C5   F0           MOVX    @DPTR,A
   2210              }
   2211            }
   2212          
   2213            if ( reason != ZDMATCH_REASON_START && matchED->sending == ZDMATCH_SENDING_UNBIND )
   \                     ??ZDMatchSendState_9:
   \   0000C6   E5..         MOV     A,?V0 + 0
   \   0000C8   603E         JZ      ??ZDMatchSendState_12
   \   0000CA   90....       MOV     DPTR,#matchED
   \   0000CD   E0           MOVX    A,@DPTR
   \   0000CE   242F         ADD     A,#0x2f
   \   0000D0   F8           MOV     R0,A
   \   0000D1   A3           INC     DPTR
   \   0000D2   E0           MOVX    A,@DPTR
   \   0000D3   3400         ADDC    A,#0x0
   \   0000D5   F9           MOV     R1,A
   \   0000D6   8882         MOV     DPL,R0
   \   0000D8   8983         MOV     DPH,R1
   \   0000DA   E0           MOVX    A,@DPTR
   \   0000DB   6401         XRL     A,#0x1
   \   0000DD   7029         JNZ     ??ZDMatchSendState_12
   2214            {
   2215              // Move to the next cluster ID
   2216              if ( matchED->ed1numMatched )
   \   0000DF   90....       MOV     DPTR,#matchED
   \   0000E2   E0           MOVX    A,@DPTR
   \   0000E3   2431         ADD     A,#0x31
   \   0000E5   F8           MOV     R0,A
   \   0000E6   A3           INC     DPTR
   \   0000E7   E0           MOVX    A,@DPTR
   \   0000E8   3400         ADDC    A,#0x0
   \   0000EA   F9           MOV     R1,A
   \   0000EB   8882         MOV     DPL,R0
   \   0000ED   8983         MOV     DPH,R1
   \   0000EF   E0           MOVX    A,@DPTR
   \   0000F0   7013         JNZ     ??ZDMatchSendState_13
   2217                matchED->ed1numMatched--;
   2218              else if ( matchED->ed2numMatched )
   \   0000F2   90....       MOV     DPTR,#matchED
   \   0000F5   E0           MOVX    A,@DPTR
   \   0000F6   2434         ADD     A,#0x34
   \   0000F8   F8           MOV     R0,A
   \   0000F9   A3           INC     DPTR
   \   0000FA   E0           MOVX    A,@DPTR
   \   0000FB   3400         ADDC    A,#0x0
   \   0000FD   F9           MOV     R1,A
   \   0000FE   8882         MOV     DPL,R0
   \   000100   8983         MOV     DPH,R1
   \   000102   E0           MOVX    A,@DPTR
   \   000103   6003         JZ      ??ZDMatchSendState_12
   2219                matchED->ed2numMatched--;
   \                     ??ZDMatchSendState_13:
   \   000105   E0           MOVX    A,@DPTR
   \   000106   14           DEC     A
   \   000107   F0           MOVX    @DPTR,A
   2220            }
   2221          
   2222            // What message do we send now
   2223            if ( matchED->ed1numMatched )
   \                     ??ZDMatchSendState_12:
   \   000108   90....       MOV     DPTR,#matchED
   \   00010B   E0           MOVX    A,@DPTR
   \   00010C   2431         ADD     A,#0x31
   \   00010E   F8           MOV     R0,A
   \   00010F   A3           INC     DPTR
   \   000110   E0           MOVX    A,@DPTR
   \   000111   3400         ADDC    A,#0x0
   \   000113   F9           MOV     R1,A
   \   000114   8882         MOV     DPL,R0
   \   000116   8983         MOV     DPH,R1
   \   000118   E0           MOVX    A,@DPTR
   \   000119   90....       MOV     DPTR,#matchED
   \   00011C   604D         JZ      ??ZDMatchSendState_14
   2224            {
   2225              ed = &(matchED->ed1);
   \   00011E   E0           MOVX    A,@DPTR
   \   00011F   F5..         MOV     ?V0 + 4,A
   \   000121   A3           INC     DPTR
   \   000122   E0           MOVX    A,@DPTR
   \   000123   F5..         MOV     ?V0 + 5,A
   2226              clusterID = matchED->ed1Matched[matchED->ed1numMatched-1];
   \   000125   8882         MOV     DPL,R0
   \   000127   8983         MOV     DPH,R1
   \   000129   E0           MOVX    A,@DPTR
   \   00012A   C3           CLR     C
   \   00012B   33           RLC     A
   \   00012C   F8           MOV     R0,A
   \   00012D   E4           CLR     A
   \   00012E   33           RLC     A
   \   00012F   F9           MOV     R1,A
   \   000130   90....       MOV     DPTR,#matchED
   \   000133   E0           MOVX    A,@DPTR
   \   000134   2432         ADD     A,#0x32
   \   000136   FA           MOV     R2,A
   \   000137   A3           INC     DPTR
   \   000138   E0           MOVX    A,@DPTR
   \   000139   3400         ADDC    A,#0x0
   \   00013B   FB           MOV     R3,A
   \   00013C   8A82         MOV     DPL,R2
   \   00013E   8B83         MOV     DPH,R3
   \   000140   E0           MOVX    A,@DPTR
   \   000141   28           ADD     A,R0
   \   000142   F8           MOV     R0,A
   \   000143   A3           INC     DPTR
   \   000144   E0           MOVX    A,@DPTR
   \   000145   39           ADDC    A,R1
   \   000146   F9           MOV     R1,A
   \   000147   74FE         MOV     A,#-0x2
   \   000149   28           ADD     A,R0
   \   00014A   F582         MOV     DPL,A
   \   00014C   EE           MOV     A,R6
   \   00014D   39           ADDC    A,R1
   \   00014E   F583         MOV     DPH,A
   \   000150   E0           MOVX    A,@DPTR
   \   000151   FE           MOV     R6,A
   \   000152   A3           INC     DPTR
   \   000153   E0           MOVX    A,@DPTR
   \   000154   FF           MOV     R7,A
   2227              dstIEEEAddr = matchED->ed2.ieeeAddr;
   \   000155   90....       MOV     DPTR,#matchED
   \   000158   E0           MOVX    A,@DPTR
   \   000159   241D         ADD     A,#0x1d
   \   00015B   F5..         MOV     ?V0 + 6,A
   \   00015D   A3           INC     DPTR
   \   00015E   E0           MOVX    A,@DPTR
   \   00015F   3400         ADDC    A,#0x0
   \   000161   F5..         MOV     ?V0 + 7,A
   2228              dstEP = matchED->ed2.endpoint;
   \   000163   90....       MOV     DPTR,#matchED
   \   000166   E0           MOVX    A,@DPTR
   \   000167   2425         ADD     A,#0x25
   \   000169   8062         SJMP    ??ZDMatchSendState_15
   2229            }
   2230            else if ( matchED->ed2numMatched )
   \                     ??ZDMatchSendState_14:
   \   00016B   E0           MOVX    A,@DPTR
   \   00016C   2434         ADD     A,#0x34
   \   00016E   F8           MOV     R0,A
   \   00016F   A3           INC     DPTR
   \   000170   E0           MOVX    A,@DPTR
   \   000171   3400         ADDC    A,#0x0
   \   000173   F9           MOV     R1,A
   \   000174   8882         MOV     DPL,R0
   \   000176   8983         MOV     DPH,R1
   \   000178   E0           MOVX    A,@DPTR
   \   000179   605F         JZ      ??ZDMatchSendState_16
   2231            {
   2232              ed = &(matchED->ed2);
   \   00017B   90....       MOV     DPTR,#matchED
   \   00017E   E0           MOVX    A,@DPTR
   \   00017F   2417         ADD     A,#0x17
   \   000181   F5..         MOV     ?V0 + 4,A
   \   000183   A3           INC     DPTR
   \   000184   E0           MOVX    A,@DPTR
   \   000185   3400         ADDC    A,#0x0
   \   000187   F5..         MOV     ?V0 + 5,A
   2233              clusterID = matchED->ed2Matched[matchED->ed2numMatched-1];
   \   000189   8882         MOV     DPL,R0
   \   00018B   8983         MOV     DPH,R1
   \   00018D   E0           MOVX    A,@DPTR
   \   00018E   C3           CLR     C
   \   00018F   33           RLC     A
   \   000190   F8           MOV     R0,A
   \   000191   E4           CLR     A
   \   000192   33           RLC     A
   \   000193   F9           MOV     R1,A
   \   000194   90....       MOV     DPTR,#matchED
   \   000197   E0           MOVX    A,@DPTR
   \   000198   2435         ADD     A,#0x35
   \   00019A   FA           MOV     R2,A
   \   00019B   A3           INC     DPTR
   \   00019C   E0           MOVX    A,@DPTR
   \   00019D   3400         ADDC    A,#0x0
   \   00019F   FB           MOV     R3,A
   \   0001A0   8A82         MOV     DPL,R2
   \   0001A2   8B83         MOV     DPH,R3
   \   0001A4   E0           MOVX    A,@DPTR
   \   0001A5   28           ADD     A,R0
   \   0001A6   F8           MOV     R0,A
   \   0001A7   A3           INC     DPTR
   \   0001A8   E0           MOVX    A,@DPTR
   \   0001A9   39           ADDC    A,R1
   \   0001AA   F9           MOV     R1,A
   \   0001AB   74FE         MOV     A,#-0x2
   \   0001AD   28           ADD     A,R0
   \   0001AE   F582         MOV     DPL,A
   \   0001B0   EE           MOV     A,R6
   \   0001B1   39           ADDC    A,R1
   \   0001B2   F583         MOV     DPH,A
   \   0001B4   E0           MOVX    A,@DPTR
   \   0001B5   FE           MOV     R6,A
   \   0001B6   A3           INC     DPTR
   \   0001B7   E0           MOVX    A,@DPTR
   \   0001B8   FF           MOV     R7,A
   2234              dstIEEEAddr = matchED->ed1.ieeeAddr;
   \   0001B9   90....       MOV     DPTR,#matchED
   \   0001BC   E0           MOVX    A,@DPTR
   \   0001BD   2406         ADD     A,#0x6
   \   0001BF   F5..         MOV     ?V0 + 6,A
   \   0001C1   A3           INC     DPTR
   \   0001C2   E0           MOVX    A,@DPTR
   \   0001C3   3400         ADDC    A,#0x0
   \   0001C5   F5..         MOV     ?V0 + 7,A
   2235              dstEP = matchED->ed1.endpoint;
   \   0001C7   90....       MOV     DPTR,#matchED
   \   0001CA   E0           MOVX    A,@DPTR
   \   0001CB   240E         ADD     A,#0xe
   \                     ??ZDMatchSendState_15:
   \   0001CD   F8           MOV     R0,A
   \   0001CE   A3           INC     DPTR
   \   0001CF   E0           MOVX    A,@DPTR
   \   0001D0   3400         ADDC    A,#0x0
   \   0001D2   F9           MOV     R1,A
   \   0001D3   8882         MOV     DPL,R0
   \   0001D5   8983         MOV     DPH,R1
   \   0001D7   E0           MOVX    A,@DPTR
   \   0001D8   F5..         MOV     ?V0 + 2,A
   2236            }
   2237          
   2238            dstAddr.addrMode = Addr16Bit;
   \                     ??ZDMatchSendState_16:
   \   0001DA   7402         MOV     A,#0x2
   \   0001DC   C0E0         PUSH    A
   \   0001DE   7409         MOV     A,#0x9
   \   0001E0   12....       LCALL   ?XSTACK_DISP0_8
   \   0001E3   D0E0         POP     A
   \   0001E5   F0           MOVX    @DPTR,A
   2239          
   2240            // Send the next message
   2241            if ( rspStatus == ZDP_SUCCESS && ed )
   \   0001E6   85..82       MOV     DPL,?XSP + 0
   \   0001E9   85..83       MOV     DPH,?XSP + 1
   \   0001EC   E0           MOVX    A,@DPTR
   \   0001ED   6003         JZ      $+5
   \   0001EF   02....       LJMP    ??ZDMatchSendState_17 & 0xFFFF
   \   0001F2   E5..         MOV     A,?V0 + 4
   \   0001F4   7002         JNZ     ??ZDMatchSendState_18
   \   0001F6   E5..         MOV     A,?V0 + 5
   \                     ??ZDMatchSendState_18:
   \   0001F8   7003         JNZ     $+5
   \   0001FA   02....       LJMP    ??ZDMatchSendState_17 & 0xFFFF
   2242            {
   2243              // Send unbind/bind message to source
   2244              if ( matchED->sending == ZDMATCH_SENDING_UNBIND )
   \   0001FD   90....       MOV     DPTR,#matchED
   \   000200   E0           MOVX    A,@DPTR
   \   000201   242F         ADD     A,#0x2f
   \   000203   F8           MOV     R0,A
   \   000204   A3           INC     DPTR
   \   000205   E0           MOVX    A,@DPTR
   \   000206   3400         ADDC    A,#0x0
   \   000208   F9           MOV     R1,A
   \   000209   8882         MOV     DPL,R0
   \   00020B   8983         MOV     DPH,R1
   \   00020D   E0           MOVX    A,@DPTR
   \   00020E   6401         XRL     A,#0x1
   \   000210   7005         JNZ     ??ZDMatchSendState_19
   2245                msgType = Unbind_req;
   \   000212   75..22       MOV     ?V0 + 0,#0x22
   \   000215   8003         SJMP    ??ZDMatchSendState_20
   2246              else
   2247                msgType = Bind_req;
   \                     ??ZDMatchSendState_19:
   \   000217   75..21       MOV     ?V0 + 0,#0x21
   2248          
   2249              dstAddr.addr.shortAddr = ed->srcAddr;
   \                     ??ZDMatchSendState_20:
   \   00021A   85..82       MOV     DPL,?V0 + 4
   \   00021D   85..83       MOV     DPH,?V0 + 5
   \   000220   A3           INC     DPTR
   \   000221   A3           INC     DPTR
   \   000222   E0           MOVX    A,@DPTR
   \   000223   F8           MOV     R0,A
   \   000224   A3           INC     DPTR
   \   000225   E0           MOVX    A,@DPTR
   \   000226   F9           MOV     R1,A
   \   000227   7401         MOV     A,#0x1
   \   000229   12....       LCALL   ?XSTACK_DISP0_8
   \   00022C   E8           MOV     A,R0
   \   00022D   F0           MOVX    @DPTR,A
   \   00022E   A3           INC     DPTR
   \   00022F   E9           MOV     A,R1
   \   000230   F0           MOVX    @DPTR,A
   2250          
   2251              // Save off the transaction sequence number
   2252              matchED->transSeq = ZDP_TransID;
   \   000231   90....       MOV     DPTR,#ZDP_TransID
   \   000234   E0           MOVX    A,@DPTR
   \   000235   C0E0         PUSH    A
   \   000237   90....       MOV     DPTR,#matchED
   \   00023A   E0           MOVX    A,@DPTR
   \   00023B   2430         ADD     A,#0x30
   \   00023D   F8           MOV     R0,A
   \   00023E   A3           INC     DPTR
   \   00023F   E0           MOVX    A,@DPTR
   \   000240   3400         ADDC    A,#0x0
   \   000242   F9           MOV     R1,A
   \   000243   8882         MOV     DPL,R0
   \   000245   8983         MOV     DPH,R1
   \   000247   D0E0         POP     A
   \   000249   F0           MOVX    @DPTR,A
   2253          
   2254              destinationAddr.addrMode = Addr64Bit;
   \   00024A   7403         MOV     A,#0x3
   \   00024C   C0E0         PUSH    A
   \   00024E   7412         MOV     A,#0x12
   \   000250   12....       LCALL   ?XSTACK_DISP0_8
   \   000253   D0E0         POP     A
   \   000255   F0           MOVX    @DPTR,A
   2255              osal_cpyExtAddr( destinationAddr.addr.extAddr, dstIEEEAddr );
   \   000256                ; Setup parameters for call to function sAddrExtCpy
   \   000256   AC..         MOV     R4,?V0 + 6
   \   000258   AD..         MOV     R5,?V0 + 7
   \   00025A   740A         MOV     A,#0xa
   \   00025C   12....       LCALL   ?XSTACK_DISP0_8
   \   00025F   AA82         MOV     R2,DPL
   \   000261   AB83         MOV     R3,DPH
   \   000263   12....       LCALL   ??sAddrExtCpy?relay
   2256          
   2257              ZDP_BindUnbindReq( msgType, &dstAddr, ed->ieeeAddr, ed->endpoint, clusterID,
   2258                  &destinationAddr, dstEP, ed->SecurityUse );
   \   000266                ; Setup parameters for call to function ZDP_BindUnbindReq
   \   000266   85..82       MOV     DPL,?V0 + 4
   \   000269   85..83       MOV     DPH,?V0 + 5
   \   00026C   A3           INC     DPTR
   \   00026D   E0           MOVX    A,@DPTR
   \   00026E   F5..         MOV     ?V0 + 3,A
   \   000270   78..         MOV     R0,#?V0 + 3
   \   000272   12....       LCALL   ?PUSH_XSTACK_I_ONE
   \   000275   78..         MOV     R0,#?V0 + 2
   \   000277   12....       LCALL   ?PUSH_XSTACK_I_ONE
   \   00027A   740C         MOV     A,#0xc
   \   00027C   12....       LCALL   ?XSTACK_DISP0_8
   \   00027F   8582..       MOV     ?V0 + 2,DPL
   \   000282   8583..       MOV     ?V0 + 3,DPH
   \   000285   78..         MOV     R0,#?V0 + 2
   \   000287   12....       LCALL   ?PUSH_XSTACK_I_TWO
   \   00028A   8E..         MOV     ?V0 + 2,R6
   \   00028C   8F..         MOV     ?V0 + 3,R7
   \   00028E   78..         MOV     R0,#?V0 + 2
   \   000290   12....       LCALL   ?PUSH_XSTACK_I_TWO
   \   000293   E5..         MOV     A,?V0 + 4
   \   000295   2406         ADD     A,#0x6
   \   000297   F5..         MOV     ?V0 + 2,A
   \   000299   E5..         MOV     A,?V0 + 5
   \   00029B   3400         ADDC    A,#0x0
   \   00029D   F5..         MOV     ?V0 + 3,A
   \   00029F   78..         MOV     R0,#?V0 + 2
   \   0002A1   12....       LCALL   ?PUSH_XSTACK_I_TWO
   \   0002A4   E5..         MOV     A,?V0 + 4
   \   0002A6   240E         ADD     A,#0xe
   \   0002A8   F582         MOV     DPL,A
   \   0002AA   E5..         MOV     A,?V0 + 5
   \   0002AC   3400         ADDC    A,#0x0
   \   0002AE   F583         MOV     DPH,A
   \   0002B0   E0           MOVX    A,@DPTR
   \   0002B1   F9           MOV     R1,A
   \   0002B2   7409         MOV     A,#0x9
   \   0002B4   12....       LCALL   ?XSTACK_DISP0_8
   \   0002B7   AC82         MOV     R4,DPL
   \   0002B9   AD83         MOV     R5,DPH
   \   0002BB   AA..         MOV     R2,?V0 + 0
   \   0002BD   7B00         MOV     R3,#0x0
   \   0002BF   12....       LCALL   ??ZDP_BindUnbindReq?relay
   \   0002C2   7408         MOV     A,#0x8
   \   0002C4   12....       LCALL   ?DEALLOC_XSTACK8
   2259          
   2260              // Set timeout for response
   2261              APS_SetEndDeviceBindTimeout( AIB_MaxBindingTime, ZDO_EndDeviceBindMatchTimeoutCB );
   \   0002C7                ; Setup parameters for call to function APS_SetEndDeviceBindTimeout
   \   0002C7   7C..         MOV     R4,#(??ZDO_EndDeviceBindMatchTimeoutCB?relay & 0xff)
   \   0002C9   7D..         MOV     R5,#((??ZDO_EndDeviceBindMatchTimeoutCB?relay >> 8) & 0xff)
   \   0002CB   90....       MOV     DPTR,#AIB_MaxBindingTime
   \   0002CE   E0           MOVX    A,@DPTR
   \   0002CF   FA           MOV     R2,A
   \   0002D0   A3           INC     DPTR
   \   0002D1   E0           MOVX    A,@DPTR
   \   0002D2   FB           MOV     R3,A
   \   0002D3   12....       LCALL   ??APS_SetEndDeviceBindTimeout?relay
   \   0002D6   02....       LJMP    ??ZDMatchSendState_21 & 0xFFFF
   2262            }
   2263            else
   2264            {
   2265              // Send the response messages to requesting devices
   2266              // send response to first requester
   2267              dstAddr.addr.shortAddr = matchED->ed1.srcAddr;
   \                     ??ZDMatchSendState_17:
   \   0002D9   90....       MOV     DPTR,#matchED
   \   0002DC   E0           MOVX    A,@DPTR
   \   0002DD   F8           MOV     R0,A
   \   0002DE   A3           INC     DPTR
   \   0002DF   E0           MOVX    A,@DPTR
   \   0002E0   F583         MOV     DPH,A
   \   0002E2   8882         MOV     DPL,R0
   \   0002E4   A3           INC     DPTR
   \   0002E5   A3           INC     DPTR
   \   0002E6   E0           MOVX    A,@DPTR
   \   0002E7   F8           MOV     R0,A
   \   0002E8   A3           INC     DPTR
   \   0002E9   E0           MOVX    A,@DPTR
   \   0002EA   F9           MOV     R1,A
   \   0002EB   7401         MOV     A,#0x1
   \   0002ED   12....       LCALL   ?XSTACK_DISP0_8
   \   0002F0   E8           MOV     A,R0
   \   0002F1   F0           MOVX    @DPTR,A
   \   0002F2   A3           INC     DPTR
   \   0002F3   E9           MOV     A,R1
   \   0002F4   F0           MOVX    @DPTR,A
   2268              ZDP_EndDeviceBindRsp( matchED->ed1.TransSeq, &dstAddr, rspStatus, matchED->ed1.SecurityUse );
   \   0002F5                ; Setup parameters for call to function ZDP_SendData
   \   0002F5   90....       MOV     DPTR,#matchED
   \   0002F8   E0           MOVX    A,@DPTR
   \   0002F9   F8           MOV     R0,A
   \   0002FA   A3           INC     DPTR
   \   0002FB   E0           MOVX    A,@DPTR
   \   0002FC   F583         MOV     DPH,A
   \   0002FE   8882         MOV     DPL,R0
   \   000300   A3           INC     DPTR
   \   000301   E0           MOVX    A,@DPTR
   \   000302   F5..         MOV     ?V0 + 0,A
   \   000304   78..         MOV     R0,#?V0 + 0
   \   000306   12....       LCALL   ?PUSH_XSTACK_I_ONE
   \   000309   7401         MOV     A,#0x1
   \   00030B   12....       LCALL   ?XSTACK_DISP0_8
   \   00030E   8582..       MOV     ?V0 + 0,DPL
   \   000311   8583..       MOV     ?V0 + 1,DPH
   \   000314   78..         MOV     R0,#?V0 + 0
   \   000316   12....       LCALL   ?PUSH_XSTACK_I_TWO
   \   000319   75..20       MOV     ?V0 + 0,#0x20
   \   00031C   75..80       MOV     ?V0 + 1,#-0x80
   \   00031F   78..         MOV     R0,#?V0 + 0
   \   000321   12....       LCALL   ?PUSH_XSTACK_I_TWO
   \   000324   7901         MOV     R1,#0x1
   \   000326   7406         MOV     A,#0x6
   \   000328   12....       LCALL   ?XSTACK_DISP0_8
   \   00032B   AC82         MOV     R4,DPL
   \   00032D   AD83         MOV     R5,DPH
   \   00032F   90....       MOV     DPTR,#matchED
   \   000332   E0           MOVX    A,@DPTR
   \   000333   FA           MOV     R2,A
   \   000334   A3           INC     DPTR
   \   000335   E0           MOVX    A,@DPTR
   \   000336   FB           MOV     R3,A
   \   000337   12....       LCALL   ??ZDP_SendData?relay
   \   00033A   7405         MOV     A,#0x5
   \   00033C   12....       LCALL   ?DEALLOC_XSTACK8
   2269          
   2270              // send response to second requester
   2271              if ( matchED->state == ZDMATCH_SENDING_BINDS )
   \   00033F   90....       MOV     DPTR,#matchED
   \   000342   E0           MOVX    A,@DPTR
   \   000343   242E         ADD     A,#0x2e
   \   000345   F8           MOV     R0,A
   \   000346   A3           INC     DPTR
   \   000347   E0           MOVX    A,@DPTR
   \   000348   3400         ADDC    A,#0x0
   \   00034A   F9           MOV     R1,A
   \   00034B   8882         MOV     DPL,R0
   \   00034D   8983         MOV     DPH,R1
   \   00034F   E0           MOVX    A,@DPTR
   \   000350   6402         XRL     A,#0x2
   \   000352   7071         JNZ     ??ZDMatchSendState_22
   2272              {
   2273                dstAddr.addr.shortAddr = matchED->ed2.srcAddr;
   \   000354   90....       MOV     DPTR,#matchED
   \   000357   E0           MOVX    A,@DPTR
   \   000358   2419         ADD     A,#0x19
   \   00035A   F8           MOV     R0,A
   \   00035B   A3           INC     DPTR
   \   00035C   E0           MOVX    A,@DPTR
   \   00035D   3400         ADDC    A,#0x0
   \   00035F   F9           MOV     R1,A
   \   000360   8882         MOV     DPL,R0
   \   000362   8983         MOV     DPH,R1
   \   000364   E0           MOVX    A,@DPTR
   \   000365   F8           MOV     R0,A
   \   000366   A3           INC     DPTR
   \   000367   E0           MOVX    A,@DPTR
   \   000368   F9           MOV     R1,A
   \   000369   7401         MOV     A,#0x1
   \   00036B   12....       LCALL   ?XSTACK_DISP0_8
   \   00036E   E8           MOV     A,R0
   \   00036F   F0           MOVX    @DPTR,A
   \   000370   A3           INC     DPTR
   \   000371   E9           MOV     A,R1
   \   000372   F0           MOVX    @DPTR,A
   2274                ZDP_EndDeviceBindRsp( matchED->ed2.TransSeq, &dstAddr, rspStatus, matchED->ed2.SecurityUse );
   \   000373                ; Setup parameters for call to function ZDP_SendData
   \   000373   90....       MOV     DPTR,#matchED
   \   000376   E0           MOVX    A,@DPTR
   \   000377   2418         ADD     A,#0x18
   \   000379   F8           MOV     R0,A
   \   00037A   A3           INC     DPTR
   \   00037B   E0           MOVX    A,@DPTR
   \   00037C   3400         ADDC    A,#0x0
   \   00037E   F9           MOV     R1,A
   \   00037F   8882         MOV     DPL,R0
   \   000381   8983         MOV     DPH,R1
   \   000383   E0           MOVX    A,@DPTR
   \   000384   F5..         MOV     ?V0 + 0,A
   \   000386   78..         MOV     R0,#?V0 + 0
   \   000388   12....       LCALL   ?PUSH_XSTACK_I_ONE
   \   00038B   7401         MOV     A,#0x1
   \   00038D   12....       LCALL   ?XSTACK_DISP0_8
   \   000390   8582..       MOV     ?V0 + 0,DPL
   \   000393   8583..       MOV     ?V0 + 1,DPH
   \   000396   78..         MOV     R0,#?V0 + 0
   \   000398   12....       LCALL   ?PUSH_XSTACK_I_TWO
   \   00039B   75..20       MOV     ?V0 + 0,#0x20
   \   00039E   75..80       MOV     ?V0 + 1,#-0x80
   \   0003A1   78..         MOV     R0,#?V0 + 0
   \   0003A3   12....       LCALL   ?PUSH_XSTACK_I_TWO
   \   0003A6   7901         MOV     R1,#0x1
   \   0003A8   7406         MOV     A,#0x6
   \   0003AA   12....       LCALL   ?XSTACK_DISP0_8
   \   0003AD   AC82         MOV     R4,DPL
   \   0003AF   AD83         MOV     R5,DPH
   \   0003B1   90....       MOV     DPTR,#matchED
   \   0003B4   E0           MOVX    A,@DPTR
   \   0003B5   2417         ADD     A,#0x17
   \   0003B7   FA           MOV     R2,A
   \   0003B8   A3           INC     DPTR
   \   0003B9   E0           MOVX    A,@DPTR
   \   0003BA   3400         ADDC    A,#0x0
   \   0003BC   FB           MOV     R3,A
   \   0003BD   12....       LCALL   ??ZDP_SendData?relay
   \   0003C0   7405         MOV     A,#0x5
   \   0003C2   12....       LCALL   ?DEALLOC_XSTACK8
   2275              }
   2276          
   2277              // Process ended - release memory used
   2278              ZDO_RemoveMatchMemory();
   \                     ??ZDMatchSendState_22:
   \   0003C5                ; Setup parameters for call to function ZDO_RemoveMatchMemory
   \   0003C5   12....       LCALL   ??ZDO_RemoveMatchMemory?relay
   2279            }
   2280          
   2281            return ( TRUE );
   \                     ??ZDMatchSendState_21:
   \   0003C8   7901         MOV     R1,#0x1
   \                     ??ZDMatchSendState_3:
   \   0003CA   7413         MOV     A,#0x13
   \   0003CC   12....       LCALL   ?DEALLOC_XSTACK8
   \   0003CF   7F08         MOV     R7,#0x8
   \   0003D1   02....       LJMP    ?BANKED_LEAVE_XDATA
   2282          }
   2283          
   2284          /*********************************************************************
   2285           * @fn      ZDO_EndDeviceBindMatchTimeoutCB()
   2286           *
   2287           * @brief   End device bind timeout.
   2288           *
   2289           * @param  none
   2290           *
   2291           * @return  none
   2292           */

   \                                 In  segment BANKED_CODE, align 1, keep-with-next
   2293          static void ZDO_EndDeviceBindMatchTimeoutCB( void )
   \                     ZDO_EndDeviceBindMatchTimeoutCB:
   2294          {
   \   000000   C082         PUSH    DPL
   \   000002   C083         PUSH    DPH
   \   000004                ; Saved register size: 2
   \   000004                ; Auto size: 0
   2295            ZDMatchSendState( ZDMATCH_REASON_TIMEOUT, ZDP_TIMEOUT, 0 );
   \   000004                ; Setup parameters for call to function ZDMatchSendState
   \   000004   7B00         MOV     R3,#0x0
   \   000006   7A85         MOV     R2,#-0x7b
   \   000008   7901         MOV     R1,#0x1
   \   00000A   12....       LCALL   ??ZDMatchSendState?relay
   2296          }
   \   00000D   D083         POP     DPH
   \   00000F   D082         POP     DPL
   \   000011   02....       LJMP    ?BRET
   2297          
   2298          /*********************************************************************
   2299           * ZDO MESSAGE PARSING API FUNCTIONS
   2300           */
   2301          
   2302          /*********************************************************************
   2303           * @fn          ZDO_ParseEndDeviceBindReq
   2304           *
   2305           * @brief       This function parses the End_Device_Bind_req message.
   2306           *
   2307           *     NOTE:  The clusters lists in bindReq are allocated in this
   2308           *            function and must be freed by that calling function.
   2309           *
   2310           * @param       inMsg  - incoming message (request)
   2311           * @param       bindReq - pointer to place to parse message to
   2312           *
   2313           * @return      none
   2314           */

   \                                 In  segment BANKED_CODE, align 1, keep-with-next
   2315          void ZDO_ParseEndDeviceBindReq( zdoIncomingMsg_t *inMsg, ZDEndDeviceBind_t *bindReq )
   \                     ZDO_ParseEndDeviceBindReq:
   2316          {
   \   000000   74F0         MOV     A,#-0x10
   \   000002   12....       LCALL   ?BANKED_ENTER_XDATA
   \   000005                ; Saved register size: 16
   \   000005                ; Auto size: 0
   \   000005   8C..         MOV     ?V0 + 0,R4
   \   000007   8D..         MOV     ?V0 + 1,R5
   2317            uint8 *msg;
   2318          
   2319            // Parse the message
   2320            bindReq->TransSeq = inMsg->TransSeq;
   \   000009   EA           MOV     A,R2
   \   00000A   240F         ADD     A,#0xf
   \   00000C   F582         MOV     DPL,A
   \   00000E   EB           MOV     A,R3
   \   00000F   3400         ADDC    A,#0x0
   \   000011   F583         MOV     DPH,A
   \   000013   E0           MOVX    A,@DPTR
   \   000014   8C82         MOV     DPL,R4
   \   000016   8D83         MOV     DPH,R5
   \   000018   F0           MOVX    @DPTR,A
   2321            bindReq->srcAddr = inMsg->srcAddr.addr.shortAddr;
   \   000019   8A82         MOV     DPL,R2
   \   00001B   8B83         MOV     DPH,R3
   \   00001D   A3           INC     DPTR
   \   00001E   A3           INC     DPTR
   \   00001F   E0           MOVX    A,@DPTR
   \   000020   F8           MOV     R0,A
   \   000021   A3           INC     DPTR
   \   000022   E0           MOVX    A,@DPTR
   \   000023   F9           MOV     R1,A
   \   000024   8C82         MOV     DPL,R4
   \   000026   8D83         MOV     DPH,R5
   \   000028   A3           INC     DPTR
   \   000029   A3           INC     DPTR
   \   00002A   E8           MOV     A,R0
   \   00002B   F0           MOVX    @DPTR,A
   \   00002C   A3           INC     DPTR
   \   00002D   E9           MOV     A,R1
   \   00002E   F0           MOVX    @DPTR,A
   2322            bindReq->SecurityUse = inMsg->SecurityUse;
   \   00002F   EA           MOV     A,R2
   \   000030   240E         ADD     A,#0xe
   \   000032   F582         MOV     DPL,A
   \   000034   EB           MOV     A,R3
   \   000035   3400         ADDC    A,#0x0
   \   000037   F583         MOV     DPH,A
   \   000039   E0           MOVX    A,@DPTR
   \   00003A   8C82         MOV     DPL,R4
   \   00003C   8D83         MOV     DPH,R5
   \   00003E   A3           INC     DPTR
   \   00003F   F0           MOVX    @DPTR,A
   2323            msg = inMsg->asdu;
   \   000040   EA           MOV     A,R2
   \   000041   2413         ADD     A,#0x13
   \   000043   F582         MOV     DPL,A
   \   000045   EB           MOV     A,R3
   \   000046   3400         ADDC    A,#0x0
   \   000048   F583         MOV     DPH,A
   \   00004A   E0           MOVX    A,@DPTR
   \   00004B   FE           MOV     R6,A
   \   00004C   A3           INC     DPTR
   \   00004D   E0           MOVX    A,@DPTR
   \   00004E   FF           MOV     R7,A
   2324          
   2325            bindReq->localCoordinator = BUILD_UINT16( msg[0], msg[1] );
   \   00004F   8E82         MOV     DPL,R6
   \   000051   8F83         MOV     DPH,R7
   \   000053   E0           MOVX    A,@DPTR
   \   000054   FA           MOV     R2,A
   \   000055   A3           INC     DPTR
   \   000056   E0           MOVX    A,@DPTR
   \   000057   F9           MOV     R1,A
   \   000058   EA           MOV     A,R2
   \   000059   8C82         MOV     DPL,R4
   \   00005B   8D83         MOV     DPH,R5
   \   00005D   A3           INC     DPTR
   \   00005E   A3           INC     DPTR
   \   00005F   A3           INC     DPTR
   \   000060   A3           INC     DPTR
   \   000061   F0           MOVX    @DPTR,A
   \   000062   A3           INC     DPTR
   \   000063   E9           MOV     A,R1
   \   000064   F0           MOVX    @DPTR,A
   2326            msg += 2;
   \   000065   EE           MOV     A,R6
   \   000066   2402         ADD     A,#0x2
   \   000068   0E           INC     R6
   \   000069   0E           INC     R6
   \   00006A   EF           MOV     A,R7
   \   00006B   3400         ADDC    A,#0x0
   \   00006D   FF           MOV     R7,A
   2327          
   2328            osal_cpyExtAddr( bindReq->ieeeAddr, msg );
   \   00006E                ; Setup parameters for call to function sAddrExtCpy
   \   00006E   EE           MOV     A,R6
   \   00006F   FC           MOV     R4,A
   \   000070   EF           MOV     A,R7
   \   000071   FD           MOV     R5,A
   \   000072   E5..         MOV     A,?V0 + 0
   \   000074   2406         ADD     A,#0x6
   \   000076   FA           MOV     R2,A
   \   000077   E5..         MOV     A,?V0 + 1
   \   000079   3400         ADDC    A,#0x0
   \   00007B   FB           MOV     R3,A
   \   00007C   12....       LCALL   ??sAddrExtCpy?relay
   2329            msg += Z_EXTADDR_LEN;
   \   00007F   EE           MOV     A,R6
   \   000080   2408         ADD     A,#0x8
   \   000082   FE           MOV     R6,A
   \   000083   EF           MOV     A,R7
   \   000084   3400         ADDC    A,#0x0
   \   000086   FF           MOV     R7,A
   2330          
   2331            bindReq->endpoint = *msg++;
   \   000087   8E82         MOV     DPL,R6
   \   000089   8F83         MOV     DPH,R7
   \   00008B   E0           MOVX    A,@DPTR
   \   00008C   C0E0         PUSH    A
   \   00008E   E5..         MOV     A,?V0 + 0
   \   000090   240E         ADD     A,#0xe
   \   000092   F582         MOV     DPL,A
   \   000094   E5..         MOV     A,?V0 + 1
   \   000096   3400         ADDC    A,#0x0
   \   000098   F583         MOV     DPH,A
   \   00009A   D0E0         POP     A
   \   00009C   F0           MOVX    @DPTR,A
   \   00009D   8E82         MOV     DPL,R6
   \   00009F   8F83         MOV     DPH,R7
   \   0000A1   A3           INC     DPTR
   \   0000A2   AE82         MOV     R6,DPL
   \   0000A4   AF83         MOV     R7,DPH
   2332            bindReq->profileID = BUILD_UINT16( msg[0], msg[1] );
   \   0000A6   E0           MOVX    A,@DPTR
   \   0000A7   FA           MOV     R2,A
   \   0000A8   A3           INC     DPTR
   \   0000A9   E0           MOVX    A,@DPTR
   \   0000AA   F9           MOV     R1,A
   \   0000AB   EA           MOV     A,R2
   \   0000AC   F8           MOV     R0,A
   \   0000AD   E5..         MOV     A,?V0 + 0
   \   0000AF   240F         ADD     A,#0xf
   \   0000B1   F582         MOV     DPL,A
   \   0000B3   E5..         MOV     A,?V0 + 1
   \   0000B5   3400         ADDC    A,#0x0
   \   0000B7   F583         MOV     DPH,A
   \   0000B9   E8           MOV     A,R0
   \   0000BA   F0           MOVX    @DPTR,A
   \   0000BB   A3           INC     DPTR
   \   0000BC   E9           MOV     A,R1
   \   0000BD   F0           MOVX    @DPTR,A
   2333            msg += 2;
   \   0000BE   EE           MOV     A,R6
   \   0000BF   2402         ADD     A,#0x2
   \   0000C1   0E           INC     R6
   \   0000C2   0E           INC     R6
   \   0000C3   EF           MOV     A,R7
   \   0000C4   3400         ADDC    A,#0x0
   \   0000C6   FF           MOV     R7,A
   2334          
   2335            bindReq->inClusters = NULL;
   \   0000C7   E5..         MOV     A,?V0 + 0
   \   0000C9   2412         ADD     A,#0x12
   \   0000CB   F5..         MOV     ?V0 + 2,A
   \   0000CD   E5..         MOV     A,?V0 + 1
   \   0000CF   3400         ADDC    A,#0x0
   \   0000D1   F5..         MOV     ?V0 + 3,A
   \   0000D3   85..82       MOV     DPL,?V0 + 2
   \   0000D6   F583         MOV     DPH,A
   \   0000D8   E4           CLR     A
   \   0000D9   F0           MOVX    @DPTR,A
   \   0000DA   A3           INC     DPTR
   \   0000DB   F0           MOVX    @DPTR,A
   2336            bindReq->outClusters = NULL;
   \   0000DC   E5..         MOV     A,?V0 + 0
   \   0000DE   2415         ADD     A,#0x15
   \   0000E0   F5..         MOV     ?V0 + 6,A
   \   0000E2   E5..         MOV     A,?V0 + 1
   \   0000E4   3400         ADDC    A,#0x0
   \   0000E6   F5..         MOV     ?V0 + 7,A
   \   0000E8   85..82       MOV     DPL,?V0 + 6
   \   0000EB   F583         MOV     DPH,A
   \   0000ED   E4           CLR     A
   \   0000EE   F0           MOVX    @DPTR,A
   \   0000EF   A3           INC     DPTR
   \   0000F0   F0           MOVX    @DPTR,A
   2337          
   2338            if ((bindReq->numInClusters = *msg++) &&
   2339                (bindReq->inClusters = (uint16*)osal_mem_alloc( (bindReq->numInClusters * sizeof( uint16 )))))
   \   0000F1   8E82         MOV     DPL,R6
   \   0000F3   8F83         MOV     DPH,R7
   \   0000F5   E0           MOVX    A,@DPTR
   \   0000F6   FA           MOV     R2,A
   \   0000F7   A3           INC     DPTR
   \   0000F8   0E           INC     R6
   \   0000F9   AF83         MOV     R7,DPH
   \   0000FB   E5..         MOV     A,?V0 + 0
   \   0000FD   2411         ADD     A,#0x11
   \   0000FF   F5..         MOV     ?V0 + 4,A
   \   000101   E5..         MOV     A,?V0 + 1
   \   000103   3400         ADDC    A,#0x0
   \   000105   F5..         MOV     ?V0 + 5,A
   \   000107   EA           MOV     A,R2
   \   000108   85..82       MOV     DPL,?V0 + 4
   \   00010B   85..83       MOV     DPH,?V0 + 5
   \   00010E   F0           MOVX    @DPTR,A
   \   00010F   6046         JZ      ??ZDO_ParseEndDeviceBindReq_0
   \   000111                ; Setup parameters for call to function osal_mem_alloc
   \   000111   E0           MOVX    A,@DPTR
   \   000112   C3           CLR     C
   \   000113   33           RLC     A
   \   000114   FA           MOV     R2,A
   \   000115   E4           CLR     A
   \   000116   33           RLC     A
   \   000117   FB           MOV     R3,A
   \   000118   12....       LCALL   ??osal_mem_alloc?relay
   \   00011B   85..82       MOV     DPL,?V0 + 2
   \   00011E   85..83       MOV     DPH,?V0 + 3
   \   000121   EA           MOV     A,R2
   \   000122   F0           MOVX    @DPTR,A
   \   000123   A3           INC     DPTR
   \   000124   EB           MOV     A,R3
   \   000125   F0           MOVX    @DPTR,A
   \   000126   85..82       MOV     DPL,?V0 + 2
   \   000129   85..83       MOV     DPH,?V0 + 3
   \   00012C   E0           MOVX    A,@DPTR
   \   00012D   7002         JNZ     ??ZDO_ParseEndDeviceBindReq_1
   \   00012F   A3           INC     DPTR
   \   000130   E0           MOVX    A,@DPTR
   \                     ??ZDO_ParseEndDeviceBindReq_1:
   \   000131   6024         JZ      ??ZDO_ParseEndDeviceBindReq_0
   2340            {
   2341              msg = ZDO_ConvertOTAClusters( bindReq->numInClusters, msg, bindReq->inClusters );
   \   000133                ; Setup parameters for call to function ZDO_ConvertOTAClusters
   \   000133   85..82       MOV     DPL,?V0 + 2
   \   000136   85..83       MOV     DPH,?V0 + 3
   \   000139   E0           MOVX    A,@DPTR
   \   00013A   FC           MOV     R4,A
   \   00013B   A3           INC     DPTR
   \   00013C   E0           MOVX    A,@DPTR
   \   00013D   FD           MOV     R5,A
   \   00013E   EE           MOV     A,R6
   \   00013F   FA           MOV     R2,A
   \   000140   EF           MOV     A,R7
   \   000141   FB           MOV     R3,A
   \   000142   85..82       MOV     DPL,?V0 + 4
   \   000145   85..83       MOV     DPH,?V0 + 5
   \   000148   E0           MOVX    A,@DPTR
   \   000149   F9           MOV     R1,A
   \   00014A   12....       LCALL   ??ZDO_ConvertOTAClusters?relay
   \   00014D   8A..         MOV     ?V0 + 2,R2
   \   00014F   8B..         MOV     ?V0 + 3,R3
   \   000151   AE..         MOV     R6,?V0 + 2
   \   000153   AF..         MOV     R7,?V0 + 3
   \   000155   8008         SJMP    ??ZDO_ParseEndDeviceBindReq_2
   2342            }
   2343            else
   2344            {
   2345              bindReq->numInClusters = 0;
   \                     ??ZDO_ParseEndDeviceBindReq_0:
   \   000157   E4           CLR     A
   \   000158   85..82       MOV     DPL,?V0 + 4
   \   00015B   85..83       MOV     DPH,?V0 + 5
   \   00015E   F0           MOVX    @DPTR,A
   2346            }
   2347          
   2348            if ((bindReq->numOutClusters = *msg++) &&
   2349                (bindReq->outClusters = (uint16*)osal_mem_alloc((bindReq->numOutClusters * sizeof(uint16)))))
   \                     ??ZDO_ParseEndDeviceBindReq_2:
   \   00015F   8E82         MOV     DPL,R6
   \   000161   8F83         MOV     DPH,R7
   \   000163   E0           MOVX    A,@DPTR
   \   000164   FA           MOV     R2,A
   \   000165   A3           INC     DPTR
   \   000166   AE82         MOV     R6,DPL
   \   000168   AF83         MOV     R7,DPH
   \   00016A   E5..         MOV     A,?V0 + 0
   \   00016C   2414         ADD     A,#0x14
   \   00016E   F5..         MOV     ?V0 + 0,A
   \   000170   E5..         MOV     A,?V0 + 1
   \   000172   3400         ADDC    A,#0x0
   \   000174   F5..         MOV     ?V0 + 1,A
   \   000176   EA           MOV     A,R2
   \   000177   85..82       MOV     DPL,?V0 + 0
   \   00017A   85..83       MOV     DPH,?V0 + 1
   \   00017D   F0           MOVX    @DPTR,A
   \   00017E   603E         JZ      ??ZDO_ParseEndDeviceBindReq_3
   \   000180                ; Setup parameters for call to function osal_mem_alloc
   \   000180   E0           MOVX    A,@DPTR
   \   000181   C3           CLR     C
   \   000182   33           RLC     A
   \   000183   FA           MOV     R2,A
   \   000184   E4           CLR     A
   \   000185   33           RLC     A
   \   000186   FB           MOV     R3,A
   \   000187   12....       LCALL   ??osal_mem_alloc?relay
   \   00018A   85..82       MOV     DPL,?V0 + 6
   \   00018D   85..83       MOV     DPH,?V0 + 7
   \   000190   EA           MOV     A,R2
   \   000191   F0           MOVX    @DPTR,A
   \   000192   A3           INC     DPTR
   \   000193   EB           MOV     A,R3
   \   000194   F0           MOVX    @DPTR,A
   \   000195   85..82       MOV     DPL,?V0 + 6
   \   000198   85..83       MOV     DPH,?V0 + 7
   \   00019B   E0           MOVX    A,@DPTR
   \   00019C   7002         JNZ     ??ZDO_ParseEndDeviceBindReq_4
   \   00019E   A3           INC     DPTR
   \   00019F   E0           MOVX    A,@DPTR
   \                     ??ZDO_ParseEndDeviceBindReq_4:
   \   0001A0   601C         JZ      ??ZDO_ParseEndDeviceBindReq_3
   2350            {
   2351              msg = ZDO_ConvertOTAClusters( bindReq->numOutClusters, msg, bindReq->outClusters );
   \   0001A2                ; Setup parameters for call to function ZDO_ConvertOTAClusters
   \   0001A2   85..82       MOV     DPL,?V0 + 6
   \   0001A5   85..83       MOV     DPH,?V0 + 7
   \   0001A8   E0           MOVX    A,@DPTR
   \   0001A9   FC           MOV     R4,A
   \   0001AA   A3           INC     DPTR
   \   0001AB   E0           MOVX    A,@DPTR
   \   0001AC   FD           MOV     R5,A
   \   0001AD   EE           MOV     A,R6
   \   0001AE   FA           MOV     R2,A
   \   0001AF   EF           MOV     A,R7
   \   0001B0   FB           MOV     R3,A
   \   0001B1   85..82       MOV     DPL,?V0 + 0
   \   0001B4   85..83       MOV     DPH,?V0 + 1
   \   0001B7   E0           MOVX    A,@DPTR
   \   0001B8   F9           MOV     R1,A
   \   0001B9   12....       LCALL   ??ZDO_ConvertOTAClusters?relay
   \   0001BC   8008         SJMP    ??ZDO_ParseEndDeviceBindReq_5
   2352            }
   2353            else
   2354            {
   2355              bindReq->numOutClusters = 0;
   \                     ??ZDO_ParseEndDeviceBindReq_3:
   \   0001BE   E4           CLR     A
   \   0001BF   85..82       MOV     DPL,?V0 + 0
   \   0001C2   85..83       MOV     DPH,?V0 + 1
   \   0001C5   F0           MOVX    @DPTR,A
   2356            }
   2357          }
   \                     ??ZDO_ParseEndDeviceBindReq_5:
   \   0001C6   7F08         MOV     R7,#0x8
   \   0001C8   02....       LJMP    ?BANKED_LEAVE_XDATA
   2358          
   2359          /*********************************************************************
   2360           * @fn          ZDO_ParseBindUnbindReq
   2361           *
   2362           * @brief       This function parses the Bind_req or Unbind_req message.
   2363           *
   2364           * @param       inMsg  - incoming message (request)
   2365           * @param       pReq - place to put parsed information
   2366           *
   2367           * @return      none
   2368           */

   \                                 In  segment BANKED_CODE, align 1, keep-with-next
   2369          void ZDO_ParseBindUnbindReq( zdoIncomingMsg_t *inMsg, ZDO_BindUnbindReq_t *pReq )
   \                     ZDO_ParseBindUnbindReq:
   2370          {
   \   000000   74F6         MOV     A,#-0xa
   \   000002   12....       LCALL   ?BANKED_ENTER_XDATA
   \   000005                ; Saved register size: 10
   \   000005                ; Auto size: 0
   \   000005   8C..         MOV     ?V0 + 0,R4
   \   000007   8D..         MOV     ?V0 + 1,R5
   2371            uint8 *msg;
   2372          
   2373            msg = inMsg->asdu;
   \   000009   EA           MOV     A,R2
   \   00000A   2413         ADD     A,#0x13
   \   00000C   F582         MOV     DPL,A
   \   00000E   EB           MOV     A,R3
   \   00000F   3400         ADDC    A,#0x0
   \   000011   F583         MOV     DPH,A
   \   000013   E0           MOVX    A,@DPTR
   \   000014   FE           MOV     R6,A
   \   000015   A3           INC     DPTR
   \   000016   E0           MOVX    A,@DPTR
   \   000017   FF           MOV     R7,A
   2374            osal_cpyExtAddr( pReq->srcAddress, msg );
   \   000018                ; Setup parameters for call to function sAddrExtCpy
   \   000018   EE           MOV     A,R6
   \   000019   FC           MOV     R4,A
   \   00001A   EF           MOV     A,R7
   \   00001B   FD           MOV     R5,A
   \   00001C   AA..         MOV     R2,?V0 + 0
   \   00001E   AB..         MOV     R3,?V0 + 1
   \   000020   12....       LCALL   ??sAddrExtCpy?relay
   2375            msg += Z_EXTADDR_LEN;
   \   000023   EE           MOV     A,R6
   \   000024   2408         ADD     A,#0x8
   \   000026   FE           MOV     R6,A
   \   000027   EF           MOV     A,R7
   \   000028   3400         ADDC    A,#0x0
   \   00002A   FF           MOV     R7,A
   2376            pReq->srcEndpoint = *msg++;
   \   00002B   8E82         MOV     DPL,R6
   \   00002D   8F83         MOV     DPH,R7
   \   00002F   E0           MOVX    A,@DPTR
   \   000030   85..82       MOV     DPL,?V0 + 0
   \   000033   85..83       MOV     DPH,?V0 + 1
   \   000036   A3           INC     DPTR
   \   000037   A3           INC     DPTR
   \   000038   A3           INC     DPTR
   \   000039   A3           INC     DPTR
   \   00003A   A3           INC     DPTR
   \   00003B   A3           INC     DPTR
   \   00003C   A3           INC     DPTR
   \   00003D   A3           INC     DPTR
   \   00003E   F0           MOVX    @DPTR,A
   \   00003F   8E82         MOV     DPL,R6
   \   000041   8F83         MOV     DPH,R7
   \   000043   A3           INC     DPTR
   \   000044   AE82         MOV     R6,DPL
   \   000046   AF83         MOV     R7,DPH
   2377            pReq->clusterID = BUILD_UINT16( msg[0], msg[1] );
   \   000048   E0           MOVX    A,@DPTR
   \   000049   FA           MOV     R2,A
   \   00004A   A3           INC     DPTR
   \   00004B   E0           MOVX    A,@DPTR
   \   00004C   F9           MOV     R1,A
   \   00004D   EA           MOV     A,R2
   \   00004E   85..82       MOV     DPL,?V0 + 0
   \   000051   85..83       MOV     DPH,?V0 + 1
   \   000054   A3           INC     DPTR
   \   000055   A3           INC     DPTR
   \   000056   A3           INC     DPTR
   \   000057   A3           INC     DPTR
   \   000058   A3           INC     DPTR
   \   000059   A3           INC     DPTR
   \   00005A   A3           INC     DPTR
   \   00005B   A3           INC     DPTR
   \   00005C   A3           INC     DPTR
   \   00005D   F0           MOVX    @DPTR,A
   \   00005E   A3           INC     DPTR
   \   00005F   E9           MOV     A,R1
   \   000060   F0           MOVX    @DPTR,A
   2378            msg += 2;
   \   000061   EE           MOV     A,R6
   \   000062   2402         ADD     A,#0x2
   \   000064   0E           INC     R6
   \   000065   0E           INC     R6
   \   000066   EF           MOV     A,R7
   \   000067   3400         ADDC    A,#0x0
   \   000069   FF           MOV     R7,A
   2379            pReq->dstAddress.addrMode = *msg++;
   \   00006A   E5..         MOV     A,?V0 + 0
   \   00006C   2413         ADD     A,#0x13
   \   00006E   F8           MOV     R0,A
   \   00006F   E5..         MOV     A,?V0 + 1
   \   000071   3400         ADDC    A,#0x0
   \   000073   F9           MOV     R1,A
   \   000074   8E82         MOV     DPL,R6
   \   000076   8F83         MOV     DPH,R7
   \   000078   E0           MOVX    A,@DPTR
   \   000079   8882         MOV     DPL,R0
   \   00007B   8983         MOV     DPH,R1
   \   00007D   F0           MOVX    @DPTR,A
   \   00007E   8E82         MOV     DPL,R6
   \   000080   8F83         MOV     DPH,R7
   \   000082   A3           INC     DPTR
   \   000083   0E           INC     R6
   \   000084   AF83         MOV     R7,DPH
   2380            if ( pReq->dstAddress.addrMode == Addr64Bit )
   \   000086   E5..         MOV     A,?V0 + 0
   \   000088   240B         ADD     A,#0xb
   \   00008A   FA           MOV     R2,A
   \   00008B   E5..         MOV     A,?V0 + 1
   \   00008D   3400         ADDC    A,#0x0
   \   00008F   FB           MOV     R3,A
   \   000090   8882         MOV     DPL,R0
   \   000092   8983         MOV     DPH,R1
   \   000094   E0           MOVX    A,@DPTR
   \   000095   6403         XRL     A,#0x3
   \   000097   7026         JNZ     ??ZDO_ParseBindUnbindReq_0
   2381            {
   2382              osal_cpyExtAddr( pReq->dstAddress.addr.extAddr, msg );
   \   000099                ; Setup parameters for call to function sAddrExtCpy
   \   000099   EE           MOV     A,R6
   \   00009A   FC           MOV     R4,A
   \   00009B   EF           MOV     A,R7
   \   00009C   FD           MOV     R5,A
   \   00009D   12....       LCALL   ??sAddrExtCpy?relay
   2383              msg += Z_EXTADDR_LEN;
   2384              pReq->dstEndpoint = *msg;
   \   0000A0   8E82         MOV     DPL,R6
   \   0000A2   8F83         MOV     DPH,R7
   \   0000A4   A3           INC     DPTR
   \   0000A5   A3           INC     DPTR
   \   0000A6   A3           INC     DPTR
   \   0000A7   A3           INC     DPTR
   \   0000A8   A3           INC     DPTR
   \   0000A9   A3           INC     DPTR
   \   0000AA   A3           INC     DPTR
   \   0000AB   A3           INC     DPTR
   \   0000AC   E0           MOVX    A,@DPTR
   \   0000AD   C0E0         PUSH    A
   \   0000AF   E5..         MOV     A,?V0 + 0
   \   0000B1   2414         ADD     A,#0x14
   \   0000B3   F582         MOV     DPL,A
   \   0000B5   E5..         MOV     A,?V0 + 1
   \   0000B7   3400         ADDC    A,#0x0
   \   0000B9   F583         MOV     DPH,A
   \   0000BB   D0E0         POP     A
   \   0000BD   8011         SJMP    ??ZDO_ParseBindUnbindReq_1
   2385            }
   2386            else
   2387            {
   2388              // copy group address
   2389              pReq->dstAddress.addr.shortAddr = BUILD_UINT16( msg[0], msg[1] );
   \                     ??ZDO_ParseBindUnbindReq_0:
   \   0000BF   8E82         MOV     DPL,R6
   \   0000C1   8F83         MOV     DPH,R7
   \   0000C3   E0           MOVX    A,@DPTR
   \   0000C4   FC           MOV     R4,A
   \   0000C5   A3           INC     DPTR
   \   0000C6   E0           MOVX    A,@DPTR
   \   0000C7   F9           MOV     R1,A
   \   0000C8   EC           MOV     A,R4
   \   0000C9   8A82         MOV     DPL,R2
   \   0000CB   8B83         MOV     DPH,R3
   \   0000CD   F0           MOVX    @DPTR,A
   \   0000CE   A3           INC     DPTR
   \   0000CF   E9           MOV     A,R1
   \                     ??ZDO_ParseBindUnbindReq_1:
   \   0000D0   F0           MOVX    @DPTR,A
   2390            }
   2391          }
   \   0000D1   7F02         MOV     R7,#0x2
   \   0000D3   02....       LJMP    ?BANKED_LEAVE_XDATA
   2392          
   2393          /*********************************************************************
   2394           * @fn      ZDO_ParseAddrRsp
   2395           *
   2396           * @brief   Turns the inMsg (incoming message) into the out parsed
   2397           *          structure.
   2398           *
   2399           * @param   inMsg - incoming message
   2400           *
   2401           * @return  pointer to parsed structures.  This structure was
   2402           *          allocated using osal_mem_alloc, so it must be freed
   2403           *          by the calling function [osal_mem_free()].
   2404           */

   \                                 In  segment BANKED_CODE, align 1, keep-with-next
   2405          ZDO_NwkIEEEAddrResp_t *ZDO_ParseAddrRsp( zdoIncomingMsg_t *inMsg )
   \                     ZDO_ParseAddrRsp:
   2406          {
   \   000000   74F2         MOV     A,#-0xe
   \   000002   12....       LCALL   ?BANKED_ENTER_XDATA
   \   000005                ; Saved register size: 14
   \   000005                ; Auto size: 0
   \   000005   EA           MOV     A,R2
   \   000006   FE           MOV     R6,A
   \   000007   EB           MOV     A,R3
   \   000008   FF           MOV     R7,A
   2407            ZDO_NwkIEEEAddrResp_t *rsp;
   2408            uint8 *msg;
   2409            byte cnt = 0;
   2410          
   2411            // Calculate the number of items in the list
   2412            if ( inMsg->asduLen > (1 + Z_EXTADDR_LEN + 2) )
   \   000009   EE           MOV     A,R6
   \   00000A   2410         ADD     A,#0x10
   \   00000C   F582         MOV     DPL,A
   \   00000E   EF           MOV     A,R7
   \   00000F   3400         ADDC    A,#0x0
   \   000011   F583         MOV     DPH,A
   \   000013   E0           MOVX    A,@DPTR
   \   000014   C3           CLR     C
   \   000015   940C         SUBB    A,#0xc
   \   000017   401C         JC      ??ZDO_ParseAddrRsp_0
   2413              cnt = inMsg->asdu[1 + Z_EXTADDR_LEN + 2];
   \   000019   EE           MOV     A,R6
   \   00001A   2413         ADD     A,#0x13
   \   00001C   F582         MOV     DPL,A
   \   00001E   EF           MOV     A,R7
   \   00001F   3400         ADDC    A,#0x0
   \   000021   F583         MOV     DPH,A
   \   000023   E0           MOVX    A,@DPTR
   \   000024   240B         ADD     A,#0xb
   \   000026   F8           MOV     R0,A
   \   000027   A3           INC     DPTR
   \   000028   E0           MOVX    A,@DPTR
   \   000029   3400         ADDC    A,#0x0
   \   00002B   F9           MOV     R1,A
   \   00002C   8882         MOV     DPL,R0
   \   00002E   8983         MOV     DPH,R1
   \   000030   E0           MOVX    A,@DPTR
   \   000031   F5..         MOV     ?V0 + 2,A
   \   000033   8003         SJMP    ??ZDO_ParseAddrRsp_1
   2414            else
   2415              cnt = 0;
   \                     ??ZDO_ParseAddrRsp_0:
   \   000035   75..00       MOV     ?V0 + 2,#0x0
   2416          
   2417            // Make buffer
   2418            rsp = (ZDO_NwkIEEEAddrResp_t *)osal_mem_alloc( sizeof(ZDO_NwkIEEEAddrResp_t) + (cnt * sizeof ( uint16 )) );
   \                     ??ZDO_ParseAddrRsp_1:
   \   000038                ; Setup parameters for call to function osal_mem_alloc
   \   000038   E5..         MOV     A,?V0 + 2
   \   00003A   C3           CLR     C
   \   00003B   33           RLC     A
   \   00003C   F8           MOV     R0,A
   \   00003D   E4           CLR     A
   \   00003E   33           RLC     A
   \   00003F   F9           MOV     R1,A
   \   000040   740D         MOV     A,#0xd
   \   000042   28           ADD     A,R0
   \   000043   FA           MOV     R2,A
   \   000044   E4           CLR     A
   \   000045   39           ADDC    A,R1
   \   000046   FB           MOV     R3,A
   \   000047   12....       LCALL   ??osal_mem_alloc?relay
   \   00004A   8A..         MOV     ?V0 + 0,R2
   \   00004C   8B..         MOV     ?V0 + 1,R3
   2419          
   2420            if ( rsp )
   \   00004E   EA           MOV     A,R2
   \   00004F   7001         JNZ     ??ZDO_ParseAddrRsp_2
   \   000051   EB           MOV     A,R3
   \                     ??ZDO_ParseAddrRsp_2:
   \   000052   7003         JNZ     $+5
   \   000054   02....       LJMP    ??ZDO_ParseAddrRsp_3 & 0xFFFF
   2421            {
   2422              msg = inMsg->asdu;
   \   000057   EE           MOV     A,R6
   \   000058   2413         ADD     A,#0x13
   \   00005A   F582         MOV     DPL,A
   \   00005C   EF           MOV     A,R7
   \   00005D   3400         ADDC    A,#0x0
   \   00005F   F583         MOV     DPH,A
   \   000061   E0           MOVX    A,@DPTR
   \   000062   FE           MOV     R6,A
   \   000063   A3           INC     DPTR
   \   000064   E0           MOVX    A,@DPTR
   \   000065   FF           MOV     R7,A
   2423          
   2424              rsp->status = *msg++;
   \   000066   8E82         MOV     DPL,R6
   \   000068   8F83         MOV     DPH,R7
   \   00006A   E0           MOVX    A,@DPTR
   \   00006B   8A82         MOV     DPL,R2
   \   00006D   8B83         MOV     DPH,R3
   \   00006F   F0           MOVX    @DPTR,A
   \   000070   8E82         MOV     DPL,R6
   \   000072   8F83         MOV     DPH,R7
   \   000074   A3           INC     DPTR
   \   000075   AE82         MOV     R6,DPL
   \   000077   AF83         MOV     R7,DPH
   2425              if ( rsp->status == ZDO_SUCCESS )
   \   000079   8A82         MOV     DPL,R2
   \   00007B   8B83         MOV     DPH,R3
   \   00007D   E0           MOVX    A,@DPTR
   \   00007E   6003         JZ      $+5
   \   000080   02....       LJMP    ??ZDO_ParseAddrRsp_3 & 0xFFFF
   2426              {
   2427                osal_cpyExtAddr( rsp->extAddr, msg );
   \   000083                ; Setup parameters for call to function sAddrExtCpy
   \   000083   EE           MOV     A,R6
   \   000084   FC           MOV     R4,A
   \   000085   EF           MOV     A,R7
   \   000086   FD           MOV     R5,A
   \   000087   EA           MOV     A,R2
   \   000088   2403         ADD     A,#0x3
   \   00008A   0A           INC     R2
   \   00008B   0A           INC     R2
   \   00008C   0A           INC     R2
   \   00008D   EB           MOV     A,R3
   \   00008E   3400         ADDC    A,#0x0
   \   000090   FB           MOV     R3,A
   \   000091   12....       LCALL   ??sAddrExtCpy?relay
   2428                msg += Z_EXTADDR_LEN;
   \   000094   EE           MOV     A,R6
   \   000095   2408         ADD     A,#0x8
   \   000097   FE           MOV     R6,A
   \   000098   EF           MOV     A,R7
   \   000099   3400         ADDC    A,#0x0
   \   00009B   FF           MOV     R7,A
   2429                rsp->nwkAddr = BUILD_UINT16( msg[0], msg[1] );
   \   00009C   8E82         MOV     DPL,R6
   \   00009E   8F83         MOV     DPH,R7
   \   0000A0   E0           MOVX    A,@DPTR
   \   0000A1   FA           MOV     R2,A
   \   0000A2   A3           INC     DPTR
   \   0000A3   E0           MOVX    A,@DPTR
   \   0000A4   F9           MOV     R1,A
   \   0000A5   EA           MOV     A,R2
   \   0000A6   85..82       MOV     DPL,?V0 + 0
   \   0000A9   85..83       MOV     DPH,?V0 + 1
   \   0000AC   A3           INC     DPTR
   \   0000AD   F0           MOVX    @DPTR,A
   \   0000AE   A3           INC     DPTR
   \   0000AF   E9           MOV     A,R1
   \   0000B0   F0           MOVX    @DPTR,A
   2430          
   2431                msg += 2;
   \   0000B1   EE           MOV     A,R6
   \   0000B2   2402         ADD     A,#0x2
   \   0000B4   0E           INC     R6
   \   0000B5   0E           INC     R6
   \   0000B6   EF           MOV     A,R7
   \   0000B7   3400         ADDC    A,#0x0
   \   0000B9   FF           MOV     R7,A
   2432                rsp->numAssocDevs = 0;
   \   0000BA   E5..         MOV     A,?V0 + 0
   \   0000BC   240B         ADD     A,#0xb
   \   0000BE   F8           MOV     R0,A
   \   0000BF   E5..         MOV     A,?V0 + 1
   \   0000C1   3400         ADDC    A,#0x0
   \   0000C3   F9           MOV     R1,A
   \   0000C4   E8           MOV     A,R0
   \   0000C5   FA           MOV     R2,A
   \   0000C6   E9           MOV     A,R1
   \   0000C7   FB           MOV     R3,A
   \   0000C8   E4           CLR     A
   \   0000C9   8A82         MOV     DPL,R2
   \   0000CB   8B83         MOV     DPH,R3
   \   0000CD   F0           MOVX    @DPTR,A
   2433          
   2434                // StartIndex field is only present if NumAssocDev field is non-zero.
   2435                if ( cnt > 0 )
   \   0000CE   E5..         MOV     A,?V0 + 2
   \   0000D0   6065         JZ      ??ZDO_ParseAddrRsp_3
   2436                {
   2437                  uint16 *pList = &(rsp->devList[0]);
   \   0000D2   E5..         MOV     A,?V0 + 0
   \   0000D4   240D         ADD     A,#0xd
   \   0000D6   08           INC     R0
   \   0000D7   08           INC     R0
   \   0000D8   E5..         MOV     A,?V0 + 1
   \   0000DA   3400         ADDC    A,#0x0
   \   0000DC   F9           MOV     R1,A
   2438                  byte n = cnt;
   \   0000DD   AC..         MOV     R4,?V0 + 2
   2439          
   2440                  rsp->numAssocDevs = *msg++;
   \   0000DF   8E82         MOV     DPL,R6
   \   0000E1   8F83         MOV     DPH,R7
   \   0000E3   E0           MOVX    A,@DPTR
   \   0000E4   8A82         MOV     DPL,R2
   \   0000E6   8B83         MOV     DPH,R3
   \   0000E8   F0           MOVX    @DPTR,A
   \   0000E9   8E82         MOV     DPL,R6
   \   0000EB   8F83         MOV     DPH,R7
   \   0000ED   A3           INC     DPTR
   \   0000EE   0E           INC     R6
   \   0000EF   AF83         MOV     R7,DPH
   2441                  rsp->startIndex = *msg++;
   \   0000F1   E0           MOVX    A,@DPTR
   \   0000F2   C0E0         PUSH    A
   \   0000F4   E5..         MOV     A,?V0 + 0
   \   0000F6   240C         ADD     A,#0xc
   \   0000F8   F582         MOV     DPL,A
   \   0000FA   E5..         MOV     A,?V0 + 1
   \   0000FC   3400         ADDC    A,#0x0
   \   0000FE   F583         MOV     DPH,A
   \   000100   D0E0         POP     A
   \   000102   F0           MOVX    @DPTR,A
   \   000103   8E82         MOV     DPL,R6
   \   000105   8F83         MOV     DPH,R7
   \   000107   A3           INC     DPTR
   \   000108   0E           INC     R6
   \   000109   AF83         MOV     R7,DPH
   \   00010B   8027         SJMP    ??ZDO_ParseAddrRsp_4
   2442          
   2443                  while ( n != 0 )
   2444                  {
   2445                    *pList++ = BUILD_UINT16( msg[0], msg[1] );
   \                     ??ZDO_ParseAddrRsp_5:
   \   00010D   8E82         MOV     DPL,R6
   \   00010F   8F83         MOV     DPH,R7
   \   000111   E0           MOVX    A,@DPTR
   \   000112   F5..         MOV     ?V0 + 2,A
   \   000114   A3           INC     DPTR
   \   000115   E0           MOVX    A,@DPTR
   \   000116   FB           MOV     R3,A
   \   000117   E5..         MOV     A,?V0 + 2
   \   000119   8882         MOV     DPL,R0
   \   00011B   8983         MOV     DPH,R1
   \   00011D   F0           MOVX    @DPTR,A
   \   00011E   A3           INC     DPTR
   \   00011F   EB           MOV     A,R3
   \   000120   F0           MOVX    @DPTR,A
   \   000121   E8           MOV     A,R0
   \   000122   2402         ADD     A,#0x2
   \   000124   08           INC     R0
   \   000125   08           INC     R0
   \   000126   E9           MOV     A,R1
   \   000127   3400         ADDC    A,#0x0
   \   000129   F9           MOV     R1,A
   2446                    msg += sizeof( uint16 );
   \   00012A   EE           MOV     A,R6
   \   00012B   2402         ADD     A,#0x2
   \   00012D   0E           INC     R6
   \   00012E   0E           INC     R6
   \   00012F   EF           MOV     A,R7
   \   000130   3400         ADDC    A,#0x0
   \   000132   FF           MOV     R7,A
   2447                    n--;
   \   000133   1C           DEC     R4
   2448                  }
   \                     ??ZDO_ParseAddrRsp_4:
   \   000134   EC           MOV     A,R4
   \   000135   70D6         JNZ     ??ZDO_ParseAddrRsp_5
   2449                }
   2450              }
   2451            }
   2452            return ( rsp );
   \                     ??ZDO_ParseAddrRsp_3:
   \   000137   AA..         MOV     R2,?V0 + 0
   \   000139   AB..         MOV     R3,?V0 + 1
   \   00013B   7F06         MOV     R7,#0x6
   \   00013D   02....       LJMP    ?BANKED_LEAVE_XDATA
   2453          }
   2454          
   2455          /*********************************************************************
   2456           * @fn          ZDO_ParseNodeDescRsp
   2457           *
   2458           * @brief       This function parses the Node_Desc_rsp message.
   2459           *
   2460           * @param       inMsg - incoming message
   2461           * @param       pNDRsp - place to parse the message into
   2462           *
   2463           * @return      none
   2464           */

   \                                 In  segment BANKED_CODE, align 1, keep-with-next
   2465          void ZDO_ParseNodeDescRsp( zdoIncomingMsg_t *inMsg, ZDO_NodeDescRsp_t *pNDRsp )
   \                     ZDO_ParseNodeDescRsp:
   2466          {
   \   000000   74F7         MOV     A,#-0x9
   \   000002   12....       LCALL   ?BANKED_ENTER_XDATA
   \   000005                ; Saved register size: 9
   \   000005                ; Auto size: 0
   2467            uint8 *msg;
   2468          
   2469            msg = inMsg->asdu;
   \   000005   EA           MOV     A,R2
   \   000006   2413         ADD     A,#0x13
   \   000008   F582         MOV     DPL,A
   \   00000A   EB           MOV     A,R3
   \   00000B   3400         ADDC    A,#0x0
   \   00000D   F583         MOV     DPH,A
   \   00000F   E0           MOVX    A,@DPTR
   \   000010   F8           MOV     R0,A
   \   000011   A3           INC     DPTR
   \   000012   E0           MOVX    A,@DPTR
   \   000013   F9           MOV     R1,A
   2470          
   2471            pNDRsp->status = *msg++;
   \   000014   8882         MOV     DPL,R0
   \   000016   8983         MOV     DPH,R1
   \   000018   E0           MOVX    A,@DPTR
   \   000019   8C82         MOV     DPL,R4
   \   00001B   8D83         MOV     DPH,R5
   \   00001D   F0           MOVX    @DPTR,A
   \   00001E   8882         MOV     DPL,R0
   \   000020   8983         MOV     DPH,R1
   \   000022   A3           INC     DPTR
   \   000023   A882         MOV     R0,DPL
   \   000025   A983         MOV     R1,DPH
   2472            pNDRsp->nwkAddr = BUILD_UINT16( msg[0], msg[1] );
   \   000027   E0           MOVX    A,@DPTR
   \   000028   FE           MOV     R6,A
   \   000029   A3           INC     DPTR
   \   00002A   E0           MOVX    A,@DPTR
   \   00002B   FB           MOV     R3,A
   \   00002C   EE           MOV     A,R6
   \   00002D   8C82         MOV     DPL,R4
   \   00002F   8D83         MOV     DPH,R5
   \   000031   A3           INC     DPTR
   \   000032   F0           MOVX    @DPTR,A
   \   000033   A3           INC     DPTR
   \   000034   EB           MOV     A,R3
   \   000035   F0           MOVX    @DPTR,A
   2473          
   2474            if ( pNDRsp->status == ZDP_SUCCESS )
   \   000036   8C82         MOV     DPL,R4
   \   000038   8D83         MOV     DPH,R5
   \   00003A   E0           MOVX    A,@DPTR
   \   00003B   6003         JZ      $+5
   \   00003D   02....       LJMP    ??ZDO_ParseNodeDescRsp_0 & 0xFFFF
   2475            {
   2476              msg += 2;
   \   000040   E8           MOV     A,R0
   \   000041   2402         ADD     A,#0x2
   \   000043   08           INC     R0
   \   000044   08           INC     R0
   \   000045   E9           MOV     A,R1
   \   000046   3400         ADDC    A,#0x0
   \   000048   F9           MOV     R1,A
   2477              pNDRsp->nodeDesc.LogicalType = *msg & 0x07;
   \   000049   EC           MOV     A,R4
   \   00004A   2403         ADD     A,#0x3
   \   00004C   FA           MOV     R2,A
   \   00004D   ED           MOV     A,R5
   \   00004E   3400         ADDC    A,#0x0
   \   000050   FB           MOV     R3,A
   \   000051   8882         MOV     DPL,R0
   \   000053   8983         MOV     DPH,R1
   \   000055   E0           MOVX    A,@DPTR
   \   000056   5407         ANL     A,#0x7
   \   000058   C0E0         PUSH    A
   \   00005A   8A82         MOV     DPL,R2
   \   00005C   8B83         MOV     DPH,R3
   \   00005E   E0           MOVX    A,@DPTR
   \   00005F   54F8         ANL     A,#0xf8
   \   000061   FE           MOV     R6,A
   \   000062   D0E0         POP     A
   \   000064   4E           ORL     A,R6
   \   000065   F0           MOVX    @DPTR,A
   2478          
   2479              pNDRsp->nodeDesc.ComplexDescAvail = ( *msg & 0x08 ) >> 3;
   \   000066   C082         PUSH    DPL
   \   000068   C083         PUSH    DPH
   \   00006A   8882         MOV     DPL,R0
   \   00006C   8983         MOV     DPH,R1
   \   00006E   E0           MOVX    A,@DPTR
   \   00006F   A2E3         MOV     C,0xE0 /* A   */.3
   \   000071   D083         POP     DPH
   \   000073   D082         POP     DPL
   \   000075   E0           MOVX    A,@DPTR
   \   000076   92E3         MOV     0xE0 /* A   */.3,C
   \   000078   F0           MOVX    @DPTR,A
   2480              pNDRsp->nodeDesc.UserDescAvail = ( *msg & 0x10 ) >> 4;
   \   000079   8A82         MOV     DPL,R2
   \   00007B   8B83         MOV     DPH,R3
   \   00007D   C082         PUSH    DPL
   \   00007F   C083         PUSH    DPH
   \   000081   8882         MOV     DPL,R0
   \   000083   8983         MOV     DPH,R1
   \   000085   E0           MOVX    A,@DPTR
   \   000086   A2E4         MOV     C,0xE0 /* A   */.4
   \   000088   D083         POP     DPH
   \   00008A   D082         POP     DPL
   \   00008C   E0           MOVX    A,@DPTR
   \   00008D   92E4         MOV     0xE0 /* A   */.4,C
   \   00008F   F0           MOVX    @DPTR,A
   2481          
   2482              msg++;  // Reserved bits.
   \   000090   8882         MOV     DPL,R0
   \   000092   8983         MOV     DPH,R1
   \   000094   A3           INC     DPTR
   \   000095   08           INC     R0
   \   000096   A983         MOV     R1,DPH
   2483              pNDRsp->nodeDesc.FrequencyBand = (*msg >> 3) & 0x1f;
   \   000098   EC           MOV     A,R4
   \   000099   2404         ADD     A,#0x4
   \   00009B   0A           INC     R2
   \   00009C   ED           MOV     A,R5
   \   00009D   3400         ADDC    A,#0x0
   \   00009F   FB           MOV     R3,A
   \   0000A0   E0           MOVX    A,@DPTR
   \   0000A1   54F8         ANL     A,#0xf8
   \   0000A3   C0E0         PUSH    A
   \   0000A5   8A82         MOV     DPL,R2
   \   0000A7   8B83         MOV     DPH,R3
   \   0000A9   E0           MOVX    A,@DPTR
   \   0000AA   5407         ANL     A,#0x7
   \   0000AC   FE           MOV     R6,A
   \   0000AD   D0E0         POP     A
   \   0000AF   4E           ORL     A,R6
   \   0000B0   F0           MOVX    @DPTR,A
   2484              pNDRsp->nodeDesc.APSFlags = *msg++ & 0x07;
   \   0000B1   8882         MOV     DPL,R0
   \   0000B3   8983         MOV     DPH,R1
   \   0000B5   E0           MOVX    A,@DPTR
   \   0000B6   5407         ANL     A,#0x7
   \   0000B8   C0E0         PUSH    A
   \   0000BA   8A82         MOV     DPL,R2
   \   0000BC   8B83         MOV     DPH,R3
   \   0000BE   E0           MOVX    A,@DPTR
   \   0000BF   54F8         ANL     A,#0xf8
   \   0000C1   FE           MOV     R6,A
   \   0000C2   D0E0         POP     A
   \   0000C4   4E           ORL     A,R6
   \   0000C5   8882         MOV     DPL,R0
   \   0000C7   8983         MOV     DPH,R1
   \   0000C9   A3           INC     DPTR
   \   0000CA   08           INC     R0
   \   0000CB   A983         MOV     R1,DPH
   \   0000CD   8A82         MOV     DPL,R2
   \   0000CF   8B83         MOV     DPH,R3
   \   0000D1   F0           MOVX    @DPTR,A
   2485              pNDRsp->nodeDesc.CapabilityFlags = *msg++;
   \   0000D2   8882         MOV     DPL,R0
   \   0000D4   8983         MOV     DPH,R1
   \   0000D6   E0           MOVX    A,@DPTR
   \   0000D7   8C82         MOV     DPL,R4
   \   0000D9   8D83         MOV     DPH,R5
   \   0000DB   A3           INC     DPTR
   \   0000DC   A3           INC     DPTR
   \   0000DD   A3           INC     DPTR
   \   0000DE   A3           INC     DPTR
   \   0000DF   A3           INC     DPTR
   \   0000E0   F0           MOVX    @DPTR,A
   \   0000E1   8882         MOV     DPL,R0
   \   0000E3   8983         MOV     DPH,R1
   \   0000E5   A3           INC     DPTR
   \   0000E6   08           INC     R0
   \   0000E7   A983         MOV     R1,DPH
   2486              pNDRsp->nodeDesc.ManufacturerCode[0] = *msg++;
   \   0000E9   E0           MOVX    A,@DPTR
   \   0000EA   8C82         MOV     DPL,R4
   \   0000EC   8D83         MOV     DPH,R5
   \   0000EE   A3           INC     DPTR
   \   0000EF   A3           INC     DPTR
   \   0000F0   A3           INC     DPTR
   \   0000F1   A3           INC     DPTR
   \   0000F2   A3           INC     DPTR
   \   0000F3   A3           INC     DPTR
   \   0000F4   F0           MOVX    @DPTR,A
   \   0000F5   8882         MOV     DPL,R0
   \   0000F7   8983         MOV     DPH,R1
   \   0000F9   A3           INC     DPTR
   \   0000FA   08           INC     R0
   \   0000FB   A983         MOV     R1,DPH
   2487              pNDRsp->nodeDesc.ManufacturerCode[1] = *msg++;
   \   0000FD   E0           MOVX    A,@DPTR
   \   0000FE   8C82         MOV     DPL,R4
   \   000100   8D83         MOV     DPH,R5
   \   000102   A3           INC     DPTR
   \   000103   A3           INC     DPTR
   \   000104   A3           INC     DPTR
   \   000105   A3           INC     DPTR
   \   000106   A3           INC     DPTR
   \   000107   A3           INC     DPTR
   \   000108   A3           INC     DPTR
   \   000109   F0           MOVX    @DPTR,A
   \   00010A   8882         MOV     DPL,R0
   \   00010C   8983         MOV     DPH,R1
   \   00010E   A3           INC     DPTR
   \   00010F   08           INC     R0
   \   000110   A983         MOV     R1,DPH
   2488              pNDRsp->nodeDesc.MaxBufferSize = *msg++;
   \   000112   E0           MOVX    A,@DPTR
   \   000113   8C82         MOV     DPL,R4
   \   000115   8D83         MOV     DPH,R5
   \   000117   A3           INC     DPTR
   \   000118   A3           INC     DPTR
   \   000119   A3           INC     DPTR
   \   00011A   A3           INC     DPTR
   \   00011B   A3           INC     DPTR
   \   00011C   A3           INC     DPTR
   \   00011D   A3           INC     DPTR
   \   00011E   A3           INC     DPTR
   \   00011F   F0           MOVX    @DPTR,A
   \   000120   8882         MOV     DPL,R0
   \   000122   8983         MOV     DPH,R1
   \   000124   A3           INC     DPTR
   \   000125   08           INC     R0
   \   000126   A983         MOV     R1,DPH
   2489              pNDRsp->nodeDesc.MaxInTransferSize[0] = *msg++;
   \   000128   E0           MOVX    A,@DPTR
   \   000129   8C82         MOV     DPL,R4
   \   00012B   8D83         MOV     DPH,R5
   \   00012D   A3           INC     DPTR
   \   00012E   A3           INC     DPTR
   \   00012F   A3           INC     DPTR
   \   000130   A3           INC     DPTR
   \   000131   A3           INC     DPTR
   \   000132   A3           INC     DPTR
   \   000133   A3           INC     DPTR
   \   000134   A3           INC     DPTR
   \   000135   A3           INC     DPTR
   \   000136   F0           MOVX    @DPTR,A
   \   000137   8882         MOV     DPL,R0
   \   000139   8983         MOV     DPH,R1
   \   00013B   A3           INC     DPTR
   \   00013C   08           INC     R0
   \   00013D   A983         MOV     R1,DPH
   2490              pNDRsp->nodeDesc.MaxInTransferSize[1] = *msg++;
   \   00013F   E0           MOVX    A,@DPTR
   \   000140   8C82         MOV     DPL,R4
   \   000142   8D83         MOV     DPH,R5
   \   000144   A3           INC     DPTR
   \   000145   A3           INC     DPTR
   \   000146   A3           INC     DPTR
   \   000147   A3           INC     DPTR
   \   000148   A3           INC     DPTR
   \   000149   A3           INC     DPTR
   \   00014A   A3           INC     DPTR
   \   00014B   A3           INC     DPTR
   \   00014C   A3           INC     DPTR
   \   00014D   A3           INC     DPTR
   \   00014E   F0           MOVX    @DPTR,A
   \   00014F   8882         MOV     DPL,R0
   \   000151   8983         MOV     DPH,R1
   \   000153   A3           INC     DPTR
   \   000154   08           INC     R0
   \   000155   A983         MOV     R1,DPH
   2491              pNDRsp->nodeDesc.ServerMask = BUILD_UINT16( msg[0], msg[1] );
   \   000157   E0           MOVX    A,@DPTR
   \   000158   FE           MOV     R6,A
   \   000159   A3           INC     DPTR
   \   00015A   E0           MOVX    A,@DPTR
   \   00015B   FB           MOV     R3,A
   \   00015C   EE           MOV     A,R6
   \   00015D   FA           MOV     R2,A
   \   00015E   EC           MOV     A,R4
   \   00015F   240B         ADD     A,#0xb
   \   000161   F582         MOV     DPL,A
   \   000163   ED           MOV     A,R5
   \   000164   3400         ADDC    A,#0x0
   \   000166   F583         MOV     DPH,A
   \   000168   EA           MOV     A,R2
   \   000169   F0           MOVX    @DPTR,A
   \   00016A   A3           INC     DPTR
   \   00016B   EB           MOV     A,R3
   \   00016C   F0           MOVX    @DPTR,A
   2492              msg += 2;
   \   00016D   E8           MOV     A,R0
   \   00016E   2402         ADD     A,#0x2
   \   000170   08           INC     R0
   \   000171   08           INC     R0
   \   000172   E9           MOV     A,R1
   \   000173   3400         ADDC    A,#0x0
   \   000175   F9           MOV     R1,A
   2493              pNDRsp->nodeDesc.MaxOutTransferSize[0] = *msg++;
   \   000176   8882         MOV     DPL,R0
   \   000178   8983         MOV     DPH,R1
   \   00017A   E0           MOVX    A,@DPTR
   \   00017B   C0E0         PUSH    A
   \   00017D   EC           MOV     A,R4
   \   00017E   240D         ADD     A,#0xd
   \   000180   F582         MOV     DPL,A
   \   000182   ED           MOV     A,R5
   \   000183   3400         ADDC    A,#0x0
   \   000185   F583         MOV     DPH,A
   \   000187   D0E0         POP     A
   \   000189   F0           MOVX    @DPTR,A
   \   00018A   8882         MOV     DPL,R0
   \   00018C   8983         MOV     DPH,R1
   \   00018E   A3           INC     DPTR
   \   00018F   08           INC     R0
   \   000190   A983         MOV     R1,DPH
   2494              pNDRsp->nodeDesc.MaxOutTransferSize[1] = *msg++;
   \   000192   E0           MOVX    A,@DPTR
   \   000193   C0E0         PUSH    A
   \   000195   EC           MOV     A,R4
   \   000196   240E         ADD     A,#0xe
   \   000198   F582         MOV     DPL,A
   \   00019A   ED           MOV     A,R5
   \   00019B   3400         ADDC    A,#0x0
   \   00019D   F583         MOV     DPH,A
   \   00019F   D0E0         POP     A
   \   0001A1   F0           MOVX    @DPTR,A
   \   0001A2   8882         MOV     DPL,R0
   \   0001A4   8983         MOV     DPH,R1
   \   0001A6   A3           INC     DPTR
   2495              pNDRsp->nodeDesc.DescriptorCapability = *msg;
   \   0001A7   E0           MOVX    A,@DPTR
   \   0001A8   C0E0         PUSH    A
   \   0001AA   EC           MOV     A,R4
   \   0001AB   240F         ADD     A,#0xf
   \   0001AD   F582         MOV     DPL,A
   \   0001AF   ED           MOV     A,R5
   \   0001B0   3400         ADDC    A,#0x0
   \   0001B2   F583         MOV     DPH,A
   \   0001B4   D0E0         POP     A
   \   0001B6   F0           MOVX    @DPTR,A
   2496            }
   2497          }
   \                     ??ZDO_ParseNodeDescRsp_0:
   \   0001B7   7F01         MOV     R7,#0x1
   \   0001B9   02....       LJMP    ?BANKED_LEAVE_XDATA
   2498          
   2499          /*********************************************************************
   2500           * @fn          ZDO_ParesPowerDescRsp
   2501           *
   2502           * @brief       This function parses the Power_Desc_rsp message.
   2503           *
   2504           * @param       inMsg  - incoming message
   2505           * @param       pNPRsp - place to parse the message into
   2506           *
   2507           * @return      none
   2508           */

   \                                 In  segment BANKED_CODE, align 1, keep-with-next
   2509          void ZDO_ParsePowerDescRsp( zdoIncomingMsg_t *inMsg, ZDO_PowerRsp_t *pNPRsp )
   \                     ZDO_ParsePowerDescRsp:
   2510          {
   \   000000   74F6         MOV     A,#-0xa
   \   000002   12....       LCALL   ?BANKED_ENTER_XDATA
   \   000005                ; Saved register size: 10
   \   000005                ; Auto size: 0
   2511            uint8 *msg;
   2512          
   2513            msg = inMsg->asdu;
   \   000005   EA           MOV     A,R2
   \   000006   2413         ADD     A,#0x13
   \   000008   F582         MOV     DPL,A
   \   00000A   EB           MOV     A,R3
   \   00000B   3400         ADDC    A,#0x0
   \   00000D   F583         MOV     DPH,A
   \   00000F   E0           MOVX    A,@DPTR
   \   000010   FA           MOV     R2,A
   \   000011   A3           INC     DPTR
   \   000012   E0           MOVX    A,@DPTR
   \   000013   FB           MOV     R3,A
   2514            pNPRsp->status = *msg++;
   \   000014   8A82         MOV     DPL,R2
   \   000016   8B83         MOV     DPH,R3
   \   000018   E0           MOVX    A,@DPTR
   \   000019   8C82         MOV     DPL,R4
   \   00001B   8D83         MOV     DPH,R5
   \   00001D   F0           MOVX    @DPTR,A
   \   00001E   8A82         MOV     DPL,R2
   \   000020   8B83         MOV     DPH,R3
   \   000022   A3           INC     DPTR
   \   000023   AA82         MOV     R2,DPL
   \   000025   AB83         MOV     R3,DPH
   2515            pNPRsp->nwkAddr = BUILD_UINT16( msg[0], msg[1] );
   \   000027   E0           MOVX    A,@DPTR
   \   000028   FE           MOV     R6,A
   \   000029   A3           INC     DPTR
   \   00002A   E0           MOVX    A,@DPTR
   \   00002B   F9           MOV     R1,A
   \   00002C   EE           MOV     A,R6
   \   00002D   8C82         MOV     DPL,R4
   \   00002F   8D83         MOV     DPH,R5
   \   000031   A3           INC     DPTR
   \   000032   F0           MOVX    @DPTR,A
   \   000033   A3           INC     DPTR
   \   000034   E9           MOV     A,R1
   \   000035   F0           MOVX    @DPTR,A
   2516          
   2517            if ( pNPRsp->status == ZDP_SUCCESS )
   \   000036   8C82         MOV     DPL,R4
   \   000038   8D83         MOV     DPH,R5
   \   00003A   E0           MOVX    A,@DPTR
   \   00003B   6003         JZ      $+5
   \   00003D   02....       LJMP    ??ZDO_ParsePowerDescRsp_0 & 0xFFFF
   2518            {
   2519              msg += 2;
   \   000040   EA           MOV     A,R2
   \   000041   2402         ADD     A,#0x2
   \   000043   0A           INC     R2
   \   000044   0A           INC     R2
   \   000045   EB           MOV     A,R3
   \   000046   3400         ADDC    A,#0x0
   \   000048   FB           MOV     R3,A
   2520              pNPRsp->pwrDesc.AvailablePowerSources = *msg >> 4;
   \   000049   EC           MOV     A,R4
   \   00004A   2403         ADD     A,#0x3
   \   00004C   ED           MOV     A,R5
   \   00004D   3400         ADDC    A,#0x0
   \   00004F   0C           INC     R4
   \   000050   0C           INC     R4
   \   000051   0C           INC     R4
   \   000052   FD           MOV     R5,A
   \   000053   8C82         MOV     DPL,R4
   \   000055   8D83         MOV     DPH,R5
   \   000057   E0           MOVX    A,@DPTR
   \   000058   540F         ANL     A,#0xf
   \   00005A   FE           MOV     R6,A
   \   00005B   A3           INC     DPTR
   \   00005C   E0           MOVX    A,@DPTR
   \   00005D   FF           MOV     R7,A
   \   00005E   8A82         MOV     DPL,R2
   \   000060   8B83         MOV     DPH,R3
   \   000062   E0           MOVX    A,@DPTR
   \   000063   C4           SWAP    A
   \   000064   540F         ANL     A,#0xf
   \   000066   F5..         MOV     ?V0 + 0,A
   \   000068   75..00       MOV     ?V0 + 1,#0x0
   \   00006B   7404         MOV     A,#0x4
   \   00006D   78..         MOV     R0,#?V0 + 0
   \   00006F   12....       LCALL   ?S_SHL
   \   000072   E5..         MOV     A,?V0 + 0
   \   000074   4E           ORL     A,R6
   \   000075   F8           MOV     R0,A
   \   000076   EF           MOV     A,R7
   \   000077   F9           MOV     R1,A
   \   000078   8C82         MOV     DPL,R4
   \   00007A   8D83         MOV     DPH,R5
   \   00007C   E8           MOV     A,R0
   \   00007D   F0           MOVX    @DPTR,A
   \   00007E   A3           INC     DPTR
   \   00007F   E9           MOV     A,R1
   \   000080   F0           MOVX    @DPTR,A
   2521              pNPRsp->pwrDesc.PowerMode = *msg++ & 0x0F;
   \   000081   8C82         MOV     DPL,R4
   \   000083   8D83         MOV     DPH,R5
   \   000085   E0           MOVX    A,@DPTR
   \   000086   54F0         ANL     A,#0xf0
   \   000088   F8           MOV     R0,A
   \   000089   A3           INC     DPTR
   \   00008A   E0           MOVX    A,@DPTR
   \   00008B   F9           MOV     R1,A
   \   00008C   8A82         MOV     DPL,R2
   \   00008E   8B83         MOV     DPH,R3
   \   000090   E0           MOVX    A,@DPTR
   \   000091   FE           MOV     R6,A
   \   000092   740F         MOV     A,#0xf
   \   000094   5E           ANL     A,R6
   \   000095   48           ORL     A,R0
   \   000096   A3           INC     DPTR
   \   000097   0A           INC     R2
   \   000098   AB83         MOV     R3,DPH
   \   00009A   8C82         MOV     DPL,R4
   \   00009C   8D83         MOV     DPH,R5
   \   00009E   F0           MOVX    @DPTR,A
   \   00009F   A3           INC     DPTR
   \   0000A0   E9           MOV     A,R1
   \   0000A1   F0           MOVX    @DPTR,A
   2522              pNPRsp->pwrDesc.CurrentPowerSourceLevel = *msg >> 4;
   \   0000A2   8C82         MOV     DPL,R4
   \   0000A4   8D83         MOV     DPH,R5
   \   0000A6   E0           MOVX    A,@DPTR
   \   0000A7   FE           MOV     R6,A
   \   0000A8   A3           INC     DPTR
   \   0000A9   E0           MOVX    A,@DPTR
   \   0000AA   540F         ANL     A,#0xf
   \   0000AC   FF           MOV     R7,A
   \   0000AD   8A82         MOV     DPL,R2
   \   0000AF   8B83         MOV     DPH,R3
   \   0000B1   E0           MOVX    A,@DPTR
   \   0000B2   C4           SWAP    A
   \   0000B3   540F         ANL     A,#0xf
   \   0000B5   F5..         MOV     ?V0 + 0,A
   \   0000B7   740C         MOV     A,#0xc
   \   0000B9   78..         MOV     R0,#?V0 + 0
   \   0000BB   12....       LCALL   ?S_SHL
   \   0000BE   EE           MOV     A,R6
   \   0000BF   F8           MOV     R0,A
   \   0000C0   E5..         MOV     A,?V0 + 1
   \   0000C2   4F           ORL     A,R7
   \   0000C3   F9           MOV     R1,A
   \   0000C4   8C82         MOV     DPL,R4
   \   0000C6   8D83         MOV     DPH,R5
   \   0000C8   E8           MOV     A,R0
   \   0000C9   F0           MOVX    @DPTR,A
   \   0000CA   A3           INC     DPTR
   \   0000CB   E9           MOV     A,R1
   \   0000CC   F0           MOVX    @DPTR,A
   2523              pNPRsp->pwrDesc.CurrentPowerSource = *msg++ & 0x0F;
   \   0000CD   8C82         MOV     DPL,R4
   \   0000CF   8D83         MOV     DPH,R5
   \   0000D1   E0           MOVX    A,@DPTR
   \   0000D2   F8           MOV     R0,A
   \   0000D3   A3           INC     DPTR
   \   0000D4   E0           MOVX    A,@DPTR
   \   0000D5   54F0         ANL     A,#0xf0
   \   0000D7   F9           MOV     R1,A
   \   0000D8   8A82         MOV     DPL,R2
   \   0000DA   8B83         MOV     DPH,R3
   \   0000DC   E0           MOVX    A,@DPTR
   \   0000DD   FB           MOV     R3,A
   \   0000DE   740F         MOV     A,#0xf
   \   0000E0   5B           ANL     A,R3
   \   0000E1   49           ORL     A,R1
   \   0000E2   F9           MOV     R1,A
   \   0000E3   8C82         MOV     DPL,R4
   \   0000E5   8D83         MOV     DPH,R5
   \   0000E7   E8           MOV     A,R0
   \   0000E8   F0           MOVX    @DPTR,A
   \   0000E9   A3           INC     DPTR
   \   0000EA   E9           MOV     A,R1
   \   0000EB   F0           MOVX    @DPTR,A
   2524            }
   2525          }
   \                     ??ZDO_ParsePowerDescRsp_0:
   \   0000EC   7F02         MOV     R7,#0x2
   \   0000EE   02....       LJMP    ?BANKED_LEAVE_XDATA
   2526          
   2527          /*********************************************************************
   2528           * @fn          ZDO_ParseSimpleDescRsp
   2529           *
   2530           * @brief       This function parse the Simple_Desc_rsp message.
   2531           *
   2532           *   NOTE: The pAppInClusterList and pAppOutClusterList fields
   2533           *         in the SimpleDescriptionFormat_t structure are allocated
   2534           *         and the calling function needs to free [osal_msg_free()]
   2535           *         these buffers.
   2536           *
   2537           * @param       inMsg  - incoming message
   2538           * @param       pSimpleDescRsp - place to parse the message into
   2539           *
   2540           * @return      none
   2541           */

   \                                 In  segment BANKED_CODE, align 1, keep-with-next
   2542          void ZDO_ParseSimpleDescRsp( zdoIncomingMsg_t *inMsg, ZDO_SimpleDescRsp_t *pSimpleDescRsp )
   \                     ZDO_ParseSimpleDescRsp:
   2543          {
   \   000000   74F7         MOV     A,#-0x9
   \   000002   12....       LCALL   ?BANKED_ENTER_XDATA
   \   000005                ; Saved register size: 9
   \   000005                ; Auto size: 0
   2544            uint8 *msg;
   2545          
   2546            msg = inMsg->asdu;
   \   000005   EA           MOV     A,R2
   \   000006   2413         ADD     A,#0x13
   \   000008   F582         MOV     DPL,A
   \   00000A   EB           MOV     A,R3
   \   00000B   3400         ADDC    A,#0x0
   \   00000D   F583         MOV     DPH,A
   \   00000F   E0           MOVX    A,@DPTR
   \   000010   F8           MOV     R0,A
   \   000011   A3           INC     DPTR
   \   000012   E0           MOVX    A,@DPTR
   \   000013   F9           MOV     R1,A
   2547            pSimpleDescRsp->status = *msg++;
   \   000014   8882         MOV     DPL,R0
   \   000016   8983         MOV     DPH,R1
   \   000018   E0           MOVX    A,@DPTR
   \   000019   8C82         MOV     DPL,R4
   \   00001B   8D83         MOV     DPH,R5
   \   00001D   F0           MOVX    @DPTR,A
   \   00001E   8882         MOV     DPL,R0
   \   000020   8983         MOV     DPH,R1
   \   000022   A3           INC     DPTR
   \   000023   A882         MOV     R0,DPL
   \   000025   A983         MOV     R1,DPH
   2548            pSimpleDescRsp->nwkAddr = BUILD_UINT16( msg[0], msg[1] );
   \   000027   E0           MOVX    A,@DPTR
   \   000028   FE           MOV     R6,A
   \   000029   A3           INC     DPTR
   \   00002A   E0           MOVX    A,@DPTR
   \   00002B   FB           MOV     R3,A
   \   00002C   EE           MOV     A,R6
   \   00002D   8C82         MOV     DPL,R4
   \   00002F   8D83         MOV     DPH,R5
   \   000031   A3           INC     DPTR
   \   000032   F0           MOVX    @DPTR,A
   \   000033   A3           INC     DPTR
   \   000034   EB           MOV     A,R3
   \   000035   F0           MOVX    @DPTR,A
   2549            msg += sizeof ( uint16 );
   2550            msg++; // Skip past the length field.
   2551          
   2552            if ( pSimpleDescRsp->status == ZDP_SUCCESS )
   \   000036   8C82         MOV     DPL,R4
   \   000038   8D83         MOV     DPH,R5
   \   00003A   E0           MOVX    A,@DPTR
   \   00003B   7015         JNZ     ??ZDO_ParseSimpleDescRsp_0
   2553            {
   2554              ZDO_ParseSimpleDescBuf( msg, &(pSimpleDescRsp->simpleDesc) );
   \   00003D                ; Setup parameters for call to function ZDO_ParseSimpleDescBuf
   \   00003D   EC           MOV     A,R4
   \   00003E   2403         ADD     A,#0x3
   \   000040   0C           INC     R4
   \   000041   0C           INC     R4
   \   000042   0C           INC     R4
   \   000043   ED           MOV     A,R5
   \   000044   3400         ADDC    A,#0x0
   \   000046   FD           MOV     R5,A
   \   000047   E8           MOV     A,R0
   \   000048   2403         ADD     A,#0x3
   \   00004A   FA           MOV     R2,A
   \   00004B   E9           MOV     A,R1
   \   00004C   3400         ADDC    A,#0x0
   \   00004E   FB           MOV     R3,A
   \   00004F   12....       LCALL   ??ZDO_ParseSimpleDescBuf?relay
   2555            }
   2556          }
   \                     ??ZDO_ParseSimpleDescRsp_0:
   \   000052   7F01         MOV     R7,#0x1
   \   000054   02....       LJMP    ?BANKED_LEAVE_XDATA
   2557          
   2558          /*********************************************************************
   2559           * @fn          ZDO_ParseEPListRsp
   2560           *
   2561           * @brief       This parse the Active_EP_rsp or Match_Desc_rsp message.
   2562           *
   2563           * @param       inMsg  - incoming message
   2564           *
   2565           * @return      none
   2566           */

   \                                 In  segment BANKED_CODE, align 1, keep-with-next
   2567          ZDO_ActiveEndpointRsp_t *ZDO_ParseEPListRsp( zdoIncomingMsg_t *inMsg )
   \                     ZDO_ParseEPListRsp:
   2568          {
   \   000000   74F0         MOV     A,#-0x10
   \   000002   12....       LCALL   ?BANKED_ENTER_XDATA
   \   000005                ; Saved register size: 16
   \   000005                ; Auto size: 0
   2569            ZDO_ActiveEndpointRsp_t *pRsp;
   2570            uint8 *msg;
   2571            uint8 Status;
   2572            uint8 cnt;
   2573          
   2574            msg = inMsg->asdu;
   \   000005   EA           MOV     A,R2
   \   000006   2413         ADD     A,#0x13
   \   000008   F582         MOV     DPL,A
   \   00000A   EB           MOV     A,R3
   \   00000B   3400         ADDC    A,#0x0
   \   00000D   F583         MOV     DPH,A
   \   00000F   E0           MOVX    A,@DPTR
   \   000010   F5..         MOV     ?V0 + 0,A
   \   000012   A3           INC     DPTR
   \   000013   E0           MOVX    A,@DPTR
   2575            Status = *msg++;
   \   000014   85..82       MOV     DPL,?V0 + 0
   \   000017   F583         MOV     DPH,A
   \   000019   E0           MOVX    A,@DPTR
   \   00001A   F5..         MOV     ?V0 + 3,A
   \   00001C   A3           INC     DPTR
   \   00001D   8582..       MOV     ?V0 + 0,DPL
   \   000020   8583..       MOV     ?V0 + 1,DPH
   2576            cnt = msg[2];
   \   000023   A3           INC     DPTR
   \   000024   A3           INC     DPTR
   \   000025   E0           MOVX    A,@DPTR
   2577          
   2578            pRsp = (ZDO_ActiveEndpointRsp_t *)osal_mem_alloc( sizeof(  ZDO_ActiveEndpointRsp_t ) + cnt );
   \   000026   F582         MOV     DPL,A
   \   000028   AE82         MOV     R6,DPL
   \   00002A                ; Setup parameters for call to function osal_mem_alloc
   \   00002A   7404         MOV     A,#0x4
   \   00002C   2E           ADD     A,R6
   \   00002D   FA           MOV     R2,A
   \   00002E   E4           CLR     A
   \   00002F   3400         ADDC    A,#0x0
   \   000031   FB           MOV     R3,A
   \   000032   12....       LCALL   ??osal_mem_alloc?relay
   \   000035   8A..         MOV     ?V0 + 6,R2
   \   000037   8B..         MOV     ?V0 + 7,R3
   2579            if ( pRsp )
   \   000039   EA           MOV     A,R2
   \   00003A   7001         JNZ     ??ZDO_ParseEPListRsp_0
   \   00003C   EB           MOV     A,R3
   \                     ??ZDO_ParseEPListRsp_0:
   \   00003D   6057         JZ      ??ZDO_ParseEPListRsp_1
   2580            {
   2581              pRsp->status = Status;
   \   00003F   8A82         MOV     DPL,R2
   \   000041   8B83         MOV     DPH,R3
   \   000043   E5..         MOV     A,?V0 + 3
   \   000045   F0           MOVX    @DPTR,A
   2582              pRsp->nwkAddr = BUILD_UINT16( msg[0], msg[1] );
   \   000046   85..82       MOV     DPL,?V0 + 0
   \   000049   85..83       MOV     DPH,?V0 + 1
   \   00004C   E0           MOVX    A,@DPTR
   \   00004D   FA           MOV     R2,A
   \   00004E   A3           INC     DPTR
   \   00004F   E0           MOVX    A,@DPTR
   \   000050   F8           MOV     R0,A
   \   000051   E4           CLR     A
   \   000052   C8           XCH     A,R0
   \   000053   F9           MOV     R1,A
   \   000054   EA           MOV     A,R2
   \   000055   85..82       MOV     DPL,?V0 + 6
   \   000058   8B83         MOV     DPH,R3
   \   00005A   A3           INC     DPTR
   \   00005B   F0           MOVX    @DPTR,A
   \   00005C   A3           INC     DPTR
   \   00005D   E9           MOV     A,R1
   \   00005E   F0           MOVX    @DPTR,A
   2583              msg += sizeof( uint16 );
   2584              pRsp->cnt = cnt;
   \   00005F   85..82       MOV     DPL,?V0 + 6
   \   000062   8B83         MOV     DPH,R3
   \   000064   A3           INC     DPTR
   \   000065   A3           INC     DPTR
   \   000066   A3           INC     DPTR
   \   000067   EE           MOV     A,R6
   \   000068   F0           MOVX    @DPTR,A
   2585              msg++; // pass cnt
   2586              osal_memcpy( pRsp->epList, msg, cnt );
   \   000069                ; Setup parameters for call to function osal_memcpy
   \   000069   85..82       MOV     DPL,?V0 + 0
   \   00006C   85..83       MOV     DPH,?V0 + 1
   \   00006F   A3           INC     DPTR
   \   000070   A3           INC     DPTR
   \   000071   A3           INC     DPTR
   \   000072   A982         MOV     R1,DPL
   \   000074   AA83         MOV     R2,DPH
   \   000076   89..         MOV     ?V0 + 0,R1
   \   000078   8A..         MOV     ?V0 + 1,R2
   \   00007A   88..         MOV     ?V0 + 2,R0
   \   00007C   78..         MOV     R0,#?V0 + 0
   \   00007E   12....       LCALL   ?PUSH_XSTACK_I_THREE
   \   000081   EE           MOV     A,R6
   \   000082   FC           MOV     R4,A
   \   000083   7D00         MOV     R5,#0x0
   \   000085   E5..         MOV     A,?V0 + 6
   \   000087   2404         ADD     A,#0x4
   \   000089   FA           MOV     R2,A
   \   00008A   EB           MOV     A,R3
   \   00008B   3400         ADDC    A,#0x0
   \   00008D   FB           MOV     R3,A
   \   00008E   12....       LCALL   ??osal_memcpy?relay
   \   000091   7403         MOV     A,#0x3
   \   000093   12....       LCALL   ?DEALLOC_XSTACK8
   2587            }
   2588          
   2589            return ( pRsp );
   \                     ??ZDO_ParseEPListRsp_1:
   \   000096   AA..         MOV     R2,?V0 + 6
   \   000098   AB..         MOV     R3,?V0 + 7
   \   00009A   7F08         MOV     R7,#0x8
   \   00009C   02....       LJMP    ?BANKED_LEAVE_XDATA
   2590          }
   2591          
   2592          /*********************************************************************
   2593           * @fn          ZDO_ParseServerDiscRsp
   2594           *
   2595           * @brief       Parse the Server_Discovery_rsp message.
   2596           *
   2597           * @param       inMsg - incoming message.
   2598           * @param       pRsp - place to put the parsed information.
   2599           *
   2600           * @return      none
   2601           */

   \                                 In  segment BANKED_CODE, align 1, keep-with-next
   2602          void ZDO_ParseServerDiscRsp( zdoIncomingMsg_t *inMsg, ZDO_ServerDiscRsp_t *pRsp )
   \                     ZDO_ParseServerDiscRsp:
   2603          {
   \   000000   74F7         MOV     A,#-0x9
   \   000002   12....       LCALL   ?BANKED_ENTER_XDATA
   \   000005                ; Saved register size: 9
   \   000005                ; Auto size: 0
   2604            pRsp->status = inMsg->asdu[0];
   \   000005   EA           MOV     A,R2
   \   000006   2413         ADD     A,#0x13
   \   000008   F8           MOV     R0,A
   \   000009   EB           MOV     A,R3
   \   00000A   3400         ADDC    A,#0x0
   \   00000C   F9           MOV     R1,A
   \   00000D   8882         MOV     DPL,R0
   \   00000F   8983         MOV     DPH,R1
   \   000011   E0           MOVX    A,@DPTR
   \   000012   FA           MOV     R2,A
   \   000013   A3           INC     DPTR
   \   000014   E0           MOVX    A,@DPTR
   \   000015   F583         MOV     DPH,A
   \   000017   8A82         MOV     DPL,R2
   \   000019   E0           MOVX    A,@DPTR
   \   00001A   8C82         MOV     DPL,R4
   \   00001C   8D83         MOV     DPH,R5
   \   00001E   F0           MOVX    @DPTR,A
   2605            pRsp->serverMask = BUILD_UINT16( inMsg->asdu[1], inMsg->asdu[2] );
   \   00001F   8882         MOV     DPL,R0
   \   000021   8983         MOV     DPH,R1
   \   000023   E0           MOVX    A,@DPTR
   \   000024   FA           MOV     R2,A
   \   000025   A3           INC     DPTR
   \   000026   E0           MOVX    A,@DPTR
   \   000027   F583         MOV     DPH,A
   \   000029   8A82         MOV     DPL,R2
   \   00002B   A3           INC     DPTR
   \   00002C   E0           MOVX    A,@DPTR
   \   00002D   FA           MOV     R2,A
   \   00002E   8882         MOV     DPL,R0
   \   000030   8983         MOV     DPH,R1
   \   000032   E0           MOVX    A,@DPTR
   \   000033   F8           MOV     R0,A
   \   000034   A3           INC     DPTR
   \   000035   E0           MOVX    A,@DPTR
   \   000036   F583         MOV     DPH,A
   \   000038   8882         MOV     DPL,R0
   \   00003A   A3           INC     DPTR
   \   00003B   A3           INC     DPTR
   \   00003C   E0           MOVX    A,@DPTR
   \   00003D   F9           MOV     R1,A
   \   00003E   EA           MOV     A,R2
   \   00003F   8C82         MOV     DPL,R4
   \   000041   8D83         MOV     DPH,R5
   \   000043   A3           INC     DPTR
   \   000044   F0           MOVX    @DPTR,A
   \   000045   A3           INC     DPTR
   \   000046   E9           MOV     A,R1
   \   000047   F0           MOVX    @DPTR,A
   2606          }
   \   000048   7F01         MOV     R7,#0x1
   \   00004A   02....       LJMP    ?BANKED_LEAVE_XDATA
   2607          
   2608          /*********************************************************************
   2609           * @fn          ZDO_ParseMgmtLqiRsp
   2610           *
   2611           * @brief       This function parses the incoming Management
   2612           *              LQI response
   2613           *
   2614           * @param       inMsg - incoming message
   2615           *
   2616           * @return      a pointer to parsed response structure (NULL if not allocated).
   2617           *          This structure was allocated using osal_mem_alloc, so it must be freed
   2618           *          by the calling function [osal_mem_free()].
   2619           */

   \                                 In  segment BANKED_CODE, align 1, keep-with-next
   2620          ZDO_MgmtLqiRsp_t *ZDO_ParseMgmtLqiRsp( zdoIncomingMsg_t *inMsg )
   \                     ZDO_ParseMgmtLqiRsp:
   2621          {
   \   000000   74F0         MOV     A,#-0x10
   \   000002   12....       LCALL   ?BANKED_ENTER_XDATA
   \   000005                ; Saved register size: 16
   \   000005                ; Auto size: 0
   2622            ZDO_MgmtLqiRsp_t *pRsp;
   2623            uint8 status;
   2624            uint8 startIndex = 0;
   \   000005   75..00       MOV     ?V0 + 4,#0x0
   2625            uint8 neighborLqiCount = 0;
   \   000008   75..00       MOV     ?V0 + 1,#0x0
   2626            uint8 neighborLqiEntries = 0;
   \   00000B   75..00       MOV     ?V0 + 0,#0x0
   2627            uint8 *msg;
   2628          
   2629            msg = inMsg->asdu;
   \   00000E   EA           MOV     A,R2
   \   00000F   2413         ADD     A,#0x13
   \   000011   F582         MOV     DPL,A
   \   000013   EB           MOV     A,R3
   \   000014   3400         ADDC    A,#0x0
   \   000016   F583         MOV     DPH,A
   \   000018   E0           MOVX    A,@DPTR
   \   000019   FE           MOV     R6,A
   \   00001A   A3           INC     DPTR
   \   00001B   E0           MOVX    A,@DPTR
   \   00001C   FF           MOV     R7,A
   2630          
   2631            status = *msg++;
   \   00001D   8E82         MOV     DPL,R6
   \   00001F   8F83         MOV     DPH,R7
   \   000021   E0           MOVX    A,@DPTR
   \   000022   F5..         MOV     ?V0 + 5,A
   \   000024   A3           INC     DPTR
   \   000025   AE82         MOV     R6,DPL
   \   000027   AF83         MOV     R7,DPH
   2632            if ( status == ZSuccess )
   \   000029   7011         JNZ     ??ZDO_ParseMgmtLqiRsp_0
   2633            {
   2634              neighborLqiEntries = *msg++;
   \   00002B   E0           MOVX    A,@DPTR
   \   00002C   F5..         MOV     ?V0 + 0,A
   \   00002E   A3           INC     DPTR
   2635              startIndex = *msg++;
   \   00002F   E0           MOVX    A,@DPTR
   \   000030   F5..         MOV     ?V0 + 4,A
   \   000032   A3           INC     DPTR
   2636              neighborLqiCount = *msg++;
   \   000033   E0           MOVX    A,@DPTR
   \   000034   F5..         MOV     ?V0 + 1,A
   \   000036   A3           INC     DPTR
   \   000037   0E           INC     R6
   \   000038   0E           INC     R6
   \   000039   0E           INC     R6
   \   00003A   AF83         MOV     R7,DPH
   2637            }
   2638          
   2639            // Allocate a buffer big enough to handle the list.
   2640            pRsp = (ZDO_MgmtLqiRsp_t *)osal_mem_alloc(
   2641                      sizeof( ZDO_MgmtLqiRsp_t ) + (neighborLqiCount * sizeof( neighborLqiItem_t )) );
   \                     ??ZDO_ParseMgmtLqiRsp_0:
   \   00003C                ; Setup parameters for call to function osal_mem_alloc
   \   00003C   E5..         MOV     A,?V0 + 1
   \   00003E   75F00E       MOV     B,#0xe
   \   000041   A4           MUL     AB
   \   000042   F8           MOV     R0,A
   \   000043   A9F0         MOV     R1,B
   \   000045   7404         MOV     A,#0x4
   \   000047   28           ADD     A,R0
   \   000048   FA           MOV     R2,A
   \   000049   E4           CLR     A
   \   00004A   39           ADDC    A,R1
   \   00004B   FB           MOV     R3,A
   \   00004C   12....       LCALL   ??osal_mem_alloc?relay
   \   00004F   8A..         MOV     ?V0 + 6,R2
   \   000051   8B..         MOV     ?V0 + 7,R3
   2642            if ( pRsp )
   \   000053   EA           MOV     A,R2
   \   000054   7001         JNZ     ??ZDO_ParseMgmtLqiRsp_1
   \   000056   EB           MOV     A,R3
   \                     ??ZDO_ParseMgmtLqiRsp_1:
   \   000057   7003         JNZ     $+5
   \   000059   02....       LJMP    ??ZDO_ParseMgmtLqiRsp_2 & 0xFFFF
   2643            {
   2644              uint8 x;
   2645              neighborLqiItem_t *pList = pRsp->list;
   \   00005C   EA           MOV     A,R2
   \   00005D   2404         ADD     A,#0x4
   \   00005F   F5..         MOV     ?V0 + 2,A
   \   000061   EB           MOV     A,R3
   \   000062   3400         ADDC    A,#0x0
   \   000064   F5..         MOV     ?V0 + 3,A
   2646              pRsp->status = status;
   \   000066   8A82         MOV     DPL,R2
   \   000068   8B83         MOV     DPH,R3
   \   00006A   E5..         MOV     A,?V0 + 5
   \   00006C   F0           MOVX    @DPTR,A
   2647              pRsp->neighborLqiEntries = neighborLqiEntries;
   \   00006D   A3           INC     DPTR
   \   00006E   E5..         MOV     A,?V0 + 0
   \   000070   F0           MOVX    @DPTR,A
   2648              pRsp->startIndex = startIndex;
   \   000071   8A82         MOV     DPL,R2
   \   000073   8B83         MOV     DPH,R3
   \   000075   A3           INC     DPTR
   \   000076   A3           INC     DPTR
   \   000077   E5..         MOV     A,?V0 + 4
   \   000079   F0           MOVX    @DPTR,A
   2649              pRsp->neighborLqiCount = neighborLqiCount;
   \   00007A   8A82         MOV     DPL,R2
   \   00007C   8B83         MOV     DPH,R3
   \   00007E   A3           INC     DPTR
   \   00007F   A3           INC     DPTR
   \   000080   A3           INC     DPTR
   \   000081   E5..         MOV     A,?V0 + 1
   \   000083   F0           MOVX    @DPTR,A
   2650          
   2651              for ( x = 0; x < neighborLqiCount; x++ )
   \   000084   75..00       MOV     ?V0 + 0,#0x0
   \   000087   8074         SJMP    ??ZDO_ParseMgmtLqiRsp_3
   2652              {
   2653                osal_cpyExtAddr(pList->extPANId, msg);   //Copy extended PAN ID
   \                     ??ZDO_ParseMgmtLqiRsp_4:
   \   000089                ; Setup parameters for call to function sAddrExtCpy
   \   000089   EE           MOV     A,R6
   \   00008A   FC           MOV     R4,A
   \   00008B   EF           MOV     A,R7
   \   00008C   FD           MOV     R5,A
   \   00008D   E5..         MOV     A,?V0 + 2
   \   00008F   2404         ADD     A,#0x4
   \   000091   FA           MOV     R2,A
   \   000092   E5..         MOV     A,?V0 + 3
   \   000094   3400         ADDC    A,#0x0
   \   000096   FB           MOV     R3,A
   \   000097   12....       LCALL   ??sAddrExtCpy?relay
   2654                msg += Z_EXTADDR_LEN;
   2655          
   2656                msg += Z_EXTADDR_LEN;  // Throwing away IEEE.
   \   00009A   EE           MOV     A,R6
   \   00009B   2410         ADD     A,#0x10
   \   00009D   FE           MOV     R6,A
   \   00009E   EF           MOV     A,R7
   \   00009F   3400         ADDC    A,#0x0
   \   0000A1   FF           MOV     R7,A
   2657                pList->nwkAddr = BUILD_UINT16( msg[0], msg[1] );
   \   0000A2   8E82         MOV     DPL,R6
   \   0000A4   8F83         MOV     DPH,R7
   \   0000A6   E0           MOVX    A,@DPTR
   \   0000A7   FA           MOV     R2,A
   \   0000A8   A3           INC     DPTR
   \   0000A9   E0           MOVX    A,@DPTR
   \   0000AA   F9           MOV     R1,A
   \   0000AB   EA           MOV     A,R2
   \   0000AC   85..82       MOV     DPL,?V0 + 2
   \   0000AF   85..83       MOV     DPH,?V0 + 3
   \   0000B2   F0           MOVX    @DPTR,A
   \   0000B3   A3           INC     DPTR
   \   0000B4   E9           MOV     A,R1
   \   0000B5   F0           MOVX    @DPTR,A
   2658                msg += 2 + 1 + 1 + 1;      // Skip DeviceType, RxOnIdle, Rlationship, PermitJoining and Depth
   \   0000B6   EE           MOV     A,R6
   \   0000B7   2405         ADD     A,#0x5
   \   0000B9   FE           MOV     R6,A
   \   0000BA   EF           MOV     A,R7
   \   0000BB   3400         ADDC    A,#0x0
   \   0000BD   FF           MOV     R7,A
   2659                pList->rxLqi = *msg++;
   \   0000BE   8E82         MOV     DPL,R6
   \   0000C0   8F83         MOV     DPH,R7
   \   0000C2   E0           MOVX    A,@DPTR
   \   0000C3   C0E0         PUSH    A
   \   0000C5   E5..         MOV     A,?V0 + 2
   \   0000C7   240D         ADD     A,#0xd
   \   0000C9   F582         MOV     DPL,A
   \   0000CB   E5..         MOV     A,?V0 + 3
   \   0000CD   3400         ADDC    A,#0x0
   \   0000CF   F583         MOV     DPH,A
   \   0000D1   D0E0         POP     A
   \   0000D3   F0           MOVX    @DPTR,A
   \   0000D4   8E82         MOV     DPL,R6
   \   0000D6   8F83         MOV     DPH,R7
   \   0000D8   A3           INC     DPTR
   \   0000D9   AE82         MOV     R6,DPL
   \   0000DB   AF83         MOV     R7,DPH
   2660                pList->txQuality = 0;  // This is not specified OTA by ZigBee 1.1.
   \   0000DD   E4           CLR     A
   \   0000DE   C0E0         PUSH    A
   \   0000E0   E5..         MOV     A,?V0 + 2
   \   0000E2   240C         ADD     A,#0xc
   \   0000E4   F582         MOV     DPL,A
   \   0000E6   E5..         MOV     A,?V0 + 3
   \   0000E8   3400         ADDC    A,#0x0
   \   0000EA   F583         MOV     DPH,A
   \   0000EC   D0E0         POP     A
   \   0000EE   F0           MOVX    @DPTR,A
   2661                pList++;
   \   0000EF   E5..         MOV     A,?V0 + 2
   \   0000F1   240E         ADD     A,#0xe
   \   0000F3   F5..         MOV     ?V0 + 2,A
   \   0000F5   E5..         MOV     A,?V0 + 3
   \   0000F7   3400         ADDC    A,#0x0
   \   0000F9   F5..         MOV     ?V0 + 3,A
   2662              }
   \   0000FB   05..         INC     ?V0 + 0
   \                     ??ZDO_ParseMgmtLqiRsp_3:
   \   0000FD   E5..         MOV     A,?V0 + 0
   \   0000FF   C3           CLR     C
   \   000100   95..         SUBB    A,?V0 + 1
   \   000102   4085         JC      ??ZDO_ParseMgmtLqiRsp_4
   2663            }
   2664          
   2665            return ( pRsp );
   \                     ??ZDO_ParseMgmtLqiRsp_2:
   \   000104   AA..         MOV     R2,?V0 + 6
   \   000106   AB..         MOV     R3,?V0 + 7
   \   000108   7F08         MOV     R7,#0x8
   \   00010A   02....       LJMP    ?BANKED_LEAVE_XDATA
   2666          }
   2667          
   2668          /*********************************************************************
   2669           * @fn          ZDO_ParseMgmNwkDiscRsp
   2670           *
   2671           * @brief       This function parses the incoming Management
   2672           *              Network Discover response.
   2673           *
   2674           * @param       inMsg - incoming message
   2675           *
   2676           * @return      pointer to parsed response.  This structure was
   2677           *          allocated using osal_mem_alloc, so it must be freed
   2678           *          by the calling function [osal_mem_free()].
   2679           */

   \                                 In  segment BANKED_CODE, align 1, keep-with-next
   2680          ZDO_MgmNwkDiscRsp_t *ZDO_ParseMgmNwkDiscRsp( zdoIncomingMsg_t *inMsg )
   \                     ZDO_ParseMgmNwkDiscRsp:
   2681          {
   \   000000   74F0         MOV     A,#-0x10
   \   000002   12....       LCALL   ?BANKED_ENTER_XDATA
   \   000005                ; Saved register size: 16
   \   000005                ; Auto size: 0
   2682            ZDO_MgmNwkDiscRsp_t *pRsp;
   2683            uint8 status;
   2684            uint8 networkCount = 0;
   \   000005   75..00       MOV     ?V0 + 1,#0x0
   2685            uint8 startIndex = 0;
   \   000008   75..00       MOV     ?V0 + 0,#0x0
   2686            uint8 networkListCount = 0;
   \   00000B   75..00       MOV     ?V0 + 2,#0x0
   2687            uint8 *msg;
   2688          
   2689            msg = inMsg->asdu;
   \   00000E   EA           MOV     A,R2
   \   00000F   2413         ADD     A,#0x13
   \   000011   F582         MOV     DPL,A
   \   000013   EB           MOV     A,R3
   \   000014   3400         ADDC    A,#0x0
   \   000016   F583         MOV     DPH,A
   \   000018   E0           MOVX    A,@DPTR
   \   000019   FE           MOV     R6,A
   \   00001A   A3           INC     DPTR
   \   00001B   E0           MOVX    A,@DPTR
   \   00001C   FF           MOV     R7,A
   2690            status = *msg++;
   \   00001D   8E82         MOV     DPL,R6
   \   00001F   8F83         MOV     DPH,R7
   \   000021   E0           MOVX    A,@DPTR
   \   000022   F5..         MOV     ?V0 + 3,A
   \   000024   A3           INC     DPTR
   \   000025   AE82         MOV     R6,DPL
   \   000027   AF83         MOV     R7,DPH
   2691          
   2692            if ( status == ZSuccess )
   \   000029   7011         JNZ     ??ZDO_ParseMgmNwkDiscRsp_0
   2693            {
   2694              networkCount = *msg++;
   \   00002B   E0           MOVX    A,@DPTR
   \   00002C   F5..         MOV     ?V0 + 1,A
   \   00002E   A3           INC     DPTR
   2695              startIndex = *msg++;
   \   00002F   E0           MOVX    A,@DPTR
   \   000030   F5..         MOV     ?V0 + 0,A
   \   000032   A3           INC     DPTR
   2696              networkListCount = *msg++;
   \   000033   E0           MOVX    A,@DPTR
   \   000034   F5..         MOV     ?V0 + 2,A
   \   000036   A3           INC     DPTR
   \   000037   0E           INC     R6
   \   000038   0E           INC     R6
   \   000039   0E           INC     R6
   \   00003A   AF83         MOV     R7,DPH
   2697            }
   2698          
   2699            // Allocate a buffer big enough to handle the list.
   2700            pRsp = (ZDO_MgmNwkDiscRsp_t *)osal_mem_alloc( sizeof( ZDO_MgmNwkDiscRsp_t )
   2701                                            + (networkListCount * sizeof( mgmtNwkDiscItem_t )) );
   \                     ??ZDO_ParseMgmNwkDiscRsp_0:
   \   00003C                ; Setup parameters for call to function osal_mem_alloc
   \   00003C   85....       MOV     ?V0 + 4,?V0 + 2
   \   00003F   75..00       MOV     ?V0 + 5,#0x0
   \   000042   7404         MOV     A,#0x4
   \   000044   78..         MOV     R0,#?V0 + 4
   \   000046   12....       LCALL   ?S_SHL
   \   000049   7404         MOV     A,#0x4
   \   00004B   25..         ADD     A,?V0 + 4
   \   00004D   FA           MOV     R2,A
   \   00004E   E4           CLR     A
   \   00004F   35..         ADDC    A,?V0 + 5
   \   000051   FB           MOV     R3,A
   \   000052   12....       LCALL   ??osal_mem_alloc?relay
   \   000055   8A..         MOV     ?V0 + 6,R2
   \   000057   8B..         MOV     ?V0 + 7,R3
   2702            if ( pRsp )
   \   000059   EA           MOV     A,R2
   \   00005A   7001         JNZ     ??ZDO_ParseMgmNwkDiscRsp_1
   \   00005C   EB           MOV     A,R3
   \                     ??ZDO_ParseMgmNwkDiscRsp_1:
   \   00005D   7003         JNZ     $+5
   \   00005F   02....       LJMP    ??ZDO_ParseMgmNwkDiscRsp_2 & 0xFFFF
   2703            {
   2704              uint8 x;
   2705              mgmtNwkDiscItem_t *pList;
   2706          
   2707              pRsp->status = status;
   \   000062   8A82         MOV     DPL,R2
   \   000064   8B83         MOV     DPH,R3
   \   000066   E5..         MOV     A,?V0 + 3
   \   000068   F0           MOVX    @DPTR,A
   2708              pRsp->networkCount = networkCount;
   \   000069   A3           INC     DPTR
   \   00006A   E5..         MOV     A,?V0 + 1
   \   00006C   F0           MOVX    @DPTR,A
   2709              pRsp->startIndex = startIndex;
   \   00006D   8A82         MOV     DPL,R2
   \   00006F   8B83         MOV     DPH,R3
   \   000071   A3           INC     DPTR
   \   000072   A3           INC     DPTR
   \   000073   E5..         MOV     A,?V0 + 0
   \   000075   F0           MOVX    @DPTR,A
   2710              pRsp->networkListCount = networkListCount;
   \   000076   8A82         MOV     DPL,R2
   \   000078   8B83         MOV     DPH,R3
   \   00007A   A3           INC     DPTR
   \   00007B   A3           INC     DPTR
   \   00007C   A3           INC     DPTR
   \   00007D   E5..         MOV     A,?V0 + 2
   \   00007F   F0           MOVX    @DPTR,A
   2711              pList = pRsp->list;
   \   000080   EA           MOV     A,R2
   \   000081   2404         ADD     A,#0x4
   \   000083   F5..         MOV     ?V0 + 0,A
   \   000085   EB           MOV     A,R3
   \   000086   3400         ADDC    A,#0x0
   \   000088   F5..         MOV     ?V0 + 1,A
   2712          
   2713              for ( x = 0; x < networkListCount; x++ )
   \   00008A   75..00       MOV     ?V0 + 3,#0x0
   \   00008D   02....       LJMP    ??ZDO_ParseMgmNwkDiscRsp_3 & 0xFFFF
   2714              {
   2715                osal_cpyExtAddr(pList->extendedPANID, msg);   //Copy extended PAN ID
   \                     ??ZDO_ParseMgmNwkDiscRsp_4:
   \   000090                ; Setup parameters for call to function sAddrExtCpy
   \   000090   EE           MOV     A,R6
   \   000091   FC           MOV     R4,A
   \   000092   EF           MOV     A,R7
   \   000093   FD           MOV     R5,A
   \   000094   AA..         MOV     R2,?V0 + 0
   \   000096   AB..         MOV     R3,?V0 + 1
   \   000098   12....       LCALL   ??sAddrExtCpy?relay
   2716                pList->PANId = BUILD_UINT16( msg[0], msg[1] );
   \   00009B   8E82         MOV     DPL,R6
   \   00009D   8F83         MOV     DPH,R7
   \   00009F   E0           MOVX    A,@DPTR
   \   0000A0   FA           MOV     R2,A
   \   0000A1   A3           INC     DPTR
   \   0000A2   E0           MOVX    A,@DPTR
   \   0000A3   F9           MOV     R1,A
   \   0000A4   EA           MOV     A,R2
   \   0000A5   85..82       MOV     DPL,?V0 + 0
   \   0000A8   85..83       MOV     DPH,?V0 + 1
   \   0000AB   A3           INC     DPTR
   \   0000AC   A3           INC     DPTR
   \   0000AD   A3           INC     DPTR
   \   0000AE   A3           INC     DPTR
   \   0000AF   A3           INC     DPTR
   \   0000B0   A3           INC     DPTR
   \   0000B1   A3           INC     DPTR
   \   0000B2   A3           INC     DPTR
   \   0000B3   F0           MOVX    @DPTR,A
   \   0000B4   A3           INC     DPTR
   \   0000B5   E9           MOV     A,R1
   \   0000B6   F0           MOVX    @DPTR,A
   2717                msg += Z_EXTADDR_LEN;
   \   0000B7   EE           MOV     A,R6
   \   0000B8   2408         ADD     A,#0x8
   \   0000BA   FE           MOV     R6,A
   \   0000BB   EF           MOV     A,R7
   \   0000BC   3400         ADDC    A,#0x0
   \   0000BE   FF           MOV     R7,A
   2718          
   2719                pList->logicalChannel = *msg++;
   \   0000BF   8E82         MOV     DPL,R6
   \   0000C1   8F83         MOV     DPH,R7
   \   0000C3   E0           MOVX    A,@DPTR
   \   0000C4   85..82       MOV     DPL,?V0 + 0
   \   0000C7   85..83       MOV     DPH,?V0 + 1
   \   0000CA   A3           INC     DPTR
   \   0000CB   A3           INC     DPTR
   \   0000CC   A3           INC     DPTR
   \   0000CD   A3           INC     DPTR
   \   0000CE   A3           INC     DPTR
   \   0000CF   A3           INC     DPTR
   \   0000D0   A3           INC     DPTR
   \   0000D1   A3           INC     DPTR
   \   0000D2   A3           INC     DPTR
   \   0000D3   A3           INC     DPTR
   \   0000D4   F0           MOVX    @DPTR,A
   \   0000D5   8E82         MOV     DPL,R6
   \   0000D7   8F83         MOV     DPH,R7
   \   0000D9   A3           INC     DPTR
   \   0000DA   AE82         MOV     R6,DPL
   \   0000DC   AF83         MOV     R7,DPH
   2720                pList->stackProfile = (*msg) & 0x0F;
   \   0000DE   E0           MOVX    A,@DPTR
   \   0000DF   540F         ANL     A,#0xf
   \   0000E1   C0E0         PUSH    A
   \   0000E3   E5..         MOV     A,?V0 + 0
   \   0000E5   240B         ADD     A,#0xb
   \   0000E7   F582         MOV     DPL,A
   \   0000E9   E5..         MOV     A,?V0 + 1
   \   0000EB   3400         ADDC    A,#0x0
   \   0000ED   F583         MOV     DPH,A
   \   0000EF   D0E0         POP     A
   \   0000F1   F0           MOVX    @DPTR,A
   2721                pList->version = (*msg++ >> 4) & 0x0F;
   \   0000F2   8E82         MOV     DPL,R6
   \   0000F4   8F83         MOV     DPH,R7
   \   0000F6   E0           MOVX    A,@DPTR
   \   0000F7   C4           SWAP    A
   \   0000F8   540F         ANL     A,#0xf
   \   0000FA   C0E0         PUSH    A
   \   0000FC   E5..         MOV     A,?V0 + 0
   \   0000FE   240C         ADD     A,#0xc
   \   000100   F582         MOV     DPL,A
   \   000102   E5..         MOV     A,?V0 + 1
   \   000104   3400         ADDC    A,#0x0
   \   000106   F583         MOV     DPH,A
   \   000108   D0E0         POP     A
   \   00010A   F0           MOVX    @DPTR,A
   \   00010B   8E82         MOV     DPL,R6
   \   00010D   8F83         MOV     DPH,R7
   \   00010F   A3           INC     DPTR
   \   000110   0E           INC     R6
   \   000111   AF83         MOV     R7,DPH
   2722                pList->beaconOrder = (*msg) & 0x0F;
   \   000113   E0           MOVX    A,@DPTR
   \   000114   540F         ANL     A,#0xf
   \   000116   C0E0         PUSH    A
   \   000118   E5..         MOV     A,?V0 + 0
   \   00011A   240D         ADD     A,#0xd
   \   00011C   F582         MOV     DPL,A
   \   00011E   E5..         MOV     A,?V0 + 1
   \   000120   3400         ADDC    A,#0x0
   \   000122   F583         MOV     DPH,A
   \   000124   D0E0         POP     A
   \   000126   F0           MOVX    @DPTR,A
   2723                pList->superFrameOrder = (*msg++ >> 4) & 0x0F;
   \   000127   8E82         MOV     DPL,R6
   \   000129   8F83         MOV     DPH,R7
   \   00012B   E0           MOVX    A,@DPTR
   \   00012C   C4           SWAP    A
   \   00012D   540F         ANL     A,#0xf
   \   00012F   C0E0         PUSH    A
   \   000131   E5..         MOV     A,?V0 + 0
   \   000133   240E         ADD     A,#0xe
   \   000135   F582         MOV     DPL,A
   \   000137   E5..         MOV     A,?V0 + 1
   \   000139   3400         ADDC    A,#0x0
   \   00013B   F583         MOV     DPH,A
   \   00013D   D0E0         POP     A
   \   00013F   F0           MOVX    @DPTR,A
   \   000140   8E82         MOV     DPL,R6
   \   000142   8F83         MOV     DPH,R7
   \   000144   A3           INC     DPTR
   \   000145   0E           INC     R6
   \   000146   AF83         MOV     R7,DPH
   2724                pList->permitJoining = *msg++;
   \   000148   E0           MOVX    A,@DPTR
   \   000149   C0E0         PUSH    A
   \   00014B   E5..         MOV     A,?V0 + 0
   \   00014D   240F         ADD     A,#0xf
   \   00014F   F582         MOV     DPL,A
   \   000151   E5..         MOV     A,?V0 + 1
   \   000153   3400         ADDC    A,#0x0
   \   000155   F583         MOV     DPH,A
   \   000157   D0E0         POP     A
   \   000159   F0           MOVX    @DPTR,A
   \   00015A   8E82         MOV     DPL,R6
   \   00015C   8F83         MOV     DPH,R7
   \   00015E   A3           INC     DPTR
   \   00015F   0E           INC     R6
   \   000160   AF83         MOV     R7,DPH
   2725                pList++;
   \   000162   E5..         MOV     A,?V0 + 0
   \   000164   2410         ADD     A,#0x10
   \   000166   F5..         MOV     ?V0 + 0,A
   \   000168   E5..         MOV     A,?V0 + 1
   \   00016A   3400         ADDC    A,#0x0
   \   00016C   F5..         MOV     ?V0 + 1,A
   2726              }
   \   00016E   05..         INC     ?V0 + 3
   \                     ??ZDO_ParseMgmNwkDiscRsp_3:
   \   000170   E5..         MOV     A,?V0 + 3
   \   000172   C3           CLR     C
   \   000173   95..         SUBB    A,?V0 + 2
   \   000175   5003         JNC     $+5
   \   000177   02....       LJMP    ??ZDO_ParseMgmNwkDiscRsp_4 & 0xFFFF
   2727            }
   2728          
   2729            return ( pRsp );
   \                     ??ZDO_ParseMgmNwkDiscRsp_2:
   \   00017A   AA..         MOV     R2,?V0 + 6
   \   00017C   AB..         MOV     R3,?V0 + 7
   \   00017E   7F08         MOV     R7,#0x8
   \   000180   02....       LJMP    ?BANKED_LEAVE_XDATA
   2730          }
   2731          
   2732          /*********************************************************************
   2733           * @fn          ZDO_ParseMgmtRtgRsp
   2734           *
   2735           * @brief       This function parses the incoming Management
   2736           *              Routing response.
   2737           *
   2738           * @param       inMsg - incoming message
   2739           *
   2740           * @return      a pointer to parsed response structure (NULL if not allocated).
   2741           *          This structure was allocated using osal_mem_alloc, so it must be freed
   2742           *          by the calling function [osal_mem_free()].
   2743           */

   \                                 In  segment BANKED_CODE, align 1, keep-with-next
   2744          ZDO_MgmtRtgRsp_t *ZDO_ParseMgmtRtgRsp( zdoIncomingMsg_t *inMsg )
   \                     ZDO_ParseMgmtRtgRsp:
   2745          {
   \   000000   74F2         MOV     A,#-0xe
   \   000002   12....       LCALL   ?BANKED_ENTER_XDATA
   \   000005                ; Saved register size: 14
   \   000005                ; Auto size: 0
   2746            ZDO_MgmtRtgRsp_t *pRsp;
   2747            uint8 status;
   2748            uint8 rtgCount = 0;
   \   000005   75..00       MOV     ?V0 + 3,#0x0
   2749            uint8 startIndex = 0;
   \   000008   75..00       MOV     ?V0 + 4,#0x0
   2750            uint8 rtgListCount = 0;
   \   00000B   75..00       MOV     ?V0 + 5,#0x0
   2751            uint8 *msg;
   2752          
   2753            msg = inMsg->asdu;
   \   00000E   EA           MOV     A,R2
   \   00000F   2413         ADD     A,#0x13
   \   000011   F582         MOV     DPL,A
   \   000013   EB           MOV     A,R3
   \   000014   3400         ADDC    A,#0x0
   \   000016   F583         MOV     DPH,A
   \   000018   E0           MOVX    A,@DPTR
   \   000019   FE           MOV     R6,A
   \   00001A   A3           INC     DPTR
   \   00001B   E0           MOVX    A,@DPTR
   \   00001C   FF           MOV     R7,A
   2754          
   2755            status = *msg++;
   \   00001D   8E82         MOV     DPL,R6
   \   00001F   8F83         MOV     DPH,R7
   \   000021   E0           MOVX    A,@DPTR
   \   000022   F5..         MOV     ?V0 + 2,A
   \   000024   A3           INC     DPTR
   \   000025   AE82         MOV     R6,DPL
   \   000027   AF83         MOV     R7,DPH
   2756            if ( status == ZSuccess )
   \   000029   7011         JNZ     ??ZDO_ParseMgmtRtgRsp_0
   2757            {
   2758              rtgCount = *msg++;
   \   00002B   E0           MOVX    A,@DPTR
   \   00002C   F5..         MOV     ?V0 + 3,A
   \   00002E   A3           INC     DPTR
   2759              startIndex = *msg++;
   \   00002F   E0           MOVX    A,@DPTR
   \   000030   F5..         MOV     ?V0 + 4,A
   \   000032   A3           INC     DPTR
   2760              rtgListCount = *msg++;
   \   000033   E0           MOVX    A,@DPTR
   \   000034   F5..         MOV     ?V0 + 5,A
   \   000036   A3           INC     DPTR
   \   000037   0E           INC     R6
   \   000038   0E           INC     R6
   \   000039   0E           INC     R6
   \   00003A   AF83         MOV     R7,DPH
   2761            }
   2762          
   2763            // Allocate a buffer big enough to handle the list
   2764            pRsp = (ZDO_MgmtRtgRsp_t *)osal_mem_alloc(
   2765                    sizeof( ZDO_MgmtRtgRsp_t ) + (rtgListCount * sizeof( rtgItem_t )) );
   \                     ??ZDO_ParseMgmtRtgRsp_0:
   \   00003C                ; Setup parameters for call to function osal_mem_alloc
   \   00003C   E5..         MOV     A,?V0 + 5
   \   00003E   75F006       MOV     B,#0x6
   \   000041   A4           MUL     AB
   \   000042   F8           MOV     R0,A
   \   000043   A9F0         MOV     R1,B
   \   000045   7404         MOV     A,#0x4
   \   000047   28           ADD     A,R0
   \   000048   FA           MOV     R2,A
   \   000049   E4           CLR     A
   \   00004A   39           ADDC    A,R1
   \   00004B   FB           MOV     R3,A
   \   00004C   12....       LCALL   ??osal_mem_alloc?relay
   2766            if ( pRsp )
   \   00004F   EA           MOV     A,R2
   \   000050   7001         JNZ     ??ZDO_ParseMgmtRtgRsp_1
   \   000052   EB           MOV     A,R3
   \                     ??ZDO_ParseMgmtRtgRsp_1:
   \   000053   7003         JNZ     $+5
   \   000055   02....       LJMP    ??ZDO_ParseMgmtRtgRsp_2 & 0xFFFF
   2767            {
   2768              uint8 x;
   2769              rtgItem_t *pList = pRsp->list;
   \   000058   EA           MOV     A,R2
   \   000059   2404         ADD     A,#0x4
   \   00005B   F8           MOV     R0,A
   \   00005C   EB           MOV     A,R3
   \   00005D   3400         ADDC    A,#0x0
   \   00005F   F9           MOV     R1,A
   2770              pRsp->status = status;
   \   000060   8A82         MOV     DPL,R2
   \   000062   8B83         MOV     DPH,R3
   \   000064   E5..         MOV     A,?V0 + 2
   \   000066   F0           MOVX    @DPTR,A
   2771              pRsp->rtgCount = rtgCount;
   \   000067   A3           INC     DPTR
   \   000068   E5..         MOV     A,?V0 + 3
   \   00006A   F0           MOVX    @DPTR,A
   2772              pRsp->startIndex = startIndex;
   \   00006B   8A82         MOV     DPL,R2
   \   00006D   8B83         MOV     DPH,R3
   \   00006F   A3           INC     DPTR
   \   000070   A3           INC     DPTR
   \   000071   E5..         MOV     A,?V0 + 4
   \   000073   F0           MOVX    @DPTR,A
   2773              pRsp->rtgListCount = rtgListCount;
   \   000074   8A82         MOV     DPL,R2
   \   000076   8B83         MOV     DPH,R3
   \   000078   A3           INC     DPTR
   \   000079   A3           INC     DPTR
   \   00007A   A3           INC     DPTR
   \   00007B   E5..         MOV     A,?V0 + 5
   \   00007D   F0           MOVX    @DPTR,A
   2774          
   2775              for ( x = 0; x < rtgListCount; x++ )
   \   00007E   75..00       MOV     ?V0 + 0,#0x0
   \   000081   805A         SJMP    ??ZDO_ParseMgmtRtgRsp_3
   2776              {
   2777                pList->dstAddress = BUILD_UINT16( msg[0], msg[1] );
   \                     ??ZDO_ParseMgmtRtgRsp_4:
   \   000083   8E82         MOV     DPL,R6
   \   000085   8F83         MOV     DPH,R7
   \   000087   E0           MOVX    A,@DPTR
   \   000088   F5..         MOV     ?V0 + 2,A
   \   00008A   A3           INC     DPTR
   \   00008B   E0           MOVX    A,@DPTR
   \   00008C   FD           MOV     R5,A
   \   00008D   E5..         MOV     A,?V0 + 2
   \   00008F   8882         MOV     DPL,R0
   \   000091   8983         MOV     DPH,R1
   \   000093   F0           MOVX    @DPTR,A
   \   000094   A3           INC     DPTR
   \   000095   ED           MOV     A,R5
   \   000096   F0           MOVX    @DPTR,A
   2778                msg += 2;
   \   000097   EE           MOV     A,R6
   \   000098   2402         ADD     A,#0x2
   \   00009A   0E           INC     R6
   \   00009B   0E           INC     R6
   \   00009C   EF           MOV     A,R7
   \   00009D   3400         ADDC    A,#0x0
   \   00009F   FF           MOV     R7,A
   2779                pList->status = *msg++;
   \   0000A0   8E82         MOV     DPL,R6
   \   0000A2   8F83         MOV     DPH,R7
   \   0000A4   E0           MOVX    A,@DPTR
   \   0000A5   8882         MOV     DPL,R0
   \   0000A7   8983         MOV     DPH,R1
   \   0000A9   A3           INC     DPTR
   \   0000AA   A3           INC     DPTR
   \   0000AB   A3           INC     DPTR
   \   0000AC   A3           INC     DPTR
   \   0000AD   A3           INC     DPTR
   \   0000AE   F0           MOVX    @DPTR,A
   \   0000AF   8E82         MOV     DPL,R6
   \   0000B1   8F83         MOV     DPH,R7
   \   0000B3   A3           INC     DPTR
   \   0000B4   AE82         MOV     R6,DPL
   \   0000B6   AF83         MOV     R7,DPH
   2780                pList->nextHopAddress = BUILD_UINT16( msg[0], msg[1] );
   \   0000B8   E0           MOVX    A,@DPTR
   \   0000B9   F5..         MOV     ?V0 + 2,A
   \   0000BB   A3           INC     DPTR
   \   0000BC   E0           MOVX    A,@DPTR
   \   0000BD   FD           MOV     R5,A
   \   0000BE   E5..         MOV     A,?V0 + 2
   \   0000C0   8882         MOV     DPL,R0
   \   0000C2   8983         MOV     DPH,R1
   \   0000C4   A3           INC     DPTR
   \   0000C5   A3           INC     DPTR
   \   0000C6   F0           MOVX    @DPTR,A
   \   0000C7   A3           INC     DPTR
   \   0000C8   ED           MOV     A,R5
   \   0000C9   F0           MOVX    @DPTR,A
   2781                msg += 2;
   \   0000CA   EE           MOV     A,R6
   \   0000CB   2402         ADD     A,#0x2
   \   0000CD   0E           INC     R6
   \   0000CE   0E           INC     R6
   \   0000CF   EF           MOV     A,R7
   \   0000D0   3400         ADDC    A,#0x0
   \   0000D2   FF           MOV     R7,A
   2782                pList++;
   \   0000D3   E8           MOV     A,R0
   \   0000D4   2406         ADD     A,#0x6
   \   0000D6   F8           MOV     R0,A
   \   0000D7   E9           MOV     A,R1
   \   0000D8   3400         ADDC    A,#0x0
   \   0000DA   F9           MOV     R1,A
   2783              }
   \   0000DB   05..         INC     ?V0 + 0
   \                     ??ZDO_ParseMgmtRtgRsp_3:
   \   0000DD   E5..         MOV     A,?V0 + 0
   \   0000DF   C3           CLR     C
   \   0000E0   95..         SUBB    A,?V0 + 5
   \   0000E2   409F         JC      ??ZDO_ParseMgmtRtgRsp_4
   2784            }
   2785          
   2786            return ( pRsp );
   \                     ??ZDO_ParseMgmtRtgRsp_2:
   \   0000E4   7F06         MOV     R7,#0x6
   \   0000E6   02....       LJMP    ?BANKED_LEAVE_XDATA
   2787          }
   2788          
   2789          /*********************************************************************
   2790           * @fn          ZDO_ParseMgmtBindRsp
   2791           *
   2792           * @brief       This function parses the incoming Management
   2793           *              Binding response.
   2794           *
   2795           * @param       inMsg - pointer to message to parse
   2796           *
   2797           * @return      a pointer to parsed response structure (NULL if not allocated).
   2798           *          This structure was allocated using osal_mem_alloc, so it must be freed
   2799           *          by the calling function [osal_mem_free()].
   2800           */

   \                                 In  segment BANKED_CODE, align 1, keep-with-next
   2801          ZDO_MgmtBindRsp_t *ZDO_ParseMgmtBindRsp( zdoIncomingMsg_t *inMsg )
   \                     ZDO_ParseMgmtBindRsp:
   2802          {
   \   000000   74F0         MOV     A,#-0x10
   \   000002   12....       LCALL   ?BANKED_ENTER_XDATA
   \   000005                ; Saved register size: 16
   \   000005                ; Auto size: 0
   2803            ZDO_MgmtBindRsp_t *pRsp;
   2804            uint8 status;
   2805            uint8 bindingCount = 0;
   \   000005   75..00       MOV     ?V0 + 4,#0x0
   2806            uint8 startIndex = 0;
   \   000008   75..00       MOV     ?V0 + 1,#0x0
   2807            uint8 bindingListCount = 0;
   \   00000B   75..00       MOV     ?V0 + 0,#0x0
   2808            uint8 *msg;
   2809          
   2810            msg = inMsg->asdu;
   \   00000E   EA           MOV     A,R2
   \   00000F   2413         ADD     A,#0x13
   \   000011   F582         MOV     DPL,A
   \   000013   EB           MOV     A,R3
   \   000014   3400         ADDC    A,#0x0
   \   000016   F583         MOV     DPH,A
   \   000018   E0           MOVX    A,@DPTR
   \   000019   FE           MOV     R6,A
   \   00001A   A3           INC     DPTR
   \   00001B   E0           MOVX    A,@DPTR
   \   00001C   FF           MOV     R7,A
   2811          
   2812            status = *msg++;
   \   00001D   8E82         MOV     DPL,R6
   \   00001F   8F83         MOV     DPH,R7
   \   000021   E0           MOVX    A,@DPTR
   \   000022   F5..         MOV     ?V0 + 5,A
   \   000024   A3           INC     DPTR
   \   000025   AE82         MOV     R6,DPL
   \   000027   AF83         MOV     R7,DPH
   2813            if ( status == ZSuccess )
   \   000029   7011         JNZ     ??ZDO_ParseMgmtBindRsp_0
   2814            {
   2815              bindingCount = *msg++;
   \   00002B   E0           MOVX    A,@DPTR
   \   00002C   F5..         MOV     ?V0 + 4,A
   \   00002E   A3           INC     DPTR
   2816              startIndex = *msg++;
   \   00002F   E0           MOVX    A,@DPTR
   \   000030   F5..         MOV     ?V0 + 1,A
   \   000032   A3           INC     DPTR
   2817              bindingListCount = *msg++;
   \   000033   E0           MOVX    A,@DPTR
   \   000034   F5..         MOV     ?V0 + 0,A
   \   000036   A3           INC     DPTR
   \   000037   0E           INC     R6
   \   000038   0E           INC     R6
   \   000039   0E           INC     R6
   \   00003A   AF83         MOV     R7,DPH
   2818            }
   2819          
   2820            // Allocate a buffer big enough to handle the list
   2821            pRsp = (ZDO_MgmtBindRsp_t *)osal_mem_alloc(
   2822                    (sizeof ( ZDO_MgmtBindRsp_t ) + (bindingListCount * sizeof( apsBindingItem_t ))) );
   \                     ??ZDO_ParseMgmtBindRsp_0:
   \   00003C                ; Setup parameters for call to function osal_mem_alloc
   \   00003C   E5..         MOV     A,?V0 + 0
   \   00003E   75F015       MOV     B,#0x15
   \   000041   A4           MUL     AB
   \   000042   F8           MOV     R0,A
   \   000043   A9F0         MOV     R1,B
   \   000045   7404         MOV     A,#0x4
   \   000047   28           ADD     A,R0
   \   000048   FA           MOV     R2,A
   \   000049   E4           CLR     A
   \   00004A   39           ADDC    A,R1
   \   00004B   FB           MOV     R3,A
   \   00004C   12....       LCALL   ??osal_mem_alloc?relay
   \   00004F   8A..         MOV     ?V0 + 6,R2
   \   000051   8B..         MOV     ?V0 + 7,R3
   2823            if ( pRsp )
   \   000053   EA           MOV     A,R2
   \   000054   7001         JNZ     ??ZDO_ParseMgmtBindRsp_1
   \   000056   EB           MOV     A,R3
   \                     ??ZDO_ParseMgmtBindRsp_1:
   \   000057   7003         JNZ     $+5
   \   000059   02....       LJMP    ??ZDO_ParseMgmtBindRsp_2 & 0xFFFF
   2824            {
   2825              uint8 x;
   2826              apsBindingItem_t *pList = pRsp->list;
   \   00005C   EA           MOV     A,R2
   \   00005D   2404         ADD     A,#0x4
   \   00005F   F5..         MOV     ?V0 + 2,A
   \   000061   EB           MOV     A,R3
   \   000062   3400         ADDC    A,#0x0
   \   000064   F5..         MOV     ?V0 + 3,A
   2827              pRsp->status = status;
   \   000066   8A82         MOV     DPL,R2
   \   000068   8B83         MOV     DPH,R3
   \   00006A   E5..         MOV     A,?V0 + 5
   \   00006C   F0           MOVX    @DPTR,A
   2828              pRsp->bindingCount = bindingCount;
   \   00006D   A3           INC     DPTR
   \   00006E   E5..         MOV     A,?V0 + 4
   \   000070   F0           MOVX    @DPTR,A
   2829              pRsp->startIndex = startIndex;
   \   000071   8A82         MOV     DPL,R2
   \   000073   8B83         MOV     DPH,R3
   \   000075   A3           INC     DPTR
   \   000076   A3           INC     DPTR
   \   000077   E5..         MOV     A,?V0 + 1
   \   000079   F0           MOVX    @DPTR,A
   2830              pRsp->bindingListCount = bindingListCount;
   \   00007A   8A82         MOV     DPL,R2
   \   00007C   8B83         MOV     DPH,R3
   \   00007E   A3           INC     DPTR
   \   00007F   A3           INC     DPTR
   \   000080   A3           INC     DPTR
   \   000081   E5..         MOV     A,?V0 + 0
   \   000083   F0           MOVX    @DPTR,A
   2831          
   2832              for ( x = 0; x < bindingListCount; x++ )
   \   000084   75..00       MOV     ?V0 + 1,#0x0
   \   000087   8029         SJMP    ??ZDO_ParseMgmtBindRsp_3
   2833              {
   2834                osal_cpyExtAddr( pList->srcAddr, msg );
   2835                msg += Z_EXTADDR_LEN;
   2836                pList->srcEP = *msg++;
   2837          
   2838                // Get the Cluster ID
   2839          
   2840                pList->clusterID = BUILD_UINT16( msg[0], msg[1] );
   2841                msg += 2;
   2842                pList->dstAddr.addrMode = *msg++;
   2843                if ( pList->dstAddr.addrMode == Addr64Bit )
   2844                {
   2845                  osal_cpyExtAddr( pList->dstAddr.addr.extAddr, msg );
   2846                  msg += Z_EXTADDR_LEN;
   2847                  pList->dstEP = *msg++;
   2848                }
   2849                else
   2850                {
   2851                  pList->dstAddr.addr.shortAddr = BUILD_UINT16( msg[0], msg[1] );
   \                     ??ZDO_ParseMgmtBindRsp_4:
   \   000089   8E82         MOV     DPL,R6
   \   00008B   8F83         MOV     DPH,R7
   \   00008D   E0           MOVX    A,@DPTR
   \   00008E   FC           MOV     R4,A
   \   00008F   A3           INC     DPTR
   \   000090   E0           MOVX    A,@DPTR
   \   000091   F9           MOV     R1,A
   \   000092   EC           MOV     A,R4
   \   000093   8A82         MOV     DPL,R2
   \   000095   8B83         MOV     DPH,R3
   \   000097   F0           MOVX    @DPTR,A
   \   000098   A3           INC     DPTR
   \   000099   E9           MOV     A,R1
   \   00009A   F0           MOVX    @DPTR,A
   2852                  msg += 2;
   \   00009B   EE           MOV     A,R6
   \   00009C   2402         ADD     A,#0x2
   \   00009E   0E           INC     R6
   \   00009F   0E           INC     R6
   \   0000A0   EF           MOV     A,R7
   \   0000A1   3400         ADDC    A,#0x0
   \   0000A3   FF           MOV     R7,A
   2853                }
   2854          
   2855                pList++;
   \                     ??ZDO_ParseMgmtBindRsp_5:
   \   0000A4   E5..         MOV     A,?V0 + 2
   \   0000A6   2415         ADD     A,#0x15
   \   0000A8   F5..         MOV     ?V0 + 2,A
   \   0000AA   E5..         MOV     A,?V0 + 3
   \   0000AC   3400         ADDC    A,#0x0
   \   0000AE   F5..         MOV     ?V0 + 3,A
   \   0000B0   05..         INC     ?V0 + 1
   \                     ??ZDO_ParseMgmtBindRsp_3:
   \   0000B2   E5..         MOV     A,?V0 + 1
   \   0000B4   C3           CLR     C
   \   0000B5   95..         SUBB    A,?V0 + 0
   \   0000B7   4003         JC      $+5
   \   0000B9   02....       LJMP    ??ZDO_ParseMgmtBindRsp_2 & 0xFFFF
   \   0000BC                ; Setup parameters for call to function sAddrExtCpy
   \   0000BC   EE           MOV     A,R6
   \   0000BD   FC           MOV     R4,A
   \   0000BE   EF           MOV     A,R7
   \   0000BF   FD           MOV     R5,A
   \   0000C0   AA..         MOV     R2,?V0 + 2
   \   0000C2   AB..         MOV     R3,?V0 + 3
   \   0000C4   12....       LCALL   ??sAddrExtCpy?relay
   \   0000C7   EE           MOV     A,R6
   \   0000C8   2408         ADD     A,#0x8
   \   0000CA   FE           MOV     R6,A
   \   0000CB   EF           MOV     A,R7
   \   0000CC   3400         ADDC    A,#0x0
   \   0000CE   FF           MOV     R7,A
   \   0000CF   8E82         MOV     DPL,R6
   \   0000D1   8F83         MOV     DPH,R7
   \   0000D3   E0           MOVX    A,@DPTR
   \   0000D4   85..82       MOV     DPL,?V0 + 2
   \   0000D7   85..83       MOV     DPH,?V0 + 3
   \   0000DA   A3           INC     DPTR
   \   0000DB   A3           INC     DPTR
   \   0000DC   A3           INC     DPTR
   \   0000DD   A3           INC     DPTR
   \   0000DE   A3           INC     DPTR
   \   0000DF   A3           INC     DPTR
   \   0000E0   A3           INC     DPTR
   \   0000E1   A3           INC     DPTR
   \   0000E2   F0           MOVX    @DPTR,A
   \   0000E3   8E82         MOV     DPL,R6
   \   0000E5   8F83         MOV     DPH,R7
   \   0000E7   A3           INC     DPTR
   \   0000E8   AE82         MOV     R6,DPL
   \   0000EA   AF83         MOV     R7,DPH
   \   0000EC   E0           MOVX    A,@DPTR
   \   0000ED   FA           MOV     R2,A
   \   0000EE   A3           INC     DPTR
   \   0000EF   E0           MOVX    A,@DPTR
   \   0000F0   F9           MOV     R1,A
   \   0000F1   EA           MOV     A,R2
   \   0000F2   85..82       MOV     DPL,?V0 + 2
   \   0000F5   85..83       MOV     DPH,?V0 + 3
   \   0000F8   A3           INC     DPTR
   \   0000F9   A3           INC     DPTR
   \   0000FA   A3           INC     DPTR
   \   0000FB   A3           INC     DPTR
   \   0000FC   A3           INC     DPTR
   \   0000FD   A3           INC     DPTR
   \   0000FE   A3           INC     DPTR
   \   0000FF   A3           INC     DPTR
   \   000100   A3           INC     DPTR
   \   000101   F0           MOVX    @DPTR,A
   \   000102   A3           INC     DPTR
   \   000103   E9           MOV     A,R1
   \   000104   F0           MOVX    @DPTR,A
   \   000105   EE           MOV     A,R6
   \   000106   2402         ADD     A,#0x2
   \   000108   0E           INC     R6
   \   000109   0E           INC     R6
   \   00010A   EF           MOV     A,R7
   \   00010B   3400         ADDC    A,#0x0
   \   00010D   FF           MOV     R7,A
   \   00010E   E5..         MOV     A,?V0 + 2
   \   000110   2413         ADD     A,#0x13
   \   000112   F8           MOV     R0,A
   \   000113   E5..         MOV     A,?V0 + 3
   \   000115   3400         ADDC    A,#0x0
   \   000117   F9           MOV     R1,A
   \   000118   8E82         MOV     DPL,R6
   \   00011A   8F83         MOV     DPH,R7
   \   00011C   E0           MOVX    A,@DPTR
   \   00011D   8882         MOV     DPL,R0
   \   00011F   8983         MOV     DPH,R1
   \   000121   F0           MOVX    @DPTR,A
   \   000122   8E82         MOV     DPL,R6
   \   000124   8F83         MOV     DPH,R7
   \   000126   A3           INC     DPTR
   \   000127   0E           INC     R6
   \   000128   AF83         MOV     R7,DPH
   \   00012A   E5..         MOV     A,?V0 + 2
   \   00012C   240B         ADD     A,#0xb
   \   00012E   FA           MOV     R2,A
   \   00012F   E5..         MOV     A,?V0 + 3
   \   000131   3400         ADDC    A,#0x0
   \   000133   FB           MOV     R3,A
   \   000134   8882         MOV     DPL,R0
   \   000136   8983         MOV     DPH,R1
   \   000138   E0           MOVX    A,@DPTR
   \   000139   6403         XRL     A,#0x3
   \   00013B   6003         JZ      $+5
   \   00013D   02....       LJMP    ??ZDO_ParseMgmtBindRsp_4 & 0xFFFF
   \   000140                ; Setup parameters for call to function sAddrExtCpy
   \   000140   EE           MOV     A,R6
   \   000141   FC           MOV     R4,A
   \   000142   EF           MOV     A,R7
   \   000143   FD           MOV     R5,A
   \   000144   12....       LCALL   ??sAddrExtCpy?relay
   \   000147   EE           MOV     A,R6
   \   000148   2408         ADD     A,#0x8
   \   00014A   FE           MOV     R6,A
   \   00014B   EF           MOV     A,R7
   \   00014C   3400         ADDC    A,#0x0
   \   00014E   FF           MOV     R7,A
   \   00014F   8E82         MOV     DPL,R6
   \   000151   8F83         MOV     DPH,R7
   \   000153   E0           MOVX    A,@DPTR
   \   000154   C0E0         PUSH    A
   \   000156   E5..         MOV     A,?V0 + 2
   \   000158   2414         ADD     A,#0x14
   \   00015A   F582         MOV     DPL,A
   \   00015C   E5..         MOV     A,?V0 + 3
   \   00015E   3400         ADDC    A,#0x0
   \   000160   F583         MOV     DPH,A
   \   000162   D0E0         POP     A
   \   000164   F0           MOVX    @DPTR,A
   \   000165   8E82         MOV     DPL,R6
   \   000167   8F83         MOV     DPH,R7
   \   000169   A3           INC     DPTR
   \   00016A   0E           INC     R6
   \   00016B   AF83         MOV     R7,DPH
   \   00016D   02....       LJMP    ??ZDO_ParseMgmtBindRsp_5 & 0xFFFF
   2856              }
   2857            }
   2858          
   2859            return ( pRsp );
   \                     ??ZDO_ParseMgmtBindRsp_2:
   \   000170   AA..         MOV     R2,?V0 + 6
   \   000172   AB..         MOV     R3,?V0 + 7
   \   000174   7F08         MOV     R7,#0x8
   \   000176   02....       LJMP    ?BANKED_LEAVE_XDATA
   2860          }
   2861          
   2862          /*********************************************************************
   2863           * @fn          ZDO_ParseUserDescRsp
   2864           *
   2865           * @brief       This function parses the incoming User
   2866           *              Descriptor Response.
   2867           *
   2868           * @param       inMsg - incoming response message
   2869           *
   2870           * @return      a pointer to parsed response structure (NULL if not allocated).
   2871           *          This structure was allocated using osal_mem_alloc, so it must be freed
   2872           *          by the calling function [osal_mem_free()].
   2873           */

   \                                 In  segment BANKED_CODE, align 1, keep-with-next
   2874          ZDO_UserDescRsp_t *ZDO_ParseUserDescRsp( zdoIncomingMsg_t *inMsg )
   \                     ZDO_ParseUserDescRsp:
   2875          {
   \   000000   74F0         MOV     A,#-0x10
   \   000002   12....       LCALL   ?BANKED_ENTER_XDATA
   \   000005                ; Saved register size: 16
   \   000005                ; Auto size: 0
   2876            ZDO_UserDescRsp_t *pRsp;
   2877            uint8 *msg;
   2878            uint8 descLen = 0;
   \   000005   75..00       MOV     ?V0 + 2,#0x0
   2879          
   2880            msg = inMsg->asdu;
   \   000008   EA           MOV     A,R2
   \   000009   2413         ADD     A,#0x13
   \   00000B   F582         MOV     DPL,A
   \   00000D   EB           MOV     A,R3
   \   00000E   3400         ADDC    A,#0x0
   \   000010   F583         MOV     DPH,A
   \   000012   E0           MOVX    A,@DPTR
   \   000013   F5..         MOV     ?V0 + 0,A
   \   000015   A3           INC     DPTR
   \   000016   E0           MOVX    A,@DPTR
   \   000017   F5..         MOV     ?V0 + 1,A
   2881          
   2882            if ( msg[0] == ZSuccess )
   \   000019   85..82       MOV     DPL,?V0 + 0
   \   00001C   F583         MOV     DPH,A
   \   00001E   E0           MOVX    A,@DPTR
   \   00001F   7006         JNZ     ??ZDO_ParseUserDescRsp_0
   2883              descLen = msg[3];
   \   000021   A3           INC     DPTR
   \   000022   A3           INC     DPTR
   \   000023   A3           INC     DPTR
   \   000024   E0           MOVX    A,@DPTR
   \   000025   F5..         MOV     ?V0 + 2,A
   2884          
   2885            pRsp = (ZDO_UserDescRsp_t *)osal_mem_alloc( sizeof ( ZDO_UserDescRsp_t ) + descLen );
   \                     ??ZDO_ParseUserDescRsp_0:
   \   000027   85..82       MOV     DPL,?V0 + 2
   \   00002A   AE82         MOV     R6,DPL
   \   00002C                ; Setup parameters for call to function osal_mem_alloc
   \   00002C   7404         MOV     A,#0x4
   \   00002E   2E           ADD     A,R6
   \   00002F   FA           MOV     R2,A
   \   000030   E4           CLR     A
   \   000031   3400         ADDC    A,#0x0
   \   000033   FB           MOV     R3,A
   \   000034   12....       LCALL   ??osal_mem_alloc?relay
   \   000037   8A..         MOV     ?V0 + 6,R2
   \   000039   8B..         MOV     ?V0 + 7,R3
   2886            if ( pRsp )
   \   00003B   EA           MOV     A,R2
   \   00003C   7001         JNZ     ??ZDO_ParseUserDescRsp_1
   \   00003E   EB           MOV     A,R3
   \                     ??ZDO_ParseUserDescRsp_1:
   \   00003F   6061         JZ      ??ZDO_ParseUserDescRsp_2
   2887            {
   2888              pRsp->status = msg[0];
   \   000041   85..82       MOV     DPL,?V0 + 0
   \   000044   85..83       MOV     DPH,?V0 + 1
   \   000047   E0           MOVX    A,@DPTR
   \   000048   8A82         MOV     DPL,R2
   \   00004A   8B83         MOV     DPH,R3
   \   00004C   F0           MOVX    @DPTR,A
   2889              pRsp->nwkAddr = BUILD_UINT16( msg[1], msg[2] );
   \   00004D   85..82       MOV     DPL,?V0 + 0
   \   000050   85..83       MOV     DPH,?V0 + 1
   \   000053   A3           INC     DPTR
   \   000054   E0           MOVX    A,@DPTR
   \   000055   FA           MOV     R2,A
   \   000056   85..82       MOV     DPL,?V0 + 0
   \   000059   85..83       MOV     DPH,?V0 + 1
   \   00005C   A3           INC     DPTR
   \   00005D   A3           INC     DPTR
   \   00005E   E0           MOVX    A,@DPTR
   \   00005F   F8           MOV     R0,A
   \   000060   E4           CLR     A
   \   000061   C8           XCH     A,R0
   \   000062   F9           MOV     R1,A
   \   000063   EA           MOV     A,R2
   \   000064   85..82       MOV     DPL,?V0 + 6
   \   000067   8B83         MOV     DPH,R3
   \   000069   A3           INC     DPTR
   \   00006A   F0           MOVX    @DPTR,A
   \   00006B   A3           INC     DPTR
   \   00006C   E9           MOV     A,R1
   \   00006D   F0           MOVX    @DPTR,A
   2890              pRsp->length = descLen;
   \   00006E   85..82       MOV     DPL,?V0 + 6
   \   000071   8B83         MOV     DPH,R3
   \   000073   A3           INC     DPTR
   \   000074   A3           INC     DPTR
   \   000075   A3           INC     DPTR
   \   000076   EE           MOV     A,R6
   \   000077   F0           MOVX    @DPTR,A
   2891              if ( descLen )
   \   000078   6028         JZ      ??ZDO_ParseUserDescRsp_2
   2892                osal_memcpy( pRsp->desc, &msg[4], descLen );
   \   00007A                ; Setup parameters for call to function osal_memcpy
   \   00007A   E5..         MOV     A,?V0 + 0
   \   00007C   2404         ADD     A,#0x4
   \   00007E   F5..         MOV     ?V0 + 0,A
   \   000080   E5..         MOV     A,?V0 + 1
   \   000082   3400         ADDC    A,#0x0
   \   000084   F5..         MOV     ?V0 + 1,A
   \   000086   88..         MOV     ?V0 + 2,R0
   \   000088   78..         MOV     R0,#?V0 + 0
   \   00008A   12....       LCALL   ?PUSH_XSTACK_I_THREE
   \   00008D   EE           MOV     A,R6
   \   00008E   FC           MOV     R4,A
   \   00008F   7D00         MOV     R5,#0x0
   \   000091   E5..         MOV     A,?V0 + 6
   \   000093   2404         ADD     A,#0x4
   \   000095   FA           MOV     R2,A
   \   000096   EB           MOV     A,R3
   \   000097   3400         ADDC    A,#0x0
   \   000099   FB           MOV     R3,A
   \   00009A   12....       LCALL   ??osal_memcpy?relay
   \   00009D   7403         MOV     A,#0x3
   \   00009F   12....       LCALL   ?DEALLOC_XSTACK8
   2893            }
   2894          
   2895            return ( pRsp );
   \                     ??ZDO_ParseUserDescRsp_2:
   \   0000A2   AA..         MOV     R2,?V0 + 6
   \   0000A4   AB..         MOV     R3,?V0 + 7
   \   0000A6   7F08         MOV     R7,#0x8
   \   0000A8   02....       LJMP    ?BANKED_LEAVE_XDATA
   2896          }
   2897          
   2898          /*********************************************************************
   2899           * @fn          ZDO_ParseSimpleDescBuf
   2900           *
   2901           * @brief       Parse a byte sequence representation of a Simple Descriptor.
   2902           *
   2903           * @param       buf  - pointer to a byte array representing a Simple Desc.
   2904           * @param       desc - SimpleDescriptionFormat_t *
   2905           *
   2906           *              This routine allocates storage for the cluster IDs because
   2907           *              they are 16-bit and need to be aligned to be properly processed.
   2908           *              This routine returns non-zero if an allocation fails.
   2909           *
   2910           *              NOTE: This means that the caller or user of the input structure
   2911           *                    is responsible for freeing the memory
   2912           *
   2913           * @return      0: success
   2914           *              1: failure due to malloc failure.
   2915           */

   \                                 In  segment BANKED_CODE, align 1, keep-with-next
   2916          uint8 ZDO_ParseSimpleDescBuf( uint8 *buf, SimpleDescriptionFormat_t *desc )
   \                     ZDO_ParseSimpleDescBuf:
   2917          {
   \   000000   74F3         MOV     A,#-0xd
   \   000002   12....       LCALL   ?BANKED_ENTER_XDATA
   \   000005                ; Saved register size: 13
   \   000005                ; Auto size: 0
   \   000005   EA           MOV     A,R2
   \   000006   FE           MOV     R6,A
   \   000007   EB           MOV     A,R3
   \   000008   FF           MOV     R7,A
   \   000009   8C..         MOV     ?V0 + 0,R4
   \   00000B   8D..         MOV     ?V0 + 1,R5
   2918            uint8 num, i;
   2919          
   2920            desc->EndPoint = *buf++;
   \   00000D   8E82         MOV     DPL,R6
   \   00000F   8F83         MOV     DPH,R7
   \   000011   E0           MOVX    A,@DPTR
   \   000012   8C82         MOV     DPL,R4
   \   000014   8D83         MOV     DPH,R5
   \   000016   F0           MOVX    @DPTR,A
   \   000017   8E82         MOV     DPL,R6
   \   000019   8F83         MOV     DPH,R7
   \   00001B   A3           INC     DPTR
   \   00001C   AE82         MOV     R6,DPL
   \   00001E   AF83         MOV     R7,DPH
   2921            desc->AppProfId = BUILD_UINT16( buf[0], buf[1] );
   \   000020   E0           MOVX    A,@DPTR
   \   000021   FA           MOV     R2,A
   \   000022   A3           INC     DPTR
   \   000023   E0           MOVX    A,@DPTR
   \   000024   F9           MOV     R1,A
   \   000025   EA           MOV     A,R2
   \   000026   8C82         MOV     DPL,R4
   \   000028   8D83         MOV     DPH,R5
   \   00002A   A3           INC     DPTR
   \   00002B   F0           MOVX    @DPTR,A
   \   00002C   A3           INC     DPTR
   \   00002D   E9           MOV     A,R1
   \   00002E   F0           MOVX    @DPTR,A
   2922            buf += 2;
   \   00002F   EE           MOV     A,R6
   \   000030   2402         ADD     A,#0x2
   \   000032   0E           INC     R6
   \   000033   0E           INC     R6
   \   000034   EF           MOV     A,R7
   \   000035   3400         ADDC    A,#0x0
   \   000037   FF           MOV     R7,A
   2923            desc->AppDeviceId = BUILD_UINT16( buf[0], buf[1] );
   \   000038   8E82         MOV     DPL,R6
   \   00003A   8F83         MOV     DPH,R7
   \   00003C   E0           MOVX    A,@DPTR
   \   00003D   FA           MOV     R2,A
   \   00003E   A3           INC     DPTR
   \   00003F   E0           MOVX    A,@DPTR
   \   000040   F9           MOV     R1,A
   \   000041   EA           MOV     A,R2
   \   000042   8C82         MOV     DPL,R4
   \   000044   8D83         MOV     DPH,R5
   \   000046   A3           INC     DPTR
   \   000047   A3           INC     DPTR
   \   000048   A3           INC     DPTR
   \   000049   F0           MOVX    @DPTR,A
   \   00004A   A3           INC     DPTR
   \   00004B   E9           MOV     A,R1
   \   00004C   F0           MOVX    @DPTR,A
   2924            buf += 2;
   \   00004D   EE           MOV     A,R6
   \   00004E   2402         ADD     A,#0x2
   \   000050   0E           INC     R6
   \   000051   0E           INC     R6
   \   000052   EF           MOV     A,R7
   \   000053   3400         ADDC    A,#0x0
   \   000055   FF           MOV     R7,A
   2925            desc->AppDevVer = *buf >> 4;
   \   000056   EC           MOV     A,R4
   \   000057   2405         ADD     A,#0x5
   \   000059   F8           MOV     R0,A
   \   00005A   ED           MOV     A,R5
   \   00005B   3400         ADDC    A,#0x0
   \   00005D   F9           MOV     R1,A
   \   00005E   8E82         MOV     DPL,R6
   \   000060   8F83         MOV     DPH,R7
   \   000062   E0           MOVX    A,@DPTR
   \   000063   C4           SWAP    A
   \   000064   540F         ANL     A,#0xf
   \   000066   C0E0         PUSH    A
   \   000068   8882         MOV     DPL,R0
   \   00006A   8983         MOV     DPH,R1
   \   00006C   E0           MOVX    A,@DPTR
   \   00006D   54F0         ANL     A,#0xf0
   \   00006F   FA           MOV     R2,A
   \   000070   D0E0         POP     A
   \   000072   4A           ORL     A,R2
   \   000073   F0           MOVX    @DPTR,A
   2926          
   2927            desc->Reserved = 0;
   \   000074   E0           MOVX    A,@DPTR
   \   000075   540F         ANL     A,#0xf
   \   000077   F0           MOVX    @DPTR,A
   2928            buf++;
   \   000078   8E82         MOV     DPL,R6
   \   00007A   8F83         MOV     DPH,R7
   \   00007C   A3           INC     DPTR
   2929          
   2930            // move in input cluster list (if any). allocate aligned memory.
   2931            num = desc->AppNumInClusters = *buf++;
   \   00007D   E0           MOVX    A,@DPTR
   \   00007E   FA           MOV     R2,A
   \   00007F   A3           INC     DPTR
   \   000080   0E           INC     R6
   \   000081   0E           INC     R6
   \   000082   AF83         MOV     R7,DPH
   \   000084   8C82         MOV     DPL,R4
   \   000086   8D83         MOV     DPH,R5
   \   000088   A3           INC     DPTR
   \   000089   A3           INC     DPTR
   \   00008A   A3           INC     DPTR
   \   00008B   A3           INC     DPTR
   \   00008C   A3           INC     DPTR
   \   00008D   A3           INC     DPTR
   \   00008E   F0           MOVX    @DPTR,A
   \   00008F   8A..         MOV     ?V0 + 4,R2
   2932            if ( num )
   \   000091   606D         JZ      ??ZDO_ParseSimpleDescBuf_0
   2933            {
   2934              if (!(desc->pAppInClusterList = (uint16 *)osal_mem_alloc(num*sizeof(uint16))))
   \   000093   EC           MOV     A,R4
   \   000094   2407         ADD     A,#0x7
   \   000096   F5..         MOV     ?V0 + 2,A
   \   000098   ED           MOV     A,R5
   \   000099   3400         ADDC    A,#0x0
   \   00009B   F5..         MOV     ?V0 + 3,A
   \   00009D                ; Setup parameters for call to function osal_mem_alloc
   \   00009D   EA           MOV     A,R2
   \   00009E   C3           CLR     C
   \   00009F   33           RLC     A
   \   0000A0   FA           MOV     R2,A
   \   0000A1   E4           CLR     A
   \   0000A2   33           RLC     A
   \   0000A3   FB           MOV     R3,A
   \   0000A4   12....       LCALL   ??osal_mem_alloc?relay
   \   0000A7   85..82       MOV     DPL,?V0 + 2
   \   0000AA   85..83       MOV     DPH,?V0 + 3
   \   0000AD   EA           MOV     A,R2
   \   0000AE   F0           MOVX    @DPTR,A
   \   0000AF   A3           INC     DPTR
   \   0000B0   EB           MOV     A,R3
   \   0000B1   F0           MOVX    @DPTR,A
   \   0000B2   85..82       MOV     DPL,?V0 + 2
   \   0000B5   85..83       MOV     DPH,?V0 + 3
   \   0000B8   E0           MOVX    A,@DPTR
   \   0000B9   7002         JNZ     ??ZDO_ParseSimpleDescBuf_1
   \   0000BB   A3           INC     DPTR
   \   0000BC   E0           MOVX    A,@DPTR
   \                     ??ZDO_ParseSimpleDescBuf_1:
   \   0000BD   7005         JNZ     ??ZDO_ParseSimpleDescBuf_2
   2935              {
   2936                // malloc failed. we're done.
   2937                return 1;
   \                     ??ZDO_ParseSimpleDescBuf_3:
   \   0000BF   7901         MOV     R1,#0x1
   \   0000C1   02....       LJMP    ??ZDO_ParseSimpleDescBuf_4 & 0xFFFF
   2938              }
   2939              for (i=0; i<num; ++i)
   \                     ??ZDO_ParseSimpleDescBuf_2:
   \   0000C4   7A00         MOV     R2,#0x0
   \   0000C6   8032         SJMP    ??ZDO_ParseSimpleDescBuf_5
   2940              {
   2941                desc->pAppInClusterList[i] = BUILD_UINT16( buf[0], buf[1] );
   \                     ??ZDO_ParseSimpleDescBuf_6:
   \   0000C8   8E82         MOV     DPL,R6
   \   0000CA   8F83         MOV     DPH,R7
   \   0000CC   E0           MOVX    A,@DPTR
   \   0000CD   FC           MOV     R4,A
   \   0000CE   A3           INC     DPTR
   \   0000CF   E0           MOVX    A,@DPTR
   \   0000D0   F9           MOV     R1,A
   \   0000D1   E4           CLR     A
   \   0000D2   2C           ADD     A,R4
   \   0000D3   E9           MOV     A,R1
   \   0000D4   FD           MOV     R5,A
   \   0000D5   EA           MOV     A,R2
   \   0000D6   33           RLC     A
   \   0000D7   F8           MOV     R0,A
   \   0000D8   E4           CLR     A
   \   0000D9   33           RLC     A
   \   0000DA   F9           MOV     R1,A
   \   0000DB   85..82       MOV     DPL,?V0 + 2
   \   0000DE   85..83       MOV     DPH,?V0 + 3
   \   0000E1   E0           MOVX    A,@DPTR
   \   0000E2   28           ADD     A,R0
   \   0000E3   FB           MOV     R3,A
   \   0000E4   A3           INC     DPTR
   \   0000E5   E0           MOVX    A,@DPTR
   \   0000E6   39           ADDC    A,R1
   \   0000E7   8B82         MOV     DPL,R3
   \   0000E9   F583         MOV     DPH,A
   \   0000EB   EC           MOV     A,R4
   \   0000EC   F0           MOVX    @DPTR,A
   \   0000ED   A3           INC     DPTR
   \   0000EE   ED           MOV     A,R5
   \   0000EF   F0           MOVX    @DPTR,A
   2942                buf += 2;
   \   0000F0   EE           MOV     A,R6
   \   0000F1   2402         ADD     A,#0x2
   \   0000F3   0E           INC     R6
   \   0000F4   0E           INC     R6
   \   0000F5   EF           MOV     A,R7
   \   0000F6   3400         ADDC    A,#0x0
   \   0000F8   FF           MOV     R7,A
   2943              }
   \   0000F9   0A           INC     R2
   \                     ??ZDO_ParseSimpleDescBuf_5:
   \   0000FA   EA           MOV     A,R2
   \   0000FB   C3           CLR     C
   \   0000FC   95..         SUBB    A,?V0 + 4
   \   0000FE   40C8         JC      ??ZDO_ParseSimpleDescBuf_6
   2944            }
   2945          
   2946            // move in output cluster list (if any). allocate aligned memory.
   2947            num = desc->AppNumOutClusters = *buf++;
   \                     ??ZDO_ParseSimpleDescBuf_0:
   \   000100   8E82         MOV     DPL,R6
   \   000102   8F83         MOV     DPH,R7
   \   000104   E0           MOVX    A,@DPTR
   \   000105   FA           MOV     R2,A
   \   000106   A3           INC     DPTR
   \   000107   AE82         MOV     R6,DPL
   \   000109   AF83         MOV     R7,DPH
   \   00010B   85..82       MOV     DPL,?V0 + 0
   \   00010E   85..83       MOV     DPH,?V0 + 1
   \   000111   A3           INC     DPTR
   \   000112   A3           INC     DPTR
   \   000113   A3           INC     DPTR
   \   000114   A3           INC     DPTR
   \   000115   A3           INC     DPTR
   \   000116   A3           INC     DPTR
   \   000117   A3           INC     DPTR
   \   000118   A3           INC     DPTR
   \   000119   A3           INC     DPTR
   \   00011A   F0           MOVX    @DPTR,A
   \   00011B   8A..         MOV     ?V0 + 4,R2
   2948            if (num)
   \   00011D   7003         JNZ     $+5
   \   00011F   02....       LJMP    ??ZDO_ParseSimpleDescBuf_7 & 0xFFFF
   2949            {
   2950              if (!(desc->pAppOutClusterList = (uint16 *)osal_mem_alloc(num*sizeof(uint16))))
   \   000122   E5..         MOV     A,?V0 + 0
   \   000124   240A         ADD     A,#0xa
   \   000126   F5..         MOV     ?V0 + 2,A
   \   000128   E5..         MOV     A,?V0 + 1
   \   00012A   3400         ADDC    A,#0x0
   \   00012C   F5..         MOV     ?V0 + 3,A
   \   00012E                ; Setup parameters for call to function osal_mem_alloc
   \   00012E   EA           MOV     A,R2
   \   00012F   C3           CLR     C
   \   000130   33           RLC     A
   \   000131   FA           MOV     R2,A
   \   000132   E4           CLR     A
   \   000133   33           RLC     A
   \   000134   FB           MOV     R3,A
   \   000135   12....       LCALL   ??osal_mem_alloc?relay
   \   000138   85..82       MOV     DPL,?V0 + 2
   \   00013B   85..83       MOV     DPH,?V0 + 3
   \   00013E   EA           MOV     A,R2
   \   00013F   F0           MOVX    @DPTR,A
   \   000140   A3           INC     DPTR
   \   000141   EB           MOV     A,R3
   \   000142   F0           MOVX    @DPTR,A
   \   000143   85..82       MOV     DPL,?V0 + 2
   \   000146   85..83       MOV     DPH,?V0 + 3
   \   000149   E0           MOVX    A,@DPTR
   \   00014A   7002         JNZ     ??ZDO_ParseSimpleDescBuf_8
   \   00014C   A3           INC     DPTR
   \   00014D   E0           MOVX    A,@DPTR
   \                     ??ZDO_ParseSimpleDescBuf_8:
   \   00014E   702C         JNZ     ??ZDO_ParseSimpleDescBuf_9
   2951              {
   2952                // malloc failed. free input cluster list memory if there is any
   2953                if ( desc->pAppInClusterList != NULL )
   \   000150   E5..         MOV     A,?V0 + 0
   \   000152   2407         ADD     A,#0x7
   \   000154   F5..         MOV     ?V0 + 2,A
   \   000156   E5..         MOV     A,?V0 + 1
   \   000158   3400         ADDC    A,#0x0
   \   00015A   F5..         MOV     ?V0 + 3,A
   \   00015C   85..82       MOV     DPL,?V0 + 2
   \   00015F   F583         MOV     DPH,A
   \   000161   E0           MOVX    A,@DPTR
   \   000162   7002         JNZ     ??ZDO_ParseSimpleDescBuf_10
   \   000164   A3           INC     DPTR
   \   000165   E0           MOVX    A,@DPTR
   \                     ??ZDO_ParseSimpleDescBuf_10:
   \   000166   7003         JNZ     $+5
   \   000168   02....       LJMP    ??ZDO_ParseSimpleDescBuf_3 & 0xFFFF
   2954                {
   2955                  osal_mem_free(desc->pAppInClusterList);
   \   00016B                ; Setup parameters for call to function osal_mem_free
   \   00016B   85..82       MOV     DPL,?V0 + 2
   \   00016E   85..83       MOV     DPH,?V0 + 3
   \   000171   E0           MOVX    A,@DPTR
   \   000172   FA           MOV     R2,A
   \   000173   A3           INC     DPTR
   \   000174   E0           MOVX    A,@DPTR
   \   000175   FB           MOV     R3,A
   \   000176   12....       LCALL   ??osal_mem_free?relay
   \   000179   02....       LJMP    ??ZDO_ParseSimpleDescBuf_3 & 0xFFFF
   2956                }
   2957                return 1;
   2958              }
   2959              for (i=0; i<num; ++i)
   \                     ??ZDO_ParseSimpleDescBuf_9:
   \   00017C   7A00         MOV     R2,#0x0
   \   00017E   8032         SJMP    ??ZDO_ParseSimpleDescBuf_11
   2960              {
   2961                desc->pAppOutClusterList[i] = BUILD_UINT16( buf[0], buf[1] );
   \                     ??ZDO_ParseSimpleDescBuf_12:
   \   000180   8E82         MOV     DPL,R6
   \   000182   8F83         MOV     DPH,R7
   \   000184   E0           MOVX    A,@DPTR
   \   000185   FC           MOV     R4,A
   \   000186   A3           INC     DPTR
   \   000187   E0           MOVX    A,@DPTR
   \   000188   F9           MOV     R1,A
   \   000189   E4           CLR     A
   \   00018A   2C           ADD     A,R4
   \   00018B   E9           MOV     A,R1
   \   00018C   FD           MOV     R5,A
   \   00018D   EA           MOV     A,R2
   \   00018E   33           RLC     A
   \   00018F   F8           MOV     R0,A
   \   000190   E4           CLR     A
   \   000191   33           RLC     A
   \   000192   F9           MOV     R1,A
   \   000193   85..82       MOV     DPL,?V0 + 2
   \   000196   85..83       MOV     DPH,?V0 + 3
   \   000199   E0           MOVX    A,@DPTR
   \   00019A   28           ADD     A,R0
   \   00019B   FB           MOV     R3,A
   \   00019C   A3           INC     DPTR
   \   00019D   E0           MOVX    A,@DPTR
   \   00019E   39           ADDC    A,R1
   \   00019F   8B82         MOV     DPL,R3
   \   0001A1   F583         MOV     DPH,A
   \   0001A3   EC           MOV     A,R4
   \   0001A4   F0           MOVX    @DPTR,A
   \   0001A5   A3           INC     DPTR
   \   0001A6   ED           MOV     A,R5
   \   0001A7   F0           MOVX    @DPTR,A
   2962                buf += 2;
   \   0001A8   EE           MOV     A,R6
   \   0001A9   2402         ADD     A,#0x2
   \   0001AB   0E           INC     R6
   \   0001AC   0E           INC     R6
   \   0001AD   EF           MOV     A,R7
   \   0001AE   3400         ADDC    A,#0x0
   \   0001B0   FF           MOV     R7,A
   2963              }
   \   0001B1   0A           INC     R2
   \                     ??ZDO_ParseSimpleDescBuf_11:
   \   0001B2   EA           MOV     A,R2
   \   0001B3   C3           CLR     C
   \   0001B4   95..         SUBB    A,?V0 + 4
   \   0001B6   40C8         JC      ??ZDO_ParseSimpleDescBuf_12
   2964            }
   2965            return 0;
   \                     ??ZDO_ParseSimpleDescBuf_7:
   \   0001B8   7900         MOV     R1,#0x0
   \                     ??ZDO_ParseSimpleDescBuf_4:
   \   0001BA   7F05         MOV     R7,#0x5
   \   0001BC   02....       LJMP    ?BANKED_LEAVE_XDATA
   2966          }
   2967          
   2968          /*********************************************************************
   2969           * @fn          ZDO_ParseDeviceAnnce
   2970           *
   2971           * @brief       Parse a Device Announce message.
   2972           *
   2973           * @param       inMsg - Incoming message
   2974           * @param       pAnnce - place to put the parsed information
   2975           *
   2976           * @return      none
   2977           */

   \                                 In  segment BANKED_CODE, align 1, keep-with-next
   2978          void ZDO_ParseDeviceAnnce( zdoIncomingMsg_t *inMsg, ZDO_DeviceAnnce_t *pAnnce )
   \                     ZDO_ParseDeviceAnnce:
   2979          {
   \   000000   74F6         MOV     A,#-0xa
   \   000002   12....       LCALL   ?BANKED_ENTER_XDATA
   \   000005                ; Saved register size: 10
   \   000005                ; Auto size: 0
   \   000005   8C..         MOV     ?V0 + 0,R4
   \   000007   8D..         MOV     ?V0 + 1,R5
   2980            uint8 *msg;
   2981          
   2982            // Parse incoming message
   2983            msg = inMsg->asdu;
   \   000009   EA           MOV     A,R2
   \   00000A   2413         ADD     A,#0x13
   \   00000C   F582         MOV     DPL,A
   \   00000E   EB           MOV     A,R3
   \   00000F   3400         ADDC    A,#0x0
   \   000011   F583         MOV     DPH,A
   \   000013   E0           MOVX    A,@DPTR
   \   000014   FE           MOV     R6,A
   \   000015   A3           INC     DPTR
   \   000016   E0           MOVX    A,@DPTR
   \   000017   FF           MOV     R7,A
   2984            pAnnce->nwkAddr = BUILD_UINT16( msg[0], msg[1] );
   \   000018   8E82         MOV     DPL,R6
   \   00001A   8F83         MOV     DPH,R7
   \   00001C   E0           MOVX    A,@DPTR
   \   00001D   FA           MOV     R2,A
   \   00001E   A3           INC     DPTR
   \   00001F   E0           MOVX    A,@DPTR
   \   000020   F9           MOV     R1,A
   \   000021   EA           MOV     A,R2
   \   000022   8C82         MOV     DPL,R4
   \   000024   8D83         MOV     DPH,R5
   \   000026   F0           MOVX    @DPTR,A
   \   000027   A3           INC     DPTR
   \   000028   E9           MOV     A,R1
   \   000029   F0           MOVX    @DPTR,A
   2985            msg += 2;
   \   00002A   EE           MOV     A,R6
   \   00002B   2402         ADD     A,#0x2
   \   00002D   0E           INC     R6
   \   00002E   0E           INC     R6
   \   00002F   EF           MOV     A,R7
   \   000030   3400         ADDC    A,#0x0
   \   000032   FF           MOV     R7,A
   2986            osal_cpyExtAddr( pAnnce->extAddr, msg );
   \   000033                ; Setup parameters for call to function sAddrExtCpy
   \   000033   EE           MOV     A,R6
   \   000034   FC           MOV     R4,A
   \   000035   EF           MOV     A,R7
   \   000036   FD           MOV     R5,A
   \   000037   E5..         MOV     A,?V0 + 0
   \   000039   2402         ADD     A,#0x2
   \   00003B   FA           MOV     R2,A
   \   00003C   E5..         MOV     A,?V0 + 1
   \   00003E   3400         ADDC    A,#0x0
   \   000040   FB           MOV     R3,A
   \   000041   12....       LCALL   ??sAddrExtCpy?relay
   2987            msg += Z_EXTADDR_LEN;
   2988            pAnnce->capabilities = *msg;
   \   000044   8E82         MOV     DPL,R6
   \   000046   8F83         MOV     DPH,R7
   \   000048   A3           INC     DPTR
   \   000049   A3           INC     DPTR
   \   00004A   A3           INC     DPTR
   \   00004B   A3           INC     DPTR
   \   00004C   A3           INC     DPTR
   \   00004D   A3           INC     DPTR
   \   00004E   A3           INC     DPTR
   \   00004F   A3           INC     DPTR
   \   000050   E0           MOVX    A,@DPTR
   \   000051   85..82       MOV     DPL,?V0 + 0
   \   000054   85..83       MOV     DPH,?V0 + 1
   \   000057   A3           INC     DPTR
   \   000058   A3           INC     DPTR
   \   000059   A3           INC     DPTR
   \   00005A   A3           INC     DPTR
   \   00005B   A3           INC     DPTR
   \   00005C   A3           INC     DPTR
   \   00005D   A3           INC     DPTR
   \   00005E   A3           INC     DPTR
   \   00005F   A3           INC     DPTR
   \   000060   A3           INC     DPTR
   \   000061   F0           MOVX    @DPTR,A
   2989          }
   \   000062   7F02         MOV     R7,#0x2
   \   000064   02....       LJMP    ?BANKED_LEAVE_XDATA
   2990          
   2991          /*********************************************************************
   2992           * @fn          ZDO_ParseMgmtNwkUpdateNotify
   2993           *
   2994           * @brief       This function handles parsing of the incoming Management
   2995           *              Network Update notify.
   2996           *
   2997           * @param       inMsg - incoming message (request)
   2998           *
   2999           * @return      a pointer to parsed response structure (NULL if not allocated).
   3000           *          This structure was allocated using osal_mem_alloc, so it must be freed
   3001           *          by the calling function [osal_mem_free()].
   3002           */

   \                                 In  segment BANKED_CODE, align 1, keep-with-next
   3003          ZDO_MgmtNwkUpdateNotify_t *ZDO_ParseMgmtNwkUpdateNotify( zdoIncomingMsg_t *inMsg )
   \                     ZDO_ParseMgmtNwkUpdateNotify:
   3004          {
   \   000000   74F2         MOV     A,#-0xe
   \   000002   12....       LCALL   ?BANKED_ENTER_XDATA
   \   000005                ; Saved register size: 14
   \   000005                ; Auto size: 6
   \   000005   74FA         MOV     A,#-0x6
   \   000007   12....       LCALL   ?ALLOC_XSTACK8
   3005            uint8 status;
   3006            uint32 scannedChannels = 0;
   \   00000A   90....       MOV     DPTR,#__Constant_0
   \   00000D   78..         MOV     R0,#?V0 + 0
   \   00000F   12....       LCALL   ?L_MOV_X
   3007            uint16 totalTransmissions = 0;
   \   000012   75..00       MOV     ?V0 + 4,#0x0
   \   000015   75..00       MOV     ?V0 + 5,#0x0
   3008            uint16 transmissionFailures = 0;
   \   000018   7E00         MOV     R6,#0x0
   \   00001A   7F00         MOV     R7,#0x0
   3009            uint8 listCount = 0;
   \   00001C   E4           CLR     A
   \   00001D   C0E0         PUSH    A
   \   00001F   7402         MOV     A,#0x2
   \   000021   12....       LCALL   ?XSTACK_DISP0_8
   \   000024   D0E0         POP     A
   \   000026   F0           MOVX    @DPTR,A
   3010            uint8 *msg = inMsg->asdu;
   \   000027   EA           MOV     A,R2
   \   000028   2413         ADD     A,#0x13
   \   00002A   F582         MOV     DPL,A
   \   00002C   EB           MOV     A,R3
   \   00002D   3400         ADDC    A,#0x0
   \   00002F   F583         MOV     DPH,A
   \   000031   E0           MOVX    A,@DPTR
   \   000032   F8           MOV     R0,A
   \   000033   A3           INC     DPTR
   \   000034   E0           MOVX    A,@DPTR
   \   000035   F9           MOV     R1,A
   \   000036   85..82       MOV     DPL,?XSP + 0
   \   000039   85..83       MOV     DPH,?XSP + 1
   \   00003C   E8           MOV     A,R0
   \   00003D   F0           MOVX    @DPTR,A
   \   00003E   A3           INC     DPTR
   \   00003F   E9           MOV     A,R1
   \   000040   F0           MOVX    @DPTR,A
   3011            ZDO_MgmtNwkUpdateNotify_t *pRsp;
   3012          
   3013            status = *msg++;
   \   000041   85..82       MOV     DPL,?XSP + 0
   \   000044   85..83       MOV     DPH,?XSP + 1
   \   000047   E0           MOVX    A,@DPTR
   \   000048   F8           MOV     R0,A
   \   000049   A3           INC     DPTR
   \   00004A   E0           MOVX    A,@DPTR
   \   00004B   F583         MOV     DPH,A
   \   00004D   8882         MOV     DPL,R0
   \   00004F   E0           MOVX    A,@DPTR
   \   000050   C0E0         PUSH    A
   \   000052   7405         MOV     A,#0x5
   \   000054   12....       LCALL   ?XSTACK_DISP0_8
   \   000057   D0E0         POP     A
   \   000059   F0           MOVX    @DPTR,A
   \   00005A   85..82       MOV     DPL,?XSP + 0
   \   00005D   85..83       MOV     DPH,?XSP + 1
   \   000060   E0           MOVX    A,@DPTR
   \   000061   2401         ADD     A,#0x1
   \   000063   F8           MOV     R0,A
   \   000064   A3           INC     DPTR
   \   000065   E0           MOVX    A,@DPTR
   \   000066   3400         ADDC    A,#0x0
   \   000068   F9           MOV     R1,A
   \   000069   85..82       MOV     DPL,?XSP + 0
   \   00006C   85..83       MOV     DPH,?XSP + 1
   \   00006F   E8           MOV     A,R0
   \   000070   F0           MOVX    @DPTR,A
   \   000071   A3           INC     DPTR
   \   000072   E9           MOV     A,R1
   \   000073   F0           MOVX    @DPTR,A
   3014            if ( status == ZSuccess )
   \   000074   7405         MOV     A,#0x5
   \   000076   12....       LCALL   ?XSTACK_DISP0_8
   \   000079   E0           MOVX    A,@DPTR
   \   00007A   6003         JZ      $+5
   \   00007C   02....       LJMP    ??ZDO_ParseMgmtNwkUpdateNotify_0 & 0xFFFF
   3015            {
   3016              scannedChannels = osal_build_uint32( msg, 4 );
   \   00007F                ; Setup parameters for call to function osal_build_uint32
   \   00007F   7904         MOV     R1,#0x4
   \   000081   85..82       MOV     DPL,?XSP + 0
   \   000084   85..83       MOV     DPH,?XSP + 1
   \   000087   E0           MOVX    A,@DPTR
   \   000088   FA           MOV     R2,A
   \   000089   A3           INC     DPTR
   \   00008A   E0           MOVX    A,@DPTR
   \   00008B   FB           MOV     R3,A
   \   00008C   12....       LCALL   ??osal_build_uint32?relay
   \   00008F   8A..         MOV     ?V0 + 0,R2
   \   000091   8B..         MOV     ?V0 + 1,R3
   \   000093   8C..         MOV     ?V0 + 2,R4
   \   000095   8D..         MOV     ?V0 + 3,R5
   3017              msg += 4;
   \   000097   85..82       MOV     DPL,?XSP + 0
   \   00009A   85..83       MOV     DPH,?XSP + 1
   \   00009D   E0           MOVX    A,@DPTR
   \   00009E   2404         ADD     A,#0x4
   \   0000A0   F8           MOV     R0,A
   \   0000A1   A3           INC     DPTR
   \   0000A2   E0           MOVX    A,@DPTR
   \   0000A3   3400         ADDC    A,#0x0
   \   0000A5   F9           MOV     R1,A
   \   0000A6   85..82       MOV     DPL,?XSP + 0
   \   0000A9   85..83       MOV     DPH,?XSP + 1
   \   0000AC   E8           MOV     A,R0
   \   0000AD   F0           MOVX    @DPTR,A
   \   0000AE   A3           INC     DPTR
   \   0000AF   E9           MOV     A,R1
   \   0000B0   F0           MOVX    @DPTR,A
   3018              totalTransmissions = BUILD_UINT16( msg[0], msg[1] );
   \   0000B1   85..82       MOV     DPL,?XSP + 0
   \   0000B4   85..83       MOV     DPH,?XSP + 1
   \   0000B7   E0           MOVX    A,@DPTR
   \   0000B8   F8           MOV     R0,A
   \   0000B9   A3           INC     DPTR
   \   0000BA   E0           MOVX    A,@DPTR
   \   0000BB   F583         MOV     DPH,A
   \   0000BD   8882         MOV     DPL,R0
   \   0000BF   E0           MOVX    A,@DPTR
   \   0000C0   FA           MOV     R2,A
   \   0000C1   85..82       MOV     DPL,?XSP + 0
   \   0000C4   85..83       MOV     DPH,?XSP + 1
   \   0000C7   E0           MOVX    A,@DPTR
   \   0000C8   F8           MOV     R0,A
   \   0000C9   A3           INC     DPTR
   \   0000CA   E0           MOVX    A,@DPTR
   \   0000CB   F583         MOV     DPH,A
   \   0000CD   8882         MOV     DPL,R0
   \   0000CF   A3           INC     DPTR
   \   0000D0   E0           MOVX    A,@DPTR
   \   0000D1   F9           MOV     R1,A
   \   0000D2   EA           MOV     A,R2
   \   0000D3   F5..         MOV     ?V0 + 4,A
   \   0000D5   E9           MOV     A,R1
   \   0000D6   F5..         MOV     ?V0 + 5,A
   3019              msg += 2;
   \   0000D8   85..82       MOV     DPL,?XSP + 0
   \   0000DB   85..83       MOV     DPH,?XSP + 1
   \   0000DE   E0           MOVX    A,@DPTR
   \   0000DF   2402         ADD     A,#0x2
   \   0000E1   F8           MOV     R0,A
   \   0000E2   A3           INC     DPTR
   \   0000E3   E0           MOVX    A,@DPTR
   \   0000E4   3400         ADDC    A,#0x0
   \   0000E6   F9           MOV     R1,A
   \   0000E7   85..82       MOV     DPL,?XSP + 0
   \   0000EA   85..83       MOV     DPH,?XSP + 1
   \   0000ED   E8           MOV     A,R0
   \   0000EE   F0           MOVX    @DPTR,A
   \   0000EF   A3           INC     DPTR
   \   0000F0   E9           MOV     A,R1
   \   0000F1   F0           MOVX    @DPTR,A
   3020              transmissionFailures = BUILD_UINT16( msg[0], msg[1] );
   \   0000F2   85..82       MOV     DPL,?XSP + 0
   \   0000F5   85..83       MOV     DPH,?XSP + 1
   \   0000F8   E0           MOVX    A,@DPTR
   \   0000F9   F8           MOV     R0,A
   \   0000FA   A3           INC     DPTR
   \   0000FB   E0           MOVX    A,@DPTR
   \   0000FC   F583         MOV     DPH,A
   \   0000FE   8882         MOV     DPL,R0
   \   000100   E0           MOVX    A,@DPTR
   \   000101   FA           MOV     R2,A
   \   000102   85..82       MOV     DPL,?XSP + 0
   \   000105   85..83       MOV     DPH,?XSP + 1
   \   000108   E0           MOVX    A,@DPTR
   \   000109   F8           MOV     R0,A
   \   00010A   A3           INC     DPTR
   \   00010B   E0           MOVX    A,@DPTR
   \   00010C   F583         MOV     DPH,A
   \   00010E   8882         MOV     DPL,R0
   \   000110   A3           INC     DPTR
   \   000111   E0           MOVX    A,@DPTR
   \   000112   F9           MOV     R1,A
   \   000113   EA           MOV     A,R2
   \   000114   FE           MOV     R6,A
   \   000115   E9           MOV     A,R1
   \   000116   FF           MOV     R7,A
   3021              msg += 2;
   \   000117   85..82       MOV     DPL,?XSP + 0
   \   00011A   85..83       MOV     DPH,?XSP + 1
   \   00011D   E0           MOVX    A,@DPTR
   \   00011E   2402         ADD     A,#0x2
   \   000120   F8           MOV     R0,A
   \   000121   A3           INC     DPTR
   \   000122   E0           MOVX    A,@DPTR
   \   000123   3400         ADDC    A,#0x0
   \   000125   F9           MOV     R1,A
   \   000126   85..82       MOV     DPL,?XSP + 0
   \   000129   85..83       MOV     DPH,?XSP + 1
   \   00012C   E8           MOV     A,R0
   \   00012D   F0           MOVX    @DPTR,A
   \   00012E   A3           INC     DPTR
   \   00012F   E9           MOV     A,R1
   \   000130   F0           MOVX    @DPTR,A
   3022              listCount = *msg++;
   \   000131   85..82       MOV     DPL,?XSP + 0
   \   000134   85..83       MOV     DPH,?XSP + 1
   \   000137   E0           MOVX    A,@DPTR
   \   000138   F8           MOV     R0,A
   \   000139   A3           INC     DPTR
   \   00013A   E0           MOVX    A,@DPTR
   \   00013B   F583         MOV     DPH,A
   \   00013D   8882         MOV     DPL,R0
   \   00013F   E0           MOVX    A,@DPTR
   \   000140   C0E0         PUSH    A
   \   000142   7402         MOV     A,#0x2
   \   000144   12....       LCALL   ?XSTACK_DISP0_8
   \   000147   D0E0         POP     A
   \   000149   F0           MOVX    @DPTR,A
   \   00014A   85..82       MOV     DPL,?XSP + 0
   \   00014D   85..83       MOV     DPH,?XSP + 1
   \   000150   E0           MOVX    A,@DPTR
   \   000151   2401         ADD     A,#0x1
   \   000153   F8           MOV     R0,A
   \   000154   A3           INC     DPTR
   \   000155   E0           MOVX    A,@DPTR
   \   000156   3400         ADDC    A,#0x0
   \   000158   F9           MOV     R1,A
   \   000159   85..82       MOV     DPL,?XSP + 0
   \   00015C   85..83       MOV     DPH,?XSP + 1
   \   00015F   E8           MOV     A,R0
   \   000160   F0           MOVX    @DPTR,A
   \   000161   A3           INC     DPTR
   \   000162   E9           MOV     A,R1
   \   000163   F0           MOVX    @DPTR,A
   \                     ??ZDO_ParseMgmtNwkUpdateNotify_0:
   \   000164                ; Setup parameters for call to function osal_mem_alloc
   \   000164   7402         MOV     A,#0x2
   \   000166   12....       LCALL   ?XSTACK_DISP0_8
   \   000169   E0           MOVX    A,@DPTR
   \   00016A   F8           MOV     R0,A
   \   00016B   740A         MOV     A,#0xa
   \   00016D   28           ADD     A,R0
   \   00016E   FA           MOV     R2,A
   \   00016F   E4           CLR     A
   \   000170   3400         ADDC    A,#0x0
   \   000172   FB           MOV     R3,A
   3023            }
   3024          
   3025            pRsp = (ZDO_MgmtNwkUpdateNotify_t *)osal_mem_alloc( sizeof ( ZDO_MgmtNwkUpdateNotify_t ) + listCount );
   \   000173   12....       LCALL   ??osal_mem_alloc?relay
   \   000176   7403         MOV     A,#0x3
   \   000178   12....       LCALL   ?XSTACK_DISP0_8
   \   00017B   EA           MOV     A,R2
   \   00017C   F0           MOVX    @DPTR,A
   \   00017D   A3           INC     DPTR
   \   00017E   EB           MOV     A,R3
   \   00017F   F0           MOVX    @DPTR,A
   3026          
   3027            if ( pRsp )
   \   000180   7403         MOV     A,#0x3
   \   000182   12....       LCALL   ?XSTACK_DISP0_8
   \   000185   E0           MOVX    A,@DPTR
   \   000186   7002         JNZ     ??ZDO_ParseMgmtNwkUpdateNotify_1
   \   000188   A3           INC     DPTR
   \   000189   E0           MOVX    A,@DPTR
   \                     ??ZDO_ParseMgmtNwkUpdateNotify_1:
   \   00018A   7003         JNZ     $+5
   \   00018C   02....       LJMP    ??ZDO_ParseMgmtNwkUpdateNotify_2 & 0xFFFF
   3028            {
   3029              pRsp->status = status;
   \   00018F   7405         MOV     A,#0x5
   \   000191   12....       LCALL   ?XSTACK_DISP0_8
   \   000194   E0           MOVX    A,@DPTR
   \   000195   C0E0         PUSH    A
   \   000197   7403         MOV     A,#0x3
   \   000199   12....       LCALL   ?XSTACK_DISP0_8
   \   00019C   E0           MOVX    A,@DPTR
   \   00019D   F8           MOV     R0,A
   \   00019E   A3           INC     DPTR
   \   00019F   E0           MOVX    A,@DPTR
   \   0001A0   F583         MOV     DPH,A
   \   0001A2   8882         MOV     DPL,R0
   \   0001A4   D0E0         POP     A
   \   0001A6   F0           MOVX    @DPTR,A
   3030              pRsp->scannedChannels = scannedChannels;
   \   0001A7   7403         MOV     A,#0x3
   \   0001A9   12....       LCALL   ?XSTACK_DISP0_8
   \   0001AC   E0           MOVX    A,@DPTR
   \   0001AD   F8           MOV     R0,A
   \   0001AE   A3           INC     DPTR
   \   0001AF   E0           MOVX    A,@DPTR
   \   0001B0   F583         MOV     DPH,A
   \   0001B2   8882         MOV     DPL,R0
   \   0001B4   A3           INC     DPTR
   \   0001B5   78..         MOV     R0,#?V0 + 0
   \   0001B7   12....       LCALL   ?L_MOV_TO_X
   3031              pRsp->totalTransmissions = totalTransmissions;
   \   0001BA   7403         MOV     A,#0x3
   \   0001BC   12....       LCALL   ?XSTACK_DISP0_8
   \   0001BF   E0           MOVX    A,@DPTR
   \   0001C0   F8           MOV     R0,A
   \   0001C1   A3           INC     DPTR
   \   0001C2   E0           MOVX    A,@DPTR
   \   0001C3   F583         MOV     DPH,A
   \   0001C5   8882         MOV     DPL,R0
   \   0001C7   A3           INC     DPTR
   \   0001C8   A3           INC     DPTR
   \   0001C9   A3           INC     DPTR
   \   0001CA   A3           INC     DPTR
   \   0001CB   A3           INC     DPTR
   \   0001CC   E5..         MOV     A,?V0 + 4
   \   0001CE   F0           MOVX    @DPTR,A
   \   0001CF   A3           INC     DPTR
   \   0001D0   E5..         MOV     A,?V0 + 5
   \   0001D2   F0           MOVX    @DPTR,A
   3032              pRsp->transmissionFailures = transmissionFailures;
   \   0001D3   7403         MOV     A,#0x3
   \   0001D5   12....       LCALL   ?XSTACK_DISP0_8
   \   0001D8   E0           MOVX    A,@DPTR
   \   0001D9   F8           MOV     R0,A
   \   0001DA   A3           INC     DPTR
   \   0001DB   E0           MOVX    A,@DPTR
   \   0001DC   F583         MOV     DPH,A
   \   0001DE   8882         MOV     DPL,R0
   \   0001E0   A3           INC     DPTR
   \   0001E1   A3           INC     DPTR
   \   0001E2   A3           INC     DPTR
   \   0001E3   A3           INC     DPTR
   \   0001E4   A3           INC     DPTR
   \   0001E5   A3           INC     DPTR
   \   0001E6   A3           INC     DPTR
   \   0001E7   EE           MOV     A,R6
   \   0001E8   F0           MOVX    @DPTR,A
   \   0001E9   A3           INC     DPTR
   \   0001EA   EF           MOV     A,R7
   \   0001EB   F0           MOVX    @DPTR,A
   3033              pRsp->listCount = listCount;
   \   0001EC   7402         MOV     A,#0x2
   \   0001EE   12....       LCALL   ?XSTACK_DISP0_8
   \   0001F1   E0           MOVX    A,@DPTR
   \   0001F2   C0E0         PUSH    A
   \   0001F4   7403         MOV     A,#0x3
   \   0001F6   12....       LCALL   ?XSTACK_DISP0_8
   \   0001F9   E0           MOVX    A,@DPTR
   \   0001FA   F8           MOV     R0,A
   \   0001FB   A3           INC     DPTR
   \   0001FC   E0           MOVX    A,@DPTR
   \   0001FD   F583         MOV     DPH,A
   \   0001FF   8882         MOV     DPL,R0
   \   000201   A3           INC     DPTR
   \   000202   A3           INC     DPTR
   \   000203   A3           INC     DPTR
   \   000204   A3           INC     DPTR
   \   000205   A3           INC     DPTR
   \   000206   A3           INC     DPTR
   \   000207   A3           INC     DPTR
   \   000208   A3           INC     DPTR
   \   000209   A3           INC     DPTR
   \   00020A   D0E0         POP     A
   \   00020C   F0           MOVX    @DPTR,A
   3034          
   3035              // Allocate a buffer big enough to handle the list.
   3036              if ( listCount > 0 )
   \   00020D   7402         MOV     A,#0x2
   \   00020F   12....       LCALL   ?XSTACK_DISP0_8
   \   000212   E0           MOVX    A,@DPTR
   \   000213   6034         JZ      ??ZDO_ParseMgmtNwkUpdateNotify_2
   3037                osal_memcpy( pRsp->energyValues, msg, listCount );
   \   000215                ; Setup parameters for call to function osal_memcpy
   \   000215   85..82       MOV     DPL,?XSP + 0
   \   000218   85..83       MOV     DPH,?XSP + 1
   \   00021B   E0           MOVX    A,@DPTR
   \   00021C   F5..         MOV     ?V0 + 0,A
   \   00021E   A3           INC     DPTR
   \   00021F   E0           MOVX    A,@DPTR
   \   000220   F5..         MOV     ?V0 + 1,A
   \   000222   75..00       MOV     ?V0 + 2,#0x0
   \   000225   78..         MOV     R0,#?V0 + 0
   \   000227   12....       LCALL   ?PUSH_XSTACK_I_THREE
   \   00022A   7405         MOV     A,#0x5
   \   00022C   12....       LCALL   ?XSTACK_DISP0_8
   \   00022F   E0           MOVX    A,@DPTR
   \   000230   FC           MOV     R4,A
   \   000231   7D00         MOV     R5,#0x0
   \   000233   7406         MOV     A,#0x6
   \   000235   12....       LCALL   ?XSTACK_DISP0_8
   \   000238   E0           MOVX    A,@DPTR
   \   000239   240A         ADD     A,#0xa
   \   00023B   FA           MOV     R2,A
   \   00023C   A3           INC     DPTR
   \   00023D   E0           MOVX    A,@DPTR
   \   00023E   3400         ADDC    A,#0x0
   \   000240   FB           MOV     R3,A
   \   000241   12....       LCALL   ??osal_memcpy?relay
   \   000244   7403         MOV     A,#0x3
   \   000246   12....       LCALL   ?DEALLOC_XSTACK8
   3038            }
   3039          
   3040            return ( pRsp );
   \                     ??ZDO_ParseMgmtNwkUpdateNotify_2:
   \   000249   7403         MOV     A,#0x3
   \   00024B   12....       LCALL   ?XSTACK_DISP0_8
   \   00024E   E0           MOVX    A,@DPTR
   \   00024F   FA           MOV     R2,A
   \   000250   A3           INC     DPTR
   \   000251   E0           MOVX    A,@DPTR
   \   000252   FB           MOV     R3,A
   \   000253   7406         MOV     A,#0x6
   \   000255   12....       LCALL   ?DEALLOC_XSTACK8
   \   000258   7F06         MOV     R7,#0x6
   \   00025A   02....       LJMP    ?BANKED_LEAVE_XDATA
   3041          }
   3042          
   3043          /*********************************************************************
   3044           * @fn          ZDO_ParseMgmtNwkUpdateReq
   3045           *
   3046           * @brief       This function handles parsing the incoming Management
   3047           *              Network Update request and starts the request (if needed).
   3048           *
   3049           * @param       inMsg - incoming message (request)
   3050           * @param       pReq - pointer to place to parse message to
   3051           *
   3052           * @return      none
   3053           */

   \                                 In  segment BANKED_CODE, align 1, keep-with-next
   3054          void ZDO_ParseMgmtNwkUpdateReq( zdoIncomingMsg_t *inMsg, ZDO_MgmtNwkUpdateReq_t *pReq )
   \                     ZDO_ParseMgmtNwkUpdateReq:
   3055          {
   \   000000   74F2         MOV     A,#-0xe
   \   000002   12....       LCALL   ?BANKED_ENTER_XDATA
   \   000005                ; Saved register size: 14
   \   000005                ; Auto size: 0
   \   000005   8C..         MOV     ?V0 + 4,R4
   \   000007   8D..         MOV     ?V0 + 5,R5
   3056            uint8 *msg = inMsg->asdu;
   \   000009   EA           MOV     A,R2
   \   00000A   2413         ADD     A,#0x13
   \   00000C   F582         MOV     DPL,A
   \   00000E   EB           MOV     A,R3
   \   00000F   3400         ADDC    A,#0x0
   \   000011   F583         MOV     DPH,A
   \   000013   E0           MOVX    A,@DPTR
   \   000014   FE           MOV     R6,A
   \   000015   A3           INC     DPTR
   \   000016   E0           MOVX    A,@DPTR
   \   000017   FF           MOV     R7,A
   3057          
   3058            pReq->channelMask = osal_build_uint32( msg, 4 );
   \   000018                ; Setup parameters for call to function osal_build_uint32
   \   000018   7904         MOV     R1,#0x4
   \   00001A   EE           MOV     A,R6
   \   00001B   FA           MOV     R2,A
   \   00001C   EF           MOV     A,R7
   \   00001D   FB           MOV     R3,A
   \   00001E   12....       LCALL   ??osal_build_uint32?relay
   \   000021   85..82       MOV     DPL,?V0 + 4
   \   000024   85..83       MOV     DPH,?V0 + 5
   \   000027   EA           MOV     A,R2
   \   000028   F0           MOVX    @DPTR,A
   \   000029   A3           INC     DPTR
   \   00002A   EB           MOV     A,R3
   \   00002B   F0           MOVX    @DPTR,A
   \   00002C   A3           INC     DPTR
   \   00002D   EC           MOV     A,R4
   \   00002E   F0           MOVX    @DPTR,A
   \   00002F   A3           INC     DPTR
   \   000030   ED           MOV     A,R5
   \   000031   F0           MOVX    @DPTR,A
   3059            msg += 4;
   \   000032   EE           MOV     A,R6
   \   000033   2404         ADD     A,#0x4
   \   000035   FE           MOV     R6,A
   \   000036   EF           MOV     A,R7
   \   000037   3400         ADDC    A,#0x0
   \   000039   FF           MOV     R7,A
   3060            pReq->scanDuration = *msg++;
   \   00003A   E5..         MOV     A,?V0 + 4
   \   00003C   2404         ADD     A,#0x4
   \   00003E   F8           MOV     R0,A
   \   00003F   E5..         MOV     A,?V0 + 5
   \   000041   3400         ADDC    A,#0x0
   \   000043   F9           MOV     R1,A
   \   000044   8E82         MOV     DPL,R6
   \   000046   8F83         MOV     DPH,R7
   \   000048   E0           MOVX    A,@DPTR
   \   000049   8882         MOV     DPL,R0
   \   00004B   8983         MOV     DPH,R1
   \   00004D   F0           MOVX    @DPTR,A
   \   00004E   8E82         MOV     DPL,R6
   \   000050   8F83         MOV     DPH,R7
   \   000052   A3           INC     DPTR
   \   000053   AE82         MOV     R6,DPL
   \   000055   AF83         MOV     R7,DPH
   3061          
   3062            if ( pReq->scanDuration <= 0x05 )
   \   000057   8882         MOV     DPL,R0
   \   000059   8983         MOV     DPH,R1
   \   00005B   E0           MOVX    A,@DPTR
   \   00005C   C3           CLR     C
   \   00005D   9406         SUBB    A,#0x6
   \   00005F   5012         JNC     ??ZDO_ParseMgmtNwkUpdateReq_0
   3063            {
   3064              // Request is to scan over channelMask
   3065              pReq->scanCount = *msg;
   \   000061   8E82         MOV     DPL,R6
   \   000063   8F83         MOV     DPH,R7
   \   000065   E0           MOVX    A,@DPTR
   \   000066   85..82       MOV     DPL,?V0 + 4
   \   000069   85..83       MOV     DPH,?V0 + 5
   \   00006C   A3           INC     DPTR
   \   00006D   A3           INC     DPTR
   \   00006E   A3           INC     DPTR
   \   00006F   A3           INC     DPTR
   \   000070   A3           INC     DPTR
   \   000071   8047         SJMP    ??ZDO_ParseMgmtNwkUpdateReq_1
   3066            }
   3067            else if ( ( pReq->scanDuration == 0xFE ) || ( pReq->scanDuration == 0xFF ) )
   \                     ??ZDO_ParseMgmtNwkUpdateReq_0:
   \   000073   E0           MOVX    A,@DPTR
   \   000074   64FE         XRL     A,#0xfe
   \   000076   6005         JZ      ??ZDO_ParseMgmtNwkUpdateReq_2
   \   000078   E0           MOVX    A,@DPTR
   \   000079   64FF         XRL     A,#0xff
   \   00007B   703E         JNZ     ??ZDO_ParseMgmtNwkUpdateReq_3
   3068            {
   3069              // Request is to change Channel (0xFE) or apsChannelMask and NwkManagerAddr (0xFF)
   3070              pReq->nwkUpdateId = *msg++;
   \                     ??ZDO_ParseMgmtNwkUpdateReq_2:
   \   00007D   8E82         MOV     DPL,R6
   \   00007F   8F83         MOV     DPH,R7
   \   000081   E0           MOVX    A,@DPTR
   \   000082   85..82       MOV     DPL,?V0 + 4
   \   000085   85..83       MOV     DPH,?V0 + 5
   \   000088   A3           INC     DPTR
   \   000089   A3           INC     DPTR
   \   00008A   A3           INC     DPTR
   \   00008B   A3           INC     DPTR
   \   00008C   A3           INC     DPTR
   \   00008D   A3           INC     DPTR
   \   00008E   F0           MOVX    @DPTR,A
   \   00008F   8E82         MOV     DPL,R6
   \   000091   8F83         MOV     DPH,R7
   \   000093   A3           INC     DPTR
   \   000094   0E           INC     R6
   \   000095   AF83         MOV     R7,DPH
   3071          
   3072              if ( pReq->scanDuration == 0xFF )
   \   000097   8882         MOV     DPL,R0
   \   000099   8983         MOV     DPH,R1
   \   00009B   E0           MOVX    A,@DPTR
   \   00009C   64FF         XRL     A,#0xff
   \   00009E   701B         JNZ     ??ZDO_ParseMgmtNwkUpdateReq_3
   3073              {
   3074                pReq->nwkManagerAddr = BUILD_UINT16( msg[0], msg[1] );
   \   0000A0   8E82         MOV     DPL,R6
   \   0000A2   8F83         MOV     DPH,R7
   \   0000A4   E0           MOVX    A,@DPTR
   \   0000A5   FA           MOV     R2,A
   \   0000A6   A3           INC     DPTR
   \   0000A7   E0           MOVX    A,@DPTR
   \   0000A8   F9           MOV     R1,A
   \   0000A9   EA           MOV     A,R2
   \   0000AA   85..82       MOV     DPL,?V0 + 4
   \   0000AD   85..83       MOV     DPH,?V0 + 5
   \   0000B0   A3           INC     DPTR
   \   0000B1   A3           INC     DPTR
   \   0000B2   A3           INC     DPTR
   \   0000B3   A3           INC     DPTR
   \   0000B4   A3           INC     DPTR
   \   0000B5   A3           INC     DPTR
   \   0000B6   A3           INC     DPTR
   \   0000B7   F0           MOVX    @DPTR,A
   \   0000B8   A3           INC     DPTR
   \   0000B9   E9           MOV     A,R1
   \                     ??ZDO_ParseMgmtNwkUpdateReq_1:
   \   0000BA   F0           MOVX    @DPTR,A
   3075              }
   3076            }
   3077          }
   \                     ??ZDO_ParseMgmtNwkUpdateReq_3:
   \   0000BB   7F06         MOV     R7,#0x6
   \   0000BD   02....       LJMP    ?BANKED_LEAVE_XDATA

   \                                 In  segment BANK_RELAYS, align 1
   \                     ??ZDO_Init?relay:
   \   000000   12....       LCALL   ?BDISPATCH
   \   000003   ......       DC24    ZDO_Init

   \                                 In  segment BANK_RELAYS, align 1
   \                     ??ZDODeviceSetup?relay:
   \   000000   12....       LCALL   ?BDISPATCH
   \   000003   ......       DC24    ZDODeviceSetup

   \                                 In  segment BANK_RELAYS, align 1
   \                     ??ZDO_StartDevice?relay:
   \   000000   12....       LCALL   ?BDISPATCH
   \   000003   ......       DC24    ZDO_StartDevice

   \                                 In  segment BANK_RELAYS, align 1
   \                     ??ZDO_UpdateNwkStatus?relay:
   \   000000   12....       LCALL   ?BDISPATCH
   \   000003   ......       DC24    ZDO_UpdateNwkStatus

   \                                 In  segment BANK_RELAYS, align 1
   \                     ??ZDO_RemoveEndDeviceBind?relay:
   \   000000   12....       LCALL   ?BDISPATCH
   \   000003   ......       DC24    ZDO_RemoveEndDeviceBind

   \                                 In  segment BANK_RELAYS, align 1
   \                     ??ZDO_SendEDBindRsp?relay:
   \   000000   12....       LCALL   ?BDISPATCH
   \   000003   ......       DC24    ZDO_SendEDBindRsp

   \                                 In  segment BANK_RELAYS, align 1
   \                     ??ZDO_CompareClusterLists?relay:
   \   000000   12....       LCALL   ?BDISPATCH
   \   000003   ......       DC24    ZDO_CompareClusterLists

   \                                 In  segment BANK_RELAYS, align 1
   \                     ??ZDO_AnyClusterMatches?relay:
   \   000000   12....       LCALL   ?BDISPATCH
   \   000003   ......       DC24    ZDO_AnyClusterMatches

   \                                 In  segment BANK_RELAYS, align 1
   \                     ??ZDO_ProcessNodeDescReq?relay:
   \   000000   12....       LCALL   ?BDISPATCH
   \   000003   ......       DC24    ZDO_ProcessNodeDescReq

   \                                 In  segment BANK_RELAYS, align 1
   \                     ??ZDO_ProcessPowerDescReq?relay:
   \   000000   12....       LCALL   ?BDISPATCH
   \   000003   ......       DC24    ZDO_ProcessPowerDescReq

   \                                 In  segment BANK_RELAYS, align 1
   \                     ??ZDO_ProcessSimpleDescReq?relay:
   \   000000   12....       LCALL   ?BDISPATCH
   \   000003   ......       DC24    ZDO_ProcessSimpleDescReq

   \                                 In  segment BANK_RELAYS, align 1
   \                     ??ZDO_ProcessActiveEPReq?relay:
   \   000000   12....       LCALL   ?BDISPATCH
   \   000003   ......       DC24    ZDO_ProcessActiveEPReq

   \                                 In  segment BANK_RELAYS, align 1
   \                     ??ZDO_ConvertOTAClusters?relay:
   \   000000   12....       LCALL   ?BDISPATCH
   \   000003   ......       DC24    ZDO_ConvertOTAClusters

   \                                 In  segment BANK_RELAYS, align 1
   \                     ??ZDO_ProcessMatchDescReq?relay:
   \   000000   12....       LCALL   ?BDISPATCH
   \   000003   ......       DC24    ZDO_ProcessMatchDescReq

   \                                 In  segment BANK_RELAYS, align 1
   \                     ??ZDO_ProcessBindUnbindReq?relay:
   \   000000   12....       LCALL   ?BDISPATCH
   \   000003   ......       DC24    ZDO_ProcessBindUnbindReq

   \                                 In  segment BANK_RELAYS, align 1
   \                     ??ZDO_UpdateAddrManager?relay:
   \   000000   12....       LCALL   ?BDISPATCH
   \   000003   ......       DC24    ZDO_UpdateAddrManager

   \                                 In  segment BANK_RELAYS, align 1
   \                     ??ZDO_ProcessServerDiscReq?relay:
   \   000000   12....       LCALL   ?BDISPATCH
   \   000003   ......       DC24    ZDO_ProcessServerDiscReq

   \                                 In  segment BANK_RELAYS, align 1
   \                     ??ZDO_EndDeviceTimeoutCB?relay:
   \   000000   12....       LCALL   ?BDISPATCH
   \   000003   ......       DC24    ZDO_EndDeviceTimeoutCB

   \                                 In  segment BANK_RELAYS, align 1
   \                     ??ZDO_ProcessMgmtLqiReq?relay:
   \   000000   12....       LCALL   ?BDISPATCH
   \   000003   ......       DC24    ZDO_ProcessMgmtLqiReq

   \                                 In  segment BANK_RELAYS, align 1
   \                     ??ZDO_ProcessMgmtNwkDiscReq?relay:
   \   000000   12....       LCALL   ?BDISPATCH
   \   000003   ......       DC24    ZDO_ProcessMgmtNwkDiscReq

   \                                 In  segment BANK_RELAYS, align 1
   \                     ??ZDO_ProcessMgmtRtgReq?relay:
   \   000000   12....       LCALL   ?BDISPATCH
   \   000003   ......       DC24    ZDO_ProcessMgmtRtgReq

   \                                 In  segment BANK_RELAYS, align 1
   \                     ??ZDO_ProcessMgmtBindReq?relay:
   \   000000   12....       LCALL   ?BDISPATCH
   \   000003   ......       DC24    ZDO_ProcessMgmtBindReq

   \                                 In  segment BANK_RELAYS, align 1
   \                     ??ZDO_ProcessMgmtDirectJoinReq?relay:
   \   000000   12....       LCALL   ?BDISPATCH
   \   000003   ......       DC24    ZDO_ProcessMgmtDirectJoinReq

   \                                 In  segment BANK_RELAYS, align 1
   \                     ??ZDO_ProcessMgmtLeaveReq?relay:
   \   000000   12....       LCALL   ?BDISPATCH
   \   000003   ......       DC24    ZDO_ProcessMgmtLeaveReq

   \                                 In  segment BANK_RELAYS, align 1
   \                     ??ZDO_ProcessMgmtPermitJoinReq?relay:
   \   000000   12....       LCALL   ?BDISPATCH
   \   000003   ......       DC24    ZDO_ProcessMgmtPermitJoinReq

   \                                 In  segment BANK_RELAYS, align 1
   \                     ??NLME_PermitJoiningTimeout?relay:
   \   000000   12....       LCALL   ?BDISPATCH
   \   000003   ......       DC24    NLME_PermitJoiningTimeout

   \                                 In  segment BANK_RELAYS, align 1
   \                     ??ZDO_ProcessUserDescReq?relay:
   \   000000   12....       LCALL   ?BDISPATCH
   \   000003   ......       DC24    ZDO_ProcessUserDescReq

   \                                 In  segment BANK_RELAYS, align 1
   \                     ??ZDO_ProcessUserDescSet?relay:
   \   000000   12....       LCALL   ?BDISPATCH
   \   000003   ......       DC24    ZDO_ProcessUserDescSet

   \                                 In  segment BANK_RELAYS, align 1
   \                     ??ZDO_ProcessDeviceAnnce?relay:
   \   000000   12....       LCALL   ?BDISPATCH
   \   000003   ......       DC24    ZDO_ProcessDeviceAnnce

   \                                 In  segment BANK_RELAYS, align 1
   \                     ??ZDO_BuildSimpleDescBuf?relay:
   \   000000   12....       LCALL   ?BDISPATCH
   \   000003   ......       DC24    ZDO_BuildSimpleDescBuf

   \                                 In  segment BANK_RELAYS, align 1
   \                     ??ZDO_MatchEndDeviceBind?relay:
   \   000000   12....       LCALL   ?BDISPATCH
   \   000003   ......       DC24    ZDO_MatchEndDeviceBind

   \                                 In  segment BANK_RELAYS, align 1
   \                     ??ZDO_RemoveMatchMemory?relay:
   \   000000   12....       LCALL   ?BDISPATCH
   \   000003   ......       DC24    ZDO_RemoveMatchMemory

   \                                 In  segment BANK_RELAYS, align 1
   \                     ??ZDO_CopyMatchInfo?relay:
   \   000000   12....       LCALL   ?BDISPATCH
   \   000003   ......       DC24    ZDO_CopyMatchInfo

   \                                 In  segment BANK_RELAYS, align 1
   \                     ??ZDMatchSendState?relay:
   \   000000   12....       LCALL   ?BDISPATCH
   \   000003   ......       DC24    ZDMatchSendState

   \                                 In  segment BANK_RELAYS, align 1
   \                     ??ZDO_EndDeviceBindMatchTimeoutCB?relay:
   \   000000   12....       LCALL   ?BDISPATCH
   \   000003   ......       DC24    ZDO_EndDeviceBindMatchTimeoutCB

   \                                 In  segment BANK_RELAYS, align 1
   \                     ??ZDO_ParseEndDeviceBindReq?relay:
   \   000000   12....       LCALL   ?BDISPATCH
   \   000003   ......       DC24    ZDO_ParseEndDeviceBindReq

   \                                 In  segment BANK_RELAYS, align 1
   \                     ??ZDO_ParseBindUnbindReq?relay:
   \   000000   12....       LCALL   ?BDISPATCH
   \   000003   ......       DC24    ZDO_ParseBindUnbindReq

   \                                 In  segment BANK_RELAYS, align 1
   \                     ??ZDO_ParseAddrRsp?relay:
   \   000000   12....       LCALL   ?BDISPATCH
   \   000003   ......       DC24    ZDO_ParseAddrRsp

   \                                 In  segment BANK_RELAYS, align 1
   \                     ??ZDO_ParseNodeDescRsp?relay:
   \   000000   12....       LCALL   ?BDISPATCH
   \   000003   ......       DC24    ZDO_ParseNodeDescRsp

   \                                 In  segment BANK_RELAYS, align 1
   \                     ??ZDO_ParsePowerDescRsp?relay:
   \   000000   12....       LCALL   ?BDISPATCH
   \   000003   ......       DC24    ZDO_ParsePowerDescRsp

   \                                 In  segment BANK_RELAYS, align 1
   \                     ??ZDO_ParseSimpleDescRsp?relay:
   \   000000   12....       LCALL   ?BDISPATCH
   \   000003   ......       DC24    ZDO_ParseSimpleDescRsp

   \                                 In  segment BANK_RELAYS, align 1
   \                     ??ZDO_ParseEPListRsp?relay:
   \   000000   12....       LCALL   ?BDISPATCH
   \   000003   ......       DC24    ZDO_ParseEPListRsp

   \                                 In  segment BANK_RELAYS, align 1
   \                     ??ZDO_ParseServerDiscRsp?relay:
   \   000000   12....       LCALL   ?BDISPATCH
   \   000003   ......       DC24    ZDO_ParseServerDiscRsp

   \                                 In  segment BANK_RELAYS, align 1
   \                     ??ZDO_ParseMgmtLqiRsp?relay:
   \   000000   12....       LCALL   ?BDISPATCH
   \   000003   ......       DC24    ZDO_ParseMgmtLqiRsp

   \                                 In  segment BANK_RELAYS, align 1
   \                     ??ZDO_ParseMgmNwkDiscRsp?relay:
   \   000000   12....       LCALL   ?BDISPATCH
   \   000003   ......       DC24    ZDO_ParseMgmNwkDiscRsp

   \                                 In  segment BANK_RELAYS, align 1
   \                     ??ZDO_ParseMgmtRtgRsp?relay:
   \   000000   12....       LCALL   ?BDISPATCH
   \   000003   ......       DC24    ZDO_ParseMgmtRtgRsp

   \                                 In  segment BANK_RELAYS, align 1
   \                     ??ZDO_ParseMgmtBindRsp?relay:
   \   000000   12....       LCALL   ?BDISPATCH
   \   000003   ......       DC24    ZDO_ParseMgmtBindRsp

   \                                 In  segment BANK_RELAYS, align 1
   \                     ??ZDO_ParseUserDescRsp?relay:
   \   000000   12....       LCALL   ?BDISPATCH
   \   000003   ......       DC24    ZDO_ParseUserDescRsp

   \                                 In  segment BANK_RELAYS, align 1
   \                     ??ZDO_ParseSimpleDescBuf?relay:
   \   000000   12....       LCALL   ?BDISPATCH
   \   000003   ......       DC24    ZDO_ParseSimpleDescBuf

   \                                 In  segment BANK_RELAYS, align 1
   \                     ??ZDO_ParseDeviceAnnce?relay:
   \   000000   12....       LCALL   ?BDISPATCH
   \   000003   ......       DC24    ZDO_ParseDeviceAnnce

   \                                 In  segment BANK_RELAYS, align 1
   \                     ??ZDO_ParseMgmtNwkUpdateNotify?relay:
   \   000000   12....       LCALL   ?BDISPATCH
   \   000003   ......       DC24    ZDO_ParseMgmtNwkUpdateNotify

   \                                 In  segment BANK_RELAYS, align 1
   \                     ??ZDO_ParseMgmtNwkUpdateReq?relay:
   \   000000   12....       LCALL   ?BDISPATCH
   \   000003   ......       DC24    ZDO_ParseMgmtNwkUpdateReq

   \                                 In  segment XDATA_ROM_C, align 1
   \                     `?<Constant "StartDevice ERR">`:
   \   000000   53746172     DB "StartDevice ERR"
   \            74446576
   \            69636520
   \            45525200

   \                                 In  segment XDATA_ROM_C, align 1
   \                     `?<Constant "MODE unknown">`:
   \   000000   4D4F4445     DB "MODE unknown"
   \            20756E6B
   \            6E6F776E
   \            00      

   \                                 In  segment XDATA_ROM_C, align 1
   \                     `?<Constant "End Device Bind">`:
   \   000000   456E6420     DB "End Device Bind"
   \            44657669
   \            63652042
   \            696E6400

   \                                 In  segment XDATA_ROM_C, align 1
   \                     `?<Constant "Success Sent">`:
   \   000000   53756363     DB "Success Sent"
   \            65737320
   \            53656E74
   \            00      

   \                                 In  segment XDATA_ROM_C, align 1
   \                     `?<Constant "Timeout">`:
   \   000000   54696D65     DB "Timeout"
   \            6F757400

   \                                 In  segment XDATA_ROM_C, align 1
   \                     `?<Constant "Match Desc Req">`:
   \   000000   4D617463     DB "Match Desc Req"
   \            68204465
   \            73632052
   \            657100  

   \                                 In  segment XDATA_ROM_C, align 1
   \                     `?<Constant "Rsp Sent">`:
   \   000000   52737020     DB "Rsp Sent"
   \            53656E74
   \            00      

   \                                 In  segment XDATA_ROM_C, align 1
   \                     `?<Constant "Non Matched">`:
   \   000000   4E6F6E20     DB "Non Matched"
   \            4D617463
   \            68656400

   \                                 In  segment XDATA_ROM_C, align 1
   \                     __Constant_7fff800:
   \   000000   00F8FF07     DD 134215680

   \                                 In  segment XDATA_ROM_C, align 1
   \                     __Constant_0:
   \   000000   00000000     DD 0
   3078          
   3079          /*********************************************************************
   3080          *********************************************************************/
   3081          
   3082          

   Maximum stack usage in bytes:

     Function                       ISTACK PSTACK XSTACK
     --------                       ------ ------ ------
     NLME_PermitJoiningTimeout          0      0      0
     ZDMatchSendState                   1      0     67
       -> APS_SetEndDeviceBindTimeout
                                        0      0     70
       -> sAddrExtCpy                   0      0     70
       -> ZDP_BindUnbindReq             0      0     86
       -> APS_SetEndDeviceBindTimeout
                                        0      0     70
       -> ZDP_SendData                  0      0     80
       -> ZDP_SendData                  0      0     80
       -> ZDO_RemoveMatchMemory         0      0     70
     ZDODeviceSetup                     2      0      0
       -> APS_ReflectorInit             4      0      0
       -> NLME_DeviceJoiningInit        4      0      0
     ZDO_AnyClusterMatches              0      0     41
     ZDO_BuildSimpleDescBuf             1      0     14
     ZDO_CompareClusterLists            0      0     44
     ZDO_ConvertOTAClusters             0      0     38
     ZDO_CopyMatchInfo                  0      0     47
       -> osal_memcpy                   0      0     46
       -> osal_mem_alloc                0      0     40
       -> osal_memcpy                   0      0     46
       -> osal_mem_alloc                0      0     40
       -> osal_memcpy                   0      0     46
       -> osal_mem_free                 0      0     40
       -> osal_mem_free                 0      0     40
     ZDO_EndDeviceBindMatchTimeoutCB
                                        2      0      0
       -> ZDMatchSendState              4      0      0
     ZDO_EndDeviceTimeoutCB             2      0      0
       -> ZDO_SendEDBindRsp             4      0      0
       -> ZDO_RemoveEndDeviceBind       4      0      0
     ZDO_Init                           2      0      0
       -> sAddrExtCpy                   4      0      0
       -> ZDODeviceSetup                4      0      0
     ZDO_MatchEndDeviceBind             1      0     29
       -> osal_mem_alloc                0      0     48
       -> osal_memset                   0      0     48
       -> ZDO_CopyMatchInfo             0      0     48
       -> APS_SetEndDeviceBindTimeout
                                        0      0     48
       -> ZDO_CopyMatchInfo             0      0     48
       -> ZDO_CompareClusterLists       0      0     56
       -> osal_mem_alloc                0      0     48
       -> osal_memcpy                   0      0     54
       -> ZDO_CompareClusterLists       0      0     56
       -> osal_mem_alloc                0      0     48
       -> osal_memcpy                   0      0     54
       -> ZDMatchSendState              0      0     48
       -> ZDP_SendData                  0      0     58
       -> ZDP_SendData                  0      0     58
       -> ZDO_RemoveMatchMemory         0      0     48
     ZDO_ParseAddrRsp                   1      0     14
       -> osal_mem_alloc                0      0     28
       -> sAddrExtCpy                   0      0     28
     ZDO_ParseBindUnbindReq             1      0     10
       -> sAddrExtCpy                   0      0     20
       -> sAddrExtCpy                   0      0     20
     ZDO_ParseDeviceAnnce               1      0     42
       -> sAddrExtCpy                   0      0     20
     ZDO_ParseEPListRsp                 1      0     19
       -> osal_mem_alloc                0      0     32
       -> osal_memcpy                   0      0     38
     ZDO_ParseEndDeviceBindReq          1      0     16
       -> sAddrExtCpy                   0      0     32
       -> osal_mem_alloc                0      0     32
       -> ZDO_ConvertOTAClusters        0      0     32
       -> osal_mem_alloc                0      0     32
       -> ZDO_ConvertOTAClusters        0      0     32
     ZDO_ParseMgmNwkDiscRsp             1      0     16
       -> osal_mem_alloc                0      0     32
       -> sAddrExtCpy                   0      0     32
     ZDO_ParseMgmtBindRsp               1      0     16
       -> osal_mem_alloc                0      0     32
       -> sAddrExtCpy                   0      0     32
       -> sAddrExtCpy                   0      0     32
     ZDO_ParseMgmtLqiRsp                1      0     16
       -> osal_mem_alloc                0      0     32
       -> sAddrExtCpy                   0      0     32
     ZDO_ParseMgmtNwkUpdateNotify       1      0     23
       -> osal_build_uint32             0      0     40
       -> osal_mem_alloc                0      0     40
       -> osal_memcpy                   0      0     46
     ZDO_ParseMgmtNwkUpdateReq          1      0     14
       -> osal_build_uint32             0      0     28
     ZDO_ParseMgmtRtgRsp                1      0     14
       -> osal_mem_alloc                0      0     28
     ZDO_ParseNodeDescRsp               2      0      9
     ZDO_ParsePowerDescRsp              1      0     10
     ZDO_ParseServerDiscRsp             1      0      9
     ZDO_ParseSimpleDescBuf             1      0     22
       -> osal_mem_alloc                0      0     26
       -> osal_mem_alloc                0      0     26
       -> osal_mem_free                 0      0     26
     ZDO_ParseSimpleDescRsp             1      0      9
       -> ZDO_ParseSimpleDescBuf        0      0     18
     ZDO_ParseUserDescRsp               1      0     19
       -> osal_mem_alloc                0      0     32
       -> osal_memcpy                   0      0     38
     ZDO_ProcessActiveEPReq             0      0     21
       -> NLME_GetShortAddr             0      0     28
       -> afNumEndPoints                0      0     28
       -> afEndPoints                   0      0     28
       -> ZDP_EPRsp                     0      0     42
     ZDO_ProcessBindUnbindReq           1      0     33
       -> sAddrExtCpy                   0      0     56
       -> NLME_GetExtAddr               0      0     56
       -> sAddrExtCmp                   0      0     56
       -> bindNumOfEntries              0      0     56
       -> APSME_BindRequest             0      0     58
       -> ZDApp_NVUpdate                0      0     56
       -> APSME_LookupNwkAddr           0      0     56
       -> ZDP_NwkAddrReq                0      0     56
       -> APSME_UnBindRequest           0      0     58
       -> ZDApp_NVUpdate                0      0     56
       -> ZDP_SendData                  0      0     66
     ZDO_ProcessDeviceAnnce             3      0     32
       -> ZDO_ParseDeviceAnnce          4      0     64
       -> AddrMgrEntryLookupNwk         4      0     64
       -> osal_memset                   4      0     64
       -> sAddrExtCmp                   4      0     64
       -> AddrMgrExtAddrSet             4      0     64
       -> AddrMgrEntryUpdate            4      0     64
     ZDO_ProcessMatchDescReq            1      0     34
       -> NLME_IsAddressBroadcast       0      0     54
       -> ZDP_EPRsp                     0      0     68
       -> NLME_IsAddressBroadcast       0      0     54
       -> osal_mem_alloc                0      0     54
       -> ZDO_ConvertOTAClusters        0      0     54
       -> osal_mem_alloc                0      0     54
       -> ZDO_ConvertOTAClusters        0      0     54
       -> osal_msg_send                 0      0     54
       -> osal_mem_free                 0      0     54
       -> ZDO_AnyClusterMatches         0      0     58
       -> ZDO_AnyClusterMatches         0      0     58
       -> osal_msg_allocate             0      0     54
       -> osal_memcpy                   0      0     60
       -> osal_memcpy                   0      0     60
       -> ZDP_EPRsp                     0      0     68
       -> HalLcdWriteScreen             0      0     54
       -> HalLcdWriteScreen             0      0     54
       -> osal_mem_free                 0      0     54
       -> osal_mem_free                 0      0     54
     ZDO_ProcessMgmtBindReq             0      0     28
       -> APSME_GetRequest              0      0     46
       -> osal_mem_alloc                0      0     46
       -> APSME_GetRequest              0      0     46
       -> ZDP_MgmtBindRsp               0      0     56
       -> osal_mem_free                 0      0     46
     ZDO_ProcessMgmtDirectJoinReq       1      0     16
       -> NLME_DirectJoinRequest        0      0     22
       -> ZDP_SendData                  0      0     32
     ZDO_ProcessMgmtLeaveReq            1      0     23
       -> AddrMgrExtAddrValid           0      0     36
       -> NLME_GetExtAddr               0      0     36
       -> sAddrExtCmp                   0      0     36
       -> NLME_LeaveReq                 0      0     36
       -> ZDP_SendData                  0      0     46
     ZDO_ProcessMgmtLqiReq              1      0     64
       -> NLME_GetRequest               0      0    118
       -> AssocCount                    0      0    118
       -> osal_mem_alloc                0      0    118
       -> osal_memset                   0      0    118
       -> AssocFindDevice               0      0    118
       -> sAddrExtCpy                   0      0    118
       -> AddrMgrEntryLookupNwk         0      0    118
       -> sAddrExtCpy                   0      0    118
       -> NLME_GetRequest               0      0    118
       -> sAddrExtCpy                   0      0    118
       -> osal_memset                   0      0    118
       -> ZDP_MgmtLqiRsp                0      0    128
       -> osal_mem_free                 0      0    118
     ZDO_ProcessMgmtNwkDiscReq          1      0     21
       -> osal_build_uint32             0      0     42
       -> NLME_NwkDiscReq2              0      0     42
       -> NLME_NwkDiscTerm              0      0     42
     ZDO_ProcessMgmtPermitJoinReq       1      0     16
       -> NLME_PermitJoiningRequest     0      0     22
       -> ZDP_SendData                  0      0     32
     ZDO_ProcessMgmtRtgReq              1      0     26
       -> NLME_GetRequest               0      0     42
       -> osal_mem_alloc                0      0     42
       -> NLME_GetRequest               0      0     42
       -> ZDP_MgmtRtgRsp                0      0     52
       -> osal_mem_free                 0      0     42
     ZDO_ProcessNodeDescReq             0      0     14
       -> ZDP_NodeDescMsg               0      0     24
       -> ZDP_GenericRsp                0      0     28
     ZDO_ProcessPowerDescReq            0      0     14
       -> ZDP_PowerDescMsg              0      0     24
       -> ZDP_GenericRsp                0      0     28
     ZDO_ProcessServerDiscReq           0      0     14
       -> ZDP_ServerDiscRsp             0      0     28
     ZDO_ProcessSimpleDescReq           0      0     12
       -> afFindSimpleDesc              0      0     24
       -> ZDP_SimpleDescMsg             0      0     24
       -> osal_mem_free                 0      0     24
     ZDO_ProcessUserDescReq             0      0     33
       -> osal_nv_read                  0      0     66
       -> ZDP_UserDescRsp               0      0     64
       -> ZDP_GenericRsp                0      0     66
     ZDO_ProcessUserDescSet             1      0     39
       -> osal_memcpy                   0      0     74
       -> osal_nv_write                 0      0     76
       -> ZDP_SendData                  0      0     78
     ZDO_RemoveEndDeviceBind            2      0      0
       -> osal_mem_free                 4      0      0
       -> osal_mem_free                 4      0      0
       -> osal_mem_free                 4      0      0
     ZDO_RemoveMatchMemory              2      0     35
       -> osal_mem_free                 4      0      0
       -> osal_mem_free                 4      0      0
       -> osal_mem_free                 4      0      0
       -> osal_mem_free                 4      0      0
       -> osal_mem_free                 4      0      0
       -> osal_mem_free                 4      0      0
       -> osal_mem_free                 4      0      0
     ZDO_SendEDBindRsp                  1      0     17
       -> ZDP_SendData                  0      0     34
       -> HalLcdWriteString             0      0     24
       -> HalLcdWriteString             0      0     24
       -> HalLcdWriteString             0      0     24
     ZDO_StartDevice                    1      0     23
       -> NLME_NetworkDiscoveryRequest
                                        0      0     46
       -> nwk_ScanJoiningOrphan         0      0     46
       -> NLME_OrphanJoinRequest        0      0     46
       -> HalLcdWriteScreen             0      0     46
       -> osal_start_timerEx            0      0     46
     ZDO_UpdateAddrManager              3      0     13
       -> AddrMgrExtAddrSet             4      0     26
       -> AddrMgrEntryUpdate            4      0     26
     ZDO_UpdateNwkStatus                1      0     12
       -> NLME_GetShortAddr             0      0     24
       -> NLME_GetExtAddr               0      0     24
       -> osal_msg_allocate             0      0     24
       -> osal_msg_send                 0      0     24


   Segment part sizes:

     Function/Label                          Bytes
     --------------                          -----
     ZDOBuildBuf                               52
     ZDO_EDBind                                 2
     matchED                                    2
     apsChannelMask                             4
     ZDO_Init                                  32
     ZDODeviceSetup                            29
     ZDO_StartDevice                          274
     discRetries                                1
     ZDO_UpdateNwkStatus                      121
     ZDO_RemoveEndDeviceBind                  109
     ZDO_SendEDBindRsp                        130
     ZDO_CompareClusterLists                  141
     ZDO_AnyClusterMatches                    104
     ZDO_ProcessNodeDescReq                   167
     ZDO_ProcessPowerDescReq                  167
     ZDO_ProcessSimpleDescReq                 207
     ZDO_ProcessActiveEPReq                   183
     ZDO_ConvertOTAClusters                    68
     ZDO_ProcessMatchDescReq                 1426
     ZDO_ProcessBindUnbindReq                 526
     ZDO_UpdateAddrManager                     64
     ZDO_ProcessServerDiscReq                 126
     ZDO_EndDeviceTimeoutCB                    88
     ZDO_ProcessMgmtLqiReq                   1045
     ZDO_ProcessMgmtNwkDiscReq                193
     ZDO_ProcessMgmtRtgReq                    358
     ZDO_ProcessMgmtBindReq                   409
     ZDO_ProcessMgmtDirectJoinReq             139
     ZDO_ProcessMgmtLeaveReq                  231
     ZDO_ProcessMgmtPermitJoinReq             131
     NLME_PermitJoiningTimeout                  3
     ZDO_ProcessUserDescReq                   244
     ZDO_ProcessUserDescSet                   325
     ZDO_ProcessDeviceAnnce                   153
     ZDO_BuildSimpleDescBuf                   333
     ZDO_MatchEndDeviceBind                  1055
     ZDO_RemoveMatchMemory                    252
     ZDO_CopyMatchInfo                        494
     ZDMatchSendState                         980
     ZDO_EndDeviceBindMatchTimeoutCB
                                               20
     ZDO_ParseEndDeviceBindReq                459
     ZDO_ParseBindUnbindReq                   214
     ZDO_ParseAddrRsp                         320
     ZDO_ParseNodeDescRsp                     444
     ZDO_ParsePowerDescRsp                    241
     ZDO_ParseSimpleDescRsp                    87
     ZDO_ParseEPListRsp                       159
     ZDO_ParseServerDiscRsp                    77
     ZDO_ParseMgmtLqiRsp                      269
     ZDO_ParseMgmNwkDiscRsp                   387
     ZDO_ParseMgmtRtgRsp                      233
     ZDO_ParseMgmtBindRsp                     377
     ZDO_ParseUserDescRsp                     171
     ZDO_ParseSimpleDescBuf                   447
     ZDO_ParseDeviceAnnce                     103
     ZDO_ParseMgmtNwkUpdateNotify             605
     ZDO_ParseMgmtNwkUpdateReq                192
     ??ZDO_Init?relay                           6
     ??ZDODeviceSetup?relay                     6
     ??ZDO_StartDevice?relay                    6
     ??ZDO_UpdateNwkStatus?relay                6
     ??ZDO_RemoveEndDeviceBind?relay            6
     ??ZDO_SendEDBindRsp?relay                  6
     ??ZDO_CompareClusterLists?relay            6
     ??ZDO_AnyClusterMatches?relay              6
     ??ZDO_ProcessNodeDescReq?relay             6
     ??ZDO_ProcessPowerDescReq?relay            6
     ??ZDO_ProcessSimpleDescReq?relay           6
     ??ZDO_ProcessActiveEPReq?relay             6
     ??ZDO_ConvertOTAClusters?relay             6
     ??ZDO_ProcessMatchDescReq?relay            6
     ??ZDO_ProcessBindUnbindReq?relay           6
     ??ZDO_UpdateAddrManager?relay              6
     ??ZDO_ProcessServerDiscReq?relay           6
     ??ZDO_EndDeviceTimeoutCB?relay             6
     ??ZDO_ProcessMgmtLqiReq?relay              6
     ??ZDO_ProcessMgmtNwkDiscReq?relay          6
     ??ZDO_ProcessMgmtRtgReq?relay              6
     ??ZDO_ProcessMgmtBindReq?relay             6
     ??ZDO_ProcessMgmtDirectJoinReq?relay       6
     ??ZDO_ProcessMgmtLeaveReq?relay            6
     ??ZDO_ProcessMgmtPermitJoinReq?relay       6
     ??NLME_PermitJoiningTimeout?relay          6
     ??ZDO_ProcessUserDescReq?relay             6
     ??ZDO_ProcessUserDescSet?relay             6
     ??ZDO_ProcessDeviceAnnce?relay             6
     ??ZDO_BuildSimpleDescBuf?relay             6
     ??ZDO_MatchEndDeviceBind?relay             6
     ??ZDO_RemoveMatchMemory?relay              6
     ??ZDO_CopyMatchInfo?relay                  6
     ??ZDMatchSendState?relay                   6
     ??ZDO_EndDeviceBindMatchTimeoutCB?relay    6
     ??ZDO_ParseEndDeviceBindReq?relay          6
     ??ZDO_ParseBindUnbindReq?relay             6
     ??ZDO_ParseAddrRsp?relay                   6
     ??ZDO_ParseNodeDescRsp?relay               6
     ??ZDO_ParsePowerDescRsp?relay              6
     ??ZDO_ParseSimpleDescRsp?relay             6
     ??ZDO_ParseEPListRsp?relay                 6
     ??ZDO_ParseServerDiscRsp?relay             6
     ??ZDO_ParseMgmtLqiRsp?relay                6
     ??ZDO_ParseMgmNwkDiscRsp?relay             6
     ??ZDO_ParseMgmtRtgRsp?relay                6
     ??ZDO_ParseMgmtBindRsp?relay               6
     ??ZDO_ParseUserDescRsp?relay               6
     ??ZDO_ParseSimpleDescBuf?relay             6
     ??ZDO_ParseDeviceAnnce?relay               6
     ??ZDO_ParseMgmtNwkUpdateNotify?relay       6
     ??ZDO_ParseMgmtNwkUpdateReq?relay          6
     ?<Constant "StartDevice ERR">             16
     ?<Constant "MODE unknown">                13
     ?<Constant "End Device Bind">             16
     ?<Constant "Success Sent">                13
     ?<Constant "Timeout">                      8
     ?<Constant "Match Desc Req">              15
     ?<Constant "Rsp Sent">                     9
     ?<Constant "Non Matched">                 12
     __Constant_7fff800                         4
     __Constant_0                               4

 
 15 112 bytes in segment BANKED_CODE
    312 bytes in segment BANK_RELAYS
    110 bytes in segment XDATA_ROM_C
     61 bytes in segment XDATA_Z
 
 15 424 bytes of CODE  memory
    102 bytes of CONST memory (+ 8 bytes shared)
     61 bytes of XDATA memory

Errors: none
Warnings: none
