###############################################################################
#                                                                             #
# IAR C/C++ Compiler V7.51A/W32 for 8051                08/Apr/2013  11:22:26 #
# Copyright 2004-2009 IAR Systems AB.                                         #
#                                                                             #
#    Core               =  plain                                              #
#    Code model         =  banked                                             #
#    Data model         =  large                                              #
#    Calling convention =  xdata reentrant                                    #
#    Constant location  =  data_rom                                           #
#    Dptr setup         =  1,16                                               #
#    Source file        =  C:\Texas Instruments\ZStack-CC2530-2.2.2-1.3.0\Com #
#                          ponents\stack\zdo\ZDProfile.c                      #
#    Command line       =  -f "C:\Texas Instruments\ZStack-CC2530-2.2.2-1.3.0 #
#                          \Projects\zstack\Samples\WSN_sensors\CC2530DB\..\. #
#                          .\..\Tools\CC2530DB\f8wRouter.cfg" (-DCPU32MHZ     #
#                          -DROOT=__near_func -DMAC_CFG_APP_PENDING_QUEUE=TRU #
#                          E -DRTR_NWK -DBLINK_LEDS) -f "C:\Texas             #
#                          Instruments\ZStack-CC2530-2.2.2-1.3.0\Projects\zst #
#                          ack\Samples\WSN_sensors\CC2530DB\..\..\..\Tools\CC #
#                          2530DB\f8wConfig.cfg" (-DSECURE=0                  #
#                          -DZG_SECURE_DYNAMIC=0 -DREFLECTOR                  #
#                          -DDEFAULT_CHANLIST=0x00000800                      #
#                          -DZDAPP_CONFIG_PAN_ID=0xFFFF                       #
#                          -DNWK_START_DELAY=100 -DEXTENDED_JOINING_RANDOM_MA #
#                          SK=0x007F -DBEACON_REQUEST_DELAY=100               #
#                          -DBEACON_REQ_DELAY_MASK=0x00FF                     #
#                          -DROUTE_EXPIRY_TIME=30 -DAPSC_ACK_WAIT_DURATION_PO #
#                          LLED=3000 -DNWK_INDIRECT_MSG_TIMEOUT=7             #
#                          -DMAX_RREQ_ENTRIES=8 -DAPSC_MAX_FRAME_RETRIES=3    #
#                          -DNWK_MAX_DATA_RETRIES=2                           #
#                          -DMAX_POLL_FAILURE_RETRIES=2 -DMAX_BCAST=9         #
#                          -DAPS_MAX_GROUPS=16 -DMAX_RTG_ENTRIES=40           #
#                          -DNWK_MAX_BINDING_ENTRIES=4                        #
#                          -DMAX_BINDING_CLUSTER_IDS=4 "-DDEFAULT_KEY={0x01,  #
#                          0x03, 0x05, 0x07, 0x09, 0x0B, 0x0D, 0x0F, 0x00,    #
#                          0x02, 0x04, 0x06, 0x08, 0x0A, 0x0C, 0x0D}"         #
#                          -DMAC_MAX_FRAME_SIZE=116 "-DCONST=const __code"    #
#                          -DGENERIC=__generic -DRFD_RCVC_ALWAYS_ON=FALSE     #
#                          -DPOLL_RATE=1000 -DQUEUED_POLL_RATE=100            #
#                          -DRESPONSE_POLL_RATE=100) -DREJOIN_POLL_RATE=440   #
#                          "C:\Texas Instruments\ZStack-CC2530-2.2.2-1.3.0\Co #
#                          mponents\stack\zdo\ZDProfile.c" -D ZTOOL_P1 -D     #
#                          MT_TASK -D MT_SYS_FUNC -D MT_ZDO_FUNC -D           #
#                          LCD_SUPPORTED=DEBUG -lC "C:\Texas                  #
#                          Instruments\ZStack-CC2530-2.2.2-1.3.0\Projects\zst #
#                          ack\Samples\WSN_sensors\CC2530DB\RouterEB\List\"   #
#                          -lA "C:\Texas Instruments\ZStack-CC2530-2.2.2-1.3. #
#                          0\Projects\zstack\Samples\WSN_sensors\CC2530DB\Rou #
#                          terEB\List\" --diag_suppress Pe001,Pa010 -o        #
#                          "C:\Texas Instruments\ZStack-CC2530-2.2.2-1.3.0\Pr #
#                          ojects\zstack\Samples\WSN_sensors\CC2530DB\RouterE #
#                          B\Obj\" -e --require_prototypes --no_unroll        #
#                          --no_inline --no_tbaa --debug --core=plain         #
#                          --dptr=16,1 --data_model=large                     #
#                          --code_model=banked --calling_convention=xdata_ree #
#                          ntrant --place_constants=data_rom                  #
#                          --nr_virtual_regs 8 -I "C:\Texas                   #
#                          Instruments\ZStack-CC2530-2.2.2-1.3.0\Projects\zst #
#                          ack\Samples\WSN_sensors\CC2530DB\" -I "C:\Texas    #
#                          Instruments\ZStack-CC2530-2.2.2-1.3.0\Projects\zst #
#                          ack\Samples\WSN_sensors\CC2530DB\..\SOURCE\" -I    #
#                          "C:\Texas Instruments\ZStack-CC2530-2.2.2-1.3.0\Pr #
#                          ojects\zstack\Samples\WSN_sensors\CC2530DB\..\..\. #
#                          .\ZMAIN\TI2530DB\" -I "C:\Texas                    #
#                          Instruments\ZStack-CC2530-2.2.2-1.3.0\Projects\zst #
#                          ack\Samples\WSN_sensors\CC2530DB\..\..\..\..\..\CO #
#                          MPONENTS\MT\" -I "C:\Texas                         #
#                          Instruments\ZStack-CC2530-2.2.2-1.3.0\Projects\zst #
#                          ack\Samples\WSN_sensors\CC2530DB\..\..\..\..\..\CO #
#                          MPONENTS\HAL\INCLUDE\" -I "C:\Texas                #
#                          Instruments\ZStack-CC2530-2.2.2-1.3.0\Projects\zst #
#                          ack\Samples\WSN_sensors\CC2530DB\..\..\..\..\..\CO #
#                          MPONENTS\HAL\TARGET\CC2530EB\" -I "C:\Texas        #
#                          Instruments\ZStack-CC2530-2.2.2-1.3.0\Projects\zst #
#                          ack\Samples\WSN_sensors\CC2530DB\..\..\..\..\..\CO #
#                          MPONENTS\OSAL\MCU\CCSOC\" -I "C:\Texas             #
#                          Instruments\ZStack-CC2530-2.2.2-1.3.0\Projects\zst #
#                          ack\Samples\WSN_sensors\CC2530DB\..\..\..\..\..\CO #
#                          MPONENTS\OSAL\INCLUDE\" -I "C:\Texas               #
#                          Instruments\ZStack-CC2530-2.2.2-1.3.0\Projects\zst #
#                          ack\Samples\WSN_sensors\CC2530DB\..\..\..\..\..\CO #
#                          MPONENTS\STACK\AF\" -I "C:\Texas                   #
#                          Instruments\ZStack-CC2530-2.2.2-1.3.0\Projects\zst #
#                          ack\Samples\WSN_sensors\CC2530DB\..\..\..\..\..\CO #
#                          MPONENTS\STACK\NWK\" -I "C:\Texas                  #
#                          Instruments\ZStack-CC2530-2.2.2-1.3.0\Projects\zst #
#                          ack\Samples\WSN_sensors\CC2530DB\..\..\..\..\..\CO #
#                          MPONENTS\STACK\SEC\" -I "C:\Texas                  #
#                          Instruments\ZStack-CC2530-2.2.2-1.3.0\Projects\zst #
#                          ack\Samples\WSN_sensors\CC2530DB\..\..\..\..\..\CO #
#                          MPONENTS\STACK\SAPI\" -I "C:\Texas                 #
#                          Instruments\ZStack-CC2530-2.2.2-1.3.0\Projects\zst #
#                          ack\Samples\WSN_sensors\CC2530DB\..\..\..\..\..\CO #
#                          MPONENTS\STACK\SYS\" -I "C:\Texas                  #
#                          Instruments\ZStack-CC2530-2.2.2-1.3.0\Projects\zst #
#                          ack\Samples\WSN_sensors\CC2530DB\..\..\..\..\..\CO #
#                          MPONENTS\STACK\ZDO\" -I "C:\Texas                  #
#                          Instruments\ZStack-CC2530-2.2.2-1.3.0\Projects\zst #
#                          ack\Samples\WSN_sensors\CC2530DB\..\..\..\..\..\CO #
#                          MPONENTS\ZMAC\F8W\" -I "C:\Texas                   #
#                          Instruments\ZStack-CC2530-2.2.2-1.3.0\Projects\zst #
#                          ack\Samples\WSN_sensors\CC2530DB\..\..\..\..\..\CO #
#                          MPONENTS\ZMAC\" -I "C:\Texas                       #
#                          Instruments\ZStack-CC2530-2.2.2-1.3.0\Projects\zst #
#                          ack\Samples\WSN_sensors\CC2530DB\..\..\..\..\..\CO #
#                          MPONENTS\SERVICES\SADDR\" -I "C:\Texas             #
#                          Instruments\ZStack-CC2530-2.2.2-1.3.0\Projects\zst #
#                          ack\Samples\WSN_sensors\CC2530DB\..\..\..\..\..\CO #
#                          MPONENTS\SERVICES\SDATA\" -I "C:\Texas             #
#                          Instruments\ZStack-CC2530-2.2.2-1.3.0\Projects\zst #
#                          ack\Samples\WSN_sensors\CC2530DB\..\..\..\..\..\CO #
#                          MPONENTS\MAC\INCLUDE\" -I "C:\Texas                #
#                          Instruments\ZStack-CC2530-2.2.2-1.3.0\Projects\zst #
#                          ack\Samples\WSN_sensors\CC2530DB\..\..\..\..\..\CO #
#                          MPONENTS\MAC\HIGH_LEVEL\" -I "C:\Texas             #
#                          Instruments\ZStack-CC2530-2.2.2-1.3.0\Projects\zst #
#                          ack\Samples\WSN_sensors\CC2530DB\..\..\..\..\..\CO #
#                          MPONENTS\MAC\LOW_LEVEL\srf04\" -I "C:\Texas        #
#                          Instruments\ZStack-CC2530-2.2.2-1.3.0\Projects\zst #
#                          ack\Samples\WSN_sensors\CC2530DB\..\..\..\..\..\CO #
#                          MPONENTS\MAC\LOW_LEVEL\srf04\SINGLE_CHIP\" -I      #
#                          "D:\Program Files\IAR Systems\Embedded Workbench   #
#                          5.3\8051\INC\" -I "D:\Program Files\IAR            #
#                          Systems\Embedded Workbench 5.3\8051\INC\CLIB\" -Om #
#    List file          =  C:\Texas Instruments\ZStack-CC2530-2.2.2-1.3.0\Pro #
#                          jects\zstack\Samples\WSN_sensors\CC2530DB\RouterEB #
#                          \List\ZDProfile.lst                                #
#    Object file        =  C:\Texas Instruments\ZStack-CC2530-2.2.2-1.3.0\Pro #
#                          jects\zstack\Samples\WSN_sensors\CC2530DB\RouterEB #
#                          \Obj\ZDProfile.r51                                 #
#                                                                             #
#                                                                             #
###############################################################################

C:\Texas Instruments\ZStack-CC2530-2.2.2-1.3.0\Components\stack\zdo\ZDProfile.c
      1          /**************************************************************************************************
      2            Filename:       ZDProfile.c
      3            Revised:        $Date: 2009-08-06 14:54:27 -0700 (Thu, 06 Aug 2009) $
      4            Revision:       $Revision: 20492 $
      5          
      6            Description:    This is the Zigbee Device Profile.
      7          
      8          
      9            Copyright 2004-2009 Texas Instruments Incorporated. All rights reserved.
     10          
     11            IMPORTANT: Your use of this Software is limited to those specific rights
     12            granted under the terms of a software license agreement between the user
     13            who downloaded the software, his/her employer (which must be your employer)
     14            and Texas Instruments Incorporated (the "License").  You may not use this
     15            Software unless you agree to abide by the terms of the License. The License
     16            limits your use, and you acknowledge, that the Software may not be modified,
     17            copied or distributed unless embedded on a Texas Instruments microcontroller
     18            or used solely and exclusively in conjunction with a Texas Instruments radio
     19            frequency transceiver, which is integrated into your product.  Other than for
     20            the foregoing purpose, you may not use, reproduce, copy, prepare derivative
     21            works of, modify, distribute, perform, display or sell this Software and/or
     22            its documentation for any purpose.
     23          
     24            YOU FURTHER ACKNOWLEDGE AND AGREE THAT THE SOFTWARE AND DOCUMENTATION ARE
     25            PROVIDED “AS IS” WITHOUT WARRANTY OF ANY KIND, EITHER EXPRESS OR IMPLIED,
     26            INCLUDING WITHOUT LIMITATION, ANY WARRANTY OF MERCHANTABILITY, TITLE,
     27            NON-INFRINGEMENT AND FITNESS FOR A PARTICULAR PURPOSE. IN NO EVENT SHALL
     28            TEXAS INSTRUMENTS OR ITS LICENSORS BE LIABLE OR OBLIGATED UNDER CONTRACT,
     29            NEGLIGENCE, STRICT LIABILITY, CONTRIBUTION, BREACH OF WARRANTY, OR OTHER
     30            LEGAL EQUITABLE THEORY ANY DIRECT OR INDIRECT DAMAGES OR EXPENSES
     31            INCLUDING BUT NOT LIMITED TO ANY INCIDENTAL, SPECIAL, INDIRECT, PUNITIVE
     32            OR CONSEQUENTIAL DAMAGES, LOST PROFITS OR LOST DATA, COST OF PROCUREMENT
     33            OF SUBSTITUTE GOODS, TECHNOLOGY, SERVICES, OR ANY CLAIMS BY THIRD PARTIES
     34            (INCLUDING BUT NOT LIMITED TO ANY DEFENSE THEREOF), OR OTHER SIMILAR COSTS.
     35          
     36            Should you have any questions regarding your right to use this Software,
     37            contact Texas Instruments Incorporated at www.TI.com.
     38          **************************************************************************************************/
     39          
     40          /*********************************************************************
     41           * INCLUDES
     42           */
     43          #include "ZComdef.h"
     44          #include "OSAL.h"
     45          #include "AF.h"
     46          #include "NLMEDE.h"
     47          #include "nwk_util.h"
     48          #include "APS.h"
     49          
     50          #include "AddrMgr.h"
     51          #include "ZDConfig.h"
     52          #include "ZDProfile.h"
     53          #include "ZDObject.h"
     54          #include "ZDNwkMgr.h"
     55          
     56          #if defined( LCD_SUPPORTED )
     57            #include "OnBoard.h"
     58          #endif
     59          
     60          #include "nwk_util.h"
     61          
     62          #if defined( MT_ZDO_FUNC )
     63            #include "MT_ZDO.h"
     64          #endif
     65          
     66          /*********************************************************************
     67           * MACROS
     68           */
     69          
     70          #define ZADDR_TO_AFADDR( pZADDR, AFADDR ) {                            \
     71            (AFADDR).endPoint = ZDP_AF_ENDPOINT;                                 \
     72            (AFADDR).addrMode = (afAddrMode_t)(pZADDR)->addrMode;                \
     73            (AFADDR).addr.shortAddr = (pZADDR)->addr.shortAddr;                  \
     74          }
     75          
     76          #define FillAndSendBuffer( TRANSSEQ, ADDR, ID, LEN, BUF ) {     \
     77            afStatus_t stat;                                    \
     78            ZDP_TmpBuf = (BUF)+1;                               \
     79            stat = fillAndSend( (TRANSSEQ), (ADDR), (ID), (LEN) );          \
     80            osal_mem_free( (BUF) );                             \
     81            ZDP_TmpBuf = ZDP_Buf+1;                             \
     82            return stat;                                        \
     83          }
     84          
     85          #define FillAndSendTxOptions( TRANSSEQ, ADDR, ID, LEN, TxO ) {  \
     86            afStatus_t stat;                                    \
     87            ZDP_TxOptions = (TxO);                              \
     88            stat = fillAndSend( (TRANSSEQ), (ADDR), (ID), (LEN) );          \
     89            ZDP_TxOptions = AF_TX_OPTIONS_NONE;                 \
     90            return stat;                                        \
     91          }
     92          
     93          #define FillAndSendBufferTxOptions( TRANSSEQ, ADDR, ID, LEN, BUF, TxO ) { \
     94            afStatus_t stat;                                    \
     95            ZDP_TmpBuf = (BUF)+1;                               \
     96            ZDP_TxOptions = (TxO);                              \
     97            stat = fillAndSend( (TRANSSEQ), (ADDR), (ID), (LEN) );          \
     98            osal_mem_free( (BUF) );                             \
     99            ZDP_TmpBuf = ZDP_Buf+1;                             \
    100            ZDP_TxOptions = AF_TX_OPTIONS_NONE;                 \
    101            return stat;                                        \
    102          }
    103          
    104          /*********************************************************************
    105           * CONSTANTS
    106           */
    107          
    108          #define ZDP_BUF_SZ          80
    109          

   \                                 In  segment CODE_C, align 1
    110          CONST byte ZDP_AF_ENDPOINT = 0;
   \                     ZDP_AF_ENDPOINT:
   \   000000   00           DB 0
    111          
    112          /*********************************************************************
    113           * TYPEDEFS
    114           */
    115          typedef struct
    116          {
    117            void *next;
    118            uint8 taskID;
    119            uint16 clusterID;
    120          } ZDO_MsgCB_t;
    121          
    122          
    123          /*********************************************************************
    124           * GLOBAL VARIABLES
    125           */
    126          

   \                                 In  segment XDATA_Z, align 1, keep-with-next
    127          byte ZDP_TransID = 0;
   \                     ZDP_TransID:
   \   000000                DS 1
   \   000001                REQUIRE __INIT_XDATA_Z
    128          
    129          /*********************************************************************
    130           * EXTERNAL VARIABLES
    131           */
    132          
    133          extern endPointDesc_t ZDApp_epDesc;
    134          
    135          /*********************************************************************
    136           * EXTERNAL FUNCTIONS
    137           */
    138          
    139          /*********************************************************************
    140           * LOCAL FUNCTIONS
    141           */
    142          
    143          static afStatus_t fillAndSend( uint8 *transSeq, zAddrType_t *addr, cId_t clusterID, byte len );
    144          uint8 ZDO_SendMsgCBs( zdoIncomingMsg_t *inMsg );
    145          void zdpProcessAddrReq( zdoIncomingMsg_t *inMsg );
    146          
    147          /*********************************************************************
    148           * LOCAL VARIABLES
    149           */
    150          

   \                                 In  segment XDATA_Z, align 1, keep-with-next
    151          static uint8  ZDP_Buf[ ZDP_BUF_SZ ];
   \                     ZDP_Buf:
   \   000000                DS 80
   \   000050                REQUIRE __INIT_XDATA_Z

   \                                 In  segment XDATA_I, align 1, keep-with-next
    152          static uint8 *ZDP_TmpBuf = ZDP_Buf+1;
   \                     ZDP_TmpBuf:
   \   000000                DS 2
   \   000002                REQUIRE `?<Initializer for ZDP_TmpBuf>`
   \   000002                REQUIRE __INIT_XDATA_I

   \                                 In  segment XDATA_Z, align 1, keep-with-next
    153          static byte ZDP_TxOptions = AF_TX_OPTIONS_NONE;
   \                     ZDP_TxOptions:
   \   000000                DS 1
   \   000001                REQUIRE __INIT_XDATA_Z
    154          

   \                                 In  segment XDATA_Z, align 1, keep-with-next
    155          ZDO_MsgCB_t *zdoMsgCBs = (ZDO_MsgCB_t *)NULL;
   \                     zdoMsgCBs:
   \   000000                DS 2
   \   000002                REQUIRE __INIT_XDATA_Z
    156          
    157          /*********************************************************************
    158           * ZDO Message Processing table
    159           */
    160          
    161          typedef void (*pfnZDPMsgProcessor)( zdoIncomingMsg_t *inMsg );
    162          
    163          typedef struct
    164          {
    165            uint16                clusterID;
    166            pfnZDPMsgProcessor    pFn;
    167          } zdpMsgProcItem_t;
    168          

   \                                 In  segment CODE_C, align 1
    169          CONST zdpMsgProcItem_t zdpMsgProcs[] =
   \                     zdpMsgProcs:
   \   000000   0000....     DW 0, ??zdpProcessAddrReq?relay, 19, ??ZDO_ProcessDeviceAnnce?relay, 1
   \            1300....
   \            0100    
   \   00000A   ....0200     DW ??zdpProcessAddrReq?relay, 2, ??ZDO_ProcessNodeDescReq?relay, 3
   \            ....0300
   \   000012   ....0400     DW ??ZDO_ProcessPowerDescReq?relay, 4, ??ZDO_ProcessSimpleDescReq?relay
   \            ....    
   \   000018   0500....     DW 5, ??ZDO_ProcessActiveEPReq?relay, 6
   \            0600    
   \   00001E   ....1100     DW ??ZDO_ProcessMatchDescReq?relay, 17, ??ZDO_ProcessUserDescReq?relay
   \            ....    
   \   000024   1400....     DW 20, ??ZDO_ProcessUserDescSet?relay, 21
   \            1500    
   \   00002A   ....FFFF     DW ??ZDO_ProcessServerDiscReq?relay, 65535, 0H
   \            0000    
    170          {
    171          #if ( RFD_RCVC_ALWAYS_ON==TRUE ) || ( ZG_BUILD_RTR_TYPE )
    172            // These aren't processed by sleeping end devices.
    173            { NWK_addr_req,           zdpProcessAddrReq },
    174            { Device_annce,           ZDO_ProcessDeviceAnnce },
    175          #endif
    176            { IEEE_addr_req,          zdpProcessAddrReq },
    177            { Node_Desc_req,          ZDO_ProcessNodeDescReq },
    178            { Power_Desc_req,         ZDO_ProcessPowerDescReq },
    179            { Simple_Desc_req,        ZDO_ProcessSimpleDescReq },
    180            { Active_EP_req,          ZDO_ProcessActiveEPReq },
    181            { Match_Desc_req,         ZDO_ProcessMatchDescReq },
    182          #if defined ( ZDO_MGMT_NWKDISC_RESPONSE )
    183            { Mgmt_NWK_Disc_req,      ZDO_ProcessMgmtNwkDiscReq },
    184          #endif
    185          #if defined ( ZDO_MGMT_LQI_RESPONSE ) && ( ZG_BUILD_RTR_TYPE )
    186            { Mgmt_Lqi_req,           ZDO_ProcessMgmtLqiReq },
    187          #endif
    188          #if defined ( ZDO_MGMT_RTG_RESPONSE ) && ( ZG_BUILD_RTR_TYPE )
    189            { Mgmt_Rtg_req,           ZDO_ProcessMgmtRtgReq },
    190          #endif
    191          #if defined ( ZDO_MGMT_BIND_RESPONSE ) && defined ( REFLECTOR )
    192            { Mgmt_Bind_req,          ZDO_ProcessMgmtBindReq },
    193          #endif
    194          #if defined ( ZDO_MGMT_JOINDIRECT_RESPONSE ) && ( ZG_BUILD_RTR_TYPE )
    195            { Mgmt_Direct_Join_req,   ZDO_ProcessMgmtDirectJoinReq },
    196          #endif
    197          #if defined ( ZDO_MGMT_LEAVE_RESPONSE )
    198            { Mgmt_Leave_req,         ZDO_ProcessMgmtLeaveReq },
    199          #endif
    200          #if defined ( ZDO_MGMT_PERMIT_JOIN_RESPONSE )  && ( ZG_BUILD_RTR_TYPE )
    201            { Mgmt_Permit_Join_req,   ZDO_ProcessMgmtPermitJoinReq },
    202          #endif
    203          #if defined ( ZDO_USERDESC_RESPONSE )
    204            { User_Desc_req,          ZDO_ProcessUserDescReq },
    205          #endif
    206          #if defined ( ZDO_USERDESCSET_RESPONSE )
    207            { User_Desc_set,          ZDO_ProcessUserDescSet },
    208          #endif
    209          #if defined ( ZDO_SERVERDISC_RESPONSE )
    210            { Server_Discovery_req,   ZDO_ProcessServerDiscReq },
    211          #endif
    212            {0xFFFF, NULL} // Last
    213          };
    214          
    215          /*********************************************************************
    216           * @fn          fillAndSend
    217           *
    218           * @brief       Combined to reduce space
    219           *
    220           * @param
    221           * @param
    222           *
    223           * @return      afStatus_t
    224           */

   \                                 In  segment BANKED_CODE, align 1, keep-with-next
    225          static afStatus_t fillAndSend( uint8 *transSeq, zAddrType_t *addr, cId_t clusterID, byte len )
   \                     fillAndSend:
    226          {
   \   000000   74F2         MOV     A,#-0xe
   \   000002   12....       LCALL   ?BANKED_ENTER_XDATA
   \   000005                ; Saved register size: 14
   \   000005                ; Auto size: 12
   \   000005   74F4         MOV     A,#-0xc
   \   000007   12....       LCALL   ?ALLOC_XSTACK8
   \   00000A   8A..         MOV     ?V0 + 4,R2
   \   00000C   8B..         MOV     ?V0 + 5,R3
   \   00000E   8C..         MOV     ?V0 + 2,R4
   \   000010   8D..         MOV     ?V0 + 3,R5
   \   000012   89..         MOV     ?V0 + 0,R1
   \   000014   741A         MOV     A,#0x1a
   \   000016   12....       LCALL   ?XSTACK_DISP0_8
   \   000019   E0           MOVX    A,@DPTR
   \   00001A   FE           MOV     R6,A
   \   00001B   A3           INC     DPTR
   \   00001C   E0           MOVX    A,@DPTR
   \   00001D   FF           MOV     R7,A
    227            afAddrType_t afAddr;
    228          
    229            osal_memset( &afAddr, 0, sizeof(afAddrType_t) );
   \   00001E                ; Setup parameters for call to function osal_memset
   \   00001E   7C0C         MOV     R4,#0xc
   \   000020   7D00         MOV     R5,#0x0
   \   000022   7900         MOV     R1,#0x0
   \   000024   85..82       MOV     DPL,?XSP + 0
   \   000027   85..83       MOV     DPH,?XSP + 1
   \   00002A   AA82         MOV     R2,DPL
   \   00002C   AB83         MOV     R3,DPH
   \   00002E   12....       LCALL   ??osal_memset?relay
    230            ZADDR_TO_AFADDR( addr, afAddr );
   \   000031   E4           CLR     A
   \   000032   C0E0         PUSH    A
   \   000034   7409         MOV     A,#0x9
   \   000036   12....       LCALL   ?XSTACK_DISP0_8
   \   000039   D0E0         POP     A
   \   00003B   F0           MOVX    @DPTR,A
   \   00003C   85..82       MOV     DPL,?V0 + 2
   \   00003F   85..83       MOV     DPH,?V0 + 3
   \   000042   A3           INC     DPTR
   \   000043   A3           INC     DPTR
   \   000044   A3           INC     DPTR
   \   000045   A3           INC     DPTR
   \   000046   A3           INC     DPTR
   \   000047   A3           INC     DPTR
   \   000048   A3           INC     DPTR
   \   000049   A3           INC     DPTR
   \   00004A   E0           MOVX    A,@DPTR
   \   00004B   C0E0         PUSH    A
   \   00004D   7408         MOV     A,#0x8
   \   00004F   12....       LCALL   ?XSTACK_DISP0_8
   \   000052   D0E0         POP     A
   \   000054   F0           MOVX    @DPTR,A
   \   000055   85..82       MOV     DPL,?V0 + 2
   \   000058   85..83       MOV     DPH,?V0 + 3
   \   00005B   E0           MOVX    A,@DPTR
   \   00005C   F8           MOV     R0,A
   \   00005D   A3           INC     DPTR
   \   00005E   E0           MOVX    A,@DPTR
   \   00005F   F9           MOV     R1,A
   \   000060   85..82       MOV     DPL,?XSP + 0
   \   000063   85..83       MOV     DPH,?XSP + 1
   \   000066   E8           MOV     A,R0
   \   000067   F0           MOVX    @DPTR,A
   \   000068   A3           INC     DPTR
   \   000069   E9           MOV     A,R1
   \   00006A   F0           MOVX    @DPTR,A
    231          
    232            *(ZDP_TmpBuf-1) = *transSeq;
   \   00006B   90....       MOV     DPTR,#ZDP_TmpBuf
   \   00006E   E0           MOVX    A,@DPTR
   \   00006F   24FF         ADD     A,#-0x1
   \   000071   F5..         MOV     ?V0 + 2,A
   \   000073   A3           INC     DPTR
   \   000074   E0           MOVX    A,@DPTR
   \   000075   34FF         ADDC    A,#-0x1
   \   000077   F5..         MOV     ?V0 + 3,A
   \   000079   85..82       MOV     DPL,?V0 + 4
   \   00007C   85..83       MOV     DPH,?V0 + 5
   \   00007F   E0           MOVX    A,@DPTR
   \   000080   85..82       MOV     DPL,?V0 + 2
   \   000083   85..83       MOV     DPH,?V0 + 3
   \   000086   F0           MOVX    @DPTR,A
    233          
    234            return AF_DataRequest( &afAddr, &ZDApp_epDesc, clusterID,
    235                                     (uint16)(len+1), (uint8*)(ZDP_TmpBuf-1),
    236                                     transSeq, ZDP_TxOptions,  AF_DEFAULT_RADIUS );
   \   000087                ; Setup parameters for call to function AF_DataRequest
   \   000087   75..1E       MOV     ?V0 + 1,#0x1e
   \   00008A   78..         MOV     R0,#?V0 + 1
   \   00008C   12....       LCALL   ?PUSH_XSTACK_I_ONE
   \   00008F   78..         MOV     R0,#?V0 + 4
   \   000091   12....       LCALL   ?PUSH_XSTACK_I_TWO
   \   000094   78..         MOV     R0,#?V0 + 2
   \   000096   12....       LCALL   ?PUSH_XSTACK_I_TWO
   \   000099   7401         MOV     A,#0x1
   \   00009B   25..         ADD     A,?V0 + 0
   \   00009D   F5..         MOV     ?V0 + 0,A
   \   00009F   E4           CLR     A
   \   0000A0   3400         ADDC    A,#0x0
   \   0000A2   F5..         MOV     ?V0 + 1,A
   \   0000A4   78..         MOV     R0,#?V0 + 0
   \   0000A6   12....       LCALL   ?PUSH_XSTACK_I_TWO
   \   0000A9   8E..         MOV     ?V0 + 0,R6
   \   0000AB   8F..         MOV     ?V0 + 1,R7
   \   0000AD   78..         MOV     R0,#?V0 + 0
   \   0000AF   12....       LCALL   ?PUSH_XSTACK_I_TWO
   \   0000B2   90....       MOV     DPTR,#ZDP_TxOptions
   \   0000B5   E0           MOVX    A,@DPTR
   \   0000B6   F9           MOV     R1,A
   \   0000B7   7C..         MOV     R4,#(ZDApp_epDesc & 0xff)
   \   0000B9   7D..         MOV     R5,#((ZDApp_epDesc >> 8) & 0xff)
   \   0000BB   7409         MOV     A,#0x9
   \   0000BD   12....       LCALL   ?XSTACK_DISP0_8
   \   0000C0   AA82         MOV     R2,DPL
   \   0000C2   AB83         MOV     R3,DPH
   \   0000C4   12....       LCALL   ??AF_DataRequest?relay
   \   0000C7   7409         MOV     A,#0x9
   \   0000C9   12....       LCALL   ?DEALLOC_XSTACK8
   \   0000CC   740C         MOV     A,#0xc
   \   0000CE   12....       LCALL   ?DEALLOC_XSTACK8
   \   0000D1   7F06         MOV     R7,#0x6
   \   0000D3   02....       LJMP    ?BANKED_LEAVE_XDATA
    237          
    238          }
    239          
    240          /*********************************************************************
    241           * @fn          ZDP_SendData
    242           *
    243           * @brief       This builds and send a request message that has
    244           *              NWKAddrOfInterest as its only parameter.
    245           *
    246           * @param       dstAddr - destination address
    247           * @param       cmd - clusterID
    248           * @param       dataLen - number of bytes of data
    249           * @param       data - pointer to the data
    250           * @param       SecurityEnable - Security Options
    251           *
    252           * @return      afStatus_t
    253           */

   \                                 In  segment BANKED_CODE, align 1, keep-with-next
    254          afStatus_t ZDP_SendData( uint8 *TransSeq, zAddrType_t *dstAddr, uint16 cmd,
   \                     ZDP_SendData:
    255                                  byte len, uint8 *buf, byte SecurityEnable )
    256          {
   \   000000   74F2         MOV     A,#-0xe
   \   000002   12....       LCALL   ?BANKED_ENTER_XDATA
   \   000005                ; Saved register size: 14
   \   000005                ; Auto size: 0
   \   000005   89..         MOV     ?V0 + 2,R1
   \   000007   740E         MOV     A,#0xe
   \   000009   12....       LCALL   ?XSTACK_DISP0_8
   \   00000C   E0           MOVX    A,@DPTR
   \   00000D   F5..         MOV     ?V0 + 0,A
   \   00000F   A3           INC     DPTR
   \   000010   E0           MOVX    A,@DPTR
   \   000011   F5..         MOV     ?V0 + 1,A
   \   000013   7410         MOV     A,#0x10
   \   000015   12....       LCALL   ?XSTACK_DISP0_8
   \   000018   E0           MOVX    A,@DPTR
   \   000019   FE           MOV     R6,A
   \   00001A   A3           INC     DPTR
   \   00001B   E0           MOVX    A,@DPTR
   \   00001C   FF           MOV     R7,A
   \   00001D   7412         MOV     A,#0x12
   \   00001F   12....       LCALL   ?XSTACK_DISP0_8
   \   000022   E0           MOVX    A,@DPTR
   \   000023   F5..         MOV     ?V0 + 3,A
    257            uint8 *pBuf = ZDP_TmpBuf;
   \   000025   90....       MOV     DPTR,#ZDP_TmpBuf
   \   000028   E0           MOVX    A,@DPTR
   \   000029   F8           MOV     R0,A
   \   00002A   A3           INC     DPTR
   \   00002B   E0           MOVX    A,@DPTR
   \   00002C   F9           MOV     R1,A
    258            byte cnt = len;
   \   00002D   85....       MOV     ?V0 + 4,?V0 + 2
   \   000030   801C         SJMP    ??ZDP_SendData_0
    259          
    260            while ( cnt-- )
    261            {
    262              *pBuf++ = *buf++;
   \                     ??ZDP_SendData_1:
   \   000032   8E82         MOV     DPL,R6
   \   000034   8F83         MOV     DPH,R7
   \   000036   E0           MOVX    A,@DPTR
   \   000037   8882         MOV     DPL,R0
   \   000039   8983         MOV     DPH,R1
   \   00003B   F0           MOVX    @DPTR,A
   \   00003C   8E82         MOV     DPL,R6
   \   00003E   8F83         MOV     DPH,R7
   \   000040   A3           INC     DPTR
   \   000041   AE82         MOV     R6,DPL
   \   000043   AF83         MOV     R7,DPH
   \   000045   8882         MOV     DPL,R0
   \   000047   8983         MOV     DPH,R1
   \   000049   A3           INC     DPTR
   \   00004A   A882         MOV     R0,DPL
   \   00004C   A983         MOV     R1,DPH
    263            }
   \                     ??ZDP_SendData_0:
   \   00004E   85....       MOV     ?V0 + 5,?V0 + 4
   \   000051   74FF         MOV     A,#-0x1
   \   000053   25..         ADD     A,?V0 + 5
   \   000055   F5..         MOV     ?V0 + 4,A
   \   000057   E5..         MOV     A,?V0 + 5
   \   000059   70D7         JNZ     ??ZDP_SendData_1
    264          
    265            FillAndSendTxOptions( TransSeq, dstAddr, cmd, len,
    266                         (AF_DEFAULT_RADIUS | ((SecurityEnable) ? AF_EN_SECURITY : 0)) );
   \   00005B   E5..         MOV     A,?V0 + 3
   \   00005D   6004         JZ      ??ZDP_SendData_2
   \   00005F   7840         MOV     R0,#0x40
   \   000061   8002         SJMP    ??ZDP_SendData_3
   \                     ??ZDP_SendData_2:
   \   000063   7800         MOV     R0,#0x0
   \                     ??ZDP_SendData_3:
   \   000065   E8           MOV     A,R0
   \   000066   441E         ORL     A,#0x1e
   \   000068   90....       MOV     DPTR,#ZDP_TxOptions
   \   00006B   F0           MOVX    @DPTR,A
   \   00006C                ; Setup parameters for call to function fillAndSend
   \   00006C   78..         MOV     R0,#?V0 + 0
   \   00006E   12....       LCALL   ?PUSH_XSTACK_I_TWO
   \   000071   A9..         MOV     R1,?V0 + 2
   \   000073   12....       LCALL   ??fillAndSend?relay
   \   000076   7402         MOV     A,#0x2
   \   000078   12....       LCALL   ?DEALLOC_XSTACK8
   \   00007B   E4           CLR     A
   \   00007C   90....       MOV     DPTR,#ZDP_TxOptions
   \   00007F   F0           MOVX    @DPTR,A
   \   000080   7F06         MOV     R7,#0x6
   \   000082   02....       LJMP    ?BANKED_LEAVE_XDATA
    267          }
    268          
    269          /*********************************************************************
    270           * @fn          ZDP_NWKAddrOfInterestReq
    271           *
    272           * @brief       This builds and send a request message that has
    273           *              NWKAddrOfInterest as its only parameter.
    274           *
    275           * @param       dstAddr - destination address
    276           * @param       nwkAddr - 16 bit address
    277           * @param       SecurityEnable - Security Options
    278           *
    279           * @return      afStatus_t
    280           */

   \                                 In  segment BANKED_CODE, align 1, keep-with-next
    281          afStatus_t ZDP_NWKAddrOfInterestReq( zAddrType_t *dstAddr, uint16 nwkAddr,
   \                     ZDP_NWKAddrOfInterestReq:
    282                                               byte cmd, byte SecurityEnable )
    283          {
   \   000000   74F6         MOV     A,#-0xa
   \   000002   12....       LCALL   ?BANKED_ENTER_XDATA
   \   000005                ; Saved register size: 10
   \   000005                ; Auto size: 0
    284            (void)SecurityEnable;  // Intentionally unreferenced parameter
    285          
    286            ZDP_TmpBuf[0] = LO_UINT16( nwkAddr );
   \   000005   EC           MOV     A,R4
   \   000006   C0E0         PUSH    A
   \   000008   90....       MOV     DPTR,#ZDP_TmpBuf
   \   00000B   E0           MOVX    A,@DPTR
   \   00000C   F8           MOV     R0,A
   \   00000D   A3           INC     DPTR
   \   00000E   E0           MOVX    A,@DPTR
   \   00000F   F583         MOV     DPH,A
   \   000011   8882         MOV     DPL,R0
   \   000013   D0E0         POP     A
   \   000015   F0           MOVX    @DPTR,A
    287            ZDP_TmpBuf[1] = HI_UINT16( nwkAddr );
   \   000016   ED           MOV     A,R5
   \   000017   C0E0         PUSH    A
   \   000019   90....       MOV     DPTR,#ZDP_TmpBuf
   \   00001C   E0           MOVX    A,@DPTR
   \   00001D   F8           MOV     R0,A
   \   00001E   A3           INC     DPTR
   \   00001F   E0           MOVX    A,@DPTR
   \   000020   F583         MOV     DPH,A
   \   000022   8882         MOV     DPL,R0
   \   000024   A3           INC     DPTR
   \   000025   D0E0         POP     A
   \   000027   F0           MOVX    @DPTR,A
    288          
    289            return fillAndSend( &ZDP_TransID, dstAddr, cmd, 2 );
   \   000028                ; Setup parameters for call to function fillAndSend
   \   000028   89..         MOV     ?V0 + 0,R1
   \   00002A   75..00       MOV     ?V0 + 1,#0x0
   \   00002D   78..         MOV     R0,#?V0 + 0
   \   00002F   12....       LCALL   ?PUSH_XSTACK_I_TWO
   \   000032   7902         MOV     R1,#0x2
   \   000034   EA           MOV     A,R2
   \   000035   FC           MOV     R4,A
   \   000036   EB           MOV     A,R3
   \   000037   FD           MOV     R5,A
   \   000038   7A..         MOV     R2,#(ZDP_TransID & 0xff)
   \   00003A   7B..         MOV     R3,#((ZDP_TransID >> 8) & 0xff)
   \   00003C   12....       LCALL   ??fillAndSend?relay
   \   00003F   7402         MOV     A,#0x2
   \   000041   12....       LCALL   ?DEALLOC_XSTACK8
   \   000044   7F02         MOV     R7,#0x2
   \   000046   02....       LJMP    ?BANKED_LEAVE_XDATA
    290          }
    291          
    292          /*********************************************************************
    293           * Address Requests
    294           */
    295          
    296          /*********************************************************************
    297           * @fn          ZDP_NwkAddrReq
    298           *
    299           * @brief       This builds and send a NWK_addr_req message.  This
    300           *              function sends a broadcast message looking for a 16
    301           *              bit address with a 64 bit address as bait.
    302           *
    303           * @param       IEEEAddress - looking for this device
    304           * @param       SecurityEnable - Security Options
    305           *
    306           * @return      afStatus_t
    307           */

   \                                 In  segment BANKED_CODE, align 1, keep-with-next
    308          afStatus_t ZDP_NwkAddrReq( uint8 *IEEEAddress, byte ReqType,
   \                     ZDP_NwkAddrReq:
    309                                     byte StartIndex, byte SecurityEnable )
    310          {
   \   000000   74F4         MOV     A,#-0xc
   \   000002   12....       LCALL   ?BANKED_ENTER_XDATA
   \   000005                ; Saved register size: 12
   \   000005                ; Auto size: 9
   \   000005   74F7         MOV     A,#-0x9
   \   000007   12....       LCALL   ?ALLOC_XSTACK8
   \   00000A   8A..         MOV     ?V0 + 2,R2
   \   00000C   8B..         MOV     ?V0 + 3,R3
   \   00000E   89..         MOV     ?V0 + 0,R1
   \   000010   8C..         MOV     ?V0 + 1,R4
    311            uint8 *pBuf = ZDP_TmpBuf;
   \   000012   90....       MOV     DPTR,#ZDP_TmpBuf
   \   000015   E0           MOVX    A,@DPTR
   \   000016   FE           MOV     R6,A
   \   000017   A3           INC     DPTR
   \   000018   E0           MOVX    A,@DPTR
   \   000019   FF           MOV     R7,A
    312            byte len = Z_EXTADDR_LEN + 1 + 1;  // IEEEAddress + ReqType + StartIndex.
    313            zAddrType_t dstAddr;
    314          
    315            (void)SecurityEnable;  // Intentionally unreferenced parameter
    316          
    317            if ( osal_ExtAddrEqual( saveExtAddr, IEEEAddress ) == FALSE )
   \   00001A                ; Setup parameters for call to function sAddrExtCmp
   \   00001A   AC..         MOV     R4,?V0 + 2
   \   00001C   AD..         MOV     R5,?V0 + 3
   \   00001E   7A..         MOV     R2,#(saveExtAddr & 0xff)
   \   000020   7B..         MOV     R3,#((saveExtAddr >> 8) & 0xff)
   \   000022   12....       LCALL   ??sAddrExtCmp?relay
   \   000025   E9           MOV     A,R1
   \   000026   701A         JNZ     ??ZDP_NwkAddrReq_0
    318            {
    319              dstAddr.addrMode = AddrBroadcast;
   \   000028   740F         MOV     A,#0xf
   \   00002A   C0E0         PUSH    A
   \   00002C   7408         MOV     A,#0x8
   \   00002E   12....       LCALL   ?XSTACK_DISP0_8
   \   000031   D0E0         POP     A
   \   000033   F0           MOVX    @DPTR,A
    320              dstAddr.addr.shortAddr = NWK_BROADCAST_SHORTADDR_DEVRXON;
   \   000034   85..82       MOV     DPL,?XSP + 0
   \   000037   85..83       MOV     DPH,?XSP + 1
   \   00003A   74FD         MOV     A,#-0x3
   \   00003C   F0           MOVX    @DPTR,A
   \   00003D   A3           INC     DPTR
   \   00003E   74FF         MOV     A,#-0x1
   \   000040   801E         SJMP    ??ZDP_NwkAddrReq_1
    321            }
    322            else
    323            {
    324              dstAddr.addrMode = Addr16Bit;
   \                     ??ZDP_NwkAddrReq_0:
   \   000042   7402         MOV     A,#0x2
   \   000044   C0E0         PUSH    A
   \   000046   7408         MOV     A,#0x8
   \   000048   12....       LCALL   ?XSTACK_DISP0_8
   \   00004B   D0E0         POP     A
   \   00004D   F0           MOVX    @DPTR,A
    325              dstAddr.addr.shortAddr = ZDAppNwkAddr.addr.shortAddr;
   \   00004E   90....       MOV     DPTR,#ZDAppNwkAddr
   \   000051   E0           MOVX    A,@DPTR
   \   000052   F8           MOV     R0,A
   \   000053   A3           INC     DPTR
   \   000054   E0           MOVX    A,@DPTR
   \   000055   F9           MOV     R1,A
   \   000056   85..82       MOV     DPL,?XSP + 0
   \   000059   85..83       MOV     DPH,?XSP + 1
   \   00005C   E8           MOV     A,R0
   \   00005D   F0           MOVX    @DPTR,A
   \   00005E   A3           INC     DPTR
   \   00005F   E9           MOV     A,R1
   \                     ??ZDP_NwkAddrReq_1:
   \   000060   F0           MOVX    @DPTR,A
    326            }
    327          
    328            pBuf = osal_cpyExtAddr( pBuf, IEEEAddress );
   \   000061                ; Setup parameters for call to function sAddrExtCpy
   \   000061   AC..         MOV     R4,?V0 + 2
   \   000063   AD..         MOV     R5,?V0 + 3
   \   000065   EE           MOV     A,R6
   \   000066   FA           MOV     R2,A
   \   000067   EF           MOV     A,R7
   \   000068   FB           MOV     R3,A
   \   000069   12....       LCALL   ??sAddrExtCpy?relay
   \   00006C   8A..         MOV     ?V0 + 2,R2
   \   00006E   8B..         MOV     ?V0 + 3,R3
   \   000070   AE..         MOV     R6,?V0 + 2
   \   000072   AF..         MOV     R7,?V0 + 3
    329          
    330            *pBuf++ = ReqType;
   \   000074   8E82         MOV     DPL,R6
   \   000076   8F83         MOV     DPH,R7
   \   000078   E5..         MOV     A,?V0 + 0
   \   00007A   F0           MOVX    @DPTR,A
   \   00007B   A3           INC     DPTR
    331            *pBuf++ = StartIndex;
   \   00007C   E5..         MOV     A,?V0 + 1
   \   00007E   F0           MOVX    @DPTR,A
    332          
    333            return fillAndSend( &ZDP_TransID, &dstAddr, NWK_addr_req, len );
   \   00007F                ; Setup parameters for call to function fillAndSend
   \   00007F   75..00       MOV     ?V0 + 0,#0x0
   \   000082   75..00       MOV     ?V0 + 1,#0x0
   \   000085   78..         MOV     R0,#?V0 + 0
   \   000087   12....       LCALL   ?PUSH_XSTACK_I_TWO
   \   00008A   790A         MOV     R1,#0xa
   \   00008C   7402         MOV     A,#0x2
   \   00008E   12....       LCALL   ?XSTACK_DISP0_8
   \   000091   AC82         MOV     R4,DPL
   \   000093   AD83         MOV     R5,DPH
   \   000095   7A..         MOV     R2,#(ZDP_TransID & 0xff)
   \   000097   7B..         MOV     R3,#((ZDP_TransID >> 8) & 0xff)
   \   000099   12....       LCALL   ??fillAndSend?relay
   \   00009C   7402         MOV     A,#0x2
   \   00009E   12....       LCALL   ?DEALLOC_XSTACK8
   \   0000A1   7409         MOV     A,#0x9
   \   0000A3   12....       LCALL   ?DEALLOC_XSTACK8
   \   0000A6   7F04         MOV     R7,#0x4
   \   0000A8   02....       LJMP    ?BANKED_LEAVE_XDATA
    334          }
    335          
    336          /*********************************************************************
    337           * @fn          ZDP_IEEEAddrReq
    338           *
    339           * @brief       This builds and send a IEEE_addr_req message.  This
    340           *              function sends a unicast message looking for a 64
    341           *              bit IEEE address with a 16 bit address as bait.
    342           *
    343           * @param       ReqType - ZDP_IEEEADDR_REQTYPE_SINGLE or
    344           *                        ZDP_IEEEADDR_REQTYPE_EXTENDED
    345           * @param       SecurityEnable - Security Options
    346           *
    347           * @return      afStatus_t
    348           */

   \                                 In  segment BANKED_CODE, align 1, keep-with-next
    349          afStatus_t ZDP_IEEEAddrReq( uint16 shortAddr, byte ReqType,
   \                     ZDP_IEEEAddrReq:
    350                                      byte StartIndex, byte SecurityEnable )
    351          {
   \   000000   74F6         MOV     A,#-0xa
   \   000002   12....       LCALL   ?BANKED_ENTER_XDATA
   \   000005                ; Saved register size: 10
   \   000005                ; Auto size: 9
   \   000005   74F7         MOV     A,#-0x9
   \   000007   12....       LCALL   ?ALLOC_XSTACK8
   \   00000A   E9           MOV     A,R1
   \   00000B   FD           MOV     R5,A
    352            uint8 *pBuf = ZDP_TmpBuf;
   \   00000C   90....       MOV     DPTR,#ZDP_TmpBuf
   \   00000F   E0           MOVX    A,@DPTR
   \   000010   F8           MOV     R0,A
   \   000011   A3           INC     DPTR
   \   000012   E0           MOVX    A,@DPTR
   \   000013   F9           MOV     R1,A
    353            byte len = 2 + 1 + 1;  // shortAddr + ReqType + StartIndex.
    354            zAddrType_t dstAddr;
    355          
    356            (void)SecurityEnable;  // Intentionally unreferenced parameter
    357          
    358            dstAddr.addrMode = (afAddrMode_t)Addr16Bit;
   \   000014   7402         MOV     A,#0x2
   \   000016   C0E0         PUSH    A
   \   000018   7408         MOV     A,#0x8
   \   00001A   12....       LCALL   ?XSTACK_DISP0_8
   \   00001D   D0E0         POP     A
   \   00001F   F0           MOVX    @DPTR,A
    359            dstAddr.addr.shortAddr = shortAddr;
   \   000020   85..82       MOV     DPL,?XSP + 0
   \   000023   85..83       MOV     DPH,?XSP + 1
   \   000026   EA           MOV     A,R2
   \   000027   F0           MOVX    @DPTR,A
   \   000028   A3           INC     DPTR
   \   000029   EB           MOV     A,R3
   \   00002A   F0           MOVX    @DPTR,A
    360          
    361            *pBuf++ = LO_UINT16( shortAddr );
   \   00002B   EA           MOV     A,R2
   \   00002C   8882         MOV     DPL,R0
   \   00002E   8983         MOV     DPH,R1
   \   000030   F0           MOVX    @DPTR,A
   \   000031   A3           INC     DPTR
    362            *pBuf++ = HI_UINT16( shortAddr );
   \   000032   EB           MOV     A,R3
   \   000033   F0           MOVX    @DPTR,A
   \   000034   A3           INC     DPTR
    363          
    364            *pBuf++ = ReqType;
   \   000035   ED           MOV     A,R5
   \   000036   F0           MOVX    @DPTR,A
   \   000037   A3           INC     DPTR
    365            *pBuf++ = StartIndex;
   \   000038   EC           MOV     A,R4
   \   000039   F0           MOVX    @DPTR,A
    366          
    367            return fillAndSend( &ZDP_TransID, &dstAddr, IEEE_addr_req, len );
   \   00003A                ; Setup parameters for call to function fillAndSend
   \   00003A   75..01       MOV     ?V0 + 0,#0x1
   \   00003D   75..00       MOV     ?V0 + 1,#0x0
   \   000040   78..         MOV     R0,#?V0 + 0
   \   000042   12....       LCALL   ?PUSH_XSTACK_I_TWO
   \   000045   7904         MOV     R1,#0x4
   \   000047   7402         MOV     A,#0x2
   \   000049   12....       LCALL   ?XSTACK_DISP0_8
   \   00004C   AC82         MOV     R4,DPL
   \   00004E   AD83         MOV     R5,DPH
   \   000050   7A..         MOV     R2,#(ZDP_TransID & 0xff)
   \   000052   7B..         MOV     R3,#((ZDP_TransID >> 8) & 0xff)
   \   000054   12....       LCALL   ??fillAndSend?relay
   \   000057   7402         MOV     A,#0x2
   \   000059   12....       LCALL   ?DEALLOC_XSTACK8
   \   00005C   7409         MOV     A,#0x9
   \   00005E   12....       LCALL   ?DEALLOC_XSTACK8
   \   000061   7F02         MOV     R7,#0x2
   \   000063   02....       LJMP    ?BANKED_LEAVE_XDATA
    368          }
    369          
    370          /*********************************************************************
    371           * @fn          ZDP_MatchDescReq
    372           *
    373           * @brief       This builds and send a Match_Desc_req message.  This
    374           *              function sends a broadcast or unicast message
    375           *              requesting the list of endpoint/interfaces that
    376           *              match profile ID and cluster IDs.
    377           *
    378           * @param       dstAddr - destination address
    379           * @param       ProfileID - Profile ID
    380           * @param       NumInClusters - number of input clusters
    381           * @param       InClusterList - input cluster ID list
    382           * @param       NumOutClusters - number of output clusters
    383           * @param       OutClusterList - output cluster ID list
    384           * @param       SecurityEnable - Security Options
    385           *
    386           * @return      afStatus_t
    387           */

   \                                 In  segment BANKED_CODE, align 1, keep-with-next
    388          afStatus_t ZDP_MatchDescReq( zAddrType_t *dstAddr, uint16 nwkAddr,
   \                     ZDP_MatchDescReq:
    389                                          uint16 ProfileID,
    390                                          byte NumInClusters, cId_t *InClusterList,
    391                                          byte NumOutClusters, cId_t *OutClusterList,
    392                                          byte SecurityEnable )
    393          {
   \   000000   74F0         MOV     A,#-0x10
   \   000002   12....       LCALL   ?BANKED_ENTER_XDATA
   \   000005                ; Saved register size: 16
   \   000005                ; Auto size: 0
   \   000005   8A..         MOV     ?V0 + 6,R2
   \   000007   8B..         MOV     ?V0 + 7,R3
   \   000009   E9           MOV     A,R1
   \   00000A   FF           MOV     R7,A
   \   00000B   7410         MOV     A,#0x10
   \   00000D   12....       LCALL   ?XSTACK_DISP0_8
   \   000010   E0           MOVX    A,@DPTR
   \   000011   FA           MOV     R2,A
   \   000012   A3           INC     DPTR
   \   000013   E0           MOVX    A,@DPTR
   \   000014   FB           MOV     R3,A
   \   000015   7412         MOV     A,#0x12
   \   000017   12....       LCALL   ?XSTACK_DISP0_8
   \   00001A   E0           MOVX    A,@DPTR
   \   00001B   F5..         MOV     ?V0 + 0,A
   \   00001D   A3           INC     DPTR
   \   00001E   E0           MOVX    A,@DPTR
   \   00001F   F5..         MOV     ?V0 + 1,A
   \   000021   7414         MOV     A,#0x14
   \   000023   12....       LCALL   ?XSTACK_DISP0_8
   \   000026   E0           MOVX    A,@DPTR
   \   000027   F5..         MOV     ?V0 + 4,A
   \   000029   7415         MOV     A,#0x15
   \   00002B   12....       LCALL   ?XSTACK_DISP0_8
   \   00002E   E0           MOVX    A,@DPTR
   \   00002F   F5..         MOV     ?V0 + 2,A
   \   000031   A3           INC     DPTR
   \   000032   E0           MOVX    A,@DPTR
   \   000033   F5..         MOV     ?V0 + 3,A
    394            uint8 *pBuf = ZDP_TmpBuf;
   \   000035   90....       MOV     DPTR,#ZDP_TmpBuf
   \   000038   E0           MOVX    A,@DPTR
   \   000039   F8           MOV     R0,A
   \   00003A   A3           INC     DPTR
   \   00003B   E0           MOVX    A,@DPTR
   \   00003C   F9           MOV     R1,A
    395            // nwkAddr+ProfileID+NumInClusters+NumOutClusters.
    396            byte i, len = 2 + 2 + 1 + 1;  // nwkAddr+ProfileID+NumInClusters+NumOutClusters.
    397          
    398            (void)SecurityEnable;  // Intentionally unreferenced parameter
    399          
    400            len += (NumInClusters + NumOutClusters) * sizeof(uint16);
   \   00003D   E5..         MOV     A,?V0 + 4
   \   00003F   2F           ADD     A,R7
   \   000040   C3           CLR     C
   \   000041   33           RLC     A
   \   000042   2406         ADD     A,#0x6
   \   000044   FE           MOV     R6,A
    401          
    402            if ( len >= ZDP_BUF_SZ-1 )
   \   000045   C3           CLR     C
   \   000046   944F         SUBB    A,#0x4f
   \   000048   4005         JC      ??ZDP_MatchDescReq_0
    403            {
    404              return afStatus_MEM_FAIL;
   \   00004A   7910         MOV     R1,#0x10
   \   00004C   02....       LJMP    ??ZDP_MatchDescReq_1 & 0xFFFF
    405            }
    406          
    407            *pBuf++ = LO_UINT16( nwkAddr );   // NWKAddrOfInterest
   \                     ??ZDP_MatchDescReq_0:
   \   00004F   EC           MOV     A,R4
   \   000050   8882         MOV     DPL,R0
   \   000052   8983         MOV     DPH,R1
   \   000054   F0           MOVX    @DPTR,A
   \   000055   A3           INC     DPTR
    408            *pBuf++ = HI_UINT16( nwkAddr );
   \   000056   ED           MOV     A,R5
   \   000057   F0           MOVX    @DPTR,A
   \   000058   A3           INC     DPTR
    409          
    410            *pBuf++ = LO_UINT16( ProfileID );   // Profile ID
   \   000059   EA           MOV     A,R2
   \   00005A   F0           MOVX    @DPTR,A
   \   00005B   A3           INC     DPTR
    411            *pBuf++ = HI_UINT16( ProfileID );
   \   00005C   EB           MOV     A,R3
   \   00005D   F0           MOVX    @DPTR,A
   \   00005E   A3           INC     DPTR
    412          
    413            *pBuf++ = NumInClusters; // Input cluster list
   \   00005F   EF           MOV     A,R7
   \   000060   F0           MOVX    @DPTR,A
   \   000061   A3           INC     DPTR
   \   000062   A882         MOV     R0,DPL
   \   000064   A983         MOV     R1,DPH
    414            if ( NumInClusters )
   \   000066   603B         JZ      ??ZDP_MatchDescReq_2
    415            {
    416              for (i=0; i<NumInClusters; ++i)  {
   \   000068   75..00       MOV     ?V0 + 5,#0x0
   \   00006B   8030         SJMP    ??ZDP_MatchDescReq_3
    417                *pBuf++ = LO_UINT16( InClusterList[i] );
   \                     ??ZDP_MatchDescReq_4:
   \   00006D   E5..         MOV     A,?V0 + 5
   \   00006F   C3           CLR     C
   \   000070   33           RLC     A
   \   000071   FA           MOV     R2,A
   \   000072   E4           CLR     A
   \   000073   33           RLC     A
   \   000074   FB           MOV     R3,A
   \   000075   E5..         MOV     A,?V0 + 0
   \   000077   2A           ADD     A,R2
   \   000078   FC           MOV     R4,A
   \   000079   E5..         MOV     A,?V0 + 1
   \   00007B   3B           ADDC    A,R3
   \   00007C   FD           MOV     R5,A
   \   00007D   8C82         MOV     DPL,R4
   \   00007F   8D83         MOV     DPH,R5
   \   000081   E0           MOVX    A,@DPTR
   \   000082   8882         MOV     DPL,R0
   \   000084   8983         MOV     DPH,R1
   \   000086   F0           MOVX    @DPTR,A
   \   000087   A3           INC     DPTR
   \   000088   A882         MOV     R0,DPL
   \   00008A   A983         MOV     R1,DPH
    418                *pBuf++ = HI_UINT16( InClusterList[i] );
   \   00008C   8C82         MOV     DPL,R4
   \   00008E   8D83         MOV     DPH,R5
   \   000090   A3           INC     DPTR
   \   000091   E0           MOVX    A,@DPTR
   \   000092   8882         MOV     DPL,R0
   \   000094   8983         MOV     DPH,R1
   \   000096   F0           MOVX    @DPTR,A
   \   000097   A3           INC     DPTR
   \   000098   08           INC     R0
   \   000099   A983         MOV     R1,DPH
    419              }
   \   00009B   05..         INC     ?V0 + 5
   \                     ??ZDP_MatchDescReq_3:
   \   00009D   E5..         MOV     A,?V0 + 5
   \   00009F   C3           CLR     C
   \   0000A0   9F           SUBB    A,R7
   \   0000A1   40CA         JC      ??ZDP_MatchDescReq_4
    420            }
    421          
    422            *pBuf++ = NumOutClusters; // Output cluster list
   \                     ??ZDP_MatchDescReq_2:
   \   0000A3   8882         MOV     DPL,R0
   \   0000A5   8983         MOV     DPH,R1
   \   0000A7   E5..         MOV     A,?V0 + 4
   \   0000A9   F0           MOVX    @DPTR,A
   \   0000AA   A3           INC     DPTR
   \   0000AB   A882         MOV     R0,DPL
   \   0000AD   A983         MOV     R1,DPH
    423            if ( NumOutClusters )
   \   0000AF   603C         JZ      ??ZDP_MatchDescReq_5
    424            {
    425              for (i=0; i<NumOutClusters; ++i)  {
   \   0000B1   75..00       MOV     ?V0 + 5,#0x0
   \   0000B4   8030         SJMP    ??ZDP_MatchDescReq_6
    426                *pBuf++ = LO_UINT16( OutClusterList[i] );
   \                     ??ZDP_MatchDescReq_7:
   \   0000B6   E5..         MOV     A,?V0 + 5
   \   0000B8   C3           CLR     C
   \   0000B9   33           RLC     A
   \   0000BA   FA           MOV     R2,A
   \   0000BB   E4           CLR     A
   \   0000BC   33           RLC     A
   \   0000BD   FB           MOV     R3,A
   \   0000BE   E5..         MOV     A,?V0 + 2
   \   0000C0   2A           ADD     A,R2
   \   0000C1   FA           MOV     R2,A
   \   0000C2   E5..         MOV     A,?V0 + 3
   \   0000C4   3B           ADDC    A,R3
   \   0000C5   FB           MOV     R3,A
   \   0000C6   8A82         MOV     DPL,R2
   \   0000C8   8B83         MOV     DPH,R3
   \   0000CA   E0           MOVX    A,@DPTR
   \   0000CB   8882         MOV     DPL,R0
   \   0000CD   8983         MOV     DPH,R1
   \   0000CF   F0           MOVX    @DPTR,A
   \   0000D0   A3           INC     DPTR
   \   0000D1   A882         MOV     R0,DPL
   \   0000D3   A983         MOV     R1,DPH
    427                *pBuf++ = HI_UINT16( OutClusterList[i] );
   \   0000D5   8A82         MOV     DPL,R2
   \   0000D7   8B83         MOV     DPH,R3
   \   0000D9   A3           INC     DPTR
   \   0000DA   E0           MOVX    A,@DPTR
   \   0000DB   8882         MOV     DPL,R0
   \   0000DD   8983         MOV     DPH,R1
   \   0000DF   F0           MOVX    @DPTR,A
   \   0000E0   A3           INC     DPTR
   \   0000E1   08           INC     R0
   \   0000E2   A983         MOV     R1,DPH
    428              }
   \   0000E4   05..         INC     ?V0 + 5
   \                     ??ZDP_MatchDescReq_6:
   \   0000E6   E5..         MOV     A,?V0 + 5
   \   0000E8   C3           CLR     C
   \   0000E9   95..         SUBB    A,?V0 + 4
   \   0000EB   40C9         JC      ??ZDP_MatchDescReq_7
    429            }
    430          
    431            return fillAndSend( &ZDP_TransID, dstAddr, Match_Desc_req, len );
   \                     ??ZDP_MatchDescReq_5:
   \   0000ED                ; Setup parameters for call to function fillAndSend
   \   0000ED   75..06       MOV     ?V0 + 0,#0x6
   \   0000F0   75..00       MOV     ?V0 + 1,#0x0
   \   0000F3   78..         MOV     R0,#?V0 + 0
   \   0000F5   12....       LCALL   ?PUSH_XSTACK_I_TWO
   \   0000F8   EE           MOV     A,R6
   \   0000F9   F9           MOV     R1,A
   \   0000FA   AC..         MOV     R4,?V0 + 6
   \   0000FC   AD..         MOV     R5,?V0 + 7
   \   0000FE   7A..         MOV     R2,#(ZDP_TransID & 0xff)
   \   000100   7B..         MOV     R3,#((ZDP_TransID >> 8) & 0xff)
   \   000102   12....       LCALL   ??fillAndSend?relay
   \   000105   7402         MOV     A,#0x2
   \   000107   12....       LCALL   ?DEALLOC_XSTACK8
   \                     ??ZDP_MatchDescReq_1:
   \   00010A   7F08         MOV     R7,#0x8
   \   00010C   02....       LJMP    ?BANKED_LEAVE_XDATA
    432          }
    433          
    434          /*********************************************************************
    435           * @fn          ZDP_SimpleDescReq
    436           *
    437           * @brief       This builds and send a NWK_Simple_Desc_req
    438           *              message.  This function sends unicast message to the
    439           *              destination device.
    440           *
    441           * @param       dstAddr - destination address
    442           * @param       nwkAddr - 16 bit address
    443           * @param       epIntf - endpoint/interface
    444           * @param       SecurityEnable - Security Options
    445           *
    446           * @return      afStatus_t
    447           */

   \                                 In  segment BANKED_CODE, align 1, keep-with-next
    448          afStatus_t ZDP_SimpleDescReq( zAddrType_t *dstAddr, uint16 nwkAddr,
   \                     ZDP_SimpleDescReq:
    449                                              byte endPoint, byte SecurityEnable )
    450          
    451          {
   \   000000   74F6         MOV     A,#-0xa
   \   000002   12....       LCALL   ?BANKED_ENTER_XDATA
   \   000005                ; Saved register size: 10
   \   000005                ; Auto size: 0
    452            (void)SecurityEnable;  // Intentionally unreferenced parameter
    453          
    454            ZDP_TmpBuf[0] = LO_UINT16( nwkAddr );
   \   000005   EC           MOV     A,R4
   \   000006   C0E0         PUSH    A
   \   000008   90....       MOV     DPTR,#ZDP_TmpBuf
   \   00000B   E0           MOVX    A,@DPTR
   \   00000C   F8           MOV     R0,A
   \   00000D   A3           INC     DPTR
   \   00000E   E0           MOVX    A,@DPTR
   \   00000F   F583         MOV     DPH,A
   \   000011   8882         MOV     DPL,R0
   \   000013   D0E0         POP     A
   \   000015   F0           MOVX    @DPTR,A
    455            ZDP_TmpBuf[1] = HI_UINT16( nwkAddr );
   \   000016   ED           MOV     A,R5
   \   000017   C0E0         PUSH    A
   \   000019   90....       MOV     DPTR,#ZDP_TmpBuf
   \   00001C   E0           MOVX    A,@DPTR
   \   00001D   F8           MOV     R0,A
   \   00001E   A3           INC     DPTR
   \   00001F   E0           MOVX    A,@DPTR
   \   000020   F583         MOV     DPH,A
   \   000022   8882         MOV     DPL,R0
   \   000024   A3           INC     DPTR
   \   000025   D0E0         POP     A
   \   000027   F0           MOVX    @DPTR,A
    456            ZDP_TmpBuf[2] = endPoint;
   \   000028   E9           MOV     A,R1
   \   000029   C0E0         PUSH    A
   \   00002B   90....       MOV     DPTR,#ZDP_TmpBuf
   \   00002E   E0           MOVX    A,@DPTR
   \   00002F   F8           MOV     R0,A
   \   000030   A3           INC     DPTR
   \   000031   E0           MOVX    A,@DPTR
   \   000032   F583         MOV     DPH,A
   \   000034   8882         MOV     DPL,R0
   \   000036   A3           INC     DPTR
   \   000037   A3           INC     DPTR
   \   000038   D0E0         POP     A
   \   00003A   F0           MOVX    @DPTR,A
    457          
    458            return fillAndSend( &ZDP_TransID, dstAddr, Simple_Desc_req, 3 );
   \   00003B                ; Setup parameters for call to function fillAndSend
   \   00003B   75..04       MOV     ?V0 + 0,#0x4
   \   00003E   75..00       MOV     ?V0 + 1,#0x0
   \   000041   78..         MOV     R0,#?V0 + 0
   \   000043   12....       LCALL   ?PUSH_XSTACK_I_TWO
   \   000046   7903         MOV     R1,#0x3
   \   000048   EA           MOV     A,R2
   \   000049   FC           MOV     R4,A
   \   00004A   EB           MOV     A,R3
   \   00004B   FD           MOV     R5,A
   \   00004C   7A..         MOV     R2,#(ZDP_TransID & 0xff)
   \   00004E   7B..         MOV     R3,#((ZDP_TransID >> 8) & 0xff)
   \   000050   12....       LCALL   ??fillAndSend?relay
   \   000053   7402         MOV     A,#0x2
   \   000055   12....       LCALL   ?DEALLOC_XSTACK8
   \   000058   7F02         MOV     R7,#0x2
   \   00005A   02....       LJMP    ?BANKED_LEAVE_XDATA
    459          }
    460          
    461          /*********************************************************************
    462           * @fn          ZDP_UserDescSet
    463           *
    464           * @brief       This builds and send a User_Desc_set message to set
    465           *              the user descriptor.  This function sends unicast
    466           *              message to the destination device.
    467           *
    468           * @param       dstAddr - destination address
    469           * @param       nwkAddr - 16 bit address
    470           * @param       UserDescriptor - user descriptor
    471           * @param       SecurityEnable - Security Options
    472           *
    473           * @return      afStatus_t
    474           */

   \                                 In  segment BANKED_CODE, align 1, keep-with-next
    475          afStatus_t ZDP_UserDescSet( zAddrType_t *dstAddr, uint16 nwkAddr,
   \                     ZDP_UserDescSet:
    476                                    UserDescriptorFormat_t *UserDescriptor,
    477                                    byte SecurityEnable )
    478          {
   \   000000   74F0         MOV     A,#-0x10
   \   000002   12....       LCALL   ?BANKED_ENTER_XDATA
   \   000005                ; Saved register size: 16
   \   000005                ; Auto size: 0
   \   000005   8A..         MOV     ?V0 + 6,R2
   \   000007   8B..         MOV     ?V0 + 7,R3
   \   000009   7410         MOV     A,#0x10
   \   00000B   12....       LCALL   ?XSTACK_DISP0_8
   \   00000E   E0           MOVX    A,@DPTR
   \   00000F   F8           MOV     R0,A
   \   000010   A3           INC     DPTR
   \   000011   E0           MOVX    A,@DPTR
   \   000012   F9           MOV     R1,A
    479            uint8 *pBuf = ZDP_TmpBuf;
   \   000013   90....       MOV     DPTR,#ZDP_TmpBuf
   \   000016   E0           MOVX    A,@DPTR
   \   000017   FA           MOV     R2,A
   \   000018   A3           INC     DPTR
   \   000019   E0           MOVX    A,@DPTR
   \   00001A   FB           MOV     R3,A
    480            byte len = (UserDescriptor->len < AF_MAX_USER_DESCRIPTOR_LEN) ?
    481                        UserDescriptor->len : AF_MAX_USER_DESCRIPTOR_LEN;
   \   00001B   8882         MOV     DPL,R0
   \   00001D   8983         MOV     DPH,R1
   \   00001F   E0           MOVX    A,@DPTR
   \   000020   C3           CLR     C
   \   000021   9410         SUBB    A,#0x10
   \   000023   5005         JNC     ??ZDP_UserDescSet_0
   \   000025   E0           MOVX    A,@DPTR
   \   000026   F5..         MOV     ?V0 + 4,A
   \   000028   8003         SJMP    ??ZDP_UserDescSet_1
   \                     ??ZDP_UserDescSet_0:
   \   00002A   75..10       MOV     ?V0 + 4,#0x10
    482            byte addrLen = 2;
    483          
    484            (void)SecurityEnable;  // Intentionally unreferenced parameter
    485          
    486            *pBuf++ = LO_UINT16( nwkAddr );
   \                     ??ZDP_UserDescSet_1:
   \   00002D   EC           MOV     A,R4
   \   00002E   8A82         MOV     DPL,R2
   \   000030   8B83         MOV     DPH,R3
   \   000032   F0           MOVX    @DPTR,A
   \   000033   A3           INC     DPTR
    487            *pBuf++ = HI_UINT16( nwkAddr );
   \   000034   ED           MOV     A,R5
   \   000035   F0           MOVX    @DPTR,A
   \   000036   A3           INC     DPTR
    488          
    489            *pBuf++ = len;
   \   000037   E5..         MOV     A,?V0 + 4
   \   000039   F0           MOVX    @DPTR,A
   \   00003A   A3           INC     DPTR
   \   00003B   AA82         MOV     R2,DPL
   \   00003D   AB83         MOV     R3,DPH
    490            addrLen = 3;
    491          
    492            pBuf = osal_memcpy( pBuf, UserDescriptor->desc, len );
   \   00003F                ; Setup parameters for call to function osal_memcpy
   \   00003F   8882         MOV     DPL,R0
   \   000041   8983         MOV     DPH,R1
   \   000043   A3           INC     DPTR
   \   000044   AC82         MOV     R4,DPL
   \   000046   AD83         MOV     R5,DPH
   \   000048   8C..         MOV     ?V0 + 0,R4
   \   00004A   8D..         MOV     ?V0 + 1,R5
   \   00004C   75..00       MOV     ?V0 + 2,#0x0
   \   00004F   78..         MOV     R0,#?V0 + 0
   \   000051   12....       LCALL   ?PUSH_XSTACK_I_THREE
   \   000054   AC..         MOV     R4,?V0 + 4
   \   000056   7D00         MOV     R5,#0x0
   \   000058   12....       LCALL   ??osal_memcpy?relay
   \   00005B   7403         MOV     A,#0x3
   \   00005D   12....       LCALL   ?DEALLOC_XSTACK8
    493            osal_memset( pBuf, AF_USER_DESCRIPTOR_FILL, AF_MAX_USER_DESCRIPTOR_LEN-len );
   \   000060                ; Setup parameters for call to function osal_memset
   \   000060   7410         MOV     A,#0x10
   \   000062   C3           CLR     C
   \   000063   95..         SUBB    A,?V0 + 4
   \   000065   FC           MOV     R4,A
   \   000066   E4           CLR     A
   \   000067   9400         SUBB    A,#0x0
   \   000069   FD           MOV     R5,A
   \   00006A   7920         MOV     R1,#0x20
   \   00006C   12....       LCALL   ??osal_memset?relay
    494          
    495            return fillAndSend( &ZDP_TransID, dstAddr, User_Desc_set, (AF_MAX_USER_DESCRIPTOR_LEN + addrLen) );
   \   00006F                ; Setup parameters for call to function fillAndSend
   \   00006F   75..14       MOV     ?V0 + 0,#0x14
   \   000072   75..00       MOV     ?V0 + 1,#0x0
   \   000075   78..         MOV     R0,#?V0 + 0
   \   000077   12....       LCALL   ?PUSH_XSTACK_I_TWO
   \   00007A   7913         MOV     R1,#0x13
   \   00007C   AC..         MOV     R4,?V0 + 6
   \   00007E   AD..         MOV     R5,?V0 + 7
   \   000080   7A..         MOV     R2,#(ZDP_TransID & 0xff)
   \   000082   7B..         MOV     R3,#((ZDP_TransID >> 8) & 0xff)
   \   000084   12....       LCALL   ??fillAndSend?relay
   \   000087   7402         MOV     A,#0x2
   \   000089   12....       LCALL   ?DEALLOC_XSTACK8
   \   00008C   7F08         MOV     R7,#0x8
   \   00008E   02....       LJMP    ?BANKED_LEAVE_XDATA
    496          }
    497          
    498          /*********************************************************************
    499           * @fn          ZDP_ServerDiscReq
    500           *
    501           * @brief       Build and send a Server_Discovery_req request message.
    502           *
    503           * @param       serverMask - 16-bit bit-mask of server services being sought.
    504           * @param       SecurityEnable - Security Options
    505           *
    506           * @return      afStatus_t
    507           */

   \                                 In  segment BANKED_CODE, align 1, keep-with-next
    508          afStatus_t ZDP_ServerDiscReq( uint16 serverMask, byte SecurityEnable )
   \                     ZDP_ServerDiscReq:
    509          {
   \   000000   74F6         MOV     A,#-0xa
   \   000002   12....       LCALL   ?BANKED_ENTER_XDATA
   \   000005                ; Saved register size: 10
   \   000005                ; Auto size: 9
   \   000005   74F7         MOV     A,#-0x9
   \   000007   12....       LCALL   ?ALLOC_XSTACK8
    510            uint8 *pBuf = ZDP_TmpBuf;
   \   00000A   90....       MOV     DPTR,#ZDP_TmpBuf
   \   00000D   E0           MOVX    A,@DPTR
   \   00000E   FC           MOV     R4,A
   \   00000F   A3           INC     DPTR
   \   000010   E0           MOVX    A,@DPTR
   \   000011   FD           MOV     R5,A
    511            zAddrType_t dstAddr;
    512          
    513            dstAddr.addrMode = AddrBroadcast;
   \   000012   740F         MOV     A,#0xf
   \   000014   C0E0         PUSH    A
   \   000016   7408         MOV     A,#0x8
   \   000018   12....       LCALL   ?XSTACK_DISP0_8
   \   00001B   D0E0         POP     A
   \   00001D   F0           MOVX    @DPTR,A
    514            dstAddr.addr.shortAddr = NWK_BROADCAST_SHORTADDR_DEVRXON;
   \   00001E   85..82       MOV     DPL,?XSP + 0
   \   000021   85..83       MOV     DPH,?XSP + 1
   \   000024   74FD         MOV     A,#-0x3
   \   000026   F0           MOVX    @DPTR,A
   \   000027   A3           INC     DPTR
   \   000028   74FF         MOV     A,#-0x1
   \   00002A   F0           MOVX    @DPTR,A
    515          
    516            *pBuf++ = LO_UINT16( serverMask );
   \   00002B   EA           MOV     A,R2
   \   00002C   8C82         MOV     DPL,R4
   \   00002E   8D83         MOV     DPH,R5
   \   000030   F0           MOVX    @DPTR,A
   \   000031   A3           INC     DPTR
    517            *pBuf = HI_UINT16( serverMask );
   \   000032   EB           MOV     A,R3
   \   000033   F0           MOVX    @DPTR,A
    518          
    519            FillAndSendTxOptions( &ZDP_TransID, &dstAddr, Server_Discovery_req, 2,
    520                       ((SecurityEnable) ? AF_EN_SECURITY : AF_TX_OPTIONS_NONE) );
   \   000034   E9           MOV     A,R1
   \   000035   6004         JZ      ??ZDP_ServerDiscReq_0
   \   000037   7440         MOV     A,#0x40
   \   000039   8001         SJMP    ??ZDP_ServerDiscReq_1
   \                     ??ZDP_ServerDiscReq_0:
   \   00003B   E4           CLR     A
   \                     ??ZDP_ServerDiscReq_1:
   \   00003C   90....       MOV     DPTR,#ZDP_TxOptions
   \   00003F   F0           MOVX    @DPTR,A
   \   000040                ; Setup parameters for call to function fillAndSend
   \   000040   75..15       MOV     ?V0 + 0,#0x15
   \   000043   75..00       MOV     ?V0 + 1,#0x0
   \   000046   78..         MOV     R0,#?V0 + 0
   \   000048   12....       LCALL   ?PUSH_XSTACK_I_TWO
   \   00004B   7902         MOV     R1,#0x2
   \   00004D   E9           MOV     A,R1
   \   00004E   12....       LCALL   ?XSTACK_DISP0_8
   \   000051   AC82         MOV     R4,DPL
   \   000053   AD83         MOV     R5,DPH
   \   000055   7A..         MOV     R2,#(ZDP_TransID & 0xff)
   \   000057   7B..         MOV     R3,#((ZDP_TransID >> 8) & 0xff)
   \   000059   12....       LCALL   ??fillAndSend?relay
   \   00005C   7402         MOV     A,#0x2
   \   00005E   12....       LCALL   ?DEALLOC_XSTACK8
   \   000061   E4           CLR     A
   \   000062   90....       MOV     DPTR,#ZDP_TxOptions
   \   000065   F0           MOVX    @DPTR,A
   \   000066   7409         MOV     A,#0x9
   \   000068   12....       LCALL   ?DEALLOC_XSTACK8
   \   00006B   7F02         MOV     R7,#0x2
   \   00006D   02....       LJMP    ?BANKED_LEAVE_XDATA
    521          }
    522          
    523          /*********************************************************************
    524           * @fn          ZDP_DeviceAnnce
    525           *
    526           * @brief       This builds and send a Device_Annce message.  This
    527           *              function sends a broadcast message.
    528           *
    529           * @param       nwkAddr - 16 bit address of the device
    530           * @param       IEEEAddr - 64 bit address of the device
    531           * @param       capabilities - device capabilities.  This field is only
    532           *                 sent for v1.1 networks.
    533           * @param       SecurityEnable - Security Options
    534           *
    535           * @return      afStatus_t
    536           */

   \                                 In  segment BANKED_CODE, align 1, keep-with-next
    537          afStatus_t ZDP_DeviceAnnce( uint16 nwkAddr, uint8 *IEEEAddr,
   \                     ZDP_DeviceAnnce:
    538                                        byte capabilities, byte SecurityEnable )
    539          {
   \   000000   74F6         MOV     A,#-0xa
   \   000002   12....       LCALL   ?BANKED_ENTER_XDATA
   \   000005                ; Saved register size: 10
   \   000005                ; Auto size: 9
   \   000005   74F7         MOV     A,#-0x9
   \   000007   12....       LCALL   ?ALLOC_XSTACK8
   \   00000A   E9           MOV     A,R1
   \   00000B   FE           MOV     R6,A
    540            zAddrType_t dstAddr;
    541            uint8 len;
    542          
    543            (void)SecurityEnable;  // Intentionally unreferenced parameter
    544          
    545            dstAddr.addrMode = (afAddrMode_t)AddrBroadcast;
   \   00000C   740F         MOV     A,#0xf
   \   00000E   C0E0         PUSH    A
   \   000010   7408         MOV     A,#0x8
   \   000012   12....       LCALL   ?XSTACK_DISP0_8
   \   000015   D0E0         POP     A
   \   000017   F0           MOVX    @DPTR,A
    546            dstAddr.addr.shortAddr = NWK_BROADCAST_SHORTADDR_DEVRXON;
   \   000018   85..82       MOV     DPL,?XSP + 0
   \   00001B   85..83       MOV     DPH,?XSP + 1
   \   00001E   74FD         MOV     A,#-0x3
   \   000020   F0           MOVX    @DPTR,A
   \   000021   A3           INC     DPTR
   \   000022   74FF         MOV     A,#-0x1
   \   000024   F0           MOVX    @DPTR,A
    547          
    548            ZDP_TmpBuf[0] = LO_UINT16( nwkAddr );
   \   000025   EA           MOV     A,R2
   \   000026   C0E0         PUSH    A
   \   000028   90....       MOV     DPTR,#ZDP_TmpBuf
   \   00002B   E0           MOVX    A,@DPTR
   \   00002C   F8           MOV     R0,A
   \   00002D   A3           INC     DPTR
   \   00002E   E0           MOVX    A,@DPTR
   \   00002F   F583         MOV     DPH,A
   \   000031   8882         MOV     DPL,R0
   \   000033   D0E0         POP     A
   \   000035   F0           MOVX    @DPTR,A
    549            ZDP_TmpBuf[1] = HI_UINT16( nwkAddr );
   \   000036   EB           MOV     A,R3
   \   000037   C0E0         PUSH    A
   \   000039   90....       MOV     DPTR,#ZDP_TmpBuf
   \   00003C   E0           MOVX    A,@DPTR
   \   00003D   F8           MOV     R0,A
   \   00003E   A3           INC     DPTR
   \   00003F   E0           MOVX    A,@DPTR
   \   000040   F583         MOV     DPH,A
   \   000042   8882         MOV     DPL,R0
   \   000044   A3           INC     DPTR
   \   000045   D0E0         POP     A
   \   000047   F0           MOVX    @DPTR,A
    550            osal_cpyExtAddr( &ZDP_TmpBuf[2], IEEEAddr );
   \   000048                ; Setup parameters for call to function sAddrExtCpy
   \   000048   90....       MOV     DPTR,#ZDP_TmpBuf
   \   00004B   E0           MOVX    A,@DPTR
   \   00004C   2402         ADD     A,#0x2
   \   00004E   FA           MOV     R2,A
   \   00004F   A3           INC     DPTR
   \   000050   E0           MOVX    A,@DPTR
   \   000051   3400         ADDC    A,#0x0
   \   000053   FB           MOV     R3,A
   \   000054   12....       LCALL   ??sAddrExtCpy?relay
    551            len = 2 + Z_EXTADDR_LEN;
    552          
    553            ZDP_TmpBuf[10] = capabilities;
   \   000057   EE           MOV     A,R6
   \   000058   C0E0         PUSH    A
   \   00005A   90....       MOV     DPTR,#ZDP_TmpBuf
   \   00005D   E0           MOVX    A,@DPTR
   \   00005E   F8           MOV     R0,A
   \   00005F   A3           INC     DPTR
   \   000060   E0           MOVX    A,@DPTR
   \   000061   F583         MOV     DPH,A
   \   000063   8882         MOV     DPL,R0
   \   000065   A3           INC     DPTR
   \   000066   A3           INC     DPTR
   \   000067   A3           INC     DPTR
   \   000068   A3           INC     DPTR
   \   000069   A3           INC     DPTR
   \   00006A   A3           INC     DPTR
   \   00006B   A3           INC     DPTR
   \   00006C   A3           INC     DPTR
   \   00006D   A3           INC     DPTR
   \   00006E   A3           INC     DPTR
   \   00006F   D0E0         POP     A
   \   000071   F0           MOVX    @DPTR,A
    554            len++;
    555          
    556            return fillAndSend( &ZDP_TransID, &dstAddr, Device_annce, len );
   \   000072                ; Setup parameters for call to function fillAndSend
   \   000072   75..13       MOV     ?V0 + 0,#0x13
   \   000075   75..00       MOV     ?V0 + 1,#0x0
   \   000078   78..         MOV     R0,#?V0 + 0
   \   00007A   12....       LCALL   ?PUSH_XSTACK_I_TWO
   \   00007D   790B         MOV     R1,#0xb
   \   00007F   7402         MOV     A,#0x2
   \   000081   12....       LCALL   ?XSTACK_DISP0_8
   \   000084   AC82         MOV     R4,DPL
   \   000086   AD83         MOV     R5,DPH
   \   000088   7A..         MOV     R2,#(ZDP_TransID & 0xff)
   \   00008A   7B..         MOV     R3,#((ZDP_TransID >> 8) & 0xff)
   \   00008C   12....       LCALL   ??fillAndSend?relay
   \   00008F   7402         MOV     A,#0x2
   \   000091   12....       LCALL   ?DEALLOC_XSTACK8
   \   000094   7409         MOV     A,#0x9
   \   000096   12....       LCALL   ?DEALLOC_XSTACK8
   \   000099   7F02         MOV     R7,#0x2
   \   00009B   02....       LJMP    ?BANKED_LEAVE_XDATA
    557          }
    558          
    559          /*********************************************************************
    560           * Address Responses
    561           */
    562          
    563          /*********************************************************************
    564           * @fn      zdpProcessAddrReq
    565           *
    566           * @brief   Process an incoming NWK_addr_req or IEEE_addr_req message and then
    567           *          build and send a corresponding NWK_addr_rsp or IEEE_addr_rsp msg.
    568           *
    569           * @param   inMsg - incoming message
    570           *
    571           * @return  none
    572           */

   \                                 In  segment BANKED_CODE, align 1, keep-with-next
    573          void zdpProcessAddrReq( zdoIncomingMsg_t *inMsg )
   \                     zdpProcessAddrReq:
    574          {
   \   000000   74F0         MOV     A,#-0x10
   \   000002   12....       LCALL   ?BANKED_ENTER_XDATA
   \   000005                ; Saved register size: 16
   \   000005                ; Auto size: 18
   \   000005   74EE         MOV     A,#-0x12
   \   000007   12....       LCALL   ?ALLOC_XSTACK8
   \   00000A   7403         MOV     A,#0x3
   \   00000C   12....       LCALL   ?XSTACK_DISP0_8
   \   00000F   EA           MOV     A,R2
   \   000010   F0           MOVX    @DPTR,A
   \   000011   A3           INC     DPTR
   \   000012   EB           MOV     A,R3
   \   000013   F0           MOVX    @DPTR,A
    575            associated_devices_t *pAssoc;
    576            uint8 reqType;
    577            uint16 aoi = INVALID_NODE_ADDR;
   \   000014   7EFE         MOV     R6,#-0x2
   \   000016   7FFF         MOV     R7,#-0x1
    578            uint8 *ieee = NULL;
   \   000018   75..00       MOV     ?V0 + 4,#0x0
   \   00001B   75..00       MOV     ?V0 + 5,#0x0
    579          
    580            reqType = inMsg->asdu[(inMsg->clusterID == NWK_addr_req) ? Z_EXTADDR_LEN : sizeof( uint16 ) ];
   \   00001E   7403         MOV     A,#0x3
   \   000020   12....       LCALL   ?XSTACK_DISP0_8
   \   000023   E0           MOVX    A,@DPTR
   \   000024   240C         ADD     A,#0xc
   \   000026   F8           MOV     R0,A
   \   000027   A3           INC     DPTR
   \   000028   E0           MOVX    A,@DPTR
   \   000029   3400         ADDC    A,#0x0
   \   00002B   F9           MOV     R1,A
   \   00002C   7401         MOV     A,#0x1
   \   00002E   12....       LCALL   ?XSTACK_DISP0_8
   \   000031   E8           MOV     A,R0
   \   000032   F0           MOVX    @DPTR,A
   \   000033   A3           INC     DPTR
   \   000034   E9           MOV     A,R1
   \   000035   F0           MOVX    @DPTR,A
   \   000036   7401         MOV     A,#0x1
   \   000038   12....       LCALL   ?XSTACK_DISP0_8
   \   00003B   E0           MOVX    A,@DPTR
   \   00003C   F8           MOV     R0,A
   \   00003D   A3           INC     DPTR
   \   00003E   E0           MOVX    A,@DPTR
   \   00003F   F583         MOV     DPH,A
   \   000041   8882         MOV     DPL,R0
   \   000043   E0           MOVX    A,@DPTR
   \   000044   7002         JNZ     ??zdpProcessAddrReq_0
   \   000046   A3           INC     DPTR
   \   000047   E0           MOVX    A,@DPTR
   \                     ??zdpProcessAddrReq_0:
   \   000048   7004         JNZ     ??zdpProcessAddrReq_1
   \   00004A   7808         MOV     R0,#0x8
   \   00004C   8002         SJMP    ??zdpProcessAddrReq_2
   \                     ??zdpProcessAddrReq_1:
   \   00004E   7802         MOV     R0,#0x2
   \                     ??zdpProcessAddrReq_2:
   \   000050   7403         MOV     A,#0x3
   \   000052   12....       LCALL   ?XSTACK_DISP0_8
   \   000055   E0           MOVX    A,@DPTR
   \   000056   2413         ADD     A,#0x13
   \   000058   F5..         MOV     ?V0 + 6,A
   \   00005A   A3           INC     DPTR
   \   00005B   E0           MOVX    A,@DPTR
   \   00005C   3400         ADDC    A,#0x0
   \   00005E   F5..         MOV     ?V0 + 7,A
   \   000060   85..82       MOV     DPL,?V0 + 6
   \   000063   F583         MOV     DPH,A
   \   000065   E0           MOVX    A,@DPTR
   \   000066   28           ADD     A,R0
   \   000067   FA           MOV     R2,A
   \   000068   A3           INC     DPTR
   \   000069   E0           MOVX    A,@DPTR
   \   00006A   3400         ADDC    A,#0x0
   \   00006C   8A82         MOV     DPL,R2
   \   00006E   F583         MOV     DPH,A
   \   000070   E0           MOVX    A,@DPTR
   \   000071   F5..         MOV     ?V0 + 3,A
    581          
    582            if ( inMsg->clusterID == NWK_addr_req )
   \   000073   7401         MOV     A,#0x1
   \   000075   12....       LCALL   ?XSTACK_DISP0_8
   \   000078   E0           MOVX    A,@DPTR
   \   000079   F8           MOV     R0,A
   \   00007A   A3           INC     DPTR
   \   00007B   E0           MOVX    A,@DPTR
   \   00007C   F583         MOV     DPH,A
   \   00007E   8882         MOV     DPL,R0
   \   000080   E0           MOVX    A,@DPTR
   \   000081   7002         JNZ     ??zdpProcessAddrReq_3
   \   000083   A3           INC     DPTR
   \   000084   E0           MOVX    A,@DPTR
   \                     ??zdpProcessAddrReq_3:
   \   000085   85..82       MOV     DPL,?V0 + 6
   \   000088   85..83       MOV     DPH,?V0 + 7
   \   00008B   7059         JNZ     ??zdpProcessAddrReq_4
    583          
    584            {
    585              ieee = inMsg->asdu;
   \   00008D   E0           MOVX    A,@DPTR
   \   00008E   F5..         MOV     ?V0 + 4,A
   \   000090   A3           INC     DPTR
   \   000091   E0           MOVX    A,@DPTR
   \   000092   F5..         MOV     ?V0 + 5,A
    586          
    587              if ( osal_ExtAddrEqual( saveExtAddr, ieee ) )
   \   000094                ; Setup parameters for call to function sAddrExtCmp
   \   000094   AC..         MOV     R4,?V0 + 4
   \   000096   FD           MOV     R5,A
   \   000097   7A..         MOV     R2,#(saveExtAddr & 0xff)
   \   000099   7B..         MOV     R3,#((saveExtAddr >> 8) & 0xff)
   \   00009B   12....       LCALL   ??sAddrExtCmp?relay
   \   00009E   E9           MOV     A,R1
   \   00009F   600B         JZ      ??zdpProcessAddrReq_5
    588              {
    589                aoi = ZDAppNwkAddr.addr.shortAddr;
   \   0000A1   90....       MOV     DPTR,#ZDAppNwkAddr
   \   0000A4   E0           MOVX    A,@DPTR
   \   0000A5   FE           MOV     R6,A
   \   0000A6   A3           INC     DPTR
   \   0000A7   E0           MOVX    A,@DPTR
   \   0000A8   FF           MOV     R7,A
   \   0000A9   02....       LJMP    ??zdpProcessAddrReq_6 & 0xFFFF
    590              }
    591              // Handle response for sleeping end devices
    592              else if ( (ZSTACK_ROUTER_BUILD)
    593                && (((pAssoc = AssocGetWithExt( ieee )) != NULL)
    594                       && (pAssoc->nodeRelation == CHILD_RFD)) )
   \                     ??zdpProcessAddrReq_5:
   \   0000AC                ; Setup parameters for call to function AssocGetWithExt
   \   0000AC   AA..         MOV     R2,?V0 + 4
   \   0000AE   AB..         MOV     R3,?V0 + 5
   \   0000B0   12....       LCALL   ??AssocGetWithExt?relay
   \   0000B3   EA           MOV     A,R2
   \   0000B4   F8           MOV     R0,A
   \   0000B5   EB           MOV     A,R3
   \   0000B6   F9           MOV     R1,A
   \   0000B7   EA           MOV     A,R2
   \   0000B8   7001         JNZ     ??zdpProcessAddrReq_7
   \   0000BA   EB           MOV     A,R3
   \                     ??zdpProcessAddrReq_7:
   \   0000BB   7003         JNZ     $+5
   \   0000BD   02....       LJMP    ??zdpProcessAddrReq_6 & 0xFFFF
   \   0000C0   8882         MOV     DPL,R0
   \   0000C2   8983         MOV     DPH,R1
   \   0000C4   A3           INC     DPTR
   \   0000C5   A3           INC     DPTR
   \   0000C6   A3           INC     DPTR
   \   0000C7   A3           INC     DPTR
   \   0000C8   E0           MOVX    A,@DPTR
   \   0000C9   6401         XRL     A,#0x1
   \   0000CB   6003         JZ      $+5
   \   0000CD   02....       LJMP    ??zdpProcessAddrReq_6 & 0xFFFF
    595              {
    596                aoi = pAssoc->shortAddr;
   \   0000D0   8882         MOV     DPL,R0
   \   0000D2   8983         MOV     DPH,R1
   \   0000D4   E0           MOVX    A,@DPTR
   \   0000D5   FE           MOV     R6,A
   \   0000D6   A3           INC     DPTR
   \   0000D7   E0           MOVX    A,@DPTR
   \   0000D8   FF           MOV     R7,A
    597                if ( reqType != ZDP_ADDR_REQTYPE_SINGLE )
   \   0000D9   E5..         MOV     A,?V0 + 3
   \   0000DB   7003         JNZ     $+5
   \   0000DD   02....       LJMP    ??zdpProcessAddrReq_6 & 0xFFFF
    598                  reqType = 0xFF; // Force Invalid
   \                     ??zdpProcessAddrReq_8:
   \   0000E0   75..FF       MOV     ?V0 + 3,#-0x1
   \   0000E3   02....       LJMP    ??zdpProcessAddrReq_6 & 0xFFFF
    599              }
    600            }
    601            else  // if ( inMsg->clusterID == IEEE_addr_req )
    602            {
    603              aoi = BUILD_UINT16( inMsg->asdu[0], inMsg->asdu[1] );
   \                     ??zdpProcessAddrReq_4:
   \   0000E6   E0           MOVX    A,@DPTR
   \   0000E7   F8           MOV     R0,A
   \   0000E8   A3           INC     DPTR
   \   0000E9   E0           MOVX    A,@DPTR
   \   0000EA   F583         MOV     DPH,A
   \   0000EC   8882         MOV     DPL,R0
   \   0000EE   E0           MOVX    A,@DPTR
   \   0000EF   FA           MOV     R2,A
   \   0000F0   85..82       MOV     DPL,?V0 + 6
   \   0000F3   85..83       MOV     DPH,?V0 + 7
   \   0000F6   E0           MOVX    A,@DPTR
   \   0000F7   F8           MOV     R0,A
   \   0000F8   A3           INC     DPTR
   \   0000F9   E0           MOVX    A,@DPTR
   \   0000FA   F583         MOV     DPH,A
   \   0000FC   8882         MOV     DPL,R0
   \   0000FE   A3           INC     DPTR
   \   0000FF   E0           MOVX    A,@DPTR
   \   000100   F9           MOV     R1,A
   \   000101   EA           MOV     A,R2
   \   000102   FE           MOV     R6,A
   \   000103   E9           MOV     A,R1
   \   000104   FF           MOV     R7,A
    604          
    605              if ( aoi == ZDAppNwkAddr.addr.shortAddr )
   \   000105   90....       MOV     DPTR,#ZDAppNwkAddr
   \   000108   E0           MOVX    A,@DPTR
   \   000109   6E           XRL     A,R6
   \   00010A   7003         JNZ     ??zdpProcessAddrReq_9
   \   00010C   A3           INC     DPTR
   \   00010D   E0           MOVX    A,@DPTR
   \   00010E   6F           XRL     A,R7
   \                     ??zdpProcessAddrReq_9:
   \   00010F   7008         JNZ     ??zdpProcessAddrReq_10
    606              {
    607                ieee = saveExtAddr;
   \   000111   75....       MOV     ?V0 + 4,#(saveExtAddr & 0xff)
   \   000114   75....       MOV     ?V0 + 5,#((saveExtAddr >> 8) & 0xff)
   \   000117   805D         SJMP    ??zdpProcessAddrReq_6
    608              }
    609              else if ( (ZSTACK_ROUTER_BUILD)
    610                && (((pAssoc = AssocGetWithShort( aoi )) != NULL)
    611                       && (pAssoc->nodeRelation == CHILD_RFD)) )
   \                     ??zdpProcessAddrReq_10:
   \   000119                ; Setup parameters for call to function AssocGetWithShort
   \   000119   EF           MOV     A,R7
   \   00011A   FB           MOV     R3,A
   \   00011B   12....       LCALL   ??AssocGetWithShort?relay
   \   00011E   EA           MOV     A,R2
   \   00011F   F8           MOV     R0,A
   \   000120   EB           MOV     A,R3
   \   000121   F9           MOV     R1,A
   \   000122   EA           MOV     A,R2
   \   000123   7001         JNZ     ??zdpProcessAddrReq_11
   \   000125   EB           MOV     A,R3
   \                     ??zdpProcessAddrReq_11:
   \   000126   604E         JZ      ??zdpProcessAddrReq_6
   \   000128   8882         MOV     DPL,R0
   \   00012A   8983         MOV     DPH,R1
   \   00012C   A3           INC     DPTR
   \   00012D   A3           INC     DPTR
   \   00012E   A3           INC     DPTR
   \   00012F   A3           INC     DPTR
   \   000130   E0           MOVX    A,@DPTR
   \   000131   6401         XRL     A,#0x1
   \   000133   7041         JNZ     ??zdpProcessAddrReq_6
    612              {
    613                AddrMgrEntry_t addrEntry;
    614                addrEntry.user = ADDRMGR_USER_DEFAULT;
   \   000135   E4           CLR     A
   \   000136   C0E0         PUSH    A
   \   000138   7405         MOV     A,#0x5
   \   00013A   12....       LCALL   ?XSTACK_DISP0_8
   \   00013D   D0E0         POP     A
   \   00013F   F0           MOVX    @DPTR,A
    615                addrEntry.index = pAssoc->addrIdx;
   \   000140   8882         MOV     DPL,R0
   \   000142   8983         MOV     DPH,R1
   \   000144   A3           INC     DPTR
   \   000145   A3           INC     DPTR
   \   000146   E0           MOVX    A,@DPTR
   \   000147   F8           MOV     R0,A
   \   000148   A3           INC     DPTR
   \   000149   E0           MOVX    A,@DPTR
   \   00014A   F9           MOV     R1,A
   \   00014B   7410         MOV     A,#0x10
   \   00014D   12....       LCALL   ?XSTACK_DISP0_8
   \   000150   E8           MOV     A,R0
   \   000151   F0           MOVX    @DPTR,A
   \   000152   A3           INC     DPTR
   \   000153   E9           MOV     A,R1
   \   000154   F0           MOVX    @DPTR,A
    616                if ( AddrMgrEntryGet( &addrEntry ) )
   \   000155                ; Setup parameters for call to function AddrMgrEntryGet
   \   000155   7405         MOV     A,#0x5
   \   000157   12....       LCALL   ?XSTACK_DISP0_8
   \   00015A   AA82         MOV     R2,DPL
   \   00015C   AB83         MOV     R3,DPH
   \   00015E   12....       LCALL   ??AddrMgrEntryGet?relay
   \   000161   E9           MOV     A,R1
   \   000162   600B         JZ      ??zdpProcessAddrReq_12
    617                {
    618                  ieee = addrEntry.extAddr;
   \   000164   7408         MOV     A,#0x8
   \   000166   12....       LCALL   ?XSTACK_DISP0_8
   \   000169   8582..       MOV     ?V0 + 4,DPL
   \   00016C   8583..       MOV     ?V0 + 5,DPH
    619                }
    620          
    621                if ( reqType != ZDP_ADDR_REQTYPE_SINGLE )
   \                     ??zdpProcessAddrReq_12:
   \   00016F   E5..         MOV     A,?V0 + 3
   \   000171   6003         JZ      $+5
   \   000173   02....       LJMP    ??zdpProcessAddrReq_8 & 0xFFFF
    622                  reqType = 0xFF; // Force Invalid
    623              }
    624            }
    625          
    626            if ( (aoi != INVALID_NODE_ADDR) && (ieee != NULL) )
   \                     ??zdpProcessAddrReq_6:
   \   000176   74FE         MOV     A,#-0x2
   \   000178   6E           XRL     A,R6
   \   000179   7003         JNZ     ??zdpProcessAddrReq_13
   \   00017B   74FF         MOV     A,#-0x1
   \   00017D   6F           XRL     A,R7
   \                     ??zdpProcessAddrReq_13:
   \   00017E   7003         JNZ     $+5
   \   000180   02....       LJMP    ??zdpProcessAddrReq_14 & 0xFFFF
   \   000183   E5..         MOV     A,?V0 + 4
   \   000185   7002         JNZ     ??zdpProcessAddrReq_15
   \   000187   E5..         MOV     A,?V0 + 5
   \                     ??zdpProcessAddrReq_15:
   \   000189   7003         JNZ     $+5
   \   00018B   02....       LJMP    ??zdpProcessAddrReq_14 & 0xFFFF
    627            {
    628              uint8 *pBuf = ZDP_TmpBuf;
   \   00018E   90....       MOV     DPTR,#ZDP_TmpBuf
   \   000191   E0           MOVX    A,@DPTR
   \   000192   F5..         MOV     ?V0 + 0,A
   \   000194   A3           INC     DPTR
   \   000195   E0           MOVX    A,@DPTR
   \   000196   F5..         MOV     ?V0 + 1,A
    629              // Status + IEEE-Addr + Nwk-Addr.
    630              byte len = 1 + Z_EXTADDR_LEN + 2;
   \   000198   75..0B       MOV     ?V0 + 2,#0xb
    631          
    632              byte stat = ((reqType == ZDP_ADDR_REQTYPE_SINGLE) ||
    633                        (reqType == ZDP_ADDR_REQTYPE_EXTENDED) ||
    634                    ((reqType == ZDP_ADDR_REQTYPE_MEMBERSHIP) && (inMsg->clusterID == NWK_addr_req)) ) ?
    635                ZDP_SUCCESS : ZDP_INVALID_REQTYPE;
   \   00019B   E5..         MOV     A,?V0 + 3
   \   00019D   6020         JZ      ??zdpProcessAddrReq_16
   \   00019F   7401         MOV     A,#0x1
   \   0001A1   65..         XRL     A,?V0 + 3
   \   0001A3   601A         JZ      ??zdpProcessAddrReq_16
   \   0001A5   7402         MOV     A,#0x2
   \   0001A7   65..         XRL     A,?V0 + 3
   \   0001A9   7018         JNZ     ??zdpProcessAddrReq_17
   \   0001AB   7401         MOV     A,#0x1
   \   0001AD   12....       LCALL   ?XSTACK_DISP0_8
   \   0001B0   E0           MOVX    A,@DPTR
   \   0001B1   F8           MOV     R0,A
   \   0001B2   A3           INC     DPTR
   \   0001B3   E0           MOVX    A,@DPTR
   \   0001B4   F583         MOV     DPH,A
   \   0001B6   8882         MOV     DPL,R0
   \   0001B8   E0           MOVX    A,@DPTR
   \   0001B9   7002         JNZ     ??zdpProcessAddrReq_18
   \   0001BB   A3           INC     DPTR
   \   0001BC   E0           MOVX    A,@DPTR
   \                     ??zdpProcessAddrReq_18:
   \   0001BD   7004         JNZ     ??zdpProcessAddrReq_17
   \                     ??zdpProcessAddrReq_16:
   \   0001BF   7A00         MOV     R2,#0x0
   \   0001C1   8002         SJMP    ??zdpProcessAddrReq_19
   \                     ??zdpProcessAddrReq_17:
   \   0001C3   7A80         MOV     R2,#-0x80
    636          
    637              *pBuf++ = stat;
   \                     ??zdpProcessAddrReq_19:
   \   0001C5   EA           MOV     A,R2
   \   0001C6   85..82       MOV     DPL,?V0 + 0
   \   0001C9   85..83       MOV     DPH,?V0 + 1
   \   0001CC   F0           MOVX    @DPTR,A
   \   0001CD   A3           INC     DPTR
   \   0001CE   8582..       MOV     ?V0 + 0,DPL
   \   0001D1   8583..       MOV     ?V0 + 1,DPH
    638          
    639              pBuf = osal_cpyExtAddr( pBuf, ieee );
   \   0001D4                ; Setup parameters for call to function sAddrExtCpy
   \   0001D4   AC..         MOV     R4,?V0 + 4
   \   0001D6   AD..         MOV     R5,?V0 + 5
   \   0001D8   AA..         MOV     R2,?V0 + 0
   \   0001DA   AB..         MOV     R3,?V0 + 1
   \   0001DC   12....       LCALL   ??sAddrExtCpy?relay
    640          
    641              *pBuf++ = LO_UINT16( aoi );
   \   0001DF   EE           MOV     A,R6
   \   0001E0   8A82         MOV     DPL,R2
   \   0001E2   8B83         MOV     DPH,R3
   \   0001E4   F0           MOVX    @DPTR,A
   \   0001E5   A3           INC     DPTR
    642              *pBuf++ = HI_UINT16( aoi );
   \   0001E6   EF           MOV     A,R7
   \   0001E7   F0           MOVX    @DPTR,A
   \   0001E8   A3           INC     DPTR
   \   0001E9   8582..       MOV     ?V0 + 0,DPL
   \   0001EC   8583..       MOV     ?V0 + 1,DPH
    643          
    644              if ( ZSTACK_ROUTER_BUILD )
    645              {
    646                if ( (reqType == ZDP_ADDR_REQTYPE_EXTENDED) &&
    647                     (aoi == ZDAppNwkAddr.addr.shortAddr) )
   \   0001EF   7401         MOV     A,#0x1
   \   0001F1   65..         XRL     A,?V0 + 3
   \   0001F3   6003         JZ      $+5
   \   0001F5   02....       LJMP    ??zdpProcessAddrReq_20 & 0xFFFF
   \   0001F8   90....       MOV     DPTR,#ZDAppNwkAddr
   \   0001FB   E0           MOVX    A,@DPTR
   \   0001FC   6E           XRL     A,R6
   \   0001FD   7003         JNZ     ??zdpProcessAddrReq_21
   \   0001FF   A3           INC     DPTR
   \   000200   E0           MOVX    A,@DPTR
   \   000201   6F           XRL     A,R7
   \                     ??zdpProcessAddrReq_21:
   \   000202   6003         JZ      $+5
   \   000204   02....       LJMP    ??zdpProcessAddrReq_20 & 0xFFFF
    648                {
    649                  byte cnt = 0;
   \   000207   E4           CLR     A
   \   000208   85..82       MOV     DPL,?XSP + 0
   \   00020B   85..83       MOV     DPH,?XSP + 1
   \   00020E   F0           MOVX    @DPTR,A
    650                  uint16 *list = AssocMakeList( &cnt );
   \   00020F                ; Setup parameters for call to function AssocMakeList
   \   00020F   AA82         MOV     R2,DPL
   \   000211   AB83         MOV     R3,DPH
   \   000213   12....       LCALL   ??AssocMakeList?relay
    651          
    652                  if ( list != NULL )
   \   000216   EA           MOV     A,R2
   \   000217   7001         JNZ     ??zdpProcessAddrReq_22
   \   000219   EB           MOV     A,R3
   \                     ??zdpProcessAddrReq_22:
   \   00021A   7003         JNZ     $+5
   \   00021C   02....       LJMP    ??zdpProcessAddrReq_23 & 0xFFFF
    653                  {
    654                    byte idx = inMsg->asdu[(((inMsg->clusterID == NWK_addr_req) ? Z_EXTADDR_LEN : sizeof( uint16 )) + 1)];
   \   00021F   7401         MOV     A,#0x1
   \   000221   12....       LCALL   ?XSTACK_DISP0_8
   \   000224   E0           MOVX    A,@DPTR
   \   000225   F8           MOV     R0,A
   \   000226   A3           INC     DPTR
   \   000227   E0           MOVX    A,@DPTR
   \   000228   F583         MOV     DPH,A
   \   00022A   8882         MOV     DPL,R0
   \   00022C   E0           MOVX    A,@DPTR
   \   00022D   7002         JNZ     ??zdpProcessAddrReq_24
   \   00022F   A3           INC     DPTR
   \   000230   E0           MOVX    A,@DPTR
   \                     ??zdpProcessAddrReq_24:
   \   000231   7004         JNZ     ??zdpProcessAddrReq_25
   \   000233   7808         MOV     R0,#0x8
   \   000235   8002         SJMP    ??zdpProcessAddrReq_26
   \                     ??zdpProcessAddrReq_25:
   \   000237   7802         MOV     R0,#0x2
   \                     ??zdpProcessAddrReq_26:
   \   000239   85..82       MOV     DPL,?V0 + 6
   \   00023C   85..83       MOV     DPH,?V0 + 7
   \   00023F   E0           MOVX    A,@DPTR
   \   000240   28           ADD     A,R0
   \   000241   FC           MOV     R4,A
   \   000242   A3           INC     DPTR
   \   000243   E0           MOVX    A,@DPTR
   \   000244   3400         ADDC    A,#0x0
   \   000246   8C82         MOV     DPL,R4
   \   000248   F583         MOV     DPH,A
   \   00024A   A3           INC     DPTR
   \   00024B   E0           MOVX    A,@DPTR
   \   00024C   FC           MOV     R4,A
    655                    uint16 *pList = list + idx;
   \   00024D   C3           CLR     C
   \   00024E   33           RLC     A
   \   00024F   F8           MOV     R0,A
   \   000250   E4           CLR     A
   \   000251   33           RLC     A
   \   000252   F9           MOV     R1,A
   \   000253   EA           MOV     A,R2
   \   000254   28           ADD     A,R0
   \   000255   F8           MOV     R0,A
   \   000256   EB           MOV     A,R3
   \   000257   39           ADDC    A,R1
   \   000258   F9           MOV     R1,A
    656          
    657                    // NumAssocDev field is only present on success.
    658                    if ( cnt > idx )
   \   000259   EC           MOV     A,R4
   \   00025A   C0E0         PUSH    A
   \   00025C   85..82       MOV     DPL,?XSP + 0
   \   00025F   85..83       MOV     DPH,?XSP + 1
   \   000262   E0           MOVX    A,@DPTR
   \   000263   FD           MOV     R5,A
   \   000264   D0E0         POP     A
   \   000266   C3           CLR     C
   \   000267   9D           SUBB    A,R5
   \   000268   500D         JNC     ??zdpProcessAddrReq_27
    659                    {
    660                      cnt -= idx;
   \   00026A   E0           MOVX    A,@DPTR
   \   00026B   C3           CLR     C
   \   00026C   9C           SUBB    A,R4
   \   00026D   F0           MOVX    @DPTR,A
    661                      len += (cnt * sizeof( uint16 ));
   \   00026E   E0           MOVX    A,@DPTR
   \   00026F   C3           CLR     C
   \   000270   33           RLC     A
   \   000271   240B         ADD     A,#0xb
   \   000273   F5..         MOV     ?V0 + 2,A
   \   000275   8002         SJMP    ??zdpProcessAddrReq_28
    662                    }
    663                    else
    664                    {
    665                      cnt = 0;
   \                     ??zdpProcessAddrReq_27:
   \   000277   E4           CLR     A
   \   000278   F0           MOVX    @DPTR,A
    666                    }
    667                    *pBuf++ = cnt;
   \                     ??zdpProcessAddrReq_28:
   \   000279   E0           MOVX    A,@DPTR
   \   00027A   85..82       MOV     DPL,?V0 + 0
   \   00027D   85..83       MOV     DPH,?V0 + 1
   \   000280   F0           MOVX    @DPTR,A
   \   000281   A3           INC     DPTR
    668                    len++;
    669          
    670                    // StartIndex field is only present if NumAssocDev field is non-zero.
    671                    *pBuf++ = idx;
   \   000282   EC           MOV     A,R4
   \   000283   F0           MOVX    @DPTR,A
   \   000284   A3           INC     DPTR
   \   000285   8582..       MOV     ?V0 + 0,DPL
   \   000288   8583..       MOV     ?V0 + 1,DPH
    672                    len++;
   \   00028B   05..         INC     ?V0 + 2
   \   00028D   05..         INC     ?V0 + 2
   \   00028F   8039         SJMP    ??zdpProcessAddrReq_29
    673          
    674                    while ( cnt != 0 )
    675                    {
    676                      *pBuf++ = LO_UINT16( *pList );
   \                     ??zdpProcessAddrReq_30:
   \   000291   8882         MOV     DPL,R0
   \   000293   8983         MOV     DPH,R1
   \   000295   E0           MOVX    A,@DPTR
   \   000296   85..82       MOV     DPL,?V0 + 0
   \   000299   85..83       MOV     DPH,?V0 + 1
   \   00029C   F0           MOVX    @DPTR,A
   \   00029D   A3           INC     DPTR
   \   00029E   8582..       MOV     ?V0 + 0,DPL
   \   0002A1   8583..       MOV     ?V0 + 1,DPH
    677                      *pBuf++ = HI_UINT16( *pList );
   \   0002A4   8882         MOV     DPL,R0
   \   0002A6   8983         MOV     DPH,R1
   \   0002A8   A3           INC     DPTR
   \   0002A9   E0           MOVX    A,@DPTR
   \   0002AA   85..82       MOV     DPL,?V0 + 0
   \   0002AD   85..83       MOV     DPH,?V0 + 1
   \   0002B0   F0           MOVX    @DPTR,A
   \   0002B1   A3           INC     DPTR
   \   0002B2   8582..       MOV     ?V0 + 0,DPL
   \   0002B5   8583..       MOV     ?V0 + 1,DPH
    678                      pList++;
   \   0002B8   E8           MOV     A,R0
   \   0002B9   2402         ADD     A,#0x2
   \   0002BB   08           INC     R0
   \   0002BC   08           INC     R0
   \   0002BD   E9           MOV     A,R1
   \   0002BE   3400         ADDC    A,#0x0
   \   0002C0   F9           MOV     R1,A
    679                      cnt--;
   \   0002C1   85..82       MOV     DPL,?XSP + 0
   \   0002C4   85..83       MOV     DPH,?XSP + 1
   \   0002C7   E0           MOVX    A,@DPTR
   \   0002C8   14           DEC     A
   \   0002C9   F0           MOVX    @DPTR,A
    680                    }
   \                     ??zdpProcessAddrReq_29:
   \   0002CA   85..82       MOV     DPL,?XSP + 0
   \   0002CD   85..83       MOV     DPH,?XSP + 1
   \   0002D0   E0           MOVX    A,@DPTR
   \   0002D1   70BE         JNZ     ??zdpProcessAddrReq_30
    681          
    682                    osal_mem_free( (uint8 *)list );
   \   0002D3                ; Setup parameters for call to function osal_mem_free
   \   0002D3   12....       LCALL   ??osal_mem_free?relay
   \   0002D6   800B         SJMP    ??zdpProcessAddrReq_20
    683                  }
    684                  else
    685                  {
    686                    // NumAssocDev field is only present on success.
    687                    *pBuf++ = 0;
   \                     ??zdpProcessAddrReq_23:
   \   0002D8   E4           CLR     A
   \   0002D9   85..82       MOV     DPL,?V0 + 0
   \   0002DC   85..83       MOV     DPH,?V0 + 1
   \   0002DF   F0           MOVX    @DPTR,A
    688                    len++;
   \   0002E0   75..0C       MOV     ?V0 + 2,#0xc
    689                  }
    690                }
    691              }
    692          
    693              ZDP_TxOptions = AF_MSG_ACK_REQUEST;
   \                     ??zdpProcessAddrReq_20:
   \   0002E3   7410         MOV     A,#0x10
   \   0002E5   90....       MOV     DPTR,#ZDP_TxOptions
   \   0002E8   F0           MOVX    @DPTR,A
    694              fillAndSend( &(inMsg->TransSeq), &(inMsg->srcAddr), (cId_t)(inMsg->clusterID | ZDO_RESPONSE_BIT), len );
   \   0002E9                ; Setup parameters for call to function fillAndSend
   \   0002E9   7401         MOV     A,#0x1
   \   0002EB   12....       LCALL   ?XSTACK_DISP0_8
   \   0002EE   E0           MOVX    A,@DPTR
   \   0002EF   F8           MOV     R0,A
   \   0002F0   A3           INC     DPTR
   \   0002F1   E0           MOVX    A,@DPTR
   \   0002F2   F583         MOV     DPH,A
   \   0002F4   8882         MOV     DPL,R0
   \   0002F6   E0           MOVX    A,@DPTR
   \   0002F7   F5..         MOV     ?V0 + 0,A
   \   0002F9   A3           INC     DPTR
   \   0002FA   E0           MOVX    A,@DPTR
   \   0002FB   4480         ORL     A,#0x80
   \   0002FD   F5..         MOV     ?V0 + 1,A
   \   0002FF   78..         MOV     R0,#?V0 + 0
   \   000301   12....       LCALL   ?PUSH_XSTACK_I_TWO
   \   000304   A9..         MOV     R1,?V0 + 2
   \   000306   7405         MOV     A,#0x5
   \   000308   12....       LCALL   ?XSTACK_DISP0_8
   \   00030B   E0           MOVX    A,@DPTR
   \   00030C   2402         ADD     A,#0x2
   \   00030E   FC           MOV     R4,A
   \   00030F   A3           INC     DPTR
   \   000310   E0           MOVX    A,@DPTR
   \   000311   3400         ADDC    A,#0x0
   \   000313   FD           MOV     R5,A
   \   000314   7405         MOV     A,#0x5
   \   000316   12....       LCALL   ?XSTACK_DISP0_8
   \   000319   E0           MOVX    A,@DPTR
   \   00031A   240F         ADD     A,#0xf
   \   00031C   FA           MOV     R2,A
   \   00031D   A3           INC     DPTR
   \   00031E   E0           MOVX    A,@DPTR
   \   00031F   3400         ADDC    A,#0x0
   \   000321   FB           MOV     R3,A
   \   000322   12....       LCALL   ??fillAndSend?relay
   \   000325   7402         MOV     A,#0x2
   \   000327   12....       LCALL   ?DEALLOC_XSTACK8
    695              ZDP_TxOptions = AF_TX_OPTIONS_NONE;
   \   00032A   E4           CLR     A
   \   00032B   90....       MOV     DPTR,#ZDP_TxOptions
   \   00032E   F0           MOVX    @DPTR,A
    696            }
    697          }
   \                     ??zdpProcessAddrReq_14:
   \   00032F   7412         MOV     A,#0x12
   \   000331   12....       LCALL   ?DEALLOC_XSTACK8
   \   000334   7F08         MOV     R7,#0x8
   \   000336   02....       LJMP    ?BANKED_LEAVE_XDATA
    698          
    699          /*********************************************************************
    700           * @fn          ZDP_NodeDescMsg
    701           *
    702           * @brief       Builds and sends a Node Descriptor message, unicast to the
    703           *              specified device.
    704           *
    705           * @param       inMsg - incoming message
    706           * @param       nwkAddr - 16 bit network address for device
    707           * @param       pNodeDesc - pointer to the node descriptor
    708           *
    709           * @return      afStatus_t
    710           */

   \                                 In  segment BANKED_CODE, align 1, keep-with-next
    711          afStatus_t ZDP_NodeDescMsg( zdoIncomingMsg_t *inMsg,
   \                     ZDP_NodeDescMsg:
    712                                     uint16 nwkAddr, NodeDescriptorFormat_t *pNodeDesc )
    713          {
   \   000000   74F6         MOV     A,#-0xa
   \   000002   12....       LCALL   ?BANKED_ENTER_XDATA
   \   000005                ; Saved register size: 10
   \   000005                ; Auto size: 0
   \   000005   740A         MOV     A,#0xa
   \   000007   12....       LCALL   ?XSTACK_DISP0_8
   \   00000A   E0           MOVX    A,@DPTR
   \   00000B   FE           MOV     R6,A
   \   00000C   A3           INC     DPTR
   \   00000D   E0           MOVX    A,@DPTR
   \   00000E   FF           MOV     R7,A
    714            uint8 *pBuf = ZDP_TmpBuf;
   \   00000F   90....       MOV     DPTR,#ZDP_TmpBuf
   \   000012   E0           MOVX    A,@DPTR
   \   000013   F8           MOV     R0,A
   \   000014   A3           INC     DPTR
   \   000015   E0           MOVX    A,@DPTR
   \   000016   F9           MOV     R1,A
    715            byte len;
    716          
    717            len = 1 + 2 + 13;  // Status + nwkAddr + Node descriptor
    718          
    719            *pBuf++ = ZDP_SUCCESS;
   \   000017   E4           CLR     A
   \   000018   8882         MOV     DPL,R0
   \   00001A   8983         MOV     DPH,R1
   \   00001C   F0           MOVX    @DPTR,A
   \   00001D   A3           INC     DPTR
    720          
    721            *pBuf++ = LO_UINT16( nwkAddr );
   \   00001E   EC           MOV     A,R4
   \   00001F   F0           MOVX    @DPTR,A
   \   000020   A3           INC     DPTR
    722            *pBuf++ = HI_UINT16( nwkAddr );
   \   000021   ED           MOV     A,R5
   \   000022   F0           MOVX    @DPTR,A
   \   000023   A3           INC     DPTR
   \   000024   A882         MOV     R0,DPL
   \   000026   A983         MOV     R1,DPH
    723          
    724            *pBuf++ = (byte)((pNodeDesc->ComplexDescAvail << 3) |
    725                               (pNodeDesc->UserDescAvail << 4) |
    726                               (pNodeDesc->LogicalType & 0x07));
   \   000028   8E82         MOV     DPL,R6
   \   00002A   8F83         MOV     DPH,R7
   \   00002C   E0           MOVX    A,@DPTR
   \   00002D   5407         ANL     A,#0x7
   \   00002F   C0E0         PUSH    A
   \   000031   E0           MOVX    A,@DPTR
   \   000032   5410         ANL     A,#0x10
   \   000034   C0E0         PUSH    A
   \   000036   E0           MOVX    A,@DPTR
   \   000037   5408         ANL     A,#0x8
   \   000039   FC           MOV     R4,A
   \   00003A   D0E0         POP     A
   \   00003C   4C           ORL     A,R4
   \   00003D   FC           MOV     R4,A
   \   00003E   D0E0         POP     A
   \   000040   4C           ORL     A,R4
   \   000041   8882         MOV     DPL,R0
   \   000043   8983         MOV     DPH,R1
   \   000045   F0           MOVX    @DPTR,A
   \   000046   A3           INC     DPTR
   \   000047   08           INC     R0
   \   000048   A983         MOV     R1,DPH
    727          
    728            *pBuf++ = (byte)((pNodeDesc->FrequencyBand << 3) | (pNodeDesc->APSFlags & 0x07));
   \   00004A   8E82         MOV     DPL,R6
   \   00004C   8F83         MOV     DPH,R7
   \   00004E   A3           INC     DPTR
   \   00004F   E0           MOVX    A,@DPTR
   \   000050   5407         ANL     A,#0x7
   \   000052   C0E0         PUSH    A
   \   000054   E0           MOVX    A,@DPTR
   \   000055   54F8         ANL     A,#0xf8
   \   000057   FC           MOV     R4,A
   \   000058   D0E0         POP     A
   \   00005A   4C           ORL     A,R4
   \   00005B   8882         MOV     DPL,R0
   \   00005D   8983         MOV     DPH,R1
   \   00005F   F0           MOVX    @DPTR,A
   \   000060   A3           INC     DPTR
   \   000061   08           INC     R0
   \   000062   A983         MOV     R1,DPH
    729            *pBuf++ = pNodeDesc->CapabilityFlags;
   \   000064   8E82         MOV     DPL,R6
   \   000066   8F83         MOV     DPH,R7
   \   000068   A3           INC     DPTR
   \   000069   A3           INC     DPTR
   \   00006A   E0           MOVX    A,@DPTR
   \   00006B   8882         MOV     DPL,R0
   \   00006D   8983         MOV     DPH,R1
   \   00006F   F0           MOVX    @DPTR,A
   \   000070   A3           INC     DPTR
   \   000071   08           INC     R0
   \   000072   A983         MOV     R1,DPH
    730            *pBuf++ = pNodeDesc->ManufacturerCode[0];
   \   000074   8E82         MOV     DPL,R6
   \   000076   8F83         MOV     DPH,R7
   \   000078   A3           INC     DPTR
   \   000079   A3           INC     DPTR
   \   00007A   A3           INC     DPTR
   \   00007B   E0           MOVX    A,@DPTR
   \   00007C   8882         MOV     DPL,R0
   \   00007E   8983         MOV     DPH,R1
   \   000080   F0           MOVX    @DPTR,A
   \   000081   A3           INC     DPTR
   \   000082   08           INC     R0
   \   000083   A983         MOV     R1,DPH
    731            *pBuf++ = pNodeDesc->ManufacturerCode[1];
   \   000085   8E82         MOV     DPL,R6
   \   000087   8F83         MOV     DPH,R7
   \   000089   A3           INC     DPTR
   \   00008A   A3           INC     DPTR
   \   00008B   A3           INC     DPTR
   \   00008C   A3           INC     DPTR
   \   00008D   E0           MOVX    A,@DPTR
   \   00008E   8882         MOV     DPL,R0
   \   000090   8983         MOV     DPH,R1
   \   000092   F0           MOVX    @DPTR,A
   \   000093   A3           INC     DPTR
   \   000094   08           INC     R0
   \   000095   A983         MOV     R1,DPH
    732            *pBuf++ = pNodeDesc->MaxBufferSize;
   \   000097   8E82         MOV     DPL,R6
   \   000099   8F83         MOV     DPH,R7
   \   00009B   A3           INC     DPTR
   \   00009C   A3           INC     DPTR
   \   00009D   A3           INC     DPTR
   \   00009E   A3           INC     DPTR
   \   00009F   A3           INC     DPTR
   \   0000A0   E0           MOVX    A,@DPTR
   \   0000A1   8882         MOV     DPL,R0
   \   0000A3   8983         MOV     DPH,R1
   \   0000A5   F0           MOVX    @DPTR,A
   \   0000A6   A3           INC     DPTR
   \   0000A7   08           INC     R0
   \   0000A8   A983         MOV     R1,DPH
    733            *pBuf++ = pNodeDesc->MaxInTransferSize[0];
   \   0000AA   8E82         MOV     DPL,R6
   \   0000AC   8F83         MOV     DPH,R7
   \   0000AE   A3           INC     DPTR
   \   0000AF   A3           INC     DPTR
   \   0000B0   A3           INC     DPTR
   \   0000B1   A3           INC     DPTR
   \   0000B2   A3           INC     DPTR
   \   0000B3   A3           INC     DPTR
   \   0000B4   E0           MOVX    A,@DPTR
   \   0000B5   8882         MOV     DPL,R0
   \   0000B7   8983         MOV     DPH,R1
   \   0000B9   F0           MOVX    @DPTR,A
   \   0000BA   A3           INC     DPTR
   \   0000BB   08           INC     R0
   \   0000BC   A983         MOV     R1,DPH
    734            *pBuf++ = pNodeDesc->MaxInTransferSize[1];
   \   0000BE   8E82         MOV     DPL,R6
   \   0000C0   8F83         MOV     DPH,R7
   \   0000C2   A3           INC     DPTR
   \   0000C3   A3           INC     DPTR
   \   0000C4   A3           INC     DPTR
   \   0000C5   A3           INC     DPTR
   \   0000C6   A3           INC     DPTR
   \   0000C7   A3           INC     DPTR
   \   0000C8   A3           INC     DPTR
   \   0000C9   E0           MOVX    A,@DPTR
   \   0000CA   8882         MOV     DPL,R0
   \   0000CC   8983         MOV     DPH,R1
   \   0000CE   F0           MOVX    @DPTR,A
   \   0000CF   A3           INC     DPTR
   \   0000D0   08           INC     R0
   \   0000D1   A983         MOV     R1,DPH
    735          
    736            *pBuf++ = LO_UINT16( pNodeDesc->ServerMask );
   \   0000D3   EE           MOV     A,R6
   \   0000D4   2408         ADD     A,#0x8
   \   0000D6   FC           MOV     R4,A
   \   0000D7   EF           MOV     A,R7
   \   0000D8   3400         ADDC    A,#0x0
   \   0000DA   FD           MOV     R5,A
   \   0000DB   8C82         MOV     DPL,R4
   \   0000DD   8D83         MOV     DPH,R5
   \   0000DF   E0           MOVX    A,@DPTR
   \   0000E0   8882         MOV     DPL,R0
   \   0000E2   8983         MOV     DPH,R1
   \   0000E4   F0           MOVX    @DPTR,A
   \   0000E5   A3           INC     DPTR
   \   0000E6   08           INC     R0
   \   0000E7   A983         MOV     R1,DPH
    737            *pBuf++ = HI_UINT16( pNodeDesc->ServerMask );
   \   0000E9   8C82         MOV     DPL,R4
   \   0000EB   8D83         MOV     DPH,R5
   \   0000ED   A3           INC     DPTR
   \   0000EE   E0           MOVX    A,@DPTR
   \   0000EF   8882         MOV     DPL,R0
   \   0000F1   8983         MOV     DPH,R1
   \   0000F3   F0           MOVX    @DPTR,A
   \   0000F4   A3           INC     DPTR
   \   0000F5   08           INC     R0
   \   0000F6   A983         MOV     R1,DPH
    738            *pBuf++ = pNodeDesc->MaxOutTransferSize[0];
   \   0000F8   8E82         MOV     DPL,R6
   \   0000FA   8F83         MOV     DPH,R7
   \   0000FC   A3           INC     DPTR
   \   0000FD   A3           INC     DPTR
   \   0000FE   A3           INC     DPTR
   \   0000FF   A3           INC     DPTR
   \   000100   A3           INC     DPTR
   \   000101   A3           INC     DPTR
   \   000102   A3           INC     DPTR
   \   000103   A3           INC     DPTR
   \   000104   A3           INC     DPTR
   \   000105   A3           INC     DPTR
   \   000106   E0           MOVX    A,@DPTR
   \   000107   8882         MOV     DPL,R0
   \   000109   8983         MOV     DPH,R1
   \   00010B   F0           MOVX    @DPTR,A
   \   00010C   A3           INC     DPTR
   \   00010D   08           INC     R0
   \   00010E   A983         MOV     R1,DPH
    739            *pBuf++ = pNodeDesc->MaxOutTransferSize[1];
   \   000110   EE           MOV     A,R6
   \   000111   240B         ADD     A,#0xb
   \   000113   F582         MOV     DPL,A
   \   000115   EF           MOV     A,R7
   \   000116   3400         ADDC    A,#0x0
   \   000118   F583         MOV     DPH,A
   \   00011A   E0           MOVX    A,@DPTR
   \   00011B   8882         MOV     DPL,R0
   \   00011D   8983         MOV     DPH,R1
   \   00011F   F0           MOVX    @DPTR,A
   \   000120   A3           INC     DPTR
   \   000121   08           INC     R0
   \   000122   A983         MOV     R1,DPH
    740            *pBuf = pNodeDesc->DescriptorCapability;
   \   000124   EE           MOV     A,R6
   \   000125   240C         ADD     A,#0xc
   \   000127   F582         MOV     DPL,A
   \   000129   EF           MOV     A,R7
   \   00012A   3400         ADDC    A,#0x0
   \   00012C   F583         MOV     DPH,A
   \   00012E   E0           MOVX    A,@DPTR
   \   00012F   8882         MOV     DPL,R0
   \   000131   8983         MOV     DPH,R1
   \   000133   F0           MOVX    @DPTR,A
    741          
    742            return fillAndSend( &(inMsg->TransSeq), &(inMsg->srcAddr), Node_Desc_rsp, len );
   \   000134                ; Setup parameters for call to function fillAndSend
   \   000134   75..02       MOV     ?V0 + 0,#0x2
   \   000137   75..80       MOV     ?V0 + 1,#-0x80
   \   00013A   78..         MOV     R0,#?V0 + 0
   \   00013C   12....       LCALL   ?PUSH_XSTACK_I_TWO
   \   00013F   7910         MOV     R1,#0x10
   \   000141   EA           MOV     A,R2
   \   000142   2402         ADD     A,#0x2
   \   000144   FC           MOV     R4,A
   \   000145   EB           MOV     A,R3
   \   000146   3400         ADDC    A,#0x0
   \   000148   FD           MOV     R5,A
   \   000149   EA           MOV     A,R2
   \   00014A   240F         ADD     A,#0xf
   \   00014C   FA           MOV     R2,A
   \   00014D   EB           MOV     A,R3
   \   00014E   3400         ADDC    A,#0x0
   \   000150   FB           MOV     R3,A
   \   000151   12....       LCALL   ??fillAndSend?relay
   \   000154   7402         MOV     A,#0x2
   \   000156   12....       LCALL   ?DEALLOC_XSTACK8
   \   000159   7F02         MOV     R7,#0x2
   \   00015B   02....       LJMP    ?BANKED_LEAVE_XDATA
    743          }
    744          
    745          /*********************************************************************
    746           * @fn          ZDP_PowerDescMsg
    747           *
    748           * @brief       Builds and sends a Power Descriptor message, unicast to the
    749           *              specified device.
    750           *
    751           * @param       inMsg - incoming message (request)
    752           * @param       nwkAddr - 16 bit network address for device
    753           * @param       pPowerDesc - pointer to the node descriptor
    754           *
    755           * @return      afStatus_t
    756           */

   \                                 In  segment BANKED_CODE, align 1, keep-with-next
    757          afStatus_t ZDP_PowerDescMsg( zdoIncomingMsg_t *inMsg,
   \                     ZDP_PowerDescMsg:
    758                               uint16 nwkAddr, NodePowerDescriptorFormat_t *pPowerDesc )
    759          {
   \   000000   74F6         MOV     A,#-0xa
   \   000002   12....       LCALL   ?BANKED_ENTER_XDATA
   \   000005                ; Saved register size: 10
   \   000005                ; Auto size: 0
   \   000005   740A         MOV     A,#0xa
   \   000007   12....       LCALL   ?XSTACK_DISP0_8
   \   00000A   E0           MOVX    A,@DPTR
   \   00000B   F8           MOV     R0,A
   \   00000C   A3           INC     DPTR
   \   00000D   E0           MOVX    A,@DPTR
   \   00000E   F9           MOV     R1,A
   \   00000F   E8           MOV     A,R0
   \   000010   FE           MOV     R6,A
   \   000011   E9           MOV     A,R1
   \   000012   FF           MOV     R7,A
    760            uint8 *pBuf = ZDP_TmpBuf;
   \   000013   90....       MOV     DPTR,#ZDP_TmpBuf
   \   000016   E0           MOVX    A,@DPTR
   \   000017   F8           MOV     R0,A
   \   000018   A3           INC     DPTR
   \   000019   E0           MOVX    A,@DPTR
   \   00001A   F9           MOV     R1,A
    761            byte len = 1 + 2 + 2;  // Status + nwkAddr + Node Power descriptor.
    762          
    763            *pBuf++ = ZDP_SUCCESS;
   \   00001B   E4           CLR     A
   \   00001C   8882         MOV     DPL,R0
   \   00001E   8983         MOV     DPH,R1
   \   000020   F0           MOVX    @DPTR,A
   \   000021   A3           INC     DPTR
    764          
    765            *pBuf++ = LO_UINT16( nwkAddr );
   \   000022   EC           MOV     A,R4
   \   000023   F0           MOVX    @DPTR,A
   \   000024   A3           INC     DPTR
    766            *pBuf++ = HI_UINT16( nwkAddr );
   \   000025   ED           MOV     A,R5
   \   000026   F0           MOVX    @DPTR,A
   \   000027   A3           INC     DPTR
   \   000028   A882         MOV     R0,DPL
   \   00002A   A983         MOV     R1,DPH
    767          
    768            *pBuf++ = (byte)((pPowerDesc->AvailablePowerSources << 4)
    769                              | (pPowerDesc->PowerMode & 0x0F));
   \   00002C   8E82         MOV     DPL,R6
   \   00002E   8F83         MOV     DPH,R7
   \   000030   E0           MOVX    A,@DPTR
   \   000031   540F         ANL     A,#0xf
   \   000033   C0E0         PUSH    A
   \   000035   E0           MOVX    A,@DPTR
   \   000036   54F0         ANL     A,#0xf0
   \   000038   FC           MOV     R4,A
   \   000039   D0E0         POP     A
   \   00003B   4C           ORL     A,R4
   \   00003C   8882         MOV     DPL,R0
   \   00003E   8983         MOV     DPH,R1
   \   000040   F0           MOVX    @DPTR,A
   \   000041   A3           INC     DPTR
   \   000042   08           INC     R0
   \   000043   A983         MOV     R1,DPH
    770            *pBuf++ = (byte)((pPowerDesc->CurrentPowerSourceLevel << 4)
    771                              | (pPowerDesc->CurrentPowerSource & 0x0F));
   \   000045   8E82         MOV     DPL,R6
   \   000047   8F83         MOV     DPH,R7
   \   000049   A3           INC     DPTR
   \   00004A   E0           MOVX    A,@DPTR
   \   00004B   540F         ANL     A,#0xf
   \   00004D   C0E0         PUSH    A
   \   00004F   8E82         MOV     DPL,R6
   \   000051   8F83         MOV     DPH,R7
   \   000053   A3           INC     DPTR
   \   000054   E0           MOVX    A,@DPTR
   \   000055   54F0         ANL     A,#0xf0
   \   000057   FC           MOV     R4,A
   \   000058   D0E0         POP     A
   \   00005A   4C           ORL     A,R4
   \   00005B   8882         MOV     DPL,R0
   \   00005D   8983         MOV     DPH,R1
   \   00005F   F0           MOVX    @DPTR,A
    772          
    773            return fillAndSend( &(inMsg->TransSeq), &(inMsg->srcAddr), Power_Desc_rsp, len );
   \   000060                ; Setup parameters for call to function fillAndSend
   \   000060   75..03       MOV     ?V0 + 0,#0x3
   \   000063   75..80       MOV     ?V0 + 1,#-0x80
   \   000066   78..         MOV     R0,#?V0 + 0
   \   000068   12....       LCALL   ?PUSH_XSTACK_I_TWO
   \   00006B   7905         MOV     R1,#0x5
   \   00006D   EA           MOV     A,R2
   \   00006E   2402         ADD     A,#0x2
   \   000070   FC           MOV     R4,A
   \   000071   EB           MOV     A,R3
   \   000072   3400         ADDC    A,#0x0
   \   000074   FD           MOV     R5,A
   \   000075   EA           MOV     A,R2
   \   000076   240F         ADD     A,#0xf
   \   000078   FA           MOV     R2,A
   \   000079   EB           MOV     A,R3
   \   00007A   3400         ADDC    A,#0x0
   \   00007C   FB           MOV     R3,A
   \   00007D   12....       LCALL   ??fillAndSend?relay
   \   000080   7402         MOV     A,#0x2
   \   000082   12....       LCALL   ?DEALLOC_XSTACK8
   \   000085   7F02         MOV     R7,#0x2
   \   000087   02....       LJMP    ?BANKED_LEAVE_XDATA
    774          }
    775          
    776          /*********************************************************************
    777           * @fn          ZDP_SimpleDescMsg
    778           *
    779           * @brief       Builds and sends a Simple Descriptor message, unicast to the
    780           *              specified device.
    781           *
    782           * @param       inMsg - incoming message (request)
    783           * @param       Status - message status (ZDP_SUCCESS or other)
    784           * @param       pSimpleDesc - pointer to the node descriptor
    785           *
    786           * @return      afStatus_t
    787           */

   \                                 In  segment BANKED_CODE, align 1, keep-with-next
    788          afStatus_t ZDP_SimpleDescMsg( zdoIncomingMsg_t *inMsg, byte Status,
   \                     ZDP_SimpleDescMsg:
    789                                        SimpleDescriptionFormat_t *pSimpleDesc )
    790          {
   \   000000   74F0         MOV     A,#-0x10
   \   000002   12....       LCALL   ?BANKED_ENTER_XDATA
   \   000005                ; Saved register size: 16
   \   000005                ; Auto size: 0
   \   000005   8A..         MOV     ?V0 + 6,R2
   \   000007   8B..         MOV     ?V0 + 7,R3
   \   000009   E9           MOV     A,R1
   \   00000A   FA           MOV     R2,A
    791            uint8 *pBuf = ZDP_TmpBuf;
   \   00000B   90....       MOV     DPTR,#ZDP_TmpBuf
   \   00000E   E0           MOVX    A,@DPTR
   \   00000F   F8           MOV     R0,A
   \   000010   A3           INC     DPTR
   \   000011   E0           MOVX    A,@DPTR
   \   000012   F9           MOV     R1,A
    792            uint8 i, len;
    793          
    794            if ( Status == ZDP_SUCCESS && pSimpleDesc )
   \   000013   EA           MOV     A,R2
   \   000014   7028         JNZ     ??ZDP_SimpleDescMsg_0
   \   000016   EC           MOV     A,R4
   \   000017   7001         JNZ     ??ZDP_SimpleDescMsg_1
   \   000019   ED           MOV     A,R5
   \                     ??ZDP_SimpleDescMsg_1:
   \   00001A   6022         JZ      ??ZDP_SimpleDescMsg_0
    795            {
    796              // Status + NWKAddrOfInterest + desc length + empty simple descriptor.
    797              len = 1 + 2 + 1 + 8;
    798              len += (pSimpleDesc->AppNumInClusters + pSimpleDesc->AppNumOutClusters) * sizeof ( uint16 );
   \   00001C   8C82         MOV     DPL,R4
   \   00001E   8D83         MOV     DPH,R5
   \   000020   A3           INC     DPTR
   \   000021   A3           INC     DPTR
   \   000022   A3           INC     DPTR
   \   000023   A3           INC     DPTR
   \   000024   A3           INC     DPTR
   \   000025   A3           INC     DPTR
   \   000026   A3           INC     DPTR
   \   000027   A3           INC     DPTR
   \   000028   A3           INC     DPTR
   \   000029   E0           MOVX    A,@DPTR
   \   00002A   8C82         MOV     DPL,R4
   \   00002C   8D83         MOV     DPH,R5
   \   00002E   A3           INC     DPTR
   \   00002F   A3           INC     DPTR
   \   000030   A3           INC     DPTR
   \   000031   A3           INC     DPTR
   \   000032   A3           INC     DPTR
   \   000033   A3           INC     DPTR
   \   000034   FB           MOV     R3,A
   \   000035   E0           MOVX    A,@DPTR
   \   000036   2B           ADD     A,R3
   \   000037   C3           CLR     C
   \   000038   33           RLC     A
   \   000039   240C         ADD     A,#0xc
   \   00003B   FE           MOV     R6,A
   \   00003C   8002         SJMP    ??ZDP_SimpleDescMsg_2
    799            }
    800            else
    801            {
    802              len = 1 + 2 + 1; // Status + desc length
   \                     ??ZDP_SimpleDescMsg_0:
   \   00003E   7E04         MOV     R6,#0x4
    803            }
    804            if ( len >= ZDP_BUF_SZ-1 )
   \                     ??ZDP_SimpleDescMsg_2:
   \   000040   EE           MOV     A,R6
   \   000041   C3           CLR     C
   \   000042   944F         SUBB    A,#0x4f
   \   000044   4005         JC      ??ZDP_SimpleDescMsg_3
    805            {
    806              return afStatus_MEM_FAIL;
   \   000046   7910         MOV     R1,#0x10
   \   000048   02....       LJMP    ??ZDP_SimpleDescMsg_4 & 0xFFFF
    807            }
    808          
    809            *pBuf++ = Status;
   \                     ??ZDP_SimpleDescMsg_3:
   \   00004B   EA           MOV     A,R2
   \   00004C   8882         MOV     DPL,R0
   \   00004E   8983         MOV     DPH,R1
   \   000050   F0           MOVX    @DPTR,A
   \   000051   A3           INC     DPTR
   \   000052   A882         MOV     R0,DPL
   \   000054   A983         MOV     R1,DPH
    810          
    811            *pBuf++ = LO_UINT16( ZDAppNwkAddr.addr.shortAddr );
   \   000056   90....       MOV     DPTR,#ZDAppNwkAddr
   \   000059   E0           MOVX    A,@DPTR
   \   00005A   8882         MOV     DPL,R0
   \   00005C   8983         MOV     DPH,R1
   \   00005E   F0           MOVX    @DPTR,A
   \   00005F   A3           INC     DPTR
   \   000060   08           INC     R0
   \   000061   A983         MOV     R1,DPH
    812            *pBuf++ = HI_UINT16( ZDAppNwkAddr.addr.shortAddr );
   \   000063   90....       MOV     DPTR,#(ZDAppNwkAddr + 1)
   \   000066   E0           MOVX    A,@DPTR
   \   000067   8882         MOV     DPL,R0
   \   000069   8983         MOV     DPH,R1
   \   00006B   F0           MOVX    @DPTR,A
   \   00006C   A3           INC     DPTR
    813          
    814            if ( len > 4 )
   \   00006D   EE           MOV     A,R6
   \   00006E   C3           CLR     C
   \   00006F   9405         SUBB    A,#0x5
   \   000071   5003         JNC     $+5
   \   000073   02....       LJMP    ??ZDP_SimpleDescMsg_5 & 0xFFFF
    815            {
    816              *pBuf++ = len - 4;   // Simple descriptor length
   \   000076   74FC         MOV     A,#-0x4
   \   000078   2E           ADD     A,R6
   \   000079   F0           MOVX    @DPTR,A
   \   00007A   A3           INC     DPTR
   \   00007B   08           INC     R0
   \   00007C   08           INC     R0
   \   00007D   A983         MOV     R1,DPH
    817          
    818              *pBuf++ = pSimpleDesc->EndPoint;
   \   00007F   8C82         MOV     DPL,R4
   \   000081   8D83         MOV     DPH,R5
   \   000083   E0           MOVX    A,@DPTR
   \   000084   8882         MOV     DPL,R0
   \   000086   8983         MOV     DPH,R1
   \   000088   F0           MOVX    @DPTR,A
   \   000089   A3           INC     DPTR
   \   00008A   08           INC     R0
   \   00008B   A983         MOV     R1,DPH
    819              *pBuf++ = LO_UINT16( pSimpleDesc->AppProfId );
   \   00008D   8C82         MOV     DPL,R4
   \   00008F   8D83         MOV     DPH,R5
   \   000091   A3           INC     DPTR
   \   000092   AA82         MOV     R2,DPL
   \   000094   AB83         MOV     R3,DPH
   \   000096   E0           MOVX    A,@DPTR
   \   000097   8882         MOV     DPL,R0
   \   000099   8983         MOV     DPH,R1
   \   00009B   F0           MOVX    @DPTR,A
   \   00009C   A3           INC     DPTR
   \   00009D   08           INC     R0
   \   00009E   A983         MOV     R1,DPH
    820              *pBuf++ = HI_UINT16( pSimpleDesc->AppProfId );
   \   0000A0   8A82         MOV     DPL,R2
   \   0000A2   8B83         MOV     DPH,R3
   \   0000A4   A3           INC     DPTR
   \   0000A5   E0           MOVX    A,@DPTR
   \   0000A6   8882         MOV     DPL,R0
   \   0000A8   8983         MOV     DPH,R1
   \   0000AA   F0           MOVX    @DPTR,A
   \   0000AB   A3           INC     DPTR
   \   0000AC   08           INC     R0
   \   0000AD   A983         MOV     R1,DPH
    821              *pBuf++ = LO_UINT16( pSimpleDesc->AppDeviceId );
   \   0000AF   EC           MOV     A,R4
   \   0000B0   2403         ADD     A,#0x3
   \   0000B2   FA           MOV     R2,A
   \   0000B3   ED           MOV     A,R5
   \   0000B4   3400         ADDC    A,#0x0
   \   0000B6   FB           MOV     R3,A
   \   0000B7   8A82         MOV     DPL,R2
   \   0000B9   8B83         MOV     DPH,R3
   \   0000BB   E0           MOVX    A,@DPTR
   \   0000BC   8882         MOV     DPL,R0
   \   0000BE   8983         MOV     DPH,R1
   \   0000C0   F0           MOVX    @DPTR,A
   \   0000C1   A3           INC     DPTR
   \   0000C2   08           INC     R0
   \   0000C3   A983         MOV     R1,DPH
    822              *pBuf++ = HI_UINT16( pSimpleDesc->AppDeviceId );
   \   0000C5   8A82         MOV     DPL,R2
   \   0000C7   8B83         MOV     DPH,R3
   \   0000C9   A3           INC     DPTR
   \   0000CA   E0           MOVX    A,@DPTR
   \   0000CB   8882         MOV     DPL,R0
   \   0000CD   8983         MOV     DPH,R1
   \   0000CF   F0           MOVX    @DPTR,A
   \   0000D0   A3           INC     DPTR
   \   0000D1   08           INC     R0
   \   0000D2   A983         MOV     R1,DPH
    823          
    824              *pBuf++ = (byte)(pSimpleDesc->AppDevVer << 4);
   \   0000D4   8C82         MOV     DPL,R4
   \   0000D6   8D83         MOV     DPH,R5
   \   0000D8   A3           INC     DPTR
   \   0000D9   A3           INC     DPTR
   \   0000DA   A3           INC     DPTR
   \   0000DB   A3           INC     DPTR
   \   0000DC   A3           INC     DPTR
   \   0000DD   E0           MOVX    A,@DPTR
   \   0000DE   C4           SWAP    A
   \   0000DF   54F0         ANL     A,#0xf0
   \   0000E1   8882         MOV     DPL,R0
   \   0000E3   8983         MOV     DPH,R1
   \   0000E5   F0           MOVX    @DPTR,A
   \   0000E6   A3           INC     DPTR
   \   0000E7   08           INC     R0
   \   0000E8   A983         MOV     R1,DPH
    825          
    826              *pBuf++ = pSimpleDesc->AppNumInClusters;
   \   0000EA   EC           MOV     A,R4
   \   0000EB   2406         ADD     A,#0x6
   \   0000ED   F5..         MOV     ?V0 + 2,A
   \   0000EF   ED           MOV     A,R5
   \   0000F0   3400         ADDC    A,#0x0
   \   0000F2   F5..         MOV     ?V0 + 3,A
   \   0000F4   85..82       MOV     DPL,?V0 + 2
   \   0000F7   F583         MOV     DPH,A
   \   0000F9   E0           MOVX    A,@DPTR
   \   0000FA   8882         MOV     DPL,R0
   \   0000FC   8983         MOV     DPH,R1
   \   0000FE   F0           MOVX    @DPTR,A
   \   0000FF   A3           INC     DPTR
   \   000100   08           INC     R0
   \   000101   A983         MOV     R1,DPH
    827              if ( pSimpleDesc->AppNumInClusters )
   \   000103   85..82       MOV     DPL,?V0 + 2
   \   000106   85..83       MOV     DPH,?V0 + 3
   \   000109   E0           MOVX    A,@DPTR
   \   00010A   6060         JZ      ??ZDP_SimpleDescMsg_6
    828              {
    829                for (i=0; i<pSimpleDesc->AppNumInClusters; ++i)
   \   00010C   7F00         MOV     R7,#0x0
   \   00010E   804B         SJMP    ??ZDP_SimpleDescMsg_7
    830                {
    831                  *pBuf++ = LO_UINT16( pSimpleDesc->pAppInClusterList[i] );
   \                     ??ZDP_SimpleDescMsg_8:
   \   000110   EF           MOV     A,R7
   \   000111   C3           CLR     C
   \   000112   33           RLC     A
   \   000113   FA           MOV     R2,A
   \   000114   E4           CLR     A
   \   000115   33           RLC     A
   \   000116   FB           MOV     R3,A
   \   000117   EC           MOV     A,R4
   \   000118   2407         ADD     A,#0x7
   \   00011A   F5..         MOV     ?V0 + 4,A
   \   00011C   ED           MOV     A,R5
   \   00011D   3400         ADDC    A,#0x0
   \   00011F   F5..         MOV     ?V0 + 5,A
   \   000121   85..82       MOV     DPL,?V0 + 4
   \   000124   F583         MOV     DPH,A
   \   000126   E0           MOVX    A,@DPTR
   \   000127   2A           ADD     A,R2
   \   000128   F5..         MOV     ?V0 + 0,A
   \   00012A   A3           INC     DPTR
   \   00012B   E0           MOVX    A,@DPTR
   \   00012C   3B           ADDC    A,R3
   \   00012D   85..82       MOV     DPL,?V0 + 0
   \   000130   F583         MOV     DPH,A
   \   000132   E0           MOVX    A,@DPTR
   \   000133   8882         MOV     DPL,R0
   \   000135   8983         MOV     DPH,R1
   \   000137   F0           MOVX    @DPTR,A
   \   000138   A3           INC     DPTR
   \   000139   A882         MOV     R0,DPL
   \   00013B   A983         MOV     R1,DPH
    832                  *pBuf++ = HI_UINT16( pSimpleDesc->pAppInClusterList[i] );
   \   00013D   85..82       MOV     DPL,?V0 + 4
   \   000140   85..83       MOV     DPH,?V0 + 5
   \   000143   E0           MOVX    A,@DPTR
   \   000144   2A           ADD     A,R2
   \   000145   F5..         MOV     ?V0 + 0,A
   \   000147   A3           INC     DPTR
   \   000148   E0           MOVX    A,@DPTR
   \   000149   3B           ADDC    A,R3
   \   00014A   85..82       MOV     DPL,?V0 + 0
   \   00014D   F583         MOV     DPH,A
   \   00014F   A3           INC     DPTR
   \   000150   E0           MOVX    A,@DPTR
   \   000151   8882         MOV     DPL,R0
   \   000153   8983         MOV     DPH,R1
   \   000155   F0           MOVX    @DPTR,A
   \   000156   A3           INC     DPTR
   \   000157   08           INC     R0
   \   000158   A983         MOV     R1,DPH
    833                }
   \   00015A   0F           INC     R7
   \                     ??ZDP_SimpleDescMsg_7:
   \   00015B   EF           MOV     A,R7
   \   00015C   C0E0         PUSH    A
   \   00015E   85..82       MOV     DPL,?V0 + 2
   \   000161   85..83       MOV     DPH,?V0 + 3
   \   000164   E0           MOVX    A,@DPTR
   \   000165   FA           MOV     R2,A
   \   000166   D0E0         POP     A
   \   000168   C3           CLR     C
   \   000169   9A           SUBB    A,R2
   \   00016A   40A4         JC      ??ZDP_SimpleDescMsg_8
    834              }
    835          
    836              *pBuf++ = pSimpleDesc->AppNumOutClusters;
   \                     ??ZDP_SimpleDescMsg_6:
   \   00016C   EC           MOV     A,R4
   \   00016D   2409         ADD     A,#0x9
   \   00016F   F5..         MOV     ?V0 + 2,A
   \   000171   ED           MOV     A,R5
   \   000172   3400         ADDC    A,#0x0
   \   000174   F5..         MOV     ?V0 + 3,A
   \   000176   85..82       MOV     DPL,?V0 + 2
   \   000179   F583         MOV     DPH,A
   \   00017B   E0           MOVX    A,@DPTR
   \   00017C   8882         MOV     DPL,R0
   \   00017E   8983         MOV     DPH,R1
   \   000180   F0           MOVX    @DPTR,A
   \   000181   A3           INC     DPTR
   \   000182   A882         MOV     R0,DPL
   \   000184   A983         MOV     R1,DPH
    837              if ( pSimpleDesc->AppNumOutClusters )
   \   000186   85..82       MOV     DPL,?V0 + 2
   \   000189   85..83       MOV     DPH,?V0 + 3
   \   00018C   E0           MOVX    A,@DPTR
   \   00018D   6062         JZ      ??ZDP_SimpleDescMsg_9
    838              {
    839                for (i=0; i<pSimpleDesc->AppNumOutClusters; ++i)
   \   00018F   7F00         MOV     R7,#0x0
   \                     ??ZDP_SimpleDescMsg_10:
   \   000191   EF           MOV     A,R7
   \   000192   C0E0         PUSH    A
   \   000194   85..82       MOV     DPL,?V0 + 2
   \   000197   85..83       MOV     DPH,?V0 + 3
   \   00019A   E0           MOVX    A,@DPTR
   \   00019B   FA           MOV     R2,A
   \   00019C   D0E0         POP     A
   \   00019E   C3           CLR     C
   \   00019F   9A           SUBB    A,R2
   \   0001A0   504F         JNC     ??ZDP_SimpleDescMsg_9
    840                {
    841                  *pBuf++ = LO_UINT16( pSimpleDesc->pAppOutClusterList[i] );
   \   0001A2   EF           MOV     A,R7
   \   0001A3   C3           CLR     C
   \   0001A4   33           RLC     A
   \   0001A5   FA           MOV     R2,A
   \   0001A6   E4           CLR     A
   \   0001A7   33           RLC     A
   \   0001A8   FB           MOV     R3,A
   \   0001A9   EC           MOV     A,R4
   \   0001AA   240A         ADD     A,#0xa
   \   0001AC   F5..         MOV     ?V0 + 4,A
   \   0001AE   ED           MOV     A,R5
   \   0001AF   3400         ADDC    A,#0x0
   \   0001B1   F5..         MOV     ?V0 + 5,A
   \   0001B3   85..82       MOV     DPL,?V0 + 4
   \   0001B6   F583         MOV     DPH,A
   \   0001B8   E0           MOVX    A,@DPTR
   \   0001B9   2A           ADD     A,R2
   \   0001BA   F5..         MOV     ?V0 + 0,A
   \   0001BC   A3           INC     DPTR
   \   0001BD   E0           MOVX    A,@DPTR
   \   0001BE   3B           ADDC    A,R3
   \   0001BF   85..82       MOV     DPL,?V0 + 0
   \   0001C2   F583         MOV     DPH,A
   \   0001C4   E0           MOVX    A,@DPTR
   \   0001C5   8882         MOV     DPL,R0
   \   0001C7   8983         MOV     DPH,R1
   \   0001C9   F0           MOVX    @DPTR,A
   \   0001CA   A3           INC     DPTR
   \   0001CB   A882         MOV     R0,DPL
   \   0001CD   A983         MOV     R1,DPH
    842                  *pBuf++ = HI_UINT16( pSimpleDesc->pAppOutClusterList[i] );
   \   0001CF   85..82       MOV     DPL,?V0 + 4
   \   0001D2   85..83       MOV     DPH,?V0 + 5
   \   0001D5   E0           MOVX    A,@DPTR
   \   0001D6   2A           ADD     A,R2
   \   0001D7   F5..         MOV     ?V0 + 0,A
   \   0001D9   A3           INC     DPTR
   \   0001DA   E0           MOVX    A,@DPTR
   \   0001DB   3B           ADDC    A,R3
   \   0001DC   85..82       MOV     DPL,?V0 + 0
   \   0001DF   F583         MOV     DPH,A
   \   0001E1   A3           INC     DPTR
   \   0001E2   E0           MOVX    A,@DPTR
   \   0001E3   8882         MOV     DPL,R0
   \   0001E5   8983         MOV     DPH,R1
   \   0001E7   F0           MOVX    @DPTR,A
   \   0001E8   A3           INC     DPTR
   \   0001E9   08           INC     R0
   \   0001EA   A983         MOV     R1,DPH
    843                }
   \   0001EC   0F           INC     R7
   \   0001ED   80A2         SJMP    ??ZDP_SimpleDescMsg_10
    844              }
    845            }
    846          
    847            else
    848            {
    849              *pBuf = 0; // Description Length = 0;
   \                     ??ZDP_SimpleDescMsg_5:
   \   0001EF   E4           CLR     A
   \   0001F0   F0           MOVX    @DPTR,A
    850            }
    851          
    852            return fillAndSend( &(inMsg->TransSeq), &(inMsg->srcAddr), Simple_Desc_rsp, len );
   \                     ??ZDP_SimpleDescMsg_9:
   \   0001F1                ; Setup parameters for call to function fillAndSend
   \   0001F1   75..04       MOV     ?V0 + 0,#0x4
   \   0001F4   75..80       MOV     ?V0 + 1,#-0x80
   \   0001F7   78..         MOV     R0,#?V0 + 0
   \   0001F9   12....       LCALL   ?PUSH_XSTACK_I_TWO
   \   0001FC   EE           MOV     A,R6
   \   0001FD   F9           MOV     R1,A
   \   0001FE   E5..         MOV     A,?V0 + 6
   \   000200   2402         ADD     A,#0x2
   \   000202   FC           MOV     R4,A
   \   000203   E5..         MOV     A,?V0 + 7
   \   000205   3400         ADDC    A,#0x0
   \   000207   FD           MOV     R5,A
   \   000208   E5..         MOV     A,?V0 + 6
   \   00020A   240F         ADD     A,#0xf
   \   00020C   FA           MOV     R2,A
   \   00020D   E5..         MOV     A,?V0 + 7
   \   00020F   3400         ADDC    A,#0x0
   \   000211   FB           MOV     R3,A
   \   000212   12....       LCALL   ??fillAndSend?relay
   \   000215   7402         MOV     A,#0x2
   \   000217   12....       LCALL   ?DEALLOC_XSTACK8
   \                     ??ZDP_SimpleDescMsg_4:
   \   00021A   7F08         MOV     R7,#0x8
   \   00021C   02....       LJMP    ?BANKED_LEAVE_XDATA
    853          }
    854          
    855          /*********************************************************************
    856           * @fn          ZDP_EPRsp
    857           *
    858           * @brief       This builds and send an endpoint list. Used in
    859           *              Active_EP_rsp and Match_Desc_Rsp
    860           *              message.  This function sends unicast message to the
    861           *              requesting device.
    862           *
    863           * @param       MsgType - either Active_EP_rsp or Match_Desc_Rsp
    864           * @param       dstAddr - destination address
    865           * @param       Status - message status (ZDP_SUCCESS or other)
    866           * @param       nwkAddr - Device's short address that this response describes
    867           * @param       Count - number of endpoint/interfaces in list
    868           * @param       pEPIntfList - Array of Endpoint/Interfaces
    869           * @param       SecurityEnable - Security Options
    870           *
    871           * @return      afStatus_t
    872           */

   \                                 In  segment BANKED_CODE, align 1, keep-with-next
    873          afStatus_t ZDP_EPRsp( uint16 MsgType, byte TransSeq, zAddrType_t *dstAddr,
   \                     ZDP_EPRsp:
    874                                  byte Status, uint16 nwkAddr, byte Count,
    875                                  uint8 *pEPList,
    876                                  byte SecurityEnable )
    877          {
   \   000000   74F0         MOV     A,#-0x10
   \   000002   12....       LCALL   ?BANKED_ENTER_XDATA
   \   000005                ; Saved register size: 16
   \   000005                ; Auto size: 1
   \   000005   74FF         MOV     A,#-0x1
   \   000007   12....       LCALL   ?ALLOC_XSTACK8
   \   00000A   E9           MOV     A,R1
   \   00000B   85..82       MOV     DPL,?XSP + 0
   \   00000E   85..83       MOV     DPH,?XSP + 1
   \   000011   F0           MOVX    @DPTR,A
   \   000012   EA           MOV     A,R2
   \   000013   FE           MOV     R6,A
   \   000014   EB           MOV     A,R3
   \   000015   FF           MOV     R7,A
   \   000016   8C..         MOV     ?V0 + 6,R4
   \   000018   8D..         MOV     ?V0 + 7,R5
   \   00001A   7411         MOV     A,#0x11
   \   00001C   12....       LCALL   ?XSTACK_DISP0_8
   \   00001F   E0           MOVX    A,@DPTR
   \   000020   FD           MOV     R5,A
   \   000021   7412         MOV     A,#0x12
   \   000023   12....       LCALL   ?XSTACK_DISP0_8
   \   000026   E0           MOVX    A,@DPTR
   \   000027   F8           MOV     R0,A
   \   000028   A3           INC     DPTR
   \   000029   E0           MOVX    A,@DPTR
   \   00002A   F9           MOV     R1,A
   \   00002B   7414         MOV     A,#0x14
   \   00002D   12....       LCALL   ?XSTACK_DISP0_8
   \   000030   E0           MOVX    A,@DPTR
   \   000031   FC           MOV     R4,A
   \   000032   7415         MOV     A,#0x15
   \   000034   12....       LCALL   ?XSTACK_DISP0_8
   \   000037   E0           MOVX    A,@DPTR
   \   000038   F5..         MOV     ?V0 + 0,A
   \   00003A   A3           INC     DPTR
   \   00003B   E0           MOVX    A,@DPTR
   \   00003C   F5..         MOV     ?V0 + 1,A
    878            uint8 *pBuf = ZDP_TmpBuf;
   \   00003E   90....       MOV     DPTR,#ZDP_TmpBuf
   \   000041   E0           MOVX    A,@DPTR
   \   000042   FA           MOV     R2,A
   \   000043   A3           INC     DPTR
   \   000044   E0           MOVX    A,@DPTR
   \   000045   FB           MOV     R3,A
    879            byte len = 1 + 2 + 1;  // Status + nwkAddr + endpoint/interface count.
   \   000046   75..04       MOV     ?V0 + 3,#0x4
    880            byte txOptions;
    881          
    882            (void)SecurityEnable;  // Intentionally unreferenced parameter
    883          
    884            if ( MsgType == Match_Desc_rsp )
   \   000049   7406         MOV     A,#0x6
   \   00004B   6E           XRL     A,R6
   \   00004C   7003         JNZ     ??ZDP_EPRsp_0
   \   00004E   7480         MOV     A,#-0x80
   \   000050   6F           XRL     A,R7
   \                     ??ZDP_EPRsp_0:
   \   000051   7005         JNZ     ??ZDP_EPRsp_1
    885              txOptions = AF_MSG_ACK_REQUEST;
   \   000053   75..10       MOV     ?V0 + 4,#0x10
   \   000056   8003         SJMP    ??ZDP_EPRsp_2
    886            else
    887              txOptions = 0;
   \                     ??ZDP_EPRsp_1:
   \   000058   75..00       MOV     ?V0 + 4,#0x0
    888          
    889              *pBuf++ = Status;
   \                     ??ZDP_EPRsp_2:
   \   00005B   ED           MOV     A,R5
   \   00005C   8A82         MOV     DPL,R2
   \   00005E   8B83         MOV     DPH,R3
   \   000060   F0           MOVX    @DPTR,A
   \   000061   A3           INC     DPTR
    890            *pBuf++ = LO_UINT16( nwkAddr );
   \   000062   E8           MOV     A,R0
   \   000063   F0           MOVX    @DPTR,A
   \   000064   A3           INC     DPTR
    891            *pBuf++ = HI_UINT16( nwkAddr );
   \   000065   E9           MOV     A,R1
   \   000066   F0           MOVX    @DPTR,A
   \   000067   A3           INC     DPTR
    892          
    893            *pBuf++ = Count;   // Endpoint/Interface count
   \   000068   EC           MOV     A,R4
   \   000069   F0           MOVX    @DPTR,A
   \   00006A   A3           INC     DPTR
   \   00006B   AA82         MOV     R2,DPL
   \   00006D   AB83         MOV     R3,DPH
    894          
    895            if ( Count )
   \   00006F   6017         JZ      ??ZDP_EPRsp_3
    896            {
    897              len += Count;
   \   000071   7404         MOV     A,#0x4
   \   000073   2C           ADD     A,R4
   \   000074   F5..         MOV     ?V0 + 3,A
    898              osal_memcpy( pBuf, pEPList, Count );
   \   000076                ; Setup parameters for call to function osal_memcpy
   \   000076   75..00       MOV     ?V0 + 2,#0x0
   \   000079   78..         MOV     R0,#?V0 + 0
   \   00007B   12....       LCALL   ?PUSH_XSTACK_I_THREE
   \   00007E   7D00         MOV     R5,#0x0
   \   000080   12....       LCALL   ??osal_memcpy?relay
   \   000083   7403         MOV     A,#0x3
   \   000085   12....       LCALL   ?DEALLOC_XSTACK8
    899            }
    900          
    901            FillAndSendTxOptions( &TransSeq, dstAddr, MsgType, len, txOptions );
   \                     ??ZDP_EPRsp_3:
   \   000088   E5..         MOV     A,?V0 + 4
   \   00008A   90....       MOV     DPTR,#ZDP_TxOptions
   \   00008D   F0           MOVX    @DPTR,A
   \   00008E                ; Setup parameters for call to function fillAndSend
   \   00008E   8E..         MOV     ?V0 + 0,R6
   \   000090   8F..         MOV     ?V0 + 1,R7
   \   000092   78..         MOV     R0,#?V0 + 0
   \   000094   12....       LCALL   ?PUSH_XSTACK_I_TWO
   \   000097   A9..         MOV     R1,?V0 + 3
   \   000099   AC..         MOV     R4,?V0 + 6
   \   00009B   AD..         MOV     R5,?V0 + 7
   \   00009D   7402         MOV     A,#0x2
   \   00009F   12....       LCALL   ?XSTACK_DISP0_8
   \   0000A2   AA82         MOV     R2,DPL
   \   0000A4   AB83         MOV     R3,DPH
   \   0000A6   12....       LCALL   ??fillAndSend?relay
   \   0000A9   7402         MOV     A,#0x2
   \   0000AB   12....       LCALL   ?DEALLOC_XSTACK8
   \   0000AE   E4           CLR     A
   \   0000AF   90....       MOV     DPTR,#ZDP_TxOptions
   \   0000B2   F0           MOVX    @DPTR,A
   \   0000B3   7401         MOV     A,#0x1
   \   0000B5   12....       LCALL   ?DEALLOC_XSTACK8
   \   0000B8   7F08         MOV     R7,#0x8
   \   0000BA   02....       LJMP    ?BANKED_LEAVE_XDATA
    902          }
    903          
    904          /*********************************************************************
    905           * @fn          ZDP_UserDescRsp
    906           *
    907           * @brief       Build and send the User Decriptor Response.
    908           *
    909           *
    910           * @param       dstAddr - destination address
    911           * @param       nwkAddrOfInterest -
    912           * @param       userDesc -
    913           * @param       SecurityEnable - Security Options
    914           *
    915           * @return      ZStatus_t
    916           */

   \                                 In  segment BANKED_CODE, align 1, keep-with-next
    917          ZStatus_t ZDP_UserDescRsp( byte TransSeq, zAddrType_t *dstAddr,
   \                     ZDP_UserDescRsp:
    918                          uint16 nwkAddrOfInterest, UserDescriptorFormat_t *userDesc,
    919                          byte SecurityEnable )
    920          {
   \   000000   74F0         MOV     A,#-0x10
   \   000002   12....       LCALL   ?BANKED_ENTER_XDATA
   \   000005                ; Saved register size: 16
   \   000005                ; Auto size: 1
   \   000005   74FF         MOV     A,#-0x1
   \   000007   12....       LCALL   ?ALLOC_XSTACK8
   \   00000A   E9           MOV     A,R1
   \   00000B   85..82       MOV     DPL,?XSP + 0
   \   00000E   85..83       MOV     DPH,?XSP + 1
   \   000011   F0           MOVX    @DPTR,A
   \   000012   8A..         MOV     ?V0 + 6,R2
   \   000014   8B..         MOV     ?V0 + 7,R3
   \   000016   7411         MOV     A,#0x11
   \   000018   12....       LCALL   ?XSTACK_DISP0_8
   \   00001B   E0           MOVX    A,@DPTR
   \   00001C   F5..         MOV     ?V0 + 4,A
   \   00001E   A3           INC     DPTR
   \   00001F   E0           MOVX    A,@DPTR
   \   000020   F5..         MOV     ?V0 + 5,A
    921            uint8 *pBuf = ZDP_TmpBuf;
   \   000022   90....       MOV     DPTR,#ZDP_TmpBuf
   \   000025   E0           MOVX    A,@DPTR
   \   000026   FA           MOV     R2,A
   \   000027   A3           INC     DPTR
   \   000028   E0           MOVX    A,@DPTR
   \   000029   FB           MOV     R3,A
    922            byte len = 1 + 2 + 1;  // Status + nwkAddr + descriptor length.
    923          
    924            (void)SecurityEnable;  // Intentionally unreferenced parameter
    925          
    926            len += userDesc->len;
   \   00002A   85..82       MOV     DPL,?V0 + 4
   \   00002D   85..83       MOV     DPH,?V0 + 5
   \   000030   E0           MOVX    A,@DPTR
   \   000031   2404         ADD     A,#0x4
   \   000033   FF           MOV     R7,A
    927          
    928            *pBuf++ = ZSUCCESS;
   \   000034   E4           CLR     A
   \   000035   8A82         MOV     DPL,R2
   \   000037   8B83         MOV     DPH,R3
   \   000039   F0           MOVX    @DPTR,A
   \   00003A   A3           INC     DPTR
    929          
    930            *pBuf++ = LO_UINT16( nwkAddrOfInterest );
   \   00003B   EC           MOV     A,R4
   \   00003C   F0           MOVX    @DPTR,A
   \   00003D   A3           INC     DPTR
    931            *pBuf++ = HI_UINT16( nwkAddrOfInterest );
   \   00003E   ED           MOV     A,R5
   \   00003F   F0           MOVX    @DPTR,A
   \   000040   A3           INC     DPTR
   \   000041   AA82         MOV     R2,DPL
   \   000043   AB83         MOV     R3,DPH
    932          
    933            *pBuf++ = userDesc->len;
   \   000045   85..82       MOV     DPL,?V0 + 4
   \   000048   85..83       MOV     DPH,?V0 + 5
   \   00004B   E0           MOVX    A,@DPTR
   \   00004C   8A82         MOV     DPL,R2
   \   00004E   8B83         MOV     DPH,R3
   \   000050   F0           MOVX    @DPTR,A
   \   000051   A3           INC     DPTR
   \   000052   0A           INC     R2
   \   000053   AB83         MOV     R3,DPH
    934            osal_memcpy( pBuf, userDesc->desc, userDesc->len );
   \   000055                ; Setup parameters for call to function osal_memcpy
   \   000055   85..82       MOV     DPL,?V0 + 4
   \   000058   85..83       MOV     DPH,?V0 + 5
   \   00005B   A3           INC     DPTR
   \   00005C   AC82         MOV     R4,DPL
   \   00005E   AD83         MOV     R5,DPH
   \   000060   8C..         MOV     ?V0 + 0,R4
   \   000062   8D..         MOV     ?V0 + 1,R5
   \   000064   75..00       MOV     ?V0 + 2,#0x0
   \   000067   78..         MOV     R0,#?V0 + 0
   \   000069   12....       LCALL   ?PUSH_XSTACK_I_THREE
   \   00006C   85..82       MOV     DPL,?V0 + 4
   \   00006F   85..83       MOV     DPH,?V0 + 5
   \   000072   E0           MOVX    A,@DPTR
   \   000073   FC           MOV     R4,A
   \   000074   7D00         MOV     R5,#0x0
   \   000076   12....       LCALL   ??osal_memcpy?relay
   \   000079   7403         MOV     A,#0x3
   \   00007B   12....       LCALL   ?DEALLOC_XSTACK8
    935          
    936            return (ZStatus_t)fillAndSend( &TransSeq, dstAddr, User_Desc_rsp, len );
   \   00007E                ; Setup parameters for call to function fillAndSend
   \   00007E   75..11       MOV     ?V0 + 0,#0x11
   \   000081   75..80       MOV     ?V0 + 1,#-0x80
   \   000084   78..         MOV     R0,#?V0 + 0
   \   000086   12....       LCALL   ?PUSH_XSTACK_I_TWO
   \   000089   EF           MOV     A,R7
   \   00008A   F9           MOV     R1,A
   \   00008B   AC..         MOV     R4,?V0 + 6
   \   00008D   AD..         MOV     R5,?V0 + 7
   \   00008F   7402         MOV     A,#0x2
   \   000091   12....       LCALL   ?XSTACK_DISP0_8
   \   000094   AA82         MOV     R2,DPL
   \   000096   AB83         MOV     R3,DPH
   \   000098   12....       LCALL   ??fillAndSend?relay
   \   00009B   7402         MOV     A,#0x2
   \   00009D   12....       LCALL   ?DEALLOC_XSTACK8
   \   0000A0   7401         MOV     A,#0x1
   \   0000A2   12....       LCALL   ?DEALLOC_XSTACK8
   \   0000A5   7F08         MOV     R7,#0x8
   \   0000A7   02....       LJMP    ?BANKED_LEAVE_XDATA
    937          }
    938          
    939          /*********************************************************************
    940           * @fn          ZDP_ServerDiscRsp
    941           *
    942           * @brief       Build and send the Server_Discovery_rsp response.
    943           *
    944           * @param       transID - Transaction sequence number of request.
    945           * @param       dstAddr - Network Destination Address.
    946           * @param       status - Status of response to request.
    947           * @param       aoi - Network Address of Interest of request.
    948           * @param       serverMask - Bit map of service(s) being sought.
    949           * @param       SecurityEnable - Security Options
    950           *
    951           * @return      ZStatus_t
    952           */

   \                                 In  segment BANKED_CODE, align 1, keep-with-next
    953          ZStatus_t ZDP_ServerDiscRsp( byte transID, zAddrType_t *dstAddr, byte status,
   \                     ZDP_ServerDiscRsp:
    954                                     uint16 aoi, uint16 serverMask, byte SecurityEnable )
    955          {
   \   000000   74F6         MOV     A,#-0xa
   \   000002   12....       LCALL   ?BANKED_ENTER_XDATA
   \   000005                ; Saved register size: 10
   \   000005                ; Auto size: 1
   \   000005   74FF         MOV     A,#-0x1
   \   000007   12....       LCALL   ?ALLOC_XSTACK8
   \   00000A   E9           MOV     A,R1
   \   00000B   85..82       MOV     DPL,?XSP + 0
   \   00000E   85..83       MOV     DPH,?XSP + 1
   \   000011   F0           MOVX    @DPTR,A
   \   000012   EC           MOV     A,R4
   \   000013   FE           MOV     R6,A
   \   000014   740D         MOV     A,#0xd
   \   000016   12....       LCALL   ?XSTACK_DISP0_8
   \   000019   E0           MOVX    A,@DPTR
   \   00001A   F8           MOV     R0,A
   \   00001B   A3           INC     DPTR
   \   00001C   E0           MOVX    A,@DPTR
   \   00001D   F9           MOV     R1,A
    956            const byte len = 1  + 2;  // status + aoi + mask.
    957            uint8 *pBuf = ZDP_TmpBuf;
   \   00001E   90....       MOV     DPTR,#ZDP_TmpBuf
   \   000021   E0           MOVX    A,@DPTR
   \   000022   FC           MOV     R4,A
   \   000023   A3           INC     DPTR
   \   000024   E0           MOVX    A,@DPTR
   \   000025   FD           MOV     R5,A
   \   000026   8C82         MOV     DPL,R4
   \   000028   8D83         MOV     DPH,R5
    958            ZStatus_t stat;
    959          
    960            // Intentionally unreferenced parameters
    961            (void)aoi;
    962            (void)SecurityEnable;
    963          
    964            *pBuf++ = status;
   \   00002A   EE           MOV     A,R6
   \   00002B   F0           MOVX    @DPTR,A
   \   00002C   A3           INC     DPTR
    965          
    966            *pBuf++ = LO_UINT16( serverMask );
   \   00002D   E8           MOV     A,R0
   \   00002E   F0           MOVX    @DPTR,A
   \   00002F   A3           INC     DPTR
    967            *pBuf++ = HI_UINT16( serverMask );
   \   000030   E9           MOV     A,R1
   \   000031   F0           MOVX    @DPTR,A
    968          
    969            ZDP_TxOptions = AF_MSG_ACK_REQUEST;
   \   000032   7410         MOV     A,#0x10
   \   000034   90....       MOV     DPTR,#ZDP_TxOptions
   \   000037   F0           MOVX    @DPTR,A
    970            stat = fillAndSend( &transID, dstAddr, Server_Discovery_rsp, len );
   \   000038                ; Setup parameters for call to function fillAndSend
   \   000038   75..15       MOV     ?V0 + 0,#0x15
   \   00003B   75..80       MOV     ?V0 + 1,#-0x80
   \   00003E   78..         MOV     R0,#?V0 + 0
   \   000040   12....       LCALL   ?PUSH_XSTACK_I_TWO
   \   000043   7903         MOV     R1,#0x3
   \   000045   EA           MOV     A,R2
   \   000046   FC           MOV     R4,A
   \   000047   EB           MOV     A,R3
   \   000048   FD           MOV     R5,A
   \   000049   7402         MOV     A,#0x2
   \   00004B   12....       LCALL   ?XSTACK_DISP0_8
   \   00004E   AA82         MOV     R2,DPL
   \   000050   AB83         MOV     R3,DPH
   \   000052   12....       LCALL   ??fillAndSend?relay
   \   000055   7402         MOV     A,#0x2
   \   000057   12....       LCALL   ?DEALLOC_XSTACK8
    971            ZDP_TxOptions = AF_TX_OPTIONS_NONE;
   \   00005A   E4           CLR     A
   \   00005B   90....       MOV     DPTR,#ZDP_TxOptions
   \   00005E   F0           MOVX    @DPTR,A
    972          
    973            return ( stat );
   \   00005F   7401         MOV     A,#0x1
   \   000061   12....       LCALL   ?DEALLOC_XSTACK8
   \   000064   7F02         MOV     R7,#0x2
   \   000066   02....       LJMP    ?BANKED_LEAVE_XDATA
    974          }
    975          
    976          /*********************************************************************
    977           * @fn          ZDP_GenericRsp
    978           *
    979           * @brief       Sends a response message with only the parameter status
    980           *              byte and the addr of interest for data.
    981           *              This function sends unicast message to the
    982           *              requesting device.
    983           *
    984           * @param       dstAddr - destination address
    985           * @param       status  - generic status for response
    986           * @param       aoi     - address of interest
    987           * @param       dstAddr - destination address
    988           * @param       rspId   - response cluster ID
    989           * @param       SecurityEnable - Security Options
    990           *
    991           * @return      afStatus_t
    992           */

   \                                 In  segment BANKED_CODE, align 1, keep-with-next
    993          afStatus_t ZDP_GenericRsp( byte TransSeq, zAddrType_t *dstAddr,
   \                     ZDP_GenericRsp:
    994                               byte status, uint16 aoi, uint16 rspID, byte SecurityEnable )
    995          {
   \   000000   74F6         MOV     A,#-0xa
   \   000002   12....       LCALL   ?BANKED_ENTER_XDATA
   \   000005                ; Saved register size: 10
   \   000005                ; Auto size: 1
   \   000005   74FF         MOV     A,#-0x1
   \   000007   12....       LCALL   ?ALLOC_XSTACK8
   \   00000A   E9           MOV     A,R1
   \   00000B   85..82       MOV     DPL,?XSP + 0
   \   00000E   85..83       MOV     DPH,?XSP + 1
   \   000011   F0           MOVX    @DPTR,A
   \   000012   740B         MOV     A,#0xb
   \   000014   12....       LCALL   ?XSTACK_DISP0_8
   \   000017   E0           MOVX    A,@DPTR
   \   000018   F8           MOV     R0,A
   \   000019   A3           INC     DPTR
   \   00001A   E0           MOVX    A,@DPTR
   \   00001B   F9           MOV     R1,A
   \   00001C   740D         MOV     A,#0xd
   \   00001E   12....       LCALL   ?XSTACK_DISP0_8
   \   000021   E0           MOVX    A,@DPTR
   \   000022   F5..         MOV     ?V0 + 0,A
   \   000024   A3           INC     DPTR
   \   000025   E0           MOVX    A,@DPTR
   \   000026   F5..         MOV     ?V0 + 1,A
    996            uint8 len;
    997          
    998            (void)SecurityEnable;  // Intentionally unreferenced parameter
    999          
   1000            ZDP_TmpBuf[0] = status;
   \   000028   EC           MOV     A,R4
   \   000029   C0E0         PUSH    A
   \   00002B   90....       MOV     DPTR,#ZDP_TmpBuf
   \   00002E   E0           MOVX    A,@DPTR
   \   00002F   FC           MOV     R4,A
   \   000030   A3           INC     DPTR
   \   000031   E0           MOVX    A,@DPTR
   \   000032   F583         MOV     DPH,A
   \   000034   8C82         MOV     DPL,R4
   \   000036   D0E0         POP     A
   \   000038   F0           MOVX    @DPTR,A
   1001            ZDP_TmpBuf[1] = LO_UINT16( aoi );
   \   000039   E8           MOV     A,R0
   \   00003A   C0E0         PUSH    A
   \   00003C   90....       MOV     DPTR,#ZDP_TmpBuf
   \   00003F   E0           MOVX    A,@DPTR
   \   000040   FC           MOV     R4,A
   \   000041   A3           INC     DPTR
   \   000042   E0           MOVX    A,@DPTR
   \   000043   F583         MOV     DPH,A
   \   000045   8C82         MOV     DPL,R4
   \   000047   A3           INC     DPTR
   \   000048   D0E0         POP     A
   \   00004A   F0           MOVX    @DPTR,A
   1002            ZDP_TmpBuf[2] = HI_UINT16( aoi );
   \   00004B   E9           MOV     A,R1
   \   00004C   C0E0         PUSH    A
   \   00004E   90....       MOV     DPTR,#ZDP_TmpBuf
   \   000051   E0           MOVX    A,@DPTR
   \   000052   F8           MOV     R0,A
   \   000053   A3           INC     DPTR
   \   000054   E0           MOVX    A,@DPTR
   \   000055   F583         MOV     DPH,A
   \   000057   8882         MOV     DPL,R0
   \   000059   A3           INC     DPTR
   \   00005A   A3           INC     DPTR
   \   00005B   D0E0         POP     A
   \   00005D   F0           MOVX    @DPTR,A
   1003          
   1004            // Length byte
   1005            ZDP_TmpBuf[3] = 0;
   \   00005E   E4           CLR     A
   \   00005F   C0E0         PUSH    A
   \   000061   90....       MOV     DPTR,#ZDP_TmpBuf
   \   000064   E0           MOVX    A,@DPTR
   \   000065   F8           MOV     R0,A
   \   000066   A3           INC     DPTR
   \   000067   E0           MOVX    A,@DPTR
   \   000068   F583         MOV     DPH,A
   \   00006A   8882         MOV     DPL,R0
   \   00006C   A3           INC     DPTR
   \   00006D   A3           INC     DPTR
   \   00006E   A3           INC     DPTR
   \   00006F   D0E0         POP     A
   \   000071   F0           MOVX    @DPTR,A
   1006            len = 4;
   1007          
   1008            return fillAndSend( &TransSeq, dstAddr, rspID, len );
   \   000072                ; Setup parameters for call to function fillAndSend
   \   000072   78..         MOV     R0,#?V0 + 0
   \   000074   12....       LCALL   ?PUSH_XSTACK_I_TWO
   \   000077   7904         MOV     R1,#0x4
   \   000079   EA           MOV     A,R2
   \   00007A   FC           MOV     R4,A
   \   00007B   EB           MOV     A,R3
   \   00007C   FD           MOV     R5,A
   \   00007D   7402         MOV     A,#0x2
   \   00007F   12....       LCALL   ?XSTACK_DISP0_8
   \   000082   AA82         MOV     R2,DPL
   \   000084   AB83         MOV     R3,DPH
   \   000086   12....       LCALL   ??fillAndSend?relay
   \   000089   7402         MOV     A,#0x2
   \   00008B   12....       LCALL   ?DEALLOC_XSTACK8
   \   00008E   7401         MOV     A,#0x1
   \   000090   12....       LCALL   ?DEALLOC_XSTACK8
   \   000093   7F02         MOV     R7,#0x2
   \   000095   02....       LJMP    ?BANKED_LEAVE_XDATA
   1009          }
   1010          
   1011          /*********************************************************************
   1012           * Binding
   1013           */
   1014          /*********************************************************************
   1015           * @fn          ZDP_EndDeviceBindReq
   1016           *
   1017           * @brief       This builds and sends a End_Device_Bind_req message.
   1018           *              This function sends a unicast message.
   1019           *
   1020           * @param       dstAddr - destination address
   1021           * @param       LocalCoordinator - short address of local coordinator
   1022           * @param       epIntf - Endpoint/Interface of Simple Desc
   1023           * @param       ProfileID - Profile ID
   1024           *
   1025           *   The Input cluster list is the opposite of what you would think.
   1026           *   This is the output cluster list of this device
   1027           * @param       NumInClusters - number of input clusters
   1028           * @param       InClusterList - input cluster ID list
   1029           *
   1030           *   The Output cluster list is the opposite of what you would think.
   1031           *   This is the input cluster list of this device
   1032           * @param       NumOutClusters - number of output clusters
   1033           * @param       OutClusterList - output cluster ID list
   1034           *
   1035           * @param       SecurityEnable - Security Options
   1036           *
   1037           * @return      afStatus_t
   1038           */

   \                                 In  segment BANKED_CODE, align 1, keep-with-next
   1039          afStatus_t ZDP_EndDeviceBindReq( zAddrType_t *dstAddr,
   \                     ZDP_EndDeviceBindReq:
   1040                                           uint16 LocalCoordinator,
   1041                                           byte endPoint,
   1042                                           uint16 ProfileID,
   1043                                           byte NumInClusters, cId_t *InClusterList,
   1044                                           byte NumOutClusters, cId_t *OutClusterList,
   1045                                           byte SecurityEnable )
   1046          {
   \   000000   74F0         MOV     A,#-0x10
   \   000002   12....       LCALL   ?BANKED_ENTER_XDATA
   \   000005                ; Saved register size: 16
   \   000005                ; Auto size: 3
   \   000005   74FD         MOV     A,#-0x3
   \   000007   12....       LCALL   ?ALLOC_XSTACK8
   \   00000A   7401         MOV     A,#0x1
   \   00000C   12....       LCALL   ?XSTACK_DISP0_8
   \   00000F   EA           MOV     A,R2
   \   000010   F0           MOVX    @DPTR,A
   \   000011   A3           INC     DPTR
   \   000012   EB           MOV     A,R3
   \   000013   F0           MOVX    @DPTR,A
   \   000014   E9           MOV     A,R1
   \   000015   85..82       MOV     DPL,?XSP + 0
   \   000018   85..83       MOV     DPH,?XSP + 1
   \   00001B   F0           MOVX    @DPTR,A
   \   00001C   EC           MOV     A,R4
   \   00001D   FE           MOV     R6,A
   \   00001E   ED           MOV     A,R5
   \   00001F   FF           MOV     R7,A
   \   000020   7413         MOV     A,#0x13
   \   000022   12....       LCALL   ?XSTACK_DISP0_8
   \   000025   E0           MOVX    A,@DPTR
   \   000026   F5..         MOV     ?V0 + 0,A
   \   000028   A3           INC     DPTR
   \   000029   E0           MOVX    A,@DPTR
   \   00002A   F5..         MOV     ?V0 + 1,A
   \   00002C   7418         MOV     A,#0x18
   \   00002E   12....       LCALL   ?XSTACK_DISP0_8
   \   000031   E0           MOVX    A,@DPTR
   \   000032   F5..         MOV     ?V0 + 7,A
   1047            uint8 *pBuf = ZDP_TmpBuf;
   \   000034   90....       MOV     DPTR,#ZDP_TmpBuf
   \   000037   E0           MOVX    A,@DPTR
   \   000038   F5..         MOV     ?V0 + 2,A
   \   00003A   A3           INC     DPTR
   \   00003B   E0           MOVX    A,@DPTR
   \   00003C   F5..         MOV     ?V0 + 3,A
   1048            uint8 i, len;
   1049            uint8 *ieeeAddr;
   1050          
   1051            (void)SecurityEnable;  // Intentionally unreferenced parameter
   1052          
   1053            // LocalCoordinator + SrcExtAddr + ep + ProfileID +  NumInClusters + NumOutClusters.
   1054            len = 2 + Z_EXTADDR_LEN + 1 + 2 + 1 + 1;
   1055            len += (NumInClusters + NumOutClusters) * sizeof ( uint16 );
   \   00003E   7415         MOV     A,#0x15
   \   000040   12....       LCALL   ?XSTACK_DISP0_8
   \   000043   E0           MOVX    A,@DPTR
   \   000044   25..         ADD     A,?V0 + 7
   \   000046   C3           CLR     C
   \   000047   33           RLC     A
   \   000048   240F         ADD     A,#0xf
   \   00004A   F5..         MOV     ?V0 + 6,A
   1056          
   1057            if ( len >= ZDP_BUF_SZ-1 )
   \   00004C   C3           CLR     C
   \   00004D   944F         SUBB    A,#0x4f
   \   00004F   4005         JC      ??ZDP_EndDeviceBindReq_0
   1058            {
   1059              return afStatus_MEM_FAIL;
   \   000051   7910         MOV     R1,#0x10
   \   000053   02....       LJMP    ??ZDP_EndDeviceBindReq_1 & 0xFFFF
   1060            }
   1061          
   1062            if ( LocalCoordinator != NLME_GetShortAddr() )
   \                     ??ZDP_EndDeviceBindReq_0:
   \   000056                ; Setup parameters for call to function NLME_GetShortAddr
   \   000056   12....       LCALL   ??NLME_GetShortAddr?relay
   \   000059   EA           MOV     A,R2
   \   00005A   6E           XRL     A,R6
   \   00005B   7002         JNZ     ??ZDP_EndDeviceBindReq_2
   \   00005D   EB           MOV     A,R3
   \   00005E   6F           XRL     A,R7
   \                     ??ZDP_EndDeviceBindReq_2:
   \   00005F   6005         JZ      ??ZDP_EndDeviceBindReq_3
   1063            {
   1064              return afStatus_INVALID_PARAMETER;
   \   000061   7902         MOV     R1,#0x2
   \   000063   02....       LJMP    ??ZDP_EndDeviceBindReq_1 & 0xFFFF
   1065            }
   1066          
   1067            *pBuf++ = LO_UINT16( LocalCoordinator );
   \                     ??ZDP_EndDeviceBindReq_3:
   \   000066   EE           MOV     A,R6
   \   000067   85..82       MOV     DPL,?V0 + 2
   \   00006A   85..83       MOV     DPH,?V0 + 3
   \   00006D   F0           MOVX    @DPTR,A
   \   00006E   A3           INC     DPTR
   1068            *pBuf++ = HI_UINT16( LocalCoordinator );
   \   00006F   EF           MOV     A,R7
   \   000070   F0           MOVX    @DPTR,A
   \   000071   A3           INC     DPTR
   \   000072   8582..       MOV     ?V0 + 2,DPL
   \   000075   8583..       MOV     ?V0 + 3,DPH
   1069          
   1070            ieeeAddr = NLME_GetExtAddr();
   1071            pBuf = osal_cpyExtAddr( pBuf, ieeeAddr );
   \   000078                ; Setup parameters for call to function sAddrExtCpy
   \   000078                ; Setup parameters for call to function NLME_GetExtAddr
   \   000078   12....       LCALL   ??NLME_GetExtAddr?relay
   \   00007B   EA           MOV     A,R2
   \   00007C   FC           MOV     R4,A
   \   00007D   EB           MOV     A,R3
   \   00007E   FD           MOV     R5,A
   \   00007F   AA..         MOV     R2,?V0 + 2
   \   000081   AB..         MOV     R3,?V0 + 3
   \   000083   12....       LCALL   ??sAddrExtCpy?relay
   1072          
   1073            *pBuf++ = endPoint;
   \   000086   85..82       MOV     DPL,?XSP + 0
   \   000089   85..83       MOV     DPH,?XSP + 1
   \   00008C   E0           MOVX    A,@DPTR
   \   00008D   8A82         MOV     DPL,R2
   \   00008F   8B83         MOV     DPH,R3
   \   000091   F0           MOVX    @DPTR,A
   \   000092   A3           INC     DPTR
   1074          
   1075            *pBuf++ = LO_UINT16( ProfileID );   // Profile ID
   \   000093   E5..         MOV     A,?V0 + 0
   \   000095   F0           MOVX    @DPTR,A
   \   000096   A3           INC     DPTR
   1076            *pBuf++ = HI_UINT16( ProfileID );
   \   000097   E5..         MOV     A,?V0 + 1
   \   000099   F0           MOVX    @DPTR,A
   \   00009A   A3           INC     DPTR
   \   00009B   8582..       MOV     ?V0 + 2,DPL
   \   00009E   8583..       MOV     ?V0 + 3,DPH
   1077          
   1078            *pBuf++ = NumInClusters; // Input cluster list
   \   0000A1   7415         MOV     A,#0x15
   \   0000A3   12....       LCALL   ?XSTACK_DISP0_8
   \   0000A6   E0           MOVX    A,@DPTR
   \   0000A7   85..82       MOV     DPL,?V0 + 2
   \   0000AA   85..83       MOV     DPH,?V0 + 3
   \   0000AD   F0           MOVX    @DPTR,A
   \   0000AE   A3           INC     DPTR
   \   0000AF   8582..       MOV     ?V0 + 2,DPL
   \   0000B2   8583..       MOV     ?V0 + 3,DPH
   1079            for ( i = 0; i < NumInClusters; ++i )
   \   0000B5   7C00         MOV     R4,#0x0
   \   0000B7   8032         SJMP    ??ZDP_EndDeviceBindReq_4
   1080            {
   1081              *pBuf++ = LO_UINT16(InClusterList[i]);
   \                     ??ZDP_EndDeviceBindReq_5:
   \   0000B9   EC           MOV     A,R4
   \   0000BA   C3           CLR     C
   \   0000BB   33           RLC     A
   \   0000BC   FA           MOV     R2,A
   \   0000BD   E4           CLR     A
   \   0000BE   33           RLC     A
   \   0000BF   FB           MOV     R3,A
   \   0000C0   7416         MOV     A,#0x16
   \   0000C2   12....       LCALL   ?XSTACK_DISP0_8
   \   0000C5   E0           MOVX    A,@DPTR
   \   0000C6   2A           ADD     A,R2
   \   0000C7   FA           MOV     R2,A
   \   0000C8   A3           INC     DPTR
   \   0000C9   E0           MOVX    A,@DPTR
   \   0000CA   3B           ADDC    A,R3
   \   0000CB   FB           MOV     R3,A
   \   0000CC   8A82         MOV     DPL,R2
   \   0000CE   8B83         MOV     DPH,R3
   \   0000D0   E0           MOVX    A,@DPTR
   \   0000D1   85..82       MOV     DPL,?V0 + 2
   \   0000D4   85..83       MOV     DPH,?V0 + 3
   \   0000D7   F0           MOVX    @DPTR,A
   1082              *pBuf++ = HI_UINT16(InClusterList[i]);
   \   0000D8   8A82         MOV     DPL,R2
   \   0000DA   8B83         MOV     DPH,R3
   \   0000DC   A3           INC     DPTR
   \   0000DD   E0           MOVX    A,@DPTR
   \   0000DE   8882         MOV     DPL,R0
   \   0000E0   8983         MOV     DPH,R1
   \   0000E2   F0           MOVX    @DPTR,A
   \   0000E3   A3           INC     DPTR
   \   0000E4   8582..       MOV     ?V0 + 2,DPL
   \   0000E7   8583..       MOV     ?V0 + 3,DPH
   1083            }
   \   0000EA   0C           INC     R4
   \                     ??ZDP_EndDeviceBindReq_4:
   \   0000EB   85..82       MOV     DPL,?V0 + 2
   \   0000EE   85..83       MOV     DPH,?V0 + 3
   \   0000F1   A3           INC     DPTR
   \   0000F2   A882         MOV     R0,DPL
   \   0000F4   A983         MOV     R1,DPH
   \   0000F6   EC           MOV     A,R4
   \   0000F7   C0E0         PUSH    A
   \   0000F9   7415         MOV     A,#0x15
   \   0000FB   12....       LCALL   ?XSTACK_DISP0_8
   \   0000FE   E0           MOVX    A,@DPTR
   \   0000FF   FA           MOV     R2,A
   \   000100   D0E0         POP     A
   \   000102   C3           CLR     C
   \   000103   9A           SUBB    A,R2
   \   000104   40B3         JC      ??ZDP_EndDeviceBindReq_5
   1084          
   1085            *pBuf++ = NumOutClusters; // Output cluster list
   \   000106   85..82       MOV     DPL,?V0 + 2
   \   000109   85..83       MOV     DPH,?V0 + 3
   \   00010C   E5..         MOV     A,?V0 + 7
   \   00010E   F0           MOVX    @DPTR,A
   \   00010F   88..         MOV     ?V0 + 2,R0
   \   000111   89..         MOV     ?V0 + 3,R1
   1086            for ( i = 0; i < NumOutClusters; ++i )
   \   000113   7C00         MOV     R4,#0x0
   \   000115   803B         SJMP    ??ZDP_EndDeviceBindReq_6
   1087            {
   1088              *pBuf++ = LO_UINT16(OutClusterList[i]);
   \                     ??ZDP_EndDeviceBindReq_7:
   \   000117   EC           MOV     A,R4
   \   000118   C3           CLR     C
   \   000119   33           RLC     A
   \   00011A   F8           MOV     R0,A
   \   00011B   E4           CLR     A
   \   00011C   33           RLC     A
   \   00011D   F9           MOV     R1,A
   \   00011E   7419         MOV     A,#0x19
   \   000120   12....       LCALL   ?XSTACK_DISP0_8
   \   000123   E0           MOVX    A,@DPTR
   \   000124   28           ADD     A,R0
   \   000125   F8           MOV     R0,A
   \   000126   A3           INC     DPTR
   \   000127   E0           MOVX    A,@DPTR
   \   000128   39           ADDC    A,R1
   \   000129   F9           MOV     R1,A
   \   00012A   8882         MOV     DPL,R0
   \   00012C   8983         MOV     DPH,R1
   \   00012E   E0           MOVX    A,@DPTR
   \   00012F   85..82       MOV     DPL,?V0 + 2
   \   000132   85..83       MOV     DPH,?V0 + 3
   \   000135   F0           MOVX    @DPTR,A
   \   000136   A3           INC     DPTR
   \   000137   8582..       MOV     ?V0 + 2,DPL
   \   00013A   8583..       MOV     ?V0 + 3,DPH
   1089              *pBuf++ = HI_UINT16(OutClusterList[i]);
   \   00013D   8882         MOV     DPL,R0
   \   00013F   8983         MOV     DPH,R1
   \   000141   A3           INC     DPTR
   \   000142   E0           MOVX    A,@DPTR
   \   000143   85..82       MOV     DPL,?V0 + 2
   \   000146   85..83       MOV     DPH,?V0 + 3
   \   000149   F0           MOVX    @DPTR,A
   \   00014A   A3           INC     DPTR
   \   00014B   8582..       MOV     ?V0 + 2,DPL
   \   00014E   8583..       MOV     ?V0 + 3,DPH
   1090            }
   \   000151   0C           INC     R4
   \                     ??ZDP_EndDeviceBindReq_6:
   \   000152   EC           MOV     A,R4
   \   000153   C3           CLR     C
   \   000154   95..         SUBB    A,?V0 + 7
   \   000156   40BF         JC      ??ZDP_EndDeviceBindReq_7
   1091          
   1092            return fillAndSend( &ZDP_TransID, dstAddr, End_Device_Bind_req, len );
   \   000158                ; Setup parameters for call to function fillAndSend
   \   000158   75..20       MOV     ?V0 + 0,#0x20
   \   00015B   75..00       MOV     ?V0 + 1,#0x0
   \   00015E   78..         MOV     R0,#?V0 + 0
   \   000160   12....       LCALL   ?PUSH_XSTACK_I_TWO
   \   000163   A9..         MOV     R1,?V0 + 6
   \   000165   7403         MOV     A,#0x3
   \   000167   12....       LCALL   ?XSTACK_DISP0_8
   \   00016A   E0           MOVX    A,@DPTR
   \   00016B   FC           MOV     R4,A
   \   00016C   A3           INC     DPTR
   \   00016D   E0           MOVX    A,@DPTR
   \   00016E   FD           MOV     R5,A
   \   00016F   7A..         MOV     R2,#(ZDP_TransID & 0xff)
   \   000171   7B..         MOV     R3,#((ZDP_TransID >> 8) & 0xff)
   \   000173   12....       LCALL   ??fillAndSend?relay
   \   000176   7402         MOV     A,#0x2
   \   000178   12....       LCALL   ?DEALLOC_XSTACK8
   \                     ??ZDP_EndDeviceBindReq_1:
   \   00017B   7403         MOV     A,#0x3
   \   00017D   12....       LCALL   ?DEALLOC_XSTACK8
   \   000180   7F08         MOV     R7,#0x8
   \   000182   02....       LJMP    ?BANKED_LEAVE_XDATA
   1093          }
   1094          
   1095          /*********************************************************************
   1096           * @fn          ZDP_BindUnbindReq
   1097           *
   1098           * @brief       This builds and send a Bind_req or Unbind_req message
   1099           *              Depending on the ClusterID. This function
   1100           *              sends a unicast message to the local coordinator.
   1101           *
   1102           * @param       BindOrUnbind - either Bind_req or Unbind_req
   1103           * @param       dstAddr - destination address of the message
   1104           * @param       SourceAddr - source 64 bit address of the binding
   1105           * @param       SrcEPIntf - Source endpoint/interface
   1106           * @param       ClusterID - Binding cluster ID
   1107           * @param       DestinationAddr - destination 64 bit addr of binding
   1108           * @param       DstEPIntf - destination endpoint/interface
   1109           * @param       SecurityEnable - Security Options
   1110           *
   1111           * @return      afStatus_t
   1112           */

   \                                 In  segment BANKED_CODE, align 1, keep-with-next
   1113          afStatus_t ZDP_BindUnbindReq( uint16 BindOrUnbind, zAddrType_t *dstAddr,
   \                     ZDP_BindUnbindReq:
   1114                                        uint8 *SourceAddr, byte SrcEndPoint,
   1115                                        cId_t ClusterID,
   1116                                        zAddrType_t *destinationAddr, byte DstEndPoint,
   1117                                        byte SecurityEnable )
   1118          {
   \   000000   74F0         MOV     A,#-0x10
   \   000002   12....       LCALL   ?BANKED_ENTER_XDATA
   \   000005                ; Saved register size: 16
   \   000005                ; Auto size: 2
   \   000005   74FE         MOV     A,#-0x2
   \   000007   12....       LCALL   ?ALLOC_XSTACK8
   \   00000A   85..82       MOV     DPL,?XSP + 0
   \   00000D   85..83       MOV     DPH,?XSP + 1
   \   000010   EC           MOV     A,R4
   \   000011   F0           MOVX    @DPTR,A
   \   000012   A3           INC     DPTR
   \   000013   ED           MOV     A,R5
   \   000014   F0           MOVX    @DPTR,A
   \   000015   8A..         MOV     ?V0 + 2,R2
   \   000017   8B..         MOV     ?V0 + 3,R3
   \   000019   89..         MOV     ?V0 + 1,R1
   \   00001B   7412         MOV     A,#0x12
   \   00001D   12....       LCALL   ?XSTACK_DISP0_8
   \   000020   E0           MOVX    A,@DPTR
   \   000021   FC           MOV     R4,A
   \   000022   A3           INC     DPTR
   \   000023   E0           MOVX    A,@DPTR
   \   000024   FD           MOV     R5,A
   \   000025   7414         MOV     A,#0x14
   \   000027   12....       LCALL   ?XSTACK_DISP0_8
   \   00002A   E0           MOVX    A,@DPTR
   \   00002B   FE           MOV     R6,A
   \   00002C   A3           INC     DPTR
   \   00002D   E0           MOVX    A,@DPTR
   \   00002E   FF           MOV     R7,A
   1119            uint8 *pBuf = ZDP_TmpBuf;
   1120            byte len;
   1121          
   1122            (void)SecurityEnable;  // Intentionally unreferenced parameter
   1123          
   1124            // SourceAddr + SrcEPIntf + ClusterID +  addrMode.
   1125            len = Z_EXTADDR_LEN + 1 + sizeof( cId_t ) + sizeof( uint8 );
   \   00002F   75..0C       MOV     ?V0 + 0,#0xc
   1126            if ( destinationAddr->addrMode == Addr64Bit )
   \   000032   7416         MOV     A,#0x16
   \   000034   12....       LCALL   ?XSTACK_DISP0_8
   \   000037   E0           MOVX    A,@DPTR
   \   000038   2408         ADD     A,#0x8
   \   00003A   F5..         MOV     ?V0 + 6,A
   \   00003C   A3           INC     DPTR
   \   00003D   E0           MOVX    A,@DPTR
   \   00003E   3400         ADDC    A,#0x0
   \   000040   F5..         MOV     ?V0 + 7,A
   \   000042   85..82       MOV     DPL,?V0 + 6
   \   000045   F583         MOV     DPH,A
   \   000047   E0           MOVX    A,@DPTR
   \   000048   6403         XRL     A,#0x3
   \   00004A   7005         JNZ     ??ZDP_BindUnbindReq_0
   1127              len += Z_EXTADDR_LEN + 1;     // +1 for DstEPIntf
   \   00004C   75..15       MOV     ?V0 + 0,#0x15
   \   00004F   8008         SJMP    ??ZDP_BindUnbindReq_1
   1128            else if ( destinationAddr->addrMode == AddrGroup )
   \                     ??ZDP_BindUnbindReq_0:
   \   000051   E0           MOVX    A,@DPTR
   \   000052   6401         XRL     A,#0x1
   \   000054   7003         JNZ     ??ZDP_BindUnbindReq_1
   1129              len += sizeof ( uint16 );
   \   000056   75..0E       MOV     ?V0 + 0,#0xe
   1130          
   1131            pBuf = osal_cpyExtAddr( pBuf, SourceAddr );
   \                     ??ZDP_BindUnbindReq_1:
   \   000059                ; Setup parameters for call to function sAddrExtCpy
   \   000059   90....       MOV     DPTR,#ZDP_TmpBuf
   \   00005C   E0           MOVX    A,@DPTR
   \   00005D   FA           MOV     R2,A
   \   00005E   A3           INC     DPTR
   \   00005F   E0           MOVX    A,@DPTR
   \   000060   FB           MOV     R3,A
   \   000061   12....       LCALL   ??sAddrExtCpy?relay
   1132            *pBuf++ = SrcEndPoint;
   \   000064   8A82         MOV     DPL,R2
   \   000066   8B83         MOV     DPH,R3
   \   000068   E5..         MOV     A,?V0 + 1
   \   00006A   F0           MOVX    @DPTR,A
   \   00006B   A3           INC     DPTR
   1133          
   1134            *pBuf++ = LO_UINT16( ClusterID );
   \   00006C   EE           MOV     A,R6
   \   00006D   F0           MOVX    @DPTR,A
   \   00006E   A3           INC     DPTR
   1135          
   1136            *pBuf++ = HI_UINT16( ClusterID );
   \   00006F   EF           MOV     A,R7
   \   000070   F0           MOVX    @DPTR,A
   \   000071   A3           INC     DPTR
   \   000072   AA82         MOV     R2,DPL
   \   000074   AB83         MOV     R3,DPH
   1137            *pBuf++ = destinationAddr->addrMode;
   \   000076   85..82       MOV     DPL,?V0 + 6
   \   000079   85..83       MOV     DPH,?V0 + 7
   \   00007C   E0           MOVX    A,@DPTR
   \   00007D   8A82         MOV     DPL,R2
   \   00007F   8B83         MOV     DPH,R3
   \   000081   F0           MOVX    @DPTR,A
   \   000082   A3           INC     DPTR
   \   000083   0A           INC     R2
   \   000084   AB83         MOV     R3,DPH
   1138            if ( destinationAddr->addrMode == Addr64Bit )
   \   000086   85..82       MOV     DPL,?V0 + 6
   \   000089   85..83       MOV     DPH,?V0 + 7
   \   00008C   E0           MOVX    A,@DPTR
   \   00008D   6403         XRL     A,#0x3
   \   00008F   7014         JNZ     ??ZDP_BindUnbindReq_2
   1139            {
   1140              pBuf = osal_cpyExtAddr( pBuf, destinationAddr->addr.extAddr );
   \   000091                ; Setup parameters for call to function sAddrExtCpy
   \   000091   7416         MOV     A,#0x16
   \   000093   12....       LCALL   ?XSTACK_DISP0_8
   \   000096   E0           MOVX    A,@DPTR
   \   000097   FC           MOV     R4,A
   \   000098   A3           INC     DPTR
   \   000099   E0           MOVX    A,@DPTR
   \   00009A   FD           MOV     R5,A
   \   00009B   12....       LCALL   ??sAddrExtCpy?relay
   1141              *pBuf = DstEndPoint;
   \   00009E   7418         MOV     A,#0x18
   \   0000A0   12....       LCALL   ?XSTACK_DISP0_8
   \   0000A3   802A         SJMP    ??ZDP_BindUnbindReq_3
   1142            }
   1143            else if ( destinationAddr->addrMode == AddrGroup )
   \                     ??ZDP_BindUnbindReq_2:
   \   0000A5   E0           MOVX    A,@DPTR
   \   0000A6   6401         XRL     A,#0x1
   \   0000A8   702B         JNZ     ??ZDP_BindUnbindReq_4
   1144            {
   1145              *pBuf++ = LO_UINT16( destinationAddr->addr.shortAddr );
   \   0000AA   7416         MOV     A,#0x16
   \   0000AC   12....       LCALL   ?XSTACK_DISP0_8
   \   0000AF   E0           MOVX    A,@DPTR
   \   0000B0   F8           MOV     R0,A
   \   0000B1   A3           INC     DPTR
   \   0000B2   E0           MOVX    A,@DPTR
   \   0000B3   F583         MOV     DPH,A
   \   0000B5   8882         MOV     DPL,R0
   \   0000B7   E0           MOVX    A,@DPTR
   \   0000B8   8A82         MOV     DPL,R2
   \   0000BA   8B83         MOV     DPH,R3
   \   0000BC   F0           MOVX    @DPTR,A
   \   0000BD   A3           INC     DPTR
   \   0000BE   0A           INC     R2
   \   0000BF   AB83         MOV     R3,DPH
   1146              *pBuf++ = HI_UINT16( destinationAddr->addr.shortAddr );
   \   0000C1   7416         MOV     A,#0x16
   \   0000C3   12....       LCALL   ?XSTACK_DISP0_8
   \   0000C6   E0           MOVX    A,@DPTR
   \   0000C7   F8           MOV     R0,A
   \   0000C8   A3           INC     DPTR
   \   0000C9   E0           MOVX    A,@DPTR
   \   0000CA   F583         MOV     DPH,A
   \   0000CC   8882         MOV     DPL,R0
   \   0000CE   A3           INC     DPTR
   \                     ??ZDP_BindUnbindReq_3:
   \   0000CF   E0           MOVX    A,@DPTR
   \   0000D0   8A82         MOV     DPL,R2
   \   0000D2   8B83         MOV     DPH,R3
   \   0000D4   F0           MOVX    @DPTR,A
   1147            }
   1148          
   1149            FillAndSendTxOptions( &ZDP_TransID, dstAddr, BindOrUnbind, len, AF_MSG_ACK_REQUEST );
   \                     ??ZDP_BindUnbindReq_4:
   \   0000D5   7410         MOV     A,#0x10
   \   0000D7   90....       MOV     DPTR,#ZDP_TxOptions
   \   0000DA   F0           MOVX    @DPTR,A
   \   0000DB                ; Setup parameters for call to function fillAndSend
   \   0000DB   78..         MOV     R0,#?V0 + 2
   \   0000DD   12....       LCALL   ?PUSH_XSTACK_I_TWO
   \   0000E0   A9..         MOV     R1,?V0 + 0
   \   0000E2   7402         MOV     A,#0x2
   \   0000E4   12....       LCALL   ?XSTACK_DISP0_8
   \   0000E7   E0           MOVX    A,@DPTR
   \   0000E8   FC           MOV     R4,A
   \   0000E9   A3           INC     DPTR
   \   0000EA   E0           MOVX    A,@DPTR
   \   0000EB   FD           MOV     R5,A
   \   0000EC   7A..         MOV     R2,#(ZDP_TransID & 0xff)
   \   0000EE   7B..         MOV     R3,#((ZDP_TransID >> 8) & 0xff)
   \   0000F0   12....       LCALL   ??fillAndSend?relay
   \   0000F3   7402         MOV     A,#0x2
   \   0000F5   12....       LCALL   ?DEALLOC_XSTACK8
   \   0000F8   E4           CLR     A
   \   0000F9   90....       MOV     DPTR,#ZDP_TxOptions
   \   0000FC   F0           MOVX    @DPTR,A
   \   0000FD   7402         MOV     A,#0x2
   \   0000FF   12....       LCALL   ?DEALLOC_XSTACK8
   \   000102   7F08         MOV     R7,#0x8
   \   000104   02....       LJMP    ?BANKED_LEAVE_XDATA
   1150          }
   1151          
   1152          /*********************************************************************
   1153           * Network Management
   1154           */
   1155          
   1156          /*********************************************************************
   1157           * @fn          ZDP_MgmtNwkDiscReq
   1158           *
   1159           * @brief       This builds and send a Mgmt_NWK_Disc_req message. This
   1160           *              function sends a unicast message.
   1161           *
   1162           * @param       dstAddr - destination address of the message
   1163           * @param       ScanChannels - 32 bit address bit map
   1164           * @param       StartIndex - Starting index within the reporting network
   1165           *                           list
   1166           * @param       SecurityEnable - Security Options
   1167           *
   1168           * @return      afStatus_t
   1169           */

   \                                 In  segment BANKED_CODE, align 1, keep-with-next
   1170          afStatus_t ZDP_MgmtNwkDiscReq( zAddrType_t *dstAddr,
   \                     ZDP_MgmtNwkDiscReq:
   1171                                         uint32 ScanChannels,
   1172                                         byte ScanDuration,
   1173                                         byte StartIndex,
   1174                                         byte SecurityEnable )
   1175          {
   \   000000   74F2         MOV     A,#-0xe
   \   000002   12....       LCALL   ?BANKED_ENTER_XDATA
   \   000005                ; Saved register size: 14
   \   000005                ; Auto size: 0
   \   000005   8A..         MOV     ?V0 + 4,R2
   \   000007   8B..         MOV     ?V0 + 5,R3
   \   000009   E9           MOV     A,R1
   \   00000A   FF           MOV     R7,A
   \   00000B   EC           MOV     A,R4
   \   00000C   FE           MOV     R6,A
   \   00000D   740E         MOV     A,#0xe
   \   00000F   12....       LCALL   ?XSTACK_DISP0_8
   \   000012   78..         MOV     R0,#?V0 + 0
   \   000014   12....       LCALL   ?L_MOV_X
   1176            uint8 *pBuf = ZDP_TmpBuf;
   1177            byte len = sizeof( uint32 )+1+1;  // ScanChannels + ScanDuration + StartIndex.
   1178          
   1179            (void)SecurityEnable;  // Intentionally unreferenced parameter
   1180          
   1181            pBuf = osal_buffer_uint32( pBuf, ScanChannels );
   \   000017                ; Setup parameters for call to function osal_buffer_uint32
   \   000017   78..         MOV     R0,#?V0 + 0
   \   000019   12....       LCALL   ?PUSH_XSTACK_I_FOUR
   \   00001C   90....       MOV     DPTR,#ZDP_TmpBuf
   \   00001F   E0           MOVX    A,@DPTR
   \   000020   FA           MOV     R2,A
   \   000021   A3           INC     DPTR
   \   000022   E0           MOVX    A,@DPTR
   \   000023   FB           MOV     R3,A
   \   000024   12....       LCALL   ??osal_buffer_uint32?relay
   \   000027   7404         MOV     A,#0x4
   \   000029   12....       LCALL   ?DEALLOC_XSTACK8
   \   00002C   8A82         MOV     DPL,R2
   \   00002E   8B83         MOV     DPH,R3
   1182          
   1183            *pBuf++ = ScanDuration;
   \   000030   EF           MOV     A,R7
   \   000031   F0           MOVX    @DPTR,A
   \   000032   A3           INC     DPTR
   1184            *pBuf = StartIndex;
   \   000033   EE           MOV     A,R6
   \   000034   F0           MOVX    @DPTR,A
   1185          
   1186            return fillAndSend( &ZDP_TransID, dstAddr, Mgmt_NWK_Disc_req, len );
   \   000035                ; Setup parameters for call to function fillAndSend
   \   000035   75..30       MOV     ?V0 + 0,#0x30
   \   000038   75..00       MOV     ?V0 + 1,#0x0
   \   00003B   78..         MOV     R0,#?V0 + 0
   \   00003D   12....       LCALL   ?PUSH_XSTACK_I_TWO
   \   000040   7906         MOV     R1,#0x6
   \   000042   AC..         MOV     R4,?V0 + 4
   \   000044   AD..         MOV     R5,?V0 + 5
   \   000046   7A..         MOV     R2,#(ZDP_TransID & 0xff)
   \   000048   7B..         MOV     R3,#((ZDP_TransID >> 8) & 0xff)
   \   00004A   12....       LCALL   ??fillAndSend?relay
   \   00004D   7402         MOV     A,#0x2
   \   00004F   12....       LCALL   ?DEALLOC_XSTACK8
   \   000052   7F06         MOV     R7,#0x6
   \   000054   02....       LJMP    ?BANKED_LEAVE_XDATA
   1187          }
   1188          
   1189          /*********************************************************************
   1190           * @fn          ZDP_MgmtDirectJoinReq
   1191           *
   1192           * @brief       This builds and send a Mgmt_Direct_Join_req message. This
   1193           *              function sends a unicast message.
   1194           *
   1195           * @param       dstAddr - destination address of the message
   1196           * @param       deviceAddr - 64 bit IEEE Address
   1197           * @param       SecurityEnable - Security Options
   1198           *
   1199           * @return      afStatus_t
   1200           */

   \                                 In  segment BANKED_CODE, align 1, keep-with-next
   1201          afStatus_t ZDP_MgmtDirectJoinReq( zAddrType_t *dstAddr,
   \                     ZDP_MgmtDirectJoinReq:
   1202                                         uint8 *deviceAddr,
   1203                                         byte capInfo,
   1204                                         byte SecurityEnable )
   1205          {
   \   000000   74F6         MOV     A,#-0xa
   \   000002   12....       LCALL   ?BANKED_ENTER_XDATA
   \   000005                ; Saved register size: 10
   \   000005                ; Auto size: 0
   \   000005   EA           MOV     A,R2
   \   000006   FE           MOV     R6,A
   \   000007   EB           MOV     A,R3
   \   000008   FF           MOV     R7,A
   \   000009   89..         MOV     ?V0 + 0,R1
   1206            (void)SecurityEnable;  // Intentionally unreferenced parameter
   1207          
   1208            osal_cpyExtAddr( ZDP_TmpBuf, deviceAddr );
   \   00000B                ; Setup parameters for call to function sAddrExtCpy
   \   00000B   90....       MOV     DPTR,#ZDP_TmpBuf
   \   00000E   E0           MOVX    A,@DPTR
   \   00000F   FA           MOV     R2,A
   \   000010   A3           INC     DPTR
   \   000011   E0           MOVX    A,@DPTR
   \   000012   FB           MOV     R3,A
   \   000013   12....       LCALL   ??sAddrExtCpy?relay
   1209            ZDP_TmpBuf[Z_EXTADDR_LEN] = capInfo;
   \   000016   90....       MOV     DPTR,#ZDP_TmpBuf
   \   000019   E0           MOVX    A,@DPTR
   \   00001A   F8           MOV     R0,A
   \   00001B   A3           INC     DPTR
   \   00001C   E0           MOVX    A,@DPTR
   \   00001D   F583         MOV     DPH,A
   \   00001F   8882         MOV     DPL,R0
   \   000021   A3           INC     DPTR
   \   000022   A3           INC     DPTR
   \   000023   A3           INC     DPTR
   \   000024   A3           INC     DPTR
   \   000025   A3           INC     DPTR
   \   000026   A3           INC     DPTR
   \   000027   A3           INC     DPTR
   \   000028   A3           INC     DPTR
   \   000029   E5..         MOV     A,?V0 + 0
   \   00002B   F0           MOVX    @DPTR,A
   1210          
   1211            return fillAndSend( &ZDP_TransID, dstAddr, Mgmt_Direct_Join_req, (Z_EXTADDR_LEN + 1) );
   \   00002C                ; Setup parameters for call to function fillAndSend
   \   00002C   75..35       MOV     ?V0 + 0,#0x35
   \   00002F   75..00       MOV     ?V0 + 1,#0x0
   \   000032   78..         MOV     R0,#?V0 + 0
   \   000034   12....       LCALL   ?PUSH_XSTACK_I_TWO
   \   000037   7909         MOV     R1,#0x9
   \   000039   EE           MOV     A,R6
   \   00003A   FC           MOV     R4,A
   \   00003B   EF           MOV     A,R7
   \   00003C   FD           MOV     R5,A
   \   00003D   7A..         MOV     R2,#(ZDP_TransID & 0xff)
   \   00003F   7B..         MOV     R3,#((ZDP_TransID >> 8) & 0xff)
   \   000041   12....       LCALL   ??fillAndSend?relay
   \   000044   7402         MOV     A,#0x2
   \   000046   12....       LCALL   ?DEALLOC_XSTACK8
   \   000049   7F02         MOV     R7,#0x2
   \   00004B   02....       LJMP    ?BANKED_LEAVE_XDATA
   1212          }
   1213          
   1214          /*********************************************************************
   1215           * @fn          ZDP_MgmtPermitJoinReq
   1216           *
   1217           * @brief       This builds and send a Mgmt_Permit_Join_req message.
   1218           *
   1219           * @param       dstAddr - destination address of the message
   1220           * @param       duration - Permit duration
   1221           * @param       TcSignificance - Trust Center Significance
   1222           *
   1223           * @return      afStatus_t
   1224           */

   \                                 In  segment BANKED_CODE, align 1, keep-with-next
   1225          afStatus_t ZDP_MgmtPermitJoinReq( zAddrType_t *dstAddr, byte duration,
   \                     ZDP_MgmtPermitJoinReq:
   1226                                            byte TcSignificance, byte SecurityEnable )
   1227          {
   \   000000   74F6         MOV     A,#-0xa
   \   000002   12....       LCALL   ?BANKED_ENTER_XDATA
   \   000005                ; Saved register size: 10
   \   000005                ; Auto size: 0
   1228            (void)SecurityEnable;  // Intentionally unreferenced parameter
   1229          
   1230            // Build buffer
   1231            ZDP_TmpBuf[ZDP_MGMT_PERMIT_JOIN_REQ_DURATION] = duration;
   \   000005   E9           MOV     A,R1
   \   000006   C0E0         PUSH    A
   \   000008   90....       MOV     DPTR,#ZDP_TmpBuf
   \   00000B   E0           MOVX    A,@DPTR
   \   00000C   F8           MOV     R0,A
   \   00000D   A3           INC     DPTR
   \   00000E   E0           MOVX    A,@DPTR
   \   00000F   F583         MOV     DPH,A
   \   000011   8882         MOV     DPL,R0
   \   000013   D0E0         POP     A
   \   000015   F0           MOVX    @DPTR,A
   1232            ZDP_TmpBuf[ZDP_MGMT_PERMIT_JOIN_REQ_TC_SIG]   = TcSignificance;
   \   000016   EC           MOV     A,R4
   \   000017   C0E0         PUSH    A
   \   000019   90....       MOV     DPTR,#ZDP_TmpBuf
   \   00001C   E0           MOVX    A,@DPTR
   \   00001D   F8           MOV     R0,A
   \   00001E   A3           INC     DPTR
   \   00001F   E0           MOVX    A,@DPTR
   \   000020   F583         MOV     DPH,A
   \   000022   8882         MOV     DPL,R0
   \   000024   A3           INC     DPTR
   \   000025   D0E0         POP     A
   \   000027   F0           MOVX    @DPTR,A
   1233          
   1234            // Send the message
   1235            return fillAndSend( &ZDP_TransID, dstAddr, Mgmt_Permit_Join_req,
   1236                                ZDP_MGMT_PERMIT_JOIN_REQ_SIZE );
   \   000028                ; Setup parameters for call to function fillAndSend
   \   000028   75..36       MOV     ?V0 + 0,#0x36
   \   00002B   75..00       MOV     ?V0 + 1,#0x0
   \   00002E   78..         MOV     R0,#?V0 + 0
   \   000030   12....       LCALL   ?PUSH_XSTACK_I_TWO
   \   000033   7902         MOV     R1,#0x2
   \   000035   EA           MOV     A,R2
   \   000036   FC           MOV     R4,A
   \   000037   EB           MOV     A,R3
   \   000038   FD           MOV     R5,A
   \   000039   7A..         MOV     R2,#(ZDP_TransID & 0xff)
   \   00003B   7B..         MOV     R3,#((ZDP_TransID >> 8) & 0xff)
   \   00003D   12....       LCALL   ??fillAndSend?relay
   \   000040   7402         MOV     A,#0x2
   \   000042   12....       LCALL   ?DEALLOC_XSTACK8
   \   000045   7F02         MOV     R7,#0x2
   \   000047   02....       LJMP    ?BANKED_LEAVE_XDATA
   1237          }
   1238          
   1239          /*********************************************************************
   1240           * @fn          ZDP_MgmtLeaveReq
   1241           *
   1242           * @brief       This builds and send a Mgmt_Leave_req message.
   1243           *
   1244           * @param       dstAddr - destination address of the message
   1245           *              IEEEAddr - IEEE adddress of device that is removed
   1246           *              RemoveChildren - set to 1 to remove the children of the
   1247           *                                device as well. 0 otherwise.
   1248           *              Rejoin - set to 1 if the removed device should rejoin
   1249                                   afterwards. 0 otherwise.
   1250           *
   1251           * @return      afStatus_t
   1252           */

   \                                 In  segment BANKED_CODE, align 1, keep-with-next
   1253          afStatus_t ZDP_MgmtLeaveReq( zAddrType_t *dstAddr, uint8 *IEEEAddr, uint8 RemoveChildren,
   \                     ZDP_MgmtLeaveReq:
   1254                           uint8 Rejoin, uint8 SecurityEnable )
   1255          
   1256          {
   \   000000   74F6         MOV     A,#-0xa
   \   000002   12....       LCALL   ?BANKED_ENTER_XDATA
   \   000005                ; Saved register size: 10
   \   000005                ; Auto size: 0
   \   000005   EA           MOV     A,R2
   \   000006   FE           MOV     R6,A
   \   000007   EB           MOV     A,R3
   \   000008   FF           MOV     R7,A
   \   000009   89..         MOV     ?V0 + 0,R1
   \   00000B   740A         MOV     A,#0xa
   \   00000D   12....       LCALL   ?XSTACK_DISP0_8
   \   000010   E0           MOVX    A,@DPTR
   \   000011   F5..         MOV     ?V0 + 1,A
   1257            (void)SecurityEnable;  // Intentionally unreferenced parameter
   1258          
   1259            osal_cpyExtAddr( ZDP_TmpBuf, IEEEAddr );
   \   000013                ; Setup parameters for call to function sAddrExtCpy
   \   000013   90....       MOV     DPTR,#ZDP_TmpBuf
   \   000016   E0           MOVX    A,@DPTR
   \   000017   FA           MOV     R2,A
   \   000018   A3           INC     DPTR
   \   000019   E0           MOVX    A,@DPTR
   \   00001A   FB           MOV     R3,A
   \   00001B   12....       LCALL   ??sAddrExtCpy?relay
   1260            ZDP_TmpBuf[Z_EXTADDR_LEN] = 0;
   \   00001E   90....       MOV     DPTR,#ZDP_TmpBuf
   \   000021   E0           MOVX    A,@DPTR
   \   000022   2408         ADD     A,#0x8
   \   000024   F8           MOV     R0,A
   \   000025   A3           INC     DPTR
   \   000026   E0           MOVX    A,@DPTR
   \   000027   3400         ADDC    A,#0x0
   \   000029   F9           MOV     R1,A
   \   00002A   8882         MOV     DPL,R0
   \   00002C   8983         MOV     DPH,R1
   \   00002E   E4           CLR     A
   \   00002F   F0           MOVX    @DPTR,A
   1261          
   1262            if ( RemoveChildren == TRUE )
   \   000030   7401         MOV     A,#0x1
   \   000032   65..         XRL     A,?V0 + 0
   \   000034   7004         JNZ     ??ZDP_MgmtLeaveReq_0
   1263            {
   1264              ZDP_TmpBuf[Z_EXTADDR_LEN] |= ZDP_MGMT_LEAVE_REQ_RC;
   \   000036   E0           MOVX    A,@DPTR
   \   000037   D2E6         SETB    0xE0 /* A   */.6
   \   000039   F0           MOVX    @DPTR,A
   1265            }
   1266            if ( Rejoin == TRUE )
   \                     ??ZDP_MgmtLeaveReq_0:
   \   00003A   7401         MOV     A,#0x1
   \   00003C   65..         XRL     A,?V0 + 1
   \   00003E   7004         JNZ     ??ZDP_MgmtLeaveReq_1
   1267            {
   1268              ZDP_TmpBuf[Z_EXTADDR_LEN] |= ZDP_MGMT_LEAVE_REQ_REJOIN;
   \   000040   E0           MOVX    A,@DPTR
   \   000041   D2E7         SETB    0xE0 /* A   */.7
   \   000043   F0           MOVX    @DPTR,A
   1269            }
   1270          
   1271            return fillAndSend( &ZDP_TransID, dstAddr, Mgmt_Leave_req, (Z_EXTADDR_LEN + 1) );
   \                     ??ZDP_MgmtLeaveReq_1:
   \   000044                ; Setup parameters for call to function fillAndSend
   \   000044   75..34       MOV     ?V0 + 0,#0x34
   \   000047   75..00       MOV     ?V0 + 1,#0x0
   \   00004A   78..         MOV     R0,#?V0 + 0
   \   00004C   12....       LCALL   ?PUSH_XSTACK_I_TWO
   \   00004F   7909         MOV     R1,#0x9
   \   000051   EE           MOV     A,R6
   \   000052   FC           MOV     R4,A
   \   000053   EF           MOV     A,R7
   \   000054   FD           MOV     R5,A
   \   000055   7A..         MOV     R2,#(ZDP_TransID & 0xff)
   \   000057   7B..         MOV     R3,#((ZDP_TransID >> 8) & 0xff)
   \   000059   12....       LCALL   ??fillAndSend?relay
   \   00005C   7402         MOV     A,#0x2
   \   00005E   12....       LCALL   ?DEALLOC_XSTACK8
   \   000061   7F02         MOV     R7,#0x2
   \   000063   02....       LJMP    ?BANKED_LEAVE_XDATA
   1272          }
   1273          
   1274          /*********************************************************************
   1275           * @fn          ZDP_MgmtNwkUpdateReq
   1276           *
   1277           * @brief       This builds and send a Mgmt_NWK_Update_req message. This
   1278           *              function sends a unicast or broadcast message.
   1279           *
   1280           * @param       dstAddr - destination address of the message
   1281           * @param       ChannelMask - 32 bit address bit map
   1282           * @param       ScanDuration - length of time to spend scanning each channel
   1283           * @param       ScanCount - number of energy scans to be conducted
   1284           * @param       NwkUpdateId - NWk Update Id value
   1285           * @param       NwkManagerAddr - NWK address for device with Network Manager
   1286           *                               bit set in its Node Descriptor
   1287           *
   1288           * @return      afStatus_t
   1289           */

   \                                 In  segment BANKED_CODE, align 1, keep-with-next
   1290          afStatus_t ZDP_MgmtNwkUpdateReq( zAddrType_t *dstAddr,
   \                     ZDP_MgmtNwkUpdateReq:
   1291                                           uint32 ChannelMask,
   1292                                           uint8 ScanDuration,
   1293                                           uint8 ScanCount,
   1294                                           uint8 NwkUpdateId,
   1295                                           uint16 NwkManagerAddr )
   1296          {
   \   000000   74F0         MOV     A,#-0x10
   \   000002   12....       LCALL   ?BANKED_ENTER_XDATA
   \   000005                ; Saved register size: 16
   \   000005                ; Auto size: 2
   \   000005   74FE         MOV     A,#-0x2
   \   000007   12....       LCALL   ?ALLOC_XSTACK8
   \   00000A   85..82       MOV     DPL,?XSP + 0
   \   00000D   85..83       MOV     DPH,?XSP + 1
   \   000010   EA           MOV     A,R2
   \   000011   F0           MOVX    @DPTR,A
   \   000012   A3           INC     DPTR
   \   000013   EB           MOV     A,R3
   \   000014   F0           MOVX    @DPTR,A
   \   000015   89..         MOV     ?V0 + 4,R1
   \   000017   8C..         MOV     ?V0 + 7,R4
   \   000019   8D..         MOV     ?V0 + 6,R5
   \   00001B   7412         MOV     A,#0x12
   \   00001D   12....       LCALL   ?XSTACK_DISP0_8
   \   000020   78..         MOV     R0,#?V0 + 0
   \   000022   12....       LCALL   ?L_MOV_X
   \   000025   7416         MOV     A,#0x16
   \   000027   12....       LCALL   ?XSTACK_DISP0_8
   \   00002A   E0           MOVX    A,@DPTR
   \   00002B   FE           MOV     R6,A
   \   00002C   A3           INC     DPTR
   \   00002D   E0           MOVX    A,@DPTR
   \   00002E   FF           MOV     R7,A
   1297            uint8 *pBuf = ZDP_TmpBuf;
   1298            byte len = sizeof( uint32 ) + 1;  // ChannelMask + ScanDuration
   \   00002F   75..05       MOV     ?V0 + 5,#0x5
   1299          
   1300            pBuf = osal_buffer_uint32( pBuf, ChannelMask );
   \   000032                ; Setup parameters for call to function osal_buffer_uint32
   \   000032   78..         MOV     R0,#?V0 + 0
   \   000034   12....       LCALL   ?PUSH_XSTACK_I_FOUR
   \   000037   90....       MOV     DPTR,#ZDP_TmpBuf
   \   00003A   E0           MOVX    A,@DPTR
   \   00003B   FA           MOV     R2,A
   \   00003C   A3           INC     DPTR
   \   00003D   E0           MOVX    A,@DPTR
   \   00003E   FB           MOV     R3,A
   \   00003F   12....       LCALL   ??osal_buffer_uint32?relay
   \   000042   7404         MOV     A,#0x4
   \   000044   12....       LCALL   ?DEALLOC_XSTACK8
   \   000047   8A82         MOV     DPL,R2
   \   000049   8B83         MOV     DPH,R3
   1301          
   1302            *pBuf++ = ScanDuration;
   \   00004B   E5..         MOV     A,?V0 + 4
   \   00004D   F0           MOVX    @DPTR,A
   \   00004E   A3           INC     DPTR
   1303          
   1304            if ( ScanDuration <= 0x05 )
   \   00004F   C3           CLR     C
   \   000050   9406         SUBB    A,#0x6
   \   000052   5007         JNC     ??ZDP_MgmtNwkUpdateReq_0
   1305            {
   1306              // Request is to scan over channelMask
   1307              len += sizeof( uint8 );
   \   000054   75..06       MOV     ?V0 + 5,#0x6
   1308          
   1309              *pBuf++ = ScanCount;
   \   000057   E5..         MOV     A,?V0 + 7
   \   000059   8020         SJMP    ??ZDP_MgmtNwkUpdateReq_1
   1310            }
   1311            else if ( ( ScanDuration == 0xFE ) || ( ScanDuration == 0xFF ) )
   \                     ??ZDP_MgmtNwkUpdateReq_0:
   \   00005B   74FE         MOV     A,#-0x2
   \   00005D   65..         XRL     A,?V0 + 4
   \   00005F   6006         JZ      ??ZDP_MgmtNwkUpdateReq_2
   \   000061   74FF         MOV     A,#-0x1
   \   000063   65..         XRL     A,?V0 + 4
   \   000065   7015         JNZ     ??ZDP_MgmtNwkUpdateReq_3
   1312            {
   1313              // Request is to change Channel (0xFE) or apsChannelMask and NwkManagerAddr (0xFF)
   1314              len += sizeof( uint8 );
   \                     ??ZDP_MgmtNwkUpdateReq_2:
   \   000067   75..06       MOV     ?V0 + 5,#0x6
   1315          
   1316              *pBuf++ = NwkUpdateId;
   \   00006A   E5..         MOV     A,?V0 + 6
   \   00006C   F0           MOVX    @DPTR,A
   \   00006D   A3           INC     DPTR
   1317          
   1318              if ( ScanDuration == 0xFF )
   \   00006E   74FF         MOV     A,#-0x1
   \   000070   65..         XRL     A,?V0 + 4
   \   000072   7008         JNZ     ??ZDP_MgmtNwkUpdateReq_3
   1319              {
   1320                len += sizeof( uint16 );
   \   000074   75..08       MOV     ?V0 + 5,#0x8
   1321          
   1322                *pBuf++  = LO_UINT16( NwkManagerAddr );
   \   000077   EE           MOV     A,R6
   \   000078   F0           MOVX    @DPTR,A
   \   000079   A3           INC     DPTR
   1323                *pBuf++  = HI_UINT16( NwkManagerAddr );
   \   00007A   EF           MOV     A,R7
   \                     ??ZDP_MgmtNwkUpdateReq_1:
   \   00007B   F0           MOVX    @DPTR,A
   1324              }
   1325            }
   1326          
   1327            return fillAndSend( &ZDP_TransID, dstAddr, Mgmt_NWK_Update_req, len );
   \                     ??ZDP_MgmtNwkUpdateReq_3:
   \   00007C                ; Setup parameters for call to function fillAndSend
   \   00007C   75..38       MOV     ?V0 + 0,#0x38
   \   00007F   75..00       MOV     ?V0 + 1,#0x0
   \   000082   78..         MOV     R0,#?V0 + 0
   \   000084   12....       LCALL   ?PUSH_XSTACK_I_TWO
   \   000087   A9..         MOV     R1,?V0 + 5
   \   000089   7402         MOV     A,#0x2
   \   00008B   12....       LCALL   ?XSTACK_DISP0_8
   \   00008E   E0           MOVX    A,@DPTR
   \   00008F   FC           MOV     R4,A
   \   000090   A3           INC     DPTR
   \   000091   E0           MOVX    A,@DPTR
   \   000092   FD           MOV     R5,A
   \   000093   7A..         MOV     R2,#(ZDP_TransID & 0xff)
   \   000095   7B..         MOV     R3,#((ZDP_TransID >> 8) & 0xff)
   \   000097   12....       LCALL   ??fillAndSend?relay
   \   00009A   7402         MOV     A,#0x2
   \   00009C   12....       LCALL   ?DEALLOC_XSTACK8
   \   00009F   7402         MOV     A,#0x2
   \   0000A1   12....       LCALL   ?DEALLOC_XSTACK8
   \   0000A4   7F08         MOV     R7,#0x8
   \   0000A6   02....       LJMP    ?BANKED_LEAVE_XDATA
   1328          }
   1329          
   1330          
   1331          /*********************************************************************
   1332           * Network Management Responses
   1333           */
   1334          
   1335          /*********************************************************************
   1336           * @fn          ZDP_MgmtNwkDiscRsp
   1337           *
   1338           * @brief       This builds and send a Mgmt_NWK_Disc_rsp message. This
   1339           *              function sends a unicast message.
   1340           *
   1341           * @param       dstAddr - destination address of the message
   1342           * @param       Status - message status (ZDP_SUCCESS or other)
   1343           * @param       NetworkCount - Total number of networks found
   1344           * @param       StartIndex - Starting index within the reporting network
   1345           *                           list
   1346           * @param       NetworkListCount - number of network lists included
   1347           *                                 in this message
   1348           * @param       NetworkList - List of network descriptors
   1349           * @param       SecurityEnable - Security Options
   1350           *
   1351           * @return      afStatus_t
   1352           */

   \                                 In  segment BANKED_CODE, align 1, keep-with-next
   1353          afStatus_t ZDP_MgmtNwkDiscRsp( byte TransSeq, zAddrType_t *dstAddr,
   \                     ZDP_MgmtNwkDiscRsp:
   1354                                      byte Status,
   1355                                      byte NetworkCount,
   1356                                      byte StartIndex,
   1357                                      byte NetworkListCount,
   1358                                      networkDesc_t *NetworkList,
   1359                                      byte SecurityEnable )
   1360          {
   \   000000   74F0         MOV     A,#-0x10
   \   000002   12....       LCALL   ?BANKED_ENTER_XDATA
   \   000005                ; Saved register size: 16
   \   000005                ; Auto size: 6
   \   000005   74FA         MOV     A,#-0x6
   \   000007   12....       LCALL   ?ALLOC_XSTACK8
   \   00000A   E9           MOV     A,R1
   \   00000B   C0E0         PUSH    A
   \   00000D   7403         MOV     A,#0x3
   \   00000F   12....       LCALL   ?XSTACK_DISP0_8
   \   000012   D0E0         POP     A
   \   000014   F0           MOVX    @DPTR,A
   \   000015   7404         MOV     A,#0x4
   \   000017   12....       LCALL   ?XSTACK_DISP0_8
   \   00001A   EA           MOV     A,R2
   \   00001B   F0           MOVX    @DPTR,A
   \   00001C   A3           INC     DPTR
   \   00001D   EB           MOV     A,R3
   \   00001E   F0           MOVX    @DPTR,A
   \   00001F   EC           MOV     A,R4
   \   000020   C0E0         PUSH    A
   \   000022   7402         MOV     A,#0x2
   \   000024   12....       LCALL   ?XSTACK_DISP0_8
   \   000027   D0E0         POP     A
   \   000029   F0           MOVX    @DPTR,A
   \   00002A   8D..         MOV     ?V0 + 5,R5
   \   00002C   7416         MOV     A,#0x16
   \   00002E   12....       LCALL   ?XSTACK_DISP0_8
   \   000031   E0           MOVX    A,@DPTR
   \   000032   F5..         MOV     ?V0 + 3,A
   \   000034   7417         MOV     A,#0x17
   \   000036   12....       LCALL   ?XSTACK_DISP0_8
   \   000039   E0           MOVX    A,@DPTR
   \   00003A   F5..         MOV     ?V0 + 4,A
   \   00003C   7418         MOV     A,#0x18
   \   00003E   12....       LCALL   ?XSTACK_DISP0_8
   \   000041   E0           MOVX    A,@DPTR
   \   000042   F5..         MOV     ?V0 + 0,A
   \   000044   A3           INC     DPTR
   \   000045   E0           MOVX    A,@DPTR
   \   000046   F5..         MOV     ?V0 + 1,A
   1361            uint8 *buf;
   1362            uint8 *pBuf;
   1363            byte len = 1+1+1+1;  // Status + NetworkCount + StartIndex + NetworkCountList.
   1364            byte idx;
   1365          
   1366            (void)SecurityEnable;  // Intentionally unreferenced parameter
   1367          
   1368            len += (NetworkListCount * ( ZDP_NETWORK_EXTENDED_DISCRIPTOR_SIZE - 2 ));
   \   000048   75F00C       MOV     B,#0xc
   \   00004B   E5..         MOV     A,?V0 + 4
   \   00004D   A4           MUL     AB
   \   00004E   2404         ADD     A,#0x4
   \   000050   F5..         MOV     ?V0 + 2,A
   1369          
   1370            buf = osal_mem_alloc( len+1 );
   \   000052                ; Setup parameters for call to function osal_mem_alloc
   \   000052   F5..         MOV     ?V0 + 6,A
   \   000054   7401         MOV     A,#0x1
   \   000056   25..         ADD     A,?V0 + 6
   \   000058   FA           MOV     R2,A
   \   000059   E4           CLR     A
   \   00005A   3400         ADDC    A,#0x0
   \   00005C   FB           MOV     R3,A
   \   00005D   12....       LCALL   ??osal_mem_alloc?relay
   \   000060   85..82       MOV     DPL,?XSP + 0
   \   000063   85..83       MOV     DPH,?XSP + 1
   \   000066   EA           MOV     A,R2
   \   000067   F0           MOVX    @DPTR,A
   \   000068   A3           INC     DPTR
   \   000069   EB           MOV     A,R3
   \   00006A   F0           MOVX    @DPTR,A
   1371            if ( buf == NULL )
   \   00006B   85..82       MOV     DPL,?XSP + 0
   \   00006E   85..83       MOV     DPH,?XSP + 1
   \   000071   E0           MOVX    A,@DPTR
   \   000072   7002         JNZ     ??ZDP_MgmtNwkDiscRsp_0
   \   000074   A3           INC     DPTR
   \   000075   E0           MOVX    A,@DPTR
   \                     ??ZDP_MgmtNwkDiscRsp_0:
   \   000076   7005         JNZ     ??ZDP_MgmtNwkDiscRsp_1
   1372            {
   1373              return afStatus_MEM_FAIL;
   \   000078   7910         MOV     R1,#0x10
   \   00007A   02....       LJMP    ??ZDP_MgmtNwkDiscRsp_2 & 0xFFFF
   1374            }
   1375          
   1376            pBuf = buf+1;
   \                     ??ZDP_MgmtNwkDiscRsp_1:
   \   00007D   85..82       MOV     DPL,?XSP + 0
   \   000080   85..83       MOV     DPH,?XSP + 1
   \   000083   E0           MOVX    A,@DPTR
   \   000084   2401         ADD     A,#0x1
   \   000086   F5..         MOV     ?V0 + 6,A
   \   000088   A3           INC     DPTR
   \   000089   E0           MOVX    A,@DPTR
   \   00008A   3400         ADDC    A,#0x0
   \   00008C   F5..         MOV     ?V0 + 7,A
   \   00008E   AE..         MOV     R6,?V0 + 6
   \   000090   FF           MOV     R7,A
   1377          
   1378            *pBuf++ = Status;
   \   000091   7402         MOV     A,#0x2
   \   000093   12....       LCALL   ?XSTACK_DISP0_8
   \   000096   E0           MOVX    A,@DPTR
   \   000097   8E82         MOV     DPL,R6
   \   000099   8F83         MOV     DPH,R7
   \   00009B   F0           MOVX    @DPTR,A
   \   00009C   A3           INC     DPTR
   1379            *pBuf++ = NetworkCount;
   \   00009D   E5..         MOV     A,?V0 + 5
   \   00009F   F0           MOVX    @DPTR,A
   \   0000A0   A3           INC     DPTR
   1380            *pBuf++ = StartIndex;
   \   0000A1   E5..         MOV     A,?V0 + 3
   \   0000A3   F0           MOVX    @DPTR,A
   \   0000A4   A3           INC     DPTR
   1381            *pBuf++ = NetworkListCount;
   \   0000A5   E5..         MOV     A,?V0 + 4
   \   0000A7   F0           MOVX    @DPTR,A
   \   0000A8   A3           INC     DPTR
   \   0000A9   AE82         MOV     R6,DPL
   \   0000AB   AF83         MOV     R7,DPH
   1382          
   1383            for ( idx = 0; idx < NetworkListCount; idx++ )
   \   0000AD   75..00       MOV     ?V0 + 3,#0x0
   \   0000B0   801E         SJMP    ??ZDP_MgmtNwkDiscRsp_3
   1384            {
   1385              osal_cpyExtAddr( pBuf, NetworkList->extendedPANID);
   1386              pBuf += Z_EXTADDR_LEN;
   1387          
   1388              *pBuf++  = NetworkList->logicalChannel;                // LogicalChannel
   1389              *pBuf    = NetworkList->stackProfile;                  // Stack profile
   1390              *pBuf++ |= (byte)(NetworkList->version << 4);          // ZigBee Version
   1391              *pBuf    = NetworkList->beaconOrder;                   // Beacon Order
   1392              *pBuf++ |= (byte)(NetworkList->superFrameOrder << 4);  // Superframe Order
   1393          
   1394              if ( NetworkList->chosenRouter != INVALID_NODE_ADDR )
   1395              {
   1396                *pBuf++ = TRUE;                         // Permit Joining
   1397              }
   1398              else
   1399              {
   1400                *pBuf++ = FALSE;
   \                     ??ZDP_MgmtNwkDiscRsp_4:
   \   0000B2   E4           CLR     A
   \                     ??ZDP_MgmtNwkDiscRsp_5:
   \   0000B3   8E82         MOV     DPL,R6
   \   0000B5   8F83         MOV     DPH,R7
   \   0000B7   F0           MOVX    @DPTR,A
   \   0000B8   0E           INC     R6
   \   0000B9   E9           MOV     A,R1
   \   0000BA   FF           MOV     R7,A
   1401              }
   1402          
   1403              NetworkList = NetworkList->nextDesc;    // Move to next list entry
   \   0000BB   E5..         MOV     A,?V0 + 0
   \   0000BD   2416         ADD     A,#0x16
   \   0000BF   F582         MOV     DPL,A
   \   0000C1   E5..         MOV     A,?V0 + 1
   \   0000C3   3400         ADDC    A,#0x0
   \   0000C5   F583         MOV     DPH,A
   \   0000C7   E0           MOVX    A,@DPTR
   \   0000C8   F5..         MOV     ?V0 + 0,A
   \   0000CA   A3           INC     DPTR
   \   0000CB   E0           MOVX    A,@DPTR
   \   0000CC   F5..         MOV     ?V0 + 1,A
   \   0000CE   05..         INC     ?V0 + 3
   \                     ??ZDP_MgmtNwkDiscRsp_3:
   \   0000D0   E5..         MOV     A,?V0 + 3
   \   0000D2   C3           CLR     C
   \   0000D3   95..         SUBB    A,?V0 + 4
   \   0000D5   4003         JC      $+5
   \   0000D7   02....       LJMP    ??ZDP_MgmtNwkDiscRsp_6 & 0xFFFF
   \   0000DA                ; Setup parameters for call to function sAddrExtCpy
   \   0000DA   E5..         MOV     A,?V0 + 0
   \   0000DC   240D         ADD     A,#0xd
   \   0000DE   FC           MOV     R4,A
   \   0000DF   E5..         MOV     A,?V0 + 1
   \   0000E1   3400         ADDC    A,#0x0
   \   0000E3   FD           MOV     R5,A
   \   0000E4   EE           MOV     A,R6
   \   0000E5   FA           MOV     R2,A
   \   0000E6   EF           MOV     A,R7
   \   0000E7   FB           MOV     R3,A
   \   0000E8   12....       LCALL   ??sAddrExtCpy?relay
   \   0000EB   EE           MOV     A,R6
   \   0000EC   2408         ADD     A,#0x8
   \   0000EE   FE           MOV     R6,A
   \   0000EF   EF           MOV     A,R7
   \   0000F0   3400         ADDC    A,#0x0
   \   0000F2   FF           MOV     R7,A
   \   0000F3   85..82       MOV     DPL,?V0 + 0
   \   0000F6   85..83       MOV     DPH,?V0 + 1
   \   0000F9   A3           INC     DPTR
   \   0000FA   A3           INC     DPTR
   \   0000FB   E0           MOVX    A,@DPTR
   \   0000FC   8E82         MOV     DPL,R6
   \   0000FE   8F83         MOV     DPH,R7
   \   000100   F0           MOVX    @DPTR,A
   \   000101   A3           INC     DPTR
   \   000102   AE82         MOV     R6,DPL
   \   000104   AF83         MOV     R7,DPH
   \   000106   85..82       MOV     DPL,?V0 + 0
   \   000109   85..83       MOV     DPH,?V0 + 1
   \   00010C   A3           INC     DPTR
   \   00010D   A3           INC     DPTR
   \   00010E   A3           INC     DPTR
   \   00010F   A3           INC     DPTR
   \   000110   A3           INC     DPTR
   \   000111   A3           INC     DPTR
   \   000112   A3           INC     DPTR
   \   000113   A3           INC     DPTR
   \   000114   E0           MOVX    A,@DPTR
   \   000115   8E82         MOV     DPL,R6
   \   000117   8F83         MOV     DPH,R7
   \   000119   F0           MOVX    @DPTR,A
   \   00011A   EE           MOV     A,R6
   \   00011B   F8           MOV     R0,A
   \   00011C   EF           MOV     A,R7
   \   00011D   F9           MOV     R1,A
   \   00011E   A3           INC     DPTR
   \   00011F   0E           INC     R6
   \   000120   AF83         MOV     R7,DPH
   \   000122   85..82       MOV     DPL,?V0 + 0
   \   000125   85..83       MOV     DPH,?V0 + 1
   \   000128   A3           INC     DPTR
   \   000129   A3           INC     DPTR
   \   00012A   A3           INC     DPTR
   \   00012B   A3           INC     DPTR
   \   00012C   A3           INC     DPTR
   \   00012D   A3           INC     DPTR
   \   00012E   A3           INC     DPTR
   \   00012F   E0           MOVX    A,@DPTR
   \   000130   C4           SWAP    A
   \   000131   54F0         ANL     A,#0xf0
   \   000133   FA           MOV     R2,A
   \   000134   8882         MOV     DPL,R0
   \   000136   8983         MOV     DPH,R1
   \   000138   E0           MOVX    A,@DPTR
   \   000139   4A           ORL     A,R2
   \   00013A   F0           MOVX    @DPTR,A
   \   00013B   85..82       MOV     DPL,?V0 + 0
   \   00013E   85..83       MOV     DPH,?V0 + 1
   \   000141   A3           INC     DPTR
   \   000142   A3           INC     DPTR
   \   000143   A3           INC     DPTR
   \   000144   E0           MOVX    A,@DPTR
   \   000145   8E82         MOV     DPL,R6
   \   000147   8F83         MOV     DPH,R7
   \   000149   F0           MOVX    @DPTR,A
   \   00014A   08           INC     R0
   \   00014B   EF           MOV     A,R7
   \   00014C   F9           MOV     R1,A
   \   00014D   A3           INC     DPTR
   \   00014E   0E           INC     R6
   \   00014F   AF83         MOV     R7,DPH
   \   000151   85..82       MOV     DPL,?V0 + 0
   \   000154   85..83       MOV     DPH,?V0 + 1
   \   000157   A3           INC     DPTR
   \   000158   A3           INC     DPTR
   \   000159   A3           INC     DPTR
   \   00015A   A3           INC     DPTR
   \   00015B   E0           MOVX    A,@DPTR
   \   00015C   C4           SWAP    A
   \   00015D   54F0         ANL     A,#0xf0
   \   00015F   FA           MOV     R2,A
   \   000160   8882         MOV     DPL,R0
   \   000162   8983         MOV     DPH,R1
   \   000164   E0           MOVX    A,@DPTR
   \   000165   4A           ORL     A,R2
   \   000166   F0           MOVX    @DPTR,A
   \   000167   8E82         MOV     DPL,R6
   \   000169   8F83         MOV     DPH,R7
   \   00016B   A3           INC     DPTR
   \   00016C   A983         MOV     R1,DPH
   \   00016E   85..82       MOV     DPL,?V0 + 0
   \   000171   85..83       MOV     DPH,?V0 + 1
   \   000174   A3           INC     DPTR
   \   000175   A3           INC     DPTR
   \   000176   A3           INC     DPTR
   \   000177   A3           INC     DPTR
   \   000178   A3           INC     DPTR
   \   000179   A3           INC     DPTR
   \   00017A   A3           INC     DPTR
   \   00017B   A3           INC     DPTR
   \   00017C   A3           INC     DPTR
   \   00017D   E0           MOVX    A,@DPTR
   \   00017E   64FE         XRL     A,#0xfe
   \   000180   7004         JNZ     ??ZDP_MgmtNwkDiscRsp_7
   \   000182   A3           INC     DPTR
   \   000183   E0           MOVX    A,@DPTR
   \   000184   64FF         XRL     A,#0xff
   \                     ??ZDP_MgmtNwkDiscRsp_7:
   \   000186   7003         JNZ     $+5
   \   000188   02....       LJMP    ??ZDP_MgmtNwkDiscRsp_4 & 0xFFFF
   \   00018B   7401         MOV     A,#0x1
   \   00018D   02....       LJMP    ??ZDP_MgmtNwkDiscRsp_5 & 0xFFFF
   1404            }
   1405          
   1406            FillAndSendBuffer( &TransSeq, dstAddr, Mgmt_NWK_Disc_rsp, len, buf );
   \                     ??ZDP_MgmtNwkDiscRsp_6:
   \   000190   90....       MOV     DPTR,#ZDP_TmpBuf
   \   000193   E5..         MOV     A,?V0 + 6
   \   000195   F0           MOVX    @DPTR,A
   \   000196   A3           INC     DPTR
   \   000197   E5..         MOV     A,?V0 + 7
   \   000199   F0           MOVX    @DPTR,A
   \   00019A                ; Setup parameters for call to function fillAndSend
   \   00019A   75..30       MOV     ?V0 + 0,#0x30
   \   00019D   75..80       MOV     ?V0 + 1,#-0x80
   \   0001A0   78..         MOV     R0,#?V0 + 0
   \   0001A2   12....       LCALL   ?PUSH_XSTACK_I_TWO
   \   0001A5   A9..         MOV     R1,?V0 + 2
   \   0001A7   7406         MOV     A,#0x6
   \   0001A9   12....       LCALL   ?XSTACK_DISP0_8
   \   0001AC   E0           MOVX    A,@DPTR
   \   0001AD   FC           MOV     R4,A
   \   0001AE   A3           INC     DPTR
   \   0001AF   E0           MOVX    A,@DPTR
   \   0001B0   FD           MOV     R5,A
   \   0001B1   7405         MOV     A,#0x5
   \   0001B3   12....       LCALL   ?XSTACK_DISP0_8
   \   0001B6   AA82         MOV     R2,DPL
   \   0001B8   AB83         MOV     R3,DPH
   \   0001BA   12....       LCALL   ??fillAndSend?relay
   \   0001BD   7402         MOV     A,#0x2
   \   0001BF   12....       LCALL   ?DEALLOC_XSTACK8
   \   0001C2   E9           MOV     A,R1
   \   0001C3   FE           MOV     R6,A
   \   0001C4                ; Setup parameters for call to function osal_mem_free
   \   0001C4   85..82       MOV     DPL,?XSP + 0
   \   0001C7   85..83       MOV     DPH,?XSP + 1
   \   0001CA   E0           MOVX    A,@DPTR
   \   0001CB   FA           MOV     R2,A
   \   0001CC   A3           INC     DPTR
   \   0001CD   E0           MOVX    A,@DPTR
   \   0001CE   FB           MOV     R3,A
   \   0001CF   12....       LCALL   ??osal_mem_free?relay
   \   0001D2   90....       MOV     DPTR,#ZDP_TmpBuf
   \   0001D5   74..         MOV     A,#((ZDP_Buf + 1) & 0xff)
   \   0001D7   F0           MOVX    @DPTR,A
   \   0001D8   A3           INC     DPTR
   \   0001D9   74..         MOV     A,#(((ZDP_Buf + 1) >> 8) & 0xff)
   \   0001DB   F0           MOVX    @DPTR,A
   \   0001DC   EE           MOV     A,R6
   \   0001DD   F9           MOV     R1,A
   \                     ??ZDP_MgmtNwkDiscRsp_2:
   \   0001DE   7406         MOV     A,#0x6
   \   0001E0   12....       LCALL   ?DEALLOC_XSTACK8
   \   0001E3   7F08         MOV     R7,#0x8
   \   0001E5   02....       LJMP    ?BANKED_LEAVE_XDATA
   1407          }
   1408          
   1409          /*********************************************************************
   1410           * @fn          ZDP_MgmtLqiRsp
   1411           *
   1412           * @brief       This builds and send a Mgmt_Lqi_rsp message. This
   1413           *              function sends a unicast message.
   1414           *
   1415           * @param       dstAddr - destination address of the message
   1416           * @param       Status - message status (ZDP_SUCCESS or other)
   1417           * @param       NeighborLqiEntries - Total number of entries found
   1418           * @param       StartIndex - Starting index within the reporting list
   1419           * @param       NeighborLqiCount - number of lists included
   1420           *                                 in this message
   1421           * @param       NeighborLqiList - List of NeighborLqiItems.  This list
   1422           *                is the list to be sent, not the entire list
   1423           * @param       SecurityEnable - true if secure
   1424           *
   1425           * @return      ZStatus_t
   1426           */

   \                                 In  segment BANKED_CODE, align 1, keep-with-next
   1427          ZStatus_t ZDP_MgmtLqiRsp( byte TransSeq, zAddrType_t *dstAddr,
   \                     ZDP_MgmtLqiRsp:
   1428                                    byte Status,
   1429                                    byte NeighborLqiEntries,
   1430                                    byte StartIndex,
   1431                                    byte NeighborLqiCount,
   1432                                    ZDP_MgmtLqiItem_t* NeighborList,
   1433                                    byte SecurityEnable )
   1434          {
   \   000000   74F0         MOV     A,#-0x10
   \   000002   12....       LCALL   ?BANKED_ENTER_XDATA
   \   000005                ; Saved register size: 16
   \   000005                ; Auto size: 7
   \   000005   74F9         MOV     A,#-0x7
   \   000007   12....       LCALL   ?ALLOC_XSTACK8
   \   00000A   E9           MOV     A,R1
   \   00000B   85..82       MOV     DPL,?XSP + 0
   \   00000E   85..83       MOV     DPH,?XSP + 1
   \   000011   F0           MOVX    @DPTR,A
   \   000012   7405         MOV     A,#0x5
   \   000014   12....       LCALL   ?XSTACK_DISP0_8
   \   000017   EA           MOV     A,R2
   \   000018   F0           MOVX    @DPTR,A
   \   000019   A3           INC     DPTR
   \   00001A   EB           MOV     A,R3
   \   00001B   F0           MOVX    @DPTR,A
   \   00001C   8D..         MOV     ?V0 + 7,R5
   \   00001E   7417         MOV     A,#0x17
   \   000020   12....       LCALL   ?XSTACK_DISP0_8
   \   000023   E0           MOVX    A,@DPTR
   \   000024   F5..         MOV     ?V0 + 3,A
   \   000026   7418         MOV     A,#0x18
   \   000028   12....       LCALL   ?XSTACK_DISP0_8
   \   00002B   E0           MOVX    A,@DPTR
   \   00002C   F5..         MOV     ?V0 + 6,A
   \   00002E   7419         MOV     A,#0x19
   \   000030   12....       LCALL   ?XSTACK_DISP0_8
   \   000033   E0           MOVX    A,@DPTR
   \   000034   F5..         MOV     ?V0 + 0,A
   \   000036   A3           INC     DPTR
   \   000037   E0           MOVX    A,@DPTR
   \   000038   F5..         MOV     ?V0 + 1,A
   1435            ZDP_MgmtLqiItem_t* list = NeighborList;
   1436            uint8 *buf, *pBuf;
   1437            byte len, x;
   1438          
   1439            (void)SecurityEnable;  // Intentionally unreferenced parameter
   1440          
   1441            if ( ZSuccess != Status )
   \   00003A   EC           MOV     A,R4
   \   00003B   603B         JZ      ??ZDP_MgmtLqiRsp_0
   1442            {
   1443              ZDP_TmpBuf[0] = Status;
   \   00003D   C0E0         PUSH    A
   \   00003F   90....       MOV     DPTR,#ZDP_TmpBuf
   \   000042   E0           MOVX    A,@DPTR
   \   000043   F8           MOV     R0,A
   \   000044   A3           INC     DPTR
   \   000045   E0           MOVX    A,@DPTR
   \   000046   F583         MOV     DPH,A
   \   000048   8882         MOV     DPL,R0
   \   00004A   D0E0         POP     A
   \   00004C   F0           MOVX    @DPTR,A
   1444              return fillAndSend( &TransSeq, dstAddr, Mgmt_Lqi_rsp, 1 );
   \   00004D                ; Setup parameters for call to function fillAndSend
   \   00004D   75..31       MOV     ?V0 + 0,#0x31
   \   000050   75..80       MOV     ?V0 + 1,#-0x80
   \   000053   78..         MOV     R0,#?V0 + 0
   \   000055   12....       LCALL   ?PUSH_XSTACK_I_TWO
   \   000058   7901         MOV     R1,#0x1
   \   00005A   7407         MOV     A,#0x7
   \   00005C   12....       LCALL   ?XSTACK_DISP0_8
   \   00005F   E0           MOVX    A,@DPTR
   \   000060   FC           MOV     R4,A
   \   000061   A3           INC     DPTR
   \   000062   E0           MOVX    A,@DPTR
   \   000063   FD           MOV     R5,A
   \   000064   7402         MOV     A,#0x2
   \   000066   12....       LCALL   ?XSTACK_DISP0_8
   \   000069   AA82         MOV     R2,DPL
   \   00006B   AB83         MOV     R3,DPH
   \   00006D   12....       LCALL   ??fillAndSend?relay
   \   000070   7402         MOV     A,#0x2
   \   000072   12....       LCALL   ?DEALLOC_XSTACK8
   \   000075   02....       LJMP    ??ZDP_MgmtLqiRsp_1 & 0xFFFF
   1445            }
   1446          
   1447            // (Status + NeighborLqiEntries + StartIndex + NeighborLqiCount) +
   1448            //  neighbor LQI data.
   1449            len = (1 + 1 + 1 + 1) + (NeighborLqiCount * ZDP_MGMTLQI_EXTENDED_SIZE);
   \                     ??ZDP_MgmtLqiRsp_0:
   \   000078   75F016       MOV     B,#0x16
   \   00007B   E5..         MOV     A,?V0 + 6
   \   00007D   A4           MUL     AB
   \   00007E   2404         ADD     A,#0x4
   \   000080   F5..         MOV     ?V0 + 2,A
   1450          
   1451            buf = osal_mem_alloc( len+1 );
   \   000082                ; Setup parameters for call to function osal_mem_alloc
   \   000082   F5..         MOV     ?V0 + 4,A
   \   000084   7401         MOV     A,#0x1
   \   000086   25..         ADD     A,?V0 + 4
   \   000088   FA           MOV     R2,A
   \   000089   E4           CLR     A
   \   00008A   3400         ADDC    A,#0x0
   \   00008C   FB           MOV     R3,A
   \   00008D   12....       LCALL   ??osal_mem_alloc?relay
   \   000090   7401         MOV     A,#0x1
   \   000092   12....       LCALL   ?XSTACK_DISP0_8
   \   000095   EA           MOV     A,R2
   \   000096   F0           MOVX    @DPTR,A
   \   000097   A3           INC     DPTR
   \   000098   EB           MOV     A,R3
   \   000099   F0           MOVX    @DPTR,A
   1452            if ( buf == NULL )
   \   00009A   7401         MOV     A,#0x1
   \   00009C   12....       LCALL   ?XSTACK_DISP0_8
   \   00009F   E0           MOVX    A,@DPTR
   \   0000A0   7002         JNZ     ??ZDP_MgmtLqiRsp_2
   \   0000A2   A3           INC     DPTR
   \   0000A3   E0           MOVX    A,@DPTR
   \                     ??ZDP_MgmtLqiRsp_2:
   \   0000A4   7005         JNZ     ??ZDP_MgmtLqiRsp_3
   1453            {
   1454              return afStatus_MEM_FAIL;
   \   0000A6   7910         MOV     R1,#0x10
   \   0000A8   02....       LJMP    ??ZDP_MgmtLqiRsp_1 & 0xFFFF
   1455            }
   1456          
   1457            pBuf = buf+1;
   \                     ??ZDP_MgmtLqiRsp_3:
   \   0000AB   7401         MOV     A,#0x1
   \   0000AD   12....       LCALL   ?XSTACK_DISP0_8
   \   0000B0   E0           MOVX    A,@DPTR
   \   0000B1   2401         ADD     A,#0x1
   \   0000B3   F8           MOV     R0,A
   \   0000B4   A3           INC     DPTR
   \   0000B5   E0           MOVX    A,@DPTR
   \   0000B6   3400         ADDC    A,#0x0
   \   0000B8   F9           MOV     R1,A
   \   0000B9   7403         MOV     A,#0x3
   \   0000BB   12....       LCALL   ?XSTACK_DISP0_8
   \   0000BE   E8           MOV     A,R0
   \   0000BF   F0           MOVX    @DPTR,A
   \   0000C0   A3           INC     DPTR
   \   0000C1   E9           MOV     A,R1
   \   0000C2   F0           MOVX    @DPTR,A
   \   0000C3   7403         MOV     A,#0x3
   \   0000C5   12....       LCALL   ?XSTACK_DISP0_8
   \   0000C8   E0           MOVX    A,@DPTR
   \   0000C9   FE           MOV     R6,A
   \   0000CA   A3           INC     DPTR
   \   0000CB   E0           MOVX    A,@DPTR
   \   0000CC   FF           MOV     R7,A
   1458          
   1459            *pBuf++ = Status;
   \   0000CD   E4           CLR     A
   \   0000CE   8E82         MOV     DPL,R6
   \   0000D0   8F83         MOV     DPH,R7
   \   0000D2   F0           MOVX    @DPTR,A
   \   0000D3   A3           INC     DPTR
   1460            *pBuf++ = NeighborLqiEntries;
   \   0000D4   E5..         MOV     A,?V0 + 7
   \   0000D6   F0           MOVX    @DPTR,A
   \   0000D7   A3           INC     DPTR
   1461            *pBuf++ = StartIndex;
   \   0000D8   E5..         MOV     A,?V0 + 3
   \   0000DA   F0           MOVX    @DPTR,A
   \   0000DB   A3           INC     DPTR
   1462            *pBuf++ = NeighborLqiCount;
   \   0000DC   E5..         MOV     A,?V0 + 6
   \   0000DE   F0           MOVX    @DPTR,A
   \   0000DF   A3           INC     DPTR
   \   0000E0   AE82         MOV     R6,DPL
   \   0000E2   AF83         MOV     R7,DPH
   1463          
   1464            for ( x = 0; x < NeighborLqiCount; x++ )
   \   0000E4   75..00       MOV     ?V0 + 3,#0x0
   \   0000E7   02....       LJMP    ??ZDP_MgmtLqiRsp_4 & 0xFFFF
   1465            {
   1466              osal_cpyExtAddr( pBuf, list->extPanID);         // Extended PanID
   \                     ??ZDP_MgmtLqiRsp_5:
   \   0000EA                ; Setup parameters for call to function sAddrExtCpy
   \   0000EA   E5..         MOV     A,?V0 + 0
   \   0000EC   2402         ADD     A,#0x2
   \   0000EE   FC           MOV     R4,A
   \   0000EF   E5..         MOV     A,?V0 + 1
   \   0000F1   3400         ADDC    A,#0x0
   \   0000F3   FD           MOV     R5,A
   \   0000F4   EE           MOV     A,R6
   \   0000F5   FA           MOV     R2,A
   \   0000F6   EF           MOV     A,R7
   \   0000F7   FB           MOV     R3,A
   \   0000F8   12....       LCALL   ??sAddrExtCpy?relay
   1467              pBuf += Z_EXTADDR_LEN;
   1468          
   1469              // EXTADDR
   1470              pBuf = osal_cpyExtAddr( pBuf, list->extAddr );
   \   0000FB                ; Setup parameters for call to function sAddrExtCpy
   \   0000FB   E5..         MOV     A,?V0 + 0
   \   0000FD   240A         ADD     A,#0xa
   \   0000FF   FC           MOV     R4,A
   \   000100   E5..         MOV     A,?V0 + 1
   \   000102   3400         ADDC    A,#0x0
   \   000104   FD           MOV     R5,A
   \   000105   EE           MOV     A,R6
   \   000106   2408         ADD     A,#0x8
   \   000108   FA           MOV     R2,A
   \   000109   EF           MOV     A,R7
   \   00010A   3400         ADDC    A,#0x0
   \   00010C   FB           MOV     R3,A
   \   00010D   12....       LCALL   ??sAddrExtCpy?relay
   \   000110   8A..         MOV     ?V0 + 4,R2
   \   000112   8B..         MOV     ?V0 + 5,R3
   \   000114   AE..         MOV     R6,?V0 + 4
   \   000116   AF..         MOV     R7,?V0 + 5
   1471          
   1472              // NWKADDR
   1473              *pBuf++ = LO_UINT16( list->nwkAddr );
   \   000118   E5..         MOV     A,?V0 + 0
   \   00011A   2412         ADD     A,#0x12
   \   00011C   F8           MOV     R0,A
   \   00011D   E5..         MOV     A,?V0 + 1
   \   00011F   3400         ADDC    A,#0x0
   \   000121   F9           MOV     R1,A
   \   000122   8882         MOV     DPL,R0
   \   000124   8983         MOV     DPH,R1
   \   000126   E0           MOVX    A,@DPTR
   \   000127   8E82         MOV     DPL,R6
   \   000129   8F83         MOV     DPH,R7
   \   00012B   F0           MOVX    @DPTR,A
   \   00012C   A3           INC     DPTR
   \   00012D   AE82         MOV     R6,DPL
   \   00012F   AF83         MOV     R7,DPH
   1474              *pBuf++ = HI_UINT16( list->nwkAddr );
   \   000131   8882         MOV     DPL,R0
   \   000133   8983         MOV     DPH,R1
   \   000135   A3           INC     DPTR
   \   000136   E0           MOVX    A,@DPTR
   \   000137   8E82         MOV     DPL,R6
   \   000139   8F83         MOV     DPH,R7
   \   00013B   F0           MOVX    @DPTR,A
   \   00013C   A3           INC     DPTR
   \   00013D   0E           INC     R6
   \   00013E   AF83         MOV     R7,DPH
   1475          
   1476              // DEVICETYPE
   1477              *pBuf = list->devType;
   \   000140   E5..         MOV     A,?V0 + 0
   \   000142   2414         ADD     A,#0x14
   \   000144   F582         MOV     DPL,A
   \   000146   E5..         MOV     A,?V0 + 1
   \   000148   3400         ADDC    A,#0x0
   \   00014A   F583         MOV     DPH,A
   \   00014C   E0           MOVX    A,@DPTR
   \   00014D   8E82         MOV     DPL,R6
   \   00014F   8F83         MOV     DPH,R7
   \   000151   F0           MOVX    @DPTR,A
   1478          
   1479              // RXONIDLE
   1480              *pBuf |= (uint8)(list->rxOnIdle << 2);
   \   000152   E5..         MOV     A,?V0 + 0
   \   000154   2415         ADD     A,#0x15
   \   000156   F582         MOV     DPL,A
   \   000158   E5..         MOV     A,?V0 + 1
   \   00015A   3400         ADDC    A,#0x0
   \   00015C   F583         MOV     DPH,A
   \   00015E   E0           MOVX    A,@DPTR
   \   00015F   33           RLC     A
   \   000160   33           RLC     A
   \   000161   54FC         ANL     A,#0xfc
   \   000163   FA           MOV     R2,A
   \   000164   8E82         MOV     DPL,R6
   \   000166   8F83         MOV     DPH,R7
   \   000168   E0           MOVX    A,@DPTR
   \   000169   4A           ORL     A,R2
   \   00016A   F0           MOVX    @DPTR,A
   1481          
   1482              // RELATIONSHIP
   1483              *pBuf++ |= (uint8)(list->relation << 4);
   \   00016B   EE           MOV     A,R6
   \   00016C   F8           MOV     R0,A
   \   00016D   EF           MOV     A,R7
   \   00016E   F9           MOV     R1,A
   \   00016F   A3           INC     DPTR
   \   000170   0E           INC     R6
   \   000171   AF83         MOV     R7,DPH
   \   000173   E5..         MOV     A,?V0 + 0
   \   000175   2416         ADD     A,#0x16
   \   000177   F582         MOV     DPL,A
   \   000179   E5..         MOV     A,?V0 + 1
   \   00017B   3400         ADDC    A,#0x0
   \   00017D   F583         MOV     DPH,A
   \   00017F   E0           MOVX    A,@DPTR
   \   000180   C4           SWAP    A
   \   000181   54F0         ANL     A,#0xf0
   \   000183   FA           MOV     R2,A
   \   000184   8882         MOV     DPL,R0
   \   000186   8983         MOV     DPH,R1
   \   000188   E0           MOVX    A,@DPTR
   \   000189   4A           ORL     A,R2
   \   00018A   F0           MOVX    @DPTR,A
   1484          
   1485              // PERMITJOINING
   1486              *pBuf++ = (uint8)(list->permit);
   \   00018B   E5..         MOV     A,?V0 + 0
   \   00018D   2417         ADD     A,#0x17
   \   00018F   F582         MOV     DPL,A
   \   000191   E5..         MOV     A,?V0 + 1
   \   000193   3400         ADDC    A,#0x0
   \   000195   F583         MOV     DPH,A
   \   000197   E0           MOVX    A,@DPTR
   \   000198   8E82         MOV     DPL,R6
   \   00019A   8F83         MOV     DPH,R7
   \   00019C   F0           MOVX    @DPTR,A
   \   00019D   A3           INC     DPTR
   \   00019E   0E           INC     R6
   \   00019F   AF83         MOV     R7,DPH
   1487          
   1488              // DEPTH
   1489              *pBuf++ = list->depth;
   \   0001A1   E5..         MOV     A,?V0 + 0
   \   0001A3   2418         ADD     A,#0x18
   \   0001A5   F582         MOV     DPL,A
   \   0001A7   E5..         MOV     A,?V0 + 1
   \   0001A9   3400         ADDC    A,#0x0
   \   0001AB   F583         MOV     DPH,A
   \   0001AD   E0           MOVX    A,@DPTR
   \   0001AE   8E82         MOV     DPL,R6
   \   0001B0   8F83         MOV     DPH,R7
   \   0001B2   F0           MOVX    @DPTR,A
   \   0001B3   A3           INC     DPTR
   \   0001B4   0E           INC     R6
   \   0001B5   AF83         MOV     R7,DPH
   1490          
   1491              // LQI
   1492              *pBuf++ = list->lqi;
   \   0001B7   E5..         MOV     A,?V0 + 0
   \   0001B9   2419         ADD     A,#0x19
   \   0001BB   F582         MOV     DPL,A
   \   0001BD   E5..         MOV     A,?V0 + 1
   \   0001BF   3400         ADDC    A,#0x0
   \   0001C1   F583         MOV     DPH,A
   \   0001C3   E0           MOVX    A,@DPTR
   \   0001C4   8E82         MOV     DPL,R6
   \   0001C6   8F83         MOV     DPH,R7
   \   0001C8   F0           MOVX    @DPTR,A
   \   0001C9   A3           INC     DPTR
   \   0001CA   0E           INC     R6
   \   0001CB   AF83         MOV     R7,DPH
   1493          
   1494              list++; // next list entry
   \   0001CD   E5..         MOV     A,?V0 + 0
   \   0001CF   241A         ADD     A,#0x1a
   \   0001D1   F5..         MOV     ?V0 + 0,A
   \   0001D3   E5..         MOV     A,?V0 + 1
   \   0001D5   3400         ADDC    A,#0x0
   \   0001D7   F5..         MOV     ?V0 + 1,A
   1495            }
   \   0001D9   05..         INC     ?V0 + 3
   \                     ??ZDP_MgmtLqiRsp_4:
   \   0001DB   E5..         MOV     A,?V0 + 3
   \   0001DD   C3           CLR     C
   \   0001DE   95..         SUBB    A,?V0 + 6
   \   0001E0   5003         JNC     $+5
   \   0001E2   02....       LJMP    ??ZDP_MgmtLqiRsp_5 & 0xFFFF
   1496          
   1497            FillAndSendBuffer( &TransSeq, dstAddr, Mgmt_Lqi_rsp, len, buf );
   \   0001E5   7403         MOV     A,#0x3
   \   0001E7   12....       LCALL   ?XSTACK_DISP0_8
   \   0001EA   E0           MOVX    A,@DPTR
   \   0001EB   F8           MOV     R0,A
   \   0001EC   A3           INC     DPTR
   \   0001ED   E0           MOVX    A,@DPTR
   \   0001EE   F9           MOV     R1,A
   \   0001EF   90....       MOV     DPTR,#ZDP_TmpBuf
   \   0001F2   E8           MOV     A,R0
   \   0001F3   F0           MOVX    @DPTR,A
   \   0001F4   A3           INC     DPTR
   \   0001F5   E9           MOV     A,R1
   \   0001F6   F0           MOVX    @DPTR,A
   \   0001F7                ; Setup parameters for call to function fillAndSend
   \   0001F7   75..31       MOV     ?V0 + 0,#0x31
   \   0001FA   75..80       MOV     ?V0 + 1,#-0x80
   \   0001FD   78..         MOV     R0,#?V0 + 0
   \   0001FF   12....       LCALL   ?PUSH_XSTACK_I_TWO
   \   000202   A9..         MOV     R1,?V0 + 2
   \   000204   7407         MOV     A,#0x7
   \   000206   12....       LCALL   ?XSTACK_DISP0_8
   \   000209   E0           MOVX    A,@DPTR
   \   00020A   FC           MOV     R4,A
   \   00020B   A3           INC     DPTR
   \   00020C   E0           MOVX    A,@DPTR
   \   00020D   FD           MOV     R5,A
   \   00020E   7402         MOV     A,#0x2
   \   000210   12....       LCALL   ?XSTACK_DISP0_8
   \   000213   AA82         MOV     R2,DPL
   \   000215   AB83         MOV     R3,DPH
   \   000217   12....       LCALL   ??fillAndSend?relay
   \   00021A   7402         MOV     A,#0x2
   \   00021C   12....       LCALL   ?DEALLOC_XSTACK8
   \   00021F   E9           MOV     A,R1
   \   000220   FE           MOV     R6,A
   \   000221                ; Setup parameters for call to function osal_mem_free
   \   000221   7401         MOV     A,#0x1
   \   000223   12....       LCALL   ?XSTACK_DISP0_8
   \   000226   E0           MOVX    A,@DPTR
   \   000227   FA           MOV     R2,A
   \   000228   A3           INC     DPTR
   \   000229   E0           MOVX    A,@DPTR
   \   00022A   FB           MOV     R3,A
   \   00022B   12....       LCALL   ??osal_mem_free?relay
   \   00022E   90....       MOV     DPTR,#ZDP_TmpBuf
   \   000231   74..         MOV     A,#((ZDP_Buf + 1) & 0xff)
   \   000233   F0           MOVX    @DPTR,A
   \   000234   A3           INC     DPTR
   \   000235   74..         MOV     A,#(((ZDP_Buf + 1) >> 8) & 0xff)
   \   000237   F0           MOVX    @DPTR,A
   \   000238   EE           MOV     A,R6
   \   000239   F9           MOV     R1,A
   \                     ??ZDP_MgmtLqiRsp_1:
   \   00023A   7407         MOV     A,#0x7
   \   00023C   12....       LCALL   ?DEALLOC_XSTACK8
   \   00023F   7F08         MOV     R7,#0x8
   \   000241   02....       LJMP    ?BANKED_LEAVE_XDATA
   1498          }
   1499          
   1500          /*********************************************************************
   1501           * @fn          ZDP_MgmtRtgRsp
   1502           *
   1503           * @brief       This builds and send a Mgmt_Rtg_rsp message. This
   1504           *              function sends a unicast message.
   1505           *
   1506           * @param       dstAddr - destination address of the message
   1507           * @param       Status - message status (ZDP_SUCCESS or other)
   1508           * @param       RoutingTableEntries - Total number of entries
   1509           * @param       StartIndex - Starting index within the reporting list
   1510           * @param       RoutingTableListCount - number of entries included
   1511           *                                      in this message
   1512           * @param       RoutingTableList - List of Routing Table entries
   1513           * @param       SecurityEnable - true to enable security for this message
   1514           *
   1515           * @return      ZStatus_t
   1516           */

   \                                 In  segment BANKED_CODE, align 1, keep-with-next
   1517          ZStatus_t ZDP_MgmtRtgRsp( byte TransSeq, zAddrType_t *dstAddr,
   \                     ZDP_MgmtRtgRsp:
   1518                                      byte Status,
   1519                                      byte RoutingTableEntries,
   1520                                      byte StartIndex,
   1521                                      byte RoutingListCount,
   1522                                      rtgItem_t *RoutingTableList,
   1523                                      byte SecurityEnable )
   1524          {
   \   000000   74F1         MOV     A,#-0xf
   \   000002   12....       LCALL   ?BANKED_ENTER_XDATA
   \   000005                ; Saved register size: 15
   \   000005                ; Auto size: 5
   \   000005   74FB         MOV     A,#-0x5
   \   000007   12....       LCALL   ?ALLOC_XSTACK8
   \   00000A   E9           MOV     A,R1
   \   00000B   C0E0         PUSH    A
   \   00000D   7402         MOV     A,#0x2
   \   00000F   12....       LCALL   ?XSTACK_DISP0_8
   \   000012   D0E0         POP     A
   \   000014   F0           MOVX    @DPTR,A
   \   000015   7403         MOV     A,#0x3
   \   000017   12....       LCALL   ?XSTACK_DISP0_8
   \   00001A   EA           MOV     A,R2
   \   00001B   F0           MOVX    @DPTR,A
   \   00001C   A3           INC     DPTR
   \   00001D   EB           MOV     A,R3
   \   00001E   F0           MOVX    @DPTR,A
   \   00001F   8C..         MOV     ?V0 + 6,R4
   \   000021   8D..         MOV     ?V0 + 2,R5
   \   000023   7414         MOV     A,#0x14
   \   000025   12....       LCALL   ?XSTACK_DISP0_8
   \   000028   E0           MOVX    A,@DPTR
   \   000029   F5..         MOV     ?V0 + 3,A
   \   00002B   7415         MOV     A,#0x15
   \   00002D   12....       LCALL   ?XSTACK_DISP0_8
   \   000030   E0           MOVX    A,@DPTR
   \   000031   F5..         MOV     ?V0 + 4,A
   \   000033   7416         MOV     A,#0x16
   \   000035   12....       LCALL   ?XSTACK_DISP0_8
   \   000038   E0           MOVX    A,@DPTR
   \   000039   FE           MOV     R6,A
   \   00003A   A3           INC     DPTR
   \   00003B   E0           MOVX    A,@DPTR
   \   00003C   FF           MOV     R7,A
   1525            uint8 *buf;
   1526            uint8 *pBuf;
   1527            // Status + RoutingTableEntries + StartIndex + RoutingListCount.
   1528            byte len = 1 + 1 + 1 + 1;
   1529            byte x;
   1530          
   1531            (void)SecurityEnable;  // Intentionally unreferenced parameter
   1532          
   1533            // Add an array for Routing List data
   1534            len += (RoutingListCount * ZDP_ROUTINGENTRY_SIZE);
   \   00003D   75F005       MOV     B,#0x5
   \   000040   E5..         MOV     A,?V0 + 4
   \   000042   A4           MUL     AB
   \   000043   2404         ADD     A,#0x4
   \   000045   F5..         MOV     ?V0 + 5,A
   1535          
   1536            buf = osal_mem_alloc( (short)(len+1) );
   \   000047                ; Setup parameters for call to function osal_mem_alloc
   \   000047   F5..         MOV     ?V0 + 0,A
   \   000049   7401         MOV     A,#0x1
   \   00004B   25..         ADD     A,?V0 + 0
   \   00004D   FA           MOV     R2,A
   \   00004E   E4           CLR     A
   \   00004F   3400         ADDC    A,#0x0
   \   000051   FB           MOV     R3,A
   \   000052   12....       LCALL   ??osal_mem_alloc?relay
   \   000055   85..82       MOV     DPL,?XSP + 0
   \   000058   85..83       MOV     DPH,?XSP + 1
   \   00005B   EA           MOV     A,R2
   \   00005C   F0           MOVX    @DPTR,A
   \   00005D   A3           INC     DPTR
   \   00005E   EB           MOV     A,R3
   \   00005F   F0           MOVX    @DPTR,A
   1537            if ( buf == NULL )
   \   000060   85..82       MOV     DPL,?XSP + 0
   \   000063   85..83       MOV     DPH,?XSP + 1
   \   000066   E0           MOVX    A,@DPTR
   \   000067   7002         JNZ     ??ZDP_MgmtRtgRsp_0
   \   000069   A3           INC     DPTR
   \   00006A   E0           MOVX    A,@DPTR
   \                     ??ZDP_MgmtRtgRsp_0:
   \   00006B   7005         JNZ     ??ZDP_MgmtRtgRsp_1
   1538            {
   1539              return afStatus_MEM_FAIL;
   \   00006D   7910         MOV     R1,#0x10
   \   00006F   02....       LJMP    ??ZDP_MgmtRtgRsp_2 & 0xFFFF
   1540            }
   1541          
   1542            pBuf = buf+1;
   \                     ??ZDP_MgmtRtgRsp_1:
   \   000072   85..82       MOV     DPL,?XSP + 0
   \   000075   85..83       MOV     DPH,?XSP + 1
   \   000078   E0           MOVX    A,@DPTR
   \   000079   2401         ADD     A,#0x1
   \   00007B   FA           MOV     R2,A
   \   00007C   A3           INC     DPTR
   \   00007D   E0           MOVX    A,@DPTR
   \   00007E   3400         ADDC    A,#0x0
   \   000080   FB           MOV     R3,A
   \   000081   EA           MOV     A,R2
   \   000082   F8           MOV     R0,A
   \   000083   EB           MOV     A,R3
   \   000084   F9           MOV     R1,A
   1543          
   1544            *pBuf++ = Status;
   \   000085   8882         MOV     DPL,R0
   \   000087   8983         MOV     DPH,R1
   \   000089   E5..         MOV     A,?V0 + 6
   \   00008B   F0           MOVX    @DPTR,A
   \   00008C   A3           INC     DPTR
   1545            *pBuf++ = RoutingTableEntries;
   \   00008D   E5..         MOV     A,?V0 + 2
   \   00008F   F0           MOVX    @DPTR,A
   \   000090   A3           INC     DPTR
   1546            *pBuf++ = StartIndex;
   \   000091   E5..         MOV     A,?V0 + 3
   \   000093   F0           MOVX    @DPTR,A
   \   000094   A3           INC     DPTR
   1547            *pBuf++ = RoutingListCount;
   \   000095   E5..         MOV     A,?V0 + 4
   \   000097   F0           MOVX    @DPTR,A
   \   000098   A3           INC     DPTR
   \   000099   A882         MOV     R0,DPL
   \   00009B   A983         MOV     R1,DPH
   1548          
   1549            for ( x = 0; x < RoutingListCount; x++ )
   \   00009D   75..00       MOV     ?V0 + 0,#0x0
   \   0000A0   8060         SJMP    ??ZDP_MgmtRtgRsp_3
   1550            {
   1551              *pBuf++ = LO_UINT16( RoutingTableList->dstAddress );  // Destination Address
   \                     ??ZDP_MgmtRtgRsp_4:
   \   0000A2   8E82         MOV     DPL,R6
   \   0000A4   8F83         MOV     DPH,R7
   \   0000A6   E0           MOVX    A,@DPTR
   \   0000A7   8882         MOV     DPL,R0
   \   0000A9   8983         MOV     DPH,R1
   \   0000AB   F0           MOVX    @DPTR,A
   \   0000AC   A3           INC     DPTR
   \   0000AD   A882         MOV     R0,DPL
   \   0000AF   A983         MOV     R1,DPH
   1552              *pBuf++ = HI_UINT16( RoutingTableList->dstAddress );
   \   0000B1   8E82         MOV     DPL,R6
   \   0000B3   8F83         MOV     DPH,R7
   \   0000B5   A3           INC     DPTR
   \   0000B6   E0           MOVX    A,@DPTR
   \   0000B7   8882         MOV     DPL,R0
   \   0000B9   8983         MOV     DPH,R1
   \   0000BB   F0           MOVX    @DPTR,A
   \   0000BC   A3           INC     DPTR
   \   0000BD   08           INC     R0
   \   0000BE   A983         MOV     R1,DPH
   1553              *pBuf++ = RoutingTableList->status;
   \   0000C0   8E82         MOV     DPL,R6
   \   0000C2   8F83         MOV     DPH,R7
   \   0000C4   A3           INC     DPTR
   \   0000C5   A3           INC     DPTR
   \   0000C6   A3           INC     DPTR
   \   0000C7   A3           INC     DPTR
   \   0000C8   A3           INC     DPTR
   \   0000C9   E0           MOVX    A,@DPTR
   \   0000CA   8882         MOV     DPL,R0
   \   0000CC   8983         MOV     DPH,R1
   \   0000CE   F0           MOVX    @DPTR,A
   \   0000CF   A3           INC     DPTR
   \   0000D0   08           INC     R0
   \   0000D1   A983         MOV     R1,DPH
   1554              *pBuf++ = LO_UINT16( RoutingTableList->nextHopAddress );  // Next hop
   \   0000D3   EE           MOV     A,R6
   \   0000D4   2402         ADD     A,#0x2
   \   0000D6   FC           MOV     R4,A
   \   0000D7   EF           MOV     A,R7
   \   0000D8   3400         ADDC    A,#0x0
   \   0000DA   FD           MOV     R5,A
   \   0000DB   8C82         MOV     DPL,R4
   \   0000DD   8D83         MOV     DPH,R5
   \   0000DF   E0           MOVX    A,@DPTR
   \   0000E0   8882         MOV     DPL,R0
   \   0000E2   8983         MOV     DPH,R1
   \   0000E4   F0           MOVX    @DPTR,A
   \   0000E5   A3           INC     DPTR
   \   0000E6   08           INC     R0
   \   0000E7   A983         MOV     R1,DPH
   1555              *pBuf++ = HI_UINT16( RoutingTableList->nextHopAddress );
   \   0000E9   8C82         MOV     DPL,R4
   \   0000EB   8D83         MOV     DPH,R5
   \   0000ED   A3           INC     DPTR
   \   0000EE   E0           MOVX    A,@DPTR
   \   0000EF   8882         MOV     DPL,R0
   \   0000F1   8983         MOV     DPH,R1
   \   0000F3   F0           MOVX    @DPTR,A
   \   0000F4   A3           INC     DPTR
   \   0000F5   08           INC     R0
   \   0000F6   A983         MOV     R1,DPH
   1556              RoutingTableList++;    // Move to next list entry
   \   0000F8   EE           MOV     A,R6
   \   0000F9   2406         ADD     A,#0x6
   \   0000FB   FE           MOV     R6,A
   \   0000FC   EF           MOV     A,R7
   \   0000FD   3400         ADDC    A,#0x0
   \   0000FF   FF           MOV     R7,A
   1557            }
   \   000100   05..         INC     ?V0 + 0
   \                     ??ZDP_MgmtRtgRsp_3:
   \   000102   E5..         MOV     A,?V0 + 0
   \   000104   C3           CLR     C
   \   000105   95..         SUBB    A,?V0 + 4
   \   000107   4099         JC      ??ZDP_MgmtRtgRsp_4
   1558          
   1559            FillAndSendBuffer( &TransSeq, dstAddr, Mgmt_Rtg_rsp, len, buf );
   \   000109   90....       MOV     DPTR,#ZDP_TmpBuf
   \   00010C   EA           MOV     A,R2
   \   00010D   F0           MOVX    @DPTR,A
   \   00010E   A3           INC     DPTR
   \   00010F   EB           MOV     A,R3
   \   000110   F0           MOVX    @DPTR,A
   \   000111                ; Setup parameters for call to function fillAndSend
   \   000111   75..32       MOV     ?V0 + 0,#0x32
   \   000114   75..80       MOV     ?V0 + 1,#-0x80
   \   000117   78..         MOV     R0,#?V0 + 0
   \   000119   12....       LCALL   ?PUSH_XSTACK_I_TWO
   \   00011C   A9..         MOV     R1,?V0 + 5
   \   00011E   7405         MOV     A,#0x5
   \   000120   12....       LCALL   ?XSTACK_DISP0_8
   \   000123   E0           MOVX    A,@DPTR
   \   000124   FC           MOV     R4,A
   \   000125   A3           INC     DPTR
   \   000126   E0           MOVX    A,@DPTR
   \   000127   FD           MOV     R5,A
   \   000128   7404         MOV     A,#0x4
   \   00012A   12....       LCALL   ?XSTACK_DISP0_8
   \   00012D   AA82         MOV     R2,DPL
   \   00012F   AB83         MOV     R3,DPH
   \   000131   12....       LCALL   ??fillAndSend?relay
   \   000134   7402         MOV     A,#0x2
   \   000136   12....       LCALL   ?DEALLOC_XSTACK8
   \   000139   E9           MOV     A,R1
   \   00013A   FE           MOV     R6,A
   \   00013B                ; Setup parameters for call to function osal_mem_free
   \   00013B   85..82       MOV     DPL,?XSP + 0
   \   00013E   85..83       MOV     DPH,?XSP + 1
   \   000141   E0           MOVX    A,@DPTR
   \   000142   FA           MOV     R2,A
   \   000143   A3           INC     DPTR
   \   000144   E0           MOVX    A,@DPTR
   \   000145   FB           MOV     R3,A
   \   000146   12....       LCALL   ??osal_mem_free?relay
   \   000149   90....       MOV     DPTR,#ZDP_TmpBuf
   \   00014C   74..         MOV     A,#((ZDP_Buf + 1) & 0xff)
   \   00014E   F0           MOVX    @DPTR,A
   \   00014F   A3           INC     DPTR
   \   000150   74..         MOV     A,#(((ZDP_Buf + 1) >> 8) & 0xff)
   \   000152   F0           MOVX    @DPTR,A
   \   000153   EE           MOV     A,R6
   \   000154   F9           MOV     R1,A
   \                     ??ZDP_MgmtRtgRsp_2:
   \   000155   7405         MOV     A,#0x5
   \   000157   12....       LCALL   ?DEALLOC_XSTACK8
   \   00015A   7F07         MOV     R7,#0x7
   \   00015C   02....       LJMP    ?BANKED_LEAVE_XDATA
   1560          }
   1561          
   1562          /*********************************************************************
   1563           * @fn          ZDP_MgmtBindRsp
   1564           *
   1565           * @brief       This builds and send a Mgmt_Bind_rsp message. This
   1566           *              function sends a unicast message.
   1567           *
   1568           * @param       dstAddr - destination address of the message
   1569           * @param       Status - message status (ZDP_SUCCESS or other)
   1570           * @param       BindingTableEntries - Total number of entries
   1571           * @param       StartIndex - Starting index within the reporting list
   1572           * @param       BindingTableListCount - number of entries included
   1573           *                                 in this message
   1574           * @param       BindingTableList - List of Binding Table entries
   1575           * @param       SecurityEnable - Security Options
   1576           *
   1577           * @return      ZStatus_t
   1578           */

   \                                 In  segment BANKED_CODE, align 1, keep-with-next
   1579          ZStatus_t ZDP_MgmtBindRsp( byte TransSeq, zAddrType_t *dstAddr,
   \                     ZDP_MgmtBindRsp:
   1580                                      byte Status,
   1581                                      byte BindingTableEntries,
   1582                                      byte StartIndex,
   1583                                      byte BindingTableListCount,
   1584                                      apsBindingItem_t *BindingTableList,
   1585                                      byte SecurityEnable )
   1586          {
   \   000000   74F0         MOV     A,#-0x10
   \   000002   12....       LCALL   ?BANKED_ENTER_XDATA
   \   000005                ; Saved register size: 16
   \   000005                ; Auto size: 3
   \   000005   74FD         MOV     A,#-0x3
   \   000007   12....       LCALL   ?ALLOC_XSTACK8
   \   00000A   E9           MOV     A,R1
   \   00000B   85..82       MOV     DPL,?XSP + 0
   \   00000E   85..83       MOV     DPH,?XSP + 1
   \   000011   F0           MOVX    @DPTR,A
   \   000012   7401         MOV     A,#0x1
   \   000014   12....       LCALL   ?XSTACK_DISP0_8
   \   000017   EA           MOV     A,R2
   \   000018   F0           MOVX    @DPTR,A
   \   000019   A3           INC     DPTR
   \   00001A   EB           MOV     A,R3
   \   00001B   F0           MOVX    @DPTR,A
   \   00001C   8C..         MOV     ?V0 + 4,R4
   \   00001E   8D..         MOV     ?V0 + 0,R5
   \   000020   7413         MOV     A,#0x13
   \   000022   12....       LCALL   ?XSTACK_DISP0_8
   \   000025   E0           MOVX    A,@DPTR
   \   000026   F5..         MOV     ?V0 + 1,A
   \   000028   7414         MOV     A,#0x14
   \   00002A   12....       LCALL   ?XSTACK_DISP0_8
   \   00002D   E0           MOVX    A,@DPTR
   \   00002E   F5..         MOV     ?V0 + 5,A
   \   000030   7415         MOV     A,#0x15
   \   000032   12....       LCALL   ?XSTACK_DISP0_8
   \   000035   E0           MOVX    A,@DPTR
   \   000036   FE           MOV     R6,A
   \   000037   A3           INC     DPTR
   \   000038   E0           MOVX    A,@DPTR
   \   000039   FF           MOV     R7,A
   1587            uint8 *buf;
   1588            uint8 *pBuf;
   1589            uint8 maxLen; // maxLen is the maximum packet length to allocate enough memory space
   1590            uint8 len;    // Actual length varies due to different addrMode
   1591            uint8 x;
   1592            byte extZdpBindEntrySize = ZDP_BINDINGENTRY_SIZE + 1 + 1; // One more byte for cluserID and DstAddrMode
   1593            byte shortZdpBindEntrySize = ZDP_BINDINGENTRY_SIZE + 1 + 1 + 2 - 8 - 1; // clusterID + DstAddrMode + shortAddr - ExtAddr - DstEndpoint
   1594          
   1595            (void)SecurityEnable;  // Intentionally unreferenced parameter
   1596          
   1597            // Status + BindingTableEntries + StartIndex + BindingTableListCount.
   1598            maxLen = 1 + 1 + 1 + 1;
   1599            maxLen += (BindingTableListCount * extZdpBindEntrySize );  //max length
   1600            buf = osal_mem_alloc( maxLen + 1 );  // +1 for transaction ID
   \   00003A                ; Setup parameters for call to function osal_mem_alloc
   \   00003A   75F015       MOV     B,#0x15
   \   00003D   E5..         MOV     A,?V0 + 5
   \   00003F   A4           MUL     AB
   \   000040   2404         ADD     A,#0x4
   \   000042   F8           MOV     R0,A
   \   000043   7401         MOV     A,#0x1
   \   000045   28           ADD     A,R0
   \   000046   FA           MOV     R2,A
   \   000047   E4           CLR     A
   \   000048   3400         ADDC    A,#0x0
   \   00004A   FB           MOV     R3,A
   \   00004B   12....       LCALL   ??osal_mem_alloc?relay
   \   00004E   8A..         MOV     ?V0 + 6,R2
   \   000050   8B..         MOV     ?V0 + 7,R3
   1601          
   1602            if ( buf == NULL )
   \   000052   EA           MOV     A,R2
   \   000053   7001         JNZ     ??ZDP_MgmtBindRsp_0
   \   000055   EB           MOV     A,R3
   \                     ??ZDP_MgmtBindRsp_0:
   \   000056   7005         JNZ     ??ZDP_MgmtBindRsp_1
   1603            {
   1604              return afStatus_MEM_FAIL;
   \   000058   7910         MOV     R1,#0x10
   \   00005A   02....       LJMP    ??ZDP_MgmtBindRsp_2 & 0xFFFF
   1605            }
   \                     ??ZDP_MgmtBindRsp_1:
   \   00005D   8A82         MOV     DPL,R2
   \   00005F   8B83         MOV     DPH,R3
   \   000061   A3           INC     DPTR
   1606          
   1607            pBuf = buf+1;
   1608          
   1609            *pBuf++ = Status;
   \   000062   E5..         MOV     A,?V0 + 4
   \   000064   F0           MOVX    @DPTR,A
   \   000065   A3           INC     DPTR
   1610            *pBuf++ = BindingTableEntries;
   \   000066   E5..         MOV     A,?V0 + 0
   \   000068   F0           MOVX    @DPTR,A
   \   000069   A3           INC     DPTR
   1611            *pBuf++ = StartIndex;
   \   00006A   E5..         MOV     A,?V0 + 1
   \   00006C   F0           MOVX    @DPTR,A
   \   00006D   A3           INC     DPTR
   1612            *pBuf++ = BindingTableListCount;
   \   00006E   E5..         MOV     A,?V0 + 5
   \   000070   F0           MOVX    @DPTR,A
   \   000071   A3           INC     DPTR
   \   000072   AA82         MOV     R2,DPL
   \   000074   AB83         MOV     R3,DPH
   1613          
   1614            // Initial length = Status + BindingTableEntries + StartIndex + BindingTableListCount.
   1615            // length += ZDP_BINDINGENTRY_SIZE   -- Version 1.0
   1616            //           extZdpBindEntrySize     -- Version 1.1 extended address mode
   1617            //           shortZdpBindEntrySize   -- Version 1.1 group address mode
   1618          
   1619            len = 1 + 1 + 1 + 1;
   \   000076   75..04       MOV     ?V0 + 0,#0x4
   1620            for ( x = 0; x < BindingTableListCount; x++ )
   \   000079   75..00       MOV     ?V0 + 1,#0x0
   \   00007C   802D         SJMP    ??ZDP_MgmtBindRsp_3
   1621            {
   1622              pBuf = osal_cpyExtAddr( pBuf, BindingTableList->srcAddr );
   1623              *pBuf++ = BindingTableList->srcEP;
   1624          
   1625              // Cluster ID
   1626              *pBuf++ = LO_UINT16( BindingTableList->clusterID );
   1627              *pBuf++ = HI_UINT16( BindingTableList->clusterID );
   1628          
   1629              *pBuf++ = BindingTableList->dstAddr.addrMode;
   1630              if ( BindingTableList->dstAddr.addrMode == Addr64Bit )
   1631              {
   1632                len += extZdpBindEntrySize;
   1633                pBuf = osal_cpyExtAddr( pBuf, BindingTableList->dstAddr.addr.extAddr );
   1634                *pBuf++ = BindingTableList->dstEP;
   1635              }
   1636              else
   1637              {
   1638                len += shortZdpBindEntrySize;
   \                     ??ZDP_MgmtBindRsp_4:
   \   00007E   740E         MOV     A,#0xe
   \   000080   25..         ADD     A,?V0 + 0
   \   000082   F5..         MOV     ?V0 + 0,A
   1639                *pBuf++ = LO_UINT16( BindingTableList->dstAddr.addr.shortAddr );
   \   000084   8C82         MOV     DPL,R4
   \   000086   8D83         MOV     DPH,R5
   \   000088   E0           MOVX    A,@DPTR
   \   000089   8A82         MOV     DPL,R2
   \   00008B   8B83         MOV     DPH,R3
   \   00008D   F0           MOVX    @DPTR,A
   \   00008E   A3           INC     DPTR
   \   00008F   0A           INC     R2
   \   000090   AB83         MOV     R3,DPH
   1640                *pBuf++ = HI_UINT16( BindingTableList->dstAddr.addr.shortAddr );
   \   000092   8C82         MOV     DPL,R4
   \   000094   8D83         MOV     DPH,R5
   \   000096   A3           INC     DPTR
   \   000097   E0           MOVX    A,@DPTR
   \   000098   8A82         MOV     DPL,R2
   \   00009A   8B83         MOV     DPH,R3
   \   00009C   F0           MOVX    @DPTR,A
   \   00009D   A3           INC     DPTR
   \   00009E   0A           INC     R2
   \                     ??ZDP_MgmtBindRsp_5:
   \   00009F   AB83         MOV     R3,DPH
   1641              }
   1642              BindingTableList++;    // Move to next list entry
   \   0000A1   EE           MOV     A,R6
   \   0000A2   2415         ADD     A,#0x15
   \   0000A4   FE           MOV     R6,A
   \   0000A5   EF           MOV     A,R7
   \   0000A6   3400         ADDC    A,#0x0
   \   0000A8   FF           MOV     R7,A
   \   0000A9   05..         INC     ?V0 + 1
   \                     ??ZDP_MgmtBindRsp_3:
   \   0000AB   E5..         MOV     A,?V0 + 1
   \   0000AD   C3           CLR     C
   \   0000AE   95..         SUBB    A,?V0 + 5
   \   0000B0   4003         JC      $+5
   \   0000B2   02....       LJMP    ??ZDP_MgmtBindRsp_6 & 0xFFFF
   \   0000B5                ; Setup parameters for call to function sAddrExtCpy
   \   0000B5   EE           MOV     A,R6
   \   0000B6   FC           MOV     R4,A
   \   0000B7   EF           MOV     A,R7
   \   0000B8   FD           MOV     R5,A
   \   0000B9   12....       LCALL   ??sAddrExtCpy?relay
   \   0000BC   8E82         MOV     DPL,R6
   \   0000BE   8F83         MOV     DPH,R7
   \   0000C0   A3           INC     DPTR
   \   0000C1   A3           INC     DPTR
   \   0000C2   A3           INC     DPTR
   \   0000C3   A3           INC     DPTR
   \   0000C4   A3           INC     DPTR
   \   0000C5   A3           INC     DPTR
   \   0000C6   A3           INC     DPTR
   \   0000C7   A3           INC     DPTR
   \   0000C8   E0           MOVX    A,@DPTR
   \   0000C9   8A82         MOV     DPL,R2
   \   0000CB   8B83         MOV     DPH,R3
   \   0000CD   F0           MOVX    @DPTR,A
   \   0000CE   A3           INC     DPTR
   \   0000CF   AA82         MOV     R2,DPL
   \   0000D1   AB83         MOV     R3,DPH
   \   0000D3   EE           MOV     A,R6
   \   0000D4   2409         ADD     A,#0x9
   \   0000D6   F8           MOV     R0,A
   \   0000D7   EF           MOV     A,R7
   \   0000D8   3400         ADDC    A,#0x0
   \   0000DA   F9           MOV     R1,A
   \   0000DB   8882         MOV     DPL,R0
   \   0000DD   8983         MOV     DPH,R1
   \   0000DF   E0           MOVX    A,@DPTR
   \   0000E0   8A82         MOV     DPL,R2
   \   0000E2   8B83         MOV     DPH,R3
   \   0000E4   F0           MOVX    @DPTR,A
   \   0000E5   A3           INC     DPTR
   \   0000E6   0A           INC     R2
   \   0000E7   AB83         MOV     R3,DPH
   \   0000E9   8882         MOV     DPL,R0
   \   0000EB   8983         MOV     DPH,R1
   \   0000ED   A3           INC     DPTR
   \   0000EE   E0           MOVX    A,@DPTR
   \   0000EF   8A82         MOV     DPL,R2
   \   0000F1   8B83         MOV     DPH,R3
   \   0000F3   F0           MOVX    @DPTR,A
   \   0000F4   A3           INC     DPTR
   \   0000F5   0A           INC     R2
   \   0000F6   AB83         MOV     R3,DPH
   \   0000F8   EE           MOV     A,R6
   \   0000F9   2413         ADD     A,#0x13
   \   0000FB   F8           MOV     R0,A
   \   0000FC   EF           MOV     A,R7
   \   0000FD   3400         ADDC    A,#0x0
   \   0000FF   F9           MOV     R1,A
   \   000100   8882         MOV     DPL,R0
   \   000102   8983         MOV     DPH,R1
   \   000104   E0           MOVX    A,@DPTR
   \   000105   8A82         MOV     DPL,R2
   \   000107   8B83         MOV     DPH,R3
   \   000109   F0           MOVX    @DPTR,A
   \   00010A   A3           INC     DPTR
   \   00010B   0A           INC     R2
   \   00010C   AB83         MOV     R3,DPH
   \   00010E   EE           MOV     A,R6
   \   00010F   240B         ADD     A,#0xb
   \   000111   FC           MOV     R4,A
   \   000112   EF           MOV     A,R7
   \   000113   3400         ADDC    A,#0x0
   \   000115   FD           MOV     R5,A
   \   000116   8882         MOV     DPL,R0
   \   000118   8983         MOV     DPH,R1
   \   00011A   E0           MOVX    A,@DPTR
   \   00011B   6403         XRL     A,#0x3
   \   00011D   6003         JZ      $+5
   \   00011F   02....       LJMP    ??ZDP_MgmtBindRsp_4 & 0xFFFF
   \   000122   7415         MOV     A,#0x15
   \   000124   25..         ADD     A,?V0 + 0
   \   000126   F5..         MOV     ?V0 + 0,A
   \   000128                ; Setup parameters for call to function sAddrExtCpy
   \   000128   12....       LCALL   ??sAddrExtCpy?relay
   \   00012B   EE           MOV     A,R6
   \   00012C   2414         ADD     A,#0x14
   \   00012E   F582         MOV     DPL,A
   \   000130   EF           MOV     A,R7
   \   000131   3400         ADDC    A,#0x0
   \   000133   F583         MOV     DPH,A
   \   000135   E0           MOVX    A,@DPTR
   \   000136   8A82         MOV     DPL,R2
   \   000138   8B83         MOV     DPH,R3
   \   00013A   F0           MOVX    @DPTR,A
   \   00013B   A3           INC     DPTR
   \   00013C   AA82         MOV     R2,DPL
   \   00013E   02....       LJMP    ??ZDP_MgmtBindRsp_5 & 0xFFFF
   1643            }
   1644          
   1645            FillAndSendBuffer( &TransSeq, dstAddr, Mgmt_Bind_rsp, len, buf );
   \                     ??ZDP_MgmtBindRsp_6:
   \   000141   85..82       MOV     DPL,?V0 + 6
   \   000144   85..83       MOV     DPH,?V0 + 7
   \   000147   A3           INC     DPTR
   \   000148   A882         MOV     R0,DPL
   \   00014A   A983         MOV     R1,DPH
   \   00014C   90....       MOV     DPTR,#ZDP_TmpBuf
   \   00014F   E8           MOV     A,R0
   \   000150   F0           MOVX    @DPTR,A
   \   000151   A3           INC     DPTR
   \   000152   E9           MOV     A,R1
   \   000153   F0           MOVX    @DPTR,A
   \   000154                ; Setup parameters for call to function fillAndSend
   \   000154   75..33       MOV     ?V0 + 2,#0x33
   \   000157   75..80       MOV     ?V0 + 3,#-0x80
   \   00015A   78..         MOV     R0,#?V0 + 2
   \   00015C   12....       LCALL   ?PUSH_XSTACK_I_TWO
   \   00015F   A9..         MOV     R1,?V0 + 0
   \   000161   7403         MOV     A,#0x3
   \   000163   12....       LCALL   ?XSTACK_DISP0_8
   \   000166   E0           MOVX    A,@DPTR
   \   000167   FC           MOV     R4,A
   \   000168   A3           INC     DPTR
   \   000169   E0           MOVX    A,@DPTR
   \   00016A   FD           MOV     R5,A
   \   00016B   7402         MOV     A,#0x2
   \   00016D   12....       LCALL   ?XSTACK_DISP0_8
   \   000170   AA82         MOV     R2,DPL
   \   000172   AB83         MOV     R3,DPH
   \   000174   12....       LCALL   ??fillAndSend?relay
   \   000177   7402         MOV     A,#0x2
   \   000179   12....       LCALL   ?DEALLOC_XSTACK8
   \   00017C   E9           MOV     A,R1
   \   00017D   FE           MOV     R6,A
   \   00017E                ; Setup parameters for call to function osal_mem_free
   \   00017E   AA..         MOV     R2,?V0 + 6
   \   000180   AB..         MOV     R3,?V0 + 7
   \   000182   12....       LCALL   ??osal_mem_free?relay
   \   000185   90....       MOV     DPTR,#ZDP_TmpBuf
   \   000188   74..         MOV     A,#((ZDP_Buf + 1) & 0xff)
   \   00018A   F0           MOVX    @DPTR,A
   \   00018B   A3           INC     DPTR
   \   00018C   74..         MOV     A,#(((ZDP_Buf + 1) >> 8) & 0xff)
   \   00018E   F0           MOVX    @DPTR,A
   \   00018F   EE           MOV     A,R6
   \   000190   F9           MOV     R1,A
   \                     ??ZDP_MgmtBindRsp_2:
   \   000191   7403         MOV     A,#0x3
   \   000193   12....       LCALL   ?DEALLOC_XSTACK8
   \   000196   7F08         MOV     R7,#0x8
   \   000198   02....       LJMP    ?BANKED_LEAVE_XDATA
   1646          }
   1647          
   1648          /*********************************************************************
   1649           * @fn          ZDP_MgmtNwkUpdateNotify
   1650           *
   1651           * @brief       This builds and send a Mgmt_NWK_Update_notify message. This
   1652           *              function sends a unicast message.
   1653           *
   1654           * @param       dstAddr - destination address of the message
   1655           * @param       status - message status (ZDP_SUCCESS or other)
   1656           * @param       scannedChannels - List of channels scanned by the request
   1657           * @param       totalTransmissions - Total transmissions
   1658           * @param       transmissionFailures - Sum of transmission failures
   1659           * @param       listCount - Number of records contained in the energyValues list
   1660           * @param       energyValues - List of descriptors, one for each of ListCount,
   1661           *                             of the enegry detect descriptors
   1662           * @param       txOptions - Transmit options
   1663           * @param       securityEnable - Security options
   1664           *
   1665           * @return      afStatus_t
   1666           */

   \                                 In  segment BANKED_CODE, align 1, keep-with-next
   1667          afStatus_t ZDP_MgmtNwkUpdateNotify( uint8 TransSeq, zAddrType_t *dstAddr,
   \                     ZDP_MgmtNwkUpdateNotify:
   1668                                              uint8 status, uint32 scannedChannels,
   1669                                              uint16 totalTransmissions, uint16 transmissionFailures,
   1670                                              uint8 listCount, uint8 *energyValues, uint8 txOptions,
   1671                                              uint8 securityEnable )
   1672          {
   \   000000   74F2         MOV     A,#-0xe
   \   000002   12....       LCALL   ?BANKED_ENTER_XDATA
   \   000005                ; Saved register size: 14
   \   000005                ; Auto size: 10
   \   000005   74F6         MOV     A,#-0xa
   \   000007   12....       LCALL   ?ALLOC_XSTACK8
   \   00000A   E9           MOV     A,R1
   \   00000B   C0E0         PUSH    A
   \   00000D   7405         MOV     A,#0x5
   \   00000F   12....       LCALL   ?XSTACK_DISP0_8
   \   000012   D0E0         POP     A
   \   000014   F0           MOVX    @DPTR,A
   \   000015   7408         MOV     A,#0x8
   \   000017   12....       LCALL   ?XSTACK_DISP0_8
   \   00001A   EA           MOV     A,R2
   \   00001B   F0           MOVX    @DPTR,A
   \   00001C   A3           INC     DPTR
   \   00001D   EB           MOV     A,R3
   \   00001E   F0           MOVX    @DPTR,A
   \   00001F   EC           MOV     A,R4
   \   000020   C0E0         PUSH    A
   \   000022   7404         MOV     A,#0x4
   \   000024   12....       LCALL   ?XSTACK_DISP0_8
   \   000027   D0E0         POP     A
   \   000029   F0           MOVX    @DPTR,A
   \   00002A   ED           MOV     A,R5
   \   00002B   85..82       MOV     DPL,?XSP + 0
   \   00002E   85..83       MOV     DPH,?XSP + 1
   \   000031   F0           MOVX    @DPTR,A
   \   000032   7418         MOV     A,#0x18
   \   000034   12....       LCALL   ?XSTACK_DISP0_8
   \   000037   78..         MOV     R0,#?V0 + 0
   \   000039   12....       LCALL   ?L_MOV_X
   \   00003C   741C         MOV     A,#0x1c
   \   00003E   12....       LCALL   ?XSTACK_DISP0_8
   \   000041   E0           MOVX    A,@DPTR
   \   000042   F5..         MOV     ?V0 + 4,A
   \   000044   A3           INC     DPTR
   \   000045   E0           MOVX    A,@DPTR
   \   000046   F5..         MOV     ?V0 + 5,A
   \   000048   741E         MOV     A,#0x1e
   \   00004A   12....       LCALL   ?XSTACK_DISP0_8
   \   00004D   E0           MOVX    A,@DPTR
   \   00004E   FE           MOV     R6,A
   \   00004F   A3           INC     DPTR
   \   000050   E0           MOVX    A,@DPTR
   \   000051   FF           MOV     R7,A
   1673            uint8 *buf;
   1674            uint8 *pBuf;
   1675            uint8 len;
   1676          
   1677            (void)securityEnable;  // Intentionally unreferenced parameter
   1678          
   1679            // Status + ScannedChannels + totalTransmissions + transmissionFailures + ListCount + energyValues
   1680            len = 1 + 4 + 2 + 2 + 1 + listCount;
   \   000052   85..82       MOV     DPL,?XSP + 0
   \   000055   85..83       MOV     DPH,?XSP + 1
   \   000058   E0           MOVX    A,@DPTR
   \   000059   240A         ADD     A,#0xa
   \   00005B   C0E0         PUSH    A
   \   00005D   7401         MOV     A,#0x1
   \   00005F   12....       LCALL   ?XSTACK_DISP0_8
   \   000062   D0E0         POP     A
   \   000064   F0           MOVX    @DPTR,A
   1681          
   1682            buf = osal_mem_alloc( len+1 ); // +1 for transaction ID
   \   000065                ; Setup parameters for call to function osal_mem_alloc
   \   000065   E0           MOVX    A,@DPTR
   \   000066   F8           MOV     R0,A
   \   000067   7401         MOV     A,#0x1
   \   000069   28           ADD     A,R0
   \   00006A   FA           MOV     R2,A
   \   00006B   E4           CLR     A
   \   00006C   3400         ADDC    A,#0x0
   \   00006E   FB           MOV     R3,A
   \   00006F   12....       LCALL   ??osal_mem_alloc?relay
   \   000072   7402         MOV     A,#0x2
   \   000074   12....       LCALL   ?XSTACK_DISP0_8
   \   000077   EA           MOV     A,R2
   \   000078   F0           MOVX    @DPTR,A
   \   000079   A3           INC     DPTR
   \   00007A   EB           MOV     A,R3
   \   00007B   F0           MOVX    @DPTR,A
   1683            if ( buf == NULL )
   \   00007C   7402         MOV     A,#0x2
   \   00007E   12....       LCALL   ?XSTACK_DISP0_8
   \   000081   E0           MOVX    A,@DPTR
   \   000082   7002         JNZ     ??ZDP_MgmtNwkUpdateNotify_0
   \   000084   A3           INC     DPTR
   \   000085   E0           MOVX    A,@DPTR
   \                     ??ZDP_MgmtNwkUpdateNotify_0:
   \   000086   7005         JNZ     ??ZDP_MgmtNwkUpdateNotify_1
   1684            {
   1685              return afStatus_MEM_FAIL;
   \   000088   7910         MOV     R1,#0x10
   \   00008A   02....       LJMP    ??ZDP_MgmtNwkUpdateNotify_2 & 0xFFFF
   1686            }
   1687          
   1688            pBuf = buf+1;
   \                     ??ZDP_MgmtNwkUpdateNotify_1:
   \   00008D   7402         MOV     A,#0x2
   \   00008F   12....       LCALL   ?XSTACK_DISP0_8
   \   000092   E0           MOVX    A,@DPTR
   \   000093   2401         ADD     A,#0x1
   \   000095   F8           MOV     R0,A
   \   000096   A3           INC     DPTR
   \   000097   E0           MOVX    A,@DPTR
   \   000098   3400         ADDC    A,#0x0
   \   00009A   F9           MOV     R1,A
   \   00009B   7406         MOV     A,#0x6
   \   00009D   12....       LCALL   ?XSTACK_DISP0_8
   \   0000A0   E8           MOV     A,R0
   \   0000A1   F0           MOVX    @DPTR,A
   \   0000A2   A3           INC     DPTR
   \   0000A3   E9           MOV     A,R1
   \   0000A4   F0           MOVX    @DPTR,A
   \   0000A5   7406         MOV     A,#0x6
   \   0000A7   12....       LCALL   ?XSTACK_DISP0_8
   \   0000AA   E0           MOVX    A,@DPTR
   \   0000AB   FA           MOV     R2,A
   \   0000AC   A3           INC     DPTR
   \   0000AD   E0           MOVX    A,@DPTR
   \   0000AE   FB           MOV     R3,A
   1689          
   1690            *pBuf++ = status;
   \   0000AF   7404         MOV     A,#0x4
   \   0000B1   12....       LCALL   ?XSTACK_DISP0_8
   \   0000B4   E0           MOVX    A,@DPTR
   \   0000B5   8A82         MOV     DPL,R2
   \   0000B7   8B83         MOV     DPH,R3
   \   0000B9   F0           MOVX    @DPTR,A
   \   0000BA   A3           INC     DPTR
   \   0000BB   AA82         MOV     R2,DPL
   \   0000BD   AB83         MOV     R3,DPH
   1691          
   1692            pBuf = osal_buffer_uint32( pBuf, scannedChannels );
   \   0000BF                ; Setup parameters for call to function osal_buffer_uint32
   \   0000BF   78..         MOV     R0,#?V0 + 0
   \   0000C1   12....       LCALL   ?PUSH_XSTACK_I_FOUR
   \   0000C4   12....       LCALL   ??osal_buffer_uint32?relay
   \   0000C7   7404         MOV     A,#0x4
   \   0000C9   12....       LCALL   ?DEALLOC_XSTACK8
   1693          
   1694            *pBuf++ = LO_UINT16( totalTransmissions );
   \   0000CC   8A82         MOV     DPL,R2
   \   0000CE   8B83         MOV     DPH,R3
   \   0000D0   E5..         MOV     A,?V0 + 4
   \   0000D2   F0           MOVX    @DPTR,A
   \   0000D3   A3           INC     DPTR
   1695            *pBuf++ = HI_UINT16( totalTransmissions );
   \   0000D4   E5..         MOV     A,?V0 + 5
   \   0000D6   F0           MOVX    @DPTR,A
   \   0000D7   A3           INC     DPTR
   1696          
   1697            *pBuf++ = LO_UINT16( transmissionFailures );
   \   0000D8   EE           MOV     A,R6
   \   0000D9   F0           MOVX    @DPTR,A
   \   0000DA   A3           INC     DPTR
   1698            *pBuf++ = HI_UINT16( transmissionFailures );
   \   0000DB   EF           MOV     A,R7
   \   0000DC   F0           MOVX    @DPTR,A
   \   0000DD   A3           INC     DPTR
   \   0000DE   AA82         MOV     R2,DPL
   \   0000E0   AB83         MOV     R3,DPH
   1699          
   1700            *pBuf++ = listCount;
   \   0000E2   85..82       MOV     DPL,?XSP + 0
   \   0000E5   85..83       MOV     DPH,?XSP + 1
   \   0000E8   E0           MOVX    A,@DPTR
   \   0000E9   8A82         MOV     DPL,R2
   \   0000EB   8B83         MOV     DPH,R3
   \   0000ED   F0           MOVX    @DPTR,A
   \   0000EE   A3           INC     DPTR
   \   0000EF   0A           INC     R2
   \   0000F0   AB83         MOV     R3,DPH
   1701          
   1702            if ( listCount > 0 )
   \   0000F2   85..82       MOV     DPL,?XSP + 0
   \   0000F5   85..83       MOV     DPH,?XSP + 1
   \   0000F8   E0           MOVX    A,@DPTR
   \   0000F9   6025         JZ      ??ZDP_MgmtNwkUpdateNotify_3
   1703              osal_memcpy( pBuf, energyValues, listCount );
   \   0000FB                ; Setup parameters for call to function osal_memcpy
   \   0000FB   7420         MOV     A,#0x20
   \   0000FD   12....       LCALL   ?XSTACK_DISP0_8
   \   000100   E0           MOVX    A,@DPTR
   \   000101   F5..         MOV     ?V0 + 0,A
   \   000103   A3           INC     DPTR
   \   000104   E0           MOVX    A,@DPTR
   \   000105   F5..         MOV     ?V0 + 1,A
   \   000107   75..00       MOV     ?V0 + 2,#0x0
   \   00010A   78..         MOV     R0,#?V0 + 0
   \   00010C   12....       LCALL   ?PUSH_XSTACK_I_THREE
   \   00010F   7403         MOV     A,#0x3
   \   000111   12....       LCALL   ?XSTACK_DISP0_8
   \   000114   E0           MOVX    A,@DPTR
   \   000115   FC           MOV     R4,A
   \   000116   7D00         MOV     R5,#0x0
   \   000118   12....       LCALL   ??osal_memcpy?relay
   \   00011B   7403         MOV     A,#0x3
   \   00011D   12....       LCALL   ?DEALLOC_XSTACK8
   1704          
   1705            FillAndSendBufferTxOptions( &TransSeq, dstAddr, Mgmt_NWK_Update_notify, len, buf, txOptions );
   \                     ??ZDP_MgmtNwkUpdateNotify_3:
   \   000120   7406         MOV     A,#0x6
   \   000122   12....       LCALL   ?XSTACK_DISP0_8
   \   000125   E0           MOVX    A,@DPTR
   \   000126   F8           MOV     R0,A
   \   000127   A3           INC     DPTR
   \   000128   E0           MOVX    A,@DPTR
   \   000129   F9           MOV     R1,A
   \   00012A   90....       MOV     DPTR,#ZDP_TmpBuf
   \   00012D   E8           MOV     A,R0
   \   00012E   F0           MOVX    @DPTR,A
   \   00012F   A3           INC     DPTR
   \   000130   E9           MOV     A,R1
   \   000131   F0           MOVX    @DPTR,A
   \   000132   7422         MOV     A,#0x22
   \   000134   12....       LCALL   ?XSTACK_DISP0_8
   \   000137   E0           MOVX    A,@DPTR
   \   000138   90....       MOV     DPTR,#ZDP_TxOptions
   \   00013B   F0           MOVX    @DPTR,A
   \   00013C                ; Setup parameters for call to function fillAndSend
   \   00013C   75..38       MOV     ?V0 + 0,#0x38
   \   00013F   75..80       MOV     ?V0 + 1,#-0x80
   \   000142   78..         MOV     R0,#?V0 + 0
   \   000144   12....       LCALL   ?PUSH_XSTACK_I_TWO
   \   000147   7403         MOV     A,#0x3
   \   000149   12....       LCALL   ?XSTACK_DISP0_8
   \   00014C   E0           MOVX    A,@DPTR
   \   00014D   F9           MOV     R1,A
   \   00014E   740A         MOV     A,#0xa
   \   000150   12....       LCALL   ?XSTACK_DISP0_8
   \   000153   E0           MOVX    A,@DPTR
   \   000154   FC           MOV     R4,A
   \   000155   A3           INC     DPTR
   \   000156   E0           MOVX    A,@DPTR
   \   000157   FD           MOV     R5,A
   \   000158   7407         MOV     A,#0x7
   \   00015A   12....       LCALL   ?XSTACK_DISP0_8
   \   00015D   AA82         MOV     R2,DPL
   \   00015F   AB83         MOV     R3,DPH
   \   000161   12....       LCALL   ??fillAndSend?relay
   \   000164   7402         MOV     A,#0x2
   \   000166   12....       LCALL   ?DEALLOC_XSTACK8
   \   000169   E9           MOV     A,R1
   \   00016A   FE           MOV     R6,A
   \   00016B                ; Setup parameters for call to function osal_mem_free
   \   00016B   7402         MOV     A,#0x2
   \   00016D   12....       LCALL   ?XSTACK_DISP0_8
   \   000170   E0           MOVX    A,@DPTR
   \   000171   FA           MOV     R2,A
   \   000172   A3           INC     DPTR
   \   000173   E0           MOVX    A,@DPTR
   \   000174   FB           MOV     R3,A
   \   000175   12....       LCALL   ??osal_mem_free?relay
   \   000178   90....       MOV     DPTR,#ZDP_TmpBuf
   \   00017B   74..         MOV     A,#((ZDP_Buf + 1) & 0xff)
   \   00017D   F0           MOVX    @DPTR,A
   \   00017E   A3           INC     DPTR
   \   00017F   74..         MOV     A,#(((ZDP_Buf + 1) >> 8) & 0xff)
   \   000181   F0           MOVX    @DPTR,A
   \   000182   E4           CLR     A
   \   000183   90....       MOV     DPTR,#ZDP_TxOptions
   \   000186   F0           MOVX    @DPTR,A
   \   000187   EE           MOV     A,R6
   \   000188   F9           MOV     R1,A
   \                     ??ZDP_MgmtNwkUpdateNotify_2:
   \   000189   740A         MOV     A,#0xa
   \   00018B   12....       LCALL   ?DEALLOC_XSTACK8
   \   00018E   7F06         MOV     R7,#0x6
   \   000190   02....       LJMP    ?BANKED_LEAVE_XDATA
   1706          }
   1707          
   1708          /*********************************************************************
   1709           * Functions to register for ZDO Over-the-air messages
   1710           */
   1711          
   1712          /*********************************************************************
   1713           * @fn          ZDO_RegisterForZDOMsg
   1714           *
   1715           * @brief       Call this function to register of an incoming over
   1716           *              the air ZDO message - probably a response message
   1717           *              but requests can also be received.
   1718           *              Messages are delivered to the task with ZDO_CB_MSG
   1719           *              as the message ID.
   1720           *
   1721           * @param       taskID - Where you would like the message delivered
   1722           * @param       clusterID - What message?
   1723           *
   1724           * @return      ZSuccess - successful, ZMemError if not
   1725           */

   \                                 In  segment BANKED_CODE, align 1, keep-with-next
   1726          ZStatus_t ZDO_RegisterForZDOMsg( uint8 taskID, uint16 clusterID )
   \                     ZDO_RegisterForZDOMsg:
   1727          {
   \   000000   74F2         MOV     A,#-0xe
   \   000002   12....       LCALL   ?BANKED_ENTER_XDATA
   \   000005                ; Saved register size: 14
   \   000005                ; Auto size: 0
   \   000005   89..         MOV     ?V0 + 2,R1
   \   000007   8A..         MOV     ?V0 + 0,R2
   \   000009   8B..         MOV     ?V0 + 1,R3
   1728            ZDO_MsgCB_t *pList;
   1729            ZDO_MsgCB_t *pLast;
   1730            ZDO_MsgCB_t *pNew;
   1731          
   1732            // Look for duplicate
   1733            pList = pLast = zdoMsgCBs;
   \   00000B   90....       MOV     DPTR,#zdoMsgCBs
   \   00000E   E0           MOVX    A,@DPTR
   \   00000F   FE           MOV     R6,A
   \   000010   A3           INC     DPTR
   \   000011   E0           MOVX    A,@DPTR
   \   000012   FF           MOV     R7,A
   \   000013   EE           MOV     A,R6
   \   000014   F8           MOV     R0,A
   \   000015   EF           MOV     A,R7
   \   000016   800C         SJMP    ??ZDO_RegisterForZDOMsg_0
   1734            while ( pList )
   1735            {
   1736              if ( pList->taskID == taskID && pList->clusterID == clusterID )
   1737                return ( ZSuccess );
   1738              pLast = pList;
   \                     ??ZDO_RegisterForZDOMsg_1:
   \   000018   E8           MOV     A,R0
   \   000019   FE           MOV     R6,A
   \   00001A   E9           MOV     A,R1
   \   00001B   FF           MOV     R7,A
   1739              pList = (ZDO_MsgCB_t *)pList->next;
   \   00001C   8882         MOV     DPL,R0
   \   00001E   8983         MOV     DPH,R1
   \   000020   E0           MOVX    A,@DPTR
   \   000021   F8           MOV     R0,A
   \   000022   A3           INC     DPTR
   \   000023   E0           MOVX    A,@DPTR
   \                     ??ZDO_RegisterForZDOMsg_0:
   \   000024   F9           MOV     R1,A
   \   000025   E8           MOV     A,R0
   \   000026   7001         JNZ     ??ZDO_RegisterForZDOMsg_2
   \   000028   E9           MOV     A,R1
   \                     ??ZDO_RegisterForZDOMsg_2:
   \   000029   6021         JZ      ??ZDO_RegisterForZDOMsg_3
   \   00002B   8882         MOV     DPL,R0
   \   00002D   8983         MOV     DPH,R1
   \   00002F   A3           INC     DPTR
   \   000030   A3           INC     DPTR
   \   000031   E0           MOVX    A,@DPTR
   \   000032   65..         XRL     A,?V0 + 2
   \   000034   70E2         JNZ     ??ZDO_RegisterForZDOMsg_1
   \   000036   8882         MOV     DPL,R0
   \   000038   8983         MOV     DPH,R1
   \   00003A   A3           INC     DPTR
   \   00003B   A3           INC     DPTR
   \   00003C   A3           INC     DPTR
   \   00003D   E0           MOVX    A,@DPTR
   \   00003E   65..         XRL     A,?V0 + 0
   \   000040   7004         JNZ     ??ZDO_RegisterForZDOMsg_4
   \   000042   A3           INC     DPTR
   \   000043   E0           MOVX    A,@DPTR
   \   000044   65..         XRL     A,?V0 + 1
   \                     ??ZDO_RegisterForZDOMsg_4:
   \   000046   70D0         JNZ     ??ZDO_RegisterForZDOMsg_1
   \                     ??ZDO_RegisterForZDOMsg_5:
   \   000048   7900         MOV     R1,#0x0
   \   00004A   8050         SJMP    ??ZDO_RegisterForZDOMsg_6
   1740            }
   1741          
   1742            // Add to the list
   1743            pNew = (ZDO_MsgCB_t *)osal_mem_alloc( sizeof ( ZDO_MsgCB_t ) );
   \                     ??ZDO_RegisterForZDOMsg_3:
   \   00004C                ; Setup parameters for call to function osal_mem_alloc
   \   00004C   7A05         MOV     R2,#0x5
   \   00004E   7B00         MOV     R3,#0x0
   \   000050   12....       LCALL   ??osal_mem_alloc?relay
   \   000053   8A..         MOV     ?V0 + 4,R2
   \   000055   8B..         MOV     ?V0 + 5,R3
   \   000057   A8..         MOV     R0,?V0 + 4
   \   000059   A9..         MOV     R1,?V0 + 5
   1744            if ( pNew )
   \   00005B   E8           MOV     A,R0
   \   00005C   7001         JNZ     ??ZDO_RegisterForZDOMsg_7
   \   00005E   E9           MOV     A,R1
   \                     ??ZDO_RegisterForZDOMsg_7:
   \   00005F   6039         JZ      ??ZDO_RegisterForZDOMsg_8
   1745            {
   1746              pNew->taskID = taskID;
   \   000061   8882         MOV     DPL,R0
   \   000063   8983         MOV     DPH,R1
   \   000065   A3           INC     DPTR
   \   000066   A3           INC     DPTR
   \   000067   E5..         MOV     A,?V0 + 2
   \   000069   F0           MOVX    @DPTR,A
   1747              pNew->clusterID = clusterID;
   \   00006A   8882         MOV     DPL,R0
   \   00006C   8983         MOV     DPH,R1
   \   00006E   A3           INC     DPTR
   \   00006F   A3           INC     DPTR
   \   000070   A3           INC     DPTR
   \   000071   E5..         MOV     A,?V0 + 0
   \   000073   F0           MOVX    @DPTR,A
   \   000074   A3           INC     DPTR
   \   000075   E5..         MOV     A,?V0 + 1
   \   000077   F0           MOVX    @DPTR,A
   1748              pNew->next = NULL;
   \   000078   8882         MOV     DPL,R0
   \   00007A   8983         MOV     DPH,R1
   \   00007C   E4           CLR     A
   \   00007D   F0           MOVX    @DPTR,A
   \   00007E   A3           INC     DPTR
   \   00007F   F0           MOVX    @DPTR,A
   1749              if ( zdoMsgCBs )
   \   000080   90....       MOV     DPTR,#zdoMsgCBs
   \   000083   E0           MOVX    A,@DPTR
   \   000084   7002         JNZ     ??ZDO_RegisterForZDOMsg_9
   \   000086   A3           INC     DPTR
   \   000087   E0           MOVX    A,@DPTR
   \                     ??ZDO_RegisterForZDOMsg_9:
   \   000088   600B         JZ      ??ZDO_RegisterForZDOMsg_10
   1750              {
   1751                pLast->next = pNew;
   \   00008A   8E82         MOV     DPL,R6
   \   00008C   8F83         MOV     DPH,R7
   \                     ??ZDO_RegisterForZDOMsg_11:
   \   00008E   E8           MOV     A,R0
   \   00008F   F0           MOVX    @DPTR,A
   \   000090   A3           INC     DPTR
   \   000091   E9           MOV     A,R1
   \   000092   F0           MOVX    @DPTR,A
   \   000093   80B3         SJMP    ??ZDO_RegisterForZDOMsg_5
   1752              }
   1753              else
   1754                zdoMsgCBs = pNew;
   \                     ??ZDO_RegisterForZDOMsg_10:
   \   000095   90....       MOV     DPTR,#zdoMsgCBs
   \   000098   80F4         SJMP    ??ZDO_RegisterForZDOMsg_11
   1755              return ( ZSuccess );
   1756            }
   1757            else
   1758              return ( ZMemError );
   \                     ??ZDO_RegisterForZDOMsg_8:
   \   00009A   7910         MOV     R1,#0x10
   \                     ??ZDO_RegisterForZDOMsg_6:
   \   00009C   7F06         MOV     R7,#0x6
   \   00009E   02....       LJMP    ?BANKED_LEAVE_XDATA
   1759          }
   1760          
   1761          /*********************************************************************
   1762           * @fn          ZDO_RemoveRegisteredCB
   1763           *
   1764           * @brief       Call this function if you don't want to receive the
   1765           *              incoming message.
   1766           *
   1767           * @param       taskID - Where the messages are being delivered.
   1768           * @param       clusterID - What message?
   1769           *
   1770           * @return      ZSuccess - successful, ZFailure if not found
   1771           */

   \                                 In  segment BANKED_CODE, align 1, keep-with-next
   1772          ZStatus_t ZDO_RemoveRegisteredCB( uint8 taskID, uint16 clusterID )
   \                     ZDO_RemoveRegisteredCB:
   1773          {
   \   000000   74F7         MOV     A,#-0x9
   \   000002   12....       LCALL   ?BANKED_ENTER_XDATA
   \   000005                ; Saved register size: 9
   \   000005                ; Auto size: 0
   \   000005   E9           MOV     A,R1
   \   000006   FE           MOV     R6,A
   1774            ZDO_MsgCB_t *pList;
   1775            ZDO_MsgCB_t *pLast = NULL;
   \   000007   7C00         MOV     R4,#0x0
   \   000009   7D00         MOV     R5,#0x0
   1776          
   1777            pList = zdoMsgCBs;
   \   00000B   90....       MOV     DPTR,#zdoMsgCBs
   \   00000E   8008         SJMP    ??ZDO_RemoveRegisteredCB_0
   1778            while ( pList )
   1779            {
   1780              if ( pList->taskID == taskID && pList->clusterID == clusterID )
   1781              {
   1782                if ( pLast )
   1783                {
   1784                  // remove this one from the linked list
   1785                  pLast->next = pList->next;
   1786                }
   1787                else if ( pList->next )
   1788                {
   1789                  // remove the first one from the linked list
   1790                  zdoMsgCBs = pList->next;
   1791                }
   1792                else
   1793                {
   1794                  // remove the only item from the list
   1795                  zdoMsgCBs = (ZDO_MsgCB_t *)NULL;
   1796                }
   1797                osal_mem_free( pList );
   1798                return ( ZSuccess );
   1799              }
   1800              pLast = pList;
   \                     ??ZDO_RemoveRegisteredCB_1:
   \   000010   E8           MOV     A,R0
   \   000011   FC           MOV     R4,A
   \   000012   E9           MOV     A,R1
   \   000013   FD           MOV     R5,A
   1801              pList = pList->next;
   \   000014   8882         MOV     DPL,R0
   \   000016   8983         MOV     DPH,R1
   \                     ??ZDO_RemoveRegisteredCB_0:
   \   000018   E0           MOVX    A,@DPTR
   \   000019   F8           MOV     R0,A
   \   00001A   A3           INC     DPTR
   \   00001B   E0           MOVX    A,@DPTR
   \   00001C   F9           MOV     R1,A
   \   00001D   E8           MOV     A,R0
   \   00001E   7001         JNZ     ??ZDO_RemoveRegisteredCB_2
   \   000020   E9           MOV     A,R1
   \                     ??ZDO_RemoveRegisteredCB_2:
   \   000021   605A         JZ      ??ZDO_RemoveRegisteredCB_3
   \   000023   8882         MOV     DPL,R0
   \   000025   8983         MOV     DPH,R1
   \   000027   A3           INC     DPTR
   \   000028   A3           INC     DPTR
   \   000029   E0           MOVX    A,@DPTR
   \   00002A   6E           XRL     A,R6
   \   00002B   70E3         JNZ     ??ZDO_RemoveRegisteredCB_1
   \   00002D   8882         MOV     DPL,R0
   \   00002F   8983         MOV     DPH,R1
   \   000031   A3           INC     DPTR
   \   000032   A3           INC     DPTR
   \   000033   A3           INC     DPTR
   \   000034   E0           MOVX    A,@DPTR
   \   000035   6A           XRL     A,R2
   \   000036   7003         JNZ     ??ZDO_RemoveRegisteredCB_4
   \   000038   A3           INC     DPTR
   \   000039   E0           MOVX    A,@DPTR
   \   00003A   6B           XRL     A,R3
   \                     ??ZDO_RemoveRegisteredCB_4:
   \   00003B   70D3         JNZ     ??ZDO_RemoveRegisteredCB_1
   \   00003D   EC           MOV     A,R4
   \   00003E   7001         JNZ     ??ZDO_RemoveRegisteredCB_5
   \   000040   ED           MOV     A,R5
   \                     ??ZDO_RemoveRegisteredCB_5:
   \   000041   8882         MOV     DPL,R0
   \   000043   8983         MOV     DPH,R1
   \   000045   600F         JZ      ??ZDO_RemoveRegisteredCB_6
   \   000047   E0           MOVX    A,@DPTR
   \   000048   FA           MOV     R2,A
   \   000049   A3           INC     DPTR
   \   00004A   E0           MOVX    A,@DPTR
   \   00004B   FB           MOV     R3,A
   \   00004C   8C82         MOV     DPL,R4
   \   00004E   8D83         MOV     DPH,R5
   \                     ??ZDO_RemoveRegisteredCB_7:
   \   000050   EA           MOV     A,R2
   \   000051   F0           MOVX    @DPTR,A
   \   000052   A3           INC     DPTR
   \   000053   EB           MOV     A,R3
   \   000054   801B         SJMP    ??ZDO_RemoveRegisteredCB_8
   \                     ??ZDO_RemoveRegisteredCB_6:
   \   000056   E0           MOVX    A,@DPTR
   \   000057   7002         JNZ     ??ZDO_RemoveRegisteredCB_9
   \   000059   A3           INC     DPTR
   \   00005A   E0           MOVX    A,@DPTR
   \                     ??ZDO_RemoveRegisteredCB_9:
   \   00005B   600E         JZ      ??ZDO_RemoveRegisteredCB_10
   \   00005D   8882         MOV     DPL,R0
   \   00005F   8983         MOV     DPH,R1
   \   000061   E0           MOVX    A,@DPTR
   \   000062   FA           MOV     R2,A
   \   000063   A3           INC     DPTR
   \   000064   E0           MOVX    A,@DPTR
   \   000065   FB           MOV     R3,A
   \   000066   90....       MOV     DPTR,#zdoMsgCBs
   \   000069   80E5         SJMP    ??ZDO_RemoveRegisteredCB_7
   \                     ??ZDO_RemoveRegisteredCB_10:
   \   00006B   90....       MOV     DPTR,#zdoMsgCBs
   \   00006E   E4           CLR     A
   \   00006F   F0           MOVX    @DPTR,A
   \   000070   A3           INC     DPTR
   \                     ??ZDO_RemoveRegisteredCB_8:
   \   000071   F0           MOVX    @DPTR,A
   \   000072                ; Setup parameters for call to function osal_mem_free
   \   000072   E8           MOV     A,R0
   \   000073   FA           MOV     R2,A
   \   000074   E9           MOV     A,R1
   \   000075   FB           MOV     R3,A
   \   000076   12....       LCALL   ??osal_mem_free?relay
   \   000079   7900         MOV     R1,#0x0
   \   00007B   8002         SJMP    ??ZDO_RemoveRegisteredCB_11
   1802            }
   1803          
   1804            return ( ZFailure );
   \                     ??ZDO_RemoveRegisteredCB_3:
   \   00007D   7901         MOV     R1,#0x1
   \                     ??ZDO_RemoveRegisteredCB_11:
   \   00007F   7F01         MOV     R7,#0x1
   \   000081   02....       LJMP    ?BANKED_LEAVE_XDATA
   1805          }
   1806          
   1807          /*********************************************************************
   1808           * @fn          ZDO_SendMsgCBs
   1809           *
   1810           * @brief       This function sends messages to registered tasks.
   1811           *              Local to ZDO and shouldn't be called outside of ZDO.
   1812           *
   1813           * @param       inMsg - incoming message
   1814           *
   1815           * @return      TRUE if sent to at least 1 task, FALSE if not
   1816           */

   \                                 In  segment BANKED_CODE, align 1, keep-with-next
   1817          uint8 ZDO_SendMsgCBs( zdoIncomingMsg_t *inMsg )
   \                     ZDO_SendMsgCBs:
   1818          {
   \   000000   74F0         MOV     A,#-0x10
   \   000002   12....       LCALL   ?BANKED_ENTER_XDATA
   \   000005                ; Saved register size: 16
   \   000005                ; Auto size: 0
   \   000005   8A..         MOV     ?V0 + 6,R2
   \   000007   8B..         MOV     ?V0 + 7,R3
   1819            uint8 ret = FALSE;
   \   000009   75..00       MOV     ?V0 + 0,#0x0
   1820            ZDO_MsgCB_t *pList = zdoMsgCBs;
   \   00000C   90....       MOV     DPTR,#zdoMsgCBs
   \   00000F   02....       LJMP    ??ZDO_SendMsgCBs_0 & 0xFFFF
   1821            while ( pList )
   1822            {
   1823              if ( pList->clusterID == inMsg->clusterID )
   \                     ??ZDO_SendMsgCBs_1:
   \   000012   85..82       MOV     DPL,?V0 + 4
   \   000015   85..83       MOV     DPH,?V0 + 5
   \   000018   A3           INC     DPTR
   \   000019   A3           INC     DPTR
   \   00001A   A3           INC     DPTR
   \   00001B   E0           MOVX    A,@DPTR
   \   00001C   F8           MOV     R0,A
   \   00001D   A3           INC     DPTR
   \   00001E   E0           MOVX    A,@DPTR
   \   00001F   F9           MOV     R1,A
   \   000020   E5..         MOV     A,?V0 + 6
   \   000022   240C         ADD     A,#0xc
   \   000024   F582         MOV     DPL,A
   \   000026   E5..         MOV     A,?V0 + 7
   \   000028   3400         ADDC    A,#0x0
   \   00002A   F583         MOV     DPH,A
   \   00002C   E0           MOVX    A,@DPTR
   \   00002D   68           XRL     A,R0
   \   00002E   7003         JNZ     ??ZDO_SendMsgCBs_2
   \   000030   A3           INC     DPTR
   \   000031   E0           MOVX    A,@DPTR
   \   000032   69           XRL     A,R1
   \                     ??ZDO_SendMsgCBs_2:
   \   000033   6003         JZ      $+5
   \   000035   02....       LJMP    ??ZDO_SendMsgCBs_3 & 0xFFFF
   \   000038                ; Setup parameters for call to function osal_msg_allocate
   \   000038   E5..         MOV     A,?V0 + 6
   \   00003A   2410         ADD     A,#0x10
   \   00003C   F582         MOV     DPL,A
   \   00003E   E5..         MOV     A,?V0 + 7
   \   000040   3400         ADDC    A,#0x0
   \   000042   F583         MOV     DPH,A
   \   000044   E0           MOVX    A,@DPTR
   \   000045   F8           MOV     R0,A
   \   000046   7415         MOV     A,#0x15
   \   000048   28           ADD     A,R0
   \   000049   FA           MOV     R2,A
   \   00004A   E4           CLR     A
   \   00004B   3400         ADDC    A,#0x0
   \   00004D   FB           MOV     R3,A
   1824              {
   1825                zdoIncomingMsg_t *msgPtr;
   1826          
   1827                // Send the address to the task
   1828                msgPtr = (zdoIncomingMsg_t *)osal_msg_allocate( sizeof( zdoIncomingMsg_t ) + inMsg->asduLen );
   \   00004E   12....       LCALL   ??osal_msg_allocate?relay
   \   000051   8A..         MOV     ?V0 + 2,R2
   \   000053   8B..         MOV     ?V0 + 3,R3
   \   000055   AE..         MOV     R6,?V0 + 2
   \   000057   AF..         MOV     R7,?V0 + 3
   1829                if ( msgPtr )
   \   000059   EE           MOV     A,R6
   \   00005A   7001         JNZ     ??ZDO_SendMsgCBs_4
   \   00005C   EF           MOV     A,R7
   \                     ??ZDO_SendMsgCBs_4:
   \   00005D   7003         JNZ     $+5
   \   00005F   02....       LJMP    ??ZDO_SendMsgCBs_3 & 0xFFFF
   1830                {
   1831                  // copy struct
   1832                  osal_memcpy( msgPtr, inMsg, sizeof( zdoIncomingMsg_t ));
   \   000062                ; Setup parameters for call to function osal_memcpy
   \   000062   85....       MOV     ?V0 + 0,?V0 + 6
   \   000065   85....       MOV     ?V0 + 1,?V0 + 7
   \   000068   75..00       MOV     ?V0 + 2,#0x0
   \   00006B   78..         MOV     R0,#?V0 + 0
   \   00006D   12....       LCALL   ?PUSH_XSTACK_I_THREE
   \   000070   7C15         MOV     R4,#0x15
   \   000072   7D00         MOV     R5,#0x0
   \   000074   12....       LCALL   ??osal_memcpy?relay
   \   000077   7403         MOV     A,#0x3
   \   000079   12....       LCALL   ?DEALLOC_XSTACK8
   1833          
   1834                  if ( inMsg->asduLen )
   \   00007C   E5..         MOV     A,?V0 + 6
   \   00007E   2410         ADD     A,#0x10
   \   000080   F582         MOV     DPL,A
   \   000082   E5..         MOV     A,?V0 + 7
   \   000084   3400         ADDC    A,#0x0
   \   000086   F583         MOV     DPH,A
   \   000088   E0           MOVX    A,@DPTR
   \   000089   6052         JZ      ??ZDO_SendMsgCBs_5
   1835                  {
   1836                    msgPtr->asdu = (byte*)(((byte*)msgPtr) + sizeof( zdoIncomingMsg_t ));
   \   00008B   EE           MOV     A,R6
   \   00008C   2413         ADD     A,#0x13
   \   00008E   FA           MOV     R2,A
   \   00008F   EF           MOV     A,R7
   \   000090   3400         ADDC    A,#0x0
   \   000092   FB           MOV     R3,A
   \   000093   EE           MOV     A,R6
   \   000094   2415         ADD     A,#0x15
   \   000096   F8           MOV     R0,A
   \   000097   EF           MOV     A,R7
   \   000098   3400         ADDC    A,#0x0
   \   00009A   F9           MOV     R1,A
   \   00009B   8A82         MOV     DPL,R2
   \   00009D   8B83         MOV     DPH,R3
   \   00009F   E8           MOV     A,R0
   \   0000A0   F0           MOVX    @DPTR,A
   \   0000A1   A3           INC     DPTR
   \   0000A2   E9           MOV     A,R1
   \   0000A3   F0           MOVX    @DPTR,A
   1837                    osal_memcpy( msgPtr->asdu, inMsg->asdu, inMsg->asduLen );
   \   0000A4                ; Setup parameters for call to function osal_memcpy
   \   0000A4   E5..         MOV     A,?V0 + 6
   \   0000A6   2413         ADD     A,#0x13
   \   0000A8   F582         MOV     DPL,A
   \   0000AA   E5..         MOV     A,?V0 + 7
   \   0000AC   3400         ADDC    A,#0x0
   \   0000AE   F583         MOV     DPH,A
   \   0000B0   E0           MOVX    A,@DPTR
   \   0000B1   F5..         MOV     ?V0 + 0,A
   \   0000B3   A3           INC     DPTR
   \   0000B4   E0           MOVX    A,@DPTR
   \   0000B5   F5..         MOV     ?V0 + 1,A
   \   0000B7   78..         MOV     R0,#?V0 + 0
   \   0000B9   12....       LCALL   ?PUSH_XSTACK_I_THREE
   \   0000BC   E5..         MOV     A,?V0 + 6
   \   0000BE   2410         ADD     A,#0x10
   \   0000C0   F582         MOV     DPL,A
   \   0000C2   E5..         MOV     A,?V0 + 7
   \   0000C4   3400         ADDC    A,#0x0
   \   0000C6   F583         MOV     DPH,A
   \   0000C8   E0           MOVX    A,@DPTR
   \   0000C9   FC           MOV     R4,A
   \   0000CA   7D00         MOV     R5,#0x0
   \   0000CC   8A82         MOV     DPL,R2
   \   0000CE   8B83         MOV     DPH,R3
   \   0000D0   E0           MOVX    A,@DPTR
   \   0000D1   FA           MOV     R2,A
   \   0000D2   A3           INC     DPTR
   \   0000D3   E0           MOVX    A,@DPTR
   \   0000D4   FB           MOV     R3,A
   \   0000D5   12....       LCALL   ??osal_memcpy?relay
   \   0000D8   7403         MOV     A,#0x3
   \   0000DA   12....       LCALL   ?DEALLOC_XSTACK8
   1838                  }
   1839          
   1840                  msgPtr->hdr.event = ZDO_CB_MSG;
   \                     ??ZDO_SendMsgCBs_5:
   \   0000DD   74D3         MOV     A,#-0x2d
   \   0000DF   8E82         MOV     DPL,R6
   \   0000E1   8F83         MOV     DPH,R7
   \   0000E3   F0           MOVX    @DPTR,A
   1841                  osal_msg_send( pList->taskID, (uint8 *)msgPtr );
   \   0000E4                ; Setup parameters for call to function osal_msg_send
   \   0000E4   EE           MOV     A,R6
   \   0000E5   FA           MOV     R2,A
   \   0000E6   EF           MOV     A,R7
   \   0000E7   FB           MOV     R3,A
   \   0000E8   85..82       MOV     DPL,?V0 + 4
   \   0000EB   85..83       MOV     DPH,?V0 + 5
   \   0000EE   A3           INC     DPTR
   \   0000EF   A3           INC     DPTR
   \   0000F0   E0           MOVX    A,@DPTR
   \   0000F1   F9           MOV     R1,A
   \   0000F2   12....       LCALL   ??osal_msg_send?relay
   1842                  ret = TRUE;
   \   0000F5   75..01       MOV     ?V0 + 0,#0x1
   1843                }
   1844              }
   1845              pList = (ZDO_MsgCB_t *)pList->next;
   \                     ??ZDO_SendMsgCBs_3:
   \   0000F8   85..82       MOV     DPL,?V0 + 4
   \   0000FB   85..83       MOV     DPH,?V0 + 5
   \                     ??ZDO_SendMsgCBs_0:
   \   0000FE   E0           MOVX    A,@DPTR
   \   0000FF   F5..         MOV     ?V0 + 4,A
   \   000101   A3           INC     DPTR
   \   000102   E0           MOVX    A,@DPTR
   \   000103   F5..         MOV     ?V0 + 5,A
   1846            }
   \   000105   E5..         MOV     A,?V0 + 4
   \   000107   7002         JNZ     ??ZDO_SendMsgCBs_6
   \   000109   E5..         MOV     A,?V0 + 5
   \                     ??ZDO_SendMsgCBs_6:
   \   00010B   6003         JZ      $+5
   \   00010D   02....       LJMP    ??ZDO_SendMsgCBs_1 & 0xFFFF
   1847            return ( ret );
   \   000110   A9..         MOV     R1,?V0 + 0
   \   000112   7F08         MOV     R7,#0x8
   \   000114   02....       LJMP    ?BANKED_LEAVE_XDATA
   1848          }
   1849          
   1850          /*********************************************************************
   1851           * Incoming message processor
   1852           */
   1853          
   1854          /*********************************************************************
   1855           * @fn          ZDP_IncomingData
   1856           *
   1857           * @brief       This function indicates the transfer of a data PDU (ASDU)
   1858           *              from the APS sub-layer to the ZDO.
   1859           *
   1860           * @param       pData - Incoming Message
   1861           *
   1862           * @return      none
   1863           */

   \                                 In  segment BANKED_CODE, align 1, keep-with-next
   1864          void ZDP_IncomingData( afIncomingMSGPacket_t *pData )
   \                     ZDP_IncomingData:
   1865          {
   \   000000   74F6         MOV     A,#-0xa
   \   000002   12....       LCALL   ?BANKED_ENTER_XDATA
   \   000005                ; Saved register size: 10
   \   000005                ; Auto size: 21
   \   000005   74EB         MOV     A,#-0x15
   \   000007   12....       LCALL   ?ALLOC_XSTACK8
   1866            uint8 x = 0;
   \   00000A   7E00         MOV     R6,#0x0
   1867            uint8 handled;
   1868            zdoIncomingMsg_t inMsg;
   1869          
   1870            inMsg.srcAddr.addrMode = Addr16Bit;
   \   00000C   7402         MOV     A,#0x2
   \   00000E   C0E0         PUSH    A
   \   000010   740A         MOV     A,#0xa
   \   000012   12....       LCALL   ?XSTACK_DISP0_8
   \   000015   D0E0         POP     A
   \   000017   F0           MOVX    @DPTR,A
   1871            inMsg.srcAddr.addr.shortAddr = pData->srcAddr.addr.shortAddr;
   \   000018   8A82         MOV     DPL,R2
   \   00001A   8B83         MOV     DPH,R3
   \   00001C   A3           INC     DPTR
   \   00001D   A3           INC     DPTR
   \   00001E   A3           INC     DPTR
   \   00001F   A3           INC     DPTR
   \   000020   A3           INC     DPTR
   \   000021   A3           INC     DPTR
   \   000022   E0           MOVX    A,@DPTR
   \   000023   F8           MOV     R0,A
   \   000024   A3           INC     DPTR
   \   000025   E0           MOVX    A,@DPTR
   \   000026   F9           MOV     R1,A
   \   000027   7402         MOV     A,#0x2
   \   000029   12....       LCALL   ?XSTACK_DISP0_8
   \   00002C   E8           MOV     A,R0
   \   00002D   F0           MOVX    @DPTR,A
   \   00002E   A3           INC     DPTR
   \   00002F   E9           MOV     A,R1
   \   000030   F0           MOVX    @DPTR,A
   1872            inMsg.wasBroadcast = pData->wasBroadcast;
   \   000031   EA           MOV     A,R2
   \   000032   2415         ADD     A,#0x15
   \   000034   F582         MOV     DPL,A
   \   000036   EB           MOV     A,R3
   \   000037   3400         ADDC    A,#0x0
   \   000039   F583         MOV     DPH,A
   \   00003B   E0           MOVX    A,@DPTR
   \   00003C   C0E0         PUSH    A
   \   00003E   740B         MOV     A,#0xb
   \   000040   12....       LCALL   ?XSTACK_DISP0_8
   \   000043   D0E0         POP     A
   \   000045   F0           MOVX    @DPTR,A
   1873            inMsg.clusterID = pData->clusterId;
   \   000046   8A82         MOV     DPL,R2
   \   000048   8B83         MOV     DPH,R3
   \   00004A   A3           INC     DPTR
   \   00004B   A3           INC     DPTR
   \   00004C   A3           INC     DPTR
   \   00004D   A3           INC     DPTR
   \   00004E   E0           MOVX    A,@DPTR
   \   00004F   F8           MOV     R0,A
   \   000050   A3           INC     DPTR
   \   000051   E0           MOVX    A,@DPTR
   \   000052   F9           MOV     R1,A
   \   000053   740C         MOV     A,#0xc
   \   000055   12....       LCALL   ?XSTACK_DISP0_8
   \   000058   E8           MOV     A,R0
   \   000059   F0           MOVX    @DPTR,A
   \   00005A   A3           INC     DPTR
   \   00005B   E9           MOV     A,R1
   \   00005C   F0           MOVX    @DPTR,A
   1874            inMsg.SecurityUse = pData->SecurityUse;
   \   00005D   EA           MOV     A,R2
   \   00005E   2419         ADD     A,#0x19
   \   000060   F582         MOV     DPL,A
   \   000062   EB           MOV     A,R3
   \   000063   3400         ADDC    A,#0x0
   \   000065   F583         MOV     DPH,A
   \   000067   E0           MOVX    A,@DPTR
   \   000068   C0E0         PUSH    A
   \   00006A   740E         MOV     A,#0xe
   \   00006C   12....       LCALL   ?XSTACK_DISP0_8
   \   00006F   D0E0         POP     A
   \   000071   F0           MOVX    @DPTR,A
   1875          
   1876            inMsg.asduLen = pData->cmd.DataLength-1;
   \   000072   EA           MOV     A,R2
   \   000073   241F         ADD     A,#0x1f
   \   000075   F582         MOV     DPL,A
   \   000077   EB           MOV     A,R3
   \   000078   3400         ADDC    A,#0x0
   \   00007A   F583         MOV     DPH,A
   \   00007C   E0           MOVX    A,@DPTR
   \   00007D   14           DEC     A
   \   00007E   C0E0         PUSH    A
   \   000080   7410         MOV     A,#0x10
   \   000082   12....       LCALL   ?XSTACK_DISP0_8
   \   000085   D0E0         POP     A
   \   000087   F0           MOVX    @DPTR,A
   1877            inMsg.asdu = pData->cmd.Data+1;
   \   000088   EA           MOV     A,R2
   \   000089   2421         ADD     A,#0x21
   \   00008B   F8           MOV     R0,A
   \   00008C   EB           MOV     A,R3
   \   00008D   3400         ADDC    A,#0x0
   \   00008F   F9           MOV     R1,A
   \   000090   8882         MOV     DPL,R0
   \   000092   8983         MOV     DPH,R1
   \   000094   E0           MOVX    A,@DPTR
   \   000095   2401         ADD     A,#0x1
   \   000097   FC           MOV     R4,A
   \   000098   A3           INC     DPTR
   \   000099   E0           MOVX    A,@DPTR
   \   00009A   3400         ADDC    A,#0x0
   \   00009C   FD           MOV     R5,A
   \   00009D   7413         MOV     A,#0x13
   \   00009F   12....       LCALL   ?XSTACK_DISP0_8
   \   0000A2   EC           MOV     A,R4
   \   0000A3   F0           MOVX    @DPTR,A
   \   0000A4   A3           INC     DPTR
   \   0000A5   ED           MOV     A,R5
   \   0000A6   F0           MOVX    @DPTR,A
   1878            inMsg.TransSeq = pData->cmd.Data[0];
   \   0000A7   8882         MOV     DPL,R0
   \   0000A9   8983         MOV     DPH,R1
   \   0000AB   E0           MOVX    A,@DPTR
   \   0000AC   F8           MOV     R0,A
   \   0000AD   A3           INC     DPTR
   \   0000AE   E0           MOVX    A,@DPTR
   \   0000AF   F583         MOV     DPH,A
   \   0000B1   8882         MOV     DPL,R0
   \   0000B3   E0           MOVX    A,@DPTR
   \   0000B4   C0E0         PUSH    A
   \   0000B6   740F         MOV     A,#0xf
   \   0000B8   12....       LCALL   ?XSTACK_DISP0_8
   \   0000BB   D0E0         POP     A
   \   0000BD   F0           MOVX    @DPTR,A
   1879            inMsg.macDestAddr = pData->macDestAddr;
   \   0000BE   EA           MOV     A,R2
   \   0000BF   2412         ADD     A,#0x12
   \   0000C1   F582         MOV     DPL,A
   \   0000C3   EB           MOV     A,R3
   \   0000C4   3400         ADDC    A,#0x0
   \   0000C6   F583         MOV     DPH,A
   \   0000C8   E0           MOVX    A,@DPTR
   \   0000C9   F8           MOV     R0,A
   \   0000CA   A3           INC     DPTR
   \   0000CB   E0           MOVX    A,@DPTR
   \   0000CC   F9           MOV     R1,A
   \   0000CD   7411         MOV     A,#0x11
   \   0000CF   12....       LCALL   ?XSTACK_DISP0_8
   \   0000D2   E8           MOV     A,R0
   \   0000D3   F0           MOVX    @DPTR,A
   \   0000D4   A3           INC     DPTR
   \   0000D5   E9           MOV     A,R1
   \   0000D6   F0           MOVX    @DPTR,A
   1880          
   1881            handled = ZDO_SendMsgCBs( &inMsg );
   \   0000D7                ; Setup parameters for call to function ZDO_SendMsgCBs
   \   0000D7   85..82       MOV     DPL,?XSP + 0
   \   0000DA   85..83       MOV     DPH,?XSP + 1
   \   0000DD   AA82         MOV     R2,DPL
   \   0000DF   AB83         MOV     R3,DPH
   \   0000E1   12....       LCALL   ??ZDO_SendMsgCBs?relay
   \   0000E4   E9           MOV     A,R1
   \   0000E5   FC           MOV     R4,A
   \   0000E6   8001         SJMP    ??ZDP_IncomingData_0
   1882          
   1883          #if defined( MT_ZDO_CB_FUNC )
   1884            MT_ZdoDirectCB( pData, &inMsg );
   1885          #endif
   1886          
   1887            while ( zdpMsgProcs[x].clusterID != 0xFFFF )
   1888            {
   1889              if ( zdpMsgProcs[x].clusterID == inMsg.clusterID )
   1890              {
   1891                zdpMsgProcs[x].pFn( &inMsg );
   1892                return;
   1893              }
   1894              x++;
   \                     ??ZDP_IncomingData_1:
   \   0000E8   0E           INC     R6
   \                     ??ZDP_IncomingData_0:
   \   0000E9   8E..         MOV     ?V0 + 0,R6
   \   0000EB   75..00       MOV     ?V0 + 1,#0x0
   \   0000EE   7402         MOV     A,#0x2
   \   0000F0   78..         MOV     R0,#?V0 + 0
   \   0000F2   12....       LCALL   ?S_SHL
   \   0000F5   E5..         MOV     A,?V0 + 0
   \   0000F7   24..         ADD     A,#(zdpMsgProcs & 0xff)
   \   0000F9   F8           MOV     R0,A
   \   0000FA   E5..         MOV     A,?V0 + 1
   \   0000FC   34..         ADDC    A,#((zdpMsgProcs >> 8) & 0xff)
   \   0000FE   F9           MOV     R1,A
   \   0000FF   8882         MOV     DPL,R0
   \   000101   8983         MOV     DPH,R1
   \   000103   E4           CLR     A
   \   000104   93           MOVC    A,@A+DPTR
   \   000105   C0E0         PUSH    A
   \   000107   7401         MOV     A,#0x1
   \   000109   93           MOVC    A,@A+DPTR
   \   00010A   F583         MOV     DPH,A
   \   00010C   D082         POP     DPL
   \   00010E   AA82         MOV     R2,DPL
   \   000110   AB83         MOV     R3,DPH
   \   000112   74FF         MOV     A,#-0x1
   \   000114   6A           XRL     A,R2
   \   000115   7003         JNZ     ??ZDP_IncomingData_2
   \   000117   74FF         MOV     A,#-0x1
   \   000119   6B           XRL     A,R3
   \                     ??ZDP_IncomingData_2:
   \   00011A   602E         JZ      ??ZDP_IncomingData_3
   \   00011C   740C         MOV     A,#0xc
   \   00011E   12....       LCALL   ?XSTACK_DISP0_8
   \   000121   E0           MOVX    A,@DPTR
   \   000122   6A           XRL     A,R2
   \   000123   7003         JNZ     ??ZDP_IncomingData_4
   \   000125   A3           INC     DPTR
   \   000126   E0           MOVX    A,@DPTR
   \   000127   6B           XRL     A,R3
   \                     ??ZDP_IncomingData_4:
   \   000128   70BE         JNZ     ??ZDP_IncomingData_1
   \   00012A                ; Setup parameters for indirect call
   \   00012A   85..82       MOV     DPL,?XSP + 0
   \   00012D   85..83       MOV     DPH,?XSP + 1
   \   000130   AA82         MOV     R2,DPL
   \   000132   AB83         MOV     R3,DPH
   \   000134   8882         MOV     DPL,R0
   \   000136   8983         MOV     DPH,R1
   \   000138   A3           INC     DPTR
   \   000139   A3           INC     DPTR
   \   00013A   E4           CLR     A
   \   00013B   93           MOVC    A,@A+DPTR
   \   00013C   C0E0         PUSH    A
   \   00013E   7401         MOV     A,#0x1
   \   000140   93           MOVC    A,@A+DPTR
   \   000141   F583         MOV     DPH,A
   \   000143   D082         POP     DPL
   \   000145   12....       LCALL   ?CALL_IND
   \   000148   8010         SJMP    ??ZDP_IncomingData_5
   1895            }
   1896          
   1897            // Handle unhandled messages
   1898            if ( !handled )
   \                     ??ZDP_IncomingData_3:
   \   00014A   EC           MOV     A,R4
   \   00014B   700D         JNZ     ??ZDP_IncomingData_5
   1899              ZDApp_InMsgCB( &inMsg );
   \   00014D                ; Setup parameters for call to function ZDApp_InMsgCB
   \   00014D   85..82       MOV     DPL,?XSP + 0
   \   000150   85..83       MOV     DPH,?XSP + 1
   \   000153   AA82         MOV     R2,DPL
   \   000155   AB83         MOV     R3,DPH
   \   000157   12....       LCALL   ??ZDApp_InMsgCB?relay
   \                     ??ZDP_IncomingData_5:
   \   00015A   7415         MOV     A,#0x15
   \   00015C   12....       LCALL   ?DEALLOC_XSTACK8
   \   00015F   7F02         MOV     R7,#0x2
   \   000161   02....       LJMP    ?BANKED_LEAVE_XDATA
   1900          }

   \                                 In  segment XDATA_ID, align 1, keep-with-next
   \                     `?<Initializer for ZDP_TmpBuf>`:
   \   000000   ....         DW ZDP_Buf + 1H

   \                                 In  segment BANK_RELAYS, align 1
   \                     ??fillAndSend?relay:
   \   000000   12....       LCALL   ?BDISPATCH
   \   000003   ......       DC24    fillAndSend

   \                                 In  segment BANK_RELAYS, align 1
   \                     ??ZDP_SendData?relay:
   \   000000   12....       LCALL   ?BDISPATCH
   \   000003   ......       DC24    ZDP_SendData

   \                                 In  segment BANK_RELAYS, align 1
   \                     ??ZDP_NWKAddrOfInterestReq?relay:
   \   000000   12....       LCALL   ?BDISPATCH
   \   000003   ......       DC24    ZDP_NWKAddrOfInterestReq

   \                                 In  segment BANK_RELAYS, align 1
   \                     ??ZDP_NwkAddrReq?relay:
   \   000000   12....       LCALL   ?BDISPATCH
   \   000003   ......       DC24    ZDP_NwkAddrReq

   \                                 In  segment BANK_RELAYS, align 1
   \                     ??ZDP_IEEEAddrReq?relay:
   \   000000   12....       LCALL   ?BDISPATCH
   \   000003   ......       DC24    ZDP_IEEEAddrReq

   \                                 In  segment BANK_RELAYS, align 1
   \                     ??ZDP_MatchDescReq?relay:
   \   000000   12....       LCALL   ?BDISPATCH
   \   000003   ......       DC24    ZDP_MatchDescReq

   \                                 In  segment BANK_RELAYS, align 1
   \                     ??ZDP_SimpleDescReq?relay:
   \   000000   12....       LCALL   ?BDISPATCH
   \   000003   ......       DC24    ZDP_SimpleDescReq

   \                                 In  segment BANK_RELAYS, align 1
   \                     ??ZDP_UserDescSet?relay:
   \   000000   12....       LCALL   ?BDISPATCH
   \   000003   ......       DC24    ZDP_UserDescSet

   \                                 In  segment BANK_RELAYS, align 1
   \                     ??ZDP_ServerDiscReq?relay:
   \   000000   12....       LCALL   ?BDISPATCH
   \   000003   ......       DC24    ZDP_ServerDiscReq

   \                                 In  segment BANK_RELAYS, align 1
   \                     ??ZDP_DeviceAnnce?relay:
   \   000000   12....       LCALL   ?BDISPATCH
   \   000003   ......       DC24    ZDP_DeviceAnnce

   \                                 In  segment BANK_RELAYS, align 1
   \                     ??zdpProcessAddrReq?relay:
   \   000000   12....       LCALL   ?BDISPATCH
   \   000003   ......       DC24    zdpProcessAddrReq

   \                                 In  segment BANK_RELAYS, align 1
   \                     ??ZDP_NodeDescMsg?relay:
   \   000000   12....       LCALL   ?BDISPATCH
   \   000003   ......       DC24    ZDP_NodeDescMsg

   \                                 In  segment BANK_RELAYS, align 1
   \                     ??ZDP_PowerDescMsg?relay:
   \   000000   12....       LCALL   ?BDISPATCH
   \   000003   ......       DC24    ZDP_PowerDescMsg

   \                                 In  segment BANK_RELAYS, align 1
   \                     ??ZDP_SimpleDescMsg?relay:
   \   000000   12....       LCALL   ?BDISPATCH
   \   000003   ......       DC24    ZDP_SimpleDescMsg

   \                                 In  segment BANK_RELAYS, align 1
   \                     ??ZDP_EPRsp?relay:
   \   000000   12....       LCALL   ?BDISPATCH
   \   000003   ......       DC24    ZDP_EPRsp

   \                                 In  segment BANK_RELAYS, align 1
   \                     ??ZDP_UserDescRsp?relay:
   \   000000   12....       LCALL   ?BDISPATCH
   \   000003   ......       DC24    ZDP_UserDescRsp

   \                                 In  segment BANK_RELAYS, align 1
   \                     ??ZDP_ServerDiscRsp?relay:
   \   000000   12....       LCALL   ?BDISPATCH
   \   000003   ......       DC24    ZDP_ServerDiscRsp

   \                                 In  segment BANK_RELAYS, align 1
   \                     ??ZDP_GenericRsp?relay:
   \   000000   12....       LCALL   ?BDISPATCH
   \   000003   ......       DC24    ZDP_GenericRsp

   \                                 In  segment BANK_RELAYS, align 1
   \                     ??ZDP_EndDeviceBindReq?relay:
   \   000000   12....       LCALL   ?BDISPATCH
   \   000003   ......       DC24    ZDP_EndDeviceBindReq

   \                                 In  segment BANK_RELAYS, align 1
   \                     ??ZDP_BindUnbindReq?relay:
   \   000000   12....       LCALL   ?BDISPATCH
   \   000003   ......       DC24    ZDP_BindUnbindReq

   \                                 In  segment BANK_RELAYS, align 1
   \                     ??ZDP_MgmtNwkDiscReq?relay:
   \   000000   12....       LCALL   ?BDISPATCH
   \   000003   ......       DC24    ZDP_MgmtNwkDiscReq

   \                                 In  segment BANK_RELAYS, align 1
   \                     ??ZDP_MgmtDirectJoinReq?relay:
   \   000000   12....       LCALL   ?BDISPATCH
   \   000003   ......       DC24    ZDP_MgmtDirectJoinReq

   \                                 In  segment BANK_RELAYS, align 1
   \                     ??ZDP_MgmtPermitJoinReq?relay:
   \   000000   12....       LCALL   ?BDISPATCH
   \   000003   ......       DC24    ZDP_MgmtPermitJoinReq

   \                                 In  segment BANK_RELAYS, align 1
   \                     ??ZDP_MgmtLeaveReq?relay:
   \   000000   12....       LCALL   ?BDISPATCH
   \   000003   ......       DC24    ZDP_MgmtLeaveReq

   \                                 In  segment BANK_RELAYS, align 1
   \                     ??ZDP_MgmtNwkUpdateReq?relay:
   \   000000   12....       LCALL   ?BDISPATCH
   \   000003   ......       DC24    ZDP_MgmtNwkUpdateReq

   \                                 In  segment BANK_RELAYS, align 1
   \                     ??ZDP_MgmtNwkDiscRsp?relay:
   \   000000   12....       LCALL   ?BDISPATCH
   \   000003   ......       DC24    ZDP_MgmtNwkDiscRsp

   \                                 In  segment BANK_RELAYS, align 1
   \                     ??ZDP_MgmtLqiRsp?relay:
   \   000000   12....       LCALL   ?BDISPATCH
   \   000003   ......       DC24    ZDP_MgmtLqiRsp

   \                                 In  segment BANK_RELAYS, align 1
   \                     ??ZDP_MgmtRtgRsp?relay:
   \   000000   12....       LCALL   ?BDISPATCH
   \   000003   ......       DC24    ZDP_MgmtRtgRsp

   \                                 In  segment BANK_RELAYS, align 1
   \                     ??ZDP_MgmtBindRsp?relay:
   \   000000   12....       LCALL   ?BDISPATCH
   \   000003   ......       DC24    ZDP_MgmtBindRsp

   \                                 In  segment BANK_RELAYS, align 1
   \                     ??ZDP_MgmtNwkUpdateNotify?relay:
   \   000000   12....       LCALL   ?BDISPATCH
   \   000003   ......       DC24    ZDP_MgmtNwkUpdateNotify

   \                                 In  segment BANK_RELAYS, align 1
   \                     ??ZDO_RegisterForZDOMsg?relay:
   \   000000   12....       LCALL   ?BDISPATCH
   \   000003   ......       DC24    ZDO_RegisterForZDOMsg

   \                                 In  segment BANK_RELAYS, align 1
   \                     ??ZDO_RemoveRegisteredCB?relay:
   \   000000   12....       LCALL   ?BDISPATCH
   \   000003   ......       DC24    ZDO_RemoveRegisteredCB

   \                                 In  segment BANK_RELAYS, align 1
   \                     ??ZDO_SendMsgCBs?relay:
   \   000000   12....       LCALL   ?BDISPATCH
   \   000003   ......       DC24    ZDO_SendMsgCBs

   \                                 In  segment BANK_RELAYS, align 1
   \                     ??ZDP_IncomingData?relay:
   \   000000   12....       LCALL   ?BDISPATCH
   \   000003   ......       DC24    ZDP_IncomingData
   1901          
   1902          /*********************************************************************
   1903          *********************************************************************/
   1904          

   Maximum stack usage in bytes:

     Function                 ISTACK PSTACK XSTACK
     --------                 ------ ------ ------
     ZDO_RegisterForZDOMsg        1      0     14
       -> osal_mem_alloc          0      0     28
     ZDO_RemoveRegisteredCB       0      0      9
       -> osal_mem_free           0      0     18
     ZDO_SendMsgCBs               1      0     50
       -> osal_msg_allocate       0      0     32
       -> osal_memcpy             0      0     38
       -> osal_memcpy             0      0     38
       -> osal_msg_send           0      0     32
     ZDP_BindUnbindReq            1      0     28
       -> sAddrExtCpy             0      0     36
       -> sAddrExtCpy             0      0     36
       -> fillAndSend             0      0     40
     ZDP_DeviceAnnce              1      0     22
       -> sAddrExtCpy             0      0     38
       -> fillAndSend             0      0     42
     ZDP_EPRsp                    1      0     27
       -> osal_memcpy             0      0     40
       -> fillAndSend             0      0     38
     ZDP_EndDeviceBindReq         1      0     30
       -> NLME_GetShortAddr       0      0     38
       -> NLME_GetExtAddr         0      0     38
       -> sAddrExtCpy             0      0     38
       -> fillAndSend             0      0     42
     ZDP_GenericRsp               1      0     17
       -> fillAndSend             0      0     26
     ZDP_IEEEAddrReq              1      0     21
       -> fillAndSend             0      0     42
     ZDP_IncomingData             1      0     31
       -> ZDO_SendMsgCBs          0      0     62
       -> ZDApp_InMsgCB           0      0     62
     ZDP_MatchDescReq             1      0     26
       -> fillAndSend             0      0     36
     ZDP_MgmtBindRsp              1      0     26
       -> osal_mem_alloc          0      0     38
       -> sAddrExtCpy             0      0     38
       -> sAddrExtCpy             0      0     38
       -> fillAndSend             0      0     42
       -> osal_mem_free           0      0     38
     ZDP_MgmtDirectJoinReq        1      0     13
       -> sAddrExtCpy             0      0     20
       -> fillAndSend             0      0     24
     ZDP_MgmtLeaveReq             1      0     14
       -> sAddrExtCpy             0      0     20
       -> fillAndSend             0      0     24
     ZDP_MgmtLqiRsp               1      0     30
       -> fillAndSend             0      0     50
       -> osal_mem_alloc          0      0     46
       -> sAddrExtCpy             0      0     46
       -> sAddrExtCpy             0      0     46
       -> fillAndSend             0      0     50
       -> osal_mem_free           0      0     46
     ZDP_MgmtNwkDiscReq           1      0     22
       -> osal_buffer_uint32      0      0     36
       -> fillAndSend             0      0     32
     ZDP_MgmtNwkDiscRsp           1      0     29
       -> osal_mem_alloc          0      0     44
       -> sAddrExtCpy             0      0     44
       -> fillAndSend             0      0     48
       -> osal_mem_free           0      0     44
     ZDP_MgmtNwkUpdateNotify      1      0     40
       -> osal_mem_alloc          0      0     48
       -> osal_buffer_uint32      0      0     56
       -> osal_memcpy             0      0     54
       -> fillAndSend             0      0     52
       -> osal_mem_free           0      0     48
     ZDP_MgmtNwkUpdateReq         1      0     28
       -> osal_buffer_uint32      0      0     44
       -> fillAndSend             0      0     40
     ZDP_MgmtPermitJoinReq        1      0     12
       -> fillAndSend             0      0     24
     ZDP_MgmtRtgRsp               1      0     27
       -> osal_mem_alloc          0      0     40
       -> fillAndSend             0      0     44
       -> osal_mem_free           0      0     40
     ZDP_NWKAddrOfInterestReq     1      0     13
       -> fillAndSend             0      0     24
     ZDP_NodeDescMsg              2      0     14
       -> fillAndSend             0      0     24
     ZDP_NwkAddrReq               1      0     23
       -> sAddrExtCmp             0      0     42
       -> sAddrExtCpy             0      0     42
       -> fillAndSend             0      0     46
     ZDP_PowerDescMsg             1      0     14
       -> fillAndSend             0      0     24
     ZDP_SendData                 1      0     21
       -> fillAndSend             0      0     32
     ZDP_ServerDiscReq            1      0     21
       -> fillAndSend             0      0     42
     ZDP_ServerDiscRsp            1      0     17
       -> fillAndSend             0      0     26
     ZDP_SimpleDescMsg            1      0     18
       -> fillAndSend             0      0     36
     ZDP_SimpleDescReq            1      0     13
       -> fillAndSend             0      0     24
     ZDP_UserDescRsp              1      0     23
       -> osal_memcpy             0      0     40
       -> fillAndSend             0      0     38
     ZDP_UserDescSet              1      0     21
       -> osal_memcpy             0      0     38
       -> osal_memset             0      0     32
       -> fillAndSend             0      0     36
     fillAndSend                  1      0     71
       -> osal_memset             0      0     52
       -> AF_DataRequest          0      0     70
     zdpProcessAddrReq            1      0     36
       -> sAddrExtCmp             0      0     68
       -> AssocGetWithExt         0      0     68
       -> AssocGetWithShort       0      0     68
       -> AddrMgrEntryGet         0      0     68
       -> sAddrExtCpy             0      0     68
       -> AssocMakeList           0      0     68
       -> osal_mem_free           0      0     68
       -> fillAndSend             0      0     72


   Segment part sizes:

     Function/Label                   Bytes
     --------------                   -----
     ZDP_AF_ENDPOINT                     1
     ZDP_TransID                         1
     ZDP_Buf                            80
     ZDP_TmpBuf                          2
     ZDP_TxOptions                       1
     zdoMsgCBs                           2
     zdpMsgProcs                        48
     fillAndSend                       214
     ZDP_SendData                      133
     ZDP_NWKAddrOfInterestReq           73
     ZDP_NwkAddrReq                    171
     ZDP_IEEEAddrReq                   102
     ZDP_MatchDescReq                  271
     ZDP_SimpleDescReq                  93
     ZDP_UserDescSet                   145
     ZDP_ServerDiscReq                 112
     ZDP_DeviceAnnce                   158
     zdpProcessAddrReq                 825
     ZDP_NodeDescMsg                   350
     ZDP_PowerDescMsg                  138
     ZDP_SimpleDescMsg                 543
     ZDP_EPRsp                         189
     ZDP_UserDescRsp                   170
     ZDP_ServerDiscRsp                 105
     ZDP_GenericRsp                    152
     ZDP_EndDeviceBindReq              389
     ZDP_BindUnbindReq                 263
     ZDP_MgmtNwkDiscReq                 87
     ZDP_MgmtDirectJoinReq              78
     ZDP_MgmtPermitJoinReq              74
     ZDP_MgmtLeaveReq                  102
     ZDP_MgmtNwkUpdateReq              169
     ZDP_MgmtNwkDiscRsp                488
     ZDP_MgmtLqiRsp                    580
     ZDP_MgmtRtgRsp                    351
     ZDP_MgmtBindRsp                   411
     ZDP_MgmtNwkUpdateNotify           403
     ZDO_RegisterForZDOMsg             161
     ZDO_RemoveRegisteredCB            132
     ZDO_SendMsgCBs                    279
     ZDP_IncomingData                  356
     ?<Initializer for ZDP_TmpBuf>       2
     ??fillAndSend?relay                 6
     ??ZDP_SendData?relay                6
     ??ZDP_NWKAddrOfInterestReq?relay    6
     ??ZDP_NwkAddrReq?relay              6
     ??ZDP_IEEEAddrReq?relay             6
     ??ZDP_MatchDescReq?relay            6
     ??ZDP_SimpleDescReq?relay           6
     ??ZDP_UserDescSet?relay             6
     ??ZDP_ServerDiscReq?relay           6
     ??ZDP_DeviceAnnce?relay             6
     ??zdpProcessAddrReq?relay           6
     ??ZDP_NodeDescMsg?relay             6
     ??ZDP_PowerDescMsg?relay            6
     ??ZDP_SimpleDescMsg?relay           6
     ??ZDP_EPRsp?relay                   6
     ??ZDP_UserDescRsp?relay             6
     ??ZDP_ServerDiscRsp?relay           6
     ??ZDP_GenericRsp?relay              6
     ??ZDP_EndDeviceBindReq?relay        6
     ??ZDP_BindUnbindReq?relay           6
     ??ZDP_MgmtNwkDiscReq?relay          6
     ??ZDP_MgmtDirectJoinReq?relay       6
     ??ZDP_MgmtPermitJoinReq?relay       6
     ??ZDP_MgmtLeaveReq?relay            6
     ??ZDP_MgmtNwkUpdateReq?relay        6
     ??ZDP_MgmtNwkDiscRsp?relay          6
     ??ZDP_MgmtLqiRsp?relay              6
     ??ZDP_MgmtRtgRsp?relay              6
     ??ZDP_MgmtBindRsp?relay             6
     ??ZDP_MgmtNwkUpdateNotify?relay     6
     ??ZDO_RegisterForZDOMsg?relay       6
     ??ZDO_RemoveRegisteredCB?relay      6
     ??ZDO_SendMsgCBs?relay              6
     ??ZDP_IncomingData?relay            6

 
 8 267 bytes in segment BANKED_CODE
   204 bytes in segment BANK_RELAYS
    49 bytes in segment CODE_C
     2 bytes in segment XDATA_I
     2 bytes in segment XDATA_ID
    84 bytes in segment XDATA_Z
 
 8 522 bytes of CODE  memory
    86 bytes of XDATA memory

Errors: none
Warnings: none
