###############################################################################
#                                                                             #
# IAR C/C++ Compiler V8.20.2.41139 for 8051             02/Apr/2014  09:56:12 #
# Copyright 2004-2013 IAR Systems AB.                                         #
#                                                                             #
#    Core               =  plain                                              #
#    Code model         =  banked                                             #
#    Data model         =  large                                              #
#    Calling convention =  xdata reentrant                                    #
#    Constant location  =  data_rom                                           #
#    Dptr setup         =  1,16                                               #
#                                                                             #
#    Source file        =  E:\wise-house\Components\stack\af\AF.c             #
#    Command line       =  -f E:\wise-house\Projects\zstack\Samples\MyGeneric #
#                          App\CC2530DB\..\..\..\Tools\CC2530DB\f8wCoord.cfg  #
#                          (-DCPU32MHZ -DROOT=__near_func                     #
#                          -DMAC_CFG_APP_PENDING_QUEUE=TRUE                   #
#                          -DMAC_CFG_TX_DATA_MAX=5 -DMAC_CFG_TX_MAX=8         #
#                          -DMAC_CFG_RX_MAX=5 -DZDO_COORDINATOR -DRTR_NWK)    #
#                          -f E:\wise-house\Projects\zstack\Samples\MyGeneric #
#                          App\CC2530DB\..\..\..\Tools\CC2530DB\f8wConfig.cfg #
#                           (-DZIGBEEPRO -DSECURE=0 -DZG_SECURE_DYNAMIC=0     #
#                          -DREFLECTOR -DDEFAULT_CHANLIST=0x00000800          #
#                          -DZDAPP_CONFIG_PAN_ID=0xFFFF                       #
#                          -DNWK_START_DELAY=100 -DEXTENDED_JOINING_RANDOM_MA #
#                          SK=0x007F -DBEACON_REQUEST_DELAY=100               #
#                          -DBEACON_REQ_DELAY_MASK=0x00FF                     #
#                          -DLINK_STATUS_JITTER_MASK=0x007F                   #
#                          -DROUTE_EXPIRY_TIME=30 -DAPSC_ACK_WAIT_DURATION_PO #
#                          LLED=3000 -DNWK_INDIRECT_MSG_TIMEOUT=7             #
#                          -DMAX_RREQ_ENTRIES=8 -DAPSC_MAX_FRAME_RETRIES=3    #
#                          -DNWK_MAX_DATA_RETRIES=2                           #
#                          -DMAX_POLL_FAILURE_RETRIES=2 -DMAX_BCAST=9         #
#                          -DAPS_MAX_GROUPS=16 -DMAX_RTG_ENTRIES=40           #
#                          -DNWK_MAX_BINDING_ENTRIES=4                        #
#                          -DMAX_BINDING_CLUSTER_IDS=4 "-DDEFAULT_KEY={0x01,  #
#                          0x03, 0x05, 0x07, 0x09, 0x0B, 0x0D, 0x0F, 0x00,    #
#                          0x02, 0x04, 0x06, 0x08, 0x0A, 0x0C, 0x0D}"         #
#                          -DMAC_MAX_FRAME_SIZE=116                           #
#                          -DZDNWKMGR_MIN_TRANSMISSIONS=20 "-DCONST=const     #
#                          __code" -DGENERIC=__generic                        #
#                          -DRFD_RCVC_ALWAYS_ON=TRUE -DPOLL_RATE=1000         #
#                          -DQUEUED_POLL_RATE=100 -DRESPONSE_POLL_RATE=100)   #
#                          -DREJOIN_POLL_RATE=440 E:\wise-house\Components\st #
#                          ack\af\AF.c -D ZTOOL_P1 -D MT_TASK -D MT_SYS_FUNC  #
#                          -D MT_ZDO_FUNC -D LCD_SUPPORTED=DEBUG -D           #
#                          NV_RESTORE=1 -lC E:\wise-house\Projects\zstack\Sam #
#                          ples\MyGenericApp\CC2530DB\CoordinatorEB\List\     #
#                          -lA E:\wise-house\Projects\zstack\Samples\MyGeneri #
#                          cApp\CC2530DB\CoordinatorEB\List\ --diag_suppress  #
#                          Pe001,Pa010 -o E:\wise-house\Projects\zstack\Sampl #
#                          es\MyGenericApp\CC2530DB\CoordinatorEB\Obj\ -e     #
#                          --debug --core=plain --dptr=16,1                   #
#                          --data_model=large --code_model=banked             #
#                          --calling_convention=xdata_reentrant               #
#                          --place_constants=data_rom --nr_virtual_regs 16    #
#                          -I E:\wise-house\Projects\zstack\Samples\MyGeneric #
#                          App\CC2530DB\ -I E:\wise-house\Projects\zstack\Sam #
#                          ples\MyGenericApp\CC2530DB\..\Source\ -I           #
#                          E:\wise-house\Projects\zstack\Samples\MyGenericApp #
#                          \CC2530DB\..\..\..\ZMain\TI2530DB\ -I              #
#                          E:\wise-house\Projects\zstack\Samples\MyGenericApp #
#                          \CC2530DB\..\..\..\..\..\Components\hal\include\   #
#                          -I E:\wise-house\Projects\zstack\Samples\MyGeneric #
#                          App\CC2530DB\..\..\..\..\..\Components\hal\target\ #
#                          CC2530EB\ -I E:\wise-house\Projects\zstack\Samples #
#                          \MyGenericApp\CC2530DB\..\..\..\..\..\Components\m #
#                          ac\include\ -I E:\wise-house\Projects\zstack\Sampl #
#                          es\MyGenericApp\CC2530DB\..\..\..\..\..\Components #
#                          \mac\high_level\ -I E:\wise-house\Projects\zstack\ #
#                          Samples\MyGenericApp\CC2530DB\..\..\..\..\..\Compo #
#                          nents\mac\low_level\srf04\ -I                      #
#                          E:\wise-house\Projects\zstack\Samples\MyGenericApp #
#                          \CC2530DB\..\..\..\..\..\Components\mac\low_level\ #
#                          srf04\single_chip\ -I E:\wise-house\Projects\zstac #
#                          k\Samples\MyGenericApp\CC2530DB\..\..\..\..\..\Com #
#                          ponents\mt\ -I E:\wise-house\Projects\zstack\Sampl #
#                          es\MyGenericApp\CC2530DB\..\..\..\..\..\Components #
#                          \osal\include\ -I E:\wise-house\Projects\zstack\Sa #
#                          mples\MyGenericApp\CC2530DB\..\..\..\..\..\Compone #
#                          nts\services\saddr\ -I E:\wise-house\Projects\zsta #
#                          ck\Samples\MyGenericApp\CC2530DB\..\..\..\..\..\Co #
#                          mponents\services\sdata\ -I                        #
#                          E:\wise-house\Projects\zstack\Samples\MyGenericApp #
#                          \CC2530DB\..\..\..\..\..\Components\stack\af\ -I   #
#                          E:\wise-house\Projects\zstack\Samples\MyGenericApp #
#                          \CC2530DB\..\..\..\..\..\Components\stack\nwk\ -I  #
#                          E:\wise-house\Projects\zstack\Samples\MyGenericApp #
#                          \CC2530DB\..\..\..\..\..\Components\stack\sapi\    #
#                          -I E:\wise-house\Projects\zstack\Samples\MyGeneric #
#                          App\CC2530DB\..\..\..\..\..\Components\stack\sec\  #
#                          -I E:\wise-house\Projects\zstack\Samples\MyGeneric #
#                          App\CC2530DB\..\..\..\..\..\Components\stack\sys\  #
#                          -I E:\wise-house\Projects\zstack\Samples\MyGeneric #
#                          App\CC2530DB\..\..\..\..\..\Components\stack\zdo\  #
#                          -I E:\wise-house\Projects\zstack\Samples\MyGeneric #
#                          App\CC2530DB\..\..\..\..\..\Components\zmac\ -I    #
#                          E:\wise-house\Projects\zstack\Samples\MyGenericApp #
#                          \CC2530DB\..\..\..\..\..\Components\zmac\f8w\ -Ohz #
#    List file          =  E:\wise-house\Projects\zstack\Samples\MyGenericApp #
#                          \CC2530DB\CoordinatorEB\List\AF.lst                #
#    Object file        =  E:\wise-house\Projects\zstack\Samples\MyGenericApp #
#                          \CC2530DB\CoordinatorEB\Obj\AF.r51                 #
#                                                                             #
#                                                                             #
###############################################################################

E:\wise-house\Components\stack\af\AF.c
      1          /**************************************************************************************************
      2            Filename:       AF.c
      3            Revised:        $Date: 2011-11-18 16:03:29 -0800 (Fri, 18 Nov 2011) $
      4            Revision:       $Revision: 28423 $
      5          
      6            Description:    Application Framework - Device Description helper functions
      7          
      8          
      9            Copyright 2004-2011 Texas Instruments Incorporated. All rights reserved.
     10          
     11            IMPORTANT: Your use of this Software is limited to those specific rights
     12            granted under the terms of a software license agreement between the user
     13            who downloaded the software, his/her employer (which must be your employer)
     14            and Texas Instruments Incorporated (the "License").  You may not use this
     15            Software unless you agree to abide by the terms of the License. The License
     16            limits your use, and you acknowledge, that the Software may not be modified,
     17            copied or distributed unless embedded on a Texas Instruments microcontroller
     18            or used solely and exclusively in conjunction with a Texas Instruments radio
     19            frequency transceiver, which is integrated into your product.  Other than for
     20            the foregoing purpose, you may not use, reproduce, copy, prepare derivative
     21            works of, modify, distribute, perform, display or sell this Software and/or
     22            its documentation for any purpose.
     23          
     24            YOU FURTHER ACKNOWLEDGE AND AGREE THAT THE SOFTWARE AND DOCUMENTATION ARE
     25            PROVIDED “AS IS” WITHOUT WARRANTY OF ANY KIND, EITHER EXPRESS OR IMPLIED,
     26            INCLUDING WITHOUT LIMITATION, ANY WARRANTY OF MERCHANTABILITY, TITLE,
     27            NON-INFRINGEMENT AND FITNESS FOR A PARTICULAR PURPOSE. IN NO EVENT SHALL
     28            TEXAS INSTRUMENTS OR ITS LICENSORS BE LIABLE OR OBLIGATED UNDER CONTRACT,
     29            NEGLIGENCE, STRICT LIABILITY, CONTRIBUTION, BREACH OF WARRANTY, OR OTHER
     30            LEGAL EQUITABLE THEORY ANY DIRECT OR INDIRECT DAMAGES OR EXPENSES
     31            INCLUDING BUT NOT LIMITED TO ANY INCIDENTAL, SPECIAL, INDIRECT, PUNITIVE
     32            OR CONSEQUENTIAL DAMAGES, LOST PROFITS OR LOST DATA, COST OF PROCUREMENT
     33            OF SUBSTITUTE GOODS, TECHNOLOGY, SERVICES, OR ANY CLAIMS BY THIRD PARTIES
     34            (INCLUDING BUT NOT LIMITED TO ANY DEFENSE THEREOF), OR OTHER SIMILAR COSTS.
     35          
     36            Should you have any questions regarding your right to use this Software,
     37            contact Texas Instruments Incorporated at www.TI.com.
     38          **************************************************************************************************/
     39          
     40          /*********************************************************************
     41           * INCLUDES
     42           */
     43          
     44          #include "OSAL.h"
     45          #include "AF.h"
     46          #include "nwk_globals.h"
     47          #include "nwk_util.h"
     48          #include "aps_groups.h"
     49          #include "ZDProfile.h"
     50          #include "aps_frag.h"
     51          #include "rtg.h"
     52          
     53          #if defined ( MT_AF_CB_FUNC )
     54            #include "MT_AF.h"
     55          #endif
     56          
     57          #if defined ( INTER_PAN )
     58            #include "stub_aps.h"
     59          #endif
     60          
     61          /*********************************************************************
     62           * MACROS
     63           */
     64          
     65          /*********************************************************************
     66           * @fn      afSend
     67           *
     68           * @brief   Helper macro for V1 API to invoke V2 API.
     69           *
     70           * input parameters
     71           *
     72           * @param  *dstAddr - Full ZB destination address: Nwk Addr + End Point.
     73           * @param   srcEP - Origination (i.e. respond to or ack to) End Point.
     74           * @param   cID - A valid cluster ID as specified by the Profile.
     75           * @param   len - Number of bytes of data pointed to by next param.
     76           * @param  *buf - A pointer to the data bytes to send.
     77           * @param   options - Valid bit mask of AF Tx Options as defined in AF.h.
     78           * @param  *transID - A pointer to a byte which can be modified and which will
     79           *                    be used as the transaction sequence number of the msg.
     80           *
     81           * output parameters
     82           *
     83           * @param  *transID - Incremented by one if the return value is success.
     84           *
     85           * @return  afStatus_t - See previous definition of afStatus_... types.
     86           */
     87          #define afSend( dstAddr, srcEP, cID, len, buf, transID, options, radius ) \
     88                  AF_DataRequest( (dstAddr), afFindEndPointDesc( (srcEP) ), \
     89                                    (cID), (len), (buf), (transID), (options), (radius) )
     90          
     91          /*********************************************************************
     92           * GLOBAL VARIABLES
     93           */
     94          

   \                                 In  segment XDATA_Z, align 1, keep-with-next
     95          epList_t *epList;
   \                     epList:
   \   000000                DS 2
   \   000002                REQUIRE __INIT_XDATA_Z
     96          
     97          /*********************************************************************
     98           * LOCAL FUNCTIONS
     99           */
    100          
    101          static void afBuildMSGIncoming( aps_FrameFormat_t *aff, endPointDesc_t *epDesc,
    102                          zAddrType_t *SrcAddress, uint16 SrcPanId, NLDE_Signal_t *sig,
    103                          uint8 nwkSeqNum, uint8 SecurityUse, uint32 timestamp );
    104          
    105          static epList_t *afFindEndPointDescList( uint8 EndPoint );
    106          
    107          static pDescCB afGetDescCB( endPointDesc_t *epDesc );
    108          
    109          /*********************************************************************
    110           * PUBLIC FUNCTIONS
    111           */
    112          
    113          /*********************************************************************
    114           * @fn      afInit
    115           *
    116           * @brief   Initialization function for the AF.
    117           *
    118           * @param   none
    119           *
    120           * @return  none
    121          void afInit( void )
    122          {
    123          }
    124           */
    125          
    126          /*********************************************************************
    127           * @fn      afRegisterExtended
    128           *
    129           * @brief   Register an Application's EndPoint description.
    130           *
    131           * @param   epDesc - pointer to the Application's endpoint descriptor.
    132           * @param   descFn - pointer to descriptor callback function
    133           *
    134           * NOTE:  The memory that epDesc is pointing to must exist after this call.
    135           *
    136           * @return  Pointer to epList_t on success, NULL otherwise.
    137           */

   \                                 In  segment BANKED_CODE, align 1, keep-with-next
    138          epList_t *afRegisterExtended( endPointDesc_t *epDesc, pDescCB descFn )
   \                     afRegisterExtended:
    139          {
   \   000000   74F4         MOV     A,#-0xc
   \   000002   12....       LCALL   ?BANKED_ENTER_XDATA
   \   000005                ; Saved register size: 12
   \   000005                ; Auto size: 0
   \   000005   EA           MOV     A,R2
   \   000006   FE           MOV     R6,A
   \   000007   EB           MOV     A,R3
   \   000008   FF           MOV     R7,A
   \   000009   8C..         MOV     ?V0 + 0,R4
   \   00000B   8D..         MOV     ?V0 + 1,R5
    140            epList_t *ep = osal_mem_alloc(sizeof(epList_t));
   \   00000D                ; Setup parameters for call to function osal_mem_alloc
   \   00000D   7A09         MOV     R2,#0x9
   \   00000F   7B00         MOV     R3,#0x0
   \   000011   12....       LCALL   ??osal_mem_alloc?relay
    141          
    142            if (ep != NULL)
   \   000014   EA           MOV     A,R2
   \   000015   4B           ORL     A,R3
   \   000016   6035         JZ      ??afRegisterExtended_0
    143            {
    144              ep->nextDesc = epList;
   \   000018   90....       MOV     DPTR,#epList
   \   00001B   12....       LCALL   ??Subroutine32_0 & 0xFFFF
   \                     ??CrossCallReturnLabel_51:
   \   00001E   8A82         MOV     DPL,R2
   \   000020   8B83         MOV     DPH,R3
   \   000022   12....       LCALL   ??Subroutine31_0 & 0xFFFF
    145              epList = ep;
   \                     ??CrossCallReturnLabel_40:
   \   000025   90....       MOV     DPTR,#epList
   \   000028   EA           MOV     A,R2
   \   000029   F0           MOVX    @DPTR,A
   \   00002A   A3           INC     DPTR
   \   00002B   EB           MOV     A,R3
   \   00002C   12....       LCALL   ?Subroutine24 & 0xFFFF
    146              ep->epDesc = epDesc;
    147              ep->pfnDescCB = descFn;
    148              ep->apsfCfg.frameDelay = APSF_DEFAULT_INTERFRAME_DELAY;
    149              ep->apsfCfg.windowSize = APSF_DEFAULT_WINDOW_SIZE;
    150              ep->flags = eEP_AllowMatch;  // Default to allow Match Descriptor.
    151            }
   \                     ??CrossCallReturnLabel_31:
   \   00002F   EE           MOV     A,R6
   \   000030   F0           MOVX    @DPTR,A
   \   000031   A3           INC     DPTR
   \   000032   EF           MOV     A,R7
   \   000033   12....       LCALL   ?Subroutine23 & 0xFFFF
   \                     ??CrossCallReturnLabel_29:
   \   000036   E5..         MOV     A,?V0 + 0
   \   000038   F0           MOVX    @DPTR,A
   \   000039   A3           INC     DPTR
   \   00003A   E5..         MOV     A,?V0 + 1
   \   00003C   12....       LCALL   ?Subroutine23 & 0xFFFF
   \                     ??CrossCallReturnLabel_30:
   \   00003F   A3           INC     DPTR
   \   000040   A3           INC     DPTR
   \   000041   7432         MOV     A,#0x32
   \   000043   12....       LCALL   ?Subroutine21 & 0xFFFF
   \                     ??CrossCallReturnLabel_24:
   \   000046   7401         MOV     A,#0x1
   \   000048   12....       LCALL   ?Subroutine21 & 0xFFFF
   \                     ??CrossCallReturnLabel_25:
   \   00004B   A3           INC     DPTR
   \   00004C   F0           MOVX    @DPTR,A
    152          
    153            return ep;
   \                     ??afRegisterExtended_0:
   \   00004D   02....       LJMP    ?Subroutine0 & 0xFFFF
    154          }

   \                                 In  segment BANKED_CODE, align 1, keep-with-next
   \                     ?Subroutine23:
   \   000000   12....       LCALL   ?Subroutine26 & 0xFFFF
   \                     ??CrossCallReturnLabel_34:
   \   000003   22           RET

   \                                 In  segment BANKED_CODE, align 1, keep-with-next
   \                     ?Subroutine26:
   \   000000   F0           MOVX    @DPTR,A
   \   000001   8A82         MOV     DPL,R2
   \   000003   8B83         MOV     DPH,R3
   \   000005   A3           INC     DPTR
   \   000006   A3           INC     DPTR
   \   000007   A3           INC     DPTR
   \   000008   A3           INC     DPTR
   \   000009   22           RET

   \                                 In  segment BANKED_CODE, align 1, keep-with-next
   \                     ?Subroutine21:
   \   000000   12....       LCALL   ?Subroutine26 & 0xFFFF
   \                     ??CrossCallReturnLabel_35:
   \   000003   A3           INC     DPTR
   \   000004   A3           INC     DPTR
   \   000005   A3           INC     DPTR
   \   000006   22           RET

   \                                 In  segment BANKED_CODE, align 1, keep-with-next
   \                     ?Subroutine24:
   \   000000   F0           MOVX    @DPTR,A
   \   000001   8A82         MOV     DPL,R2
   \   000003   8B83         MOV     DPH,R3
   \   000005   A3           INC     DPTR
   \   000006   A3           INC     DPTR
   \   000007   22           RET

   \                                 In  segment BANKED_CODE, align 1, keep-with-next
   \                     ??Subroutine31_0:
   \   000000   E8           MOV     A,R0
   \   000001   F0           MOVX    @DPTR,A
   \   000002   A3           INC     DPTR
   \   000003   E9           MOV     A,R1
   \   000004   F0           MOVX    @DPTR,A
   \   000005   22           RET

   \                                 In  segment BANKED_CODE, align 1, keep-with-next
   \                     ??Subroutine32_0:
   \   000000   12....       LCALL   ?Subroutine30 & 0xFFFF
   \                     ??CrossCallReturnLabel_62:
   \   000003   22           RET

   \                                 In  segment BANKED_CODE, align 1, keep-with-next
   \                     ?Subroutine30:
   \   000000   E0           MOVX    A,@DPTR
   \   000001   F8           MOV     R0,A
   \   000002   A3           INC     DPTR
   \   000003   E0           MOVX    A,@DPTR
   \   000004   F9           MOV     R1,A
   \   000005   22           RET

   \                                 In  segment BANKED_CODE, align 1, keep-with-next
   \                     ?Subroutine0:
   \   000000   7F04         MOV     R7,#0x4
   \   000002   02....       LJMP    ?BANKED_LEAVE_XDATA
    155          
    156          /*********************************************************************
    157           * @fn      afRegister
    158           *
    159           * @brief   Register an Application's EndPoint description.
    160           *
    161           * @param   epDesc - pointer to the Application's endpoint descriptor.
    162           *
    163           * NOTE:  The memory that epDesc is pointing to must exist after this call.
    164           *
    165           * @return  afStatus_SUCCESS - Registered
    166           *          afStatus_MEM_FAIL - not enough memory to add descriptor
    167           *          afStatus_INVALID_PARAMETER - duplicate endpoint
    168           */

   \                                 In  segment BANKED_CODE, align 1, keep-with-next
    169          afStatus_t afRegister( endPointDesc_t *epDesc )
   \                     afRegister:
    170          {
   \   000000   74F6         MOV     A,#-0xa
   \   000002   12....       LCALL   ?BANKED_ENTER_XDATA
   \   000005                ; Saved register size: 10
   \   000005                ; Auto size: 0
   \   000005   EA           MOV     A,R2
   \   000006   FE           MOV     R6,A
   \   000007   EB           MOV     A,R3
   \   000008   FF           MOV     R7,A
    171            if (afFindEndPointDescList(epDesc->endPoint))  // Look for duplicate endpoint.
   \   000009                ; Setup parameters for call to function afFindEndPointDescList
   \   000009   8E82         MOV     DPL,R6
   \   00000B   8F83         MOV     DPH,R7
   \   00000D   E0           MOVX    A,@DPTR
   \   00000E   F9           MOV     R1,A
   \   00000F   12....       LCALL   ??afFindEndPointDescList?relay
   \   000012   8B..         MOV     ?V0 + 1,R3
   \   000014   EA           MOV     A,R2
   \   000015   45..         ORL     A,?V0 + 1
   \   000017   6004         JZ      ??afRegister_0
    172            {
    173              return afStatus_INVALID_PARAMETER;
   \   000019   7902         MOV     R1,#0x2
   \   00001B   8018         SJMP    ??afRegister_1
    174            }
    175          
    176            return ((NULL == afRegisterExtended(epDesc, NULL)) ? afStatus_MEM_FAIL : afStatus_SUCCESS);
   \                     ??afRegister_0:
   \   00001D                ; Setup parameters for call to function afRegisterExtended
   \   00001D   7C00         MOV     R4,#0x0
   \   00001F   7D00         MOV     R5,#0x0
   \   000021   EE           MOV     A,R6
   \   000022   FA           MOV     R2,A
   \   000023   EF           MOV     A,R7
   \   000024   FB           MOV     R3,A
   \   000025   12....       LCALL   ??afRegisterExtended?relay
   \   000028   8B..         MOV     ?V0 + 1,R3
   \   00002A   EA           MOV     A,R2
   \   00002B   45..         ORL     A,?V0 + 1
   \   00002D   7004         JNZ     ??afRegister_2
   \   00002F   7910         MOV     R1,#0x10
   \   000031   8002         SJMP    ??afRegister_1
   \                     ??afRegister_2:
   \   000033   7900         MOV     R1,#0x0
   \                     ??afRegister_1:
   \   000035   02....       LJMP    ?Subroutine1 & 0xFFFF
    177          }

   \                                 In  segment BANKED_CODE, align 1, keep-with-next
   \                     ?Subroutine1:
   \   000000   7F02         MOV     R7,#0x2
   \   000002   02....       LJMP    ?BANKED_LEAVE_XDATA
    178          
    179          /*********************************************************************
    180           * @fn      afDelete
    181           *
    182           * @brief   Delete an Application's EndPoint descriptor and frees the memory
    183           *
    184           * @param   EndPoint - Application Endpoint to delete
    185           *
    186           * @return  afStatus_SUCCESS - endpoint deleted
    187           *          afStatus_INVALID_PARAMETER - endpoint not found
    188           *          afStatus_FAILED - endpoint list empty
    189           */

   \                                 In  segment BANKED_CODE, align 1, keep-with-next
    190          afStatus_t afDelete( uint8 EndPoint )
   \                     afDelete:
    191          {
   \   000000   74F7         MOV     A,#-0x9
   \   000002   12....       LCALL   ?BANKED_ENTER_XDATA
   \   000005                ; Saved register size: 9
   \   000005                ; Auto size: 0
   \   000005   E9           MOV     A,R1
   \   000006   FE           MOV     R6,A
    192            epList_t *epCurrent;
    193            epList_t *epPrevious;
    194          
    195            if (epList != NULL)
   \   000007   90....       MOV     DPTR,#epList
   \   00000A   12....       LCALL   ?Subroutine10 & 0xFFFF
   \                     ??CrossCallReturnLabel_7:
   \   00000D   6056         JZ      ??afDelete_0
    196            {
    197              epPrevious = epCurrent = epList;
   \   00000F   90....       MOV     DPTR,#epList
   \   000012   12....       LCALL   ??Subroutine35_0 & 0xFFFF
   \                     ??CrossCallReturnLabel_63:
   \   000015   F9           MOV     R1,A
    198          
    199              // first element of the list matches
    200              if (epCurrent->epDesc->endPoint == EndPoint)
   \   000016   12....       LCALL   ?Subroutine8 & 0xFFFF
   \                     ??CrossCallReturnLabel_96:
   \   000019   8A82         MOV     DPL,R2
   \   00001B   8B83         MOV     DPH,R3
   \   00001D   A3           INC     DPTR
   \   00001E   A3           INC     DPTR
   \   00001F   E0           MOVX    A,@DPTR
   \   000020   FF           MOV     R7,A
   \   000021   A3           INC     DPTR
   \   000022   E0           MOVX    A,@DPTR
   \   000023   F583         MOV     DPH,A
   \   000025   8F82         MOV     DPL,R7
   \   000027   E0           MOVX    A,@DPTR
   \   000028   6E           XRL     A,R6
   \   000029   7005         JNZ     ??afDelete_1
    201              {
    202                epList = epCurrent->nextDesc;
   \   00002B   90....       MOV     DPTR,#epList
   \   00002E   8029         SJMP    ??afDelete_2
    203                osal_mem_free(epCurrent);
    204          
    205                return (afStatus_SUCCESS);
    206              }
    207              else
    208              {
    209                // search the list
    210                for (epCurrent = epPrevious->nextDesc; epCurrent != NULL; epPrevious = epCurrent)
   \                     ??afDelete_1:
   \   000030   EC           MOV     A,R4
   \   000031   FA           MOV     R2,A
   \   000032   ED           MOV     A,R5
   \   000033   FB           MOV     R3,A
   \   000034   EA           MOV     A,R2
   \   000035   4B           ORL     A,R3
   \   000036   7008         JNZ     ??afDelete_3
    211                {
    212                  if (epCurrent->epDesc->endPoint == EndPoint)
    213                  {
    214                    epPrevious->nextDesc = epCurrent->nextDesc;
    215                    osal_mem_free(epCurrent);
    216          
    217                    // delete the entry and free the memory
    218                    return (afStatus_SUCCESS);
    219                  }
    220                }
    221              }
    222          
    223              // no endpoint found
    224              return (afStatus_INVALID_PARAMETER);
   \   000038   7902         MOV     R1,#0x2
   \   00003A   802B         SJMP    ??afDelete_4
   \                     ??afDelete_5:
   \   00003C   EA           MOV     A,R2
   \   00003D   F8           MOV     R0,A
   \   00003E   EB           MOV     A,R3
   \   00003F   F9           MOV     R1,A
   \                     ??afDelete_3:
   \   000040   8A82         MOV     DPL,R2
   \   000042   8B83         MOV     DPH,R3
   \   000044   A3           INC     DPTR
   \   000045   A3           INC     DPTR
   \   000046   E0           MOVX    A,@DPTR
   \   000047   FC           MOV     R4,A
   \   000048   A3           INC     DPTR
   \   000049   E0           MOVX    A,@DPTR
   \   00004A   F583         MOV     DPH,A
   \   00004C   8C82         MOV     DPL,R4
   \   00004E   E0           MOVX    A,@DPTR
   \   00004F   6E           XRL     A,R6
   \   000050   70EA         JNZ     ??afDelete_5
   \   000052   12....       LCALL   ?Subroutine8 & 0xFFFF
   \                     ??CrossCallReturnLabel_97:
   \   000055   8882         MOV     DPL,R0
   \   000057   8983         MOV     DPH,R1
   \                     ??afDelete_2:
   \   000059   EC           MOV     A,R4
   \   00005A   F0           MOVX    @DPTR,A
   \   00005B   A3           INC     DPTR
   \   00005C   ED           MOV     A,R5
   \   00005D   F0           MOVX    @DPTR,A
   \   00005E                ; Setup parameters for call to function osal_mem_free
   \   00005E   12....       LCALL   ??osal_mem_free?relay
   \   000061   7900         MOV     R1,#0x0
   \   000063   8002         SJMP    ??afDelete_4
    225            }
    226            else
    227            {
    228              // epList is empty
    229              return (afStatus_FAILED);
   \                     ??afDelete_0:
   \   000065   7901         MOV     R1,#0x1
    230            }
   \                     ??afDelete_4:
   \   000067                REQUIRE ?Subroutine2
   \   000067                ; // Fall through to label ?Subroutine2
    231          }

   \                                 In  segment BANKED_CODE, align 1, keep-with-next
   \                     ?Subroutine2:
   \   000000   7F01         MOV     R7,#0x1
   \   000002   02....       LJMP    ?BANKED_LEAVE_XDATA

   \                                 In  segment BANKED_CODE, align 1, keep-with-next
   \                     ?Subroutine10:
   \   000000   12....       LCALL   ?Subroutine30 & 0xFFFF
   \                     ??CrossCallReturnLabel_58:
   \   000003   E8           MOV     A,R0
   \   000004   49           ORL     A,R1
   \   000005   22           RET

   \                                 In  segment BANKED_CODE, align 1, keep-with-next
   \                     ??Subroutine35_0:
   \   000000   E0           MOVX    A,@DPTR
   \   000001   FA           MOV     R2,A
   \   000002   A3           INC     DPTR
   \   000003   E0           MOVX    A,@DPTR
   \   000004   FB           MOV     R3,A
   \   000005   22           RET

   \                                 In  segment BANKED_CODE, align 1, keep-with-next
   \                     ?Subroutine8:
   \   000000   8A82         MOV     DPL,R2
   \   000002   8B83         MOV     DPH,R3
   \   000004                REQUIRE ??Subroutine38_0
   \   000004                ; // Fall through to label ??Subroutine38_0

   \                                 In  segment BANKED_CODE, align 1, keep-with-next
   \                     ??Subroutine38_0:
   \   000000   E0           MOVX    A,@DPTR
   \   000001   FC           MOV     R4,A
   \   000002   A3           INC     DPTR
   \   000003   E0           MOVX    A,@DPTR
   \   000004   FD           MOV     R5,A
   \   000005   22           RET
    232          
    233          /*********************************************************************
    234           * @fn          afDataConfirm
    235           *
    236           * @brief       This function will generate the Data Confirm back to
    237           *              the application.
    238           *
    239           * @param       endPoint - confirm end point
    240           * @param       transID - transaction ID from APSDE_DATA_REQUEST
    241           * @param       status - status of APSDE_DATA_REQUEST
    242           *
    243           * @return      none
    244           */

   \                                 In  segment BANKED_CODE, align 1, keep-with-next
    245          void afDataConfirm( uint8 endPoint, uint8 transID, ZStatus_t status )
   \                     afDataConfirm:
    246          {
   \   000000   74F2         MOV     A,#-0xe
   \   000002   12....       LCALL   ?BANKED_ENTER_XDATA
   \   000005                ; Saved register size: 14
   \   000005                ; Auto size: 0
   \   000005   89..         MOV     ?V0 + 0,R1
   \   000007   8A..         MOV     ?V0 + 1,R2
   \   000009   8B..         MOV     ?V0 + 2,R3
    247            endPointDesc_t *epDesc;
    248            afDataConfirm_t *msgPtr;
    249          
    250            // Find the endpoint description
    251            epDesc = afFindEndPointDesc( endPoint );
   \   00000B                ; Setup parameters for call to function afFindEndPointDesc
   \   00000B   12....       LCALL   ??afFindEndPointDesc?relay
   \   00000E   8A..         MOV     ?V0 + 4,R2
   \   000010   8B..         MOV     ?V0 + 5,R3
   \   000012   AE..         MOV     R6,?V0 + 4
   \   000014   AF..         MOV     R7,?V0 + 5
    252            if ( epDesc == NULL )
   \   000016   EE           MOV     A,R6
   \   000017   4F           ORL     A,R7
   \   000018   602C         JZ      ??afDataConfirm_0
    253              return;
    254          
    255            // Determine the incoming command type
    256            msgPtr = (afDataConfirm_t *)osal_msg_allocate( sizeof(afDataConfirm_t) );
   \   00001A                ; Setup parameters for call to function osal_msg_allocate
   \   00001A   7A04         MOV     R2,#0x4
   \   00001C   7B00         MOV     R3,#0x0
   \   00001E   12....       LCALL   ??osal_msg_allocate?relay
    257            if ( msgPtr )
   \   000021   EA           MOV     A,R2
   \   000022   4B           ORL     A,R3
   \   000023   6021         JZ      ??afDataConfirm_0
    258            {
    259              // Build the Data Confirm message
    260              msgPtr->hdr.event = AF_DATA_CONFIRM_CMD;
   \   000025   8A82         MOV     DPL,R2
   \   000027   8B83         MOV     DPH,R3
   \   000029   74FD         MOV     A,#-0x3
   \   00002B   F0           MOVX    @DPTR,A
    261              msgPtr->hdr.status = status;
   \   00002C   A3           INC     DPTR
   \   00002D   E5..         MOV     A,?V0 + 2
   \   00002F   12....       LCALL   ?Subroutine24 & 0xFFFF
    262              msgPtr->endpoint = endPoint;
   \                     ??CrossCallReturnLabel_32:
   \   000032   E5..         MOV     A,?V0 + 0
   \   000034   12....       LCALL   ?Subroutine24 & 0xFFFF
    263              msgPtr->transID = transID;
   \                     ??CrossCallReturnLabel_33:
   \   000037   A3           INC     DPTR
   \   000038   E5..         MOV     A,?V0 + 1
   \   00003A   F0           MOVX    @DPTR,A
    264          
    265          #if defined ( MT_AF_CB_FUNC )
    266              /* If MT has subscribed for this callback, don't send as a message. */
    267              if ( AFCB_CHECK(CB_ID_AF_DATA_CNF,*(epDesc->task_id)) )
    268              {
    269                /* Send callback if it's subscribed */
    270                MT_AfDataConfirm ((void *)msgPtr);
    271                /* Release the memory. */
    272                osal_msg_deallocate( (void *)msgPtr );
    273              }
    274              else
    275          #endif
    276              {
    277                /* send message through task message */
    278                osal_msg_send( *(epDesc->task_id), (uint8 *)msgPtr );
   \   00003B                ; Setup parameters for call to function osal_msg_send
   \   00003B   8E82         MOV     DPL,R6
   \   00003D   8F83         MOV     DPH,R7
   \   00003F   12....       LCALL   ??Subroutine36_0 & 0xFFFF
    279              }
    280            }
   \                     ??CrossCallReturnLabel_74:
   \   000042   F9           MOV     R1,A
   \   000043   12....       LCALL   ??osal_msg_send?relay
   \                     ??afDataConfirm_0:
   \   000046   7F06         MOV     R7,#0x6
   \   000048   02....       LJMP    ?BANKED_LEAVE_XDATA
    281          }

   \                                 In  segment BANKED_CODE, align 1, keep-with-next
   \                     ??Subroutine36_0:
   \   000000   12....       LCALL   ?Subroutine29 & 0xFFFF
   \                     ??CrossCallReturnLabel_79:
   \   000003   E0           MOVX    A,@DPTR
   \   000004   22           RET

   \                                 In  segment BANKED_CODE, align 1, keep-with-next
   \                     ?Subroutine29:
   \   000000   A3           INC     DPTR
   \   000001   E0           MOVX    A,@DPTR
   \   000002   F8           MOV     R0,A
   \   000003   A3           INC     DPTR
   \   000004   E0           MOVX    A,@DPTR
   \   000005   F583         MOV     DPH,A
   \   000007   8882         MOV     DPL,R0
   \   000009   22           RET
    282          
    283          /*********************************************************************
    284           * @fn          afIncomingData
    285           *
    286           * @brief       Transfer a data PDU (ASDU) from the APS sub-layer to the AF.
    287           *
    288           * @param       aff  - pointer to APS frame format
    289           * @param       SrcAddress  - Source address
    290           * @param       SrcPanId  - Source PAN ID
    291           * @param       sig - incoming message's link quality
    292           * @param       nwkSeqNum - incoming network sequence number (from nwk header frame)
    293           * @param       SecurityUse - Security enable/disable
    294           * @param       timestamp - the MAC Timer2 timestamp at Rx.
    295           *
    296           * @return      none
    297           */

   \                                 In  segment BANKED_CODE, align 1, keep-with-next
    298          void afIncomingData( aps_FrameFormat_t *aff, zAddrType_t *SrcAddress, uint16 SrcPanId,
   \                     afIncomingData:
    299                               NLDE_Signal_t *sig, uint8 nwkSeqNum, uint8 SecurityUse, uint32 timestamp )
    300          {
   \   000000   74E8         MOV     A,#-0x18
   \   000002   12....       LCALL   ?BANKED_ENTER_XDATA
   \   000005                ; Saved register size: 24
   \   000005                ; Auto size: 3
   \   000005   74FD         MOV     A,#-0x3
   \   000007   12....       LCALL   ?ALLOC_XSTACK8
   \   00000A   7401         MOV     A,#0x1
   \   00000C   12....       LCALL   ?XSTACK_DISP0_8
   \   00000F   EC           MOV     A,R4
   \   000010   F0           MOVX    @DPTR,A
   \   000011   A3           INC     DPTR
   \   000012   ED           MOV     A,R5
   \   000013   F0           MOVX    @DPTR,A
   \   000014   E9           MOV     A,R1
   \   000015   85..82       MOV     DPL,?XSP + 0
   \   000018   85..83       MOV     DPH,?XSP + 1
   \   00001B   F0           MOVX    @DPTR,A
   \   00001C   8A..         MOV     ?V0 + 8,R2
   \   00001E   8B..         MOV     ?V0 + 9,R3
    301            endPointDesc_t *epDesc = NULL;
    302            epList_t *pList = epList;
   \   000020   90....       MOV     DPTR,#epList
   \   000023   12....       LCALL   ?Subroutine13 & 0xFFFF
    303          #if !defined ( APS_NO_GROUPS )
    304            uint8 grpEp = APS_GROUPS_EP_NOT_FOUND;
   \                     ??CrossCallReturnLabel_13:
   \   000026   75..FE       MOV     ?V0 + 2,#-0x2
   \   000029   8A82         MOV     DPL,R2
   \   00002B   8B83         MOV     DPH,R3
   \   00002D   E0           MOVX    A,@DPTR
   \   00002E   540C         ANL     A,#0xc
   \   000030   640C         XRL     A,#0xc
   \   000032   7026         JNZ     ??afIncomingData_0
    305          #endif
    306          
    307            if ( ((aff->FrmCtrl & APS_DELIVERYMODE_MASK) == APS_FC_DM_GROUP) )
    308            {
    309          #if !defined ( APS_NO_GROUPS )
    310              // Find the first endpoint for this group
    311              grpEp = aps_FindGroupForEndpoint( aff->GroupID, APS_GROUPS_FIND_FIRST );
   \   000034                ; Setup parameters for call to function aps_FindGroupForEndpoint
   \   000034   79FE         MOV     R1,#-0x2
   \   000036   12....       LCALL   ?Subroutine18 & 0xFFFF
   \                     ??CrossCallReturnLabel_72:
   \   000039   12....       LCALL   ??aps_FindGroupForEndpoint?relay
   \   00003C   E9           MOV     A,R1
   \   00003D   F5..         MOV     ?V0 + 2,A
    312              if ( grpEp == APS_GROUPS_EP_NOT_FOUND )
   \   00003F   74FE         MOV     A,#-0x2
   \   000041   65..         XRL     A,?V0 + 2
   \   000043   7003         JNZ     $+5
   \   000045   02....       LJMP    ??afIncomingData_1 & 0xFFFF
    313                return;   // No endpoint found
    314          
    315              epDesc = afFindEndPointDesc( grpEp );
   \   000048                ; Setup parameters for call to function afFindEndPointDesc
   \   000048   12....       LCALL   ??afFindEndPointDesc?relay
   \   00004B   8A..         MOV     ?V0 + 0,R2
   \   00004D   8B..         MOV     ?V0 + 1,R3
   \   00004F   AE..         MOV     R6,?V0 + 0
   \   000051   AF..         MOV     R7,?V0 + 1
    316              if ( epDesc == NULL )
   \   000053   EE           MOV     A,R6
   \   000054   4F           ORL     A,R7
   \   000055   705D         JNZ     ??afIncomingData_2
   \   000057   02....       LJMP    ??afIncomingData_1 & 0xFFFF
    317                return;   // Endpoint descriptor not found
    318          
    319              pList = afFindEndPointDescList( epDesc->endPoint );
    320          #else
    321              return; // Not supported
    322          #endif
    323            }
    324            else if ( aff->DstEndPoint == AF_BROADCAST_ENDPOINT )
   \                     ??afIncomingData_0:
   \   00005A   A3           INC     DPTR
   \   00005B   A3           INC     DPTR
   \   00005C   E0           MOVX    A,@DPTR
   \   00005D   F9           MOV     R1,A
   \   00005E   74FF         MOV     A,#-0x1
   \   000060   69           XRL     A,R1
   \   000061   703E         JNZ     ??afIncomingData_3
    325            {
    326              // Set the list
    327              if ( pList != NULL )
   \   000063   E5..         MOV     A,?V0 + 0
   \   000065   45..         ORL     A,?V0 + 1
   \   000067   7003         JNZ     $+5
   \   000069   02....       LJMP    ??afIncomingData_1 & 0xFFFF
    328              {
    329                epDesc = pList->epDesc;
   \   00006C   85..82       MOV     DPL,?V0 + 0
   \   00006F   85..83       MOV     DPH,?V0 + 1
   \   000072   A3           INC     DPTR
   \   000073   A3           INC     DPTR
   \   000074   E0           MOVX    A,@DPTR
   \   000075   FE           MOV     R6,A
   \   000076   A3           INC     DPTR
   \   000077   E0           MOVX    A,@DPTR
   \   000078   FF           MOV     R7,A
   \                     ??afIncomingData_4:
   \   000079   741B         MOV     A,#0x1b
   \   00007B   12....       LCALL   ?XSTACK_DISP0_8
   \   00007E   E0           MOVX    A,@DPTR
   \   00007F   F5..         MOV     ?V0 + 14,A
   \   000081   A3           INC     DPTR
   \   000082   E0           MOVX    A,@DPTR
   \   000083   F5..         MOV     ?V0 + 15,A
   \   000085   741D         MOV     A,#0x1d
   \   000087   12....       LCALL   ?XSTACK_DISP0_8
    330              }
    331            }
   \   00008A   12....       LCALL   ??Subroutine32_0 & 0xFFFF
   \                     ??CrossCallReturnLabel_52:
   \   00008D   741D         MOV     A,#0x1d
   \   00008F   12....       LCALL   ?XSTACK_DISP0_8
   \   000092   12....       LCALL   ??Subroutine31_0 & 0xFFFF
   \                     ??CrossCallReturnLabel_41:
   \   000095   7420         MOV     A,#0x20
   \   000097   12....       LCALL   ?XSTACK_DISP0_8
   \   00009A   78..         MOV     R0,#?V0 + 4
   \   00009C   12....       LCALL   ?L_MOV_X
   \   00009F   802F         SJMP    ??afIncomingData_5
    332            else if ( (epDesc = afFindEndPointDesc( aff->DstEndPoint )) )
   \                     ??afIncomingData_3:
   \   0000A1                ; Setup parameters for call to function afFindEndPointDesc
   \   0000A1   12....       LCALL   ??afFindEndPointDesc?relay
   \   0000A4   8A..         MOV     ?V0 + 4,R2
   \   0000A6   8B..         MOV     ?V0 + 5,R3
   \   0000A8   A8..         MOV     R0,?V0 + 4
   \   0000AA   A9..         MOV     R1,?V0 + 5
   \   0000AC   E8           MOV     A,R0
   \   0000AD   FE           MOV     R6,A
   \   0000AE   E9           MOV     A,R1
   \   0000AF   FF           MOV     R7,A
   \   0000B0   E8           MOV     A,R0
   \   0000B1   49           ORL     A,R1
   \   0000B2   60C5         JZ      ??afIncomingData_4
    333            {
    334              pList = afFindEndPointDescList( epDesc->endPoint );
   \                     ??afIncomingData_2:
   \   0000B4                ; Setup parameters for call to function afFindEndPointDescList
   \   0000B4   8E82         MOV     DPL,R6
   \   0000B6   8F83         MOV     DPH,R7
   \   0000B8   E0           MOVX    A,@DPTR
   \   0000B9   F9           MOV     R1,A
   \   0000BA   12....       LCALL   ??afFindEndPointDescList?relay
   \   0000BD   8A..         MOV     ?V0 + 0,R2
   \   0000BF   8B..         MOV     ?V0 + 1,R3
   \   0000C1   80B6         SJMP    ??afIncomingData_4
    335            }
    336          
    337            while ( epDesc )
    338            {
    339              uint16 epProfileID = 0xFFFF;  // Invalid Profile ID
    340          
    341              if ( pList->pfnDescCB )
    342              {
    343                uint16 *pID = (uint16 *)(pList->pfnDescCB(
    344                                           AF_DESCRIPTOR_PROFILE_ID, epDesc->endPoint ));
    345                if ( pID )
    346                {
    347                  epProfileID = *pID;
    348                  osal_mem_free( pID );
    349                }
    350              }
    351              else if ( epDesc->simpleDesc )
    352              {
    353                epProfileID = epDesc->simpleDesc->AppProfId;
    354              }
    355          
    356              if ( (aff->ProfileID == epProfileID) ||
    357                   ((epDesc->endPoint == ZDO_EP) && (aff->ProfileID == ZDO_PROFILE_ID)) )
    358              {
    359                {
    360                  // Save original endpoint
    361                  uint8 endpoint = aff->DstEndPoint;
    362          
    363                  // overwrite with descriptor's endpoint
    364                  aff->DstEndPoint = epDesc->endPoint;
    365          
    366                  afBuildMSGIncoming( aff, epDesc, SrcAddress, SrcPanId, sig,
    367                                     nwkSeqNum, SecurityUse, timestamp );
    368          
    369                  // Restore with original endpoint
    370                  aff->DstEndPoint = endpoint;
    371                }
    372              }
    373          
    374              if ( ((aff->FrmCtrl & APS_DELIVERYMODE_MASK) == APS_FC_DM_GROUP) )
    375              {
    376          #if !defined ( APS_NO_GROUPS )
    377                // Find the next endpoint for this group
    378                grpEp = aps_FindGroupForEndpoint( aff->GroupID, grpEp );
    379                if ( grpEp == APS_GROUPS_EP_NOT_FOUND )
    380                  return;   // No endpoint found
    381          
    382                epDesc = afFindEndPointDesc( grpEp );
    383                if ( epDesc == NULL )
    384                  return;   // Endpoint descriptor not found
    385          
    386                pList = afFindEndPointDescList( epDesc->endPoint );
    387          #else
    388                return;
    389          #endif
    390              }
    391              else if ( aff->DstEndPoint == AF_BROADCAST_ENDPOINT )
    392              {
    393                pList = pList->nextDesc;
    394                if ( pList )
    395                  epDesc = pList->epDesc;
   \                     ??afIncomingData_6:
   \   0000C3   85..82       MOV     DPL,?V0 + 0
   \   0000C6   85..83       MOV     DPH,?V0 + 1
   \   0000C9   A3           INC     DPTR
   \   0000CA   A3           INC     DPTR
   \   0000CB   E0           MOVX    A,@DPTR
   \   0000CC   FE           MOV     R6,A
   \   0000CD   A3           INC     DPTR
   \   0000CE   E0           MOVX    A,@DPTR
   \   0000CF   FF           MOV     R7,A
   \                     ??afIncomingData_5:
   \   0000D0   EE           MOV     A,R6
   \   0000D1   4F           ORL     A,R7
   \   0000D2   7003         JNZ     $+5
   \   0000D4   02....       LJMP    ??afIncomingData_1 & 0xFFFF
   \   0000D7   8033         SJMP    ??afIncomingData_7
   \                     ??afIncomingData_8:
   \   0000D9                ; Setup parameters for call to function aps_FindGroupForEndpoint
   \   0000D9   A9..         MOV     R1,?V0 + 2
   \   0000DB   12....       LCALL   ?Subroutine18 & 0xFFFF
   \                     ??CrossCallReturnLabel_73:
   \   0000DE   12....       LCALL   ??aps_FindGroupForEndpoint?relay
   \   0000E1   E9           MOV     A,R1
   \   0000E2   F5..         MOV     ?V0 + 2,A
   \   0000E4   74FE         MOV     A,#-0x2
   \   0000E6   65..         XRL     A,?V0 + 2
   \   0000E8   7003         JNZ     $+5
   \   0000EA   02....       LJMP    ??afIncomingData_1 & 0xFFFF
   \   0000ED                ; Setup parameters for call to function afFindEndPointDesc
   \   0000ED   12....       LCALL   ??afFindEndPointDesc?relay
   \   0000F0   8A..         MOV     ?V0 + 0,R2
   \   0000F2   8B..         MOV     ?V0 + 1,R3
   \   0000F4   AE..         MOV     R6,?V0 + 0
   \   0000F6   AF..         MOV     R7,?V0 + 1
   \   0000F8   EE           MOV     A,R6
   \   0000F9   4F           ORL     A,R7
   \   0000FA   7003         JNZ     $+5
   \   0000FC   02....       LJMP    ??afIncomingData_1 & 0xFFFF
   \   0000FF                ; Setup parameters for call to function afFindEndPointDescList
   \   0000FF   8E82         MOV     DPL,R6
   \   000101   8F83         MOV     DPH,R7
   \   000103   E0           MOVX    A,@DPTR
   \   000104   F9           MOV     R1,A
   \   000105   12....       LCALL   ??afFindEndPointDescList?relay
   \   000108   8A..         MOV     ?V0 + 0,R2
   \   00010A   8B..         MOV     ?V0 + 1,R3
   \                     ??afIncomingData_7:
   \   00010C   75..FF       MOV     ?V0 + 10,#-0x1
   \   00010F   75..FF       MOV     ?V0 + 11,#-0x1
   \   000112   85..82       MOV     DPL,?V0 + 0
   \   000115   85..83       MOV     DPH,?V0 + 1
   \   000118   12....       LCALL   ?Subroutine11 & 0xFFFF
   \                     ??CrossCallReturnLabel_10:
   \   00011B   8E82         MOV     DPL,R6
   \   00011D   8F83         MOV     DPH,R7
   \   00011F   6016         JZ      ??afIncomingData_9
   \   000121                ; Setup parameters for indirect call
   \   000121   12....       LCALL   ?Subroutine19 & 0xFFFF
   \                     ??CrossCallReturnLabel_22:
   \   000124   12....       LCALL   ?CALL_IND
   \   000127   EA           MOV     A,R2
   \   000128   4B           ORL     A,R3
   \   000129   6015         JZ      ??CrossCallReturnLabel_1
   \   00012B   8A82         MOV     DPL,R2
   \   00012D   8B83         MOV     DPH,R3
   \   00012F   12....       LCALL   ?Subroutine6 & 0xFFFF
   \                     ??CrossCallReturnLabel_0:
   \   000132                ; Setup parameters for call to function osal_mem_free
   \   000132   12....       LCALL   ??osal_mem_free?relay
   \   000135   8009         SJMP    ??CrossCallReturnLabel_1
   \                     ??afIncomingData_9:
   \   000137   12....       LCALL   ?Subroutine7 & 0xFFFF
   \                     ??CrossCallReturnLabel_4:
   \   00013A   6004         JZ      ??CrossCallReturnLabel_1
   \   00013C   A3           INC     DPTR
   \   00013D   12....       LCALL   ?Subroutine6 & 0xFFFF
   \                     ??CrossCallReturnLabel_1:
   \   000140   85..82       MOV     DPL,?V0 + 8
   \   000143   85..83       MOV     DPH,?V0 + 9
   \   000146   A3           INC     DPTR
   \   000147   A3           INC     DPTR
   \   000148   A3           INC     DPTR
   \   000149   A3           INC     DPTR
   \   00014A   A3           INC     DPTR
   \   00014B   A3           INC     DPTR
   \   00014C   A3           INC     DPTR
   \   00014D   A3           INC     DPTR
   \   00014E   12....       LCALL   ?Subroutine14 & 0xFFFF
   \                     ??CrossCallReturnLabel_16:
   \   000151   E0           MOVX    A,@DPTR
   \   000152   FA           MOV     R2,A
   \   000153   E5..         MOV     A,?V0 + 10
   \   000155   68           XRL     A,R0
   \   000156   7003         JNZ     ??afIncomingData_10
   \   000158   E5..         MOV     A,?V0 + 11
   \   00015A   69           XRL     A,R1
   \                     ??afIncomingData_10:
   \   00015B   6007         JZ      ??afIncomingData_11
   \   00015D   EA           MOV     A,R2
   \   00015E   7062         JNZ     ??afIncomingData_12
   \   000160   E8           MOV     A,R0
   \   000161   49           ORL     A,R1
   \   000162   705E         JNZ     ??afIncomingData_12
   \                     ??afIncomingData_11:
   \   000164   85..82       MOV     DPL,?V0 + 8
   \   000167   85..83       MOV     DPH,?V0 + 9
   \   00016A   A3           INC     DPTR
   \   00016B   A3           INC     DPTR
   \   00016C   E0           MOVX    A,@DPTR
   \   00016D   F5..         MOV     ?V0 + 3,A
   \   00016F   EA           MOV     A,R2
   \   000170   85..82       MOV     DPL,?V0 + 8
   \   000173   85..83       MOV     DPH,?V0 + 9
   \   000176   A3           INC     DPTR
   \   000177   A3           INC     DPTR
   \   000178   F0           MOVX    @DPTR,A
   \   000179                ; Setup parameters for call to function afBuildMSGIncoming
   \   000179   78..         MOV     R0,#?V0 + 4
   \   00017B   12....       LCALL   ?PUSH_XSTACK_I_FOUR
   \   00017E   7423         MOV     A,#0x23
   \   000180   12....       LCALL   ?XSTACK_DISP0_8
   \   000183   E0           MOVX    A,@DPTR
   \   000184   F5..         MOV     ?V0 + 10,A
   \   000186   78..         MOV     R0,#?V0 + 10
   \   000188   12....       LCALL   ?PUSH_XSTACK_I_ONE
   \   00018B   7422         MOV     A,#0x22
   \   00018D   12....       LCALL   ?XSTACK_DISP0_8
   \   000190   12....       LCALL   ?PUSH_XSTACK8_X_TWO
   \   000193   78..         MOV     R0,#?V0 + 14
   \   000195   12....       LCALL   ?PUSH_XSTACK_I_TWO
   \   000198   740A         MOV     A,#0xa
   \   00019A   12....       LCALL   ?XSTACK_DISP0_8
   \   00019D   12....       LCALL   ?PUSH_XSTACK8_X_TWO
   \   0001A0   740B         MOV     A,#0xb
   \   0001A2   12....       LCALL   ?XSTACK_DISP0_8
   \   0001A5   E0           MOVX    A,@DPTR
   \   0001A6   F9           MOV     R1,A
   \   0001A7   EE           MOV     A,R6
   \   0001A8   FC           MOV     R4,A
   \   0001A9   EF           MOV     A,R7
   \   0001AA   FD           MOV     R5,A
   \   0001AB   AA..         MOV     R2,?V0 + 8
   \   0001AD   AB..         MOV     R3,?V0 + 9
   \   0001AF   12....       LCALL   ??afBuildMSGIncoming?relay
   \   0001B2   740B         MOV     A,#0xb
   \   0001B4   12....       LCALL   ?DEALLOC_XSTACK8
   \   0001B7   85..82       MOV     DPL,?V0 + 8
   \   0001BA   85..83       MOV     DPH,?V0 + 9
   \   0001BD   A3           INC     DPTR
   \   0001BE   A3           INC     DPTR
   \   0001BF   E5..         MOV     A,?V0 + 3
   \   0001C1   F0           MOVX    @DPTR,A
   \                     ??afIncomingData_12:
   \   0001C2   85..82       MOV     DPL,?V0 + 8
   \   0001C5   85..83       MOV     DPH,?V0 + 9
   \   0001C8   E0           MOVX    A,@DPTR
   \   0001C9   540C         ANL     A,#0xc
   \   0001CB   640C         XRL     A,#0xc
   \   0001CD   7003         JNZ     $+5
   \   0001CF   02....       LJMP    ??afIncomingData_8 & 0xFFFF
   \   0001D2   A3           INC     DPTR
   \   0001D3   A3           INC     DPTR
   \   0001D4   E0           MOVX    A,@DPTR
   \   0001D5   F4           CPL     A
   \   0001D6   7012         JNZ     ??afIncomingData_1
   \   0001D8   85..82       MOV     DPL,?V0 + 0
   \   0001DB   85..83       MOV     DPH,?V0 + 1
   \   0001DE   12....       LCALL   ?Subroutine13 & 0xFFFF
   \                     ??CrossCallReturnLabel_14:
   \   0001E1   E5..         MOV     A,?V0 + 0
   \   0001E3   45..         ORL     A,?V0 + 1
   \   0001E5   6003         JZ      $+5
   \   0001E7   02....       LJMP    ??afIncomingData_6 & 0xFFFF
    396                else
    397                  epDesc = NULL;
    398              }
    399              else
    400                epDesc = NULL;
   \                     ??afIncomingData_1:
   \   0001EA   7403         MOV     A,#0x3
   \   0001EC   12....       LCALL   ?DEALLOC_XSTACK8
   \   0001EF                REQUIRE ?Subroutine3
   \   0001EF                ; // Fall through to label ?Subroutine3
    401            }
    402          }

   \                                 In  segment BANKED_CODE, align 1, keep-with-next
   \                     ?Subroutine3:
   \   000000   7F10         MOV     R7,#0x10
   \   000002   02....       LJMP    ?BANKED_LEAVE_XDATA

   \                                 In  segment BANKED_CODE, align 1, keep-with-next
   \                     ?Subroutine6:
   \   000000   E0           MOVX    A,@DPTR
   \   000001   F5..         MOV     ?V0 + 10,A
   \   000003   A3           INC     DPTR
   \   000004   E0           MOVX    A,@DPTR
   \   000005   F5..         MOV     ?V0 + 11,A
   \   000007   22           RET

   \                                 In  segment BANKED_CODE, align 1, keep-with-next
   \                     ?Subroutine19:
   \   000000   E0           MOVX    A,@DPTR
   \   000001   FA           MOV     R2,A
   \   000002   7902         MOV     R1,#0x2
   \   000004   8C82         MOV     DPL,R4
   \   000006   8D83         MOV     DPH,R5
   \   000008   22           RET

   \                                 In  segment BANKED_CODE, align 1, keep-with-next
   \                     ?Subroutine13:
   \   000000   E0           MOVX    A,@DPTR
   \   000001   F5..         MOV     ?V0 + 0,A
   \   000003   A3           INC     DPTR
   \   000004   E0           MOVX    A,@DPTR
   \   000005   F5..         MOV     ?V0 + 1,A
   \   000007   22           RET

   \                                 In  segment BANKED_CODE, align 1, keep-with-next
   \                     ?Subroutine11:
   \   000000   A3           INC     DPTR
   \   000001   A3           INC     DPTR
   \   000002   A3           INC     DPTR
   \   000003   A3           INC     DPTR
   \   000004   12....       LCALL   ?Subroutine30 & 0xFFFF
   \                     ??CrossCallReturnLabel_59:
   \   000007   E8           MOV     A,R0
   \   000008   FC           MOV     R4,A
   \   000009   E9           MOV     A,R1
   \   00000A   FD           MOV     R5,A
   \   00000B   EC           MOV     A,R4
   \   00000C   4D           ORL     A,R5
   \   00000D   22           RET

   \                                 In  segment BANKED_CODE, align 1, keep-with-next
   \                     ?Subroutine7:
   \   000000   A3           INC     DPTR
   \   000001   A3           INC     DPTR
   \   000002   A3           INC     DPTR
   \   000003   12....       LCALL   ?Subroutine28 & 0xFFFF
   \                     ??CrossCallReturnLabel_39:
   \   000006   E582         MOV     A,DPL
   \   000008   4583         ORL     A,DPH
   \   00000A   22           RET

   \                                 In  segment BANKED_CODE, align 1, keep-with-next
   \                     ?Subroutine18:
   \   000000   A3           INC     DPTR
   \   000001                REQUIRE ??Subroutine33_0
   \   000001                ; // Fall through to label ??Subroutine33_0

   \                                 In  segment BANKED_CODE, align 1, keep-with-next
   \                     ??Subroutine33_0:
   \   000000   A3           INC     DPTR
   \   000001                REQUIRE ??Subroutine34_0
   \   000001                ; // Fall through to label ??Subroutine34_0

   \                                 In  segment BANKED_CODE, align 1, keep-with-next
   \                     ??Subroutine34_0:
   \   000000   A3           INC     DPTR
   \   000001   A3           INC     DPTR
   \   000002                REQUIRE ??Subroutine35_0
   \   000002                ; // Fall through to label ??Subroutine35_0

   \                                 In  segment BANKED_CODE, align 1, keep-with-next
   \                     ?Subroutine28:
   \   000000   12....       LCALL   ?Subroutine30 & 0xFFFF
   \                     ??CrossCallReturnLabel_61:
   \   000003   8882         MOV     DPL,R0
   \   000005   8983         MOV     DPH,R1
   \   000007   22           RET

   \                                 In  segment BANKED_CODE, align 1, keep-with-next
   \                     ?Subroutine14:
   \   000000   12....       LCALL   ?Subroutine27 & 0xFFFF
   \                     ??CrossCallReturnLabel_37:
   \   000003   22           RET

   \                                 In  segment BANKED_CODE, align 1, keep-with-next
   \                     ?Subroutine27:
   \   000000   12....       LCALL   ?Subroutine30 & 0xFFFF
   \                     ??CrossCallReturnLabel_60:
   \   000003   8E82         MOV     DPL,R6
   \   000005   8F83         MOV     DPH,R7
   \   000007   22           RET
    403          
    404          /*********************************************************************
    405           * @fn          afBuildMSGIncoming
    406           *
    407           * @brief       Build the message for the app
    408           *
    409           * @param
    410           *
    411           * @return      pointer to next in data buffer
    412           */

   \                                 In  segment BANKED_CODE, align 1, keep-with-next
    413          static void afBuildMSGIncoming( aps_FrameFormat_t *aff, endPointDesc_t *epDesc,
   \                     afBuildMSGIncoming:
    414                           zAddrType_t *SrcAddress, uint16 SrcPanId, NLDE_Signal_t *sig,
    415                           uint8 nwkSeqNum, uint8 SecurityUse, uint32 timestamp )
    416          {
   \   000000   74E8         MOV     A,#-0x18
   \   000002   12....       LCALL   ?BANKED_ENTER_XDATA
   \   000005                ; Saved register size: 24
   \   000005                ; Auto size: 0
   \   000005   8A..         MOV     ?V0 + 0,R2
   \   000007   8B..         MOV     ?V0 + 1,R3
   \   000009   8C..         MOV     ?V0 + 8,R4
   \   00000B   8D..         MOV     ?V0 + 9,R5
   \   00000D   89..         MOV     ?V0 + 15,R1
   \   00000F   741E         MOV     A,#0x1e
   \   000011   12....       LCALL   ?XSTACK_DISP0_8
   \   000014   E0           MOVX    A,@DPTR
   \   000015   F5..         MOV     ?V0 + 14,A
   \   000017   741F         MOV     A,#0x1f
   \   000019   12....       LCALL   ?XSTACK_DISP0_8
   \   00001C   78..         MOV     R0,#?V0 + 4
   \   00001E   12....       LCALL   ?L_MOV_X
    417            afIncomingMSGPacket_t *MSGpkt;
    418            const uint8 len = sizeof( afIncomingMSGPacket_t ) + aff->asduLength;
    419            uint8 *asdu = aff->asdu;
   \   000021   EA           MOV     A,R2
   \   000022   240E         ADD     A,#0xe
   \   000024   F582         MOV     DPL,A
   \   000026   EB           MOV     A,R3
   \   000027   12....       LCALL   ??Subroutine37_0 & 0xFFFF
   \                     ??CrossCallReturnLabel_80:
   \   00002A   12....       LCALL   ?Subroutine6 & 0xFFFF
    420            MSGpkt = (afIncomingMSGPacket_t *)osal_msg_allocate( len );
   \                     ??CrossCallReturnLabel_2:
   \   00002D   EA           MOV     A,R2
   \   00002E   2410         ADD     A,#0x10
   \   000030   F5..         MOV     ?V0 + 2,A
   \   000032   EB           MOV     A,R3
   \   000033   3400         ADDC    A,#0x0
   \   000035   F5..         MOV     ?V0 + 3,A
   \   000037                ; Setup parameters for call to function osal_msg_allocate
   \   000037   85..82       MOV     DPL,?V0 + 2
   \   00003A   F583         MOV     DPH,A
   \   00003C   E0           MOVX    A,@DPTR
   \   00003D   2424         ADD     A,#0x24
   \   00003F   FA           MOV     R2,A
   \   000040   7B00         MOV     R3,#0x0
   \   000042   12....       LCALL   ??osal_msg_allocate?relay
   \   000045   8A..         MOV     ?V0 + 12,R2
   \   000047   8B..         MOV     ?V0 + 13,R3
   \   000049   AE..         MOV     R6,?V0 + 12
   \   00004B   AF..         MOV     R7,?V0 + 13
    421          
    422            if ( MSGpkt == NULL )
   \   00004D   EE           MOV     A,R6
   \   00004E   4F           ORL     A,R7
   \   00004F   7003         JNZ     $+5
   \   000051   02....       LJMP    ??afBuildMSGIncoming_0 & 0xFFFF
    423            {
    424              return;
    425            }
    426          
    427            MSGpkt->hdr.event = AF_INCOMING_MSG_CMD;
   \   000054   8E82         MOV     DPL,R6
   \   000056   8F83         MOV     DPH,R7
   \   000058   741A         MOV     A,#0x1a
   \   00005A   12....       LCALL   ?Subroutine22 & 0xFFFF
    428            MSGpkt->groupId = aff->GroupID;
   \                     ??CrossCallReturnLabel_26:
   \   00005D   12....       LCALL   ?Subroutine12 & 0xFFFF
   \                     ??CrossCallReturnLabel_11:
   \   000060   12....       LCALL   ??Subroutine31_0 & 0xFFFF
    429            MSGpkt->clusterId = aff->ClusterID;
   \                     ??CrossCallReturnLabel_42:
   \   000063   85..82       MOV     DPL,?V0 + 0
   \   000066   85..83       MOV     DPH,?V0 + 1
   \   000069   A3           INC     DPTR
   \   00006A   A3           INC     DPTR
   \   00006B   12....       LCALL   ?Subroutine12 & 0xFFFF
   \                     ??CrossCallReturnLabel_12:
   \   00006E   A3           INC     DPTR
   \   00006F   A3           INC     DPTR
   \   000070   12....       LCALL   ??Subroutine31_0 & 0xFFFF
    430            afCopyAddress( &MSGpkt->srcAddr, SrcAddress );
   \                     ??CrossCallReturnLabel_43:
   \   000073                ; Setup parameters for call to function afCopyAddress
   \   000073   7418         MOV     A,#0x18
   \   000075   12....       LCALL   ?XSTACK_DISP0_8
   \   000078   12....       LCALL   ??Subroutine38_0 & 0xFFFF
   \                     ??CrossCallReturnLabel_93:
   \   00007B   EE           MOV     A,R6
   \   00007C   2406         ADD     A,#0x6
   \   00007E   FA           MOV     R2,A
   \   00007F   EF           MOV     A,R7
   \   000080   3400         ADDC    A,#0x0
   \   000082   FB           MOV     R3,A
   \   000083   12....       LCALL   ??afCopyAddress?relay
    431            MSGpkt->srcAddr.endPoint = aff->SrcEndPoint;
   \   000086   85..82       MOV     DPL,?V0 + 0
   \   000089   85..83       MOV     DPH,?V0 + 1
   \   00008C   A3           INC     DPTR
   \   00008D   A3           INC     DPTR
   \   00008E   A3           INC     DPTR
   \   00008F   E0           MOVX    A,@DPTR
   \   000090   C0E0         PUSH    A
   \   000092   EE           MOV     A,R6
   \   000093   240F         ADD     A,#0xf
   \   000095   12....       LCALL   ?Subroutine25 & 0xFFFF
   \                     ??CrossCallReturnLabel_83:
   \   000098   D0E0         POP     A
   \   00009A   F0           MOVX    @DPTR,A
    432            MSGpkt->endPoint = epDesc->endPoint;
   \   00009B   85..82       MOV     DPL,?V0 + 8
   \   00009E   85..83       MOV     DPH,?V0 + 9
   \   0000A1   E0           MOVX    A,@DPTR
   \   0000A2   C0E0         PUSH    A
   \   0000A4   EE           MOV     A,R6
   \   0000A5   2414         ADD     A,#0x14
   \   0000A7   12....       LCALL   ?Subroutine25 & 0xFFFF
   \                     ??CrossCallReturnLabel_84:
   \   0000AA   D0E0         POP     A
   \   0000AC   F0           MOVX    @DPTR,A
    433            MSGpkt->wasBroadcast = aff->wasBroadcast;
   \   0000AD   E5..         MOV     A,?V0 + 0
   \   0000AF   240C         ADD     A,#0xc
   \   0000B1   F582         MOV     DPL,A
   \   0000B3   E5..         MOV     A,?V0 + 1
   \   0000B5   12....       LCALL   ??Subroutine37_0 & 0xFFFF
   \                     ??CrossCallReturnLabel_81:
   \   0000B8   E0           MOVX    A,@DPTR
   \   0000B9   C0E0         PUSH    A
   \   0000BB   EE           MOV     A,R6
   \   0000BC   2415         ADD     A,#0x15
   \   0000BE   12....       LCALL   ?Subroutine25 & 0xFFFF
   \                     ??CrossCallReturnLabel_85:
   \   0000C1   D0E0         POP     A
   \   0000C3   F0           MOVX    @DPTR,A
   \   0000C4   741C         MOV     A,#0x1c
   \   0000C6   12....       LCALL   ?XSTACK_DISP0_8
   \   0000C9   12....       LCALL   ?Subroutine15 & 0xFFFF
    434            MSGpkt->LinkQuality = sig->LinkQuality;
   \                     ??CrossCallReturnLabel_18:
   \   0000CC   E0           MOVX    A,@DPTR
   \   0000CD   C0E0         PUSH    A
   \   0000CF   EE           MOV     A,R6
   \   0000D0   2416         ADD     A,#0x16
   \   0000D2   12....       LCALL   ?Subroutine25 & 0xFFFF
   \                     ??CrossCallReturnLabel_86:
   \   0000D5   D0E0         POP     A
   \   0000D7   F0           MOVX    @DPTR,A
    435            MSGpkt->correlation = sig->correlation;
   \   0000D8   8882         MOV     DPL,R0
   \   0000DA   8983         MOV     DPH,R1
   \   0000DC   A3           INC     DPTR
   \   0000DD   E0           MOVX    A,@DPTR
   \   0000DE   C0E0         PUSH    A
   \   0000E0   EE           MOV     A,R6
   \   0000E1   2417         ADD     A,#0x17
   \   0000E3   12....       LCALL   ?Subroutine25 & 0xFFFF
   \                     ??CrossCallReturnLabel_87:
   \   0000E6   D0E0         POP     A
   \   0000E8   F0           MOVX    @DPTR,A
    436            MSGpkt->rssi = sig->rssi;
   \   0000E9   8882         MOV     DPL,R0
   \   0000EB   8983         MOV     DPH,R1
   \   0000ED   A3           INC     DPTR
   \   0000EE   A3           INC     DPTR
   \   0000EF   E0           MOVX    A,@DPTR
   \   0000F0   C0E0         PUSH    A
   \   0000F2   EE           MOV     A,R6
   \   0000F3   2418         ADD     A,#0x18
   \   0000F5   12....       LCALL   ?Subroutine25 & 0xFFFF
   \                     ??CrossCallReturnLabel_88:
   \   0000F8   D0E0         POP     A
   \   0000FA   F0           MOVX    @DPTR,A
    437            MSGpkt->SecurityUse = SecurityUse;
   \   0000FB   EE           MOV     A,R6
   \   0000FC   2419         ADD     A,#0x19
   \   0000FE   12....       LCALL   ?Subroutine25 & 0xFFFF
   \                     ??CrossCallReturnLabel_89:
   \   000101   E5..         MOV     A,?V0 + 14
   \   000103   F0           MOVX    @DPTR,A
    438            MSGpkt->timestamp = timestamp;
   \   000104   EE           MOV     A,R6
   \   000105   241A         ADD     A,#0x1a
   \   000107   12....       LCALL   ?Subroutine25 & 0xFFFF
   \                     ??CrossCallReturnLabel_90:
   \   00010A   78..         MOV     R0,#?V0 + 4
   \   00010C   12....       LCALL   ?L_MOV_TO_X
    439            MSGpkt->nwkSeqNum = nwkSeqNum;
   \   00010F   EE           MOV     A,R6
   \   000110   241E         ADD     A,#0x1e
   \   000112   12....       LCALL   ?Subroutine25 & 0xFFFF
   \                     ??CrossCallReturnLabel_91:
   \   000115   E5..         MOV     A,?V0 + 15
   \   000117   12....       LCALL   ?Subroutine22 & 0xFFFF
    440            MSGpkt->macDestAddr = aff->macDestAddr;
   \                     ??CrossCallReturnLabel_27:
   \   00011A   A3           INC     DPTR
   \   00011B   A3           INC     DPTR
   \   00011C   A3           INC     DPTR
   \   00011D   A3           INC     DPTR
   \   00011E   A3           INC     DPTR
   \   00011F   A3           INC     DPTR
   \   000120   A3           INC     DPTR
   \   000121   A3           INC     DPTR
   \   000122   A3           INC     DPTR
   \   000123   12....       LCALL   ?Subroutine16 & 0xFFFF
   \                     ??CrossCallReturnLabel_56:
   \   000126   EE           MOV     A,R6
   \   000127   2412         ADD     A,#0x12
   \   000129   12....       LCALL   ?Subroutine20 & 0xFFFF
    441            MSGpkt->srcAddr.panId = SrcPanId;
   \                     ??CrossCallReturnLabel_49:
   \   00012C   741A         MOV     A,#0x1a
   \   00012E   12....       LCALL   ?XSTACK_DISP0_8
   \   000131   12....       LCALL   ??Subroutine32_0 & 0xFFFF
   \                     ??CrossCallReturnLabel_53:
   \   000134   EE           MOV     A,R6
   \   000135   2410         ADD     A,#0x10
   \   000137   12....       LCALL   ?Subroutine20 & 0xFFFF
    442            MSGpkt->cmd.TransSeqNumber = 0;
   \                     ??CrossCallReturnLabel_50:
   \   00013A   EE           MOV     A,R6
   \   00013B   241F         ADD     A,#0x1f
   \   00013D   12....       LCALL   ?Subroutine25 & 0xFFFF
   \                     ??CrossCallReturnLabel_92:
   \   000140   E4           CLR     A
   \   000141   F0           MOVX    @DPTR,A
    443            MSGpkt->cmd.DataLength = aff->asduLength;
   \   000142   85..82       MOV     DPL,?V0 + 2
   \   000145   85..83       MOV     DPH,?V0 + 3
   \   000148   E0           MOVX    A,@DPTR
   \   000149   FC           MOV     R4,A
   \   00014A   EE           MOV     A,R6
   \   00014B   2420         ADD     A,#0x20
   \   00014D   F8           MOV     R0,A
   \   00014E   EF           MOV     A,R7
   \   00014F   3400         ADDC    A,#0x0
   \   000151   F9           MOV     R1,A
   \   000152   E8           MOV     A,R0
   \   000153   FA           MOV     R2,A
   \   000154   E9           MOV     A,R1
   \   000155   FB           MOV     R3,A
   \   000156   8A82         MOV     DPL,R2
   \   000158   8B83         MOV     DPH,R3
   \   00015A   EC           MOV     A,R4
   \   00015B   F0           MOVX    @DPTR,A
   \   00015C   A3           INC     DPTR
   \   00015D   E4           CLR     A
   \   00015E   F0           MOVX    @DPTR,A
    444          
    445            if ( MSGpkt->cmd.DataLength )
   \   00015F   EE           MOV     A,R6
   \   000160   2422         ADD     A,#0x22
   \   000162   F8           MOV     R0,A
   \   000163   EF           MOV     A,R7
   \   000164   3400         ADDC    A,#0x0
   \   000166   F9           MOV     R1,A
   \   000167   88..         MOV     ?V0 + 4,R0
   \   000169   89..         MOV     ?V0 + 5,R1
   \   00016B   EC           MOV     A,R4
   \   00016C   6035         JZ      ??afBuildMSGIncoming_1
    446            {
    447              MSGpkt->cmd.Data = (uint8 *)(MSGpkt + 1);
   \   00016E   EE           MOV     A,R6
   \   00016F   2424         ADD     A,#0x24
   \   000171   F8           MOV     R0,A
   \   000172   EF           MOV     A,R7
   \   000173   3400         ADDC    A,#0x0
   \   000175   F9           MOV     R1,A
   \   000176   85..82       MOV     DPL,?V0 + 4
   \   000179   85..83       MOV     DPH,?V0 + 5
   \   00017C   12....       LCALL   ??Subroutine31_0 & 0xFFFF
    448              osal_memcpy( MSGpkt->cmd.Data, asdu, MSGpkt->cmd.DataLength );
   \                     ??CrossCallReturnLabel_44:
   \   00017F                ; Setup parameters for call to function osal_memcpy
   \   00017F   85....       MOV     ?V0 + 0,?V0 + 10
   \   000182   85....       MOV     ?V0 + 1,?V0 + 11
   \   000185   75..00       MOV     ?V0 + 2,#0x0
   \   000188   78..         MOV     R0,#?V0 + 0
   \   00018A   12....       LCALL   ?PUSH_XSTACK_I_THREE
   \   00018D   12....       LCALL   ?Subroutine8 & 0xFFFF
    449            }
   \                     ??CrossCallReturnLabel_98:
   \   000190   85..82       MOV     DPL,?V0 + 4
   \   000193   85..83       MOV     DPH,?V0 + 5
   \   000196   12....       LCALL   ??Subroutine35_0 & 0xFFFF
   \                     ??CrossCallReturnLabel_64:
   \   000199   12....       LCALL   ??osal_memcpy?relay
   \   00019C   7403         MOV     A,#0x3
   \   00019E   12....       LCALL   ?DEALLOC_XSTACK8
   \   0001A1   8008         SJMP    ??afBuildMSGIncoming_2
    450            else
    451            {
    452              MSGpkt->cmd.Data = NULL;
   \                     ??afBuildMSGIncoming_1:
   \   0001A3   8882         MOV     DPL,R0
   \   0001A5   8983         MOV     DPH,R1
   \   0001A7   E4           CLR     A
   \   0001A8   F0           MOVX    @DPTR,A
   \   0001A9   A3           INC     DPTR
   \   0001AA   F0           MOVX    @DPTR,A
    453            }
    454          
    455          #if defined ( MT_AF_CB_FUNC )
    456            // If ZDO or SAPI have registered for this endpoint, dont intercept it here
    457            if (AFCB_CHECK(CB_ID_AF_DATA_IND, *(epDesc->task_id)))
    458            {
    459              MT_AfIncomingMsg( (void *)MSGpkt );
    460              // Release the memory.
    461              osal_msg_deallocate( (void *)MSGpkt );
    462            }
    463            else
    464          #endif
    465            {
    466              // Send message through task message.
    467              osal_msg_send( *(epDesc->task_id), (uint8 *)MSGpkt );
   \                     ??afBuildMSGIncoming_2:
   \   0001AB                ; Setup parameters for call to function osal_msg_send
   \   0001AB   EE           MOV     A,R6
   \   0001AC   FA           MOV     R2,A
   \   0001AD   EF           MOV     A,R7
   \   0001AE   FB           MOV     R3,A
   \   0001AF   85..82       MOV     DPL,?V0 + 8
   \   0001B2   85..83       MOV     DPH,?V0 + 9
   \   0001B5   12....       LCALL   ??Subroutine36_0 & 0xFFFF
    468            }
   \                     ??CrossCallReturnLabel_75:
   \   0001B8   F9           MOV     R1,A
   \   0001B9   12....       LCALL   ??osal_msg_send?relay
    469          }
   \                     ??afBuildMSGIncoming_0:
   \   0001BC   02....       LJMP    ?Subroutine3 & 0xFFFF

   \                                 In  segment BANKED_CODE, align 1, keep-with-next
   \                     ?Subroutine20:
   \   000000   F582         MOV     DPL,A
   \   000002   EF           MOV     A,R7
   \   000003   3400         ADDC    A,#0x0
   \   000005   F583         MOV     DPH,A
   \   000007                REQUIRE ??Subroutine31_0
   \   000007                ; // Fall through to label ??Subroutine31_0

   \                                 In  segment BANKED_CODE, align 1, keep-with-next
   \                     ?Subroutine16:
   \   000000   A3           INC     DPTR
   \   000001                REQUIRE ??Subroutine32_0
   \   000001                ; // Fall through to label ??Subroutine32_0

   \                                 In  segment BANKED_CODE, align 1, keep-with-next
   \                     ?Subroutine12:
   \   000000   A3           INC     DPTR
   \   000001   A3           INC     DPTR
   \   000002   A3           INC     DPTR
   \   000003   A3           INC     DPTR
   \   000004   12....       LCALL   ?Subroutine27 & 0xFFFF
   \                     ??CrossCallReturnLabel_36:
   \   000007   A3           INC     DPTR
   \   000008   A3           INC     DPTR
   \   000009   22           RET

   \                                 In  segment BANKED_CODE, align 1, keep-with-next
   \                     ?Subroutine22:
   \   000000   F0           MOVX    @DPTR,A
   \   000001   85..82       MOV     DPL,?V0 + 0
   \   000004   85..83       MOV     DPH,?V0 + 1
   \   000007   22           RET

   \                                 In  segment BANKED_CODE, align 1, keep-with-next
   \                     ?Subroutine25:
   \   000000   F582         MOV     DPL,A
   \   000002   EF           MOV     A,R7
   \   000003                REQUIRE ??Subroutine37_0
   \   000003                ; // Fall through to label ??Subroutine37_0

   \                                 In  segment BANKED_CODE, align 1, keep-with-next
   \                     ??Subroutine37_0:
   \   000000   3400         ADDC    A,#0x0
   \   000002   F583         MOV     DPH,A
   \   000004   22           RET

   \                                 In  segment BANKED_CODE, align 1, keep-with-next
   \                     ?Subroutine15:
   \   000000   12....       LCALL   ?Subroutine28 & 0xFFFF
   \                     ??CrossCallReturnLabel_38:
   \   000003   22           RET
    470          
    471          /*********************************************************************
    472           * @fn      AF_DataRequest
    473           *
    474           * @brief   Common functionality for invoking APSDE_DataReq() for both
    475           *          SendMulti and MSG-Send.
    476           *
    477           * input parameters
    478           *
    479           * @param  *dstAddr - Full ZB destination address: Nwk Addr + End Point.
    480           * @param  *srcEP - Origination (i.e. respond to or ack to) End Point Descr.
    481           * @param   cID - A valid cluster ID as specified by the Profile.
    482           * @param   len - Number of bytes of data pointed to by next param.
    483           * @param  *buf - A pointer to the data bytes to send.
    484           * @param  *transID - A pointer to a byte which can be modified and which will
    485           *                    be used as the transaction sequence number of the msg.
    486           * @param   options - Valid bit mask of Tx options.
    487           * @param   radius - Normally set to AF_DEFAULT_RADIUS.
    488           *
    489           * output parameters
    490           *
    491           * @param  *transID - Incremented by one if the return value is success.
    492           *
    493           * @return  afStatus_t - See previous definition of afStatus_... types.
    494           */

   \                                 In  segment XDATA_I, align 1, keep-with-next
    495          uint8 AF_DataRequestDiscoverRoute = TRUE;
   \                     AF_DataRequestDiscoverRoute:
   \   000000                DS 1
   \   000001                REQUIRE `?<Initializer for AF_DataRequestDiscoverRoute>`
   \   000001                REQUIRE __INIT_XDATA_I

   \                                 In  segment BANKED_CODE, align 1, keep-with-next
    496          afStatus_t AF_DataRequest( afAddrType_t *dstAddr, endPointDesc_t *srcEP,
   \                     AF_DataRequest:
    497                                     uint16 cID, uint16 len, uint8 *buf, uint8 *transID,
    498                                     uint8 options, uint8 radius )
    499          {
   \   000000   74EC         MOV     A,#-0x14
   \   000002   12....       LCALL   ?BANKED_ENTER_XDATA
   \   000005                ; Saved register size: 20
   \   000005                ; Auto size: 30
   \   000005   74E2         MOV     A,#-0x1e
   \   000007   12....       LCALL   ?ALLOC_XSTACK8
   \   00000A   8A..         MOV     ?V0 + 2,R2
   \   00000C   8B..         MOV     ?V0 + 3,R3
   \   00000E   EC           MOV     A,R4
   \   00000F   FE           MOV     R6,A
   \   000010   ED           MOV     A,R5
   \   000011   FF           MOV     R7,A
   \   000012   89..         MOV     ?V0 + 4,R1
   \   000014   7432         MOV     A,#0x32
   \   000016   12....       LCALL   ?XSTACK_DISP0_8
   \   000019   E0           MOVX    A,@DPTR
   \   00001A   F5..         MOV     ?V0 + 6,A
   \   00001C   A3           INC     DPTR
   \   00001D   E0           MOVX    A,@DPTR
   \   00001E   F5..         MOV     ?V0 + 7,A
   \   000020   7436         MOV     A,#0x36
   \   000022   12....       LCALL   ?XSTACK_DISP0_8
   \   000025   E0           MOVX    A,@DPTR
   \   000026   F5..         MOV     ?V0 + 8,A
   \   000028   A3           INC     DPTR
   \   000029   E0           MOVX    A,@DPTR
   \   00002A   F5..         MOV     ?V0 + 9,A
   \   00002C   743A         MOV     A,#0x3a
   \   00002E   12....       LCALL   ?XSTACK_DISP0_8
   \   000031   E0           MOVX    A,@DPTR
   \   000032   F5..         MOV     ?V0 + 5,A
    500            pDescCB pfnDescCB;
    501            ZStatus_t stat;
    502            APSDE_DataReq_t req;
    503            afDataReqMTU_t mtu;
    504          
    505            // Verify source end point
    506            if ( srcEP == NULL )
   \   000034   EE           MOV     A,R6
   \   000035   4F           ORL     A,R7
   \   000036   7003         JNZ     $+5
   \   000038   02....       LJMP    ??AF_DataRequest_0 & 0xFFFF
    507            {
    508              return afStatus_INVALID_PARAMETER;
    509            }
    510          
    511          #if !defined( REFLECTOR )
    512            if ( dstAddr->addrMode == afAddrNotPresent )
    513            {
    514              return afStatus_INVALID_PARAMETER;
    515            }
    516          #endif
    517          
    518            // Check if route is available before sending data
    519            if ( options & AF_LIMIT_CONCENTRATOR  )
   \   00003B   EA           MOV     A,R2
   \   00003C   2408         ADD     A,#0x8
   \   00003E   F5..         MOV     ?V0 + 0,A
   \   000040   EB           MOV     A,R3
   \   000041   3400         ADDC    A,#0x0
   \   000043   F5..         MOV     ?V0 + 1,A
   \   000045   E9           MOV     A,R1
   \   000046   A2E3         MOV     C,0xE0 /* A   */.3
   \   000048   5037         JNC     ??AF_DataRequest_1
    520            {
    521              if ( dstAddr->addrMode != afAddr16Bit )
   \   00004A   85..82       MOV     DPL,?V0 + 0
   \   00004D   85..83       MOV     DPH,?V0 + 1
   \   000050   E0           MOVX    A,@DPTR
   \   000051   6402         XRL     A,#0x2
   \   000053   6003         JZ      $+5
   \   000055   02....       LJMP    ??AF_DataRequest_0 & 0xFFFF
    522              {
    523                return ( afStatus_INVALID_PARAMETER );
    524              }
    525          
    526              // First, make sure the destination is not its self, then check for an existing route.
    527              if ( (dstAddr->addr.shortAddr != NLME_GetShortAddr())
    528                  && (RTG_CheckRtStatus( dstAddr->addr.shortAddr, RT_ACTIVE, (MTO_ROUTE | NO_ROUTE_CACHE) ) != RTG_SUCCESS) )
   \   000058                ; Setup parameters for call to function NLME_GetShortAddr
   \   000058   12....       LCALL   ??NLME_GetShortAddr?relay
   \   00005B   8A..         MOV     ?V0 + 10,R2
   \   00005D   8B..         MOV     ?V0 + 11,R3
   \   00005F   85..82       MOV     DPL,?V0 + 2
   \   000062   85..83       MOV     DPH,?V0 + 3
   \   000065   12....       LCALL   ??Subroutine35_0 & 0xFFFF
   \                     ??CrossCallReturnLabel_65:
   \   000068   E5..         MOV     A,?V0 + 10
   \   00006A   6A           XRL     A,R2
   \   00006B   7003         JNZ     ??AF_DataRequest_2
   \   00006D   E5..         MOV     A,?V0 + 11
   \   00006F   6B           XRL     A,R3
   \                     ??AF_DataRequest_2:
   \   000070   600F         JZ      ??AF_DataRequest_1
   \   000072                ; Setup parameters for call to function RTG_CheckRtStatus
   \   000072   7C03         MOV     R4,#0x3
   \   000074   7901         MOV     R1,#0x1
   \   000076   12....       LCALL   ??RTG_CheckRtStatus?relay
   \   000079   E9           MOV     A,R1
   \   00007A   6005         JZ      ??AF_DataRequest_1
    529              {
    530                // A valid route to a concentrator wasn't found
    531                return ( afStatus_NO_ROUTE );
   \   00007C   79CD         MOV     R1,#-0x33
   \   00007E   02....       LJMP    ??AF_DataRequest_3 & 0xFFFF
    532              }
    533            }
    534          
    535            // Validate broadcasting
    536            if ( ( dstAddr->addrMode == afAddr16Bit     ) ||
    537                 ( dstAddr->addrMode == afAddrBroadcast )    )
   \                     ??AF_DataRequest_1:
   \   000081   85..82       MOV     DPL,?V0 + 0
   \   000084   85..83       MOV     DPH,?V0 + 1
   \   000087   E0           MOVX    A,@DPTR
   \   000088   F8           MOV     R0,A
   \   000089   7402         MOV     A,#0x2
   \   00008B   68           XRL     A,R0
   \   00008C   6005         JZ      ??AF_DataRequest_4
   \   00008E   740F         MOV     A,#0xf
   \   000090   68           XRL     A,R0
   \   000091   7043         JNZ     ??AF_DataRequest_5
    538            {
    539              // Check for valid broadcast values
    540              if( ADDR_NOT_BCAST != NLME_IsAddressBroadcast( dstAddr->addr.shortAddr )  )
   \                     ??AF_DataRequest_4:
   \   000093                ; Setup parameters for call to function NLME_IsAddressBroadcast
   \   000093   85..82       MOV     DPL,?V0 + 2
   \   000096   85..83       MOV     DPH,?V0 + 3
   \   000099   12....       LCALL   ??Subroutine35_0 & 0xFFFF
   \                     ??CrossCallReturnLabel_66:
   \   00009C   12....       LCALL   ??NLME_IsAddressBroadcast?relay
   \   00009F   E9           MOV     A,R1
   \   0000A0   85..82       MOV     DPL,?V0 + 0
   \   0000A3   85..83       MOV     DPH,?V0 + 1
   \   0000A6   6027         JZ      ??AF_DataRequest_6
    541              {
    542                // Force mode to broadcast
    543                dstAddr->addrMode = afAddrBroadcast;
   \   0000A8   740F         MOV     A,#0xf
   \   0000AA   F0           MOVX    @DPTR,A
    544              }
    545              else
    546              {
    547                // Address is not a valid broadcast type
    548                if ( dstAddr->addrMode == afAddrBroadcast )
    549                {
    550                  return afStatus_INVALID_PARAMETER;
    551                }
    552              }
    553            }
    554            else if ( dstAddr->addrMode != afAddr64Bit &&
    555                      dstAddr->addrMode != afAddrGroup &&
    556                      dstAddr->addrMode != afAddrNotPresent )
    557            {
    558              return afStatus_INVALID_PARAMETER;
    559            }
    560          
    561            // Set destination address
    562            req.dstAddr.addrMode = dstAddr->addrMode;
   \                     ??AF_DataRequest_7:
   \   0000AB   E0           MOVX    A,@DPTR
   \   0000AC   C0E0         PUSH    A
   \   0000AE   740A         MOV     A,#0xa
   \   0000B0   12....       LCALL   ?XSTACK_DISP0_8
   \   0000B3   D0E0         POP     A
   \   0000B5   12....       LCALL   ?Subroutine22 & 0xFFFF
    563            if ( dstAddr->addrMode == afAddr64Bit )
   \                     ??CrossCallReturnLabel_28:
   \   0000B8   E0           MOVX    A,@DPTR
   \   0000B9   6403         XRL     A,#0x3
   \   0000BB   702B         JNZ     ??AF_DataRequest_8
    564              osal_cpyExtAddr( req.dstAddr.addr.extAddr, dstAddr->addr.extAddr );
   \   0000BD                ; Setup parameters for call to function sAddrExtCpy
   \   0000BD   AC..         MOV     R4,?V0 + 2
   \   0000BF   AD..         MOV     R5,?V0 + 3
   \   0000C1   7402         MOV     A,#0x2
   \   0000C3   12....       LCALL   ?XSTACK_DISP0_8
   \   0000C6   AA82         MOV     R2,DPL
   \   0000C8   AB83         MOV     R3,DPH
   \   0000CA   12....       LCALL   ??sAddrExtCpy?relay
   \   0000CD   802A         SJMP    ??CrossCallReturnLabel_45
   \                     ??AF_DataRequest_6:
   \   0000CF   E0           MOVX    A,@DPTR
   \   0000D0   640F         XRL     A,#0xf
   \   0000D2   70D7         JNZ     ??AF_DataRequest_7
   \   0000D4   800D         SJMP    ??AF_DataRequest_0
   \                     ??AF_DataRequest_5:
   \   0000D6   7403         MOV     A,#0x3
   \   0000D8   68           XRL     A,R0
   \   0000D9   60D0         JZ      ??AF_DataRequest_7
   \   0000DB   7401         MOV     A,#0x1
   \   0000DD   68           XRL     A,R0
   \   0000DE   60CB         JZ      ??AF_DataRequest_7
   \   0000E0   E8           MOV     A,R0
   \   0000E1   60C8         JZ      ??AF_DataRequest_7
   \                     ??AF_DataRequest_0:
   \   0000E3   7902         MOV     R1,#0x2
   \   0000E5   02....       LJMP    ??AF_DataRequest_3 & 0xFFFF
    565            else
    566              req.dstAddr.addr.shortAddr = dstAddr->addr.shortAddr;
   \                     ??AF_DataRequest_8:
   \   0000E8   85..82       MOV     DPL,?V0 + 2
   \   0000EB   85..83       MOV     DPH,?V0 + 3
   \   0000EE   12....       LCALL   ??Subroutine32_0 & 0xFFFF
   \                     ??CrossCallReturnLabel_54:
   \   0000F1   7402         MOV     A,#0x2
   \   0000F3   12....       LCALL   ?XSTACK_DISP0_8
   \   0000F6   12....       LCALL   ??Subroutine31_0 & 0xFFFF
    567          
    568            req.profileID = ZDO_PROFILE_ID;
   \                     ??CrossCallReturnLabel_45:
   \   0000F9   7411         MOV     A,#0x11
   \   0000FB   12....       LCALL   ?XSTACK_DISP0_8
   \   0000FE   E4           CLR     A
   \   0000FF   F0           MOVX    @DPTR,A
   \   000100   A3           INC     DPTR
   \   000101   F0           MOVX    @DPTR,A
    569          
    570            if ( (pfnDescCB = afGetDescCB( srcEP )) )
   \   000102   90....       MOV     DPTR,#epList
   \                     ??AF_DataRequest_9:
   \   000105   12....       LCALL   ?Subroutine10 & 0xFFFF
   \                     ??CrossCallReturnLabel_6:
   \   000108   603A         JZ      ??AF_DataRequest_10
   \   00010A   8882         MOV     DPL,R0
   \   00010C   8983         MOV     DPH,R1
   \   00010E   12....       LCALL   ??Subroutine34_0 & 0xFFFF
   \                     ??CrossCallReturnLabel_69:
   \   000111   EE           MOV     A,R6
   \   000112   6A           XRL     A,R2
   \   000113   7002         JNZ     ??AF_DataRequest_11
   \   000115   EF           MOV     A,R7
   \   000116   6B           XRL     A,R3
   \                     ??AF_DataRequest_11:
   \   000117   8882         MOV     DPL,R0
   \   000119   8983         MOV     DPH,R1
   \   00011B   70E8         JNZ     ??AF_DataRequest_9
   \   00011D   12....       LCALL   ?Subroutine11 & 0xFFFF
   \                     ??CrossCallReturnLabel_9:
   \   000120   6022         JZ      ??AF_DataRequest_10
    571            {
    572              uint16 *pID = (uint16 *)(pfnDescCB(
    573                                           AF_DESCRIPTOR_PROFILE_ID, srcEP->endPoint ));
   \   000122                ; Setup parameters for indirect call
   \   000122   8E82         MOV     DPL,R6
   \   000124   8F83         MOV     DPH,R7
   \   000126   12....       LCALL   ?Subroutine19 & 0xFFFF
   \                     ??CrossCallReturnLabel_23:
   \   000129   12....       LCALL   ?CALL_IND
    574              if ( pID )
   \   00012C   EA           MOV     A,R2
   \   00012D   4B           ORL     A,R3
   \   00012E   6028         JZ      ??CrossCallReturnLabel_47
    575              {
    576                req.profileID = *pID;
   \   000130   8A82         MOV     DPL,R2
   \   000132   8B83         MOV     DPH,R3
   \   000134   12....       LCALL   ??Subroutine32_0 & 0xFFFF
   \                     ??CrossCallReturnLabel_55:
   \   000137   7411         MOV     A,#0x11
   \   000139   12....       LCALL   ?XSTACK_DISP0_8
   \   00013C   12....       LCALL   ??Subroutine31_0 & 0xFFFF
    577                osal_mem_free( pID );
   \                     ??CrossCallReturnLabel_46:
   \   00013F                ; Setup parameters for call to function osal_mem_free
   \   00013F   12....       LCALL   ??osal_mem_free?relay
   \   000142   8014         SJMP    ??CrossCallReturnLabel_47
    578              }
    579            }
    580            else if ( srcEP->simpleDesc )
   \                     ??AF_DataRequest_10:
   \   000144   8E82         MOV     DPL,R6
   \   000146   8F83         MOV     DPH,R7
   \   000148   12....       LCALL   ?Subroutine7 & 0xFFFF
   \                     ??CrossCallReturnLabel_5:
   \   00014B   600B         JZ      ??CrossCallReturnLabel_47
    581            {
    582              req.profileID = srcEP->simpleDesc->AppProfId;
   \   00014D   12....       LCALL   ?Subroutine16 & 0xFFFF
    583            }
   \                     ??CrossCallReturnLabel_57:
   \   000150   7411         MOV     A,#0x11
   \   000152   12....       LCALL   ?XSTACK_DISP0_8
   \   000155   12....       LCALL   ??Subroutine31_0 & 0xFFFF
    584          
    585            req.txOptions = 0;
   \                     ??CrossCallReturnLabel_47:
   \   000158   7417         MOV     A,#0x17
   \   00015A   12....       LCALL   ?XSTACK_DISP0_8
   \   00015D   E4           CLR     A
   \   00015E   F0           MOVX    @DPTR,A
   \   00015F   A3           INC     DPTR
   \   000160   F0           MOVX    @DPTR,A
    586          
    587            if ( ( options & AF_ACK_REQUEST              ) &&
    588                 ( req.dstAddr.addrMode != AddrBroadcast ) &&
    589                 ( req.dstAddr.addrMode != AddrGroup     )    )
   \   000161   E5..         MOV     A,?V0 + 4
   \   000163   A2E4         MOV     C,0xE0 /* A   */.4
   \   000165   501C         JNC     ??AF_DataRequest_12
   \   000167   740A         MOV     A,#0xa
   \   000169   12....       LCALL   ?XSTACK_DISP0_8
   \   00016C   E0           MOVX    A,@DPTR
   \   00016D   F8           MOV     R0,A
   \   00016E   740F         MOV     A,#0xf
   \   000170   68           XRL     A,R0
   \   000171   6010         JZ      ??AF_DataRequest_12
   \   000173   7401         MOV     A,#0x1
   \   000175   68           XRL     A,R0
   \   000176   600B         JZ      ??AF_DataRequest_12
    590            {
    591              req.txOptions |=  APS_TX_OPTIONS_ACK;
   \   000178   7417         MOV     A,#0x17
   \   00017A   12....       LCALL   ?XSTACK_DISP0_8
   \   00017D   7404         MOV     A,#0x4
   \   00017F   F0           MOVX    @DPTR,A
   \   000180   A3           INC     DPTR
   \   000181   E4           CLR     A
   \   000182   F0           MOVX    @DPTR,A
    592            }
    593          
    594            if ( options & AF_SKIP_ROUTING )
   \                     ??AF_DataRequest_12:
   \   000183   E5..         MOV     A,?V0 + 4
   \   000185   A2E7         MOV     C,0xE0 /* A   */.7
   \   000187   5009         JNC     ??AF_DataRequest_13
    595            {
    596              req.txOptions |=  APS_TX_OPTIONS_SKIP_ROUTING;
   \   000189   7417         MOV     A,#0x17
   \   00018B   12....       LCALL   ?XSTACK_DISP0_8
   \   00018E   E0           MOVX    A,@DPTR
   \   00018F   4410         ORL     A,#0x10
   \   000191   F0           MOVX    @DPTR,A
    597            }
    598          
    599            if ( options & AF_EN_SECURITY )
   \                     ??AF_DataRequest_13:
   \   000192   E5..         MOV     A,?V0 + 4
   \   000194   A2E6         MOV     C,0xE0 /* A   */.6
   \   000196   5012         JNC     ??AF_DataRequest_14
    600            {
    601              req.txOptions |= APS_TX_OPTIONS_SECURITY_ENABLE;
   \   000198   7417         MOV     A,#0x17
   \   00019A   12....       LCALL   ?XSTACK_DISP0_8
   \   00019D   E0           MOVX    A,@DPTR
   \   00019E   4401         ORL     A,#0x1
   \   0001A0   F0           MOVX    @DPTR,A
    602              mtu.aps.secure = TRUE;
   \   0001A1   7401         MOV     A,#0x1
   \   0001A3   12....       LCALL   ?XSTACK_DISP0_8
   \   0001A6   7401         MOV     A,#0x1
   \   0001A8   8006         SJMP    ??AF_DataRequest_15
    603            }
    604            else
    605            {
    606              mtu.aps.secure = FALSE;
   \                     ??AF_DataRequest_14:
   \   0001AA   7401         MOV     A,#0x1
   \   0001AC   12....       LCALL   ?XSTACK_DISP0_8
   \   0001AF   E4           CLR     A
   \                     ??AF_DataRequest_15:
   \   0001B0   F0           MOVX    @DPTR,A
    607            }
    608          
    609            if ( options & AF_PREPROCESS )
   \   0001B1   E5..         MOV     A,?V0 + 4
   \   0001B3   A2E2         MOV     C,0xE0 /* A   */.2
   \   0001B5   5009         JNC     ??AF_DataRequest_16
    610            {
    611              req.txOptions |=  APS_TX_OPTIONS_PREPROCESS;
   \   0001B7   7417         MOV     A,#0x17
   \   0001B9   12....       LCALL   ?XSTACK_DISP0_8
   \   0001BC   E0           MOVX    A,@DPTR
   \   0001BD   4440         ORL     A,#0x40
   \   0001BF   F0           MOVX    @DPTR,A
    612            }
    613          
    614            mtu.kvp = FALSE;
   \                     ??AF_DataRequest_16:
   \   0001C0   85..82       MOV     DPL,?XSP + 0
   \   0001C3   85..83       MOV     DPH,?XSP + 1
   \   0001C6   E4           CLR     A
   \   0001C7   F0           MOVX    @DPTR,A
   \   0001C8   7438         MOV     A,#0x38
   \   0001CA   12....       LCALL   ?XSTACK_DISP0_8
   \   0001CD   12....       LCALL   ?Subroutine13 & 0xFFFF
    615          
    616            req.transID       = *transID;
   \                     ??CrossCallReturnLabel_15:
   \   0001D0   85..82       MOV     DPL,?V0 + 0
   \   0001D3   F583         MOV     DPH,A
   \   0001D5   E0           MOVX    A,@DPTR
   \   0001D6   C0E0         PUSH    A
   \   0001D8   7419         MOV     A,#0x19
   \   0001DA   12....       LCALL   ?XSTACK_DISP0_8
   \   0001DD   D0E0         POP     A
   \   0001DF   F0           MOVX    @DPTR,A
    617            req.srcEP         = srcEP->endPoint;
   \   0001E0   8E82         MOV     DPL,R6
   \   0001E2   8F83         MOV     DPH,R7
   \   0001E4   E0           MOVX    A,@DPTR
   \   0001E5   C0E0         PUSH    A
   \   0001E7   740B         MOV     A,#0xb
   \   0001E9   12....       LCALL   ?XSTACK_DISP0_8
   \   0001EC   D0E0         POP     A
   \   0001EE   F0           MOVX    @DPTR,A
    618            req.dstEP         = dstAddr->endPoint;
   \   0001EF   85..82       MOV     DPL,?V0 + 2
   \   0001F2   85..83       MOV     DPH,?V0 + 3
   \   0001F5   A3           INC     DPTR
   \   0001F6   A3           INC     DPTR
   \   0001F7   A3           INC     DPTR
   \   0001F8   A3           INC     DPTR
   \   0001F9   A3           INC     DPTR
   \   0001FA   A3           INC     DPTR
   \   0001FB   A3           INC     DPTR
   \   0001FC   A3           INC     DPTR
   \   0001FD   A3           INC     DPTR
   \   0001FE   E0           MOVX    A,@DPTR
   \   0001FF   C0E0         PUSH    A
   \   000201   740C         MOV     A,#0xc
   \   000203   12....       LCALL   ?XSTACK_DISP0_8
   \   000206   D0E0         POP     A
   \   000208   F0           MOVX    @DPTR,A
    619            req.clusterID     = cID;
   \   000209   740F         MOV     A,#0xf
   \   00020B   12....       LCALL   ?XSTACK_DISP0_8
   \   00020E   E5..         MOV     A,?V0 + 6
   \   000210   F0           MOVX    @DPTR,A
   \   000211   A3           INC     DPTR
   \   000212   E5..         MOV     A,?V0 + 7
   \   000214   F0           MOVX    @DPTR,A
   \   000215   7434         MOV     A,#0x34
   \   000217   12....       LCALL   ?XSTACK_DISP0_8
   \   00021A   E0           MOVX    A,@DPTR
   \   00021B   F5..         MOV     ?V0 + 2,A
   \   00021D   A3           INC     DPTR
   \   00021E   E0           MOVX    A,@DPTR
   \   00021F   F5..         MOV     ?V0 + 3,A
    620            req.asduLen       = len;
   \   000221   7413         MOV     A,#0x13
   \   000223   12....       LCALL   ?XSTACK_DISP0_8
   \   000226   E5..         MOV     A,?V0 + 2
   \   000228   F0           MOVX    @DPTR,A
   \   000229   A3           INC     DPTR
   \   00022A   E5..         MOV     A,?V0 + 3
   \   00022C   F0           MOVX    @DPTR,A
    621            req.asdu          = buf;
   \   00022D   7415         MOV     A,#0x15
   \   00022F   12....       LCALL   ?XSTACK_DISP0_8
   \   000232   E5..         MOV     A,?V0 + 8
   \   000234   F0           MOVX    @DPTR,A
   \   000235   A3           INC     DPTR
   \   000236   E5..         MOV     A,?V0 + 9
   \   000238   F0           MOVX    @DPTR,A
    622            req.discoverRoute = AF_DataRequestDiscoverRoute;//(uint8)((options & AF_DISCV_ROUTE) ? 1 : 0);
   \   000239   90....       MOV     DPTR,#AF_DataRequestDiscoverRoute
   \   00023C   E0           MOVX    A,@DPTR
   \   00023D   C0E0         PUSH    A
   \   00023F   741A         MOV     A,#0x1a
   \   000241   12....       LCALL   ?XSTACK_DISP0_8
   \   000244   D0E0         POP     A
   \   000246   F0           MOVX    @DPTR,A
    623            req.radiusCounter = radius;
   \   000247   741B         MOV     A,#0x1b
   \   000249   12....       LCALL   ?XSTACK_DISP0_8
   \   00024C   E5..         MOV     A,?V0 + 5
   \   00024E   F0           MOVX    @DPTR,A
    624          #if defined ( INTER_PAN )
    625            req.dstPanId      = dstAddr->panId;
    626          
    627            if ( StubAPS_InterPan( dstAddr->panId, dstAddr->endPoint ) )
    628            {
    629              if ( len > INTERP_DataReqMTU() )
    630              {
    631                stat = afStatus_INVALID_PARAMETER;
    632              }
    633              else
    634              {
    635                stat = INTERP_DataReq( &req );
    636              }
    637            }
    638            else
    639          #endif // INTER_PAN
    640            {
    641              if (len > afDataReqMTU( &mtu ) )
   \   00024F                ; Setup parameters for call to function afDataReqMTU
   \   00024F   85..82       MOV     DPL,?XSP + 0
   \   000252   85..83       MOV     DPH,?XSP + 1
   \   000255   AA82         MOV     R2,DPL
   \   000257   AB83         MOV     R3,DPH
   \   000259   12....       LCALL   ??afDataReqMTU?relay
   \   00025C   E9           MOV     A,R1
   \   00025D   C3           CLR     C
   \   00025E   95..         SUBB    A,?V0 + 2
   \   000260   E4           CLR     A
   \   000261   95..         SUBB    A,?V0 + 3
   \   000263   5023         JNC     ??AF_DataRequest_17
    642              {
    643                if (apsfSendFragmented)
   \   000265   90....       MOV     DPTR,#apsfSendFragmented
   \   000268   12....       LCALL   ?Subroutine10 & 0xFFFF
   \                     ??CrossCallReturnLabel_8:
   \   00026B   6016         JZ      ??AF_DataRequest_18
    644                {
    645                  stat = (*apsfSendFragmented)( &req );
   \   00026D                ; Setup parameters for indirect call
   \   00026D   7402         MOV     A,#0x2
   \   00026F   12....       LCALL   ?XSTACK_DISP0_8
   \   000272   AA82         MOV     R2,DPL
   \   000274   AB83         MOV     R3,DPH
   \   000276   90....       MOV     DPTR,#apsfSendFragmented + 1
   \   000279   E0           MOVX    A,@DPTR
   \   00027A   F583         MOV     DPH,A
   \   00027C   8882         MOV     DPL,R0
   \   00027E   12....       LCALL   ?CALL_IND
   \   000281   8011         SJMP    ??AF_DataRequest_19
    646                }
    647                else
    648                {
    649                  stat = afStatus_INVALID_PARAMETER;
   \                     ??AF_DataRequest_18:
   \   000283   75..02       MOV     ?V0 + 2,#0x2
   \   000286   800F         SJMP    ??AF_DataRequest_20
    650                }
    651              }
    652              else
    653              {
    654                stat = APSDE_DataReq( &req );
   \                     ??AF_DataRequest_17:
   \   000288                ; Setup parameters for call to function APSDE_DataReq
   \   000288   7402         MOV     A,#0x2
   \   00028A   12....       LCALL   ?XSTACK_DISP0_8
   \   00028D   AA82         MOV     R2,DPL
   \   00028F   AB83         MOV     R3,DPH
   \   000291   12....       LCALL   ??APSDE_DataReq?relay
   \                     ??AF_DataRequest_19:
   \   000294   E9           MOV     A,R1
   \   000295   F5..         MOV     ?V0 + 2,A
    655              }
    656            }
    657          
    658            /*
    659             * If this is an EndPoint-to-EndPoint message on the same device, it will not
    660             * get added to the NWK databufs. So it will not go OTA and it will not get
    661             * a MACCB_DATA_CONFIRM_CMD callback. Thus it is necessary to generate the
    662             * AF_DATA_CONFIRM_CMD here. Note that APSDE_DataConfirm() only generates one
    663             * message with the first in line TransSeqNumber, even on a multi message.
    664             * Also note that a reflected msg will not have its confirmation generated
    665             * here.
    666             */
    667            if ( (req.dstAddr.addrMode == Addr16Bit) &&
    668                 (req.dstAddr.addr.shortAddr == NLME_GetShortAddr()) )
   \                     ??AF_DataRequest_20:
   \   000297   740A         MOV     A,#0xa
   \   000299   12....       LCALL   ?XSTACK_DISP0_8
   \   00029C   E0           MOVX    A,@DPTR
   \   00029D   6402         XRL     A,#0x2
   \   00029F   702C         JNZ     ??AF_DataRequest_21
   \   0002A1                ; Setup parameters for call to function NLME_GetShortAddr
   \   0002A1   12....       LCALL   ??NLME_GetShortAddr?relay
   \   0002A4   8A..         MOV     ?V0 + 6,R2
   \   0002A6   8B..         MOV     ?V0 + 7,R3
   \   0002A8   A8..         MOV     R0,?V0 + 6
   \   0002AA   A9..         MOV     R1,?V0 + 7
   \   0002AC   7402         MOV     A,#0x2
   \   0002AE   12....       LCALL   ?XSTACK_DISP0_8
   \   0002B1   E0           MOVX    A,@DPTR
   \   0002B2   68           XRL     A,R0
   \   0002B3   7003         JNZ     ??AF_DataRequest_22
   \   0002B5   A3           INC     DPTR
   \   0002B6   E0           MOVX    A,@DPTR
   \   0002B7   69           XRL     A,R1
   \                     ??AF_DataRequest_22:
   \   0002B8   7013         JNZ     ??AF_DataRequest_21
    669            {
    670              afDataConfirm( srcEP->endPoint, *transID, stat );
   \   0002BA                ; Setup parameters for call to function afDataConfirm
   \   0002BA   AB..         MOV     R3,?V0 + 2
   \   0002BC   85..82       MOV     DPL,?V0 + 0
   \   0002BF   85..83       MOV     DPH,?V0 + 1
   \   0002C2   E0           MOVX    A,@DPTR
   \   0002C3   FA           MOV     R2,A
   \   0002C4   8E82         MOV     DPL,R6
   \   0002C6   8F83         MOV     DPH,R7
   \   0002C8   E0           MOVX    A,@DPTR
   \   0002C9   F9           MOV     R1,A
   \   0002CA   12....       LCALL   ??afDataConfirm?relay
    671            }
    672          
    673            if ( stat == afStatus_SUCCESS )
   \                     ??AF_DataRequest_21:
   \   0002CD   E5..         MOV     A,?V0 + 2
   \   0002CF   7009         JNZ     ??AF_DataRequest_23
    674            {
    675              (*transID)++;
   \   0002D1   85..82       MOV     DPL,?V0 + 0
   \   0002D4   85..83       MOV     DPH,?V0 + 1
   \   0002D7   E0           MOVX    A,@DPTR
   \   0002D8   04           INC     A
   \   0002D9   F0           MOVX    @DPTR,A
    676            }
    677          
    678            return (afStatus_t)stat;
   \                     ??AF_DataRequest_23:
   \   0002DA   A9..         MOV     R1,?V0 + 2
   \                     ??AF_DataRequest_3:
   \   0002DC   741E         MOV     A,#0x1e
   \   0002DE   12....       LCALL   ?DEALLOC_XSTACK8
   \   0002E1                REQUIRE ?Subroutine4
   \   0002E1                ; // Fall through to label ?Subroutine4
    679          }

   \                                 In  segment BANKED_CODE, align 1, keep-with-next
   \                     ?Subroutine4:
   \   000000   7F0C         MOV     R7,#0xc
   \   000002   02....       LJMP    ?BANKED_LEAVE_XDATA
    680          
    681          #if defined ( ZIGBEE_SOURCE_ROUTING )
    682          /*********************************************************************
    683           * @fn      AF_DataRequestSrcRtg
    684           *
    685           * @brief   Common functionality for invoking APSDE_DataReq() for both
    686           *          SendMulti and MSG-Send.
    687           *
    688           * input parameters
    689           *
    690           * @param  *dstAddr - Full ZB destination address: Nwk Addr + End Point.
    691           * @param  *srcEP - Origination (i.e. respond to or ack to) End Point Descr.
    692           * @param   cID - A valid cluster ID as specified by the Profile.
    693           * @param   len - Number of bytes of data pointed to by next param.
    694           * @param  *buf - A pointer to the data bytes to send.
    695           * @param  *transID - A pointer to a byte which can be modified and which will
    696           *                    be used as the transaction sequence number of the msg.
    697           * @param   options - Valid bit mask of Tx options.
    698           * @param   radius - Normally set to AF_DEFAULT_RADIUS.
    699           * @param   relayCnt - Number of devices in the relay list
    700           * @param   pRelayList - Pointer to the relay list
    701           *
    702           * output parameters
    703           *
    704           * @param  *transID - Incremented by one if the return value is success.
    705           *
    706           * @return  afStatus_t - See previous definition of afStatus_... types.
    707           */
    708          

   \                                 In  segment BANKED_CODE, align 1, keep-with-next
    709          afStatus_t AF_DataRequestSrcRtg( afAddrType_t *dstAddr, endPointDesc_t *srcEP,
   \                     AF_DataRequestSrcRtg:
    710                                     uint16 cID, uint16 len, uint8 *buf, uint8 *transID,
    711                                     uint8 options, uint8 radius, uint8 relayCnt, uint16* pRelayList )
    712          {
   \   000000   74EC         MOV     A,#-0x14
   \   000002   12....       LCALL   ?BANKED_ENTER_XDATA
   \   000005                ; Saved register size: 20
   \   000005                ; Auto size: 0
   \   000005   EA           MOV     A,R2
   \   000006   FE           MOV     R6,A
   \   000007   EB           MOV     A,R3
   \   000008   FF           MOV     R7,A
   \   000009   8C..         MOV     ?V0 + 0,R4
   \   00000B   8D..         MOV     ?V0 + 1,R5
   \   00000D   89..         MOV     ?V0 + 2,R1
   \   00000F   7414         MOV     A,#0x14
   \   000011   12....       LCALL   ?XSTACK_DISP0_8
   \   000014   12....       LCALL   ?Subroutine6 & 0xFFFF
   \                     ??CrossCallReturnLabel_3:
   \   000017   7416         MOV     A,#0x16
   \   000019   12....       LCALL   ?XSTACK_DISP0_8
   \   00001C   E0           MOVX    A,@DPTR
   \   00001D   F5..         MOV     ?V0 + 8,A
   \   00001F   A3           INC     DPTR
   \   000020   E0           MOVX    A,@DPTR
   \   000021   F5..         MOV     ?V0 + 9,A
   \   000023   7418         MOV     A,#0x18
   \   000025   12....       LCALL   ?XSTACK_DISP0_8
   \   000028   E0           MOVX    A,@DPTR
   \   000029   F5..         MOV     ?V0 + 6,A
   \   00002B   A3           INC     DPTR
   \   00002C   E0           MOVX    A,@DPTR
   \   00002D   F5..         MOV     ?V0 + 7,A
   \   00002F   741A         MOV     A,#0x1a
   \   000031   12....       LCALL   ?XSTACK_DISP0_8
   \   000034   E0           MOVX    A,@DPTR
   \   000035   F5..         MOV     ?V0 + 4,A
   \   000037   A3           INC     DPTR
   \   000038   E0           MOVX    A,@DPTR
   \   000039   F5..         MOV     ?V0 + 5,A
   \   00003B   741C         MOV     A,#0x1c
   \   00003D   12....       LCALL   ?XSTACK_DISP0_8
   \   000040   E0           MOVX    A,@DPTR
   \   000041   F5..         MOV     ?V0 + 3,A
   \   000043   741D         MOV     A,#0x1d
   \   000045   12....       LCALL   ?XSTACK_DISP0_8
   \   000048   E0           MOVX    A,@DPTR
   \   000049   F9           MOV     R1,A
   \   00004A   741E         MOV     A,#0x1e
   \   00004C   12....       LCALL   ?XSTACK_DISP0_8
   \   00004F   12....       LCALL   ??Subroutine38_0 & 0xFFFF
    713            uint8 status;
    714          
    715            /* Add the source route to the source routing table */
    716            status = RTG_AddSrcRtgEntry_Guaranteed( dstAddr->addr.shortAddr, relayCnt,
    717                                                   pRelayList );
   \                     ??CrossCallReturnLabel_94:
   \   000052                ; Setup parameters for call to function RTG_AddSrcRtgEntry_Guaranteed
   \   000052   8E82         MOV     DPL,R6
   \   000054   8F83         MOV     DPH,R7
   \   000056   12....       LCALL   ??Subroutine35_0 & 0xFFFF
   \                     ??CrossCallReturnLabel_67:
   \   000059   12....       LCALL   ??RTG_AddSrcRtgEntry_Guaranteed?relay
   \   00005C   E9           MOV     A,R1
    718          
    719            if( status == RTG_SUCCESS)
   \   00005D   702D         JNZ     ??AF_DataRequestSrcRtg_0
    720            {
    721              /* Call AF_DataRequest to send the data */
    722              status = AF_DataRequest( dstAddr, srcEP, cID, len, buf, transID, options, radius );
   \   00005F                ; Setup parameters for call to function AF_DataRequest
   \   00005F   78..         MOV     R0,#?V0 + 3
   \   000061   12....       LCALL   ?PUSH_XSTACK_I_ONE
   \   000064   78..         MOV     R0,#?V0 + 4
   \   000066   12....       LCALL   ?PUSH_XSTACK_I_TWO
   \   000069   78..         MOV     R0,#?V0 + 6
   \   00006B   12....       LCALL   ?PUSH_XSTACK_I_TWO
   \   00006E   78..         MOV     R0,#?V0 + 8
   \   000070   12....       LCALL   ?PUSH_XSTACK_I_TWO
   \   000073   78..         MOV     R0,#?V0 + 10
   \   000075   12....       LCALL   ?PUSH_XSTACK_I_TWO
   \   000078   A9..         MOV     R1,?V0 + 2
   \   00007A   AC..         MOV     R4,?V0 + 0
   \   00007C   AD..         MOV     R5,?V0 + 1
   \   00007E   EE           MOV     A,R6
   \   00007F   FA           MOV     R2,A
   \   000080   EF           MOV     A,R7
   \   000081   FB           MOV     R3,A
   \   000082   12....       LCALL   ??AF_DataRequest?relay
   \   000085   7409         MOV     A,#0x9
   \   000087   12....       LCALL   ?DEALLOC_XSTACK8
   \   00008A   800B         SJMP    ??AF_DataRequestSrcRtg_1
    723            }
    724            else if( status == RTG_INVALID_PATH )
   \                     ??AF_DataRequestSrcRtg_0:
   \   00008C   7405         MOV     A,#0x5
   \   00008E   69           XRL     A,R1
   \   00008F   7004         JNZ     ??AF_DataRequestSrcRtg_2
    725            {
    726              /* The source route relay count is exceeding the network limit */
    727              status = afStatus_INVALID_PARAMETER;
   \   000091   7902         MOV     R1,#0x2
   \   000093   8002         SJMP    ??AF_DataRequestSrcRtg_1
    728            }
    729            else
    730            {
    731              /* The guaranteed adding entry fails due to memory failure */
    732              status = afStatus_MEM_FAIL;
   \                     ??AF_DataRequestSrcRtg_2:
   \   000095   7910         MOV     R1,#0x10
    733            }
    734            return status;
   \                     ??AF_DataRequestSrcRtg_1:
   \   000097   02....       LJMP    ?Subroutine4 & 0xFFFF
    735          }
    736          
    737          #endif
    738          
    739          /*********************************************************************
    740           * @fn      afFindEndPointDescList
    741           *
    742           * @brief   Find the endpoint description entry from the endpoint
    743           *          number.
    744           *
    745           * @param   EndPoint - Application Endpoint to look for
    746           *
    747           * @return  the address to the endpoint/interface description entry
    748           */

   \                                 In  segment BANKED_CODE, align 1, keep-with-next
    749          static epList_t *afFindEndPointDescList( uint8 EndPoint )
   \                     afFindEndPointDescList:
    750          {
   \   000000   C082         PUSH    DPL
   \   000002   C083         PUSH    DPH
   \   000004                ; Saved register size: 2
   \   000004                ; Auto size: 0
    751            epList_t *epSearch;
    752          
    753            for (epSearch = epList; epSearch != NULL; epSearch = epSearch->nextDesc)
   \   000004   90....       MOV     DPTR,#epList
   \   000007   8004         SJMP    ??afFindEndPointDescList_0
   \                     ??afFindEndPointDescList_1:
   \   000009   8A82         MOV     DPL,R2
   \   00000B   8B83         MOV     DPH,R3
   \                     ??afFindEndPointDescList_0:
   \   00000D   12....       LCALL   ??Subroutine35_0 & 0xFFFF
   \                     ??CrossCallReturnLabel_68:
   \   000010   EA           MOV     A,R2
   \   000011   4B           ORL     A,R3
   \   000012   600A         JZ      ??afFindEndPointDescList_2
    754            {
    755              if (epSearch->epDesc->endPoint == EndPoint)
   \   000014   8A82         MOV     DPL,R2
   \   000016   8B83         MOV     DPH,R3
   \   000018   12....       LCALL   ?Subroutine9 & 0xFFFF
    756              {
    757                break;
    758              }
    759            }
   \                     ??CrossCallReturnLabel_76:
   \   00001B   69           XRL     A,R1
   \   00001C   70EB         JNZ     ??afFindEndPointDescList_1
    760          
    761            return epSearch;
   \                     ??afFindEndPointDescList_2:
   \   00001E                REQUIRE ?Subroutine5
   \   00001E                ; // Fall through to label ?Subroutine5
    762          }

   \                                 In  segment BANKED_CODE, align 1, keep-with-next
   \                     ?Subroutine5:
   \   000000   D083         POP     DPH
   \   000002   D082         POP     DPL
   \   000004   02....       LJMP    ?BRET

   \                                 In  segment BANKED_CODE, align 1, keep-with-next
   \                     ?Subroutine9:
   \   000000   A3           INC     DPTR
   \   000001                REQUIRE ??Subroutine36_0
   \   000001                ; // Fall through to label ??Subroutine36_0
    763          
    764          /*********************************************************************
    765           * @fn      afFindEndPointDesc
    766           *
    767           * @brief   Find the endpoint description entry from the endpoint
    768           *          number.
    769           *
    770           * @param   EndPoint - Application Endpoint to look for
    771           *
    772           * @return  the address to the endpoint/interface description entry
    773           */

   \                                 In  segment BANKED_CODE, align 1, keep-with-next
    774          endPointDesc_t *afFindEndPointDesc( uint8 EndPoint )
   \                     afFindEndPointDesc:
    775          {
   \   000000   74F6         MOV     A,#-0xa
   \   000002   12....       LCALL   ?BANKED_ENTER_XDATA
   \   000005                ; Saved register size: 10
   \   000005                ; Auto size: 0
    776            epList_t *epSearch;
    777          
    778            // Look for the endpoint
    779            epSearch = afFindEndPointDescList( EndPoint );
   \   000005                ; Setup parameters for call to function afFindEndPointDescList
   \   000005   12....       LCALL   ??afFindEndPointDescList?relay
   \   000008   8A82         MOV     DPL,R2
   \   00000A   8B83         MOV     DPH,R3
    780          
    781            if ( epSearch )
   \   00000C   E582         MOV     A,DPL
   \   00000E   4583         ORL     A,DPH
   \   000010   6005         JZ      ??afFindEndPointDesc_0
    782              return ( epSearch->epDesc );
   \   000012   12....       LCALL   ??Subroutine34_0 & 0xFFFF
   \                     ??CrossCallReturnLabel_70:
   \   000015   8004         SJMP    ??afFindEndPointDesc_1
    783            else
    784              return ( (endPointDesc_t *)NULL );
   \                     ??afFindEndPointDesc_0:
   \   000017   7A00         MOV     R2,#0x0
   \   000019   7B00         MOV     R3,#0x0
   \                     ??afFindEndPointDesc_1:
   \   00001B   02....       LJMP    ?Subroutine1 & 0xFFFF
    785          }
    786          
    787          /*********************************************************************
    788           * @fn      afFindSimpleDesc
    789           *
    790           * @brief   Find the Simple Descriptor from the endpoint number.
    791           *
    792           * @param   EP - Application Endpoint to look for.
    793           *
    794           * @return  Non-zero to indicate that the descriptor memory must be freed.
    795           */

   \                                 In  segment BANKED_CODE, align 1, keep-with-next
    796          uint8 afFindSimpleDesc( SimpleDescriptionFormat_t **ppDesc, uint8 EP )
   \                     afFindSimpleDesc:
    797          {
   \   000000   74F4         MOV     A,#-0xc
   \   000002   12....       LCALL   ?BANKED_ENTER_XDATA
   \   000005                ; Saved register size: 12
   \   000005                ; Auto size: 0
   \   000005   EA           MOV     A,R2
   \   000006   FE           MOV     R6,A
   \   000007   EB           MOV     A,R3
   \   000008   FF           MOV     R7,A
   \   000009   89..         MOV     ?V0 + 0,R1
    798            epList_t *epItem = afFindEndPointDescList( EP );
   \   00000B                ; Setup parameters for call to function afFindEndPointDescList
   \   00000B   12....       LCALL   ??afFindEndPointDescList?relay
   \   00000E   8A..         MOV     ?V0 + 2,R2
   \   000010   8B..         MOV     ?V0 + 3,R3
   \   000012   AC..         MOV     R4,?V0 + 2
   \   000014   AD..         MOV     R5,?V0 + 3
    799            uint8 rtrn = FALSE;
   \   000016   7900         MOV     R1,#0x0
    800          
    801            if ( epItem )
   \   000018   EC           MOV     A,R4
   \   000019   4D           ORL     A,R5
   \   00001A   6039         JZ      ??afFindSimpleDesc_0
    802            {
    803              if ( epItem->pfnDescCB )
   \   00001C   8C82         MOV     DPL,R4
   \   00001E   8D83         MOV     DPH,R5
   \   000020   A3           INC     DPTR
   \   000021   A3           INC     DPTR
   \   000022   A3           INC     DPTR
   \   000023   A3           INC     DPTR
   \   000024   12....       LCALL   ?Subroutine17 & 0xFFFF
   \                     ??CrossCallReturnLabel_20:
   \   000027   E582         MOV     A,DPL
   \   000029   4583         ORL     A,DPH
   \   00002B   6013         JZ      ??afFindSimpleDesc_1
    804              {
    805                *ppDesc = epItem->pfnDescCB( AF_DESCRIPTOR_SIMPLE, EP );
   \   00002D                ; Setup parameters for indirect call
   \   00002D   AA..         MOV     R2,?V0 + 0
   \   00002F   09           INC     R1
   \   000030   12....       LCALL   ?CALL_IND
   \   000033   8E82         MOV     DPL,R6
   \   000035   8F83         MOV     DPH,R7
   \   000037   EA           MOV     A,R2
   \   000038   F0           MOVX    @DPTR,A
   \   000039   A3           INC     DPTR
   \   00003A   EB           MOV     A,R3
   \   00003B   F0           MOVX    @DPTR,A
    806                rtrn = TRUE;
   \   00003C   7901         MOV     R1,#0x1
   \   00003E   801D         SJMP    ??afFindSimpleDesc_2
    807              }
    808              else
    809              {
    810                *ppDesc = epItem->epDesc->simpleDesc;
   \                     ??afFindSimpleDesc_1:
   \   000040   8C82         MOV     DPL,R4
   \   000042   8D83         MOV     DPH,R5
   \   000044   A3           INC     DPTR
   \   000045   12....       LCALL   ?Subroutine29 & 0xFFFF
    811              }
    812            }
   \                     ??CrossCallReturnLabel_78:
   \   000048   12....       LCALL   ??Subroutine33_0 & 0xFFFF
   \                     ??CrossCallReturnLabel_71:
   \   00004B   8E82         MOV     DPL,R6
   \   00004D   8F83         MOV     DPH,R7
   \   00004F   EA           MOV     A,R2
   \   000050   F0           MOVX    @DPTR,A
   \   000051   A3           INC     DPTR
   \   000052   EB           MOV     A,R3
   \   000053   8007         SJMP    ??afFindSimpleDesc_3
    813            else
    814            {
    815              *ppDesc = NULL;
   \                     ??afFindSimpleDesc_0:
   \   000055   8E82         MOV     DPL,R6
   \   000057   8F83         MOV     DPH,R7
   \   000059   E4           CLR     A
   \   00005A   F0           MOVX    @DPTR,A
   \   00005B   A3           INC     DPTR
   \                     ??afFindSimpleDesc_3:
   \   00005C   F0           MOVX    @DPTR,A
    816            }
    817          
    818            return rtrn;
   \                     ??afFindSimpleDesc_2:
   \   00005D   02....       LJMP    ?Subroutine0 & 0xFFFF
    819          }

   \                                 In  segment BANKED_CODE, align 1, keep-with-next
   \                     ?Subroutine17:
   \   000000   E0           MOVX    A,@DPTR
   \   000001   FA           MOV     R2,A
   \   000002   A3           INC     DPTR
   \   000003   E0           MOVX    A,@DPTR
   \   000004   FB           MOV     R3,A
   \   000005   8A82         MOV     DPL,R2
   \   000007   8B83         MOV     DPH,R3
   \   000009   22           RET
    820          
    821          /*********************************************************************
    822           * @fn      afGetDescCB
    823           *
    824           * @brief   Get the Descriptor callback function.
    825           *
    826           * @param   epDesc - pointer to the endpoint descriptor
    827           *
    828           * @return  function pointer or NULL
    829           */
    830          static pDescCB afGetDescCB( endPointDesc_t *epDesc )
    831          {
    832            epList_t *epSearch;
    833          
    834            // Start at the beginning
    835            epSearch = epList;
    836          
    837            // Look through the list until the end
    838            while ( epSearch )
    839            {
    840              // Is there a match?
    841              if ( epSearch->epDesc == epDesc )
    842              {
    843                return ( epSearch->pfnDescCB );
    844              }
    845              else
    846                epSearch = epSearch->nextDesc;  // Next entry
    847            }
    848          
    849            return ( (pDescCB)NULL );
    850          }
    851          
    852          /*********************************************************************
    853           * @fn      afDataReqMTU
    854           *
    855           * @brief   Get the Data Request MTU(Max Transport Unit).
    856           *
    857           * @param   fields - afDataReqMTU_t
    858           *
    859           * @return  uint8(MTU)
    860           */

   \                                 In  segment BANKED_CODE, align 1, keep-with-next
    861          uint8 afDataReqMTU( afDataReqMTU_t* fields )
   \                     afDataReqMTU:
    862          {
   \   000000   74F7         MOV     A,#-0x9
   \   000002   12....       LCALL   ?BANKED_ENTER_XDATA
   \   000005                ; Saved register size: 9
   \   000005                ; Auto size: 0
    863            uint8 len;
    864            uint8 hdr;
    865          
    866            if ( fields->kvp == TRUE )
   \   000005   8A82         MOV     DPL,R2
   \   000007   8B83         MOV     DPH,R3
   \   000009   E0           MOVX    A,@DPTR
   \   00000A   6401         XRL     A,#0x1
   \   00000C   7004         JNZ     ??afDataReqMTU_0
    867            {
    868              hdr = AF_HDR_KVP_MAX_LEN;
   \   00000E   7E08         MOV     R6,#0x8
   \   000010   8002         SJMP    ??afDataReqMTU_1
    869            }
    870            else
    871            {
    872              hdr = AF_HDR_V1_1_MAX_LEN;
   \                     ??afDataReqMTU_0:
   \   000012   7E00         MOV     R6,#0x0
    873            }
    874          
    875            len = (uint8)(APSDE_DataReqMTU(&fields->aps) - hdr);
    876          
    877            return len;
   \                     ??afDataReqMTU_1:
   \   000014                ; Setup parameters for call to function APSDE_DataReqMTU
   \   000014   A3           INC     DPTR
   \   000015   AA82         MOV     R2,DPL
   \   000017   AB83         MOV     R3,DPH
   \   000019   12....       LCALL   ??APSDE_DataReqMTU?relay
   \   00001C   E9           MOV     A,R1
   \   00001D   C3           CLR     C
   \   00001E   9E           SUBB    A,R6
   \   00001F   F9           MOV     R1,A
   \   000020   02....       LJMP    ?Subroutine2 & 0xFFFF
    878          }
    879          
    880          /*********************************************************************
    881           * @fn      afGetMatch
    882           *
    883           * @brief   Set the allow response flag.
    884           *
    885           * @param   ep - Application Endpoint to look for
    886           * @param   action - true - allow response, false - no response
    887           *
    888           * @return  TRUE allow responses, FALSE no response
    889           */

   \                                 In  segment BANKED_CODE, align 1, keep-with-next
    890          uint8 afGetMatch( uint8 ep )
   \                     afGetMatch:
    891          {
   \   000000   74F6         MOV     A,#-0xa
   \   000002   12....       LCALL   ?BANKED_ENTER_XDATA
   \   000005                ; Saved register size: 10
   \   000005                ; Auto size: 0
    892            epList_t *epSearch;
    893          
    894            // Look for the endpoint
    895            epSearch = afFindEndPointDescList( ep );
   \   000005                ; Setup parameters for call to function afFindEndPointDescList
   \   000005   12....       LCALL   ??afFindEndPointDescList?relay
   \   000008   8A82         MOV     DPL,R2
   \   00000A   8B83         MOV     DPH,R3
    896          
    897            if ( epSearch )
   \   00000C   E582         MOV     A,DPL
   \   00000E   4583         ORL     A,DPH
   \   000010   6011         JZ      ??afGetMatch_0
    898            {
    899              if ( epSearch->flags & eEP_AllowMatch )
   \   000012   A3           INC     DPTR
   \   000013   A3           INC     DPTR
   \   000014   A3           INC     DPTR
   \   000015   A3           INC     DPTR
   \   000016   A3           INC     DPTR
   \   000017   A3           INC     DPTR
   \   000018   A3           INC     DPTR
   \   000019   A3           INC     DPTR
   \   00001A   E0           MOVX    A,@DPTR
   \   00001B   A2E0         MOV     C,0xE0 /* A   */.0
   \   00001D   5004         JNC     ??afGetMatch_0
    900                return ( TRUE );
   \   00001F   7901         MOV     R1,#0x1
   \   000021   8002         SJMP    ??afGetMatch_1
    901              else
    902                return ( FALSE );
    903            }
    904            else
    905              return ( FALSE );
   \                     ??afGetMatch_0:
   \   000023   7900         MOV     R1,#0x0
   \                     ??afGetMatch_1:
   \   000025                REQUIRE ?Subroutine1
   \   000025                ; // Fall through to label ?Subroutine1
    906          }
    907          
    908          /*********************************************************************
    909           * @fn      afSetMatch
    910           *
    911           * @brief   Set the allow response flag.
    912           *
    913           * @param   ep - Application Endpoint to look for
    914           * @param   action - true - allow response, false - no response
    915           *
    916           * @return  TRUE if success, FALSE if endpoint not found
    917           */

   \                                 In  segment BANKED_CODE, align 1, keep-with-next
    918          uint8 afSetMatch( uint8 ep, uint8 action )
   \                     afSetMatch:
    919          {
   \   000000   74F6         MOV     A,#-0xa
   \   000002   12....       LCALL   ?BANKED_ENTER_XDATA
   \   000005                ; Saved register size: 10
   \   000005                ; Auto size: 0
   \   000005   EA           MOV     A,R2
   \   000006   FF           MOV     R7,A
    920            epList_t *epSearch;
    921          
    922            // Look for the endpoint
    923            epSearch = afFindEndPointDescList( ep );
   \   000007                ; Setup parameters for call to function afFindEndPointDescList
   \   000007   12....       LCALL   ??afFindEndPointDescList?relay
   \   00000A   8A..         MOV     ?V0 + 0,R2
   \   00000C   8B..         MOV     ?V0 + 1,R3
   \   00000E   A8..         MOV     R0,?V0 + 0
   \   000010   A9..         MOV     R1,?V0 + 1
    924          
    925            if ( epSearch )
   \   000012   E8           MOV     A,R0
   \   000013   49           ORL     A,R1
   \   000014   6019         JZ      ??afSetMatch_0
    926            {
    927              if ( action )
   \   000016   E8           MOV     A,R0
   \   000017   2408         ADD     A,#0x8
   \   000019   F582         MOV     DPL,A
   \   00001B   E9           MOV     A,R1
   \   00001C   12....       LCALL   ??Subroutine37_0 & 0xFFFF
   \                     ??CrossCallReturnLabel_82:
   \   00001F   EF           MOV     A,R7
   \   000020   6005         JZ      ??afSetMatch_1
    928              {
    929                epSearch->flags |= eEP_AllowMatch;
   \   000022   E0           MOVX    A,@DPTR
   \   000023   D2E0         SETB    0xE0 /* A   */.0
   \   000025   8003         SJMP    ??afSetMatch_2
    930              }
    931              else
    932              {
    933                epSearch->flags &= (eEP_AllowMatch ^ 0xFFFF);
   \                     ??afSetMatch_1:
   \   000027   E0           MOVX    A,@DPTR
   \   000028   C2E0         CLR     0xE0 /* A   */.0
   \                     ??afSetMatch_2:
   \   00002A   F0           MOVX    @DPTR,A
    934              }
    935              return ( TRUE );
   \   00002B   7901         MOV     R1,#0x1
   \   00002D   8002         SJMP    ??afSetMatch_3
    936            }
    937            else
    938              return ( FALSE );
   \                     ??afSetMatch_0:
   \   00002F   7900         MOV     R1,#0x0
   \                     ??afSetMatch_3:
   \   000031   80..         SJMP    ?Subroutine1
    939          }
    940          
    941          /*********************************************************************
    942           * @fn      afNumEndPoints
    943           *
    944           * @brief   Returns the number of endpoints defined (including 0)
    945           *
    946           * @param   none
    947           *
    948           * @return  number of endpoints
    949           */

   \                                 In  segment BANKED_CODE, align 1, keep-with-next
    950          uint8 afNumEndPoints( void )
   \                     afNumEndPoints:
    951          {
   \   000000   C082         PUSH    DPL
   \   000002   C083         PUSH    DPH
   \   000004                ; Saved register size: 2
   \   000004                ; Auto size: 0
    952            epList_t *epSearch;
    953            uint8 endpoints;
    954          
    955            // Start at the beginning
    956            epSearch = epList;
   \   000004   90....       MOV     DPTR,#epList
   \   000007   12....       LCALL   ?Subroutine15 & 0xFFFF
    957            endpoints = 0;
   \                     ??CrossCallReturnLabel_19:
   \   00000A   7900         MOV     R1,#0x0
   \   00000C   8004         SJMP    ??CrossCallReturnLabel_21
    958          
    959            while ( epSearch )
    960            {
    961              endpoints++;
   \                     ??afNumEndPoints_0:
   \   00000E   09           INC     R1
    962              epSearch = epSearch->nextDesc;
   \   00000F   12....       LCALL   ?Subroutine17 & 0xFFFF
    963            }
   \                     ??CrossCallReturnLabel_21:
   \   000012   E582         MOV     A,DPL
   \   000014   4583         ORL     A,DPH
   \   000016   70F6         JNZ     ??afNumEndPoints_0
    964          
    965            return ( endpoints );
   \   000018   02....       LJMP    ?Subroutine5 & 0xFFFF
    966          }
    967          
    968          /*********************************************************************
    969           * @fn      afEndPoints
    970           *
    971           * @brief   Fills in the passed in buffer with the endpoint (numbers).
    972           *          Use afNumEndPoints to find out how big a buffer to supply.
    973           *
    974           * @param   epBuf - pointer to mem used
    975           *
    976           * @return  void
    977           */

   \                                 In  segment BANKED_CODE, align 1, keep-with-next
    978          void afEndPoints( uint8 *epBuf, uint8 skipZDO )
   \                     afEndPoints:
    979          {
   \   000000   C082         PUSH    DPL
   \   000002   C083         PUSH    DPH
   \   000004                ; Saved register size: 2
   \   000004                ; Auto size: 0
    980            epList_t *epSearch;
    981            uint8 endPoint;
    982          
    983            // Start at the beginning
    984            epSearch = epList;
   \   000004   90....       MOV     DPTR,#epList
   \   000007   801D         SJMP    ??afEndPoints_0
    985          
    986            while ( epSearch )
    987            {
    988              endPoint = epSearch->epDesc->endPoint;
   \                     ??afEndPoints_1:
   \   000009   8C82         MOV     DPL,R4
   \   00000B   8D83         MOV     DPH,R5
   \   00000D   12....       LCALL   ?Subroutine9 & 0xFFFF
   \                     ??CrossCallReturnLabel_77:
   \   000010   F8           MOV     R0,A
    989          
    990              if ( !skipZDO || endPoint != 0 )
   \   000011   E9           MOV     A,R1
   \   000012   6003         JZ      ??afEndPoints_2
   \   000014   E8           MOV     A,R0
   \   000015   600B         JZ      ??afEndPoints_3
    991                *epBuf++ = endPoint;
   \                     ??afEndPoints_2:
   \   000017   E8           MOV     A,R0
   \   000018   8A82         MOV     DPL,R2
   \   00001A   8B83         MOV     DPH,R3
   \   00001C   F0           MOVX    @DPTR,A
   \   00001D   A3           INC     DPTR
   \   00001E   AA82         MOV     R2,DPL
   \   000020   AB83         MOV     R3,DPH
    992          
    993              epSearch = epSearch->nextDesc;
   \                     ??afEndPoints_3:
   \   000022   8C82         MOV     DPL,R4
   \   000024   8D83         MOV     DPH,R5
    994            }
   \                     ??afEndPoints_0:
   \   000026   12....       LCALL   ??Subroutine38_0 & 0xFFFF
   \                     ??CrossCallReturnLabel_95:
   \   000029   EC           MOV     A,R4
   \   00002A   4D           ORL     A,R5
   \   00002B   70DC         JNZ     ??afEndPoints_1
    995          }
   \   00002D   02....       LJMP    ?Subroutine5 & 0xFFFF
    996          
    997          /*********************************************************************
    998           * @fn      afCopyAddress
    999           *
   1000           * @brief   Fills in the passed in afAddrType_t parameter with the corresponding information
   1001           *          from the zAddrType_t parameter.
   1002           *
   1003           * @param   epBuf - pointer to mem used
   1004           *
   1005           * @return  void
   1006           */

   \                                 In  segment BANKED_CODE, align 1, keep-with-next
   1007          void afCopyAddress( afAddrType_t *afAddr, zAddrType_t *zAddr )
   \                     afCopyAddress:
   1008          {
   \   000000   74F7         MOV     A,#-0x9
   \   000002   12....       LCALL   ?BANKED_ENTER_XDATA
   \   000005                ; Saved register size: 9
   \   000005                ; Auto size: 0
   \   000005   EA           MOV     A,R2
   \   000006   FE           MOV     R6,A
   \   000007   EB           MOV     A,R3
   \   000008   FF           MOV     R7,A
   1009            afAddr->addrMode = (afAddrMode_t)zAddr->addrMode;
   \   000009   EC           MOV     A,R4
   \   00000A   2408         ADD     A,#0x8
   \   00000C   F8           MOV     R0,A
   \   00000D   ED           MOV     A,R5
   \   00000E   3400         ADDC    A,#0x0
   \   000010   F9           MOV     R1,A
   \   000011   8882         MOV     DPL,R0
   \   000013   8983         MOV     DPH,R1
   \   000015   E0           MOVX    A,@DPTR
   \   000016   8E82         MOV     DPL,R6
   \   000018   8F83         MOV     DPH,R7
   \   00001A   A3           INC     DPTR
   \   00001B   A3           INC     DPTR
   \   00001C   A3           INC     DPTR
   \   00001D   A3           INC     DPTR
   \   00001E   A3           INC     DPTR
   \   00001F   A3           INC     DPTR
   \   000020   A3           INC     DPTR
   \   000021   A3           INC     DPTR
   \   000022   F0           MOVX    @DPTR,A
   1010            if ( zAddr->addrMode == Addr64Bit )
   \   000023   8882         MOV     DPL,R0
   \   000025   8983         MOV     DPH,R1
   \   000027   E0           MOVX    A,@DPTR
   \   000028   6403         XRL     A,#0x3
   \   00002A   7005         JNZ     ??afCopyAddress_0
   1011            {
   1012              (void)osal_cpyExtAddr( afAddr->addr.extAddr, zAddr->addr.extAddr );
   \   00002C                ; Setup parameters for call to function sAddrExtCpy
   \   00002C   12....       LCALL   ??sAddrExtCpy?relay
   \   00002F   800A         SJMP    ??CrossCallReturnLabel_48
   1013            }
   1014            else
   1015            {
   1016              afAddr->addr.shortAddr = zAddr->addr.shortAddr;
   \                     ??afCopyAddress_0:
   \   000031   8C82         MOV     DPL,R4
   \   000033   8D83         MOV     DPH,R5
   \   000035   12....       LCALL   ?Subroutine14 & 0xFFFF
   1017            }
   \                     ??CrossCallReturnLabel_17:
   \   000038   12....       LCALL   ??Subroutine31_0 & 0xFFFF
   1018          
   1019            // Since zAddrType_t has no INTER-PAN information, set the panId member to zero.
   1020            afAddr->panId = 0;
   \                     ??CrossCallReturnLabel_48:
   \   00003B   8E82         MOV     DPL,R6
   \   00003D   8F83         MOV     DPH,R7
   \   00003F   A3           INC     DPTR
   \   000040   A3           INC     DPTR
   \   000041   A3           INC     DPTR
   \   000042   A3           INC     DPTR
   \   000043   A3           INC     DPTR
   \   000044   A3           INC     DPTR
   \   000045   A3           INC     DPTR
   \   000046   A3           INC     DPTR
   \   000047   A3           INC     DPTR
   \   000048   A3           INC     DPTR
   \   000049   E4           CLR     A
   \   00004A   F0           MOVX    @DPTR,A
   \   00004B   A3           INC     DPTR
   \   00004C   F0           MOVX    @DPTR,A
   1021          }
   \   00004D   02....       LJMP    ?Subroutine2 & 0xFFFF
   1022          
   1023          /**************************************************************************************************
   1024           * @fn          afAPSF_ConfigGet
   1025           *
   1026           * @brief       This function ascertains the fragmentation configuration that corresponds to
   1027           *              the specified EndPoint.
   1028           *
   1029           * input parameters
   1030           *
   1031           * @param       endPoint - The source EP of a Tx or destination EP of a Rx fragmented message.
   1032           *
   1033           * output parameters
   1034           *
   1035           * @param       pCfg - A pointer to an APSF configuration structure to fill with values.
   1036           *
   1037           * @return      None.
   1038           */

   \                                 In  segment BANKED_CODE, align 1, keep-with-next
   1039          void afAPSF_ConfigGet(uint8 endPoint, afAPSF_Config_t *pCfg)
   \                     afAPSF_ConfigGet:
   1040          {
   \   000000   74F4         MOV     A,#-0xc
   \   000002   12....       LCALL   ?BANKED_ENTER_XDATA
   \   000005                ; Saved register size: 12
   \   000005                ; Auto size: 0
   \   000005   EA           MOV     A,R2
   \   000006   FE           MOV     R6,A
   \   000007   EB           MOV     A,R3
   \   000008   FF           MOV     R7,A
   1041            epList_t *pList = afFindEndPointDescList(endPoint);
   \   000009                ; Setup parameters for call to function afFindEndPointDescList
   \   000009   12....       LCALL   ??afFindEndPointDescList?relay
   \   00000C   8A..         MOV     ?V0 + 0,R2
   \   00000E   8B..         MOV     ?V0 + 1,R3
   \   000010   A8..         MOV     R0,?V0 + 0
   \   000012   A9..         MOV     R1,?V0 + 1
   1042          
   1043            if (pList == NULL)
   \   000014   E8           MOV     A,R0
   \   000015   49           ORL     A,R1
   \   000016   700D         JNZ     ??afAPSF_ConfigGet_0
   1044            {
   1045              pCfg->frameDelay = APSF_DEFAULT_INTERFRAME_DELAY;
   \   000018   8E82         MOV     DPL,R6
   \   00001A   8F83         MOV     DPH,R7
   \   00001C   7432         MOV     A,#0x32
   \   00001E   F0           MOVX    @DPTR,A
   1046              pCfg->windowSize = APSF_DEFAULT_WINDOW_SIZE;
   \   00001F   A3           INC     DPTR
   \   000020   7401         MOV     A,#0x1
   \   000022   F0           MOVX    @DPTR,A
   \   000023   8022         SJMP    ??afAPSF_ConfigGet_1
   1047            }
   1048            else
   1049            {
   1050              (void)osal_memcpy(pCfg, &pList->apsfCfg, sizeof(afAPSF_Config_t));
   \                     ??afAPSF_ConfigGet_0:
   \   000025                ; Setup parameters for call to function osal_memcpy
   \   000025   E8           MOV     A,R0
   \   000026   2406         ADD     A,#0x6
   \   000028   F5..         MOV     ?V0 + 0,A
   \   00002A   E9           MOV     A,R1
   \   00002B   3400         ADDC    A,#0x0
   \   00002D   F5..         MOV     ?V0 + 1,A
   \   00002F   75..00       MOV     ?V0 + 2,#0x0
   \   000032   78..         MOV     R0,#?V0 + 0
   \   000034   12....       LCALL   ?PUSH_XSTACK_I_THREE
   \   000037   7C02         MOV     R4,#0x2
   \   000039   7D00         MOV     R5,#0x0
   \   00003B   EE           MOV     A,R6
   \   00003C   FA           MOV     R2,A
   \   00003D   EF           MOV     A,R7
   \   00003E   FB           MOV     R3,A
   \   00003F   12....       LCALL   ??osal_memcpy?relay
   \   000042   7403         MOV     A,#0x3
   \   000044   12....       LCALL   ?DEALLOC_XSTACK8
   1051            }
   1052          }
   \                     ??afAPSF_ConfigGet_1:
   \   000047                REQUIRE ?Subroutine0
   \   000047                ; // Fall through to label ?Subroutine0
   1053          
   1054          /**************************************************************************************************
   1055           * @fn          afAPSF_ConfigSet
   1056           *
   1057           * @brief       This function attempts to set the fragmentation configuration that corresponds to
   1058           *              the specified EndPoint.
   1059           *
   1060           * input parameters
   1061           *
   1062           * @param       endPoint - The specific EndPoint for which to set the fragmentation configuration.
   1063           * @param       pCfg - A pointer to an APSF configuration structure to fill with values.
   1064           *
   1065           * output parameters
   1066           *
   1067           * None.
   1068           *
   1069           * @return      afStatus_SUCCESS for success.
   1070           *              afStatus_INVALID_PARAMETER if the specified EndPoint is not registered.
   1071           */

   \                                 In  segment BANKED_CODE, align 1, keep-with-next
   1072          afStatus_t afAPSF_ConfigSet(uint8 endPoint, afAPSF_Config_t *pCfg)
   \                     afAPSF_ConfigSet:
   1073          {
   \   000000   74F4         MOV     A,#-0xc
   \   000002   12....       LCALL   ?BANKED_ENTER_XDATA
   \   000005                ; Saved register size: 12
   \   000005                ; Auto size: 0
   \   000005   EA           MOV     A,R2
   \   000006   FE           MOV     R6,A
   \   000007   EB           MOV     A,R3
   \   000008   FF           MOV     R7,A
   1074            epList_t *pList = afFindEndPointDescList(endPoint);
   \   000009                ; Setup parameters for call to function afFindEndPointDescList
   \   000009   12....       LCALL   ??afFindEndPointDescList?relay
   1075          
   1076            if (pList == NULL)
   \   00000C   EA           MOV     A,R2
   \   00000D   4B           ORL     A,R3
   \   00000E   7004         JNZ     ??afAPSF_ConfigSet_0
   1077            {
   1078              return afStatus_INVALID_PARAMETER;
   \   000010   7902         MOV     R1,#0x2
   \   000012   8022         SJMP    ??afAPSF_ConfigSet_1
   1079            }
   1080          
   1081            (void)osal_memcpy(&pList->apsfCfg, pCfg, sizeof(afAPSF_Config_t));
   \                     ??afAPSF_ConfigSet_0:
   \   000014                ; Setup parameters for call to function osal_memcpy
   \   000014   8E..         MOV     ?V0 + 0,R6
   \   000016   8F..         MOV     ?V0 + 1,R7
   \   000018   75..00       MOV     ?V0 + 2,#0x0
   \   00001B   78..         MOV     R0,#?V0 + 0
   \   00001D   12....       LCALL   ?PUSH_XSTACK_I_THREE
   \   000020   7C02         MOV     R4,#0x2
   \   000022   7D00         MOV     R5,#0x0
   \   000024   EA           MOV     A,R2
   \   000025   2406         ADD     A,#0x6
   \   000027   FA           MOV     R2,A
   \   000028   EB           MOV     A,R3
   \   000029   3400         ADDC    A,#0x0
   \   00002B   FB           MOV     R3,A
   \   00002C   12....       LCALL   ??osal_memcpy?relay
   \   00002F   7403         MOV     A,#0x3
   \   000031   12....       LCALL   ?DEALLOC_XSTACK8
   1082            return afStatus_SUCCESS;
   \   000034   7900         MOV     R1,#0x0
   \                     ??afAPSF_ConfigSet_1:
   \   000036   80..         SJMP    ?Subroutine0
   1083          }

   \                                 In  segment XDATA_ID, align 1, keep-with-next
   \                     `?<Initializer for AF_DataRequestDiscoverRoute>`:
   \   000000   01           DB 1

   \                                 In  segment BANK_RELAYS, align 1
   \                     ??afRegisterExtended?relay:
   \   000000   12....       LCALL   ?BDISPATCH
   \   000003   ......       DC24    afRegisterExtended

   \                                 In  segment BANK_RELAYS, align 1
   \                     ??afRegister?relay:
   \   000000   12....       LCALL   ?BDISPATCH
   \   000003   ......       DC24    afRegister

   \                                 In  segment BANK_RELAYS, align 1
   \                     ??afDelete?relay:
   \   000000   12....       LCALL   ?BDISPATCH
   \   000003   ......       DC24    afDelete

   \                                 In  segment BANK_RELAYS, align 1
   \                     ??afDataConfirm?relay:
   \   000000   12....       LCALL   ?BDISPATCH
   \   000003   ......       DC24    afDataConfirm

   \                                 In  segment BANK_RELAYS, align 1
   \                     ??afIncomingData?relay:
   \   000000   12....       LCALL   ?BDISPATCH
   \   000003   ......       DC24    afIncomingData

   \                                 In  segment BANK_RELAYS, align 1
   \                     ??afBuildMSGIncoming?relay:
   \   000000   12....       LCALL   ?BDISPATCH
   \   000003   ......       DC24    afBuildMSGIncoming

   \                                 In  segment BANK_RELAYS, align 1
   \                     ??AF_DataRequest?relay:
   \   000000   12....       LCALL   ?BDISPATCH
   \   000003   ......       DC24    AF_DataRequest

   \                                 In  segment BANK_RELAYS, align 1
   \                     ??AF_DataRequestSrcRtg?relay:
   \   000000   12....       LCALL   ?BDISPATCH
   \   000003   ......       DC24    AF_DataRequestSrcRtg

   \                                 In  segment BANK_RELAYS, align 1
   \                     ??afFindEndPointDescList?relay:
   \   000000   12....       LCALL   ?BDISPATCH
   \   000003   ......       DC24    afFindEndPointDescList

   \                                 In  segment BANK_RELAYS, align 1
   \                     ??afFindEndPointDesc?relay:
   \   000000   12....       LCALL   ?BDISPATCH
   \   000003   ......       DC24    afFindEndPointDesc

   \                                 In  segment BANK_RELAYS, align 1
   \                     ??afFindSimpleDesc?relay:
   \   000000   12....       LCALL   ?BDISPATCH
   \   000003   ......       DC24    afFindSimpleDesc

   \                                 In  segment BANK_RELAYS, align 1
   \                     ??afDataReqMTU?relay:
   \   000000   12....       LCALL   ?BDISPATCH
   \   000003   ......       DC24    afDataReqMTU

   \                                 In  segment BANK_RELAYS, align 1
   \                     ??afGetMatch?relay:
   \   000000   12....       LCALL   ?BDISPATCH
   \   000003   ......       DC24    afGetMatch

   \                                 In  segment BANK_RELAYS, align 1
   \                     ??afSetMatch?relay:
   \   000000   12....       LCALL   ?BDISPATCH
   \   000003   ......       DC24    afSetMatch

   \                                 In  segment BANK_RELAYS, align 1
   \                     ??afNumEndPoints?relay:
   \   000000   12....       LCALL   ?BDISPATCH
   \   000003   ......       DC24    afNumEndPoints

   \                                 In  segment BANK_RELAYS, align 1
   \                     ??afEndPoints?relay:
   \   000000   12....       LCALL   ?BDISPATCH
   \   000003   ......       DC24    afEndPoints

   \                                 In  segment BANK_RELAYS, align 1
   \                     ??afCopyAddress?relay:
   \   000000   12....       LCALL   ?BDISPATCH
   \   000003   ......       DC24    afCopyAddress

   \                                 In  segment BANK_RELAYS, align 1
   \                     ??afAPSF_ConfigGet?relay:
   \   000000   12....       LCALL   ?BDISPATCH
   \   000003   ......       DC24    afAPSF_ConfigGet

   \                                 In  segment BANK_RELAYS, align 1
   \                     ??afAPSF_ConfigSet?relay:
   \   000000   12....       LCALL   ?BDISPATCH
   \   000003   ......       DC24    afAPSF_ConfigSet
   1084          
   1085          /**************************************************************************************************
   1086          */

   Maximum stack usage in bytes:

   ISTACK PSTACK XSTACK Function
   ------ ------ ------ --------
       1      0     79  AF_DataRequest
                          0 0 50 -> APSDE_DataReq
                          0 0 50 -> NLME_GetShortAddr
                          0 0 50 -> NLME_IsAddressBroadcast
                          0 0 50 -> RTG_CheckRtStatus
                          0 0 50 -> afDataConfirm
                          0 0 50 -> afDataReqMTU
                          0 0 50 -> osal_mem_free
                          0 0 50 -> sAddrExtCpy
       0      0     41  AF_DataRequestSrcRtg
                          0 0 29 -> AF_DataRequest
                          0 0 20 -> RTG_AddSrcRtgEntry_Guaranteed
       0      0     15  afAPSF_ConfigGet
                          0 0 12 -> afFindEndPointDescList
                          0 0 15 -> osal_memcpy
       0      0     15  afAPSF_ConfigSet
                          0 0 12 -> afFindEndPointDescList
                          0 0 15 -> osal_memcpy
       1      0     65  afBuildMSGIncoming
                          0 0 24 -> afCopyAddress
                          0 0 27 -> osal_memcpy
                          0 0 24 -> osal_msg_allocate
                          0 0 24 -> osal_msg_send
       1      0     33  afCopyAddress
                          0 0  9 -> sAddrExtCpy
       1      0     64  afDataConfirm
                          0 0 14 -> afFindEndPointDesc
                          0 0 14 -> osal_msg_allocate
                          0 0 14 -> osal_msg_send
       0      0     59  afDataReqMTU
                          0 0  9 -> APSDE_DataReqMTU
       0      0      9  afDelete
                          0 0  9 -> osal_mem_free
       3      0      0  afEndPoints
       0      0     37  afFindEndPointDesc
                          0 0 10 -> afFindEndPointDescList
       2      0     27  afFindEndPointDescList
       0      0     12  afFindSimpleDesc
                          0 0 12 -> afFindEndPointDescList
       0      0     10  afGetMatch
                          0 0 10 -> afFindEndPointDescList
       1      0     47  afIncomingData
                          0 0 38 -> afBuildMSGIncoming
                          0 0 27 -> afFindEndPointDesc
                          0 0 27 -> afFindEndPointDescList
                          0 0 27 -> aps_FindGroupForEndpoint
                          0 0 27 -> osal_mem_free
       2      0      0  afNumEndPoints
       0      0     10  afRegister
                          0 0 10 -> afFindEndPointDescList
                          0 0 10 -> afRegisterExtended
       0      0     22  afRegisterExtended
                          0 0 12 -> osal_mem_alloc
       0      0     10  afSetMatch
                          0 0 10 -> afFindEndPointDescList


   Segment part sizes:

   Bytes  Function/Label
   -----  --------------
       1  ?<Initializer for AF_DataRequestDiscoverRoute>
       6  ??AF_DataRequest?relay
       6  ??AF_DataRequestSrcRtg?relay
       6  ??Subroutine31_0
       4  ??Subroutine32_0
       1  ??Subroutine33_0
       2  ??Subroutine34_0
       6  ??Subroutine35_0
       5  ??Subroutine36_0
       5  ??Subroutine37_0
       6  ??Subroutine38_0
       6  ??afAPSF_ConfigGet?relay
       6  ??afAPSF_ConfigSet?relay
       6  ??afBuildMSGIncoming?relay
       6  ??afCopyAddress?relay
       6  ??afDataConfirm?relay
       6  ??afDataReqMTU?relay
       6  ??afDelete?relay
       6  ??afEndPoints?relay
       6  ??afFindEndPointDesc?relay
       6  ??afFindEndPointDescList?relay
       6  ??afFindSimpleDesc?relay
       6  ??afGetMatch?relay
       6  ??afIncomingData?relay
       6  ??afNumEndPoints?relay
       6  ??afRegister?relay
       6  ??afRegisterExtended?relay
       6  ??afSetMatch?relay
       5  ?Subroutine0
       5  ?Subroutine1
       6  ?Subroutine10
      14  ?Subroutine11
      10  ?Subroutine12
       8  ?Subroutine13
       4  ?Subroutine14
       4  ?Subroutine15
       1  ?Subroutine16
      10  ?Subroutine17
       1  ?Subroutine18
       9  ?Subroutine19
       5  ?Subroutine2
       7  ?Subroutine20
       7  ?Subroutine21
       8  ?Subroutine22
       4  ?Subroutine23
       8  ?Subroutine24
       3  ?Subroutine25
      10  ?Subroutine26
       8  ?Subroutine27
       8  ?Subroutine28
      10  ?Subroutine29
       5  ?Subroutine3
       6  ?Subroutine30
       5  ?Subroutine4
       7  ?Subroutine5
       8  ?Subroutine6
      11  ?Subroutine7
       4  ?Subroutine8
       1  ?Subroutine9
     737  AF_DataRequest
       1  AF_DataRequestDiscoverRoute
     154  AF_DataRequestSrcRtg
      71  afAPSF_ConfigGet
      56  afAPSF_ConfigSet
     447  afBuildMSGIncoming
      80  afCopyAddress
      75  afDataConfirm
      35  afDataReqMTU
     103  afDelete
      48  afEndPoints
      30  afFindEndPointDesc
      30  afFindEndPointDescList
      96  afFindSimpleDesc
      37  afGetMatch
     495  afIncomingData
      27  afNumEndPoints
      56  afRegister
      80  afRegisterExtended
      51  afSetMatch
       2  epList

 
 2 945 bytes in segment BANKED_CODE
   114 bytes in segment BANK_RELAYS
     1 byte  in segment XDATA_I
     1 byte  in segment XDATA_ID
     2 bytes in segment XDATA_Z
 
 3 060 bytes of CODE  memory
     3 bytes of XDATA memory

Errors: none
Warnings: none
