///////////////////////////////////////////////////////////////////////////////
//                                                                            /
// IAR C/C++ Compiler V8.20.2.41139 for 8051            02/Apr/2014  09:56:04 /
// Copyright 2004-2013 IAR Systems AB.                                        /
//                                                                            /
//    Core               =  plain                                             /
//    Code model         =  banked                                            /
//    Data model         =  large                                             /
//    Calling convention =  xdata reentrant                                   /
//    Constant location  =  data_rom                                          /
//    Dptr setup         =  1,16                                              /
//                                                                            /
//    Source file        =  E:\wise-house\Components\mt\MT_AF.c               /
//    Command line       =  -f E:\wise-house\Projects\zstack\Samples\MyGeneri /
//                          cApp\CC2530DB\..\..\..\Tools\CC2530DB\f8wCoord.cf /
//                          g (-DCPU32MHZ -DROOT=__near_func                  /
//                          -DMAC_CFG_APP_PENDING_QUEUE=TRUE                  /
//                          -DMAC_CFG_TX_DATA_MAX=5 -DMAC_CFG_TX_MAX=8        /
//                          -DMAC_CFG_RX_MAX=5 -DZDO_COORDINATOR -DRTR_NWK)   /
//                          -f E:\wise-house\Projects\zstack\Samples\MyGeneri /
//                          cApp\CC2530DB\..\..\..\Tools\CC2530DB\f8wConfig.c /
//                          fg (-DZIGBEEPRO -DSECURE=0 -DZG_SECURE_DYNAMIC=0  /
//                          -DREFLECTOR -DDEFAULT_CHANLIST=0x00000800         /
//                          -DZDAPP_CONFIG_PAN_ID=0xFFFF                      /
//                          -DNWK_START_DELAY=100 -DEXTENDED_JOINING_RANDOM_M /
//                          ASK=0x007F -DBEACON_REQUEST_DELAY=100             /
//                          -DBEACON_REQ_DELAY_MASK=0x00FF                    /
//                          -DLINK_STATUS_JITTER_MASK=0x007F                  /
//                          -DROUTE_EXPIRY_TIME=30 -DAPSC_ACK_WAIT_DURATION_P /
//                          OLLED=3000 -DNWK_INDIRECT_MSG_TIMEOUT=7           /
//                          -DMAX_RREQ_ENTRIES=8 -DAPSC_MAX_FRAME_RETRIES=3   /
//                          -DNWK_MAX_DATA_RETRIES=2                          /
//                          -DMAX_POLL_FAILURE_RETRIES=2 -DMAX_BCAST=9        /
//                          -DAPS_MAX_GROUPS=16 -DMAX_RTG_ENTRIES=40          /
//                          -DNWK_MAX_BINDING_ENTRIES=4                       /
//                          -DMAX_BINDING_CLUSTER_IDS=4                       /
//                          "-DDEFAULT_KEY={0x01, 0x03, 0x05, 0x07, 0x09,     /
//                          0x0B, 0x0D, 0x0F, 0x00, 0x02, 0x04, 0x06, 0x08,   /
//                          0x0A, 0x0C, 0x0D}" -DMAC_MAX_FRAME_SIZE=116       /
//                          -DZDNWKMGR_MIN_TRANSMISSIONS=20 "-DCONST=const    /
//                          __code" -DGENERIC=__generic                       /
//                          -DRFD_RCVC_ALWAYS_ON=TRUE -DPOLL_RATE=1000        /
//                          -DQUEUED_POLL_RATE=100 -DRESPONSE_POLL_RATE=100)  /
//                          -DREJOIN_POLL_RATE=440 E:\wise-house\Components\m /
//                          t\MT_AF.c -D ZTOOL_P1 -D MT_TASK -D MT_SYS_FUNC   /
//                          -D MT_ZDO_FUNC -D LCD_SUPPORTED=DEBUG -D          /
//                          NV_RESTORE=1 -lC E:\wise-house\Projects\zstack\Sa /
//                          mples\MyGenericApp\CC2530DB\CoordinatorEB\List\   /
//                          -lA E:\wise-house\Projects\zstack\Samples\MyGener /
//                          icApp\CC2530DB\CoordinatorEB\List\                /
//                          --diag_suppress Pe001,Pa010 -o                    /
//                          E:\wise-house\Projects\zstack\Samples\MyGenericAp /
//                          p\CC2530DB\CoordinatorEB\Obj\ -e --debug          /
//                          --core=plain --dptr=16,1 --data_model=large       /
//                          --code_model=banked --calling_convention=xdata_re /
//                          entrant --place_constants=data_rom                /
//                          --nr_virtual_regs 16 -I                           /
//                          E:\wise-house\Projects\zstack\Samples\MyGenericAp /
//                          p\CC2530DB\ -I E:\wise-house\Projects\zstack\Samp /
//                          les\MyGenericApp\CC2530DB\..\Source\ -I           /
//                          E:\wise-house\Projects\zstack\Samples\MyGenericAp /
//                          p\CC2530DB\..\..\..\ZMain\TI2530DB\ -I            /
//                          E:\wise-house\Projects\zstack\Samples\MyGenericAp /
//                          p\CC2530DB\..\..\..\..\..\Components\hal\include\ /
//                           -I E:\wise-house\Projects\zstack\Samples\MyGener /
//                          icApp\CC2530DB\..\..\..\..\..\Components\hal\targ /
//                          et\CC2530EB\ -I E:\wise-house\Projects\zstack\Sam /
//                          ples\MyGenericApp\CC2530DB\..\..\..\..\..\Compone /
//                          nts\mac\include\ -I E:\wise-house\Projects\zstack /
//                          \Samples\MyGenericApp\CC2530DB\..\..\..\..\..\Com /
//                          ponents\mac\high_level\ -I                        /
//                          E:\wise-house\Projects\zstack\Samples\MyGenericAp /
//                          p\CC2530DB\..\..\..\..\..\Components\mac\low_leve /
//                          l\srf04\ -I E:\wise-house\Projects\zstack\Samples /
//                          \MyGenericApp\CC2530DB\..\..\..\..\..\Components\ /
//                          mac\low_level\srf04\single_chip\ -I               /
//                          E:\wise-house\Projects\zstack\Samples\MyGenericAp /
//                          p\CC2530DB\..\..\..\..\..\Components\mt\ -I       /
//                          E:\wise-house\Projects\zstack\Samples\MyGenericAp /
//                          p\CC2530DB\..\..\..\..\..\Components\osal\include /
//                          \ -I E:\wise-house\Projects\zstack\Samples\MyGene /
//                          ricApp\CC2530DB\..\..\..\..\..\Components\service /
//                          s\saddr\ -I E:\wise-house\Projects\zstack\Samples /
//                          \MyGenericApp\CC2530DB\..\..\..\..\..\Components\ /
//                          services\sdata\ -I E:\wise-house\Projects\zstack\ /
//                          Samples\MyGenericApp\CC2530DB\..\..\..\..\..\Comp /
//                          onents\stack\af\ -I E:\wise-house\Projects\zstack /
//                          \Samples\MyGenericApp\CC2530DB\..\..\..\..\..\Com /
//                          ponents\stack\nwk\ -I E:\wise-house\Projects\zsta /
//                          ck\Samples\MyGenericApp\CC2530DB\..\..\..\..\..\C /
//                          omponents\stack\sapi\ -I                          /
//                          E:\wise-house\Projects\zstack\Samples\MyGenericAp /
//                          p\CC2530DB\..\..\..\..\..\Components\stack\sec\   /
//                          -I E:\wise-house\Projects\zstack\Samples\MyGeneri /
//                          cApp\CC2530DB\..\..\..\..\..\Components\stack\sys /
//                          \ -I E:\wise-house\Projects\zstack\Samples\MyGene /
//                          ricApp\CC2530DB\..\..\..\..\..\Components\stack\z /
//                          do\ -I E:\wise-house\Projects\zstack\Samples\MyGe /
//                          nericApp\CC2530DB\..\..\..\..\..\Components\zmac\ /
//                           -I E:\wise-house\Projects\zstack\Samples\MyGener /
//                          icApp\CC2530DB\..\..\..\..\..\Components\zmac\f8w /
//                          \ -Ohz                                            /
//    List file          =  E:\wise-house\Projects\zstack\Samples\MyGenericAp /
//                          p\CC2530DB\CoordinatorEB\List\MT_AF.s51           /
//                                                                            /
//                                                                            /
///////////////////////////////////////////////////////////////////////////////

        NAME MT_AF

        RTMODEL "__SystemLibrary", "CLib"
        RTMODEL "__calling_convention", "xdata_reentrant"
        RTMODEL "__code_model", "banked"
        RTMODEL "__core", "plain"
        RTMODEL "__data_model", "large"
        RTMODEL "__dptr_size", "16"
        RTMODEL "__extended_stack", "disabled"
        RTMODEL "__location_for_constants", "data"
        RTMODEL "__number_of_dptrs", "1"
        RTMODEL "__rt_version", "1"

        RSEG DOVERLAY:DATA:NOROOT(0)
        RSEG IOVERLAY:IDATA:NOROOT(0)
        RSEG ISTACK:IDATA:NOROOT(0)
        RSEG PSTACK:XDATA:NOROOT(0)
        RSEG XSTACK:XDATA:NOROOT(0)

        EXTERN ?ALLOC_XSTACK8
        EXTERN ?BANKED_ENTER_XDATA
        EXTERN ?BANKED_LEAVE_XDATA
        EXTERN ?BDISPATCH
        EXTERN ?BRET
        EXTERN ?DEALLOC_XSTACK8
        EXTERN ?L_ADD
        EXTERN ?L_EQ_X
        EXTERN ?L_MOV_X
        EXTERN ?L_SHL
        EXTERN ?PUSH_XSTACK8_X_TWO
        EXTERN ?PUSH_XSTACK_I_ONE
        EXTERN ?PUSH_XSTACK_I_THREE
        EXTERN ?PUSH_XSTACK_I_TWO
        EXTERN ?UL_SHR
        EXTERN ?V0
        EXTERN ?XLOAD_R2345
        EXTERN ?XSP
        EXTERN ?XSTACK_DISP0_8
        EXTERN ?XSTORE_R2345
        EXTERN __INIT_XDATA_Z

        PUBLIC ??MT_AfCommandProcessing?relay
        FUNCTION ??MT_AfCommandProcessing?relay,0203H
        PUBLIC ??MT_AfDataConfirm?relay
        FUNCTION ??MT_AfDataConfirm?relay,0203H
        PUBLIC ??MT_AfDataRequest?relay
        FUNCTION ??MT_AfDataRequest?relay,0203H
        PUBLIC ??MT_AfDataRequestSrcRtg?relay
        FUNCTION ??MT_AfDataRequestSrcRtg?relay,0203H
        FUNCTION ??MT_AfDataRetrieve?relay,0203H
        FUNCTION ??MT_AfDataStore?relay,0203H
        PUBLIC ??MT_AfExec?relay
        FUNCTION ??MT_AfExec?relay,0203H
        PUBLIC ??MT_AfIncomingMsg?relay
        FUNCTION ??MT_AfIncomingMsg?relay,0203H
        PUBLIC ??MT_AfRegister?relay
        FUNCTION ??MT_AfRegister?relay,0203H
        PUBLIC MT_AfCommandProcessing
        FUNCTION MT_AfCommandProcessing,021203H
        ARGFRAME XSTACK, 0, STACK
        LOCFRAME ISTACK, 1, STACK
        LOCFRAME XSTACK, 12, STACK
        PUBLIC MT_AfDataConfirm
        FUNCTION MT_AfDataConfirm,021203H
        ARGFRAME XSTACK, 0, STACK
        LOCFRAME ISTACK, 3, STACK
        LOCFRAME XSTACK, 3, STACK
        PUBLIC MT_AfDataRequest
        FUNCTION MT_AfDataRequest,021203H
        ARGFRAME XSTACK, 12, STACK
        ARGFRAME IOVERLAY, 0, STATIC
        ARGFRAME DOVERLAY, 0, STATIC
        LOCFRAME ISTACK, 1, STACK
        LOCFRAME XSTACK, 45, STACK
        PUBLIC MT_AfDataRequestSrcRtg
        FUNCTION MT_AfDataRequestSrcRtg,021203H
        ARGFRAME XSTACK, 12, STACK
        ARGFRAME IOVERLAY, 0, STATIC
        ARGFRAME DOVERLAY, 0, STATIC
        LOCFRAME ISTACK, 1, STACK
        LOCFRAME XSTACK, 48, STACK
        FUNCTION MT_AfDataRetrieve,021203H
        ARGFRAME XSTACK, 12, STACK
        ARGFRAME IOVERLAY, 0, STATIC
        ARGFRAME DOVERLAY, 0, STATIC
        LOCFRAME ISTACK, 1, STACK
        LOCFRAME XSTACK, 23, STACK
        FUNCTION MT_AfDataStore,021203H
        ARGFRAME XSTACK, 12, STACK
        ARGFRAME IOVERLAY, 0, STATIC
        ARGFRAME DOVERLAY, 0, STATIC
        LOCFRAME ISTACK, 1, STACK
        LOCFRAME XSTACK, 24, STACK
        PUBLIC MT_AfExec
        FUNCTION MT_AfExec,021203H
        ARGFRAME XSTACK, 0, STACK
        LOCFRAME XSTACK, 9, STACK
        PUBLIC MT_AfIncomingMsg
        FUNCTION MT_AfIncomingMsg,021203H
        ARGFRAME XSTACK, 0, STACK
        LOCFRAME ISTACK, 1, STACK
        LOCFRAME XSTACK, 28, STACK
        PUBLIC MT_AfRegister
        FUNCTION MT_AfRegister,021203H
        ARGFRAME XSTACK, 12, STACK
        ARGFRAME IOVERLAY, 0, STATIC
        ARGFRAME DOVERLAY, 0, STATIC
        LOCFRAME ISTACK, 1, STACK
        LOCFRAME XSTACK, 15, STACK
        PUBLIC pMtAfDataReq
        PUBLIC pMtAfInMsgList
        
          CFI Names cfiNames0
          CFI StackFrame CFA_SP SP IDATA
          CFI StackFrame CFA_PSP16 PSP16 XDATA
          CFI StackFrame CFA_XSP16 XSP16 XDATA
          CFI StaticOverlayFrame CFA_IOVERLAY IOVERLAY
          CFI StaticOverlayFrame CFA_DOVERLAY DOVERLAY
          CFI Resource `PSW.CY`:1, `B.BR0`:1, `B.BR1`:1, `B.BR2`:1, `B.BR3`:1
          CFI Resource `B.BR4`:1, `B.BR5`:1, `B.BR6`:1, `B.BR7`:1, `VB.BR8`:1
          CFI Resource `VB.BR9`:1, `VB.BR10`:1, `VB.BR11`:1, `VB.BR12`:1
          CFI Resource `VB.BR13`:1, `VB.BR14`:1, `VB.BR15`:1, VB:8, B:8, A:8
          CFI Resource PSW:8, DPL0:8, DPH0:8, R0:8, R1:8, R2:8, R3:8, R4:8, R5:8
          CFI Resource R6:8, R7:8, V0:8, V1:8, V2:8, V3:8, V4:8, V5:8, V6:8, V7:8
          CFI Resource V8:8, V9:8, V10:8, V11:8, V12:8, V13:8, V14:8, V15:8, SP:8
          CFI Resource PSPH:8, PSPL:8, PSP16:16, XSPH:8, XSPL:8, XSP16:16
          CFI VirtualResource ?RET:24
          CFI Resource ?BRET_EXT:8
          CFI VirtualResource ?RET_HIGH:8, ?RET_LOW:8
          CFI ResourceParts PSP16 PSPH, PSPL
          CFI ResourceParts XSP16 XSPH, XSPL
          CFI ResourceParts ?RET ?BRET_EXT, ?RET_HIGH, ?RET_LOW
          CFI EndNames cfiNames0
        
          CFI Common cfiCommon0 Using cfiNames0
          CFI CodeAlign 1
          CFI DataAlign -1
          CFI ReturnAddress ?RET CODE
          CFI CFA_DOVERLAY Used
          CFI CFA_IOVERLAY Used
          CFI CFA_SP SP+-3
          CFI CFA_PSP16 PSP16+0
          CFI CFA_XSP16 XSP16+0
          CFI `PSW.CY` SameValue
          CFI `B.BR0` SameValue
          CFI `B.BR1` SameValue
          CFI `B.BR2` SameValue
          CFI `B.BR3` SameValue
          CFI `B.BR4` SameValue
          CFI `B.BR5` SameValue
          CFI `B.BR6` SameValue
          CFI `B.BR7` SameValue
          CFI `VB.BR8` SameValue
          CFI `VB.BR9` SameValue
          CFI `VB.BR10` SameValue
          CFI `VB.BR11` SameValue
          CFI `VB.BR12` SameValue
          CFI `VB.BR13` SameValue
          CFI `VB.BR14` SameValue
          CFI `VB.BR15` SameValue
          CFI VB SameValue
          CFI B Undefined
          CFI A Undefined
          CFI PSW SameValue
          CFI DPL0 SameValue
          CFI DPH0 SameValue
          CFI R0 Undefined
          CFI R1 Undefined
          CFI R2 Undefined
          CFI R3 Undefined
          CFI R4 Undefined
          CFI R5 Undefined
          CFI R6 SameValue
          CFI R7 SameValue
          CFI V0 SameValue
          CFI V1 SameValue
          CFI V2 SameValue
          CFI V3 SameValue
          CFI V4 SameValue
          CFI V5 SameValue
          CFI V6 SameValue
          CFI V7 SameValue
          CFI V8 SameValue
          CFI V9 SameValue
          CFI V10 SameValue
          CFI V11 SameValue
          CFI V12 SameValue
          CFI V13 SameValue
          CFI V14 SameValue
          CFI V15 SameValue
          CFI PSPH Undefined
          CFI PSPL Undefined
          CFI XSPH Undefined
          CFI XSPL Undefined
          CFI ?RET Concat
          CFI ?BRET_EXT Frame(CFA_SP, 3)
          CFI ?RET_HIGH Frame(CFA_SP, 2)
          CFI ?RET_LOW Frame(CFA_SP, 1)
          CFI EndCommon cfiCommon0
        
        
          CFI Common cfiCommon1 Using cfiNames0
          CFI CodeAlign 1
          CFI DataAlign -1
          CFI ReturnAddress ?RET CODE
          CFI CFA_DOVERLAY Used
          CFI CFA_IOVERLAY Used
          CFI CFA_SP SP+-2
          CFI CFA_PSP16 PSP16+0
          CFI CFA_XSP16 XSP16+0
          CFI `PSW.CY` SameValue
          CFI `B.BR0` SameValue
          CFI `B.BR1` SameValue
          CFI `B.BR2` SameValue
          CFI `B.BR3` SameValue
          CFI `B.BR4` SameValue
          CFI `B.BR5` SameValue
          CFI `B.BR6` SameValue
          CFI `B.BR7` SameValue
          CFI `VB.BR8` SameValue
          CFI `VB.BR9` SameValue
          CFI `VB.BR10` SameValue
          CFI `VB.BR11` SameValue
          CFI `VB.BR12` SameValue
          CFI `VB.BR13` SameValue
          CFI `VB.BR14` SameValue
          CFI `VB.BR15` SameValue
          CFI VB SameValue
          CFI B SameValue
          CFI A SameValue
          CFI PSW SameValue
          CFI DPL0 SameValue
          CFI DPH0 SameValue
          CFI R0 SameValue
          CFI R1 SameValue
          CFI R2 SameValue
          CFI R3 SameValue
          CFI R4 SameValue
          CFI R5 SameValue
          CFI R6 SameValue
          CFI R7 SameValue
          CFI V0 SameValue
          CFI V1 SameValue
          CFI V2 SameValue
          CFI V3 SameValue
          CFI V4 SameValue
          CFI V5 SameValue
          CFI V6 SameValue
          CFI V7 SameValue
          CFI V8 SameValue
          CFI V9 SameValue
          CFI V10 SameValue
          CFI V11 SameValue
          CFI V12 SameValue
          CFI V13 SameValue
          CFI V14 SameValue
          CFI V15 SameValue
          CFI PSPH Undefined
          CFI PSPL Undefined
          CFI XSPH Undefined
          CFI XSPL Undefined
          CFI ?RET Concat
          CFI ?BRET_EXT SameValue
          CFI ?RET_HIGH Frame(CFA_SP, 2)
          CFI ?RET_LOW Frame(CFA_SP, 1)
          CFI EndCommon cfiCommon1
        
AF_DataRequest      SYMBOL "AF_DataRequest"
??AF_DataRequest?relay SYMBOL "?relay", AF_DataRequest
AF_DataRequestSrcRtg SYMBOL "AF_DataRequestSrcRtg"
??AF_DataRequestSrcRtg?relay SYMBOL "?relay", AF_DataRequestSrcRtg
MT_BuildAndSendZToolResponse SYMBOL "MT_BuildAndSendZToolResponse"
??MT_BuildAndSendZToolResponse?relay SYMBOL "?relay", MT_BuildAndSendZToolResponse
MT_BuildEndpointDesc SYMBOL "MT_BuildEndpointDesc"
??MT_BuildEndpointDesc?relay SYMBOL "?relay", MT_BuildEndpointDesc
afAPSF_ConfigSet    SYMBOL "afAPSF_ConfigSet"
??afAPSF_ConfigSet?relay SYMBOL "?relay", afAPSF_ConfigSet
afFindEndPointDesc  SYMBOL "afFindEndPointDesc"
??afFindEndPointDesc?relay SYMBOL "?relay", afFindEndPointDesc
afRegister          SYMBOL "afRegister"
??afRegister?relay  SYMBOL "?relay", afRegister
osal_mem_alloc      SYMBOL "osal_mem_alloc"
??osal_mem_alloc?relay SYMBOL "?relay", osal_mem_alloc
osal_mem_free       SYMBOL "osal_mem_free"
??osal_mem_free?relay SYMBOL "?relay", osal_mem_free
osal_memcpy         SYMBOL "osal_memcpy"
??osal_memcpy?relay SYMBOL "?relay", osal_memcpy
osal_memset         SYMBOL "osal_memset"
??osal_memset?relay SYMBOL "?relay", osal_memset
osal_set_event      SYMBOL "osal_set_event"
??osal_set_event?relay SYMBOL "?relay", osal_set_event
osal_start_timerEx  SYMBOL "osal_start_timerEx"
??osal_start_timerEx?relay SYMBOL "?relay", osal_start_timerEx
MT_AfCommandProcessing SYMBOL "MT_AfCommandProcessing"
??MT_AfCommandProcessing?relay SYMBOL "?relay", MT_AfCommandProcessing
MT_AfDataConfirm    SYMBOL "MT_AfDataConfirm"
??MT_AfDataConfirm?relay SYMBOL "?relay", MT_AfDataConfirm
MT_AfDataRequest    SYMBOL "MT_AfDataRequest"
??MT_AfDataRequest?relay SYMBOL "?relay", MT_AfDataRequest
MT_AfDataRequestSrcRtg SYMBOL "MT_AfDataRequestSrcRtg"
??MT_AfDataRequestSrcRtg?relay SYMBOL "?relay", MT_AfDataRequestSrcRtg
MT_AfExec           SYMBOL "MT_AfExec"
??MT_AfExec?relay   SYMBOL "?relay", MT_AfExec
MT_AfIncomingMsg    SYMBOL "MT_AfIncomingMsg"
??MT_AfIncomingMsg?relay SYMBOL "?relay", MT_AfIncomingMsg
MT_AfRegister       SYMBOL "MT_AfRegister"
??MT_AfRegister?relay SYMBOL "?relay", MT_AfRegister

        EXTERN ??AF_DataRequest?relay
        FUNCTION ??AF_DataRequest?relay,00H
        EXTERN ??AF_DataRequestSrcRtg?relay
        FUNCTION ??AF_DataRequestSrcRtg?relay,00H
        EXTERN ??MT_BuildAndSendZToolResponse?relay
        FUNCTION ??MT_BuildAndSendZToolResponse?relay,00H
        EXTERN ??MT_BuildEndpointDesc?relay
        FUNCTION ??MT_BuildEndpointDesc?relay,00H
        EXTERN ??afAPSF_ConfigSet?relay
        FUNCTION ??afAPSF_ConfigSet?relay,00H
        EXTERN ??afFindEndPointDesc?relay
        FUNCTION ??afFindEndPointDesc?relay,00H
        EXTERN ??afRegister?relay
        FUNCTION ??afRegister?relay,00H
        EXTERN ??osal_mem_alloc?relay
        FUNCTION ??osal_mem_alloc?relay,00H
        EXTERN ??osal_mem_free?relay
        FUNCTION ??osal_mem_free?relay,00H
        EXTERN ??osal_memcpy?relay
        FUNCTION ??osal_memcpy?relay,00H
        EXTERN ??osal_memset?relay
        FUNCTION ??osal_memset?relay,00H
        EXTERN ??osal_set_event?relay
        FUNCTION ??osal_set_event?relay,00H
        EXTERN ??osal_start_timerEx?relay
        FUNCTION ??osal_start_timerEx?relay,00H
        EXTERN AF_DataRequest
        FUNCTION AF_DataRequest,0202H
        ARGFRAME ISTACK, 0, STACK
        ARGFRAME PSTACK, 0, STACK
        ARGFRAME XSTACK, 45, STACK
        ARGFRAME IOVERLAY, 0, STATIC
        ARGFRAME DOVERLAY, 0, STATIC
        EXTERN AF_DataRequestSrcRtg
        FUNCTION AF_DataRequestSrcRtg,0202H
        ARGFRAME ISTACK, 0, STACK
        ARGFRAME PSTACK, 0, STACK
        ARGFRAME XSTACK, 48, STACK
        ARGFRAME IOVERLAY, 0, STATIC
        ARGFRAME DOVERLAY, 0, STATIC
        EXTERN MT_BuildAndSendZToolResponse
        FUNCTION MT_BuildAndSendZToolResponse,0202H
        ARGFRAME ISTACK, 2, STACK
        ARGFRAME PSTACK, 0, STACK
        ARGFRAME XSTACK, 36, STACK
        ARGFRAME IOVERLAY, 0, STATIC
        ARGFRAME DOVERLAY, 0, STATIC
        EXTERN MT_BuildEndpointDesc
        FUNCTION MT_BuildEndpointDesc,0202H
        ARGFRAME ISTACK, 0, STACK
        ARGFRAME PSTACK, 0, STACK
        ARGFRAME XSTACK, 15, STACK
        ARGFRAME IOVERLAY, 0, STATIC
        ARGFRAME DOVERLAY, 0, STATIC
        EXTERN MT_TaskID
        EXTERN afAPSF_ConfigSet
        FUNCTION afAPSF_ConfigSet,0202H
        ARGFRAME ISTACK, 0, STACK
        ARGFRAME PSTACK, 0, STACK
        ARGFRAME XSTACK, 12, STACK
        ARGFRAME IOVERLAY, 0, STATIC
        ARGFRAME DOVERLAY, 0, STATIC
        EXTERN afFindEndPointDesc
        FUNCTION afFindEndPointDesc,0202H
        ARGFRAME ISTACK, 0, STACK
        ARGFRAME PSTACK, 0, STACK
        ARGFRAME XSTACK, 36, STACK
        ARGFRAME IOVERLAY, 0, STATIC
        ARGFRAME DOVERLAY, 0, STATIC
        EXTERN afRegister
        FUNCTION afRegister,0202H
        ARGFRAME ISTACK, 0, STACK
        ARGFRAME PSTACK, 0, STACK
        ARGFRAME XSTACK, 15, STACK
        ARGFRAME IOVERLAY, 0, STATIC
        ARGFRAME DOVERLAY, 0, STATIC
        EXTERN osal_mem_alloc
        FUNCTION osal_mem_alloc,0202H
        ARGFRAME ISTACK, 0, STACK
        ARGFRAME PSTACK, 0, STACK
        ARGFRAME XSTACK, 36, STACK
        ARGFRAME IOVERLAY, 0, STATIC
        ARGFRAME DOVERLAY, 0, STATIC
        EXTERN osal_mem_free
        FUNCTION osal_mem_free,0202H
        ARGFRAME ISTACK, 0, STACK
        ARGFRAME PSTACK, 0, STACK
        ARGFRAME XSTACK, 36, STACK
        ARGFRAME IOVERLAY, 0, STATIC
        ARGFRAME DOVERLAY, 0, STATIC
        EXTERN osal_memcpy
        FUNCTION osal_memcpy,0202H
        ARGFRAME ISTACK, 0, STACK
        ARGFRAME PSTACK, 0, STACK
        ARGFRAME XSTACK, 39, STACK
        ARGFRAME IOVERLAY, 0, STATIC
        ARGFRAME DOVERLAY, 0, STATIC
        EXTERN osal_memset
        FUNCTION osal_memset,0202H
        ARGFRAME ISTACK, 0, STACK
        ARGFRAME PSTACK, 0, STACK
        ARGFRAME XSTACK, 36, STACK
        ARGFRAME IOVERLAY, 0, STATIC
        ARGFRAME DOVERLAY, 0, STATIC
        EXTERN osal_set_event
        FUNCTION osal_set_event,0202H
        ARGFRAME ISTACK, 0, STACK
        ARGFRAME PSTACK, 0, STACK
        ARGFRAME XSTACK, 36, STACK
        ARGFRAME IOVERLAY, 0, STATIC
        ARGFRAME DOVERLAY, 0, STATIC
        EXTERN osal_start_timerEx
        FUNCTION osal_start_timerEx,0202H
        ARGFRAME ISTACK, 0, STACK
        ARGFRAME PSTACK, 0, STACK
        ARGFRAME XSTACK, 36, STACK
        ARGFRAME IOVERLAY, 0, STATIC
        ARGFRAME DOVERLAY, 0, STATIC

// E:\wise-house\Components\mt\MT_AF.c
//    1 /**************************************************************************************************
//    2   Filename:       MT_AF.c
//    3   Revised:        $Date: 2011-05-27 16:00:27 -0700 (Fri, 27 May 2011) $
//    4   Revision:       $Revision: 26145 $
//    5 
//    6 
//    7   Description:    MonitorTest functions for the AF layer.
//    8 
//    9 
//   10   Copyright 2007-2011 Texas Instruments Incorporated. All rights reserved.
//   11 
//   12   IMPORTANT: Your use of this Software is limited to those specific rights
//   13   granted under the terms of a software license agreement between the user
//   14   who downloaded the software, his/her employer (which must be your employer)
//   15   and Texas Instruments Incorporated (the "License").  You may not use this
//   16   Software unless you agree to abide by the terms of the License. The License
//   17   limits your use, and you acknowledge, that the Software may not be modified,
//   18   copied or distributed unless embedded on a Texas Instruments microcontroller
//   19   or used solely and exclusively in conjunction with a Texas Instruments radio
//   20   frequency transceiver, which is integrated into your product.  Other than for
//   21   the foregoing purpose, you may not use, reproduce, copy, prepare derivative
//   22   works of, modify, distribute, perform, display or sell this Software and/or
//   23   its documentation for any purpose.
//   24 
//   25   YOU FURTHER ACKNOWLEDGE AND AGREE THAT THE SOFTWARE AND DOCUMENTATION ARE
//   26   PROVIDED “AS IS” WITHOUT WARRANTY OF ANY KIND, EITHER EXPRESS OR IMPLIED,
//   27   INCLUDING WITHOUT LIMITATION, ANY WARRANTY OF MERCHANTABILITY, TITLE,
//   28   NON-INFRINGEMENT AND FITNESS FOR A PARTICULAR PURPOSE. IN NO EVENT SHALL
//   29   TEXAS INSTRUMENTS OR ITS LICENSORS BE LIABLE OR OBLIGATED UNDER CONTRACT,
//   30   NEGLIGENCE, STRICT LIABILITY, CONTRIBUTION, BREACH OF WARRANTY, OR OTHER
//   31   LEGAL EQUITABLE THEORY ANY DIRECT OR INDIRECT DAMAGES OR EXPENSES
//   32   INCLUDING BUT NOT LIMITED TO ANY INCIDENTAL, SPECIAL, INDIRECT, PUNITIVE
//   33   OR CONSEQUENTIAL DAMAGES, LOST PROFITS OR LOST DATA, COST OF PROCUREMENT
//   34   OF SUBSTITUTE GOODS, TECHNOLOGY, SERVICES, OR ANY CLAIMS BY THIRD PARTIES
//   35   (INCLUDING BUT NOT LIMITED TO ANY DEFENSE THEREOF), OR OTHER SIMILAR COSTS.
//   36 
//   37   Should you have any questions regarding your right to use this Software,
//   38   contact Texas Instruments Incorporated at www.TI.com.
//   39 
//   40 **************************************************************************************************/
//   41 
//   42 /* ------------------------------------------------------------------------------------------------
//   43  *                                          Includes
//   44  * ------------------------------------------------------------------------------------------------
//   45  */
//   46 #include "ZComDef.h"
//   47 #include "OSAL.h"
//   48 #include "MT.h"
//   49 #include "MT_AF.h"
//   50 #include "MT_ZDO.h"
//   51 #include "nwk.h"
//   52 #include "OnBoard.h"
//   53 #include "MT_UART.h"
//   54 
//   55 #if defined INTER_PAN
//   56 #include "stub_aps.h"
//   57 #endif
//   58 
//   59 /* ------------------------------------------------------------------------------------------------
//   60  *                                          Constants
//   61  * ------------------------------------------------------------------------------------------------
//   62  */
//   63 
//   64 #if !defined MT_AF_EXEC_CNT
//   65 #define MT_AF_EXEC_CNT  15
//   66 #endif
//   67 
//   68 #if !defined MT_AF_EXEC_DLY
//   69 #define MT_AF_EXEC_DLY  1000
//   70 #endif
//   71 
//   72 /* ------------------------------------------------------------------------------------------------
//   73  *                                           Typedefs
//   74  * ------------------------------------------------------------------------------------------------
//   75  */
//   76 
//   77 typedef struct
//   78 {
//   79   uint8 *data;
//   80   afAddrType_t dstAddr;
//   81   endPointDesc_t *epDesc;
//   82   uint16 cId;
//   83   uint16 dataLen;
//   84   uint8 transId;
//   85   uint8 txOpts;
//   86   uint8 radius;
//   87   uint8 tick;
//   88 } mtAfDataReq_t;
//   89 
//   90 typedef struct _mtAfInMsgList_t
//   91 {
//   92   struct _mtAfInMsgList_t *next;
//   93   uint8 *data;
//   94   uint32 timestamp;         // Receipt timestamp from MAC.
//   95   uint8 tick;
//   96 } mtAfInMsgList_t;
//   97 
//   98 /* ------------------------------------------------------------------------------------------------
//   99  *                                        Local Variables
//  100  * ------------------------------------------------------------------------------------------------
//  101  */
//  102 

        RSEG XDATA_Z:XDATA:NOROOT(0)
        DATA16
//  103 mtAfInMsgList_t *pMtAfInMsgList = NULL;
pMtAfInMsgList:
        DS 2
        REQUIRE __INIT_XDATA_Z

        RSEG XDATA_Z:XDATA:NOROOT(0)
        DATA16
//  104 mtAfDataReq_t *pMtAfDataReq = NULL;
pMtAfDataReq:
        DS 2
        REQUIRE __INIT_XDATA_Z
//  105 
//  106 /* ------------------------------------------------------------------------------------------------
//  107  *                                        Global Variables
//  108  * ------------------------------------------------------------------------------------------------
//  109  */
//  110 
//  111 #if defined ( MT_AF_CB_FUNC )
//  112 uint16 _afCallbackSub;
//  113 #endif
//  114 
//  115 /* ------------------------------------------------------------------------------------------------
//  116  *                                        Local Functions
//  117  * ------------------------------------------------------------------------------------------------
//  118  */
//  119 
//  120 void MT_AfRegister(uint8 *pBuf);
//  121 void MT_AfDataRequest(uint8 *pBuf);
//  122 
//  123 #if defined ( ZIGBEE_SOURCE_ROUTING )
//  124 void MT_AfDataRequestSrcRtg(uint8 *pBuf);
//  125 #endif
//  126 
//  127 #if defined INTER_PAN
//  128 static void MT_AfInterPanCtl(uint8 *pBuf);
//  129 #endif
//  130 
//  131 static void MT_AfDataRetrieve(uint8 *pBuf);
//  132 static void MT_AfDataStore(uint8 *pBuf);
//  133 static void MT_AfAPSF_ConfigSet(uint8 *pBuf);
//  134 
//  135 /**************************************************************************************************
//  136  * @fn          MT_AfExec
//  137  *
//  138  * @brief       This function is invoked by an MT timer event.
//  139  *
//  140  * input parameters
//  141  *
//  142  * None.
//  143  *
//  144  * output parameters
//  145  *
//  146  * None.
//  147  *
//  148  * @return      None.
//  149  **************************************************************************************************
//  150  */

        RSEG BANKED_CODE:CODE:NOROOT(0)
//  151 void MT_AfExec(void)
MT_AfExec:
          CFI Block cfiBlock0 Using cfiCommon0
          CFI Function MT_AfExec
        CODE
//  152 {
        FUNCALL MT_AfExec, osal_mem_free
        LOCFRAME ISTACK, 0, STACK
        LOCFRAME PSTACK, 0, STACK
        LOCFRAME XSTACK, 9, STACK
        LOCFRAME IOVERLAY, 0, STATIC
        LOCFRAME DOVERLAY, 0, STATIC
        ARGFRAME ISTACK, 0, STACK
        ARGFRAME PSTACK, 0, STACK
        ARGFRAME XSTACK, 9, STACK
        ARGFRAME IOVERLAY, 0, STATIC
        ARGFRAME DOVERLAY, 0, STATIC
        FUNCALL MT_AfExec, osal_mem_free
        LOCFRAME ISTACK, 0, STACK
        LOCFRAME PSTACK, 0, STACK
        LOCFRAME XSTACK, 9, STACK
        LOCFRAME IOVERLAY, 0, STATIC
        LOCFRAME DOVERLAY, 0, STATIC
        ARGFRAME ISTACK, 0, STACK
        ARGFRAME PSTACK, 0, STACK
        ARGFRAME XSTACK, 9, STACK
        ARGFRAME IOVERLAY, 0, STATIC
        ARGFRAME DOVERLAY, 0, STATIC
        FUNCALL MT_AfExec, osal_mem_free
        LOCFRAME ISTACK, 0, STACK
        LOCFRAME PSTACK, 0, STACK
        LOCFRAME XSTACK, 9, STACK
        LOCFRAME IOVERLAY, 0, STATIC
        LOCFRAME DOVERLAY, 0, STATIC
        ARGFRAME ISTACK, 0, STACK
        ARGFRAME PSTACK, 0, STACK
        ARGFRAME XSTACK, 9, STACK
        ARGFRAME IOVERLAY, 0, STATIC
        ARGFRAME DOVERLAY, 0, STATIC
        FUNCALL MT_AfExec, osal_start_timerEx
        LOCFRAME ISTACK, 0, STACK
        LOCFRAME PSTACK, 0, STACK
        LOCFRAME XSTACK, 9, STACK
        LOCFRAME IOVERLAY, 0, STATIC
        LOCFRAME DOVERLAY, 0, STATIC
        ARGFRAME ISTACK, 0, STACK
        ARGFRAME PSTACK, 0, STACK
        ARGFRAME XSTACK, 9, STACK
        ARGFRAME IOVERLAY, 0, STATIC
        ARGFRAME DOVERLAY, 0, STATIC
        FUNCALL MT_AfExec, osal_set_event
        LOCFRAME ISTACK, 0, STACK
        LOCFRAME PSTACK, 0, STACK
        LOCFRAME XSTACK, 9, STACK
        LOCFRAME IOVERLAY, 0, STATIC
        LOCFRAME DOVERLAY, 0, STATIC
        ARGFRAME ISTACK, 0, STACK
        ARGFRAME PSTACK, 0, STACK
        ARGFRAME XSTACK, 9, STACK
        ARGFRAME IOVERLAY, 0, STATIC
        ARGFRAME DOVERLAY, 0, STATIC
        MOV     A,#-0x9
        LCALL   ?BANKED_ENTER_XDATA
          CFI R6 load(1, XDATA, add(CFA_XSP16, literal(-9)))
          CFI VB load(1, XDATA, add(CFA_XSP16, literal(-8)))
          CFI V0 load(1, XDATA, add(CFA_XSP16, literal(-7)))
          CFI R7 load(1, XDATA, add(CFA_XSP16, literal(-6)))
          CFI ?RET_LOW load(1, XDATA, add(CFA_XSP16, literal(-5)))
          CFI ?RET_HIGH load(1, XDATA, add(CFA_XSP16, literal(-4)))
          CFI ?BRET_EXT load(1, XDATA, add(CFA_XSP16, literal(-3)))
          CFI DPL0 load(1, XDATA, add(CFA_XSP16, literal(-2)))
          CFI DPH0 load(1, XDATA, add(CFA_XSP16, literal(-1)))
          CFI CFA_SP SP+0
          CFI CFA_XSP16 add(XSP16, 9)
        ; Saved register size: 9
        ; Auto size: 0
//  153   mtAfInMsgList_t *pPrev, *pItem = pMtAfInMsgList;
??MT_AfExec_0:
        MOV     DPTR,#pMtAfInMsgList
        SJMP    ??MT_AfExec_1
//  154 
//  155   while (pItem != NULL)
//  156   {
//  157     if (--(pItem->tick) == 0)
//  158     {
//  159       if (pMtAfInMsgList == pItem)
//  160       {
//  161         pMtAfInMsgList = pItem->next;
//  162         (void)osal_mem_free(pItem);
//  163         pItem = pMtAfInMsgList;
//  164       }
//  165       else
//  166       {
//  167         pPrev->next = pItem->next;
//  168         (void)osal_mem_free(pItem);
//  169         pItem = pPrev->next;
//  170       }
//  171     }
//  172     else
//  173     {
//  174       pPrev = pItem;
??MT_AfExec_2:
        MOV     A,R2
        MOV     R6,A
        MOV     A,R3
        MOV     R7,A
//  175       pItem = pItem->next;
        MOV     DPL,R2
        MOV     DPH,R3
//  176     }
??MT_AfExec_1:
        LCALL   ??Subroutine52_0 & 0xFFFF
??CrossCallReturnLabel_118:
        MOV     A,R2
        ORL     A,R3
        JZ      ??MT_AfExec_3
        MOV     A,R2
        ADD     A,#0x8
        MOV     DPL,A
        MOV     A,R3
        LCALL   ??Subroutine44_0 & 0xFFFF
??CrossCallReturnLabel_71:
        MOVX    A,@DPTR
        DEC     A
        MOVX    @DPTR,A
        JNZ     ??MT_AfExec_2
        LCALL   ?Subroutine36 & 0xFFFF
??CrossCallReturnLabel_115:
        MOV     A,R2
        XRL     A,R0
        JNZ     ??MT_AfExec_4
        MOV     A,R3
        XRL     A,R1
??MT_AfExec_4:
        MOV     DPL,R2
        MOV     DPH,R3
        JNZ     ??MT_AfExec_5
        LCALL   ?Subroutine18 & 0xFFFF
??CrossCallReturnLabel_22:
        LCALL   ?Subroutine25 & 0xFFFF
??CrossCallReturnLabel_30:
        ; Setup parameters for call to function osal_mem_free
        LCALL   ??osal_mem_free?relay
        SJMP    ??MT_AfExec_0
??MT_AfExec_5:
        LCALL   ??Subroutine51_0 & 0xFFFF
??CrossCallReturnLabel_113:
        MOV     DPL,R6
        MOV     DPH,R7
        LCALL   ?Subroutine25 & 0xFFFF
??CrossCallReturnLabel_31:
        ; Setup parameters for call to function osal_mem_free
        LCALL   ??osal_mem_free?relay
        MOV     DPL,R6
        MOV     DPH,R7
        SJMP    ??MT_AfExec_1
//  177   }
//  178 
//  179   if (pMtAfDataReq != NULL)
??MT_AfExec_3:
        LCALL   ?Subroutine4 & 0xFFFF
??CrossCallReturnLabel_84:
        JZ      ??MT_AfExec_6
//  180   {
//  181     if (--(pMtAfDataReq->tick) == 0)
        LCALL   ?Subroutine33 & 0xFFFF
??CrossCallReturnLabel_81:
        MOVX    A,@DPTR
        DEC     A
        LCALL   ?Subroutine7 & 0xFFFF
??CrossCallReturnLabel_7:
        MOVX    A,@DPTR
        JNZ     ??MT_AfExec_6
//  182     {
//  183       (void)osal_mem_free(pMtAfDataReq);
        ; Setup parameters for call to function osal_mem_free
        LCALL   ?Subroutine13 & 0xFFFF
??CrossCallReturnLabel_121:
        LCALL   ??osal_mem_free?relay
//  184       pMtAfDataReq = NULL;
        MOV     DPTR,#pMtAfDataReq
        CLR     A
        MOVX    @DPTR,A
        INC     DPTR
        MOVX    @DPTR,A
//  185     }
//  186   }
//  187 
//  188   if ((pMtAfInMsgList != NULL) || (pMtAfDataReq != NULL))
??MT_AfExec_6:
        MOV     DPTR,#pMtAfInMsgList
        LCALL   ??Subroutine45_0 & 0xFFFF
??CrossCallReturnLabel_83:
        JNZ     ??MT_AfExec_7
        LCALL   ?Subroutine4 & 0xFFFF
??CrossCallReturnLabel_85:
        JZ      ??MT_AfExec_8
//  189   {
//  190     if (ZSuccess != osal_start_timerEx(MT_TaskID, MT_AF_EXEC_EVT, MT_AF_EXEC_DLY))
??MT_AfExec_7:
        ; Setup parameters for call to function osal_start_timerEx
        MOV     R4,#-0x18
        MOV     R5,#0x3
        MOV     R2,#0x8
        MOV     R3,#0x0
        MOV     DPTR,#MT_TaskID
        MOVX    A,@DPTR
        MOV     R1,A
        LCALL   ??osal_start_timerEx?relay
        MOV     A,R1
        JZ      ??MT_AfExec_8
//  191     {
//  192       osal_set_event(MT_TaskID, MT_AF_EXEC_EVT);
        ; Setup parameters for call to function osal_set_event
        MOV     R2,#0x8
        MOV     R3,#0x0
        MOV     DPTR,#MT_TaskID
        MOVX    A,@DPTR
        MOV     R1,A
        LCALL   ??osal_set_event?relay
          CFI EndBlock cfiBlock0
//  193     }
//  194   }
//  195 }
??MT_AfExec_8:
        REQUIRE ?Subroutine0
        ; // Fall through to label ?Subroutine0

        RSEG BANKED_CODE:CODE:NOROOT(0)
?Subroutine0:
          CFI Block cfiBlock1 Using cfiCommon0
          CFI NoFunction
          CFI CFA_SP SP+0
          CFI CFA_XSP16 add(XSP16, 9)
          CFI VB load(1, XDATA, add(CFA_XSP16, literal(-8)))
          CFI DPL0 load(1, XDATA, add(CFA_XSP16, literal(-2)))
          CFI DPH0 load(1, XDATA, add(CFA_XSP16, literal(-1)))
          CFI R6 load(1, XDATA, add(CFA_XSP16, literal(-9)))
          CFI R7 load(1, XDATA, add(CFA_XSP16, literal(-6)))
          CFI V0 load(1, XDATA, add(CFA_XSP16, literal(-7)))
          CFI ?BRET_EXT load(1, XDATA, add(CFA_XSP16, literal(-3)))
          CFI ?RET_HIGH load(1, XDATA, add(CFA_XSP16, literal(-4)))
          CFI ?RET_LOW load(1, XDATA, add(CFA_XSP16, literal(-5)))
        MOV     R7,#0x1
        LJMP    ?BANKED_LEAVE_XDATA
          CFI EndBlock cfiBlock1
//  196 
//  197 /***************************************************************************************************
//  198  * @fn      MT_AfCommandProcessing
//  199  *
//  200  * @brief   Process all the AF commands that are issued by test tool
//  201  *
//  202  * @param   pBuf - pointer to the received buffer
//  203  *
//  204  * @return  status
//  205  ***************************************************************************************************/

        RSEG BANKED_CODE:CODE:NOROOT(0)
//  206 uint8 MT_AfCommandProcessing(uint8 *pBuf)
MT_AfCommandProcessing:
          CFI Block cfiBlock2 Using cfiCommon0
          CFI Function MT_AfCommandProcessing
        CODE
//  207 {
        FUNCALL MT_AfCommandProcessing, MT_AfRegister
        LOCFRAME ISTACK, 0, STACK
        LOCFRAME PSTACK, 0, STACK
        LOCFRAME XSTACK, 12, STACK
        LOCFRAME IOVERLAY, 0, STATIC
        LOCFRAME DOVERLAY, 0, STATIC
        ARGFRAME ISTACK, 0, STACK
        ARGFRAME PSTACK, 0, STACK
        ARGFRAME XSTACK, 12, STACK
        ARGFRAME IOVERLAY, 0, STATIC
        ARGFRAME DOVERLAY, 0, STATIC
        FUNCALL MT_AfCommandProcessing, MT_AfDataRequest
        LOCFRAME ISTACK, 0, STACK
        LOCFRAME PSTACK, 0, STACK
        LOCFRAME XSTACK, 12, STACK
        LOCFRAME IOVERLAY, 0, STATIC
        LOCFRAME DOVERLAY, 0, STATIC
        ARGFRAME ISTACK, 0, STACK
        ARGFRAME PSTACK, 0, STACK
        ARGFRAME XSTACK, 12, STACK
        ARGFRAME IOVERLAY, 0, STATIC
        ARGFRAME DOVERLAY, 0, STATIC
        FUNCALL MT_AfCommandProcessing, MT_AfDataRequestSrcRtg
        LOCFRAME ISTACK, 0, STACK
        LOCFRAME PSTACK, 0, STACK
        LOCFRAME XSTACK, 12, STACK
        LOCFRAME IOVERLAY, 0, STATIC
        LOCFRAME DOVERLAY, 0, STATIC
        ARGFRAME ISTACK, 0, STACK
        ARGFRAME PSTACK, 0, STACK
        ARGFRAME XSTACK, 12, STACK
        ARGFRAME IOVERLAY, 0, STATIC
        ARGFRAME DOVERLAY, 0, STATIC
        FUNCALL MT_AfCommandProcessing, MT_AfDataRetrieve
        LOCFRAME ISTACK, 0, STACK
        LOCFRAME PSTACK, 0, STACK
        LOCFRAME XSTACK, 12, STACK
        LOCFRAME IOVERLAY, 0, STATIC
        LOCFRAME DOVERLAY, 0, STATIC
        ARGFRAME ISTACK, 0, STACK
        ARGFRAME PSTACK, 0, STACK
        ARGFRAME XSTACK, 12, STACK
        ARGFRAME IOVERLAY, 0, STATIC
        ARGFRAME DOVERLAY, 0, STATIC
        FUNCALL MT_AfCommandProcessing, MT_AfDataStore
        LOCFRAME ISTACK, 0, STACK
        LOCFRAME PSTACK, 0, STACK
        LOCFRAME XSTACK, 12, STACK
        LOCFRAME IOVERLAY, 0, STATIC
        LOCFRAME DOVERLAY, 0, STATIC
        ARGFRAME ISTACK, 0, STACK
        ARGFRAME PSTACK, 0, STACK
        ARGFRAME XSTACK, 12, STACK
        ARGFRAME IOVERLAY, 0, STATIC
        ARGFRAME DOVERLAY, 0, STATIC
        FUNCALL MT_AfCommandProcessing, afAPSF_ConfigSet
        LOCFRAME ISTACK, 0, STACK
        LOCFRAME PSTACK, 0, STACK
        LOCFRAME XSTACK, 12, STACK
        LOCFRAME IOVERLAY, 0, STATIC
        LOCFRAME DOVERLAY, 0, STATIC
        ARGFRAME ISTACK, 0, STACK
        ARGFRAME PSTACK, 0, STACK
        ARGFRAME XSTACK, 12, STACK
        ARGFRAME IOVERLAY, 0, STATIC
        ARGFRAME DOVERLAY, 0, STATIC
        FUNCALL MT_AfCommandProcessing, MT_BuildAndSendZToolResponse
        LOCFRAME ISTACK, 0, STACK
        LOCFRAME PSTACK, 0, STACK
        LOCFRAME XSTACK, 12, STACK
        LOCFRAME IOVERLAY, 0, STATIC
        LOCFRAME DOVERLAY, 0, STATIC
        ARGFRAME ISTACK, 0, STACK
        ARGFRAME PSTACK, 0, STACK
        ARGFRAME XSTACK, 12, STACK
        ARGFRAME IOVERLAY, 0, STATIC
        ARGFRAME DOVERLAY, 0, STATIC
        MOV     A,#-0x9
        LCALL   ?BANKED_ENTER_XDATA
          CFI DPH0 load(1, XDATA, add(CFA_XSP16, literal(-1)))
          CFI DPL0 load(1, XDATA, add(CFA_XSP16, literal(-2)))
          CFI ?BRET_EXT load(1, XDATA, add(CFA_XSP16, literal(-3)))
          CFI ?RET_HIGH load(1, XDATA, add(CFA_XSP16, literal(-4)))
          CFI ?RET_LOW load(1, XDATA, add(CFA_XSP16, literal(-5)))
          CFI R7 load(1, XDATA, add(CFA_XSP16, literal(-6)))
          CFI V0 load(1, XDATA, add(CFA_XSP16, literal(-7)))
          CFI VB load(1, XDATA, add(CFA_XSP16, literal(-8)))
          CFI R6 load(1, XDATA, add(CFA_XSP16, literal(-9)))
          CFI CFA_SP SP+0
          CFI CFA_XSP16 add(XSP16, 9)
        ; Saved register size: 9
        ; Auto size: 3
        MOV     A,#-0x3
        LCALL   ?ALLOC_XSTACK8
          CFI CFA_XSP16 add(XSP16, 12)
        MOV     A,R2
        MOV     R0,A
        MOV     A,R3
        MOV     R1,A
//  208   uint8 status = MT_RPC_SUCCESS;
        MOV     R6,#0x0
//  209 
//  210   switch (pBuf[MT_RPC_POS_CMD1])
        MOV     DPL,R0
        MOV     DPH,R1
        INC     DPTR
        INC     DPTR
        MOVX    A,@DPTR
        JZ      ??MT_AfCommandProcessing_0
        DEC     A
        JZ      ??MT_AfCommandProcessing_1
        DEC     A
        JZ      ??MT_AfCommandProcessing_1
        DEC     A
        JZ      ??MT_AfCommandProcessing_2
        ADD     A,#-0xe
        JZ      ??MT_AfCommandProcessing_3
        DEC     A
        JZ      ??MT_AfCommandProcessing_4
        DEC     A
        JZ      ??MT_AfCommandProcessing_5
        SJMP    ??MT_AfCommandProcessing_6
//  211   {
//  212     case MT_AF_REGISTER:
//  213       MT_AfRegister(pBuf);
??MT_AfCommandProcessing_0:
        ; Setup parameters for call to function MT_AfRegister
        LCALL   ??MT_AfRegister?relay
//  214       break;
        SJMP    ??MT_AfCommandProcessing_7
//  215 
//  216     case MT_AF_DATA_REQUEST:
//  217     case MT_AF_DATA_REQUEST_EXT:
//  218       MT_AfDataRequest(pBuf);
??MT_AfCommandProcessing_1:
        ; Setup parameters for call to function MT_AfDataRequest
        LCALL   ??MT_AfDataRequest?relay
//  219       break;
        SJMP    ??MT_AfCommandProcessing_7
//  220 
//  221 #if defined ( ZIGBEE_SOURCE_ROUTING )
//  222     case MT_AF_DATA_REQUEST_SRCRTG:
//  223       MT_AfDataRequestSrcRtg(pBuf);
??MT_AfCommandProcessing_2:
        ; Setup parameters for call to function MT_AfDataRequestSrcRtg
        LCALL   ??MT_AfDataRequestSrcRtg?relay
//  224       break;
        SJMP    ??MT_AfCommandProcessing_7
//  225 #endif
//  226 
//  227 #if defined INTER_PAN
//  228     case MT_AF_INTER_PAN_CTL:
//  229       MT_AfInterPanCtl(pBuf);
//  230       break;
//  231 #endif
//  232 
//  233     case MT_AF_DATA_RETRIEVE:
//  234       MT_AfDataRetrieve(pBuf);
??MT_AfCommandProcessing_4:
        ; Setup parameters for call to function MT_AfDataRetrieve
        LCALL   ??MT_AfDataRetrieve?relay
//  235       break;
        SJMP    ??MT_AfCommandProcessing_7
//  236 
//  237     case MT_AF_DATA_STORE:
//  238       MT_AfDataStore(pBuf);
??MT_AfCommandProcessing_3:
        ; Setup parameters for call to function MT_AfDataStore
        LCALL   ??MT_AfDataStore?relay
//  239       break;
        SJMP    ??MT_AfCommandProcessing_7
//  240 
//  241     case MT_AF_APSF_CONFIG_SET:
//  242       MT_AfAPSF_ConfigSet(pBuf);
??MT_AfCommandProcessing_5:
        MOV     DPL,R0
        MOV     DPH,R1
        INC     DPTR
        INC     DPTR
        INC     DPTR
        INC     DPTR
        MOVX    A,@DPTR
        PUSH    A
          CFI CFA_SP SP+-1
        MOV     A,#0x1
        LCALL   ?XSTACK_DISP0_8
        POP     A
          CFI CFA_SP SP+0
        MOVX    @DPTR,A
        MOV     DPL,R0
        MOV     DPH,R1
        INC     DPTR
        INC     DPTR
        INC     DPTR
        INC     DPTR
        INC     DPTR
        MOVX    A,@DPTR
        PUSH    A
          CFI CFA_SP SP+-1
        MOV     A,#0x2
        LCALL   ?XSTACK_DISP0_8
        POP     A
          CFI CFA_SP SP+0
        MOVX    @DPTR,A
        ; Setup parameters for call to function afAPSF_ConfigSet
        MOV     A,#0x1
        LCALL   ?XSTACK_DISP0_8
        MOV     R2,DPL
        MOV     R3,DPH
        MOV     DPL,R0
        MOV     DPH,R1
        INC     DPTR
        INC     DPTR
        INC     DPTR
        MOVX    A,@DPTR
        MOV     R1,A
        LCALL   ??afAPSF_ConfigSet?relay
        MOV     A,R1
        MOV     DPL,?XSP + 0
        MOV     DPH,?XSP + 1
        MOVX    @DPTR,A
        ; Setup parameters for call to function MT_BuildAndSendZToolResponse
        MOV     R4,DPL
        MOV     R5,DPH
        MOV     R3,#0x1
        MOV     R2,#0x13
        MOV     R1,#0x64
        LCALL   ??MT_BuildAndSendZToolResponse?relay
//  243       break;
        SJMP    ??MT_AfCommandProcessing_7
//  244 
//  245     default:
//  246       status = MT_RPC_ERR_COMMAND_ID;
??MT_AfCommandProcessing_6:
        INC     R6
        INC     R6
//  247       break;
//  248   }
//  249 
//  250   return status;
??MT_AfCommandProcessing_7:
        MOV     A,R6
        MOV     R1,A
        MOV     A,#0x3
        LCALL   ?DEALLOC_XSTACK8
          CFI CFA_XSP16 add(XSP16, 9)
        LJMP    ?Subroutine0 & 0xFFFF
          CFI EndBlock cfiBlock2
//  251 }
//  252 
//  253 /***************************************************************************************************
//  254  * @fn      MT_AfRegister
//  255  *
//  256  * @brief   Process AF Register command
//  257  *
//  258  * @param   pBuf - pointer to the received buffer
//  259  *
//  260  * @return  none
//  261  ***************************************************************************************************/

        RSEG BANKED_CODE:CODE:NOROOT(0)
//  262 void MT_AfRegister(uint8 *pBuf)
MT_AfRegister:
          CFI Block cfiBlock3 Using cfiCommon0
          CFI Function MT_AfRegister
        CODE
//  263 {
        FUNCALL MT_AfRegister, osal_mem_alloc
        LOCFRAME ISTACK, 0, STACK
        LOCFRAME PSTACK, 0, STACK
        LOCFRAME XSTACK, 15, STACK
        LOCFRAME IOVERLAY, 0, STATIC
        LOCFRAME DOVERLAY, 0, STATIC
        ARGFRAME ISTACK, 0, STACK
        ARGFRAME PSTACK, 0, STACK
        ARGFRAME XSTACK, 15, STACK
        ARGFRAME IOVERLAY, 0, STATIC
        ARGFRAME DOVERLAY, 0, STATIC
        FUNCALL MT_AfRegister, MT_BuildEndpointDesc
        LOCFRAME ISTACK, 0, STACK
        LOCFRAME PSTACK, 0, STACK
        LOCFRAME XSTACK, 15, STACK
        LOCFRAME IOVERLAY, 0, STATIC
        LOCFRAME DOVERLAY, 0, STATIC
        ARGFRAME ISTACK, 0, STACK
        ARGFRAME PSTACK, 0, STACK
        ARGFRAME XSTACK, 15, STACK
        ARGFRAME IOVERLAY, 0, STATIC
        ARGFRAME DOVERLAY, 0, STATIC
        FUNCALL MT_AfRegister, afRegister
        LOCFRAME ISTACK, 0, STACK
        LOCFRAME PSTACK, 0, STACK
        LOCFRAME XSTACK, 15, STACK
        LOCFRAME IOVERLAY, 0, STATIC
        LOCFRAME DOVERLAY, 0, STATIC
        ARGFRAME ISTACK, 0, STACK
        ARGFRAME PSTACK, 0, STACK
        ARGFRAME XSTACK, 15, STACK
        ARGFRAME IOVERLAY, 0, STATIC
        ARGFRAME DOVERLAY, 0, STATIC
        FUNCALL MT_AfRegister, osal_mem_free
        LOCFRAME ISTACK, 0, STACK
        LOCFRAME PSTACK, 0, STACK
        LOCFRAME XSTACK, 15, STACK
        LOCFRAME IOVERLAY, 0, STATIC
        LOCFRAME DOVERLAY, 0, STATIC
        ARGFRAME ISTACK, 0, STACK
        ARGFRAME PSTACK, 0, STACK
        ARGFRAME XSTACK, 15, STACK
        ARGFRAME IOVERLAY, 0, STATIC
        ARGFRAME DOVERLAY, 0, STATIC
        FUNCALL MT_AfRegister, MT_BuildAndSendZToolResponse
        LOCFRAME ISTACK, 0, STACK
        LOCFRAME PSTACK, 0, STACK
        LOCFRAME XSTACK, 15, STACK
        LOCFRAME IOVERLAY, 0, STATIC
        LOCFRAME DOVERLAY, 0, STATIC
        ARGFRAME ISTACK, 0, STACK
        ARGFRAME PSTACK, 0, STACK
        ARGFRAME XSTACK, 15, STACK
        ARGFRAME IOVERLAY, 0, STATIC
        ARGFRAME DOVERLAY, 0, STATIC
        MOV     A,#-0xe
        LCALL   ?BANKED_ENTER_XDATA
          CFI DPH0 load(1, XDATA, add(CFA_XSP16, literal(-1)))
          CFI DPL0 load(1, XDATA, add(CFA_XSP16, literal(-2)))
          CFI ?BRET_EXT load(1, XDATA, add(CFA_XSP16, literal(-3)))
          CFI ?RET_HIGH load(1, XDATA, add(CFA_XSP16, literal(-4)))
          CFI ?RET_LOW load(1, XDATA, add(CFA_XSP16, literal(-5)))
          CFI R7 load(1, XDATA, add(CFA_XSP16, literal(-6)))
          CFI V5 load(1, XDATA, add(CFA_XSP16, literal(-7)))
          CFI V4 load(1, XDATA, add(CFA_XSP16, literal(-8)))
          CFI V3 load(1, XDATA, add(CFA_XSP16, literal(-9)))
          CFI V2 load(1, XDATA, add(CFA_XSP16, literal(-10)))
          CFI V1 load(1, XDATA, add(CFA_XSP16, literal(-11)))
          CFI V0 load(1, XDATA, add(CFA_XSP16, literal(-12)))
          CFI VB load(1, XDATA, add(CFA_XSP16, literal(-13)))
          CFI R6 load(1, XDATA, add(CFA_XSP16, literal(-14)))
          CFI CFA_SP SP+0
          CFI CFA_XSP16 add(XSP16, 14)
        ; Saved register size: 14
        ; Auto size: 1
        MOV     A,#-0x1
        LCALL   ?ALLOC_XSTACK8
          CFI CFA_XSP16 add(XSP16, 15)
        MOV     ?V0 + 0,R2
        MOV     ?V0 + 1,R3
//  264   uint8 cmdId;
//  265   uint8 retValue = ZMemError;
        MOV     DPL,?XSP + 0
        MOV     DPH,?XSP + 1
        MOV     A,#0x10
        LCALL   ?Subroutine30 & 0xFFFF
//  266   endPointDesc_t *epDesc;
//  267 
//  268   /* parse header */
//  269   cmdId = pBuf[MT_RPC_POS_CMD1];
??CrossCallReturnLabel_49:
        MOV     ?V0 + 2,A
//  270   pBuf += MT_RPC_FRAME_HDR_SZ;
//  271 
//  272   epDesc = (endPointDesc_t *)osal_mem_alloc(sizeof(endPointDesc_t));
        ; Setup parameters for call to function osal_mem_alloc
        MOV     R2,#0x6
        MOV     R3,#0x0
        LCALL   ??osal_mem_alloc?relay
        MOV     ?V0 + 4,R2
        MOV     ?V0 + 5,R3
        MOV     R6,?V0 + 4
        MOV     R7,?V0 + 5
//  273   if ( epDesc )
        MOV     A,R6
        ORL     A,R7
        JZ      ??MT_AfRegister_0
//  274   {
//  275     epDesc->task_id = &MT_TaskID;
        MOV     DPL,R6
        MOV     DPH,R7
        INC     DPTR
        MOV     A,#MT_TaskID & 0xff
        MOVX    @DPTR,A
        INC     DPTR
        MOV     A,#(MT_TaskID >> 8) & 0xff
        MOVX    @DPTR,A
//  276     retValue = MT_BuildEndpointDesc( pBuf, epDesc );
        ; Setup parameters for call to function MT_BuildEndpointDesc
        MOV     A,R6
        MOV     R4,A
        MOV     A,R7
        MOV     R5,A
        MOV     A,?V0 + 0
        ADD     A,#0x3
        MOV     R2,A
        MOV     A,?V0 + 1
        ADDC    A,#0x0
        MOV     R3,A
        LCALL   ??MT_BuildEndpointDesc?relay
        MOV     A,R1
        MOV     DPL,?XSP + 0
        MOV     DPH,?XSP + 1
        MOVX    @DPTR,A
//  277     if ( retValue == ZSuccess )
        JNZ     ??MT_AfRegister_1
//  278     {
//  279       retValue = afRegister( epDesc );
        ; Setup parameters for call to function afRegister
        MOV     A,R6
        MOV     R2,A
        MOV     A,R7
        MOV     R3,A
        LCALL   ??afRegister?relay
        MOV     A,R1
        MOV     DPL,?XSP + 0
        MOV     DPH,?XSP + 1
        MOVX    @DPTR,A
//  280     }
//  281 
//  282     if ( retValue != ZSuccess )
??MT_AfRegister_1:
        MOVX    A,@DPTR
        JZ      ??MT_AfRegister_0
//  283     {
//  284       osal_mem_free( epDesc );
        ; Setup parameters for call to function osal_mem_free
        MOV     A,R6
        MOV     R2,A
        MOV     A,R7
        MOV     R3,A
        LCALL   ??osal_mem_free?relay
//  285     }
//  286   }
//  287 
//  288   /* Build and send back the response */
//  289   MT_BuildAndSendZToolResponse(((uint8)MT_RPC_CMD_SRSP | (uint8)MT_RPC_SYS_AF), cmdId, 1, &retValue);
??MT_AfRegister_0:
        ; Setup parameters for call to function MT_BuildAndSendZToolResponse
        MOV     DPL,?XSP + 0
        MOV     DPH,?XSP + 1
        MOV     R4,DPL
        MOV     R5,DPH
        MOV     R3,#0x1
        MOV     R2,?V0 + 2
          CFI EndBlock cfiBlock3
        REQUIRE ?Subroutine1
        ; // Fall through to label ?Subroutine1
//  290 }

        RSEG BANKED_CODE:CODE:NOROOT(0)
?Subroutine1:
          CFI Block cfiBlock4 Using cfiCommon0
          CFI NoFunction
          CFI CFA_SP SP+0
          CFI CFA_XSP16 add(XSP16, 15)
          CFI VB load(1, XDATA, add(CFA_XSP16, literal(-13)))
          CFI DPL0 load(1, XDATA, add(CFA_XSP16, literal(-2)))
          CFI DPH0 load(1, XDATA, add(CFA_XSP16, literal(-1)))
          CFI R6 load(1, XDATA, add(CFA_XSP16, literal(-14)))
          CFI R7 load(1, XDATA, add(CFA_XSP16, literal(-6)))
          CFI V0 load(1, XDATA, add(CFA_XSP16, literal(-12)))
          CFI V1 load(1, XDATA, add(CFA_XSP16, literal(-11)))
          CFI V2 load(1, XDATA, add(CFA_XSP16, literal(-10)))
          CFI V3 load(1, XDATA, add(CFA_XSP16, literal(-9)))
          CFI V4 load(1, XDATA, add(CFA_XSP16, literal(-8)))
          CFI V5 load(1, XDATA, add(CFA_XSP16, literal(-7)))
          CFI ?BRET_EXT load(1, XDATA, add(CFA_XSP16, literal(-3)))
          CFI ?RET_HIGH load(1, XDATA, add(CFA_XSP16, literal(-4)))
          CFI ?RET_LOW load(1, XDATA, add(CFA_XSP16, literal(-5)))
        MOV     R1,#0x64
        LCALL   ??MT_BuildAndSendZToolResponse?relay
        MOV     A,#0x1
        LCALL   ?DEALLOC_XSTACK8
          CFI CFA_XSP16 add(XSP16, 14)
        MOV     R7,#0x6
        LJMP    ?BANKED_LEAVE_XDATA
          CFI EndBlock cfiBlock4
//  291 
//  292 /***************************************************************************************************
//  293  * @fn      MT_AfDataRequest
//  294  *
//  295  * @brief   Process AF Register command
//  296  *
//  297  * @param   pBuf - pointer to the received buffer
//  298  *
//  299  * @return  none
//  300  ***************************************************************************************************/

        RSEG BANKED_CODE:CODE:NOROOT(0)
//  301 void MT_AfDataRequest(uint8 *pBuf)
MT_AfDataRequest:
          CFI Block cfiBlock5 Using cfiCommon0
          CFI Function MT_AfDataRequest
        CODE
//  302 {
        FUNCALL MT_AfDataRequest, osal_memcpy
        LOCFRAME ISTACK, 0, STACK
        LOCFRAME PSTACK, 0, STACK
        LOCFRAME XSTACK, 39, STACK
        LOCFRAME IOVERLAY, 0, STATIC
        LOCFRAME DOVERLAY, 0, STATIC
        ARGFRAME ISTACK, 0, STACK
        ARGFRAME PSTACK, 0, STACK
        ARGFRAME XSTACK, 39, STACK
        ARGFRAME IOVERLAY, 0, STATIC
        ARGFRAME DOVERLAY, 0, STATIC
        FUNCALL MT_AfDataRequest, afFindEndPointDesc
        LOCFRAME ISTACK, 0, STACK
        LOCFRAME PSTACK, 0, STACK
        LOCFRAME XSTACK, 36, STACK
        LOCFRAME IOVERLAY, 0, STATIC
        LOCFRAME DOVERLAY, 0, STATIC
        ARGFRAME ISTACK, 0, STACK
        ARGFRAME PSTACK, 0, STACK
        ARGFRAME XSTACK, 36, STACK
        ARGFRAME IOVERLAY, 0, STATIC
        ARGFRAME DOVERLAY, 0, STATIC
        FUNCALL MT_AfDataRequest, osal_mem_alloc
        LOCFRAME ISTACK, 0, STACK
        LOCFRAME PSTACK, 0, STACK
        LOCFRAME XSTACK, 36, STACK
        LOCFRAME IOVERLAY, 0, STATIC
        LOCFRAME DOVERLAY, 0, STATIC
        ARGFRAME ISTACK, 0, STACK
        ARGFRAME PSTACK, 0, STACK
        ARGFRAME XSTACK, 36, STACK
        ARGFRAME IOVERLAY, 0, STATIC
        ARGFRAME DOVERLAY, 0, STATIC
        FUNCALL MT_AfDataRequest, osal_memcpy
        LOCFRAME ISTACK, 0, STACK
        LOCFRAME PSTACK, 0, STACK
        LOCFRAME XSTACK, 39, STACK
        LOCFRAME IOVERLAY, 0, STATIC
        LOCFRAME DOVERLAY, 0, STATIC
        ARGFRAME ISTACK, 0, STACK
        ARGFRAME PSTACK, 0, STACK
        ARGFRAME XSTACK, 39, STACK
        ARGFRAME IOVERLAY, 0, STATIC
        ARGFRAME DOVERLAY, 0, STATIC
        FUNCALL MT_AfDataRequest, osal_start_timerEx
        LOCFRAME ISTACK, 0, STACK
        LOCFRAME PSTACK, 0, STACK
        LOCFRAME XSTACK, 36, STACK
        LOCFRAME IOVERLAY, 0, STATIC
        LOCFRAME DOVERLAY, 0, STATIC
        ARGFRAME ISTACK, 0, STACK
        ARGFRAME PSTACK, 0, STACK
        ARGFRAME XSTACK, 36, STACK
        ARGFRAME IOVERLAY, 0, STATIC
        ARGFRAME DOVERLAY, 0, STATIC
        FUNCALL MT_AfDataRequest, osal_set_event
        LOCFRAME ISTACK, 0, STACK
        LOCFRAME PSTACK, 0, STACK
        LOCFRAME XSTACK, 36, STACK
        LOCFRAME IOVERLAY, 0, STATIC
        LOCFRAME DOVERLAY, 0, STATIC
        ARGFRAME ISTACK, 0, STACK
        ARGFRAME PSTACK, 0, STACK
        ARGFRAME XSTACK, 36, STACK
        ARGFRAME IOVERLAY, 0, STATIC
        ARGFRAME DOVERLAY, 0, STATIC
        FUNCALL MT_AfDataRequest, AF_DataRequest
        LOCFRAME ISTACK, 0, STACK
        LOCFRAME PSTACK, 0, STACK
        LOCFRAME XSTACK, 45, STACK
        LOCFRAME IOVERLAY, 0, STATIC
        LOCFRAME DOVERLAY, 0, STATIC
        ARGFRAME ISTACK, 0, STACK
        ARGFRAME PSTACK, 0, STACK
        ARGFRAME XSTACK, 45, STACK
        ARGFRAME IOVERLAY, 0, STATIC
        ARGFRAME DOVERLAY, 0, STATIC
        FUNCALL MT_AfDataRequest, MT_BuildAndSendZToolResponse
        LOCFRAME ISTACK, 0, STACK
        LOCFRAME PSTACK, 0, STACK
        LOCFRAME XSTACK, 36, STACK
        LOCFRAME IOVERLAY, 0, STATIC
        LOCFRAME DOVERLAY, 0, STATIC
        ARGFRAME ISTACK, 0, STACK
        ARGFRAME PSTACK, 0, STACK
        ARGFRAME XSTACK, 36, STACK
        ARGFRAME IOVERLAY, 0, STATIC
        ARGFRAME DOVERLAY, 0, STATIC
        MOV     A,#-0x16
        LCALL   ?BANKED_ENTER_XDATA
          CFI DPH0 load(1, XDATA, add(CFA_XSP16, literal(-1)))
          CFI DPL0 load(1, XDATA, add(CFA_XSP16, literal(-2)))
          CFI ?BRET_EXT load(1, XDATA, add(CFA_XSP16, literal(-3)))
          CFI ?RET_HIGH load(1, XDATA, add(CFA_XSP16, literal(-4)))
          CFI ?RET_LOW load(1, XDATA, add(CFA_XSP16, literal(-5)))
          CFI R7 load(1, XDATA, add(CFA_XSP16, literal(-6)))
          CFI V13 load(1, XDATA, add(CFA_XSP16, literal(-7)))
          CFI V12 load(1, XDATA, add(CFA_XSP16, literal(-8)))
          CFI V11 load(1, XDATA, add(CFA_XSP16, literal(-9)))
          CFI V10 load(1, XDATA, add(CFA_XSP16, literal(-10)))
          CFI V9 load(1, XDATA, add(CFA_XSP16, literal(-11)))
          CFI V8 load(1, XDATA, add(CFA_XSP16, literal(-12)))
          CFI V7 load(1, XDATA, add(CFA_XSP16, literal(-13)))
          CFI V6 load(1, XDATA, add(CFA_XSP16, literal(-14)))
          CFI V5 load(1, XDATA, add(CFA_XSP16, literal(-15)))
          CFI V4 load(1, XDATA, add(CFA_XSP16, literal(-16)))
          CFI V3 load(1, XDATA, add(CFA_XSP16, literal(-17)))
          CFI V2 load(1, XDATA, add(CFA_XSP16, literal(-18)))
          CFI V1 load(1, XDATA, add(CFA_XSP16, literal(-19)))
          CFI V0 load(1, XDATA, add(CFA_XSP16, literal(-20)))
          CFI VB load(1, XDATA, add(CFA_XSP16, literal(-21)))
          CFI R6 load(1, XDATA, add(CFA_XSP16, literal(-22)))
          CFI CFA_SP SP+0
          CFI CFA_XSP16 add(XSP16, 22)
        ; Saved register size: 22
        ; Auto size: 14
        MOV     A,#-0xe
        LCALL   ?ALLOC_XSTACK8
          CFI CFA_XSP16 add(XSP16, 36)
//  303   #define MT_AF_REQ_MSG_LEN  10
//  304   #define MT_AF_REQ_MSG_EXT  10
//  305 
//  306   endPointDesc_t *epDesc;
//  307   afAddrType_t dstAddr;
//  308   cId_t cId;
//  309   uint8 transId, txOpts, radius;
//  310   uint8 cmd0, cmd1;
//  311   uint8 retValue = ZFailure;
        MOV     DPL,?XSP + 0
        MOV     DPH,?XSP + 1
        MOV     A,#0x1
        LCALL   ?Subroutine31 & 0xFFFF
//  312   uint16 dataLen, tempLen;
//  313 
//  314   /* Parse header */
//  315   cmd0 = pBuf[MT_RPC_POS_CMD0];
??CrossCallReturnLabel_51:
        MOVX    A,@DPTR
        MOV     ?V0 + 7,A
//  316   cmd1 = pBuf[MT_RPC_POS_CMD1];
        MOV     DPL,R2
        MOV     DPH,R3
        INC     DPTR
        INC     DPTR
        MOVX    A,@DPTR
        MOV     ?V0 + 6,A
//  317   pBuf += MT_RPC_FRAME_HDR_SZ;
        MOV     A,R2
        ADD     A,#0x3
        MOV     ?V0 + 2,A
        MOV     A,R3
        LCALL   ?Subroutine34 & 0xFFFF
//  318 
//  319   if (cmd1 == MT_AF_DATA_REQUEST_EXT)
??CrossCallReturnLabel_69:
        INC     DPTR
        MOV     R0,DPL
        MOV     R1,DPH
        MOV     A,#0x2
        XRL     A,?V0 + 6
        JNZ     ??MT_AfDataRequest_0
//  320   {
//  321     dstAddr.addrMode = (afAddrMode_t)*pBuf++;
        MOV     DPL,?V0 + 2
        MOV     DPH,?V0 + 3
        MOVX    A,@DPTR
        MOV     R2,A
        MOV     A,#0xa
        LCALL   ?XSTACK_DISP0_8
        MOV     A,R2
        MOVX    @DPTR,A
        MOV     ?V0 + 2,R0
        MOV     ?V0 + 3,R1
//  322 
//  323     if (dstAddr.addrMode == afAddr64Bit)
        MOV     A,#0x3
        XRL     A,R2
        JNZ     ??MT_AfDataRequest_1
//  324     {
//  325       (void)osal_memcpy(dstAddr.addr.extAddr, pBuf, Z_EXTADDR_LEN);
        ; Setup parameters for call to function osal_memcpy
        MOV     ?V0 + 8,R0
        MOV     ?V0 + 9,R1
        MOV     ?V0 + 10,#0x0
        MOV     R0,#?V0 + 8
        LCALL   ?PUSH_XSTACK_I_THREE
          CFI CFA_XSP16 add(XSP16, 39)
        MOV     R4,#0x8
        MOV     R5,#0x0
        MOV     A,#0x5
        LCALL   ?XSTACK_DISP0_8
        MOV     R2,DPL
        MOV     R3,DPH
        LCALL   ??osal_memcpy?relay
        MOV     A,#0x3
        LCALL   ?DEALLOC_XSTACK8
          CFI CFA_XSP16 add(XSP16, 36)
        SJMP    ??CrossCallReturnLabel_32
//  326     }
//  327     else
//  328     {
//  329       dstAddr.addr.shortAddr = BUILD_UINT16(pBuf[0], pBuf[1]);
??MT_AfDataRequest_1:
        MOV     DPL,R0
        MOV     DPH,R1
        LCALL   ?Subroutine15 & 0xFFFF
//  330     }
??CrossCallReturnLabel_93:
        LCALL   ?XSTACK_DISP0_8
        LCALL   ?Subroutine25 & 0xFFFF
//  331     pBuf += Z_EXTADDR_LEN;
??CrossCallReturnLabel_32:
        MOV     A,?V0 + 2
        ADD     A,#0x8
        LCALL   ??Subroutine42_0 & 0xFFFF
//  332 
//  333     dstAddr.endPoint = *pBuf++;
??CrossCallReturnLabel_68:
        PUSH    A
          CFI CFA_SP SP+-1
        MOV     A,#0xb
        LCALL   ?XSTACK_DISP0_8
        POP     A
          CFI CFA_SP SP+0
        LCALL   ?Subroutine23 & 0xFFFF
//  334     dstAddr.panId = BUILD_UINT16(pBuf[0], pBuf[1]);
??CrossCallReturnLabel_26:
        MOVX    A,@DPTR
        MOV     R2,A
        INC     DPTR
        MOVX    A,@DPTR
        MOV     R1,A
        MOV     A,R2
        MOV     R0,A
        MOV     A,#0xc
        LCALL   ?XSTACK_DISP0_8
        LCALL   ?Subroutine25 & 0xFFFF
//  335     pBuf += 2;
??CrossCallReturnLabel_33:
        LCALL   ?Subroutine32 & 0xFFFF
//  336   }
??CrossCallReturnLabel_54:
        SJMP    ??MT_AfDataRequest_2
//  337   else
//  338   {
//  339     /* Destination address */
//  340     dstAddr.addrMode = afAddr16Bit;
??MT_AfDataRequest_0:
        MOV     A,#0xa
        LCALL   ?XSTACK_DISP0_8
        MOV     A,#0x2
        MOVX    @DPTR,A
//  341     dstAddr.addr.shortAddr = BUILD_UINT16(pBuf[0], pBuf[1]);
        MOV     DPL,?V0 + 2
        MOV     DPH,?V0 + 3
        MOVX    A,@DPTR
        MOV     R2,A
        MOV     DPL,R0
        MOV     DPH,R1
        LCALL   ??Subroutine47_0 & 0xFFFF
??CrossCallReturnLabel_92:
        LCALL   ?XSTACK_DISP0_8
        LCALL   ?Subroutine25 & 0xFFFF
//  342     pBuf += 2;
??CrossCallReturnLabel_34:
        LCALL   ?Subroutine20 & 0xFFFF
//  343 
//  344     /* Destination endpoint */
//  345     dstAddr.endPoint = *pBuf++;
??CrossCallReturnLabel_66:
        PUSH    A
          CFI CFA_SP SP+-1
        MOV     A,#0xb
        LCALL   ?XSTACK_DISP0_8
        POP     A
          CFI CFA_SP SP+0
        LCALL   ?Subroutine23 & 0xFFFF
//  346     dstAddr.panId = 0;
??CrossCallReturnLabel_27:
        MOV     A,#0xc
        LCALL   ?XSTACK_DISP0_8
        CLR     A
        MOVX    @DPTR,A
        INC     DPTR
        MOVX    @DPTR,A
//  347   }
//  348 
//  349   /* Source endpoint */
//  350   epDesc = afFindEndPointDesc(*pBuf++);
??MT_AfDataRequest_2:
        ; Setup parameters for call to function afFindEndPointDesc
        MOV     DPL,?V0 + 2
        MOV     DPH,?V0 + 3
        MOVX    A,@DPTR
        MOV     R1,A
        LCALL   ??afFindEndPointDesc?relay
        MOV     ?V0 + 12,R2
        MOV     ?V0 + 13,R3
        MOV     DPL,?V0 + 2
        MOV     DPH,?V0 + 3
        INC     DPTR
        MOV     ?V0 + 2,DPL
        MOV     ?V0 + 3,DPH
//  351 
//  352   /* ClusterId */
//  353   cId = BUILD_UINT16(pBuf[0], pBuf[1]);
        LCALL   ??Subroutine48_0 & 0xFFFF
??CrossCallReturnLabel_95:
        MOV     ?V0 + 0,A
        CLR     A
        ADDC    A,R1
        MOV     ?V0 + 1,A
//  354   pBuf +=2;
        LCALL   ?Subroutine20 & 0xFFFF
//  355 
//  356   /* TransId */
//  357   transId = *pBuf++;
??CrossCallReturnLabel_67:
        PUSH    A
          CFI CFA_SP SP+-1
        MOV     A,#0x1
        LCALL   ?XSTACK_DISP0_8
        POP     A
          CFI CFA_SP SP+0
        LCALL   ?Subroutine40 & 0xFFFF
//  358 
//  359   /* TxOption */
//  360   txOpts = *pBuf++;
??CrossCallReturnLabel_64:
        LCALL   ?Subroutine37 & 0xFFFF
//  361 
//  362   /* Radius */
//  363   radius = *pBuf++;
??CrossCallReturnLabel_56:
        INC     DPTR
        MOV     ?V0 + 2,DPL
        MOV     ?V0 + 3,DPH
//  364 
//  365   /* Length */
//  366   if (cmd1 == MT_AF_DATA_REQUEST_EXT)
        INC     DPTR
        MOV     R0,DPL
        MOV     R1,DPH
        MOV     DPL,?V0 + 2
        MOV     DPH,?V0 + 3
        MOVX    A,@DPTR
        MOV     ?V0 + 8,A
        MOV     A,#0x2
        XRL     A,?V0 + 6
        JNZ     ??MT_AfDataRequest_3
//  367   {
//  368     dataLen = BUILD_UINT16(pBuf[0], pBuf[1]);
        MOV     DPL,R0
        MOV     DPH,R1
        MOVX    A,@DPTR
        MOV     R1,A
        MOV     A,?V0 + 8
        ADD     A,#0x0
        MOV     R6,A
        CLR     A
        ADDC    A,R1
        MOV     R7,A
//  369     tempLen = dataLen + MT_AF_REQ_MSG_LEN + MT_AF_REQ_MSG_EXT;
        MOV     A,R6
        ADD     A,#0x14
        MOV     R0,A
        MOV     A,R7
        ADDC    A,#0x0
        MOV     R1,A
//  370     pBuf += 2;
        LCALL   ?Subroutine32 & 0xFFFF
//  371   }
??CrossCallReturnLabel_55:
        SJMP    ??MT_AfDataRequest_4
//  372   else
//  373   {
//  374     dataLen = *pBuf++;
??MT_AfDataRequest_3:
        MOV     DPL,?V0 + 8
        MOV     R6,DPL
        MOV     R7,#0x0
        MOV     ?V0 + 2,R0
        MOV     ?V0 + 3,R1
//  375     tempLen = dataLen + MT_AF_REQ_MSG_LEN;
        MOV     A,R6
        ADD     A,#0xa
        MOV     R0,A
        CLR     A
        ADDC    A,#0x0
        MOV     R1,A
//  376   }
//  377 
//  378   if ( epDesc == NULL )
??MT_AfDataRequest_4:
        MOV     A,?V0 + 12
        ORL     A,?V0 + 13
        JZ      ??MT_AfDataRequest_5
//  379   {
//  380     retValue = afStatus_INVALID_PARAMETER;
//  381   }
//  382   else if (tempLen > (uint16)MT_RPC_DATA_MAX)
        CLR     C
        MOV     A,R0
        SUBB    A,#-0x5
        MOV     A,R1
        SUBB    A,#0x0
        JNC     $+5
        LJMP    ??MT_AfDataRequest_6 & 0xFFFF
//  383   {
//  384     if (pMtAfDataReq != NULL)
        LCALL   ?Subroutine4 & 0xFFFF
??CrossCallReturnLabel_86:
        JZ      ??MT_AfDataRequest_7
//  385     {
//  386       retValue = afStatus_INVALID_PARAMETER;
??MT_AfDataRequest_5:
        MOV     DPL,?XSP + 0
        MOV     DPH,?XSP + 1
        MOV     A,#0x2
        LJMP    ??MT_AfDataRequest_8 & 0xFFFF
//  387     }
//  388     else if ((pMtAfDataReq = osal_mem_alloc(sizeof(mtAfDataReq_t) + dataLen)) == NULL)
??MT_AfDataRequest_7:
        ; Setup parameters for call to function osal_mem_alloc
        MOV     A,R6
        ADD     A,#0x18
        MOV     R2,A
        MOV     A,R7
        ADDC    A,#0x0
        MOV     R3,A
        LCALL   ??osal_mem_alloc?relay
        MOV     DPTR,#pMtAfDataReq
        MOV     A,R2
        MOVX    @DPTR,A
        INC     DPTR
        MOV     A,R3
        MOVX    @DPTR,A
        LCALL   ?Subroutine4 & 0xFFFF
??CrossCallReturnLabel_87:
        MOV     DPL,?XSP + 0
        MOV     DPH,?XSP + 1
        JNZ     ??MT_AfDataRequest_9
//  389     {
//  390       retValue = afStatus_MEM_FAIL;
        MOV     A,#0x10
        LJMP    ??MT_AfDataRequest_8 & 0xFFFF
//  391     }
//  392     else
//  393     {
//  394       retValue = afStatus_SUCCESS;
??MT_AfDataRequest_9:
        CLR     A
        MOVX    @DPTR,A
//  395 
//  396       pMtAfDataReq->data = (uint8 *)(pMtAfDataReq+1);
        MOV     DPTR,#pMtAfDataReq
        MOVX    A,@DPTR
        ADD     A,#0x18
        MOV     R2,A
        INC     DPTR
        MOVX    A,@DPTR
        ADDC    A,#0x0
        MOV     R3,A
        LCALL   ?Subroutine19 & 0xFFFF
??CrossCallReturnLabel_24:
        MOV     A,R2
        MOVX    @DPTR,A
        INC     DPTR
        MOV     A,R3
        MOVX    @DPTR,A
//  397       (void)osal_memcpy(&(pMtAfDataReq->dstAddr), &dstAddr, sizeof(afAddrType_t));
        ; Setup parameters for call to function osal_memcpy
        MOV     A,#0x2
        LCALL   ?XSTACK_DISP0_8
        MOV     R1,DPL
        MOV     R2,DPH
        MOV     ?V0 + 8,R1
        MOV     ?V0 + 9,R2
        MOV     ?V0 + 10,#0x0
        MOV     R0,#?V0 + 8
        LCALL   ?PUSH_XSTACK_I_THREE
          CFI CFA_XSP16 add(XSP16, 39)
        MOV     R4,#0xc
        MOV     R5,#0x0
        LCALL   ?Subroutine17 & 0xFFFF
??CrossCallReturnLabel_20:
        LCALL   ??osal_memcpy?relay
        MOV     A,#0x3
        LCALL   ?DEALLOC_XSTACK8
          CFI CFA_XSP16 add(XSP16, 36)
//  398       pMtAfDataReq->epDesc = epDesc;
        LCALL   ?Subroutine8 & 0xFFFF
??CrossCallReturnLabel_8:
        MOV     A,?V0 + 12
        MOVX    @DPTR,A
        INC     DPTR
        MOV     A,?V0 + 13
        MOVX    @DPTR,A
//  399       pMtAfDataReq->cId = cId;
        LCALL   ?Subroutine9 & 0xFFFF
??CrossCallReturnLabel_10:
        MOV     A,?V0 + 0
        MOVX    @DPTR,A
        INC     DPTR
        MOV     A,?V0 + 1
        MOVX    @DPTR,A
//  400       pMtAfDataReq->dataLen = dataLen;
        LCALL   ?Subroutine10 & 0xFFFF
??CrossCallReturnLabel_12:
        MOV     A,R6
        MOVX    @DPTR,A
        INC     DPTR
        MOV     A,R7
        MOVX    @DPTR,A
//  401       pMtAfDataReq->transId = transId;
        MOV     A,#0x1
        LCALL   ?XSTACK_DISP0_8
        MOVX    A,@DPTR
        PUSH    A
          CFI CFA_SP SP+-1
        LCALL   ?Subroutine38 & 0xFFFF
??CrossCallReturnLabel_59:
        ADD     A,#0x14
        LCALL   ??Subroutine43_0 & 0xFFFF
??CrossCallReturnLabel_75:
        POP     A
          CFI CFA_SP SP+0
        MOVX    @DPTR,A
//  402       pMtAfDataReq->txOpts = txOpts;
        LCALL   ?Subroutine11 & 0xFFFF
??CrossCallReturnLabel_14:
        MOV     A,?V0 + 4
        MOVX    @DPTR,A
//  403       pMtAfDataReq->radius = radius;
        MOV     DPTR,#pMtAfDataReq
        MOVX    A,@DPTR
        MOV     R0,A
        INC     DPTR
        LCALL   ?Subroutine14 & 0xFFFF
??CrossCallReturnLabel_16:
        MOV     A,?V0 + 5
        LCALL   ?Subroutine7 & 0xFFFF
//  404 
//  405       // Setup to time-out the huge outgoing item if host does not MT_AF_DATA_STORE it.
//  406       pMtAfDataReq->tick = MT_AF_EXEC_CNT;
??CrossCallReturnLabel_6:
        LCALL   ?Subroutine24 & 0xFFFF
//  407       if (ZSuccess != osal_start_timerEx(MT_TaskID, MT_AF_EXEC_EVT, MT_AF_EXEC_DLY))
??CrossCallReturnLabel_28:
        LCALL   ??osal_start_timerEx?relay
        MOV     A,R1
        JZ      ??MT_AfDataRequest_10
//  408       {
//  409         (void)osal_set_event(MT_TaskID, MT_AF_EXEC_EVT);
        ; Setup parameters for call to function osal_set_event
        MOV     R2,#0x8
        MOV     R3,#0x0
        MOV     DPTR,#MT_TaskID
        MOVX    A,@DPTR
        MOV     R1,A
        LCALL   ??osal_set_event?relay
        SJMP    ??MT_AfDataRequest_10
//  410       }
//  411     }
//  412   }
//  413   else
//  414   {
//  415     retValue = AF_DataRequest(&dstAddr, epDesc, cId, dataLen, pBuf, &transId, txOpts, radius);
??MT_AfDataRequest_6:
        ; Setup parameters for call to function AF_DataRequest
        MOV     R0,#?V0 + 5
        LCALL   ?PUSH_XSTACK_I_ONE
          CFI CFA_XSP16 add(XSP16, 37)
        MOV     A,#0x2
        LCALL   ?XSTACK_DISP0_8
        MOV     ?V0 + 8,DPL
        MOV     ?V0 + 9,DPH
        MOV     R0,#?V0 + 8
        LCALL   ?PUSH_XSTACK_I_TWO
          CFI CFA_XSP16 add(XSP16, 39)
        MOV     R0,#?V0 + 2
        LCALL   ?PUSH_XSTACK_I_TWO
          CFI CFA_XSP16 add(XSP16, 41)
        MOV     ?V0 + 2,R6
        MOV     ?V0 + 3,R7
        MOV     R0,#?V0 + 2
        LCALL   ?PUSH_XSTACK_I_TWO
          CFI CFA_XSP16 add(XSP16, 43)
        MOV     R0,#?V0 + 0
        LCALL   ?PUSH_XSTACK_I_TWO
          CFI CFA_XSP16 add(XSP16, 45)
        MOV     R1,?V0 + 4
        MOV     R4,?V0 + 12
        MOV     R5,?V0 + 13
        MOV     A,#0xb
        LCALL   ?XSTACK_DISP0_8
        MOV     R2,DPL
        MOV     R3,DPH
        LCALL   ??AF_DataRequest?relay
        MOV     A,#0x9
        LCALL   ?DEALLOC_XSTACK8
          CFI CFA_XSP16 add(XSP16, 36)
        MOV     A,R1
        MOV     DPL,?XSP + 0
        MOV     DPH,?XSP + 1
??MT_AfDataRequest_8:
        MOVX    @DPTR,A
//  416   }
//  417 
//  418   if (MT_RPC_CMD_SREQ == (cmd0 & MT_RPC_CMD_TYPE_MASK))
??MT_AfDataRequest_10:
        MOV     A,#-0x20
        ANL     A,?V0 + 7
        XRL     A,#0x20
        JNZ     ??MT_AfDataRequest_11
//  419   {
//  420     MT_BuildAndSendZToolResponse(((uint8)MT_RPC_CMD_SRSP|(uint8)MT_RPC_SYS_AF), cmd1, 1, &retValue);
        ; Setup parameters for call to function MT_BuildAndSendZToolResponse
        MOV     DPL,?XSP + 0
        MOV     DPH,?XSP + 1
        MOV     R4,DPL
        MOV     R5,DPH
        MOV     R3,#0x1
        MOV     R2,?V0 + 6
        MOV     R1,#0x64
        LCALL   ??MT_BuildAndSendZToolResponse?relay
          CFI EndBlock cfiBlock5
//  421   }
//  422 }
??MT_AfDataRequest_11:
        REQUIRE ?Subroutine2
        ; // Fall through to label ?Subroutine2

        RSEG BANKED_CODE:CODE:NOROOT(0)
?Subroutine2:
          CFI Block cfiBlock6 Using cfiCommon0
          CFI NoFunction
          CFI CFA_SP SP+0
          CFI CFA_XSP16 add(XSP16, 36)
          CFI VB load(1, XDATA, add(CFA_XSP16, literal(-21)))
          CFI DPL0 load(1, XDATA, add(CFA_XSP16, literal(-2)))
          CFI DPH0 load(1, XDATA, add(CFA_XSP16, literal(-1)))
          CFI R6 load(1, XDATA, add(CFA_XSP16, literal(-22)))
          CFI R7 load(1, XDATA, add(CFA_XSP16, literal(-6)))
          CFI V0 load(1, XDATA, add(CFA_XSP16, literal(-20)))
          CFI V1 load(1, XDATA, add(CFA_XSP16, literal(-19)))
          CFI V2 load(1, XDATA, add(CFA_XSP16, literal(-18)))
          CFI V3 load(1, XDATA, add(CFA_XSP16, literal(-17)))
          CFI V4 load(1, XDATA, add(CFA_XSP16, literal(-16)))
          CFI V5 load(1, XDATA, add(CFA_XSP16, literal(-15)))
          CFI V6 load(1, XDATA, add(CFA_XSP16, literal(-14)))
          CFI V7 load(1, XDATA, add(CFA_XSP16, literal(-13)))
          CFI V8 load(1, XDATA, add(CFA_XSP16, literal(-12)))
          CFI V9 load(1, XDATA, add(CFA_XSP16, literal(-11)))
          CFI V10 load(1, XDATA, add(CFA_XSP16, literal(-10)))
          CFI V11 load(1, XDATA, add(CFA_XSP16, literal(-9)))
          CFI V12 load(1, XDATA, add(CFA_XSP16, literal(-8)))
          CFI V13 load(1, XDATA, add(CFA_XSP16, literal(-7)))
          CFI ?BRET_EXT load(1, XDATA, add(CFA_XSP16, literal(-3)))
          CFI ?RET_HIGH load(1, XDATA, add(CFA_XSP16, literal(-4)))
          CFI ?RET_LOW load(1, XDATA, add(CFA_XSP16, literal(-5)))
        MOV     A,#0xe
        LCALL   ?DEALLOC_XSTACK8
          CFI CFA_XSP16 add(XSP16, 22)
        MOV     R7,#0xe
        LJMP    ?BANKED_LEAVE_XDATA
          CFI EndBlock cfiBlock6

        RSEG BANKED_CODE:CODE:NOROOT(0)
?Subroutine32:
          CFI Block cfiCond7 Using cfiCommon0
          CFI Function MT_AfDataRequest
          CFI Conditional ??CrossCallReturnLabel_54
          CFI R6 load(1, XDATA, add(CFA_XSP16, literal(-22)))
          CFI VB load(1, XDATA, add(CFA_XSP16, literal(-21)))
          CFI V0 load(1, XDATA, add(CFA_XSP16, literal(-20)))
          CFI V1 load(1, XDATA, add(CFA_XSP16, literal(-19)))
          CFI V2 load(1, XDATA, add(CFA_XSP16, literal(-18)))
          CFI V3 load(1, XDATA, add(CFA_XSP16, literal(-17)))
          CFI V4 load(1, XDATA, add(CFA_XSP16, literal(-16)))
          CFI V5 load(1, XDATA, add(CFA_XSP16, literal(-15)))
          CFI V6 load(1, XDATA, add(CFA_XSP16, literal(-14)))
          CFI V7 load(1, XDATA, add(CFA_XSP16, literal(-13)))
          CFI V8 load(1, XDATA, add(CFA_XSP16, literal(-12)))
          CFI V9 load(1, XDATA, add(CFA_XSP16, literal(-11)))
          CFI V10 load(1, XDATA, add(CFA_XSP16, literal(-10)))
          CFI V11 load(1, XDATA, add(CFA_XSP16, literal(-9)))
          CFI V12 load(1, XDATA, add(CFA_XSP16, literal(-8)))
          CFI V13 load(1, XDATA, add(CFA_XSP16, literal(-7)))
          CFI R7 load(1, XDATA, add(CFA_XSP16, literal(-6)))
          CFI ?RET_LOW load(1, XDATA, add(CFA_XSP16, literal(-5)))
          CFI ?RET_HIGH load(1, XDATA, add(CFA_XSP16, literal(-4)))
          CFI ?BRET_EXT load(1, XDATA, add(CFA_XSP16, literal(-3)))
          CFI DPL0 load(1, XDATA, add(CFA_XSP16, literal(-2)))
          CFI DPH0 load(1, XDATA, add(CFA_XSP16, literal(-1)))
          CFI CFA_SP SP+0
          CFI CFA_XSP16 add(XSP16, 36)
          CFI Block cfiCond8 Using cfiCommon0
          CFI (cfiCond8) Function MT_AfDataRequest
          CFI (cfiCond8) Conditional ??CrossCallReturnLabel_55
          CFI (cfiCond8) R6 load(1, XDATA, add(CFA_XSP16, literal(-22)))
          CFI (cfiCond8) VB load(1, XDATA, add(CFA_XSP16, literal(-21)))
          CFI (cfiCond8) V0 load(1, XDATA, add(CFA_XSP16, literal(-20)))
          CFI (cfiCond8) V1 load(1, XDATA, add(CFA_XSP16, literal(-19)))
          CFI (cfiCond8) V2 load(1, XDATA, add(CFA_XSP16, literal(-18)))
          CFI (cfiCond8) V3 load(1, XDATA, add(CFA_XSP16, literal(-17)))
          CFI (cfiCond8) V4 load(1, XDATA, add(CFA_XSP16, literal(-16)))
          CFI (cfiCond8) V5 load(1, XDATA, add(CFA_XSP16, literal(-15)))
          CFI (cfiCond8) V6 load(1, XDATA, add(CFA_XSP16, literal(-14)))
          CFI (cfiCond8) V7 load(1, XDATA, add(CFA_XSP16, literal(-13)))
          CFI (cfiCond8) V8 load(1, XDATA, add(CFA_XSP16, literal(-12)))
          CFI (cfiCond8) V9 load(1, XDATA, add(CFA_XSP16, literal(-11)))
          CFI (cfiCond8) V10 load(1, XDATA, add(CFA_XSP16, literal(-10)))
          CFI (cfiCond8) V11 load(1, XDATA, add(CFA_XSP16, literal(-9)))
          CFI (cfiCond8) V12 load(1, XDATA, add(CFA_XSP16, literal(-8)))
          CFI (cfiCond8) V13 load(1, XDATA, add(CFA_XSP16, literal(-7)))
          CFI (cfiCond8) R7 load(1, XDATA, add(CFA_XSP16, literal(-6)))
          CFI (cfiCond8) ?RET_LOW load(1, XDATA, add(CFA_XSP16, literal(-5)))
          CFI (cfiCond8) ?RET_HIGH load(1, XDATA, add(CFA_XSP16, literal(-4)))
          CFI (cfiCond8) ?BRET_EXT load(1, XDATA, add(CFA_XSP16, literal(-3)))
          CFI (cfiCond8) DPL0 load(1, XDATA, add(CFA_XSP16, literal(-2)))
          CFI (cfiCond8) DPH0 load(1, XDATA, add(CFA_XSP16, literal(-1)))
          CFI (cfiCond8) CFA_SP SP+0
          CFI (cfiCond8) CFA_XSP16 add(XSP16, 36)
          CFI Block cfiPicker9 Using cfiCommon1
          CFI (cfiPicker9) NoFunction
          CFI (cfiPicker9) Picker
        MOV     A,?V0 + 2
        ADD     A,#0x2
        MOV     ?V0 + 2,A
        MOV     A,?V0 + 3
        ADDC    A,#0x0
        MOV     ?V0 + 3,A
        RET
          CFI EndBlock cfiCond7
          CFI EndBlock cfiCond8
          CFI EndBlock cfiPicker9

        RSEG BANKED_CODE:CODE:NOROOT(0)
?Subroutine23:
          CFI Block cfiCond10 Using cfiCommon0
          CFI Function MT_AfDataRequest
          CFI Conditional ??CrossCallReturnLabel_26
          CFI R6 load(1, XDATA, add(CFA_XSP16, literal(-22)))
          CFI VB load(1, XDATA, add(CFA_XSP16, literal(-21)))
          CFI V0 load(1, XDATA, add(CFA_XSP16, literal(-20)))
          CFI V1 load(1, XDATA, add(CFA_XSP16, literal(-19)))
          CFI V2 load(1, XDATA, add(CFA_XSP16, literal(-18)))
          CFI V3 load(1, XDATA, add(CFA_XSP16, literal(-17)))
          CFI V4 load(1, XDATA, add(CFA_XSP16, literal(-16)))
          CFI V5 load(1, XDATA, add(CFA_XSP16, literal(-15)))
          CFI V6 load(1, XDATA, add(CFA_XSP16, literal(-14)))
          CFI V7 load(1, XDATA, add(CFA_XSP16, literal(-13)))
          CFI V8 load(1, XDATA, add(CFA_XSP16, literal(-12)))
          CFI V9 load(1, XDATA, add(CFA_XSP16, literal(-11)))
          CFI V10 load(1, XDATA, add(CFA_XSP16, literal(-10)))
          CFI V11 load(1, XDATA, add(CFA_XSP16, literal(-9)))
          CFI V12 load(1, XDATA, add(CFA_XSP16, literal(-8)))
          CFI V13 load(1, XDATA, add(CFA_XSP16, literal(-7)))
          CFI R7 load(1, XDATA, add(CFA_XSP16, literal(-6)))
          CFI ?RET_LOW load(1, XDATA, add(CFA_XSP16, literal(-5)))
          CFI ?RET_HIGH load(1, XDATA, add(CFA_XSP16, literal(-4)))
          CFI ?BRET_EXT load(1, XDATA, add(CFA_XSP16, literal(-3)))
          CFI DPL0 load(1, XDATA, add(CFA_XSP16, literal(-2)))
          CFI DPH0 load(1, XDATA, add(CFA_XSP16, literal(-1)))
          CFI CFA_SP SP+0
          CFI CFA_XSP16 add(XSP16, 36)
          CFI Block cfiCond11 Using cfiCommon0
          CFI (cfiCond11) Function MT_AfDataRequest
          CFI (cfiCond11) Conditional ??CrossCallReturnLabel_27
          CFI (cfiCond11) R6 load(1, XDATA, add(CFA_XSP16, literal(-22)))
          CFI (cfiCond11) VB load(1, XDATA, add(CFA_XSP16, literal(-21)))
          CFI (cfiCond11) V0 load(1, XDATA, add(CFA_XSP16, literal(-20)))
          CFI (cfiCond11) V1 load(1, XDATA, add(CFA_XSP16, literal(-19)))
          CFI (cfiCond11) V2 load(1, XDATA, add(CFA_XSP16, literal(-18)))
          CFI (cfiCond11) V3 load(1, XDATA, add(CFA_XSP16, literal(-17)))
          CFI (cfiCond11) V4 load(1, XDATA, add(CFA_XSP16, literal(-16)))
          CFI (cfiCond11) V5 load(1, XDATA, add(CFA_XSP16, literal(-15)))
          CFI (cfiCond11) V6 load(1, XDATA, add(CFA_XSP16, literal(-14)))
          CFI (cfiCond11) V7 load(1, XDATA, add(CFA_XSP16, literal(-13)))
          CFI (cfiCond11) V8 load(1, XDATA, add(CFA_XSP16, literal(-12)))
          CFI (cfiCond11) V9 load(1, XDATA, add(CFA_XSP16, literal(-11)))
          CFI (cfiCond11) V10 load(1, XDATA, add(CFA_XSP16, literal(-10)))
          CFI (cfiCond11) V11 load(1, XDATA, add(CFA_XSP16, literal(-9)))
          CFI (cfiCond11) V12 load(1, XDATA, add(CFA_XSP16, literal(-8)))
          CFI (cfiCond11) V13 load(1, XDATA, add(CFA_XSP16, literal(-7)))
          CFI (cfiCond11) R7 load(1, XDATA, add(CFA_XSP16, literal(-6)))
          CFI (cfiCond11) ?RET_LOW load(1, XDATA, add(CFA_XSP16, literal(-5)))
          CFI (cfiCond11) ?RET_HIGH load(1, XDATA, add(CFA_XSP16, literal(-4)))
          CFI (cfiCond11) ?BRET_EXT load(1, XDATA, add(CFA_XSP16, literal(-3)))
          CFI (cfiCond11) DPL0 load(1, XDATA, add(CFA_XSP16, literal(-2)))
          CFI (cfiCond11) DPH0 load(1, XDATA, add(CFA_XSP16, literal(-1)))
          CFI (cfiCond11) CFA_SP SP+0
          CFI (cfiCond11) CFA_XSP16 add(XSP16, 36)
          CFI Block cfiPicker12 Using cfiCommon1
          CFI (cfiPicker12) NoFunction
          CFI (cfiPicker12) Picker
        LCALL   ?Subroutine40 & 0xFFFF
??CrossCallReturnLabel_65:
        MOV     ?V0 + 2,DPL
        MOV     ?V0 + 3,DPH
        RET
          CFI EndBlock cfiCond10
          CFI EndBlock cfiCond11
          CFI EndBlock cfiPicker12

        RSEG BANKED_CODE:CODE:NOROOT(0)
?Subroutine40:
          CFI Block cfiCond13 Using cfiCommon0
          CFI Function MT_AfDataRequest
          CFI Conditional ??CrossCallReturnLabel_64
          CFI R6 load(1, XDATA, add(CFA_XSP16, literal(-22)))
          CFI VB load(1, XDATA, add(CFA_XSP16, literal(-21)))
          CFI V0 load(1, XDATA, add(CFA_XSP16, literal(-20)))
          CFI V1 load(1, XDATA, add(CFA_XSP16, literal(-19)))
          CFI V2 load(1, XDATA, add(CFA_XSP16, literal(-18)))
          CFI V3 load(1, XDATA, add(CFA_XSP16, literal(-17)))
          CFI V4 load(1, XDATA, add(CFA_XSP16, literal(-16)))
          CFI V5 load(1, XDATA, add(CFA_XSP16, literal(-15)))
          CFI V6 load(1, XDATA, add(CFA_XSP16, literal(-14)))
          CFI V7 load(1, XDATA, add(CFA_XSP16, literal(-13)))
          CFI V8 load(1, XDATA, add(CFA_XSP16, literal(-12)))
          CFI V9 load(1, XDATA, add(CFA_XSP16, literal(-11)))
          CFI V10 load(1, XDATA, add(CFA_XSP16, literal(-10)))
          CFI V11 load(1, XDATA, add(CFA_XSP16, literal(-9)))
          CFI V12 load(1, XDATA, add(CFA_XSP16, literal(-8)))
          CFI V13 load(1, XDATA, add(CFA_XSP16, literal(-7)))
          CFI R7 load(1, XDATA, add(CFA_XSP16, literal(-6)))
          CFI ?RET_LOW load(1, XDATA, add(CFA_XSP16, literal(-5)))
          CFI ?RET_HIGH load(1, XDATA, add(CFA_XSP16, literal(-4)))
          CFI ?BRET_EXT load(1, XDATA, add(CFA_XSP16, literal(-3)))
          CFI DPL0 load(1, XDATA, add(CFA_XSP16, literal(-2)))
          CFI DPH0 load(1, XDATA, add(CFA_XSP16, literal(-1)))
          CFI CFA_SP SP+0
          CFI CFA_XSP16 add(XSP16, 36)
          CFI Block cfiCond14 Using cfiCommon0
          CFI (cfiCond14) Function MT_AfDataRequest
          CFI (cfiCond14) Conditional ??CrossCallReturnLabel_65, ??CrossCallReturnLabel_26
          CFI (cfiCond14) R6 load(1, XDATA, add(CFA_XSP16, literal(-22)))
          CFI (cfiCond14) VB load(1, XDATA, add(CFA_XSP16, literal(-21)))
          CFI (cfiCond14) V0 load(1, XDATA, add(CFA_XSP16, literal(-20)))
          CFI (cfiCond14) V1 load(1, XDATA, add(CFA_XSP16, literal(-19)))
          CFI (cfiCond14) V2 load(1, XDATA, add(CFA_XSP16, literal(-18)))
          CFI (cfiCond14) V3 load(1, XDATA, add(CFA_XSP16, literal(-17)))
          CFI (cfiCond14) V4 load(1, XDATA, add(CFA_XSP16, literal(-16)))
          CFI (cfiCond14) V5 load(1, XDATA, add(CFA_XSP16, literal(-15)))
          CFI (cfiCond14) V6 load(1, XDATA, add(CFA_XSP16, literal(-14)))
          CFI (cfiCond14) V7 load(1, XDATA, add(CFA_XSP16, literal(-13)))
          CFI (cfiCond14) V8 load(1, XDATA, add(CFA_XSP16, literal(-12)))
          CFI (cfiCond14) V9 load(1, XDATA, add(CFA_XSP16, literal(-11)))
          CFI (cfiCond14) V10 load(1, XDATA, add(CFA_XSP16, literal(-10)))
          CFI (cfiCond14) V11 load(1, XDATA, add(CFA_XSP16, literal(-9)))
          CFI (cfiCond14) V12 load(1, XDATA, add(CFA_XSP16, literal(-8)))
          CFI (cfiCond14) V13 load(1, XDATA, add(CFA_XSP16, literal(-7)))
          CFI (cfiCond14) R7 load(1, XDATA, add(CFA_XSP16, literal(-6)))
          CFI (cfiCond14) ?RET_LOW load(1, XDATA, add(CFA_XSP16, literal(-5)))
          CFI (cfiCond14) ?RET_HIGH load(1, XDATA, add(CFA_XSP16, literal(-4)))
          CFI (cfiCond14) ?BRET_EXT load(1, XDATA, add(CFA_XSP16, literal(-3)))
          CFI (cfiCond14) DPL0 load(1, XDATA, add(CFA_XSP16, literal(-2)))
          CFI (cfiCond14) DPH0 load(1, XDATA, add(CFA_XSP16, literal(-1)))
          CFI (cfiCond14) CFA_SP SP+0
          CFI (cfiCond14) CFA_XSP16 add(XSP16, 36)
          CFI Block cfiCond15 Using cfiCommon0
          CFI (cfiCond15) Function MT_AfDataRequest
          CFI (cfiCond15) Conditional ??CrossCallReturnLabel_65, ??CrossCallReturnLabel_27
          CFI (cfiCond15) R6 load(1, XDATA, add(CFA_XSP16, literal(-22)))
          CFI (cfiCond15) VB load(1, XDATA, add(CFA_XSP16, literal(-21)))
          CFI (cfiCond15) V0 load(1, XDATA, add(CFA_XSP16, literal(-20)))
          CFI (cfiCond15) V1 load(1, XDATA, add(CFA_XSP16, literal(-19)))
          CFI (cfiCond15) V2 load(1, XDATA, add(CFA_XSP16, literal(-18)))
          CFI (cfiCond15) V3 load(1, XDATA, add(CFA_XSP16, literal(-17)))
          CFI (cfiCond15) V4 load(1, XDATA, add(CFA_XSP16, literal(-16)))
          CFI (cfiCond15) V5 load(1, XDATA, add(CFA_XSP16, literal(-15)))
          CFI (cfiCond15) V6 load(1, XDATA, add(CFA_XSP16, literal(-14)))
          CFI (cfiCond15) V7 load(1, XDATA, add(CFA_XSP16, literal(-13)))
          CFI (cfiCond15) V8 load(1, XDATA, add(CFA_XSP16, literal(-12)))
          CFI (cfiCond15) V9 load(1, XDATA, add(CFA_XSP16, literal(-11)))
          CFI (cfiCond15) V10 load(1, XDATA, add(CFA_XSP16, literal(-10)))
          CFI (cfiCond15) V11 load(1, XDATA, add(CFA_XSP16, literal(-9)))
          CFI (cfiCond15) V12 load(1, XDATA, add(CFA_XSP16, literal(-8)))
          CFI (cfiCond15) V13 load(1, XDATA, add(CFA_XSP16, literal(-7)))
          CFI (cfiCond15) R7 load(1, XDATA, add(CFA_XSP16, literal(-6)))
          CFI (cfiCond15) ?RET_LOW load(1, XDATA, add(CFA_XSP16, literal(-5)))
          CFI (cfiCond15) ?RET_HIGH load(1, XDATA, add(CFA_XSP16, literal(-4)))
          CFI (cfiCond15) ?BRET_EXT load(1, XDATA, add(CFA_XSP16, literal(-3)))
          CFI (cfiCond15) DPL0 load(1, XDATA, add(CFA_XSP16, literal(-2)))
          CFI (cfiCond15) DPH0 load(1, XDATA, add(CFA_XSP16, literal(-1)))
          CFI (cfiCond15) CFA_SP SP+0
          CFI (cfiCond15) CFA_XSP16 add(XSP16, 36)
          CFI Block cfiPicker16 Using cfiCommon1
          CFI (cfiPicker16) NoFunction
          CFI (cfiPicker16) Picker
        MOVX    @DPTR,A
        MOV     DPL,?V0 + 2
        MOV     DPH,?V0 + 3
        INC     DPTR
        RET
          CFI EndBlock cfiCond13
          CFI EndBlock cfiCond14
          CFI EndBlock cfiCond15
          CFI EndBlock cfiPicker16

        RSEG BANKED_CODE:CODE:NOROOT(0)
?Subroutine20:
          CFI Block cfiCond17 Using cfiCommon0
          CFI Function MT_AfDataRequest
          CFI Conditional ??CrossCallReturnLabel_66
          CFI R6 load(1, XDATA, add(CFA_XSP16, literal(-22)))
          CFI VB load(1, XDATA, add(CFA_XSP16, literal(-21)))
          CFI V0 load(1, XDATA, add(CFA_XSP16, literal(-20)))
          CFI V1 load(1, XDATA, add(CFA_XSP16, literal(-19)))
          CFI V2 load(1, XDATA, add(CFA_XSP16, literal(-18)))
          CFI V3 load(1, XDATA, add(CFA_XSP16, literal(-17)))
          CFI V4 load(1, XDATA, add(CFA_XSP16, literal(-16)))
          CFI V5 load(1, XDATA, add(CFA_XSP16, literal(-15)))
          CFI V6 load(1, XDATA, add(CFA_XSP16, literal(-14)))
          CFI V7 load(1, XDATA, add(CFA_XSP16, literal(-13)))
          CFI V8 load(1, XDATA, add(CFA_XSP16, literal(-12)))
          CFI V9 load(1, XDATA, add(CFA_XSP16, literal(-11)))
          CFI V10 load(1, XDATA, add(CFA_XSP16, literal(-10)))
          CFI V11 load(1, XDATA, add(CFA_XSP16, literal(-9)))
          CFI V12 load(1, XDATA, add(CFA_XSP16, literal(-8)))
          CFI V13 load(1, XDATA, add(CFA_XSP16, literal(-7)))
          CFI R7 load(1, XDATA, add(CFA_XSP16, literal(-6)))
          CFI ?RET_LOW load(1, XDATA, add(CFA_XSP16, literal(-5)))
          CFI ?RET_HIGH load(1, XDATA, add(CFA_XSP16, literal(-4)))
          CFI ?BRET_EXT load(1, XDATA, add(CFA_XSP16, literal(-3)))
          CFI DPL0 load(1, XDATA, add(CFA_XSP16, literal(-2)))
          CFI DPH0 load(1, XDATA, add(CFA_XSP16, literal(-1)))
          CFI CFA_SP SP+0
          CFI CFA_XSP16 add(XSP16, 36)
          CFI Block cfiCond18 Using cfiCommon0
          CFI (cfiCond18) Function MT_AfDataRequest
          CFI (cfiCond18) Conditional ??CrossCallReturnLabel_67
          CFI (cfiCond18) R6 load(1, XDATA, add(CFA_XSP16, literal(-22)))
          CFI (cfiCond18) VB load(1, XDATA, add(CFA_XSP16, literal(-21)))
          CFI (cfiCond18) V0 load(1, XDATA, add(CFA_XSP16, literal(-20)))
          CFI (cfiCond18) V1 load(1, XDATA, add(CFA_XSP16, literal(-19)))
          CFI (cfiCond18) V2 load(1, XDATA, add(CFA_XSP16, literal(-18)))
          CFI (cfiCond18) V3 load(1, XDATA, add(CFA_XSP16, literal(-17)))
          CFI (cfiCond18) V4 load(1, XDATA, add(CFA_XSP16, literal(-16)))
          CFI (cfiCond18) V5 load(1, XDATA, add(CFA_XSP16, literal(-15)))
          CFI (cfiCond18) V6 load(1, XDATA, add(CFA_XSP16, literal(-14)))
          CFI (cfiCond18) V7 load(1, XDATA, add(CFA_XSP16, literal(-13)))
          CFI (cfiCond18) V8 load(1, XDATA, add(CFA_XSP16, literal(-12)))
          CFI (cfiCond18) V9 load(1, XDATA, add(CFA_XSP16, literal(-11)))
          CFI (cfiCond18) V10 load(1, XDATA, add(CFA_XSP16, literal(-10)))
          CFI (cfiCond18) V11 load(1, XDATA, add(CFA_XSP16, literal(-9)))
          CFI (cfiCond18) V12 load(1, XDATA, add(CFA_XSP16, literal(-8)))
          CFI (cfiCond18) V13 load(1, XDATA, add(CFA_XSP16, literal(-7)))
          CFI (cfiCond18) R7 load(1, XDATA, add(CFA_XSP16, literal(-6)))
          CFI (cfiCond18) ?RET_LOW load(1, XDATA, add(CFA_XSP16, literal(-5)))
          CFI (cfiCond18) ?RET_HIGH load(1, XDATA, add(CFA_XSP16, literal(-4)))
          CFI (cfiCond18) ?BRET_EXT load(1, XDATA, add(CFA_XSP16, literal(-3)))
          CFI (cfiCond18) DPL0 load(1, XDATA, add(CFA_XSP16, literal(-2)))
          CFI (cfiCond18) DPH0 load(1, XDATA, add(CFA_XSP16, literal(-1)))
          CFI (cfiCond18) CFA_SP SP+0
          CFI (cfiCond18) CFA_XSP16 add(XSP16, 36)
          CFI Block cfiPicker19 Using cfiCommon1
          CFI (cfiPicker19) NoFunction
          CFI (cfiPicker19) Picker
        MOV     A,?V0 + 2
        ADD     A,#0x2
          CFI EndBlock cfiCond17
          CFI EndBlock cfiCond18
          CFI EndBlock cfiPicker19
        REQUIRE ??Subroutine42_0
        ; // Fall through to label ??Subroutine42_0

        RSEG BANKED_CODE:CODE:NOROOT(0)
??Subroutine42_0:
          CFI Block cfiCond20 Using cfiCommon0
          CFI Function MT_AfDataRequest
          CFI Conditional ??CrossCallReturnLabel_68
          CFI R6 load(1, XDATA, add(CFA_XSP16, literal(-22)))
          CFI VB load(1, XDATA, add(CFA_XSP16, literal(-21)))
          CFI V0 load(1, XDATA, add(CFA_XSP16, literal(-20)))
          CFI V1 load(1, XDATA, add(CFA_XSP16, literal(-19)))
          CFI V2 load(1, XDATA, add(CFA_XSP16, literal(-18)))
          CFI V3 load(1, XDATA, add(CFA_XSP16, literal(-17)))
          CFI V4 load(1, XDATA, add(CFA_XSP16, literal(-16)))
          CFI V5 load(1, XDATA, add(CFA_XSP16, literal(-15)))
          CFI V6 load(1, XDATA, add(CFA_XSP16, literal(-14)))
          CFI V7 load(1, XDATA, add(CFA_XSP16, literal(-13)))
          CFI V8 load(1, XDATA, add(CFA_XSP16, literal(-12)))
          CFI V9 load(1, XDATA, add(CFA_XSP16, literal(-11)))
          CFI V10 load(1, XDATA, add(CFA_XSP16, literal(-10)))
          CFI V11 load(1, XDATA, add(CFA_XSP16, literal(-9)))
          CFI V12 load(1, XDATA, add(CFA_XSP16, literal(-8)))
          CFI V13 load(1, XDATA, add(CFA_XSP16, literal(-7)))
          CFI R7 load(1, XDATA, add(CFA_XSP16, literal(-6)))
          CFI ?RET_LOW load(1, XDATA, add(CFA_XSP16, literal(-5)))
          CFI ?RET_HIGH load(1, XDATA, add(CFA_XSP16, literal(-4)))
          CFI ?BRET_EXT load(1, XDATA, add(CFA_XSP16, literal(-3)))
          CFI DPL0 load(1, XDATA, add(CFA_XSP16, literal(-2)))
          CFI DPH0 load(1, XDATA, add(CFA_XSP16, literal(-1)))
          CFI CFA_SP SP+0
          CFI CFA_XSP16 add(XSP16, 36)
          CFI Block cfiCond21 Using cfiCommon0
          CFI (cfiCond21) Function MT_AfDataRequest
          CFI (cfiCond21) Conditional ??CrossCallReturnLabel_66
          CFI (cfiCond21) R6 load(1, XDATA, add(CFA_XSP16, literal(-22)))
          CFI (cfiCond21) VB load(1, XDATA, add(CFA_XSP16, literal(-21)))
          CFI (cfiCond21) V0 load(1, XDATA, add(CFA_XSP16, literal(-20)))
          CFI (cfiCond21) V1 load(1, XDATA, add(CFA_XSP16, literal(-19)))
          CFI (cfiCond21) V2 load(1, XDATA, add(CFA_XSP16, literal(-18)))
          CFI (cfiCond21) V3 load(1, XDATA, add(CFA_XSP16, literal(-17)))
          CFI (cfiCond21) V4 load(1, XDATA, add(CFA_XSP16, literal(-16)))
          CFI (cfiCond21) V5 load(1, XDATA, add(CFA_XSP16, literal(-15)))
          CFI (cfiCond21) V6 load(1, XDATA, add(CFA_XSP16, literal(-14)))
          CFI (cfiCond21) V7 load(1, XDATA, add(CFA_XSP16, literal(-13)))
          CFI (cfiCond21) V8 load(1, XDATA, add(CFA_XSP16, literal(-12)))
          CFI (cfiCond21) V9 load(1, XDATA, add(CFA_XSP16, literal(-11)))
          CFI (cfiCond21) V10 load(1, XDATA, add(CFA_XSP16, literal(-10)))
          CFI (cfiCond21) V11 load(1, XDATA, add(CFA_XSP16, literal(-9)))
          CFI (cfiCond21) V12 load(1, XDATA, add(CFA_XSP16, literal(-8)))
          CFI (cfiCond21) V13 load(1, XDATA, add(CFA_XSP16, literal(-7)))
          CFI (cfiCond21) R7 load(1, XDATA, add(CFA_XSP16, literal(-6)))
          CFI (cfiCond21) ?RET_LOW load(1, XDATA, add(CFA_XSP16, literal(-5)))
          CFI (cfiCond21) ?RET_HIGH load(1, XDATA, add(CFA_XSP16, literal(-4)))
          CFI (cfiCond21) ?BRET_EXT load(1, XDATA, add(CFA_XSP16, literal(-3)))
          CFI (cfiCond21) DPL0 load(1, XDATA, add(CFA_XSP16, literal(-2)))
          CFI (cfiCond21) DPH0 load(1, XDATA, add(CFA_XSP16, literal(-1)))
          CFI (cfiCond21) CFA_SP SP+0
          CFI (cfiCond21) CFA_XSP16 add(XSP16, 36)
          CFI Block cfiCond22 Using cfiCommon0
          CFI (cfiCond22) Function MT_AfDataRequest
          CFI (cfiCond22) Conditional ??CrossCallReturnLabel_67
          CFI (cfiCond22) R6 load(1, XDATA, add(CFA_XSP16, literal(-22)))
          CFI (cfiCond22) VB load(1, XDATA, add(CFA_XSP16, literal(-21)))
          CFI (cfiCond22) V0 load(1, XDATA, add(CFA_XSP16, literal(-20)))
          CFI (cfiCond22) V1 load(1, XDATA, add(CFA_XSP16, literal(-19)))
          CFI (cfiCond22) V2 load(1, XDATA, add(CFA_XSP16, literal(-18)))
          CFI (cfiCond22) V3 load(1, XDATA, add(CFA_XSP16, literal(-17)))
          CFI (cfiCond22) V4 load(1, XDATA, add(CFA_XSP16, literal(-16)))
          CFI (cfiCond22) V5 load(1, XDATA, add(CFA_XSP16, literal(-15)))
          CFI (cfiCond22) V6 load(1, XDATA, add(CFA_XSP16, literal(-14)))
          CFI (cfiCond22) V7 load(1, XDATA, add(CFA_XSP16, literal(-13)))
          CFI (cfiCond22) V8 load(1, XDATA, add(CFA_XSP16, literal(-12)))
          CFI (cfiCond22) V9 load(1, XDATA, add(CFA_XSP16, literal(-11)))
          CFI (cfiCond22) V10 load(1, XDATA, add(CFA_XSP16, literal(-10)))
          CFI (cfiCond22) V11 load(1, XDATA, add(CFA_XSP16, literal(-9)))
          CFI (cfiCond22) V12 load(1, XDATA, add(CFA_XSP16, literal(-8)))
          CFI (cfiCond22) V13 load(1, XDATA, add(CFA_XSP16, literal(-7)))
          CFI (cfiCond22) R7 load(1, XDATA, add(CFA_XSP16, literal(-6)))
          CFI (cfiCond22) ?RET_LOW load(1, XDATA, add(CFA_XSP16, literal(-5)))
          CFI (cfiCond22) ?RET_HIGH load(1, XDATA, add(CFA_XSP16, literal(-4)))
          CFI (cfiCond22) ?BRET_EXT load(1, XDATA, add(CFA_XSP16, literal(-3)))
          CFI (cfiCond22) DPL0 load(1, XDATA, add(CFA_XSP16, literal(-2)))
          CFI (cfiCond22) DPH0 load(1, XDATA, add(CFA_XSP16, literal(-1)))
          CFI (cfiCond22) CFA_SP SP+0
          CFI (cfiCond22) CFA_XSP16 add(XSP16, 36)
          CFI Block cfiPicker23 Using cfiCommon1
          CFI (cfiPicker23) NoFunction
          CFI (cfiPicker23) Picker
        MOV     ?V0 + 2,A
        MOV     A,?V0 + 3
        LCALL   ?Subroutine34 & 0xFFFF
??CrossCallReturnLabel_70:
        MOVX    A,@DPTR
        RET
          CFI EndBlock cfiCond20
          CFI EndBlock cfiCond21
          CFI EndBlock cfiCond22
          CFI EndBlock cfiPicker23

        RSEG BANKED_CODE:CODE:NOROOT(0)
?Subroutine34:
          CFI Block cfiCond24 Using cfiCommon0
          CFI Function MT_AfDataRequest
          CFI Conditional ??CrossCallReturnLabel_69
          CFI R6 load(1, XDATA, add(CFA_XSP16, literal(-22)))
          CFI VB load(1, XDATA, add(CFA_XSP16, literal(-21)))
          CFI V0 load(1, XDATA, add(CFA_XSP16, literal(-20)))
          CFI V1 load(1, XDATA, add(CFA_XSP16, literal(-19)))
          CFI V2 load(1, XDATA, add(CFA_XSP16, literal(-18)))
          CFI V3 load(1, XDATA, add(CFA_XSP16, literal(-17)))
          CFI V4 load(1, XDATA, add(CFA_XSP16, literal(-16)))
          CFI V5 load(1, XDATA, add(CFA_XSP16, literal(-15)))
          CFI V6 load(1, XDATA, add(CFA_XSP16, literal(-14)))
          CFI V7 load(1, XDATA, add(CFA_XSP16, literal(-13)))
          CFI V8 load(1, XDATA, add(CFA_XSP16, literal(-12)))
          CFI V9 load(1, XDATA, add(CFA_XSP16, literal(-11)))
          CFI V10 load(1, XDATA, add(CFA_XSP16, literal(-10)))
          CFI V11 load(1, XDATA, add(CFA_XSP16, literal(-9)))
          CFI V12 load(1, XDATA, add(CFA_XSP16, literal(-8)))
          CFI V13 load(1, XDATA, add(CFA_XSP16, literal(-7)))
          CFI R7 load(1, XDATA, add(CFA_XSP16, literal(-6)))
          CFI ?RET_LOW load(1, XDATA, add(CFA_XSP16, literal(-5)))
          CFI ?RET_HIGH load(1, XDATA, add(CFA_XSP16, literal(-4)))
          CFI ?BRET_EXT load(1, XDATA, add(CFA_XSP16, literal(-3)))
          CFI DPL0 load(1, XDATA, add(CFA_XSP16, literal(-2)))
          CFI DPH0 load(1, XDATA, add(CFA_XSP16, literal(-1)))
          CFI CFA_SP SP+0
          CFI CFA_XSP16 add(XSP16, 36)
          CFI Block cfiCond25 Using cfiCommon0
          CFI (cfiCond25) Function MT_AfDataRequest
          CFI (cfiCond25) Conditional ??CrossCallReturnLabel_70, ??CrossCallReturnLabel_66
          CFI (cfiCond25) R6 load(1, XDATA, add(CFA_XSP16, literal(-22)))
          CFI (cfiCond25) VB load(1, XDATA, add(CFA_XSP16, literal(-21)))
          CFI (cfiCond25) V0 load(1, XDATA, add(CFA_XSP16, literal(-20)))
          CFI (cfiCond25) V1 load(1, XDATA, add(CFA_XSP16, literal(-19)))
          CFI (cfiCond25) V2 load(1, XDATA, add(CFA_XSP16, literal(-18)))
          CFI (cfiCond25) V3 load(1, XDATA, add(CFA_XSP16, literal(-17)))
          CFI (cfiCond25) V4 load(1, XDATA, add(CFA_XSP16, literal(-16)))
          CFI (cfiCond25) V5 load(1, XDATA, add(CFA_XSP16, literal(-15)))
          CFI (cfiCond25) V6 load(1, XDATA, add(CFA_XSP16, literal(-14)))
          CFI (cfiCond25) V7 load(1, XDATA, add(CFA_XSP16, literal(-13)))
          CFI (cfiCond25) V8 load(1, XDATA, add(CFA_XSP16, literal(-12)))
          CFI (cfiCond25) V9 load(1, XDATA, add(CFA_XSP16, literal(-11)))
          CFI (cfiCond25) V10 load(1, XDATA, add(CFA_XSP16, literal(-10)))
          CFI (cfiCond25) V11 load(1, XDATA, add(CFA_XSP16, literal(-9)))
          CFI (cfiCond25) V12 load(1, XDATA, add(CFA_XSP16, literal(-8)))
          CFI (cfiCond25) V13 load(1, XDATA, add(CFA_XSP16, literal(-7)))
          CFI (cfiCond25) R7 load(1, XDATA, add(CFA_XSP16, literal(-6)))
          CFI (cfiCond25) ?RET_LOW load(1, XDATA, add(CFA_XSP16, literal(-5)))
          CFI (cfiCond25) ?RET_HIGH load(1, XDATA, add(CFA_XSP16, literal(-4)))
          CFI (cfiCond25) ?BRET_EXT load(1, XDATA, add(CFA_XSP16, literal(-3)))
          CFI (cfiCond25) DPL0 load(1, XDATA, add(CFA_XSP16, literal(-2)))
          CFI (cfiCond25) DPH0 load(1, XDATA, add(CFA_XSP16, literal(-1)))
          CFI (cfiCond25) CFA_SP SP+0
          CFI (cfiCond25) CFA_XSP16 add(XSP16, 36)
          CFI Block cfiCond26 Using cfiCommon0
          CFI (cfiCond26) Function MT_AfDataRequest
          CFI (cfiCond26) Conditional ??CrossCallReturnLabel_70, ??CrossCallReturnLabel_67
          CFI (cfiCond26) R6 load(1, XDATA, add(CFA_XSP16, literal(-22)))
          CFI (cfiCond26) VB load(1, XDATA, add(CFA_XSP16, literal(-21)))
          CFI (cfiCond26) V0 load(1, XDATA, add(CFA_XSP16, literal(-20)))
          CFI (cfiCond26) V1 load(1, XDATA, add(CFA_XSP16, literal(-19)))
          CFI (cfiCond26) V2 load(1, XDATA, add(CFA_XSP16, literal(-18)))
          CFI (cfiCond26) V3 load(1, XDATA, add(CFA_XSP16, literal(-17)))
          CFI (cfiCond26) V4 load(1, XDATA, add(CFA_XSP16, literal(-16)))
          CFI (cfiCond26) V5 load(1, XDATA, add(CFA_XSP16, literal(-15)))
          CFI (cfiCond26) V6 load(1, XDATA, add(CFA_XSP16, literal(-14)))
          CFI (cfiCond26) V7 load(1, XDATA, add(CFA_XSP16, literal(-13)))
          CFI (cfiCond26) V8 load(1, XDATA, add(CFA_XSP16, literal(-12)))
          CFI (cfiCond26) V9 load(1, XDATA, add(CFA_XSP16, literal(-11)))
          CFI (cfiCond26) V10 load(1, XDATA, add(CFA_XSP16, literal(-10)))
          CFI (cfiCond26) V11 load(1, XDATA, add(CFA_XSP16, literal(-9)))
          CFI (cfiCond26) V12 load(1, XDATA, add(CFA_XSP16, literal(-8)))
          CFI (cfiCond26) V13 load(1, XDATA, add(CFA_XSP16, literal(-7)))
          CFI (cfiCond26) R7 load(1, XDATA, add(CFA_XSP16, literal(-6)))
          CFI (cfiCond26) ?RET_LOW load(1, XDATA, add(CFA_XSP16, literal(-5)))
          CFI (cfiCond26) ?RET_HIGH load(1, XDATA, add(CFA_XSP16, literal(-4)))
          CFI (cfiCond26) ?BRET_EXT load(1, XDATA, add(CFA_XSP16, literal(-3)))
          CFI (cfiCond26) DPL0 load(1, XDATA, add(CFA_XSP16, literal(-2)))
          CFI (cfiCond26) DPH0 load(1, XDATA, add(CFA_XSP16, literal(-1)))
          CFI (cfiCond26) CFA_SP SP+0
          CFI (cfiCond26) CFA_XSP16 add(XSP16, 36)
          CFI Block cfiCond27 Using cfiCommon0
          CFI (cfiCond27) Function MT_AfDataRequest
          CFI (cfiCond27) Conditional ??CrossCallReturnLabel_70, ??CrossCallReturnLabel_68
          CFI (cfiCond27) R6 load(1, XDATA, add(CFA_XSP16, literal(-22)))
          CFI (cfiCond27) VB load(1, XDATA, add(CFA_XSP16, literal(-21)))
          CFI (cfiCond27) V0 load(1, XDATA, add(CFA_XSP16, literal(-20)))
          CFI (cfiCond27) V1 load(1, XDATA, add(CFA_XSP16, literal(-19)))
          CFI (cfiCond27) V2 load(1, XDATA, add(CFA_XSP16, literal(-18)))
          CFI (cfiCond27) V3 load(1, XDATA, add(CFA_XSP16, literal(-17)))
          CFI (cfiCond27) V4 load(1, XDATA, add(CFA_XSP16, literal(-16)))
          CFI (cfiCond27) V5 load(1, XDATA, add(CFA_XSP16, literal(-15)))
          CFI (cfiCond27) V6 load(1, XDATA, add(CFA_XSP16, literal(-14)))
          CFI (cfiCond27) V7 load(1, XDATA, add(CFA_XSP16, literal(-13)))
          CFI (cfiCond27) V8 load(1, XDATA, add(CFA_XSP16, literal(-12)))
          CFI (cfiCond27) V9 load(1, XDATA, add(CFA_XSP16, literal(-11)))
          CFI (cfiCond27) V10 load(1, XDATA, add(CFA_XSP16, literal(-10)))
          CFI (cfiCond27) V11 load(1, XDATA, add(CFA_XSP16, literal(-9)))
          CFI (cfiCond27) V12 load(1, XDATA, add(CFA_XSP16, literal(-8)))
          CFI (cfiCond27) V13 load(1, XDATA, add(CFA_XSP16, literal(-7)))
          CFI (cfiCond27) R7 load(1, XDATA, add(CFA_XSP16, literal(-6)))
          CFI (cfiCond27) ?RET_LOW load(1, XDATA, add(CFA_XSP16, literal(-5)))
          CFI (cfiCond27) ?RET_HIGH load(1, XDATA, add(CFA_XSP16, literal(-4)))
          CFI (cfiCond27) ?BRET_EXT load(1, XDATA, add(CFA_XSP16, literal(-3)))
          CFI (cfiCond27) DPL0 load(1, XDATA, add(CFA_XSP16, literal(-2)))
          CFI (cfiCond27) DPH0 load(1, XDATA, add(CFA_XSP16, literal(-1)))
          CFI (cfiCond27) CFA_SP SP+0
          CFI (cfiCond27) CFA_XSP16 add(XSP16, 36)
          CFI Block cfiPicker28 Using cfiCommon1
          CFI (cfiPicker28) NoFunction
          CFI (cfiPicker28) Picker
        ADDC    A,#0x0
        MOV     ?V0 + 3,A
        MOV     DPL,?V0 + 2
        MOV     DPH,A
        RET
          CFI EndBlock cfiCond24
          CFI EndBlock cfiCond25
          CFI EndBlock cfiCond26
          CFI EndBlock cfiCond27
          CFI EndBlock cfiPicker28

        RSEG BANKED_CODE:CODE:NOROOT(0)
?Subroutine7:
          CFI Block cfiCond29 Using cfiCommon0
          CFI Function MT_AfExec
          CFI Conditional ??CrossCallReturnLabel_7
          CFI R6 load(1, XDATA, add(CFA_XSP16, literal(-9)))
          CFI VB load(1, XDATA, add(CFA_XSP16, literal(-8)))
          CFI V0 load(1, XDATA, add(CFA_XSP16, literal(-7)))
          CFI R7 load(1, XDATA, add(CFA_XSP16, literal(-6)))
          CFI ?RET_LOW load(1, XDATA, add(CFA_XSP16, literal(-5)))
          CFI ?RET_HIGH load(1, XDATA, add(CFA_XSP16, literal(-4)))
          CFI ?BRET_EXT load(1, XDATA, add(CFA_XSP16, literal(-3)))
          CFI DPL0 load(1, XDATA, add(CFA_XSP16, literal(-2)))
          CFI DPH0 load(1, XDATA, add(CFA_XSP16, literal(-1)))
          CFI CFA_SP SP+0
          CFI CFA_XSP16 add(XSP16, 9)
          CFI Block cfiCond30 Using cfiCommon0
          CFI (cfiCond30) Function MT_AfDataRequest
          CFI (cfiCond30) Conditional ??CrossCallReturnLabel_6
          CFI (cfiCond30) R6 load(1, XDATA, add(CFA_XSP16, literal(-22)))
          CFI (cfiCond30) VB load(1, XDATA, add(CFA_XSP16, literal(-21)))
          CFI (cfiCond30) V0 load(1, XDATA, add(CFA_XSP16, literal(-20)))
          CFI (cfiCond30) V1 load(1, XDATA, add(CFA_XSP16, literal(-19)))
          CFI (cfiCond30) V2 load(1, XDATA, add(CFA_XSP16, literal(-18)))
          CFI (cfiCond30) V3 load(1, XDATA, add(CFA_XSP16, literal(-17)))
          CFI (cfiCond30) V4 load(1, XDATA, add(CFA_XSP16, literal(-16)))
          CFI (cfiCond30) V5 load(1, XDATA, add(CFA_XSP16, literal(-15)))
          CFI (cfiCond30) V6 load(1, XDATA, add(CFA_XSP16, literal(-14)))
          CFI (cfiCond30) V7 load(1, XDATA, add(CFA_XSP16, literal(-13)))
          CFI (cfiCond30) V8 load(1, XDATA, add(CFA_XSP16, literal(-12)))
          CFI (cfiCond30) V9 load(1, XDATA, add(CFA_XSP16, literal(-11)))
          CFI (cfiCond30) V10 load(1, XDATA, add(CFA_XSP16, literal(-10)))
          CFI (cfiCond30) V11 load(1, XDATA, add(CFA_XSP16, literal(-9)))
          CFI (cfiCond30) V12 load(1, XDATA, add(CFA_XSP16, literal(-8)))
          CFI (cfiCond30) V13 load(1, XDATA, add(CFA_XSP16, literal(-7)))
          CFI (cfiCond30) R7 load(1, XDATA, add(CFA_XSP16, literal(-6)))
          CFI (cfiCond30) ?RET_LOW load(1, XDATA, add(CFA_XSP16, literal(-5)))
          CFI (cfiCond30) ?RET_HIGH load(1, XDATA, add(CFA_XSP16, literal(-4)))
          CFI (cfiCond30) ?BRET_EXT load(1, XDATA, add(CFA_XSP16, literal(-3)))
          CFI (cfiCond30) DPL0 load(1, XDATA, add(CFA_XSP16, literal(-2)))
          CFI (cfiCond30) DPH0 load(1, XDATA, add(CFA_XSP16, literal(-1)))
          CFI (cfiCond30) CFA_SP SP+0
          CFI (cfiCond30) CFA_XSP16 add(XSP16, 36)
          CFI Block cfiPicker31 Using cfiCommon1
          CFI (cfiPicker31) NoFunction
          CFI (cfiPicker31) Picker
        MOVX    @DPTR,A
        MOV     DPTR,#pMtAfDataReq
        MOVX    A,@DPTR
        MOV     R0,A
        INC     DPTR
        LCALL   ?Subroutine33 & 0xFFFF
??CrossCallReturnLabel_82:
        RET
          CFI EndBlock cfiCond29
          CFI EndBlock cfiCond30
          CFI EndBlock cfiPicker31

        RSEG BANKED_CODE:CODE:NOROOT(0)
?Subroutine33:
          CFI Block cfiCond32 Using cfiCommon0
          CFI Function MT_AfExec
          CFI Conditional ??CrossCallReturnLabel_81
          CFI R6 load(1, XDATA, add(CFA_XSP16, literal(-9)))
          CFI VB load(1, XDATA, add(CFA_XSP16, literal(-8)))
          CFI V0 load(1, XDATA, add(CFA_XSP16, literal(-7)))
          CFI R7 load(1, XDATA, add(CFA_XSP16, literal(-6)))
          CFI ?RET_LOW load(1, XDATA, add(CFA_XSP16, literal(-5)))
          CFI ?RET_HIGH load(1, XDATA, add(CFA_XSP16, literal(-4)))
          CFI ?BRET_EXT load(1, XDATA, add(CFA_XSP16, literal(-3)))
          CFI DPL0 load(1, XDATA, add(CFA_XSP16, literal(-2)))
          CFI DPH0 load(1, XDATA, add(CFA_XSP16, literal(-1)))
          CFI CFA_SP SP+0
          CFI CFA_XSP16 add(XSP16, 9)
          CFI Block cfiCond33 Using cfiCommon0
          CFI (cfiCond33) Function MT_AfExec
          CFI (cfiCond33) Conditional ??CrossCallReturnLabel_82, ??CrossCallReturnLabel_7
          CFI (cfiCond33) R6 load(1, XDATA, add(CFA_XSP16, literal(-9)))
          CFI (cfiCond33) VB load(1, XDATA, add(CFA_XSP16, literal(-8)))
          CFI (cfiCond33) V0 load(1, XDATA, add(CFA_XSP16, literal(-7)))
          CFI (cfiCond33) R7 load(1, XDATA, add(CFA_XSP16, literal(-6)))
          CFI (cfiCond33) ?RET_LOW load(1, XDATA, add(CFA_XSP16, literal(-5)))
          CFI (cfiCond33) ?RET_HIGH load(1, XDATA, add(CFA_XSP16, literal(-4)))
          CFI (cfiCond33) ?BRET_EXT load(1, XDATA, add(CFA_XSP16, literal(-3)))
          CFI (cfiCond33) DPL0 load(1, XDATA, add(CFA_XSP16, literal(-2)))
          CFI (cfiCond33) DPH0 load(1, XDATA, add(CFA_XSP16, literal(-1)))
          CFI (cfiCond33) CFA_SP SP+0
          CFI (cfiCond33) CFA_XSP16 add(XSP16, 9)
          CFI Block cfiCond34 Using cfiCommon0
          CFI (cfiCond34) Function MT_AfDataRequest
          CFI (cfiCond34) Conditional ??CrossCallReturnLabel_82, ??CrossCallReturnLabel_6
          CFI (cfiCond34) R6 load(1, XDATA, add(CFA_XSP16, literal(-22)))
          CFI (cfiCond34) VB load(1, XDATA, add(CFA_XSP16, literal(-21)))
          CFI (cfiCond34) V0 load(1, XDATA, add(CFA_XSP16, literal(-20)))
          CFI (cfiCond34) V1 load(1, XDATA, add(CFA_XSP16, literal(-19)))
          CFI (cfiCond34) V2 load(1, XDATA, add(CFA_XSP16, literal(-18)))
          CFI (cfiCond34) V3 load(1, XDATA, add(CFA_XSP16, literal(-17)))
          CFI (cfiCond34) V4 load(1, XDATA, add(CFA_XSP16, literal(-16)))
          CFI (cfiCond34) V5 load(1, XDATA, add(CFA_XSP16, literal(-15)))
          CFI (cfiCond34) V6 load(1, XDATA, add(CFA_XSP16, literal(-14)))
          CFI (cfiCond34) V7 load(1, XDATA, add(CFA_XSP16, literal(-13)))
          CFI (cfiCond34) V8 load(1, XDATA, add(CFA_XSP16, literal(-12)))
          CFI (cfiCond34) V9 load(1, XDATA, add(CFA_XSP16, literal(-11)))
          CFI (cfiCond34) V10 load(1, XDATA, add(CFA_XSP16, literal(-10)))
          CFI (cfiCond34) V11 load(1, XDATA, add(CFA_XSP16, literal(-9)))
          CFI (cfiCond34) V12 load(1, XDATA, add(CFA_XSP16, literal(-8)))
          CFI (cfiCond34) V13 load(1, XDATA, add(CFA_XSP16, literal(-7)))
          CFI (cfiCond34) R7 load(1, XDATA, add(CFA_XSP16, literal(-6)))
          CFI (cfiCond34) ?RET_LOW load(1, XDATA, add(CFA_XSP16, literal(-5)))
          CFI (cfiCond34) ?RET_HIGH load(1, XDATA, add(CFA_XSP16, literal(-4)))
          CFI (cfiCond34) ?BRET_EXT load(1, XDATA, add(CFA_XSP16, literal(-3)))
          CFI (cfiCond34) DPL0 load(1, XDATA, add(CFA_XSP16, literal(-2)))
          CFI (cfiCond34) DPH0 load(1, XDATA, add(CFA_XSP16, literal(-1)))
          CFI (cfiCond34) CFA_SP SP+0
          CFI (cfiCond34) CFA_XSP16 add(XSP16, 36)
          CFI Block cfiPicker35 Using cfiCommon1
          CFI (cfiPicker35) NoFunction
          CFI (cfiPicker35) Picker
        MOVX    A,@DPTR
        XCH     A,R0
        ADD     A,#0x17
          CFI EndBlock cfiCond32
          CFI EndBlock cfiCond33
          CFI EndBlock cfiCond34
          CFI EndBlock cfiPicker35
        REQUIRE ??Subroutine43_0
        ; // Fall through to label ??Subroutine43_0

        RSEG BANKED_CODE:CODE:NOROOT(0)
??Subroutine43_0:
          CFI Block cfiCond36 Using cfiCommon0
          CFI Function MT_AfDataRequest
          CFI Conditional ??CrossCallReturnLabel_75
          CFI R6 load(1, XDATA, add(CFA_XSP16, literal(-22)))
          CFI VB load(1, XDATA, add(CFA_XSP16, literal(-21)))
          CFI V0 load(1, XDATA, add(CFA_XSP16, literal(-20)))
          CFI V1 load(1, XDATA, add(CFA_XSP16, literal(-19)))
          CFI V2 load(1, XDATA, add(CFA_XSP16, literal(-18)))
          CFI V3 load(1, XDATA, add(CFA_XSP16, literal(-17)))
          CFI V4 load(1, XDATA, add(CFA_XSP16, literal(-16)))
          CFI V5 load(1, XDATA, add(CFA_XSP16, literal(-15)))
          CFI V6 load(1, XDATA, add(CFA_XSP16, literal(-14)))
          CFI V7 load(1, XDATA, add(CFA_XSP16, literal(-13)))
          CFI V8 load(1, XDATA, add(CFA_XSP16, literal(-12)))
          CFI V9 load(1, XDATA, add(CFA_XSP16, literal(-11)))
          CFI V10 load(1, XDATA, add(CFA_XSP16, literal(-10)))
          CFI V11 load(1, XDATA, add(CFA_XSP16, literal(-9)))
          CFI V12 load(1, XDATA, add(CFA_XSP16, literal(-8)))
          CFI V13 load(1, XDATA, add(CFA_XSP16, literal(-7)))
          CFI R7 load(1, XDATA, add(CFA_XSP16, literal(-6)))
          CFI ?RET_LOW load(1, XDATA, add(CFA_XSP16, literal(-5)))
          CFI ?RET_HIGH load(1, XDATA, add(CFA_XSP16, literal(-4)))
          CFI ?BRET_EXT load(1, XDATA, add(CFA_XSP16, literal(-3)))
          CFI DPL0 load(1, XDATA, add(CFA_XSP16, literal(-2)))
          CFI DPH0 load(1, XDATA, add(CFA_XSP16, literal(-1)))
          CFI CFA_SP SP+-1
          CFI CFA_XSP16 add(XSP16, 36)
          CFI Block cfiCond37 Using cfiCommon0
          CFI (cfiCond37) Function MT_AfDataRequest
          CFI (cfiCond37) Conditional ??CrossCallReturnLabel_80, ??CrossCallReturnLabel_16
          CFI (cfiCond37) R6 load(1, XDATA, add(CFA_XSP16, literal(-22)))
          CFI (cfiCond37) VB load(1, XDATA, add(CFA_XSP16, literal(-21)))
          CFI (cfiCond37) V0 load(1, XDATA, add(CFA_XSP16, literal(-20)))
          CFI (cfiCond37) V1 load(1, XDATA, add(CFA_XSP16, literal(-19)))
          CFI (cfiCond37) V2 load(1, XDATA, add(CFA_XSP16, literal(-18)))
          CFI (cfiCond37) V3 load(1, XDATA, add(CFA_XSP16, literal(-17)))
          CFI (cfiCond37) V4 load(1, XDATA, add(CFA_XSP16, literal(-16)))
          CFI (cfiCond37) V5 load(1, XDATA, add(CFA_XSP16, literal(-15)))
          CFI (cfiCond37) V6 load(1, XDATA, add(CFA_XSP16, literal(-14)))
          CFI (cfiCond37) V7 load(1, XDATA, add(CFA_XSP16, literal(-13)))
          CFI (cfiCond37) V8 load(1, XDATA, add(CFA_XSP16, literal(-12)))
          CFI (cfiCond37) V9 load(1, XDATA, add(CFA_XSP16, literal(-11)))
          CFI (cfiCond37) V10 load(1, XDATA, add(CFA_XSP16, literal(-10)))
          CFI (cfiCond37) V11 load(1, XDATA, add(CFA_XSP16, literal(-9)))
          CFI (cfiCond37) V12 load(1, XDATA, add(CFA_XSP16, literal(-8)))
          CFI (cfiCond37) V13 load(1, XDATA, add(CFA_XSP16, literal(-7)))
          CFI (cfiCond37) R7 load(1, XDATA, add(CFA_XSP16, literal(-6)))
          CFI (cfiCond37) ?RET_LOW load(1, XDATA, add(CFA_XSP16, literal(-5)))
          CFI (cfiCond37) ?RET_HIGH load(1, XDATA, add(CFA_XSP16, literal(-4)))
          CFI (cfiCond37) ?BRET_EXT load(1, XDATA, add(CFA_XSP16, literal(-3)))
          CFI (cfiCond37) DPL0 load(1, XDATA, add(CFA_XSP16, literal(-2)))
          CFI (cfiCond37) DPH0 load(1, XDATA, add(CFA_XSP16, literal(-1)))
          CFI (cfiCond37) CFA_SP SP+0
          CFI (cfiCond37) CFA_XSP16 add(XSP16, 36)
          CFI Block cfiCond38 Using cfiCommon0
          CFI (cfiCond38) Function MT_AfDataStore
          CFI (cfiCond38) Conditional ??CrossCallReturnLabel_80, ??CrossCallReturnLabel_17
          CFI (cfiCond38) R6 load(1, XDATA, add(CFA_XSP16, literal(-14)))
          CFI (cfiCond38) VB load(1, XDATA, add(CFA_XSP16, literal(-13)))
          CFI (cfiCond38) V0 load(1, XDATA, add(CFA_XSP16, literal(-12)))
          CFI (cfiCond38) V1 load(1, XDATA, add(CFA_XSP16, literal(-11)))
          CFI (cfiCond38) V2 load(1, XDATA, add(CFA_XSP16, literal(-10)))
          CFI (cfiCond38) V3 load(1, XDATA, add(CFA_XSP16, literal(-9)))
          CFI (cfiCond38) V4 load(1, XDATA, add(CFA_XSP16, literal(-8)))
          CFI (cfiCond38) V5 load(1, XDATA, add(CFA_XSP16, literal(-7)))
          CFI (cfiCond38) R7 load(1, XDATA, add(CFA_XSP16, literal(-6)))
          CFI (cfiCond38) ?RET_LOW load(1, XDATA, add(CFA_XSP16, literal(-5)))
          CFI (cfiCond38) ?RET_HIGH load(1, XDATA, add(CFA_XSP16, literal(-4)))
          CFI (cfiCond38) ?BRET_EXT load(1, XDATA, add(CFA_XSP16, literal(-3)))
          CFI (cfiCond38) DPL0 load(1, XDATA, add(CFA_XSP16, literal(-2)))
          CFI (cfiCond38) DPH0 load(1, XDATA, add(CFA_XSP16, literal(-1)))
          CFI (cfiCond38) CFA_SP SP+0
          CFI (cfiCond38) CFA_XSP16 add(XSP16, 15)
          CFI Block cfiCond39 Using cfiCommon0
          CFI (cfiCond39) Function MT_AfDataRequest
          CFI (cfiCond39) Conditional ??CrossCallReturnLabel_79, ??CrossCallReturnLabel_14
          CFI (cfiCond39) R6 load(1, XDATA, add(CFA_XSP16, literal(-22)))
          CFI (cfiCond39) VB load(1, XDATA, add(CFA_XSP16, literal(-21)))
          CFI (cfiCond39) V0 load(1, XDATA, add(CFA_XSP16, literal(-20)))
          CFI (cfiCond39) V1 load(1, XDATA, add(CFA_XSP16, literal(-19)))
          CFI (cfiCond39) V2 load(1, XDATA, add(CFA_XSP16, literal(-18)))
          CFI (cfiCond39) V3 load(1, XDATA, add(CFA_XSP16, literal(-17)))
          CFI (cfiCond39) V4 load(1, XDATA, add(CFA_XSP16, literal(-16)))
          CFI (cfiCond39) V5 load(1, XDATA, add(CFA_XSP16, literal(-15)))
          CFI (cfiCond39) V6 load(1, XDATA, add(CFA_XSP16, literal(-14)))
          CFI (cfiCond39) V7 load(1, XDATA, add(CFA_XSP16, literal(-13)))
          CFI (cfiCond39) V8 load(1, XDATA, add(CFA_XSP16, literal(-12)))
          CFI (cfiCond39) V9 load(1, XDATA, add(CFA_XSP16, literal(-11)))
          CFI (cfiCond39) V10 load(1, XDATA, add(CFA_XSP16, literal(-10)))
          CFI (cfiCond39) V11 load(1, XDATA, add(CFA_XSP16, literal(-9)))
          CFI (cfiCond39) V12 load(1, XDATA, add(CFA_XSP16, literal(-8)))
          CFI (cfiCond39) V13 load(1, XDATA, add(CFA_XSP16, literal(-7)))
          CFI (cfiCond39) R7 load(1, XDATA, add(CFA_XSP16, literal(-6)))
          CFI (cfiCond39) ?RET_LOW load(1, XDATA, add(CFA_XSP16, literal(-5)))
          CFI (cfiCond39) ?RET_HIGH load(1, XDATA, add(CFA_XSP16, literal(-4)))
          CFI (cfiCond39) ?BRET_EXT load(1, XDATA, add(CFA_XSP16, literal(-3)))
          CFI (cfiCond39) DPL0 load(1, XDATA, add(CFA_XSP16, literal(-2)))
          CFI (cfiCond39) DPH0 load(1, XDATA, add(CFA_XSP16, literal(-1)))
          CFI (cfiCond39) CFA_SP SP+0
          CFI (cfiCond39) CFA_XSP16 add(XSP16, 36)
          CFI Block cfiCond40 Using cfiCommon0
          CFI (cfiCond40) Function MT_AfDataStore
          CFI (cfiCond40) Conditional ??CrossCallReturnLabel_79, ??CrossCallReturnLabel_15
          CFI (cfiCond40) R6 load(1, XDATA, add(CFA_XSP16, literal(-14)))
          CFI (cfiCond40) VB load(1, XDATA, add(CFA_XSP16, literal(-13)))
          CFI (cfiCond40) V0 load(1, XDATA, add(CFA_XSP16, literal(-12)))
          CFI (cfiCond40) V1 load(1, XDATA, add(CFA_XSP16, literal(-11)))
          CFI (cfiCond40) V2 load(1, XDATA, add(CFA_XSP16, literal(-10)))
          CFI (cfiCond40) V3 load(1, XDATA, add(CFA_XSP16, literal(-9)))
          CFI (cfiCond40) V4 load(1, XDATA, add(CFA_XSP16, literal(-8)))
          CFI (cfiCond40) V5 load(1, XDATA, add(CFA_XSP16, literal(-7)))
          CFI (cfiCond40) R7 load(1, XDATA, add(CFA_XSP16, literal(-6)))
          CFI (cfiCond40) ?RET_LOW load(1, XDATA, add(CFA_XSP16, literal(-5)))
          CFI (cfiCond40) ?RET_HIGH load(1, XDATA, add(CFA_XSP16, literal(-4)))
          CFI (cfiCond40) ?BRET_EXT load(1, XDATA, add(CFA_XSP16, literal(-3)))
          CFI (cfiCond40) DPL0 load(1, XDATA, add(CFA_XSP16, literal(-2)))
          CFI (cfiCond40) DPH0 load(1, XDATA, add(CFA_XSP16, literal(-1)))
          CFI (cfiCond40) CFA_SP SP+0
          CFI (cfiCond40) CFA_XSP16 add(XSP16, 24)
          CFI Block cfiCond41 Using cfiCommon0
          CFI (cfiCond41) Function MT_AfDataRequest
          CFI (cfiCond41) Conditional ??CrossCallReturnLabel_78, ??CrossCallReturnLabel_12
          CFI (cfiCond41) R6 load(1, XDATA, add(CFA_XSP16, literal(-22)))
          CFI (cfiCond41) VB load(1, XDATA, add(CFA_XSP16, literal(-21)))
          CFI (cfiCond41) V0 load(1, XDATA, add(CFA_XSP16, literal(-20)))
          CFI (cfiCond41) V1 load(1, XDATA, add(CFA_XSP16, literal(-19)))
          CFI (cfiCond41) V2 load(1, XDATA, add(CFA_XSP16, literal(-18)))
          CFI (cfiCond41) V3 load(1, XDATA, add(CFA_XSP16, literal(-17)))
          CFI (cfiCond41) V4 load(1, XDATA, add(CFA_XSP16, literal(-16)))
          CFI (cfiCond41) V5 load(1, XDATA, add(CFA_XSP16, literal(-15)))
          CFI (cfiCond41) V6 load(1, XDATA, add(CFA_XSP16, literal(-14)))
          CFI (cfiCond41) V7 load(1, XDATA, add(CFA_XSP16, literal(-13)))
          CFI (cfiCond41) V8 load(1, XDATA, add(CFA_XSP16, literal(-12)))
          CFI (cfiCond41) V9 load(1, XDATA, add(CFA_XSP16, literal(-11)))
          CFI (cfiCond41) V10 load(1, XDATA, add(CFA_XSP16, literal(-10)))
          CFI (cfiCond41) V11 load(1, XDATA, add(CFA_XSP16, literal(-9)))
          CFI (cfiCond41) V12 load(1, XDATA, add(CFA_XSP16, literal(-8)))
          CFI (cfiCond41) V13 load(1, XDATA, add(CFA_XSP16, literal(-7)))
          CFI (cfiCond41) R7 load(1, XDATA, add(CFA_XSP16, literal(-6)))
          CFI (cfiCond41) ?RET_LOW load(1, XDATA, add(CFA_XSP16, literal(-5)))
          CFI (cfiCond41) ?RET_HIGH load(1, XDATA, add(CFA_XSP16, literal(-4)))
          CFI (cfiCond41) ?BRET_EXT load(1, XDATA, add(CFA_XSP16, literal(-3)))
          CFI (cfiCond41) DPL0 load(1, XDATA, add(CFA_XSP16, literal(-2)))
          CFI (cfiCond41) DPH0 load(1, XDATA, add(CFA_XSP16, literal(-1)))
          CFI (cfiCond41) CFA_SP SP+0
          CFI (cfiCond41) CFA_XSP16 add(XSP16, 36)
          CFI Block cfiCond42 Using cfiCommon0
          CFI (cfiCond42) Function MT_AfDataStore
          CFI (cfiCond42) Conditional ??CrossCallReturnLabel_78, ??CrossCallReturnLabel_13
          CFI (cfiCond42) R6 load(1, XDATA, add(CFA_XSP16, literal(-14)))
          CFI (cfiCond42) VB load(1, XDATA, add(CFA_XSP16, literal(-13)))
          CFI (cfiCond42) V0 load(1, XDATA, add(CFA_XSP16, literal(-12)))
          CFI (cfiCond42) V1 load(1, XDATA, add(CFA_XSP16, literal(-11)))
          CFI (cfiCond42) V2 load(1, XDATA, add(CFA_XSP16, literal(-10)))
          CFI (cfiCond42) V3 load(1, XDATA, add(CFA_XSP16, literal(-9)))
          CFI (cfiCond42) V4 load(1, XDATA, add(CFA_XSP16, literal(-8)))
          CFI (cfiCond42) V5 load(1, XDATA, add(CFA_XSP16, literal(-7)))
          CFI (cfiCond42) R7 load(1, XDATA, add(CFA_XSP16, literal(-6)))
          CFI (cfiCond42) ?RET_LOW load(1, XDATA, add(CFA_XSP16, literal(-5)))
          CFI (cfiCond42) ?RET_HIGH load(1, XDATA, add(CFA_XSP16, literal(-4)))
          CFI (cfiCond42) ?BRET_EXT load(1, XDATA, add(CFA_XSP16, literal(-3)))
          CFI (cfiCond42) DPL0 load(1, XDATA, add(CFA_XSP16, literal(-2)))
          CFI (cfiCond42) DPH0 load(1, XDATA, add(CFA_XSP16, literal(-1)))
          CFI (cfiCond42) CFA_SP SP+0
          CFI (cfiCond42) CFA_XSP16 add(XSP16, 20)
          CFI Block cfiCond43 Using cfiCommon0
          CFI (cfiCond43) Function MT_AfDataRequest
          CFI (cfiCond43) Conditional ??CrossCallReturnLabel_77, ??CrossCallReturnLabel_10
          CFI (cfiCond43) R6 load(1, XDATA, add(CFA_XSP16, literal(-22)))
          CFI (cfiCond43) VB load(1, XDATA, add(CFA_XSP16, literal(-21)))
          CFI (cfiCond43) V0 load(1, XDATA, add(CFA_XSP16, literal(-20)))
          CFI (cfiCond43) V1 load(1, XDATA, add(CFA_XSP16, literal(-19)))
          CFI (cfiCond43) V2 load(1, XDATA, add(CFA_XSP16, literal(-18)))
          CFI (cfiCond43) V3 load(1, XDATA, add(CFA_XSP16, literal(-17)))
          CFI (cfiCond43) V4 load(1, XDATA, add(CFA_XSP16, literal(-16)))
          CFI (cfiCond43) V5 load(1, XDATA, add(CFA_XSP16, literal(-15)))
          CFI (cfiCond43) V6 load(1, XDATA, add(CFA_XSP16, literal(-14)))
          CFI (cfiCond43) V7 load(1, XDATA, add(CFA_XSP16, literal(-13)))
          CFI (cfiCond43) V8 load(1, XDATA, add(CFA_XSP16, literal(-12)))
          CFI (cfiCond43) V9 load(1, XDATA, add(CFA_XSP16, literal(-11)))
          CFI (cfiCond43) V10 load(1, XDATA, add(CFA_XSP16, literal(-10)))
          CFI (cfiCond43) V11 load(1, XDATA, add(CFA_XSP16, literal(-9)))
          CFI (cfiCond43) V12 load(1, XDATA, add(CFA_XSP16, literal(-8)))
          CFI (cfiCond43) V13 load(1, XDATA, add(CFA_XSP16, literal(-7)))
          CFI (cfiCond43) R7 load(1, XDATA, add(CFA_XSP16, literal(-6)))
          CFI (cfiCond43) ?RET_LOW load(1, XDATA, add(CFA_XSP16, literal(-5)))
          CFI (cfiCond43) ?RET_HIGH load(1, XDATA, add(CFA_XSP16, literal(-4)))
          CFI (cfiCond43) ?BRET_EXT load(1, XDATA, add(CFA_XSP16, literal(-3)))
          CFI (cfiCond43) DPL0 load(1, XDATA, add(CFA_XSP16, literal(-2)))
          CFI (cfiCond43) DPH0 load(1, XDATA, add(CFA_XSP16, literal(-1)))
          CFI (cfiCond43) CFA_SP SP+0
          CFI (cfiCond43) CFA_XSP16 add(XSP16, 36)
          CFI Block cfiCond44 Using cfiCommon0
          CFI (cfiCond44) Function MT_AfDataStore
          CFI (cfiCond44) Conditional ??CrossCallReturnLabel_77, ??CrossCallReturnLabel_11
          CFI (cfiCond44) R6 load(1, XDATA, add(CFA_XSP16, literal(-14)))
          CFI (cfiCond44) VB load(1, XDATA, add(CFA_XSP16, literal(-13)))
          CFI (cfiCond44) V0 load(1, XDATA, add(CFA_XSP16, literal(-12)))
          CFI (cfiCond44) V1 load(1, XDATA, add(CFA_XSP16, literal(-11)))
          CFI (cfiCond44) V2 load(1, XDATA, add(CFA_XSP16, literal(-10)))
          CFI (cfiCond44) V3 load(1, XDATA, add(CFA_XSP16, literal(-9)))
          CFI (cfiCond44) V4 load(1, XDATA, add(CFA_XSP16, literal(-8)))
          CFI (cfiCond44) V5 load(1, XDATA, add(CFA_XSP16, literal(-7)))
          CFI (cfiCond44) R7 load(1, XDATA, add(CFA_XSP16, literal(-6)))
          CFI (cfiCond44) ?RET_LOW load(1, XDATA, add(CFA_XSP16, literal(-5)))
          CFI (cfiCond44) ?RET_HIGH load(1, XDATA, add(CFA_XSP16, literal(-4)))
          CFI (cfiCond44) ?BRET_EXT load(1, XDATA, add(CFA_XSP16, literal(-3)))
          CFI (cfiCond44) DPL0 load(1, XDATA, add(CFA_XSP16, literal(-2)))
          CFI (cfiCond44) DPH0 load(1, XDATA, add(CFA_XSP16, literal(-1)))
          CFI (cfiCond44) CFA_SP SP+0
          CFI (cfiCond44) CFA_XSP16 add(XSP16, 22)
          CFI Block cfiCond45 Using cfiCommon0
          CFI (cfiCond45) Function MT_AfDataRequest
          CFI (cfiCond45) Conditional ??CrossCallReturnLabel_76, ??CrossCallReturnLabel_8
          CFI (cfiCond45) R6 load(1, XDATA, add(CFA_XSP16, literal(-22)))
          CFI (cfiCond45) VB load(1, XDATA, add(CFA_XSP16, literal(-21)))
          CFI (cfiCond45) V0 load(1, XDATA, add(CFA_XSP16, literal(-20)))
          CFI (cfiCond45) V1 load(1, XDATA, add(CFA_XSP16, literal(-19)))
          CFI (cfiCond45) V2 load(1, XDATA, add(CFA_XSP16, literal(-18)))
          CFI (cfiCond45) V3 load(1, XDATA, add(CFA_XSP16, literal(-17)))
          CFI (cfiCond45) V4 load(1, XDATA, add(CFA_XSP16, literal(-16)))
          CFI (cfiCond45) V5 load(1, XDATA, add(CFA_XSP16, literal(-15)))
          CFI (cfiCond45) V6 load(1, XDATA, add(CFA_XSP16, literal(-14)))
          CFI (cfiCond45) V7 load(1, XDATA, add(CFA_XSP16, literal(-13)))
          CFI (cfiCond45) V8 load(1, XDATA, add(CFA_XSP16, literal(-12)))
          CFI (cfiCond45) V9 load(1, XDATA, add(CFA_XSP16, literal(-11)))
          CFI (cfiCond45) V10 load(1, XDATA, add(CFA_XSP16, literal(-10)))
          CFI (cfiCond45) V11 load(1, XDATA, add(CFA_XSP16, literal(-9)))
          CFI (cfiCond45) V12 load(1, XDATA, add(CFA_XSP16, literal(-8)))
          CFI (cfiCond45) V13 load(1, XDATA, add(CFA_XSP16, literal(-7)))
          CFI (cfiCond45) R7 load(1, XDATA, add(CFA_XSP16, literal(-6)))
          CFI (cfiCond45) ?RET_LOW load(1, XDATA, add(CFA_XSP16, literal(-5)))
          CFI (cfiCond45) ?RET_HIGH load(1, XDATA, add(CFA_XSP16, literal(-4)))
          CFI (cfiCond45) ?BRET_EXT load(1, XDATA, add(CFA_XSP16, literal(-3)))
          CFI (cfiCond45) DPL0 load(1, XDATA, add(CFA_XSP16, literal(-2)))
          CFI (cfiCond45) DPH0 load(1, XDATA, add(CFA_XSP16, literal(-1)))
          CFI (cfiCond45) CFA_SP SP+0
          CFI (cfiCond45) CFA_XSP16 add(XSP16, 36)
          CFI Block cfiCond46 Using cfiCommon0
          CFI (cfiCond46) Function MT_AfDataStore
          CFI (cfiCond46) Conditional ??CrossCallReturnLabel_76, ??CrossCallReturnLabel_9
          CFI (cfiCond46) R6 load(1, XDATA, add(CFA_XSP16, literal(-14)))
          CFI (cfiCond46) VB load(1, XDATA, add(CFA_XSP16, literal(-13)))
          CFI (cfiCond46) V0 load(1, XDATA, add(CFA_XSP16, literal(-12)))
          CFI (cfiCond46) V1 load(1, XDATA, add(CFA_XSP16, literal(-11)))
          CFI (cfiCond46) V2 load(1, XDATA, add(CFA_XSP16, literal(-10)))
          CFI (cfiCond46) V3 load(1, XDATA, add(CFA_XSP16, literal(-9)))
          CFI (cfiCond46) V4 load(1, XDATA, add(CFA_XSP16, literal(-8)))
          CFI (cfiCond46) V5 load(1, XDATA, add(CFA_XSP16, literal(-7)))
          CFI (cfiCond46) R7 load(1, XDATA, add(CFA_XSP16, literal(-6)))
          CFI (cfiCond46) ?RET_LOW load(1, XDATA, add(CFA_XSP16, literal(-5)))
          CFI (cfiCond46) ?RET_HIGH load(1, XDATA, add(CFA_XSP16, literal(-4)))
          CFI (cfiCond46) ?BRET_EXT load(1, XDATA, add(CFA_XSP16, literal(-3)))
          CFI (cfiCond46) DPL0 load(1, XDATA, add(CFA_XSP16, literal(-2)))
          CFI (cfiCond46) DPH0 load(1, XDATA, add(CFA_XSP16, literal(-1)))
          CFI (cfiCond46) CFA_SP SP+0
          CFI (cfiCond46) CFA_XSP16 add(XSP16, 24)
          CFI Block cfiCond47 Using cfiCommon0
          CFI (cfiCond47) Function MT_AfExec
          CFI (cfiCond47) Conditional ??CrossCallReturnLabel_81
          CFI (cfiCond47) R6 load(1, XDATA, add(CFA_XSP16, literal(-9)))
          CFI (cfiCond47) VB load(1, XDATA, add(CFA_XSP16, literal(-8)))
          CFI (cfiCond47) V0 load(1, XDATA, add(CFA_XSP16, literal(-7)))
          CFI (cfiCond47) R7 load(1, XDATA, add(CFA_XSP16, literal(-6)))
          CFI (cfiCond47) ?RET_LOW load(1, XDATA, add(CFA_XSP16, literal(-5)))
          CFI (cfiCond47) ?RET_HIGH load(1, XDATA, add(CFA_XSP16, literal(-4)))
          CFI (cfiCond47) ?BRET_EXT load(1, XDATA, add(CFA_XSP16, literal(-3)))
          CFI (cfiCond47) DPL0 load(1, XDATA, add(CFA_XSP16, literal(-2)))
          CFI (cfiCond47) DPH0 load(1, XDATA, add(CFA_XSP16, literal(-1)))
          CFI (cfiCond47) CFA_SP SP+0
          CFI (cfiCond47) CFA_XSP16 add(XSP16, 9)
          CFI Block cfiCond48 Using cfiCommon0
          CFI (cfiCond48) Function MT_AfExec
          CFI (cfiCond48) Conditional ??CrossCallReturnLabel_82, ??CrossCallReturnLabel_7
          CFI (cfiCond48) R6 load(1, XDATA, add(CFA_XSP16, literal(-9)))
          CFI (cfiCond48) VB load(1, XDATA, add(CFA_XSP16, literal(-8)))
          CFI (cfiCond48) V0 load(1, XDATA, add(CFA_XSP16, literal(-7)))
          CFI (cfiCond48) R7 load(1, XDATA, add(CFA_XSP16, literal(-6)))
          CFI (cfiCond48) ?RET_LOW load(1, XDATA, add(CFA_XSP16, literal(-5)))
          CFI (cfiCond48) ?RET_HIGH load(1, XDATA, add(CFA_XSP16, literal(-4)))
          CFI (cfiCond48) ?BRET_EXT load(1, XDATA, add(CFA_XSP16, literal(-3)))
          CFI (cfiCond48) DPL0 load(1, XDATA, add(CFA_XSP16, literal(-2)))
          CFI (cfiCond48) DPH0 load(1, XDATA, add(CFA_XSP16, literal(-1)))
          CFI (cfiCond48) CFA_SP SP+0
          CFI (cfiCond48) CFA_XSP16 add(XSP16, 9)
          CFI Block cfiCond49 Using cfiCommon0
          CFI (cfiCond49) Function MT_AfDataRequest
          CFI (cfiCond49) Conditional ??CrossCallReturnLabel_82, ??CrossCallReturnLabel_6
          CFI (cfiCond49) R6 load(1, XDATA, add(CFA_XSP16, literal(-22)))
          CFI (cfiCond49) VB load(1, XDATA, add(CFA_XSP16, literal(-21)))
          CFI (cfiCond49) V0 load(1, XDATA, add(CFA_XSP16, literal(-20)))
          CFI (cfiCond49) V1 load(1, XDATA, add(CFA_XSP16, literal(-19)))
          CFI (cfiCond49) V2 load(1, XDATA, add(CFA_XSP16, literal(-18)))
          CFI (cfiCond49) V3 load(1, XDATA, add(CFA_XSP16, literal(-17)))
          CFI (cfiCond49) V4 load(1, XDATA, add(CFA_XSP16, literal(-16)))
          CFI (cfiCond49) V5 load(1, XDATA, add(CFA_XSP16, literal(-15)))
          CFI (cfiCond49) V6 load(1, XDATA, add(CFA_XSP16, literal(-14)))
          CFI (cfiCond49) V7 load(1, XDATA, add(CFA_XSP16, literal(-13)))
          CFI (cfiCond49) V8 load(1, XDATA, add(CFA_XSP16, literal(-12)))
          CFI (cfiCond49) V9 load(1, XDATA, add(CFA_XSP16, literal(-11)))
          CFI (cfiCond49) V10 load(1, XDATA, add(CFA_XSP16, literal(-10)))
          CFI (cfiCond49) V11 load(1, XDATA, add(CFA_XSP16, literal(-9)))
          CFI (cfiCond49) V12 load(1, XDATA, add(CFA_XSP16, literal(-8)))
          CFI (cfiCond49) V13 load(1, XDATA, add(CFA_XSP16, literal(-7)))
          CFI (cfiCond49) R7 load(1, XDATA, add(CFA_XSP16, literal(-6)))
          CFI (cfiCond49) ?RET_LOW load(1, XDATA, add(CFA_XSP16, literal(-5)))
          CFI (cfiCond49) ?RET_HIGH load(1, XDATA, add(CFA_XSP16, literal(-4)))
          CFI (cfiCond49) ?BRET_EXT load(1, XDATA, add(CFA_XSP16, literal(-3)))
          CFI (cfiCond49) DPL0 load(1, XDATA, add(CFA_XSP16, literal(-2)))
          CFI (cfiCond49) DPH0 load(1, XDATA, add(CFA_XSP16, literal(-1)))
          CFI (cfiCond49) CFA_SP SP+0
          CFI (cfiCond49) CFA_XSP16 add(XSP16, 36)
          CFI Block cfiPicker50 Using cfiCommon1
          CFI (cfiPicker50) NoFunction
          CFI (cfiPicker50) Picker
        MOV     DPL,A
        MOV     A,R0
          CFI EndBlock cfiCond36
          CFI EndBlock cfiCond37
          CFI EndBlock cfiCond38
          CFI EndBlock cfiCond39
          CFI EndBlock cfiCond40
          CFI EndBlock cfiCond41
          CFI EndBlock cfiCond42
          CFI EndBlock cfiCond43
          CFI EndBlock cfiCond44
          CFI EndBlock cfiCond45
          CFI EndBlock cfiCond46
          CFI EndBlock cfiCond47
          CFI EndBlock cfiCond48
          CFI EndBlock cfiCond49
          CFI EndBlock cfiPicker50
        REQUIRE ??Subroutine44_0
        ; // Fall through to label ??Subroutine44_0

        RSEG BANKED_CODE:CODE:NOROOT(0)
??Subroutine44_0:
          CFI Block cfiCond51 Using cfiCommon0
          CFI Function MT_AfExec
          CFI Conditional ??CrossCallReturnLabel_71
          CFI R6 load(1, XDATA, add(CFA_XSP16, literal(-9)))
          CFI VB load(1, XDATA, add(CFA_XSP16, literal(-8)))
          CFI V0 load(1, XDATA, add(CFA_XSP16, literal(-7)))
          CFI R7 load(1, XDATA, add(CFA_XSP16, literal(-6)))
          CFI ?RET_LOW load(1, XDATA, add(CFA_XSP16, literal(-5)))
          CFI ?RET_HIGH load(1, XDATA, add(CFA_XSP16, literal(-4)))
          CFI ?BRET_EXT load(1, XDATA, add(CFA_XSP16, literal(-3)))
          CFI DPL0 load(1, XDATA, add(CFA_XSP16, literal(-2)))
          CFI DPH0 load(1, XDATA, add(CFA_XSP16, literal(-1)))
          CFI CFA_SP SP+0
          CFI CFA_XSP16 add(XSP16, 9)
          CFI Block cfiCond52 Using cfiCommon0
          CFI (cfiCond52) Function MT_AfIncomingMsg
          CFI (cfiCond52) Conditional ??CrossCallReturnLabel_72
          CFI (cfiCond52) R6 load(1, XDATA, add(CFA_XSP16, literal(-24)))
          CFI (cfiCond52) VB load(1, XDATA, add(CFA_XSP16, literal(-23)))
          CFI (cfiCond52) V0 load(1, XDATA, add(CFA_XSP16, literal(-22)))
          CFI (cfiCond52) V1 load(1, XDATA, add(CFA_XSP16, literal(-21)))
          CFI (cfiCond52) V2 load(1, XDATA, add(CFA_XSP16, literal(-20)))
          CFI (cfiCond52) V3 load(1, XDATA, add(CFA_XSP16, literal(-19)))
          CFI (cfiCond52) V4 load(1, XDATA, add(CFA_XSP16, literal(-18)))
          CFI (cfiCond52) V5 load(1, XDATA, add(CFA_XSP16, literal(-17)))
          CFI (cfiCond52) V6 load(1, XDATA, add(CFA_XSP16, literal(-16)))
          CFI (cfiCond52) V7 load(1, XDATA, add(CFA_XSP16, literal(-15)))
          CFI (cfiCond52) V8 load(1, XDATA, add(CFA_XSP16, literal(-14)))
          CFI (cfiCond52) V9 load(1, XDATA, add(CFA_XSP16, literal(-13)))
          CFI (cfiCond52) V10 load(1, XDATA, add(CFA_XSP16, literal(-12)))
          CFI (cfiCond52) V11 load(1, XDATA, add(CFA_XSP16, literal(-11)))
          CFI (cfiCond52) V12 load(1, XDATA, add(CFA_XSP16, literal(-10)))
          CFI (cfiCond52) V13 load(1, XDATA, add(CFA_XSP16, literal(-9)))
          CFI (cfiCond52) V14 load(1, XDATA, add(CFA_XSP16, literal(-8)))
          CFI (cfiCond52) V15 load(1, XDATA, add(CFA_XSP16, literal(-7)))
          CFI (cfiCond52) R7 load(1, XDATA, add(CFA_XSP16, literal(-6)))
          CFI (cfiCond52) ?RET_LOW load(1, XDATA, add(CFA_XSP16, literal(-5)))
          CFI (cfiCond52) ?RET_HIGH load(1, XDATA, add(CFA_XSP16, literal(-4)))
          CFI (cfiCond52) ?BRET_EXT load(1, XDATA, add(CFA_XSP16, literal(-3)))
          CFI (cfiCond52) DPL0 load(1, XDATA, add(CFA_XSP16, literal(-2)))
          CFI (cfiCond52) DPH0 load(1, XDATA, add(CFA_XSP16, literal(-1)))
          CFI (cfiCond52) CFA_SP SP+0
          CFI (cfiCond52) CFA_XSP16 add(XSP16, 25)
          CFI Block cfiCond53 Using cfiCommon0
          CFI (cfiCond53) Function MT_AfIncomingMsg
          CFI (cfiCond53) Conditional ??CrossCallReturnLabel_73
          CFI (cfiCond53) R6 load(1, XDATA, add(CFA_XSP16, literal(-24)))
          CFI (cfiCond53) VB load(1, XDATA, add(CFA_XSP16, literal(-23)))
          CFI (cfiCond53) V0 load(1, XDATA, add(CFA_XSP16, literal(-22)))
          CFI (cfiCond53) V1 load(1, XDATA, add(CFA_XSP16, literal(-21)))
          CFI (cfiCond53) V2 load(1, XDATA, add(CFA_XSP16, literal(-20)))
          CFI (cfiCond53) V3 load(1, XDATA, add(CFA_XSP16, literal(-19)))
          CFI (cfiCond53) V4 load(1, XDATA, add(CFA_XSP16, literal(-18)))
          CFI (cfiCond53) V5 load(1, XDATA, add(CFA_XSP16, literal(-17)))
          CFI (cfiCond53) V6 load(1, XDATA, add(CFA_XSP16, literal(-16)))
          CFI (cfiCond53) V7 load(1, XDATA, add(CFA_XSP16, literal(-15)))
          CFI (cfiCond53) V8 load(1, XDATA, add(CFA_XSP16, literal(-14)))
          CFI (cfiCond53) V9 load(1, XDATA, add(CFA_XSP16, literal(-13)))
          CFI (cfiCond53) V10 load(1, XDATA, add(CFA_XSP16, literal(-12)))
          CFI (cfiCond53) V11 load(1, XDATA, add(CFA_XSP16, literal(-11)))
          CFI (cfiCond53) V12 load(1, XDATA, add(CFA_XSP16, literal(-10)))
          CFI (cfiCond53) V13 load(1, XDATA, add(CFA_XSP16, literal(-9)))
          CFI (cfiCond53) V14 load(1, XDATA, add(CFA_XSP16, literal(-8)))
          CFI (cfiCond53) V15 load(1, XDATA, add(CFA_XSP16, literal(-7)))
          CFI (cfiCond53) R7 load(1, XDATA, add(CFA_XSP16, literal(-6)))
          CFI (cfiCond53) ?RET_LOW load(1, XDATA, add(CFA_XSP16, literal(-5)))
          CFI (cfiCond53) ?RET_HIGH load(1, XDATA, add(CFA_XSP16, literal(-4)))
          CFI (cfiCond53) ?BRET_EXT load(1, XDATA, add(CFA_XSP16, literal(-3)))
          CFI (cfiCond53) DPL0 load(1, XDATA, add(CFA_XSP16, literal(-2)))
          CFI (cfiCond53) DPH0 load(1, XDATA, add(CFA_XSP16, literal(-1)))
          CFI (cfiCond53) CFA_SP SP+0
          CFI (cfiCond53) CFA_XSP16 add(XSP16, 25)
          CFI Block cfiCond54 Using cfiCommon0
          CFI (cfiCond54) Function MT_AfIncomingMsg
          CFI (cfiCond54) Conditional ??CrossCallReturnLabel_74, ??CrossCallReturnLabel_104
          CFI (cfiCond54) R6 load(1, XDATA, add(CFA_XSP16, literal(-24)))
          CFI (cfiCond54) VB load(1, XDATA, add(CFA_XSP16, literal(-23)))
          CFI (cfiCond54) V0 load(1, XDATA, add(CFA_XSP16, literal(-22)))
          CFI (cfiCond54) V1 load(1, XDATA, add(CFA_XSP16, literal(-21)))
          CFI (cfiCond54) V2 load(1, XDATA, add(CFA_XSP16, literal(-20)))
          CFI (cfiCond54) V3 load(1, XDATA, add(CFA_XSP16, literal(-19)))
          CFI (cfiCond54) V4 load(1, XDATA, add(CFA_XSP16, literal(-18)))
          CFI (cfiCond54) V5 load(1, XDATA, add(CFA_XSP16, literal(-17)))
          CFI (cfiCond54) V6 load(1, XDATA, add(CFA_XSP16, literal(-16)))
          CFI (cfiCond54) V7 load(1, XDATA, add(CFA_XSP16, literal(-15)))
          CFI (cfiCond54) V8 load(1, XDATA, add(CFA_XSP16, literal(-14)))
          CFI (cfiCond54) V9 load(1, XDATA, add(CFA_XSP16, literal(-13)))
          CFI (cfiCond54) V10 load(1, XDATA, add(CFA_XSP16, literal(-12)))
          CFI (cfiCond54) V11 load(1, XDATA, add(CFA_XSP16, literal(-11)))
          CFI (cfiCond54) V12 load(1, XDATA, add(CFA_XSP16, literal(-10)))
          CFI (cfiCond54) V13 load(1, XDATA, add(CFA_XSP16, literal(-9)))
          CFI (cfiCond54) V14 load(1, XDATA, add(CFA_XSP16, literal(-8)))
          CFI (cfiCond54) V15 load(1, XDATA, add(CFA_XSP16, literal(-7)))
          CFI (cfiCond54) R7 load(1, XDATA, add(CFA_XSP16, literal(-6)))
          CFI (cfiCond54) ?RET_LOW load(1, XDATA, add(CFA_XSP16, literal(-5)))
          CFI (cfiCond54) ?RET_HIGH load(1, XDATA, add(CFA_XSP16, literal(-4)))
          CFI (cfiCond54) ?BRET_EXT load(1, XDATA, add(CFA_XSP16, literal(-3)))
          CFI (cfiCond54) DPL0 load(1, XDATA, add(CFA_XSP16, literal(-2)))
          CFI (cfiCond54) DPH0 load(1, XDATA, add(CFA_XSP16, literal(-1)))
          CFI (cfiCond54) CFA_SP SP+0
          CFI (cfiCond54) CFA_XSP16 add(XSP16, 25)
          CFI Block cfiCond55 Using cfiCommon0
          CFI (cfiCond55) Function MT_AfIncomingMsg
          CFI (cfiCond55) Conditional ??CrossCallReturnLabel_74, ??CrossCallReturnLabel_105
          CFI (cfiCond55) R6 load(1, XDATA, add(CFA_XSP16, literal(-24)))
          CFI (cfiCond55) VB load(1, XDATA, add(CFA_XSP16, literal(-23)))
          CFI (cfiCond55) V0 load(1, XDATA, add(CFA_XSP16, literal(-22)))
          CFI (cfiCond55) V1 load(1, XDATA, add(CFA_XSP16, literal(-21)))
          CFI (cfiCond55) V2 load(1, XDATA, add(CFA_XSP16, literal(-20)))
          CFI (cfiCond55) V3 load(1, XDATA, add(CFA_XSP16, literal(-19)))
          CFI (cfiCond55) V4 load(1, XDATA, add(CFA_XSP16, literal(-18)))
          CFI (cfiCond55) V5 load(1, XDATA, add(CFA_XSP16, literal(-17)))
          CFI (cfiCond55) V6 load(1, XDATA, add(CFA_XSP16, literal(-16)))
          CFI (cfiCond55) V7 load(1, XDATA, add(CFA_XSP16, literal(-15)))
          CFI (cfiCond55) V8 load(1, XDATA, add(CFA_XSP16, literal(-14)))
          CFI (cfiCond55) V9 load(1, XDATA, add(CFA_XSP16, literal(-13)))
          CFI (cfiCond55) V10 load(1, XDATA, add(CFA_XSP16, literal(-12)))
          CFI (cfiCond55) V11 load(1, XDATA, add(CFA_XSP16, literal(-11)))
          CFI (cfiCond55) V12 load(1, XDATA, add(CFA_XSP16, literal(-10)))
          CFI (cfiCond55) V13 load(1, XDATA, add(CFA_XSP16, literal(-9)))
          CFI (cfiCond55) V14 load(1, XDATA, add(CFA_XSP16, literal(-8)))
          CFI (cfiCond55) V15 load(1, XDATA, add(CFA_XSP16, literal(-7)))
          CFI (cfiCond55) R7 load(1, XDATA, add(CFA_XSP16, literal(-6)))
          CFI (cfiCond55) ?RET_LOW load(1, XDATA, add(CFA_XSP16, literal(-5)))
          CFI (cfiCond55) ?RET_HIGH load(1, XDATA, add(CFA_XSP16, literal(-4)))
          CFI (cfiCond55) ?BRET_EXT load(1, XDATA, add(CFA_XSP16, literal(-3)))
          CFI (cfiCond55) DPL0 load(1, XDATA, add(CFA_XSP16, literal(-2)))
          CFI (cfiCond55) DPH0 load(1, XDATA, add(CFA_XSP16, literal(-1)))
          CFI (cfiCond55) CFA_SP SP+0
          CFI (cfiCond55) CFA_XSP16 add(XSP16, 25)
          CFI Block cfiCond56 Using cfiCommon0
          CFI (cfiCond56) Function MT_AfIncomingMsg
          CFI (cfiCond56) Conditional ??CrossCallReturnLabel_74, ??CrossCallReturnLabel_106
          CFI (cfiCond56) R6 load(1, XDATA, add(CFA_XSP16, literal(-24)))
          CFI (cfiCond56) VB load(1, XDATA, add(CFA_XSP16, literal(-23)))
          CFI (cfiCond56) V0 load(1, XDATA, add(CFA_XSP16, literal(-22)))
          CFI (cfiCond56) V1 load(1, XDATA, add(CFA_XSP16, literal(-21)))
          CFI (cfiCond56) V2 load(1, XDATA, add(CFA_XSP16, literal(-20)))
          CFI (cfiCond56) V3 load(1, XDATA, add(CFA_XSP16, literal(-19)))
          CFI (cfiCond56) V4 load(1, XDATA, add(CFA_XSP16, literal(-18)))
          CFI (cfiCond56) V5 load(1, XDATA, add(CFA_XSP16, literal(-17)))
          CFI (cfiCond56) V6 load(1, XDATA, add(CFA_XSP16, literal(-16)))
          CFI (cfiCond56) V7 load(1, XDATA, add(CFA_XSP16, literal(-15)))
          CFI (cfiCond56) V8 load(1, XDATA, add(CFA_XSP16, literal(-14)))
          CFI (cfiCond56) V9 load(1, XDATA, add(CFA_XSP16, literal(-13)))
          CFI (cfiCond56) V10 load(1, XDATA, add(CFA_XSP16, literal(-12)))
          CFI (cfiCond56) V11 load(1, XDATA, add(CFA_XSP16, literal(-11)))
          CFI (cfiCond56) V12 load(1, XDATA, add(CFA_XSP16, literal(-10)))
          CFI (cfiCond56) V13 load(1, XDATA, add(CFA_XSP16, literal(-9)))
          CFI (cfiCond56) V14 load(1, XDATA, add(CFA_XSP16, literal(-8)))
          CFI (cfiCond56) V15 load(1, XDATA, add(CFA_XSP16, literal(-7)))
          CFI (cfiCond56) R7 load(1, XDATA, add(CFA_XSP16, literal(-6)))
          CFI (cfiCond56) ?RET_LOW load(1, XDATA, add(CFA_XSP16, literal(-5)))
          CFI (cfiCond56) ?RET_HIGH load(1, XDATA, add(CFA_XSP16, literal(-4)))
          CFI (cfiCond56) ?BRET_EXT load(1, XDATA, add(CFA_XSP16, literal(-3)))
          CFI (cfiCond56) DPL0 load(1, XDATA, add(CFA_XSP16, literal(-2)))
          CFI (cfiCond56) DPH0 load(1, XDATA, add(CFA_XSP16, literal(-1)))
          CFI (cfiCond56) CFA_SP SP+0
          CFI (cfiCond56) CFA_XSP16 add(XSP16, 25)
          CFI Block cfiCond57 Using cfiCommon0
          CFI (cfiCond57) Function MT_AfIncomingMsg
          CFI (cfiCond57) Conditional ??CrossCallReturnLabel_74, ??CrossCallReturnLabel_107
          CFI (cfiCond57) R6 load(1, XDATA, add(CFA_XSP16, literal(-24)))
          CFI (cfiCond57) VB load(1, XDATA, add(CFA_XSP16, literal(-23)))
          CFI (cfiCond57) V0 load(1, XDATA, add(CFA_XSP16, literal(-22)))
          CFI (cfiCond57) V1 load(1, XDATA, add(CFA_XSP16, literal(-21)))
          CFI (cfiCond57) V2 load(1, XDATA, add(CFA_XSP16, literal(-20)))
          CFI (cfiCond57) V3 load(1, XDATA, add(CFA_XSP16, literal(-19)))
          CFI (cfiCond57) V4 load(1, XDATA, add(CFA_XSP16, literal(-18)))
          CFI (cfiCond57) V5 load(1, XDATA, add(CFA_XSP16, literal(-17)))
          CFI (cfiCond57) V6 load(1, XDATA, add(CFA_XSP16, literal(-16)))
          CFI (cfiCond57) V7 load(1, XDATA, add(CFA_XSP16, literal(-15)))
          CFI (cfiCond57) V8 load(1, XDATA, add(CFA_XSP16, literal(-14)))
          CFI (cfiCond57) V9 load(1, XDATA, add(CFA_XSP16, literal(-13)))
          CFI (cfiCond57) V10 load(1, XDATA, add(CFA_XSP16, literal(-12)))
          CFI (cfiCond57) V11 load(1, XDATA, add(CFA_XSP16, literal(-11)))
          CFI (cfiCond57) V12 load(1, XDATA, add(CFA_XSP16, literal(-10)))
          CFI (cfiCond57) V13 load(1, XDATA, add(CFA_XSP16, literal(-9)))
          CFI (cfiCond57) V14 load(1, XDATA, add(CFA_XSP16, literal(-8)))
          CFI (cfiCond57) V15 load(1, XDATA, add(CFA_XSP16, literal(-7)))
          CFI (cfiCond57) R7 load(1, XDATA, add(CFA_XSP16, literal(-6)))
          CFI (cfiCond57) ?RET_LOW load(1, XDATA, add(CFA_XSP16, literal(-5)))
          CFI (cfiCond57) ?RET_HIGH load(1, XDATA, add(CFA_XSP16, literal(-4)))
          CFI (cfiCond57) ?BRET_EXT load(1, XDATA, add(CFA_XSP16, literal(-3)))
          CFI (cfiCond57) DPL0 load(1, XDATA, add(CFA_XSP16, literal(-2)))
          CFI (cfiCond57) DPH0 load(1, XDATA, add(CFA_XSP16, literal(-1)))
          CFI (cfiCond57) CFA_SP SP+0
          CFI (cfiCond57) CFA_XSP16 add(XSP16, 25)
          CFI Block cfiCond58 Using cfiCommon0
          CFI (cfiCond58) Function MT_AfDataRequest
          CFI (cfiCond58) Conditional ??CrossCallReturnLabel_75
          CFI (cfiCond58) R6 load(1, XDATA, add(CFA_XSP16, literal(-22)))
          CFI (cfiCond58) VB load(1, XDATA, add(CFA_XSP16, literal(-21)))
          CFI (cfiCond58) V0 load(1, XDATA, add(CFA_XSP16, literal(-20)))
          CFI (cfiCond58) V1 load(1, XDATA, add(CFA_XSP16, literal(-19)))
          CFI (cfiCond58) V2 load(1, XDATA, add(CFA_XSP16, literal(-18)))
          CFI (cfiCond58) V3 load(1, XDATA, add(CFA_XSP16, literal(-17)))
          CFI (cfiCond58) V4 load(1, XDATA, add(CFA_XSP16, literal(-16)))
          CFI (cfiCond58) V5 load(1, XDATA, add(CFA_XSP16, literal(-15)))
          CFI (cfiCond58) V6 load(1, XDATA, add(CFA_XSP16, literal(-14)))
          CFI (cfiCond58) V7 load(1, XDATA, add(CFA_XSP16, literal(-13)))
          CFI (cfiCond58) V8 load(1, XDATA, add(CFA_XSP16, literal(-12)))
          CFI (cfiCond58) V9 load(1, XDATA, add(CFA_XSP16, literal(-11)))
          CFI (cfiCond58) V10 load(1, XDATA, add(CFA_XSP16, literal(-10)))
          CFI (cfiCond58) V11 load(1, XDATA, add(CFA_XSP16, literal(-9)))
          CFI (cfiCond58) V12 load(1, XDATA, add(CFA_XSP16, literal(-8)))
          CFI (cfiCond58) V13 load(1, XDATA, add(CFA_XSP16, literal(-7)))
          CFI (cfiCond58) R7 load(1, XDATA, add(CFA_XSP16, literal(-6)))
          CFI (cfiCond58) ?RET_LOW load(1, XDATA, add(CFA_XSP16, literal(-5)))
          CFI (cfiCond58) ?RET_HIGH load(1, XDATA, add(CFA_XSP16, literal(-4)))
          CFI (cfiCond58) ?BRET_EXT load(1, XDATA, add(CFA_XSP16, literal(-3)))
          CFI (cfiCond58) DPL0 load(1, XDATA, add(CFA_XSP16, literal(-2)))
          CFI (cfiCond58) DPH0 load(1, XDATA, add(CFA_XSP16, literal(-1)))
          CFI (cfiCond58) CFA_SP SP+-1
          CFI (cfiCond58) CFA_XSP16 add(XSP16, 36)
          CFI Block cfiCond59 Using cfiCommon0
          CFI (cfiCond59) Function MT_AfDataRequest
          CFI (cfiCond59) Conditional ??CrossCallReturnLabel_80, ??CrossCallReturnLabel_16
          CFI (cfiCond59) R6 load(1, XDATA, add(CFA_XSP16, literal(-22)))
          CFI (cfiCond59) VB load(1, XDATA, add(CFA_XSP16, literal(-21)))
          CFI (cfiCond59) V0 load(1, XDATA, add(CFA_XSP16, literal(-20)))
          CFI (cfiCond59) V1 load(1, XDATA, add(CFA_XSP16, literal(-19)))
          CFI (cfiCond59) V2 load(1, XDATA, add(CFA_XSP16, literal(-18)))
          CFI (cfiCond59) V3 load(1, XDATA, add(CFA_XSP16, literal(-17)))
          CFI (cfiCond59) V4 load(1, XDATA, add(CFA_XSP16, literal(-16)))
          CFI (cfiCond59) V5 load(1, XDATA, add(CFA_XSP16, literal(-15)))
          CFI (cfiCond59) V6 load(1, XDATA, add(CFA_XSP16, literal(-14)))
          CFI (cfiCond59) V7 load(1, XDATA, add(CFA_XSP16, literal(-13)))
          CFI (cfiCond59) V8 load(1, XDATA, add(CFA_XSP16, literal(-12)))
          CFI (cfiCond59) V9 load(1, XDATA, add(CFA_XSP16, literal(-11)))
          CFI (cfiCond59) V10 load(1, XDATA, add(CFA_XSP16, literal(-10)))
          CFI (cfiCond59) V11 load(1, XDATA, add(CFA_XSP16, literal(-9)))
          CFI (cfiCond59) V12 load(1, XDATA, add(CFA_XSP16, literal(-8)))
          CFI (cfiCond59) V13 load(1, XDATA, add(CFA_XSP16, literal(-7)))
          CFI (cfiCond59) R7 load(1, XDATA, add(CFA_XSP16, literal(-6)))
          CFI (cfiCond59) ?RET_LOW load(1, XDATA, add(CFA_XSP16, literal(-5)))
          CFI (cfiCond59) ?RET_HIGH load(1, XDATA, add(CFA_XSP16, literal(-4)))
          CFI (cfiCond59) ?BRET_EXT load(1, XDATA, add(CFA_XSP16, literal(-3)))
          CFI (cfiCond59) DPL0 load(1, XDATA, add(CFA_XSP16, literal(-2)))
          CFI (cfiCond59) DPH0 load(1, XDATA, add(CFA_XSP16, literal(-1)))
          CFI (cfiCond59) CFA_SP SP+0
          CFI (cfiCond59) CFA_XSP16 add(XSP16, 36)
          CFI Block cfiCond60 Using cfiCommon0
          CFI (cfiCond60) Function MT_AfDataStore
          CFI (cfiCond60) Conditional ??CrossCallReturnLabel_80, ??CrossCallReturnLabel_17
          CFI (cfiCond60) R6 load(1, XDATA, add(CFA_XSP16, literal(-14)))
          CFI (cfiCond60) VB load(1, XDATA, add(CFA_XSP16, literal(-13)))
          CFI (cfiCond60) V0 load(1, XDATA, add(CFA_XSP16, literal(-12)))
          CFI (cfiCond60) V1 load(1, XDATA, add(CFA_XSP16, literal(-11)))
          CFI (cfiCond60) V2 load(1, XDATA, add(CFA_XSP16, literal(-10)))
          CFI (cfiCond60) V3 load(1, XDATA, add(CFA_XSP16, literal(-9)))
          CFI (cfiCond60) V4 load(1, XDATA, add(CFA_XSP16, literal(-8)))
          CFI (cfiCond60) V5 load(1, XDATA, add(CFA_XSP16, literal(-7)))
          CFI (cfiCond60) R7 load(1, XDATA, add(CFA_XSP16, literal(-6)))
          CFI (cfiCond60) ?RET_LOW load(1, XDATA, add(CFA_XSP16, literal(-5)))
          CFI (cfiCond60) ?RET_HIGH load(1, XDATA, add(CFA_XSP16, literal(-4)))
          CFI (cfiCond60) ?BRET_EXT load(1, XDATA, add(CFA_XSP16, literal(-3)))
          CFI (cfiCond60) DPL0 load(1, XDATA, add(CFA_XSP16, literal(-2)))
          CFI (cfiCond60) DPH0 load(1, XDATA, add(CFA_XSP16, literal(-1)))
          CFI (cfiCond60) CFA_SP SP+0
          CFI (cfiCond60) CFA_XSP16 add(XSP16, 15)
          CFI Block cfiCond61 Using cfiCommon0
          CFI (cfiCond61) Function MT_AfDataRequest
          CFI (cfiCond61) Conditional ??CrossCallReturnLabel_79, ??CrossCallReturnLabel_14
          CFI (cfiCond61) R6 load(1, XDATA, add(CFA_XSP16, literal(-22)))
          CFI (cfiCond61) VB load(1, XDATA, add(CFA_XSP16, literal(-21)))
          CFI (cfiCond61) V0 load(1, XDATA, add(CFA_XSP16, literal(-20)))
          CFI (cfiCond61) V1 load(1, XDATA, add(CFA_XSP16, literal(-19)))
          CFI (cfiCond61) V2 load(1, XDATA, add(CFA_XSP16, literal(-18)))
          CFI (cfiCond61) V3 load(1, XDATA, add(CFA_XSP16, literal(-17)))
          CFI (cfiCond61) V4 load(1, XDATA, add(CFA_XSP16, literal(-16)))
          CFI (cfiCond61) V5 load(1, XDATA, add(CFA_XSP16, literal(-15)))
          CFI (cfiCond61) V6 load(1, XDATA, add(CFA_XSP16, literal(-14)))
          CFI (cfiCond61) V7 load(1, XDATA, add(CFA_XSP16, literal(-13)))
          CFI (cfiCond61) V8 load(1, XDATA, add(CFA_XSP16, literal(-12)))
          CFI (cfiCond61) V9 load(1, XDATA, add(CFA_XSP16, literal(-11)))
          CFI (cfiCond61) V10 load(1, XDATA, add(CFA_XSP16, literal(-10)))
          CFI (cfiCond61) V11 load(1, XDATA, add(CFA_XSP16, literal(-9)))
          CFI (cfiCond61) V12 load(1, XDATA, add(CFA_XSP16, literal(-8)))
          CFI (cfiCond61) V13 load(1, XDATA, add(CFA_XSP16, literal(-7)))
          CFI (cfiCond61) R7 load(1, XDATA, add(CFA_XSP16, literal(-6)))
          CFI (cfiCond61) ?RET_LOW load(1, XDATA, add(CFA_XSP16, literal(-5)))
          CFI (cfiCond61) ?RET_HIGH load(1, XDATA, add(CFA_XSP16, literal(-4)))
          CFI (cfiCond61) ?BRET_EXT load(1, XDATA, add(CFA_XSP16, literal(-3)))
          CFI (cfiCond61) DPL0 load(1, XDATA, add(CFA_XSP16, literal(-2)))
          CFI (cfiCond61) DPH0 load(1, XDATA, add(CFA_XSP16, literal(-1)))
          CFI (cfiCond61) CFA_SP SP+0
          CFI (cfiCond61) CFA_XSP16 add(XSP16, 36)
          CFI Block cfiCond62 Using cfiCommon0
          CFI (cfiCond62) Function MT_AfDataStore
          CFI (cfiCond62) Conditional ??CrossCallReturnLabel_79, ??CrossCallReturnLabel_15
          CFI (cfiCond62) R6 load(1, XDATA, add(CFA_XSP16, literal(-14)))
          CFI (cfiCond62) VB load(1, XDATA, add(CFA_XSP16, literal(-13)))
          CFI (cfiCond62) V0 load(1, XDATA, add(CFA_XSP16, literal(-12)))
          CFI (cfiCond62) V1 load(1, XDATA, add(CFA_XSP16, literal(-11)))
          CFI (cfiCond62) V2 load(1, XDATA, add(CFA_XSP16, literal(-10)))
          CFI (cfiCond62) V3 load(1, XDATA, add(CFA_XSP16, literal(-9)))
          CFI (cfiCond62) V4 load(1, XDATA, add(CFA_XSP16, literal(-8)))
          CFI (cfiCond62) V5 load(1, XDATA, add(CFA_XSP16, literal(-7)))
          CFI (cfiCond62) R7 load(1, XDATA, add(CFA_XSP16, literal(-6)))
          CFI (cfiCond62) ?RET_LOW load(1, XDATA, add(CFA_XSP16, literal(-5)))
          CFI (cfiCond62) ?RET_HIGH load(1, XDATA, add(CFA_XSP16, literal(-4)))
          CFI (cfiCond62) ?BRET_EXT load(1, XDATA, add(CFA_XSP16, literal(-3)))
          CFI (cfiCond62) DPL0 load(1, XDATA, add(CFA_XSP16, literal(-2)))
          CFI (cfiCond62) DPH0 load(1, XDATA, add(CFA_XSP16, literal(-1)))
          CFI (cfiCond62) CFA_SP SP+0
          CFI (cfiCond62) CFA_XSP16 add(XSP16, 24)
          CFI Block cfiCond63 Using cfiCommon0
          CFI (cfiCond63) Function MT_AfDataRequest
          CFI (cfiCond63) Conditional ??CrossCallReturnLabel_78, ??CrossCallReturnLabel_12
          CFI (cfiCond63) R6 load(1, XDATA, add(CFA_XSP16, literal(-22)))
          CFI (cfiCond63) VB load(1, XDATA, add(CFA_XSP16, literal(-21)))
          CFI (cfiCond63) V0 load(1, XDATA, add(CFA_XSP16, literal(-20)))
          CFI (cfiCond63) V1 load(1, XDATA, add(CFA_XSP16, literal(-19)))
          CFI (cfiCond63) V2 load(1, XDATA, add(CFA_XSP16, literal(-18)))
          CFI (cfiCond63) V3 load(1, XDATA, add(CFA_XSP16, literal(-17)))
          CFI (cfiCond63) V4 load(1, XDATA, add(CFA_XSP16, literal(-16)))
          CFI (cfiCond63) V5 load(1, XDATA, add(CFA_XSP16, literal(-15)))
          CFI (cfiCond63) V6 load(1, XDATA, add(CFA_XSP16, literal(-14)))
          CFI (cfiCond63) V7 load(1, XDATA, add(CFA_XSP16, literal(-13)))
          CFI (cfiCond63) V8 load(1, XDATA, add(CFA_XSP16, literal(-12)))
          CFI (cfiCond63) V9 load(1, XDATA, add(CFA_XSP16, literal(-11)))
          CFI (cfiCond63) V10 load(1, XDATA, add(CFA_XSP16, literal(-10)))
          CFI (cfiCond63) V11 load(1, XDATA, add(CFA_XSP16, literal(-9)))
          CFI (cfiCond63) V12 load(1, XDATA, add(CFA_XSP16, literal(-8)))
          CFI (cfiCond63) V13 load(1, XDATA, add(CFA_XSP16, literal(-7)))
          CFI (cfiCond63) R7 load(1, XDATA, add(CFA_XSP16, literal(-6)))
          CFI (cfiCond63) ?RET_LOW load(1, XDATA, add(CFA_XSP16, literal(-5)))
          CFI (cfiCond63) ?RET_HIGH load(1, XDATA, add(CFA_XSP16, literal(-4)))
          CFI (cfiCond63) ?BRET_EXT load(1, XDATA, add(CFA_XSP16, literal(-3)))
          CFI (cfiCond63) DPL0 load(1, XDATA, add(CFA_XSP16, literal(-2)))
          CFI (cfiCond63) DPH0 load(1, XDATA, add(CFA_XSP16, literal(-1)))
          CFI (cfiCond63) CFA_SP SP+0
          CFI (cfiCond63) CFA_XSP16 add(XSP16, 36)
          CFI Block cfiCond64 Using cfiCommon0
          CFI (cfiCond64) Function MT_AfDataStore
          CFI (cfiCond64) Conditional ??CrossCallReturnLabel_78, ??CrossCallReturnLabel_13
          CFI (cfiCond64) R6 load(1, XDATA, add(CFA_XSP16, literal(-14)))
          CFI (cfiCond64) VB load(1, XDATA, add(CFA_XSP16, literal(-13)))
          CFI (cfiCond64) V0 load(1, XDATA, add(CFA_XSP16, literal(-12)))
          CFI (cfiCond64) V1 load(1, XDATA, add(CFA_XSP16, literal(-11)))
          CFI (cfiCond64) V2 load(1, XDATA, add(CFA_XSP16, literal(-10)))
          CFI (cfiCond64) V3 load(1, XDATA, add(CFA_XSP16, literal(-9)))
          CFI (cfiCond64) V4 load(1, XDATA, add(CFA_XSP16, literal(-8)))
          CFI (cfiCond64) V5 load(1, XDATA, add(CFA_XSP16, literal(-7)))
          CFI (cfiCond64) R7 load(1, XDATA, add(CFA_XSP16, literal(-6)))
          CFI (cfiCond64) ?RET_LOW load(1, XDATA, add(CFA_XSP16, literal(-5)))
          CFI (cfiCond64) ?RET_HIGH load(1, XDATA, add(CFA_XSP16, literal(-4)))
          CFI (cfiCond64) ?BRET_EXT load(1, XDATA, add(CFA_XSP16, literal(-3)))
          CFI (cfiCond64) DPL0 load(1, XDATA, add(CFA_XSP16, literal(-2)))
          CFI (cfiCond64) DPH0 load(1, XDATA, add(CFA_XSP16, literal(-1)))
          CFI (cfiCond64) CFA_SP SP+0
          CFI (cfiCond64) CFA_XSP16 add(XSP16, 20)
          CFI Block cfiCond65 Using cfiCommon0
          CFI (cfiCond65) Function MT_AfDataRequest
          CFI (cfiCond65) Conditional ??CrossCallReturnLabel_77, ??CrossCallReturnLabel_10
          CFI (cfiCond65) R6 load(1, XDATA, add(CFA_XSP16, literal(-22)))
          CFI (cfiCond65) VB load(1, XDATA, add(CFA_XSP16, literal(-21)))
          CFI (cfiCond65) V0 load(1, XDATA, add(CFA_XSP16, literal(-20)))
          CFI (cfiCond65) V1 load(1, XDATA, add(CFA_XSP16, literal(-19)))
          CFI (cfiCond65) V2 load(1, XDATA, add(CFA_XSP16, literal(-18)))
          CFI (cfiCond65) V3 load(1, XDATA, add(CFA_XSP16, literal(-17)))
          CFI (cfiCond65) V4 load(1, XDATA, add(CFA_XSP16, literal(-16)))
          CFI (cfiCond65) V5 load(1, XDATA, add(CFA_XSP16, literal(-15)))
          CFI (cfiCond65) V6 load(1, XDATA, add(CFA_XSP16, literal(-14)))
          CFI (cfiCond65) V7 load(1, XDATA, add(CFA_XSP16, literal(-13)))
          CFI (cfiCond65) V8 load(1, XDATA, add(CFA_XSP16, literal(-12)))
          CFI (cfiCond65) V9 load(1, XDATA, add(CFA_XSP16, literal(-11)))
          CFI (cfiCond65) V10 load(1, XDATA, add(CFA_XSP16, literal(-10)))
          CFI (cfiCond65) V11 load(1, XDATA, add(CFA_XSP16, literal(-9)))
          CFI (cfiCond65) V12 load(1, XDATA, add(CFA_XSP16, literal(-8)))
          CFI (cfiCond65) V13 load(1, XDATA, add(CFA_XSP16, literal(-7)))
          CFI (cfiCond65) R7 load(1, XDATA, add(CFA_XSP16, literal(-6)))
          CFI (cfiCond65) ?RET_LOW load(1, XDATA, add(CFA_XSP16, literal(-5)))
          CFI (cfiCond65) ?RET_HIGH load(1, XDATA, add(CFA_XSP16, literal(-4)))
          CFI (cfiCond65) ?BRET_EXT load(1, XDATA, add(CFA_XSP16, literal(-3)))
          CFI (cfiCond65) DPL0 load(1, XDATA, add(CFA_XSP16, literal(-2)))
          CFI (cfiCond65) DPH0 load(1, XDATA, add(CFA_XSP16, literal(-1)))
          CFI (cfiCond65) CFA_SP SP+0
          CFI (cfiCond65) CFA_XSP16 add(XSP16, 36)
          CFI Block cfiCond66 Using cfiCommon0
          CFI (cfiCond66) Function MT_AfDataStore
          CFI (cfiCond66) Conditional ??CrossCallReturnLabel_77, ??CrossCallReturnLabel_11
          CFI (cfiCond66) R6 load(1, XDATA, add(CFA_XSP16, literal(-14)))
          CFI (cfiCond66) VB load(1, XDATA, add(CFA_XSP16, literal(-13)))
          CFI (cfiCond66) V0 load(1, XDATA, add(CFA_XSP16, literal(-12)))
          CFI (cfiCond66) V1 load(1, XDATA, add(CFA_XSP16, literal(-11)))
          CFI (cfiCond66) V2 load(1, XDATA, add(CFA_XSP16, literal(-10)))
          CFI (cfiCond66) V3 load(1, XDATA, add(CFA_XSP16, literal(-9)))
          CFI (cfiCond66) V4 load(1, XDATA, add(CFA_XSP16, literal(-8)))
          CFI (cfiCond66) V5 load(1, XDATA, add(CFA_XSP16, literal(-7)))
          CFI (cfiCond66) R7 load(1, XDATA, add(CFA_XSP16, literal(-6)))
          CFI (cfiCond66) ?RET_LOW load(1, XDATA, add(CFA_XSP16, literal(-5)))
          CFI (cfiCond66) ?RET_HIGH load(1, XDATA, add(CFA_XSP16, literal(-4)))
          CFI (cfiCond66) ?BRET_EXT load(1, XDATA, add(CFA_XSP16, literal(-3)))
          CFI (cfiCond66) DPL0 load(1, XDATA, add(CFA_XSP16, literal(-2)))
          CFI (cfiCond66) DPH0 load(1, XDATA, add(CFA_XSP16, literal(-1)))
          CFI (cfiCond66) CFA_SP SP+0
          CFI (cfiCond66) CFA_XSP16 add(XSP16, 22)
          CFI Block cfiCond67 Using cfiCommon0
          CFI (cfiCond67) Function MT_AfDataRequest
          CFI (cfiCond67) Conditional ??CrossCallReturnLabel_76, ??CrossCallReturnLabel_8
          CFI (cfiCond67) R6 load(1, XDATA, add(CFA_XSP16, literal(-22)))
          CFI (cfiCond67) VB load(1, XDATA, add(CFA_XSP16, literal(-21)))
          CFI (cfiCond67) V0 load(1, XDATA, add(CFA_XSP16, literal(-20)))
          CFI (cfiCond67) V1 load(1, XDATA, add(CFA_XSP16, literal(-19)))
          CFI (cfiCond67) V2 load(1, XDATA, add(CFA_XSP16, literal(-18)))
          CFI (cfiCond67) V3 load(1, XDATA, add(CFA_XSP16, literal(-17)))
          CFI (cfiCond67) V4 load(1, XDATA, add(CFA_XSP16, literal(-16)))
          CFI (cfiCond67) V5 load(1, XDATA, add(CFA_XSP16, literal(-15)))
          CFI (cfiCond67) V6 load(1, XDATA, add(CFA_XSP16, literal(-14)))
          CFI (cfiCond67) V7 load(1, XDATA, add(CFA_XSP16, literal(-13)))
          CFI (cfiCond67) V8 load(1, XDATA, add(CFA_XSP16, literal(-12)))
          CFI (cfiCond67) V9 load(1, XDATA, add(CFA_XSP16, literal(-11)))
          CFI (cfiCond67) V10 load(1, XDATA, add(CFA_XSP16, literal(-10)))
          CFI (cfiCond67) V11 load(1, XDATA, add(CFA_XSP16, literal(-9)))
          CFI (cfiCond67) V12 load(1, XDATA, add(CFA_XSP16, literal(-8)))
          CFI (cfiCond67) V13 load(1, XDATA, add(CFA_XSP16, literal(-7)))
          CFI (cfiCond67) R7 load(1, XDATA, add(CFA_XSP16, literal(-6)))
          CFI (cfiCond67) ?RET_LOW load(1, XDATA, add(CFA_XSP16, literal(-5)))
          CFI (cfiCond67) ?RET_HIGH load(1, XDATA, add(CFA_XSP16, literal(-4)))
          CFI (cfiCond67) ?BRET_EXT load(1, XDATA, add(CFA_XSP16, literal(-3)))
          CFI (cfiCond67) DPL0 load(1, XDATA, add(CFA_XSP16, literal(-2)))
          CFI (cfiCond67) DPH0 load(1, XDATA, add(CFA_XSP16, literal(-1)))
          CFI (cfiCond67) CFA_SP SP+0
          CFI (cfiCond67) CFA_XSP16 add(XSP16, 36)
          CFI Block cfiCond68 Using cfiCommon0
          CFI (cfiCond68) Function MT_AfDataStore
          CFI (cfiCond68) Conditional ??CrossCallReturnLabel_76, ??CrossCallReturnLabel_9
          CFI (cfiCond68) R6 load(1, XDATA, add(CFA_XSP16, literal(-14)))
          CFI (cfiCond68) VB load(1, XDATA, add(CFA_XSP16, literal(-13)))
          CFI (cfiCond68) V0 load(1, XDATA, add(CFA_XSP16, literal(-12)))
          CFI (cfiCond68) V1 load(1, XDATA, add(CFA_XSP16, literal(-11)))
          CFI (cfiCond68) V2 load(1, XDATA, add(CFA_XSP16, literal(-10)))
          CFI (cfiCond68) V3 load(1, XDATA, add(CFA_XSP16, literal(-9)))
          CFI (cfiCond68) V4 load(1, XDATA, add(CFA_XSP16, literal(-8)))
          CFI (cfiCond68) V5 load(1, XDATA, add(CFA_XSP16, literal(-7)))
          CFI (cfiCond68) R7 load(1, XDATA, add(CFA_XSP16, literal(-6)))
          CFI (cfiCond68) ?RET_LOW load(1, XDATA, add(CFA_XSP16, literal(-5)))
          CFI (cfiCond68) ?RET_HIGH load(1, XDATA, add(CFA_XSP16, literal(-4)))
          CFI (cfiCond68) ?BRET_EXT load(1, XDATA, add(CFA_XSP16, literal(-3)))
          CFI (cfiCond68) DPL0 load(1, XDATA, add(CFA_XSP16, literal(-2)))
          CFI (cfiCond68) DPH0 load(1, XDATA, add(CFA_XSP16, literal(-1)))
          CFI (cfiCond68) CFA_SP SP+0
          CFI (cfiCond68) CFA_XSP16 add(XSP16, 24)
          CFI Block cfiCond69 Using cfiCommon0
          CFI (cfiCond69) Function MT_AfExec
          CFI (cfiCond69) Conditional ??CrossCallReturnLabel_81
          CFI (cfiCond69) R6 load(1, XDATA, add(CFA_XSP16, literal(-9)))
          CFI (cfiCond69) VB load(1, XDATA, add(CFA_XSP16, literal(-8)))
          CFI (cfiCond69) V0 load(1, XDATA, add(CFA_XSP16, literal(-7)))
          CFI (cfiCond69) R7 load(1, XDATA, add(CFA_XSP16, literal(-6)))
          CFI (cfiCond69) ?RET_LOW load(1, XDATA, add(CFA_XSP16, literal(-5)))
          CFI (cfiCond69) ?RET_HIGH load(1, XDATA, add(CFA_XSP16, literal(-4)))
          CFI (cfiCond69) ?BRET_EXT load(1, XDATA, add(CFA_XSP16, literal(-3)))
          CFI (cfiCond69) DPL0 load(1, XDATA, add(CFA_XSP16, literal(-2)))
          CFI (cfiCond69) DPH0 load(1, XDATA, add(CFA_XSP16, literal(-1)))
          CFI (cfiCond69) CFA_SP SP+0
          CFI (cfiCond69) CFA_XSP16 add(XSP16, 9)
          CFI Block cfiCond70 Using cfiCommon0
          CFI (cfiCond70) Function MT_AfExec
          CFI (cfiCond70) Conditional ??CrossCallReturnLabel_82, ??CrossCallReturnLabel_7
          CFI (cfiCond70) R6 load(1, XDATA, add(CFA_XSP16, literal(-9)))
          CFI (cfiCond70) VB load(1, XDATA, add(CFA_XSP16, literal(-8)))
          CFI (cfiCond70) V0 load(1, XDATA, add(CFA_XSP16, literal(-7)))
          CFI (cfiCond70) R7 load(1, XDATA, add(CFA_XSP16, literal(-6)))
          CFI (cfiCond70) ?RET_LOW load(1, XDATA, add(CFA_XSP16, literal(-5)))
          CFI (cfiCond70) ?RET_HIGH load(1, XDATA, add(CFA_XSP16, literal(-4)))
          CFI (cfiCond70) ?BRET_EXT load(1, XDATA, add(CFA_XSP16, literal(-3)))
          CFI (cfiCond70) DPL0 load(1, XDATA, add(CFA_XSP16, literal(-2)))
          CFI (cfiCond70) DPH0 load(1, XDATA, add(CFA_XSP16, literal(-1)))
          CFI (cfiCond70) CFA_SP SP+0
          CFI (cfiCond70) CFA_XSP16 add(XSP16, 9)
          CFI Block cfiCond71 Using cfiCommon0
          CFI (cfiCond71) Function MT_AfDataRequest
          CFI (cfiCond71) Conditional ??CrossCallReturnLabel_82, ??CrossCallReturnLabel_6
          CFI (cfiCond71) R6 load(1, XDATA, add(CFA_XSP16, literal(-22)))
          CFI (cfiCond71) VB load(1, XDATA, add(CFA_XSP16, literal(-21)))
          CFI (cfiCond71) V0 load(1, XDATA, add(CFA_XSP16, literal(-20)))
          CFI (cfiCond71) V1 load(1, XDATA, add(CFA_XSP16, literal(-19)))
          CFI (cfiCond71) V2 load(1, XDATA, add(CFA_XSP16, literal(-18)))
          CFI (cfiCond71) V3 load(1, XDATA, add(CFA_XSP16, literal(-17)))
          CFI (cfiCond71) V4 load(1, XDATA, add(CFA_XSP16, literal(-16)))
          CFI (cfiCond71) V5 load(1, XDATA, add(CFA_XSP16, literal(-15)))
          CFI (cfiCond71) V6 load(1, XDATA, add(CFA_XSP16, literal(-14)))
          CFI (cfiCond71) V7 load(1, XDATA, add(CFA_XSP16, literal(-13)))
          CFI (cfiCond71) V8 load(1, XDATA, add(CFA_XSP16, literal(-12)))
          CFI (cfiCond71) V9 load(1, XDATA, add(CFA_XSP16, literal(-11)))
          CFI (cfiCond71) V10 load(1, XDATA, add(CFA_XSP16, literal(-10)))
          CFI (cfiCond71) V11 load(1, XDATA, add(CFA_XSP16, literal(-9)))
          CFI (cfiCond71) V12 load(1, XDATA, add(CFA_XSP16, literal(-8)))
          CFI (cfiCond71) V13 load(1, XDATA, add(CFA_XSP16, literal(-7)))
          CFI (cfiCond71) R7 load(1, XDATA, add(CFA_XSP16, literal(-6)))
          CFI (cfiCond71) ?RET_LOW load(1, XDATA, add(CFA_XSP16, literal(-5)))
          CFI (cfiCond71) ?RET_HIGH load(1, XDATA, add(CFA_XSP16, literal(-4)))
          CFI (cfiCond71) ?BRET_EXT load(1, XDATA, add(CFA_XSP16, literal(-3)))
          CFI (cfiCond71) DPL0 load(1, XDATA, add(CFA_XSP16, literal(-2)))
          CFI (cfiCond71) DPH0 load(1, XDATA, add(CFA_XSP16, literal(-1)))
          CFI (cfiCond71) CFA_SP SP+0
          CFI (cfiCond71) CFA_XSP16 add(XSP16, 36)
          CFI Block cfiPicker72 Using cfiCommon1
          CFI (cfiPicker72) NoFunction
          CFI (cfiPicker72) Picker
        ADDC    A,#0x0
        MOV     DPH,A
        RET
          CFI EndBlock cfiCond51
          CFI EndBlock cfiCond52
          CFI EndBlock cfiCond53
          CFI EndBlock cfiCond54
          CFI EndBlock cfiCond55
          CFI EndBlock cfiCond56
          CFI EndBlock cfiCond57
          CFI EndBlock cfiCond58
          CFI EndBlock cfiCond59
          CFI EndBlock cfiCond60
          CFI EndBlock cfiCond61
          CFI EndBlock cfiCond62
          CFI EndBlock cfiCond63
          CFI EndBlock cfiCond64
          CFI EndBlock cfiCond65
          CFI EndBlock cfiCond66
          CFI EndBlock cfiCond67
          CFI EndBlock cfiCond68
          CFI EndBlock cfiCond69
          CFI EndBlock cfiCond70
          CFI EndBlock cfiCond71
          CFI EndBlock cfiPicker72

        RSEG BANKED_CODE:CODE:NOROOT(0)
?Subroutine4:
          CFI Block cfiCond73 Using cfiCommon0
          CFI Function MT_AfExec
          CFI Conditional ??CrossCallReturnLabel_84
          CFI R6 load(1, XDATA, add(CFA_XSP16, literal(-9)))
          CFI VB load(1, XDATA, add(CFA_XSP16, literal(-8)))
          CFI V0 load(1, XDATA, add(CFA_XSP16, literal(-7)))
          CFI R7 load(1, XDATA, add(CFA_XSP16, literal(-6)))
          CFI ?RET_LOW load(1, XDATA, add(CFA_XSP16, literal(-5)))
          CFI ?RET_HIGH load(1, XDATA, add(CFA_XSP16, literal(-4)))
          CFI ?BRET_EXT load(1, XDATA, add(CFA_XSP16, literal(-3)))
          CFI DPL0 load(1, XDATA, add(CFA_XSP16, literal(-2)))
          CFI DPH0 load(1, XDATA, add(CFA_XSP16, literal(-1)))
          CFI CFA_SP SP+0
          CFI CFA_XSP16 add(XSP16, 9)
          CFI Block cfiCond74 Using cfiCommon0
          CFI (cfiCond74) Function MT_AfExec
          CFI (cfiCond74) Conditional ??CrossCallReturnLabel_85
          CFI (cfiCond74) R6 load(1, XDATA, add(CFA_XSP16, literal(-9)))
          CFI (cfiCond74) VB load(1, XDATA, add(CFA_XSP16, literal(-8)))
          CFI (cfiCond74) V0 load(1, XDATA, add(CFA_XSP16, literal(-7)))
          CFI (cfiCond74) R7 load(1, XDATA, add(CFA_XSP16, literal(-6)))
          CFI (cfiCond74) ?RET_LOW load(1, XDATA, add(CFA_XSP16, literal(-5)))
          CFI (cfiCond74) ?RET_HIGH load(1, XDATA, add(CFA_XSP16, literal(-4)))
          CFI (cfiCond74) ?BRET_EXT load(1, XDATA, add(CFA_XSP16, literal(-3)))
          CFI (cfiCond74) DPL0 load(1, XDATA, add(CFA_XSP16, literal(-2)))
          CFI (cfiCond74) DPH0 load(1, XDATA, add(CFA_XSP16, literal(-1)))
          CFI (cfiCond74) CFA_SP SP+0
          CFI (cfiCond74) CFA_XSP16 add(XSP16, 9)
          CFI Block cfiCond75 Using cfiCommon0
          CFI (cfiCond75) Function MT_AfDataRequest
          CFI (cfiCond75) Conditional ??CrossCallReturnLabel_86
          CFI (cfiCond75) R6 load(1, XDATA, add(CFA_XSP16, literal(-22)))
          CFI (cfiCond75) VB load(1, XDATA, add(CFA_XSP16, literal(-21)))
          CFI (cfiCond75) V0 load(1, XDATA, add(CFA_XSP16, literal(-20)))
          CFI (cfiCond75) V1 load(1, XDATA, add(CFA_XSP16, literal(-19)))
          CFI (cfiCond75) V2 load(1, XDATA, add(CFA_XSP16, literal(-18)))
          CFI (cfiCond75) V3 load(1, XDATA, add(CFA_XSP16, literal(-17)))
          CFI (cfiCond75) V4 load(1, XDATA, add(CFA_XSP16, literal(-16)))
          CFI (cfiCond75) V5 load(1, XDATA, add(CFA_XSP16, literal(-15)))
          CFI (cfiCond75) V6 load(1, XDATA, add(CFA_XSP16, literal(-14)))
          CFI (cfiCond75) V7 load(1, XDATA, add(CFA_XSP16, literal(-13)))
          CFI (cfiCond75) V8 load(1, XDATA, add(CFA_XSP16, literal(-12)))
          CFI (cfiCond75) V9 load(1, XDATA, add(CFA_XSP16, literal(-11)))
          CFI (cfiCond75) V10 load(1, XDATA, add(CFA_XSP16, literal(-10)))
          CFI (cfiCond75) V11 load(1, XDATA, add(CFA_XSP16, literal(-9)))
          CFI (cfiCond75) V12 load(1, XDATA, add(CFA_XSP16, literal(-8)))
          CFI (cfiCond75) V13 load(1, XDATA, add(CFA_XSP16, literal(-7)))
          CFI (cfiCond75) R7 load(1, XDATA, add(CFA_XSP16, literal(-6)))
          CFI (cfiCond75) ?RET_LOW load(1, XDATA, add(CFA_XSP16, literal(-5)))
          CFI (cfiCond75) ?RET_HIGH load(1, XDATA, add(CFA_XSP16, literal(-4)))
          CFI (cfiCond75) ?BRET_EXT load(1, XDATA, add(CFA_XSP16, literal(-3)))
          CFI (cfiCond75) DPL0 load(1, XDATA, add(CFA_XSP16, literal(-2)))
          CFI (cfiCond75) DPH0 load(1, XDATA, add(CFA_XSP16, literal(-1)))
          CFI (cfiCond75) CFA_SP SP+0
          CFI (cfiCond75) CFA_XSP16 add(XSP16, 36)
          CFI Block cfiCond76 Using cfiCommon0
          CFI (cfiCond76) Function MT_AfDataRequest
          CFI (cfiCond76) Conditional ??CrossCallReturnLabel_87
          CFI (cfiCond76) R6 load(1, XDATA, add(CFA_XSP16, literal(-22)))
          CFI (cfiCond76) VB load(1, XDATA, add(CFA_XSP16, literal(-21)))
          CFI (cfiCond76) V0 load(1, XDATA, add(CFA_XSP16, literal(-20)))
          CFI (cfiCond76) V1 load(1, XDATA, add(CFA_XSP16, literal(-19)))
          CFI (cfiCond76) V2 load(1, XDATA, add(CFA_XSP16, literal(-18)))
          CFI (cfiCond76) V3 load(1, XDATA, add(CFA_XSP16, literal(-17)))
          CFI (cfiCond76) V4 load(1, XDATA, add(CFA_XSP16, literal(-16)))
          CFI (cfiCond76) V5 load(1, XDATA, add(CFA_XSP16, literal(-15)))
          CFI (cfiCond76) V6 load(1, XDATA, add(CFA_XSP16, literal(-14)))
          CFI (cfiCond76) V7 load(1, XDATA, add(CFA_XSP16, literal(-13)))
          CFI (cfiCond76) V8 load(1, XDATA, add(CFA_XSP16, literal(-12)))
          CFI (cfiCond76) V9 load(1, XDATA, add(CFA_XSP16, literal(-11)))
          CFI (cfiCond76) V10 load(1, XDATA, add(CFA_XSP16, literal(-10)))
          CFI (cfiCond76) V11 load(1, XDATA, add(CFA_XSP16, literal(-9)))
          CFI (cfiCond76) V12 load(1, XDATA, add(CFA_XSP16, literal(-8)))
          CFI (cfiCond76) V13 load(1, XDATA, add(CFA_XSP16, literal(-7)))
          CFI (cfiCond76) R7 load(1, XDATA, add(CFA_XSP16, literal(-6)))
          CFI (cfiCond76) ?RET_LOW load(1, XDATA, add(CFA_XSP16, literal(-5)))
          CFI (cfiCond76) ?RET_HIGH load(1, XDATA, add(CFA_XSP16, literal(-4)))
          CFI (cfiCond76) ?BRET_EXT load(1, XDATA, add(CFA_XSP16, literal(-3)))
          CFI (cfiCond76) DPL0 load(1, XDATA, add(CFA_XSP16, literal(-2)))
          CFI (cfiCond76) DPH0 load(1, XDATA, add(CFA_XSP16, literal(-1)))
          CFI (cfiCond76) CFA_SP SP+0
          CFI (cfiCond76) CFA_XSP16 add(XSP16, 36)
          CFI Block cfiCond77 Using cfiCommon0
          CFI (cfiCond77) Function MT_AfDataStore
          CFI (cfiCond77) Conditional ??CrossCallReturnLabel_88
          CFI (cfiCond77) R6 load(1, XDATA, add(CFA_XSP16, literal(-14)))
          CFI (cfiCond77) VB load(1, XDATA, add(CFA_XSP16, literal(-13)))
          CFI (cfiCond77) V0 load(1, XDATA, add(CFA_XSP16, literal(-12)))
          CFI (cfiCond77) V1 load(1, XDATA, add(CFA_XSP16, literal(-11)))
          CFI (cfiCond77) V2 load(1, XDATA, add(CFA_XSP16, literal(-10)))
          CFI (cfiCond77) V3 load(1, XDATA, add(CFA_XSP16, literal(-9)))
          CFI (cfiCond77) V4 load(1, XDATA, add(CFA_XSP16, literal(-8)))
          CFI (cfiCond77) V5 load(1, XDATA, add(CFA_XSP16, literal(-7)))
          CFI (cfiCond77) R7 load(1, XDATA, add(CFA_XSP16, literal(-6)))
          CFI (cfiCond77) ?RET_LOW load(1, XDATA, add(CFA_XSP16, literal(-5)))
          CFI (cfiCond77) ?RET_HIGH load(1, XDATA, add(CFA_XSP16, literal(-4)))
          CFI (cfiCond77) ?BRET_EXT load(1, XDATA, add(CFA_XSP16, literal(-3)))
          CFI (cfiCond77) DPL0 load(1, XDATA, add(CFA_XSP16, literal(-2)))
          CFI (cfiCond77) DPH0 load(1, XDATA, add(CFA_XSP16, literal(-1)))
          CFI (cfiCond77) CFA_SP SP+0
          CFI (cfiCond77) CFA_XSP16 add(XSP16, 15)
          CFI Block cfiPicker78 Using cfiCommon1
          CFI (cfiPicker78) NoFunction
          CFI (cfiPicker78) Picker
        MOV     DPTR,#pMtAfDataReq
          CFI EndBlock cfiCond73
          CFI EndBlock cfiCond74
          CFI EndBlock cfiCond75
          CFI EndBlock cfiCond76
          CFI EndBlock cfiCond77
          CFI EndBlock cfiPicker78
        REQUIRE ??Subroutine45_0
        ; // Fall through to label ??Subroutine45_0

        RSEG BANKED_CODE:CODE:NOROOT(0)
??Subroutine45_0:
          CFI Block cfiCond79 Using cfiCommon0
          CFI Function MT_AfExec
          CFI Conditional ??CrossCallReturnLabel_83
          CFI R6 load(1, XDATA, add(CFA_XSP16, literal(-9)))
          CFI VB load(1, XDATA, add(CFA_XSP16, literal(-8)))
          CFI V0 load(1, XDATA, add(CFA_XSP16, literal(-7)))
          CFI R7 load(1, XDATA, add(CFA_XSP16, literal(-6)))
          CFI ?RET_LOW load(1, XDATA, add(CFA_XSP16, literal(-5)))
          CFI ?RET_HIGH load(1, XDATA, add(CFA_XSP16, literal(-4)))
          CFI ?BRET_EXT load(1, XDATA, add(CFA_XSP16, literal(-3)))
          CFI DPL0 load(1, XDATA, add(CFA_XSP16, literal(-2)))
          CFI DPH0 load(1, XDATA, add(CFA_XSP16, literal(-1)))
          CFI CFA_SP SP+0
          CFI CFA_XSP16 add(XSP16, 9)
          CFI Block cfiCond80 Using cfiCommon0
          CFI (cfiCond80) Function MT_AfExec
          CFI (cfiCond80) Conditional ??CrossCallReturnLabel_84
          CFI (cfiCond80) R6 load(1, XDATA, add(CFA_XSP16, literal(-9)))
          CFI (cfiCond80) VB load(1, XDATA, add(CFA_XSP16, literal(-8)))
          CFI (cfiCond80) V0 load(1, XDATA, add(CFA_XSP16, literal(-7)))
          CFI (cfiCond80) R7 load(1, XDATA, add(CFA_XSP16, literal(-6)))
          CFI (cfiCond80) ?RET_LOW load(1, XDATA, add(CFA_XSP16, literal(-5)))
          CFI (cfiCond80) ?RET_HIGH load(1, XDATA, add(CFA_XSP16, literal(-4)))
          CFI (cfiCond80) ?BRET_EXT load(1, XDATA, add(CFA_XSP16, literal(-3)))
          CFI (cfiCond80) DPL0 load(1, XDATA, add(CFA_XSP16, literal(-2)))
          CFI (cfiCond80) DPH0 load(1, XDATA, add(CFA_XSP16, literal(-1)))
          CFI (cfiCond80) CFA_SP SP+0
          CFI (cfiCond80) CFA_XSP16 add(XSP16, 9)
          CFI Block cfiCond81 Using cfiCommon0
          CFI (cfiCond81) Function MT_AfExec
          CFI (cfiCond81) Conditional ??CrossCallReturnLabel_85
          CFI (cfiCond81) R6 load(1, XDATA, add(CFA_XSP16, literal(-9)))
          CFI (cfiCond81) VB load(1, XDATA, add(CFA_XSP16, literal(-8)))
          CFI (cfiCond81) V0 load(1, XDATA, add(CFA_XSP16, literal(-7)))
          CFI (cfiCond81) R7 load(1, XDATA, add(CFA_XSP16, literal(-6)))
          CFI (cfiCond81) ?RET_LOW load(1, XDATA, add(CFA_XSP16, literal(-5)))
          CFI (cfiCond81) ?RET_HIGH load(1, XDATA, add(CFA_XSP16, literal(-4)))
          CFI (cfiCond81) ?BRET_EXT load(1, XDATA, add(CFA_XSP16, literal(-3)))
          CFI (cfiCond81) DPL0 load(1, XDATA, add(CFA_XSP16, literal(-2)))
          CFI (cfiCond81) DPH0 load(1, XDATA, add(CFA_XSP16, literal(-1)))
          CFI (cfiCond81) CFA_SP SP+0
          CFI (cfiCond81) CFA_XSP16 add(XSP16, 9)
          CFI Block cfiCond82 Using cfiCommon0
          CFI (cfiCond82) Function MT_AfDataRequest
          CFI (cfiCond82) Conditional ??CrossCallReturnLabel_86
          CFI (cfiCond82) R6 load(1, XDATA, add(CFA_XSP16, literal(-22)))
          CFI (cfiCond82) VB load(1, XDATA, add(CFA_XSP16, literal(-21)))
          CFI (cfiCond82) V0 load(1, XDATA, add(CFA_XSP16, literal(-20)))
          CFI (cfiCond82) V1 load(1, XDATA, add(CFA_XSP16, literal(-19)))
          CFI (cfiCond82) V2 load(1, XDATA, add(CFA_XSP16, literal(-18)))
          CFI (cfiCond82) V3 load(1, XDATA, add(CFA_XSP16, literal(-17)))
          CFI (cfiCond82) V4 load(1, XDATA, add(CFA_XSP16, literal(-16)))
          CFI (cfiCond82) V5 load(1, XDATA, add(CFA_XSP16, literal(-15)))
          CFI (cfiCond82) V6 load(1, XDATA, add(CFA_XSP16, literal(-14)))
          CFI (cfiCond82) V7 load(1, XDATA, add(CFA_XSP16, literal(-13)))
          CFI (cfiCond82) V8 load(1, XDATA, add(CFA_XSP16, literal(-12)))
          CFI (cfiCond82) V9 load(1, XDATA, add(CFA_XSP16, literal(-11)))
          CFI (cfiCond82) V10 load(1, XDATA, add(CFA_XSP16, literal(-10)))
          CFI (cfiCond82) V11 load(1, XDATA, add(CFA_XSP16, literal(-9)))
          CFI (cfiCond82) V12 load(1, XDATA, add(CFA_XSP16, literal(-8)))
          CFI (cfiCond82) V13 load(1, XDATA, add(CFA_XSP16, literal(-7)))
          CFI (cfiCond82) R7 load(1, XDATA, add(CFA_XSP16, literal(-6)))
          CFI (cfiCond82) ?RET_LOW load(1, XDATA, add(CFA_XSP16, literal(-5)))
          CFI (cfiCond82) ?RET_HIGH load(1, XDATA, add(CFA_XSP16, literal(-4)))
          CFI (cfiCond82) ?BRET_EXT load(1, XDATA, add(CFA_XSP16, literal(-3)))
          CFI (cfiCond82) DPL0 load(1, XDATA, add(CFA_XSP16, literal(-2)))
          CFI (cfiCond82) DPH0 load(1, XDATA, add(CFA_XSP16, literal(-1)))
          CFI (cfiCond82) CFA_SP SP+0
          CFI (cfiCond82) CFA_XSP16 add(XSP16, 36)
          CFI Block cfiCond83 Using cfiCommon0
          CFI (cfiCond83) Function MT_AfDataRequest
          CFI (cfiCond83) Conditional ??CrossCallReturnLabel_87
          CFI (cfiCond83) R6 load(1, XDATA, add(CFA_XSP16, literal(-22)))
          CFI (cfiCond83) VB load(1, XDATA, add(CFA_XSP16, literal(-21)))
          CFI (cfiCond83) V0 load(1, XDATA, add(CFA_XSP16, literal(-20)))
          CFI (cfiCond83) V1 load(1, XDATA, add(CFA_XSP16, literal(-19)))
          CFI (cfiCond83) V2 load(1, XDATA, add(CFA_XSP16, literal(-18)))
          CFI (cfiCond83) V3 load(1, XDATA, add(CFA_XSP16, literal(-17)))
          CFI (cfiCond83) V4 load(1, XDATA, add(CFA_XSP16, literal(-16)))
          CFI (cfiCond83) V5 load(1, XDATA, add(CFA_XSP16, literal(-15)))
          CFI (cfiCond83) V6 load(1, XDATA, add(CFA_XSP16, literal(-14)))
          CFI (cfiCond83) V7 load(1, XDATA, add(CFA_XSP16, literal(-13)))
          CFI (cfiCond83) V8 load(1, XDATA, add(CFA_XSP16, literal(-12)))
          CFI (cfiCond83) V9 load(1, XDATA, add(CFA_XSP16, literal(-11)))
          CFI (cfiCond83) V10 load(1, XDATA, add(CFA_XSP16, literal(-10)))
          CFI (cfiCond83) V11 load(1, XDATA, add(CFA_XSP16, literal(-9)))
          CFI (cfiCond83) V12 load(1, XDATA, add(CFA_XSP16, literal(-8)))
          CFI (cfiCond83) V13 load(1, XDATA, add(CFA_XSP16, literal(-7)))
          CFI (cfiCond83) R7 load(1, XDATA, add(CFA_XSP16, literal(-6)))
          CFI (cfiCond83) ?RET_LOW load(1, XDATA, add(CFA_XSP16, literal(-5)))
          CFI (cfiCond83) ?RET_HIGH load(1, XDATA, add(CFA_XSP16, literal(-4)))
          CFI (cfiCond83) ?BRET_EXT load(1, XDATA, add(CFA_XSP16, literal(-3)))
          CFI (cfiCond83) DPL0 load(1, XDATA, add(CFA_XSP16, literal(-2)))
          CFI (cfiCond83) DPH0 load(1, XDATA, add(CFA_XSP16, literal(-1)))
          CFI (cfiCond83) CFA_SP SP+0
          CFI (cfiCond83) CFA_XSP16 add(XSP16, 36)
          CFI Block cfiCond84 Using cfiCommon0
          CFI (cfiCond84) Function MT_AfDataStore
          CFI (cfiCond84) Conditional ??CrossCallReturnLabel_88
          CFI (cfiCond84) R6 load(1, XDATA, add(CFA_XSP16, literal(-14)))
          CFI (cfiCond84) VB load(1, XDATA, add(CFA_XSP16, literal(-13)))
          CFI (cfiCond84) V0 load(1, XDATA, add(CFA_XSP16, literal(-12)))
          CFI (cfiCond84) V1 load(1, XDATA, add(CFA_XSP16, literal(-11)))
          CFI (cfiCond84) V2 load(1, XDATA, add(CFA_XSP16, literal(-10)))
          CFI (cfiCond84) V3 load(1, XDATA, add(CFA_XSP16, literal(-9)))
          CFI (cfiCond84) V4 load(1, XDATA, add(CFA_XSP16, literal(-8)))
          CFI (cfiCond84) V5 load(1, XDATA, add(CFA_XSP16, literal(-7)))
          CFI (cfiCond84) R7 load(1, XDATA, add(CFA_XSP16, literal(-6)))
          CFI (cfiCond84) ?RET_LOW load(1, XDATA, add(CFA_XSP16, literal(-5)))
          CFI (cfiCond84) ?RET_HIGH load(1, XDATA, add(CFA_XSP16, literal(-4)))
          CFI (cfiCond84) ?BRET_EXT load(1, XDATA, add(CFA_XSP16, literal(-3)))
          CFI (cfiCond84) DPL0 load(1, XDATA, add(CFA_XSP16, literal(-2)))
          CFI (cfiCond84) DPH0 load(1, XDATA, add(CFA_XSP16, literal(-1)))
          CFI (cfiCond84) CFA_SP SP+0
          CFI (cfiCond84) CFA_XSP16 add(XSP16, 15)
          CFI Block cfiPicker85 Using cfiCommon1
          CFI (cfiPicker85) NoFunction
          CFI (cfiPicker85) Picker
        LCALL   ??Subroutine51_0 & 0xFFFF
??CrossCallReturnLabel_117:
        MOV     A,R0
        ORL     A,R1
        RET
          CFI EndBlock cfiCond79
          CFI EndBlock cfiCond80
          CFI EndBlock cfiCond81
          CFI EndBlock cfiCond82
          CFI EndBlock cfiCond83
          CFI EndBlock cfiCond84
          CFI EndBlock cfiPicker85
//  423 
//  424 #if defined ( ZIGBEE_SOURCE_ROUTING )
//  425 
//  426 /***************************************************************************************************
//  427  * @fn      MT_AfDataRequestSrcRtg
//  428  *
//  429  * @brief   Process AF Register command
//  430  *
//  431  * @param   pBuf - pointer to the received buffer
//  432  *
//  433  * @return  none
//  434  ***************************************************************************************************/

        RSEG BANKED_CODE:CODE:NOROOT(0)
//  435 void MT_AfDataRequestSrcRtg(uint8 *pBuf)
MT_AfDataRequestSrcRtg:
          CFI Block cfiBlock86 Using cfiCommon0
          CFI Function MT_AfDataRequestSrcRtg
        CODE
//  436 {
        FUNCALL MT_AfDataRequestSrcRtg, osal_memset
        LOCFRAME ISTACK, 0, STACK
        LOCFRAME PSTACK, 0, STACK
        LOCFRAME XSTACK, 36, STACK
        LOCFRAME IOVERLAY, 0, STATIC
        LOCFRAME DOVERLAY, 0, STATIC
        ARGFRAME ISTACK, 0, STACK
        ARGFRAME PSTACK, 0, STACK
        ARGFRAME XSTACK, 36, STACK
        ARGFRAME IOVERLAY, 0, STATIC
        ARGFRAME DOVERLAY, 0, STATIC
        FUNCALL MT_AfDataRequestSrcRtg, afFindEndPointDesc
        LOCFRAME ISTACK, 0, STACK
        LOCFRAME PSTACK, 0, STACK
        LOCFRAME XSTACK, 36, STACK
        LOCFRAME IOVERLAY, 0, STATIC
        LOCFRAME DOVERLAY, 0, STATIC
        ARGFRAME ISTACK, 0, STACK
        ARGFRAME PSTACK, 0, STACK
        ARGFRAME XSTACK, 36, STACK
        ARGFRAME IOVERLAY, 0, STATIC
        ARGFRAME DOVERLAY, 0, STATIC
        FUNCALL MT_AfDataRequestSrcRtg, osal_mem_alloc
        LOCFRAME ISTACK, 0, STACK
        LOCFRAME PSTACK, 0, STACK
        LOCFRAME XSTACK, 36, STACK
        LOCFRAME IOVERLAY, 0, STATIC
        LOCFRAME DOVERLAY, 0, STATIC
        ARGFRAME ISTACK, 0, STACK
        ARGFRAME PSTACK, 0, STACK
        ARGFRAME XSTACK, 36, STACK
        ARGFRAME IOVERLAY, 0, STATIC
        ARGFRAME DOVERLAY, 0, STATIC
        FUNCALL MT_AfDataRequestSrcRtg, AF_DataRequestSrcRtg
        LOCFRAME ISTACK, 0, STACK
        LOCFRAME PSTACK, 0, STACK
        LOCFRAME XSTACK, 48, STACK
        LOCFRAME IOVERLAY, 0, STATIC
        LOCFRAME DOVERLAY, 0, STATIC
        ARGFRAME ISTACK, 0, STACK
        ARGFRAME PSTACK, 0, STACK
        ARGFRAME XSTACK, 48, STACK
        ARGFRAME IOVERLAY, 0, STATIC
        ARGFRAME DOVERLAY, 0, STATIC
        FUNCALL MT_AfDataRequestSrcRtg, osal_mem_free
        LOCFRAME ISTACK, 0, STACK
        LOCFRAME PSTACK, 0, STACK
        LOCFRAME XSTACK, 36, STACK
        LOCFRAME IOVERLAY, 0, STATIC
        LOCFRAME DOVERLAY, 0, STATIC
        ARGFRAME ISTACK, 0, STACK
        ARGFRAME PSTACK, 0, STACK
        ARGFRAME XSTACK, 36, STACK
        ARGFRAME IOVERLAY, 0, STATIC
        ARGFRAME DOVERLAY, 0, STATIC
        FUNCALL MT_AfDataRequestSrcRtg, MT_BuildAndSendZToolResponse
        LOCFRAME ISTACK, 0, STACK
        LOCFRAME PSTACK, 0, STACK
        LOCFRAME XSTACK, 36, STACK
        LOCFRAME IOVERLAY, 0, STATIC
        LOCFRAME DOVERLAY, 0, STATIC
        ARGFRAME ISTACK, 0, STACK
        ARGFRAME PSTACK, 0, STACK
        ARGFRAME XSTACK, 36, STACK
        ARGFRAME IOVERLAY, 0, STATIC
        ARGFRAME DOVERLAY, 0, STATIC
        MOV     A,#-0x16
        LCALL   ?BANKED_ENTER_XDATA
          CFI DPH0 load(1, XDATA, add(CFA_XSP16, literal(-1)))
          CFI DPL0 load(1, XDATA, add(CFA_XSP16, literal(-2)))
          CFI ?BRET_EXT load(1, XDATA, add(CFA_XSP16, literal(-3)))
          CFI ?RET_HIGH load(1, XDATA, add(CFA_XSP16, literal(-4)))
          CFI ?RET_LOW load(1, XDATA, add(CFA_XSP16, literal(-5)))
          CFI R7 load(1, XDATA, add(CFA_XSP16, literal(-6)))
          CFI V13 load(1, XDATA, add(CFA_XSP16, literal(-7)))
          CFI V12 load(1, XDATA, add(CFA_XSP16, literal(-8)))
          CFI V11 load(1, XDATA, add(CFA_XSP16, literal(-9)))
          CFI V10 load(1, XDATA, add(CFA_XSP16, literal(-10)))
          CFI V9 load(1, XDATA, add(CFA_XSP16, literal(-11)))
          CFI V8 load(1, XDATA, add(CFA_XSP16, literal(-12)))
          CFI V7 load(1, XDATA, add(CFA_XSP16, literal(-13)))
          CFI V6 load(1, XDATA, add(CFA_XSP16, literal(-14)))
          CFI V5 load(1, XDATA, add(CFA_XSP16, literal(-15)))
          CFI V4 load(1, XDATA, add(CFA_XSP16, literal(-16)))
          CFI V3 load(1, XDATA, add(CFA_XSP16, literal(-17)))
          CFI V2 load(1, XDATA, add(CFA_XSP16, literal(-18)))
          CFI V1 load(1, XDATA, add(CFA_XSP16, literal(-19)))
          CFI V0 load(1, XDATA, add(CFA_XSP16, literal(-20)))
          CFI VB load(1, XDATA, add(CFA_XSP16, literal(-21)))
          CFI R6 load(1, XDATA, add(CFA_XSP16, literal(-22)))
          CFI CFA_SP SP+0
          CFI CFA_XSP16 add(XSP16, 22)
        ; Saved register size: 22
        ; Auto size: 14
        MOV     A,#-0xe
        LCALL   ?ALLOC_XSTACK8
          CFI CFA_XSP16 add(XSP16, 36)
        MOV     A,R2
        MOV     R6,A
        MOV     A,R3
        MOV     R7,A
//  437   uint8 cmdId, dataLen = 0;
//  438   uint8 retValue = ZFailure;
        MOV     DPL,?XSP + 0
        MOV     DPH,?XSP + 1
        MOV     A,#0x1
        LCALL   ?Subroutine29 & 0xFFFF
//  439   endPointDesc_t *epDesc;
//  440   byte transId;
//  441   afAddrType_t dstAddr;
//  442   cId_t cId;
//  443   byte txOpts, radius, srcEP, relayCnt;
//  444   uint16 *pRelayList;
//  445   uint8 i;
//  446 
//  447   /* parse header */
//  448   cmdId = pBuf[MT_RPC_POS_CMD1];
??CrossCallReturnLabel_46:
        INC     DPTR
        MOVX    A,@DPTR
        MOV     ?V0 + 4,A
//  449   pBuf += MT_RPC_FRAME_HDR_SZ;
        MOV     A,R6
        ADD     A,#0x3
        MOV     R6,A
        MOV     A,R7
        ADDC    A,#0x0
        MOV     R7,A
//  450 
//  451   /* Destination address */
//  452   /* Initialize the panID field to zero to avoid inter-pan */
//  453   osal_memset( &dstAddr, 0, sizeof(afAddrType_t) );
        ; Setup parameters for call to function osal_memset
        MOV     R4,#0xc
        MOV     R5,#0x0
        MOV     R1,#0x0
        MOV     A,#0x2
        LCALL   ?XSTACK_DISP0_8
        MOV     R2,DPL
        MOV     R3,DPH
        LCALL   ??osal_memset?relay
//  454   dstAddr.addrMode = afAddr16Bit;
        MOV     A,#0xa
        LCALL   ?XSTACK_DISP0_8
        MOV     A,#0x2
        MOVX    @DPTR,A
//  455   dstAddr.addr.shortAddr = BUILD_UINT16(pBuf[0], pBuf[1]);
        MOV     DPL,R6
        MOV     DPH,R7
        LCALL   ?Subroutine15 & 0xFFFF
??CrossCallReturnLabel_94:
        LCALL   ?XSTACK_DISP0_8
        LCALL   ?Subroutine25 & 0xFFFF
//  456   pBuf += 2;
??CrossCallReturnLabel_35:
        LCALL   ?Subroutine21 & 0xFFFF
//  457 
//  458   /* Destination endpoint */
//  459   dstAddr.endPoint = *pBuf++;
??CrossCallReturnLabel_89:
        PUSH    A
          CFI CFA_SP SP+-1
        MOV     A,#0xb
        LCALL   ?XSTACK_DISP0_8
        POP     A
          CFI CFA_SP SP+0
        LCALL   ?Subroutine29 & 0xFFFF
//  460 
//  461   /* Source endpoint */
//  462   srcEP = *pBuf++;
??CrossCallReturnLabel_47:
        MOVX    A,@DPTR
        MOV     R1,A
        INC     DPTR
        MOV     R6,DPL
        MOV     R7,DPH
//  463   epDesc = afFindEndPointDesc( srcEP );
        ; Setup parameters for call to function afFindEndPointDesc
        LCALL   ??afFindEndPointDesc?relay
        MOV     ?V0 + 2,R2
        MOV     ?V0 + 3,R3
//  464 
//  465   /* ClusterId */
//  466   cId = BUILD_UINT16(pBuf[0], pBuf[1]);
        LCALL   ?Subroutine12 & 0xFFFF
??CrossCallReturnLabel_96:
        MOV     ?V0 + 6,A
        CLR     A
        ADDC    A,R1
        MOV     ?V0 + 7,A
//  467   pBuf +=2;
        LCALL   ?Subroutine21 & 0xFFFF
//  468 
//  469   /* TransId */
//  470   transId = *pBuf++;
??CrossCallReturnLabel_90:
        PUSH    A
          CFI CFA_SP SP+-1
        MOV     A,#0x1
        LCALL   ?XSTACK_DISP0_8
        POP     A
          CFI CFA_SP SP+0
        LCALL   ?Subroutine29 & 0xFFFF
//  471 
//  472   /* TxOption */
//  473   txOpts = *pBuf++;
??CrossCallReturnLabel_48:
        MOVX    A,@DPTR
        MOV     ?V0 + 5,A
        INC     DPTR
//  474 
//  475   /* Radius */
//  476   radius = *pBuf++;
        MOVX    A,@DPTR
        MOV     ?V0 + 10,A
        INC     DPTR
//  477 
//  478   /* Source route relay count */
//  479   relayCnt = *pBuf++;
        MOVX    A,@DPTR
        MOV     ?V0 + 11,A
        INC     DPTR
        MOV     R6,DPL
        MOV     R7,DPH
//  480 
//  481   /* Convert the source route relay list */
//  482   if( (pRelayList = osal_mem_alloc( relayCnt * sizeof( uint16 ))) != NULL )
        ; Setup parameters for call to function osal_mem_alloc
        CLR     C
        RLC     A
        MOV     R2,A
        CLR     A
        RLC     A
        MOV     R3,A
        LCALL   ??osal_mem_alloc?relay
        MOV     ?V0 + 0,R2
        MOV     ?V0 + 1,R3
        MOV     A,R2
        ORL     A,?V0 + 1
        JNZ     $+5
        LJMP    ??MT_AfDataRequestSrcRtg_0 & 0xFFFF
//  483   {
//  484     for( i = 0; i < relayCnt; i++ )
        MOV     R4,#0x0
        SJMP    ??MT_AfDataRequestSrcRtg_1
//  485     {
//  486       pRelayList[i]  = BUILD_UINT16( pBuf[0], pBuf[1] );
??MT_AfDataRequestSrcRtg_2:
        MOV     R2,A
        MOV     DPL,R0
        MOV     DPH,R1
        MOVX    A,@DPTR
        MOV     R1,A
        MOV     A,R2
        ADD     A,#0x0
        CLR     A
        ADDC    A,R1
        MOV     R3,A
        MOV     A,R4
        RLC     A
        MOV     R0,A
        CLR     A
        RLC     A
        MOV     R1,A
        MOV     A,?V0 + 0
        ADD     A,R0
        MOV     DPL,A
        MOV     A,?V0 + 1
        ADDC    A,R1
        MOV     DPH,A
        MOV     A,R2
        MOVX    @DPTR,A
        INC     DPTR
        MOV     A,R3
        MOVX    @DPTR,A
//  487       pBuf += 2;
        MOV     A,R6
        ADD     A,#0x2
        MOV     R6,A
        MOV     A,R7
        ADDC    A,#0x0
        MOV     R7,A
//  488     }
        INC     R4
??MT_AfDataRequestSrcRtg_1:
        MOV     DPL,R6
        MOV     DPH,R7
        INC     DPTR
        MOV     R0,DPL
        MOV     R1,DPH
        MOV     A,R4
        CLR     C
        SUBB    A,?V0 + 11
        MOV     DPL,R6
        MOV     DPH,R7
        MOVX    A,@DPTR
        JC      ??MT_AfDataRequestSrcRtg_2
//  489 
//  490     /* Data payload Length */
//  491     dataLen = *pBuf++;
        MOV     ?V0 + 12,A
        MOV     A,R0
        MOV     R6,A
        MOV     A,R1
        MOV     R7,A
//  492 
//  493     if ( epDesc == NULL )
        MOV     A,?V0 + 2
        ORL     A,?V0 + 3
        JNZ     ??MT_AfDataRequestSrcRtg_3
//  494     {
//  495       retValue = afStatus_INVALID_PARAMETER;
        MOV     DPL,?XSP + 0
        MOV     DPH,?XSP + 1
        MOV     A,#0x2
        SJMP    ??MT_AfDataRequestSrcRtg_4
//  496     }
//  497     else
//  498     {
//  499       retValue = AF_DataRequestSrcRtg( &dstAddr, epDesc, cId, dataLen, pBuf,
//  500                                      &transId, txOpts, radius, relayCnt, pRelayList );
??MT_AfDataRequestSrcRtg_3:
        ; Setup parameters for call to function AF_DataRequestSrcRtg
        MOV     R0,#?V0 + 0
        LCALL   ?PUSH_XSTACK_I_TWO
          CFI CFA_XSP16 add(XSP16, 38)
        MOV     A,?V0 + 11
        MOV     ?V0 + 8,A
        MOV     R0,#?V0 + 8
        LCALL   ?PUSH_XSTACK_I_ONE
          CFI CFA_XSP16 add(XSP16, 39)
        MOV     A,?V0 + 10
        MOV     ?V0 + 8,A
        MOV     R0,#?V0 + 8
        LCALL   ?PUSH_XSTACK_I_ONE
          CFI CFA_XSP16 add(XSP16, 40)
        MOV     A,#0x5
        LCALL   ?XSTACK_DISP0_8
        MOV     ?V0 + 8,DPL
        MOV     ?V0 + 9,DPH
        MOV     R0,#?V0 + 8
        LCALL   ?PUSH_XSTACK_I_TWO
          CFI CFA_XSP16 add(XSP16, 42)
        MOV     ?V0 + 8,R6
        MOV     ?V0 + 9,R7
        MOV     R0,#?V0 + 8
        LCALL   ?PUSH_XSTACK_I_TWO
          CFI CFA_XSP16 add(XSP16, 44)
        MOV     ?V0 + 13,#0x0
        MOV     R0,#?V0 + 12
        LCALL   ?PUSH_XSTACK_I_TWO
          CFI CFA_XSP16 add(XSP16, 46)
        MOV     R0,#?V0 + 6
        LCALL   ?PUSH_XSTACK_I_TWO
          CFI CFA_XSP16 add(XSP16, 48)
        MOV     R1,?V0 + 5
        MOV     R4,?V0 + 2
        MOV     R5,?V0 + 3
        MOV     A,#0xe
        LCALL   ?XSTACK_DISP0_8
        MOV     R2,DPL
        MOV     R3,DPH
        LCALL   ??AF_DataRequestSrcRtg?relay
        MOV     A,#0xc
        LCALL   ?DEALLOC_XSTACK8
          CFI CFA_XSP16 add(XSP16, 36)
        MOV     A,R1
        MOV     DPL,?XSP + 0
        MOV     DPH,?XSP + 1
??MT_AfDataRequestSrcRtg_4:
        MOVX    @DPTR,A
//  501     }
//  502 
//  503     /* Free the memory allocated */
//  504     osal_mem_free( pRelayList );
        ; Setup parameters for call to function osal_mem_free
        MOV     R2,?V0 + 0
        MOV     R3,?V0 + 1
        LCALL   ??osal_mem_free?relay
        SJMP    ??MT_AfDataRequestSrcRtg_5
//  505   }
//  506   else
//  507   {
//  508     retValue = afStatus_MEM_FAIL;
??MT_AfDataRequestSrcRtg_0:
        MOV     DPL,?XSP + 0
        MOV     DPH,?XSP + 1
        MOV     A,#0x10
        MOVX    @DPTR,A
//  509   }
//  510 
//  511 
//  512   /* Build and send back the response */
//  513   MT_BuildAndSendZToolResponse(((uint8)MT_RPC_CMD_SRSP | (uint8)MT_RPC_SYS_AF), cmdId, 1, &retValue);
??MT_AfDataRequestSrcRtg_5:
        ; Setup parameters for call to function MT_BuildAndSendZToolResponse
        MOV     DPL,?XSP + 0
        MOV     DPH,?XSP + 1
        MOV     R4,DPL
        MOV     R5,DPH
        MOV     R3,#0x1
        MOV     R2,?V0 + 4
        MOV     R1,#0x64
        LCALL   ??MT_BuildAndSendZToolResponse?relay
//  514 }
        LJMP    ?Subroutine2 & 0xFFFF
          CFI EndBlock cfiBlock86

        RSEG BANKED_CODE:CODE:NOROOT(0)
?Subroutine29:
          CFI Block cfiCond87 Using cfiCommon0
          CFI Function MT_AfDataRequestSrcRtg
          CFI Conditional ??CrossCallReturnLabel_46
          CFI R6 load(1, XDATA, add(CFA_XSP16, literal(-22)))
          CFI VB load(1, XDATA, add(CFA_XSP16, literal(-21)))
          CFI V0 load(1, XDATA, add(CFA_XSP16, literal(-20)))
          CFI V1 load(1, XDATA, add(CFA_XSP16, literal(-19)))
          CFI V2 load(1, XDATA, add(CFA_XSP16, literal(-18)))
          CFI V3 load(1, XDATA, add(CFA_XSP16, literal(-17)))
          CFI V4 load(1, XDATA, add(CFA_XSP16, literal(-16)))
          CFI V5 load(1, XDATA, add(CFA_XSP16, literal(-15)))
          CFI V6 load(1, XDATA, add(CFA_XSP16, literal(-14)))
          CFI V7 load(1, XDATA, add(CFA_XSP16, literal(-13)))
          CFI V8 load(1, XDATA, add(CFA_XSP16, literal(-12)))
          CFI V9 load(1, XDATA, add(CFA_XSP16, literal(-11)))
          CFI V10 load(1, XDATA, add(CFA_XSP16, literal(-10)))
          CFI V11 load(1, XDATA, add(CFA_XSP16, literal(-9)))
          CFI V12 load(1, XDATA, add(CFA_XSP16, literal(-8)))
          CFI V13 load(1, XDATA, add(CFA_XSP16, literal(-7)))
          CFI R7 load(1, XDATA, add(CFA_XSP16, literal(-6)))
          CFI ?RET_LOW load(1, XDATA, add(CFA_XSP16, literal(-5)))
          CFI ?RET_HIGH load(1, XDATA, add(CFA_XSP16, literal(-4)))
          CFI ?BRET_EXT load(1, XDATA, add(CFA_XSP16, literal(-3)))
          CFI DPL0 load(1, XDATA, add(CFA_XSP16, literal(-2)))
          CFI DPH0 load(1, XDATA, add(CFA_XSP16, literal(-1)))
          CFI CFA_SP SP+0
          CFI CFA_XSP16 add(XSP16, 36)
          CFI Block cfiCond88 Using cfiCommon0
          CFI (cfiCond88) Function MT_AfDataRequestSrcRtg
          CFI (cfiCond88) Conditional ??CrossCallReturnLabel_47
          CFI (cfiCond88) R6 load(1, XDATA, add(CFA_XSP16, literal(-22)))
          CFI (cfiCond88) VB load(1, XDATA, add(CFA_XSP16, literal(-21)))
          CFI (cfiCond88) V0 load(1, XDATA, add(CFA_XSP16, literal(-20)))
          CFI (cfiCond88) V1 load(1, XDATA, add(CFA_XSP16, literal(-19)))
          CFI (cfiCond88) V2 load(1, XDATA, add(CFA_XSP16, literal(-18)))
          CFI (cfiCond88) V3 load(1, XDATA, add(CFA_XSP16, literal(-17)))
          CFI (cfiCond88) V4 load(1, XDATA, add(CFA_XSP16, literal(-16)))
          CFI (cfiCond88) V5 load(1, XDATA, add(CFA_XSP16, literal(-15)))
          CFI (cfiCond88) V6 load(1, XDATA, add(CFA_XSP16, literal(-14)))
          CFI (cfiCond88) V7 load(1, XDATA, add(CFA_XSP16, literal(-13)))
          CFI (cfiCond88) V8 load(1, XDATA, add(CFA_XSP16, literal(-12)))
          CFI (cfiCond88) V9 load(1, XDATA, add(CFA_XSP16, literal(-11)))
          CFI (cfiCond88) V10 load(1, XDATA, add(CFA_XSP16, literal(-10)))
          CFI (cfiCond88) V11 load(1, XDATA, add(CFA_XSP16, literal(-9)))
          CFI (cfiCond88) V12 load(1, XDATA, add(CFA_XSP16, literal(-8)))
          CFI (cfiCond88) V13 load(1, XDATA, add(CFA_XSP16, literal(-7)))
          CFI (cfiCond88) R7 load(1, XDATA, add(CFA_XSP16, literal(-6)))
          CFI (cfiCond88) ?RET_LOW load(1, XDATA, add(CFA_XSP16, literal(-5)))
          CFI (cfiCond88) ?RET_HIGH load(1, XDATA, add(CFA_XSP16, literal(-4)))
          CFI (cfiCond88) ?BRET_EXT load(1, XDATA, add(CFA_XSP16, literal(-3)))
          CFI (cfiCond88) DPL0 load(1, XDATA, add(CFA_XSP16, literal(-2)))
          CFI (cfiCond88) DPH0 load(1, XDATA, add(CFA_XSP16, literal(-1)))
          CFI (cfiCond88) CFA_SP SP+0
          CFI (cfiCond88) CFA_XSP16 add(XSP16, 36)
          CFI Block cfiCond89 Using cfiCommon0
          CFI (cfiCond89) Function MT_AfDataRequestSrcRtg
          CFI (cfiCond89) Conditional ??CrossCallReturnLabel_48
          CFI (cfiCond89) R6 load(1, XDATA, add(CFA_XSP16, literal(-22)))
          CFI (cfiCond89) VB load(1, XDATA, add(CFA_XSP16, literal(-21)))
          CFI (cfiCond89) V0 load(1, XDATA, add(CFA_XSP16, literal(-20)))
          CFI (cfiCond89) V1 load(1, XDATA, add(CFA_XSP16, literal(-19)))
          CFI (cfiCond89) V2 load(1, XDATA, add(CFA_XSP16, literal(-18)))
          CFI (cfiCond89) V3 load(1, XDATA, add(CFA_XSP16, literal(-17)))
          CFI (cfiCond89) V4 load(1, XDATA, add(CFA_XSP16, literal(-16)))
          CFI (cfiCond89) V5 load(1, XDATA, add(CFA_XSP16, literal(-15)))
          CFI (cfiCond89) V6 load(1, XDATA, add(CFA_XSP16, literal(-14)))
          CFI (cfiCond89) V7 load(1, XDATA, add(CFA_XSP16, literal(-13)))
          CFI (cfiCond89) V8 load(1, XDATA, add(CFA_XSP16, literal(-12)))
          CFI (cfiCond89) V9 load(1, XDATA, add(CFA_XSP16, literal(-11)))
          CFI (cfiCond89) V10 load(1, XDATA, add(CFA_XSP16, literal(-10)))
          CFI (cfiCond89) V11 load(1, XDATA, add(CFA_XSP16, literal(-9)))
          CFI (cfiCond89) V12 load(1, XDATA, add(CFA_XSP16, literal(-8)))
          CFI (cfiCond89) V13 load(1, XDATA, add(CFA_XSP16, literal(-7)))
          CFI (cfiCond89) R7 load(1, XDATA, add(CFA_XSP16, literal(-6)))
          CFI (cfiCond89) ?RET_LOW load(1, XDATA, add(CFA_XSP16, literal(-5)))
          CFI (cfiCond89) ?RET_HIGH load(1, XDATA, add(CFA_XSP16, literal(-4)))
          CFI (cfiCond89) ?BRET_EXT load(1, XDATA, add(CFA_XSP16, literal(-3)))
          CFI (cfiCond89) DPL0 load(1, XDATA, add(CFA_XSP16, literal(-2)))
          CFI (cfiCond89) DPH0 load(1, XDATA, add(CFA_XSP16, literal(-1)))
          CFI (cfiCond89) CFA_SP SP+0
          CFI (cfiCond89) CFA_XSP16 add(XSP16, 36)
          CFI Block cfiPicker90 Using cfiCommon1
          CFI (cfiPicker90) NoFunction
          CFI (cfiPicker90) Picker
        MOVX    @DPTR,A
        MOV     DPL,R6
        MOV     DPH,R7
        INC     DPTR
        RET
          CFI EndBlock cfiCond87
          CFI EndBlock cfiCond88
          CFI EndBlock cfiCond89
          CFI EndBlock cfiPicker90

        RSEG BANKED_CODE:CODE:NOROOT(0)
?Subroutine25:
          CFI Block cfiCond91 Using cfiCommon0
          CFI Function MT_AfExec
          CFI Conditional ??CrossCallReturnLabel_30
          CFI R6 load(1, XDATA, add(CFA_XSP16, literal(-9)))
          CFI VB load(1, XDATA, add(CFA_XSP16, literal(-8)))
          CFI V0 load(1, XDATA, add(CFA_XSP16, literal(-7)))
          CFI R7 load(1, XDATA, add(CFA_XSP16, literal(-6)))
          CFI ?RET_LOW load(1, XDATA, add(CFA_XSP16, literal(-5)))
          CFI ?RET_HIGH load(1, XDATA, add(CFA_XSP16, literal(-4)))
          CFI ?BRET_EXT load(1, XDATA, add(CFA_XSP16, literal(-3)))
          CFI DPL0 load(1, XDATA, add(CFA_XSP16, literal(-2)))
          CFI DPH0 load(1, XDATA, add(CFA_XSP16, literal(-1)))
          CFI CFA_SP SP+0
          CFI CFA_XSP16 add(XSP16, 9)
          CFI Block cfiCond92 Using cfiCommon0
          CFI (cfiCond92) Function MT_AfExec
          CFI (cfiCond92) Conditional ??CrossCallReturnLabel_31
          CFI (cfiCond92) R6 load(1, XDATA, add(CFA_XSP16, literal(-9)))
          CFI (cfiCond92) VB load(1, XDATA, add(CFA_XSP16, literal(-8)))
          CFI (cfiCond92) V0 load(1, XDATA, add(CFA_XSP16, literal(-7)))
          CFI (cfiCond92) R7 load(1, XDATA, add(CFA_XSP16, literal(-6)))
          CFI (cfiCond92) ?RET_LOW load(1, XDATA, add(CFA_XSP16, literal(-5)))
          CFI (cfiCond92) ?RET_HIGH load(1, XDATA, add(CFA_XSP16, literal(-4)))
          CFI (cfiCond92) ?BRET_EXT load(1, XDATA, add(CFA_XSP16, literal(-3)))
          CFI (cfiCond92) DPL0 load(1, XDATA, add(CFA_XSP16, literal(-2)))
          CFI (cfiCond92) DPH0 load(1, XDATA, add(CFA_XSP16, literal(-1)))
          CFI (cfiCond92) CFA_SP SP+0
          CFI (cfiCond92) CFA_XSP16 add(XSP16, 9)
          CFI Block cfiCond93 Using cfiCommon0
          CFI (cfiCond93) Function MT_AfDataRequest
          CFI (cfiCond93) Conditional ??CrossCallReturnLabel_32
          CFI (cfiCond93) R6 load(1, XDATA, add(CFA_XSP16, literal(-22)))
          CFI (cfiCond93) VB load(1, XDATA, add(CFA_XSP16, literal(-21)))
          CFI (cfiCond93) V0 load(1, XDATA, add(CFA_XSP16, literal(-20)))
          CFI (cfiCond93) V1 load(1, XDATA, add(CFA_XSP16, literal(-19)))
          CFI (cfiCond93) V2 load(1, XDATA, add(CFA_XSP16, literal(-18)))
          CFI (cfiCond93) V3 load(1, XDATA, add(CFA_XSP16, literal(-17)))
          CFI (cfiCond93) V4 load(1, XDATA, add(CFA_XSP16, literal(-16)))
          CFI (cfiCond93) V5 load(1, XDATA, add(CFA_XSP16, literal(-15)))
          CFI (cfiCond93) V6 load(1, XDATA, add(CFA_XSP16, literal(-14)))
          CFI (cfiCond93) V7 load(1, XDATA, add(CFA_XSP16, literal(-13)))
          CFI (cfiCond93) V8 load(1, XDATA, add(CFA_XSP16, literal(-12)))
          CFI (cfiCond93) V9 load(1, XDATA, add(CFA_XSP16, literal(-11)))
          CFI (cfiCond93) V10 load(1, XDATA, add(CFA_XSP16, literal(-10)))
          CFI (cfiCond93) V11 load(1, XDATA, add(CFA_XSP16, literal(-9)))
          CFI (cfiCond93) V12 load(1, XDATA, add(CFA_XSP16, literal(-8)))
          CFI (cfiCond93) V13 load(1, XDATA, add(CFA_XSP16, literal(-7)))
          CFI (cfiCond93) R7 load(1, XDATA, add(CFA_XSP16, literal(-6)))
          CFI (cfiCond93) ?RET_LOW load(1, XDATA, add(CFA_XSP16, literal(-5)))
          CFI (cfiCond93) ?RET_HIGH load(1, XDATA, add(CFA_XSP16, literal(-4)))
          CFI (cfiCond93) ?BRET_EXT load(1, XDATA, add(CFA_XSP16, literal(-3)))
          CFI (cfiCond93) DPL0 load(1, XDATA, add(CFA_XSP16, literal(-2)))
          CFI (cfiCond93) DPH0 load(1, XDATA, add(CFA_XSP16, literal(-1)))
          CFI (cfiCond93) CFA_SP SP+0
          CFI (cfiCond93) CFA_XSP16 add(XSP16, 36)
          CFI Block cfiCond94 Using cfiCommon0
          CFI (cfiCond94) Function MT_AfDataRequest
          CFI (cfiCond94) Conditional ??CrossCallReturnLabel_33
          CFI (cfiCond94) R6 load(1, XDATA, add(CFA_XSP16, literal(-22)))
          CFI (cfiCond94) VB load(1, XDATA, add(CFA_XSP16, literal(-21)))
          CFI (cfiCond94) V0 load(1, XDATA, add(CFA_XSP16, literal(-20)))
          CFI (cfiCond94) V1 load(1, XDATA, add(CFA_XSP16, literal(-19)))
          CFI (cfiCond94) V2 load(1, XDATA, add(CFA_XSP16, literal(-18)))
          CFI (cfiCond94) V3 load(1, XDATA, add(CFA_XSP16, literal(-17)))
          CFI (cfiCond94) V4 load(1, XDATA, add(CFA_XSP16, literal(-16)))
          CFI (cfiCond94) V5 load(1, XDATA, add(CFA_XSP16, literal(-15)))
          CFI (cfiCond94) V6 load(1, XDATA, add(CFA_XSP16, literal(-14)))
          CFI (cfiCond94) V7 load(1, XDATA, add(CFA_XSP16, literal(-13)))
          CFI (cfiCond94) V8 load(1, XDATA, add(CFA_XSP16, literal(-12)))
          CFI (cfiCond94) V9 load(1, XDATA, add(CFA_XSP16, literal(-11)))
          CFI (cfiCond94) V10 load(1, XDATA, add(CFA_XSP16, literal(-10)))
          CFI (cfiCond94) V11 load(1, XDATA, add(CFA_XSP16, literal(-9)))
          CFI (cfiCond94) V12 load(1, XDATA, add(CFA_XSP16, literal(-8)))
          CFI (cfiCond94) V13 load(1, XDATA, add(CFA_XSP16, literal(-7)))
          CFI (cfiCond94) R7 load(1, XDATA, add(CFA_XSP16, literal(-6)))
          CFI (cfiCond94) ?RET_LOW load(1, XDATA, add(CFA_XSP16, literal(-5)))
          CFI (cfiCond94) ?RET_HIGH load(1, XDATA, add(CFA_XSP16, literal(-4)))
          CFI (cfiCond94) ?BRET_EXT load(1, XDATA, add(CFA_XSP16, literal(-3)))
          CFI (cfiCond94) DPL0 load(1, XDATA, add(CFA_XSP16, literal(-2)))
          CFI (cfiCond94) DPH0 load(1, XDATA, add(CFA_XSP16, literal(-1)))
          CFI (cfiCond94) CFA_SP SP+0
          CFI (cfiCond94) CFA_XSP16 add(XSP16, 36)
          CFI Block cfiCond95 Using cfiCommon0
          CFI (cfiCond95) Function MT_AfDataRequest
          CFI (cfiCond95) Conditional ??CrossCallReturnLabel_34
          CFI (cfiCond95) R6 load(1, XDATA, add(CFA_XSP16, literal(-22)))
          CFI (cfiCond95) VB load(1, XDATA, add(CFA_XSP16, literal(-21)))
          CFI (cfiCond95) V0 load(1, XDATA, add(CFA_XSP16, literal(-20)))
          CFI (cfiCond95) V1 load(1, XDATA, add(CFA_XSP16, literal(-19)))
          CFI (cfiCond95) V2 load(1, XDATA, add(CFA_XSP16, literal(-18)))
          CFI (cfiCond95) V3 load(1, XDATA, add(CFA_XSP16, literal(-17)))
          CFI (cfiCond95) V4 load(1, XDATA, add(CFA_XSP16, literal(-16)))
          CFI (cfiCond95) V5 load(1, XDATA, add(CFA_XSP16, literal(-15)))
          CFI (cfiCond95) V6 load(1, XDATA, add(CFA_XSP16, literal(-14)))
          CFI (cfiCond95) V7 load(1, XDATA, add(CFA_XSP16, literal(-13)))
          CFI (cfiCond95) V8 load(1, XDATA, add(CFA_XSP16, literal(-12)))
          CFI (cfiCond95) V9 load(1, XDATA, add(CFA_XSP16, literal(-11)))
          CFI (cfiCond95) V10 load(1, XDATA, add(CFA_XSP16, literal(-10)))
          CFI (cfiCond95) V11 load(1, XDATA, add(CFA_XSP16, literal(-9)))
          CFI (cfiCond95) V12 load(1, XDATA, add(CFA_XSP16, literal(-8)))
          CFI (cfiCond95) V13 load(1, XDATA, add(CFA_XSP16, literal(-7)))
          CFI (cfiCond95) R7 load(1, XDATA, add(CFA_XSP16, literal(-6)))
          CFI (cfiCond95) ?RET_LOW load(1, XDATA, add(CFA_XSP16, literal(-5)))
          CFI (cfiCond95) ?RET_HIGH load(1, XDATA, add(CFA_XSP16, literal(-4)))
          CFI (cfiCond95) ?BRET_EXT load(1, XDATA, add(CFA_XSP16, literal(-3)))
          CFI (cfiCond95) DPL0 load(1, XDATA, add(CFA_XSP16, literal(-2)))
          CFI (cfiCond95) DPH0 load(1, XDATA, add(CFA_XSP16, literal(-1)))
          CFI (cfiCond95) CFA_SP SP+0
          CFI (cfiCond95) CFA_XSP16 add(XSP16, 36)
          CFI Block cfiCond96 Using cfiCommon0
          CFI (cfiCond96) Function MT_AfDataRequestSrcRtg
          CFI (cfiCond96) Conditional ??CrossCallReturnLabel_35
          CFI (cfiCond96) R6 load(1, XDATA, add(CFA_XSP16, literal(-22)))
          CFI (cfiCond96) VB load(1, XDATA, add(CFA_XSP16, literal(-21)))
          CFI (cfiCond96) V0 load(1, XDATA, add(CFA_XSP16, literal(-20)))
          CFI (cfiCond96) V1 load(1, XDATA, add(CFA_XSP16, literal(-19)))
          CFI (cfiCond96) V2 load(1, XDATA, add(CFA_XSP16, literal(-18)))
          CFI (cfiCond96) V3 load(1, XDATA, add(CFA_XSP16, literal(-17)))
          CFI (cfiCond96) V4 load(1, XDATA, add(CFA_XSP16, literal(-16)))
          CFI (cfiCond96) V5 load(1, XDATA, add(CFA_XSP16, literal(-15)))
          CFI (cfiCond96) V6 load(1, XDATA, add(CFA_XSP16, literal(-14)))
          CFI (cfiCond96) V7 load(1, XDATA, add(CFA_XSP16, literal(-13)))
          CFI (cfiCond96) V8 load(1, XDATA, add(CFA_XSP16, literal(-12)))
          CFI (cfiCond96) V9 load(1, XDATA, add(CFA_XSP16, literal(-11)))
          CFI (cfiCond96) V10 load(1, XDATA, add(CFA_XSP16, literal(-10)))
          CFI (cfiCond96) V11 load(1, XDATA, add(CFA_XSP16, literal(-9)))
          CFI (cfiCond96) V12 load(1, XDATA, add(CFA_XSP16, literal(-8)))
          CFI (cfiCond96) V13 load(1, XDATA, add(CFA_XSP16, literal(-7)))
          CFI (cfiCond96) R7 load(1, XDATA, add(CFA_XSP16, literal(-6)))
          CFI (cfiCond96) ?RET_LOW load(1, XDATA, add(CFA_XSP16, literal(-5)))
          CFI (cfiCond96) ?RET_HIGH load(1, XDATA, add(CFA_XSP16, literal(-4)))
          CFI (cfiCond96) ?BRET_EXT load(1, XDATA, add(CFA_XSP16, literal(-3)))
          CFI (cfiCond96) DPL0 load(1, XDATA, add(CFA_XSP16, literal(-2)))
          CFI (cfiCond96) DPH0 load(1, XDATA, add(CFA_XSP16, literal(-1)))
          CFI (cfiCond96) CFA_SP SP+0
          CFI (cfiCond96) CFA_XSP16 add(XSP16, 36)
          CFI Block cfiCond97 Using cfiCommon0
          CFI (cfiCond97) Function MT_AfIncomingMsg
          CFI (cfiCond97) Conditional ??CrossCallReturnLabel_36
          CFI (cfiCond97) R6 load(1, XDATA, add(CFA_XSP16, literal(-24)))
          CFI (cfiCond97) VB load(1, XDATA, add(CFA_XSP16, literal(-23)))
          CFI (cfiCond97) V0 load(1, XDATA, add(CFA_XSP16, literal(-22)))
          CFI (cfiCond97) V1 load(1, XDATA, add(CFA_XSP16, literal(-21)))
          CFI (cfiCond97) V2 load(1, XDATA, add(CFA_XSP16, literal(-20)))
          CFI (cfiCond97) V3 load(1, XDATA, add(CFA_XSP16, literal(-19)))
          CFI (cfiCond97) V4 load(1, XDATA, add(CFA_XSP16, literal(-18)))
          CFI (cfiCond97) V5 load(1, XDATA, add(CFA_XSP16, literal(-17)))
          CFI (cfiCond97) V6 load(1, XDATA, add(CFA_XSP16, literal(-16)))
          CFI (cfiCond97) V7 load(1, XDATA, add(CFA_XSP16, literal(-15)))
          CFI (cfiCond97) V8 load(1, XDATA, add(CFA_XSP16, literal(-14)))
          CFI (cfiCond97) V9 load(1, XDATA, add(CFA_XSP16, literal(-13)))
          CFI (cfiCond97) V10 load(1, XDATA, add(CFA_XSP16, literal(-12)))
          CFI (cfiCond97) V11 load(1, XDATA, add(CFA_XSP16, literal(-11)))
          CFI (cfiCond97) V12 load(1, XDATA, add(CFA_XSP16, literal(-10)))
          CFI (cfiCond97) V13 load(1, XDATA, add(CFA_XSP16, literal(-9)))
          CFI (cfiCond97) V14 load(1, XDATA, add(CFA_XSP16, literal(-8)))
          CFI (cfiCond97) V15 load(1, XDATA, add(CFA_XSP16, literal(-7)))
          CFI (cfiCond97) R7 load(1, XDATA, add(CFA_XSP16, literal(-6)))
          CFI (cfiCond97) ?RET_LOW load(1, XDATA, add(CFA_XSP16, literal(-5)))
          CFI (cfiCond97) ?RET_HIGH load(1, XDATA, add(CFA_XSP16, literal(-4)))
          CFI (cfiCond97) ?BRET_EXT load(1, XDATA, add(CFA_XSP16, literal(-3)))
          CFI (cfiCond97) DPL0 load(1, XDATA, add(CFA_XSP16, literal(-2)))
          CFI (cfiCond97) DPH0 load(1, XDATA, add(CFA_XSP16, literal(-1)))
          CFI (cfiCond97) CFA_SP SP+0
          CFI (cfiCond97) CFA_XSP16 add(XSP16, 25)
          CFI Block cfiCond98 Using cfiCommon0
          CFI (cfiCond98) Function MT_AfIncomingMsg
          CFI (cfiCond98) Conditional ??CrossCallReturnLabel_37
          CFI (cfiCond98) R6 load(1, XDATA, add(CFA_XSP16, literal(-24)))
          CFI (cfiCond98) VB load(1, XDATA, add(CFA_XSP16, literal(-23)))
          CFI (cfiCond98) V0 load(1, XDATA, add(CFA_XSP16, literal(-22)))
          CFI (cfiCond98) V1 load(1, XDATA, add(CFA_XSP16, literal(-21)))
          CFI (cfiCond98) V2 load(1, XDATA, add(CFA_XSP16, literal(-20)))
          CFI (cfiCond98) V3 load(1, XDATA, add(CFA_XSP16, literal(-19)))
          CFI (cfiCond98) V4 load(1, XDATA, add(CFA_XSP16, literal(-18)))
          CFI (cfiCond98) V5 load(1, XDATA, add(CFA_XSP16, literal(-17)))
          CFI (cfiCond98) V6 load(1, XDATA, add(CFA_XSP16, literal(-16)))
          CFI (cfiCond98) V7 load(1, XDATA, add(CFA_XSP16, literal(-15)))
          CFI (cfiCond98) V8 load(1, XDATA, add(CFA_XSP16, literal(-14)))
          CFI (cfiCond98) V9 load(1, XDATA, add(CFA_XSP16, literal(-13)))
          CFI (cfiCond98) V10 load(1, XDATA, add(CFA_XSP16, literal(-12)))
          CFI (cfiCond98) V11 load(1, XDATA, add(CFA_XSP16, literal(-11)))
          CFI (cfiCond98) V12 load(1, XDATA, add(CFA_XSP16, literal(-10)))
          CFI (cfiCond98) V13 load(1, XDATA, add(CFA_XSP16, literal(-9)))
          CFI (cfiCond98) V14 load(1, XDATA, add(CFA_XSP16, literal(-8)))
          CFI (cfiCond98) V15 load(1, XDATA, add(CFA_XSP16, literal(-7)))
          CFI (cfiCond98) R7 load(1, XDATA, add(CFA_XSP16, literal(-6)))
          CFI (cfiCond98) ?RET_LOW load(1, XDATA, add(CFA_XSP16, literal(-5)))
          CFI (cfiCond98) ?RET_HIGH load(1, XDATA, add(CFA_XSP16, literal(-4)))
          CFI (cfiCond98) ?BRET_EXT load(1, XDATA, add(CFA_XSP16, literal(-3)))
          CFI (cfiCond98) DPL0 load(1, XDATA, add(CFA_XSP16, literal(-2)))
          CFI (cfiCond98) DPH0 load(1, XDATA, add(CFA_XSP16, literal(-1)))
          CFI (cfiCond98) CFA_SP SP+0
          CFI (cfiCond98) CFA_XSP16 add(XSP16, 25)
          CFI Block cfiCond99 Using cfiCommon0
          CFI (cfiCond99) Function MT_AfDataRetrieve
          CFI (cfiCond99) Conditional ??CrossCallReturnLabel_38
          CFI (cfiCond99) R6 load(1, XDATA, add(CFA_XSP16, literal(-20)))
          CFI (cfiCond99) VB load(1, XDATA, add(CFA_XSP16, literal(-19)))
          CFI (cfiCond99) V0 load(1, XDATA, add(CFA_XSP16, literal(-18)))
          CFI (cfiCond99) V1 load(1, XDATA, add(CFA_XSP16, literal(-17)))
          CFI (cfiCond99) V2 load(1, XDATA, add(CFA_XSP16, literal(-16)))
          CFI (cfiCond99) V3 load(1, XDATA, add(CFA_XSP16, literal(-15)))
          CFI (cfiCond99) V4 load(1, XDATA, add(CFA_XSP16, literal(-14)))
          CFI (cfiCond99) V5 load(1, XDATA, add(CFA_XSP16, literal(-13)))
          CFI (cfiCond99) V6 load(1, XDATA, add(CFA_XSP16, literal(-12)))
          CFI (cfiCond99) V7 load(1, XDATA, add(CFA_XSP16, literal(-11)))
          CFI (cfiCond99) V8 load(1, XDATA, add(CFA_XSP16, literal(-10)))
          CFI (cfiCond99) V9 load(1, XDATA, add(CFA_XSP16, literal(-9)))
          CFI (cfiCond99) V10 load(1, XDATA, add(CFA_XSP16, literal(-8)))
          CFI (cfiCond99) V11 load(1, XDATA, add(CFA_XSP16, literal(-7)))
          CFI (cfiCond99) R7 load(1, XDATA, add(CFA_XSP16, literal(-6)))
          CFI (cfiCond99) ?RET_LOW load(1, XDATA, add(CFA_XSP16, literal(-5)))
          CFI (cfiCond99) ?RET_HIGH load(1, XDATA, add(CFA_XSP16, literal(-4)))
          CFI (cfiCond99) ?BRET_EXT load(1, XDATA, add(CFA_XSP16, literal(-3)))
          CFI (cfiCond99) DPL0 load(1, XDATA, add(CFA_XSP16, literal(-2)))
          CFI (cfiCond99) DPH0 load(1, XDATA, add(CFA_XSP16, literal(-1)))
          CFI (cfiCond99) CFA_SP SP+0
          CFI (cfiCond99) CFA_XSP16 add(XSP16, 20)
          CFI Block cfiPicker100 Using cfiCommon1
          CFI (cfiPicker100) NoFunction
          CFI (cfiPicker100) Picker
        MOV     A,R0
        MOVX    @DPTR,A
        INC     DPTR
        MOV     A,R1
        MOVX    @DPTR,A
        RET
          CFI EndBlock cfiCond91
          CFI EndBlock cfiCond92
          CFI EndBlock cfiCond93
          CFI EndBlock cfiCond94
          CFI EndBlock cfiCond95
          CFI EndBlock cfiCond96
          CFI EndBlock cfiCond97
          CFI EndBlock cfiCond98
          CFI EndBlock cfiCond99
          CFI EndBlock cfiPicker100

        RSEG BANKED_CODE:CODE:NOROOT(0)
?Subroutine21:
          CFI Block cfiCond101 Using cfiCommon0
          CFI Function MT_AfDataRequestSrcRtg
          CFI Conditional ??CrossCallReturnLabel_89
          CFI R6 load(1, XDATA, add(CFA_XSP16, literal(-22)))
          CFI VB load(1, XDATA, add(CFA_XSP16, literal(-21)))
          CFI V0 load(1, XDATA, add(CFA_XSP16, literal(-20)))
          CFI V1 load(1, XDATA, add(CFA_XSP16, literal(-19)))
          CFI V2 load(1, XDATA, add(CFA_XSP16, literal(-18)))
          CFI V3 load(1, XDATA, add(CFA_XSP16, literal(-17)))
          CFI V4 load(1, XDATA, add(CFA_XSP16, literal(-16)))
          CFI V5 load(1, XDATA, add(CFA_XSP16, literal(-15)))
          CFI V6 load(1, XDATA, add(CFA_XSP16, literal(-14)))
          CFI V7 load(1, XDATA, add(CFA_XSP16, literal(-13)))
          CFI V8 load(1, XDATA, add(CFA_XSP16, literal(-12)))
          CFI V9 load(1, XDATA, add(CFA_XSP16, literal(-11)))
          CFI V10 load(1, XDATA, add(CFA_XSP16, literal(-10)))
          CFI V11 load(1, XDATA, add(CFA_XSP16, literal(-9)))
          CFI V12 load(1, XDATA, add(CFA_XSP16, literal(-8)))
          CFI V13 load(1, XDATA, add(CFA_XSP16, literal(-7)))
          CFI R7 load(1, XDATA, add(CFA_XSP16, literal(-6)))
          CFI ?RET_LOW load(1, XDATA, add(CFA_XSP16, literal(-5)))
          CFI ?RET_HIGH load(1, XDATA, add(CFA_XSP16, literal(-4)))
          CFI ?BRET_EXT load(1, XDATA, add(CFA_XSP16, literal(-3)))
          CFI DPL0 load(1, XDATA, add(CFA_XSP16, literal(-2)))
          CFI DPH0 load(1, XDATA, add(CFA_XSP16, literal(-1)))
          CFI CFA_SP SP+0
          CFI CFA_XSP16 add(XSP16, 36)
          CFI Block cfiCond102 Using cfiCommon0
          CFI (cfiCond102) Function MT_AfDataRequestSrcRtg
          CFI (cfiCond102) Conditional ??CrossCallReturnLabel_90
          CFI (cfiCond102) R6 load(1, XDATA, add(CFA_XSP16, literal(-22)))
          CFI (cfiCond102) VB load(1, XDATA, add(CFA_XSP16, literal(-21)))
          CFI (cfiCond102) V0 load(1, XDATA, add(CFA_XSP16, literal(-20)))
          CFI (cfiCond102) V1 load(1, XDATA, add(CFA_XSP16, literal(-19)))
          CFI (cfiCond102) V2 load(1, XDATA, add(CFA_XSP16, literal(-18)))
          CFI (cfiCond102) V3 load(1, XDATA, add(CFA_XSP16, literal(-17)))
          CFI (cfiCond102) V4 load(1, XDATA, add(CFA_XSP16, literal(-16)))
          CFI (cfiCond102) V5 load(1, XDATA, add(CFA_XSP16, literal(-15)))
          CFI (cfiCond102) V6 load(1, XDATA, add(CFA_XSP16, literal(-14)))
          CFI (cfiCond102) V7 load(1, XDATA, add(CFA_XSP16, literal(-13)))
          CFI (cfiCond102) V8 load(1, XDATA, add(CFA_XSP16, literal(-12)))
          CFI (cfiCond102) V9 load(1, XDATA, add(CFA_XSP16, literal(-11)))
          CFI (cfiCond102) V10 load(1, XDATA, add(CFA_XSP16, literal(-10)))
          CFI (cfiCond102) V11 load(1, XDATA, add(CFA_XSP16, literal(-9)))
          CFI (cfiCond102) V12 load(1, XDATA, add(CFA_XSP16, literal(-8)))
          CFI (cfiCond102) V13 load(1, XDATA, add(CFA_XSP16, literal(-7)))
          CFI (cfiCond102) R7 load(1, XDATA, add(CFA_XSP16, literal(-6)))
          CFI (cfiCond102) ?RET_LOW load(1, XDATA, add(CFA_XSP16, literal(-5)))
          CFI (cfiCond102) ?RET_HIGH load(1, XDATA, add(CFA_XSP16, literal(-4)))
          CFI (cfiCond102) ?BRET_EXT load(1, XDATA, add(CFA_XSP16, literal(-3)))
          CFI (cfiCond102) DPL0 load(1, XDATA, add(CFA_XSP16, literal(-2)))
          CFI (cfiCond102) DPH0 load(1, XDATA, add(CFA_XSP16, literal(-1)))
          CFI (cfiCond102) CFA_SP SP+0
          CFI (cfiCond102) CFA_XSP16 add(XSP16, 36)
          CFI Block cfiPicker103 Using cfiCommon1
          CFI (cfiPicker103) NoFunction
          CFI (cfiPicker103) Picker
        MOV     A,R6
        ADD     A,#0x2
          CFI EndBlock cfiCond101
          CFI EndBlock cfiCond102
          CFI EndBlock cfiPicker103
        REQUIRE ??Subroutine46_0
        ; // Fall through to label ??Subroutine46_0

        RSEG BANKED_CODE:CODE:NOROOT(0)
??Subroutine46_0:
          CFI Block cfiCond104 Using cfiCommon0
          CFI Function MT_AfDataRetrieve
          CFI Conditional ??CrossCallReturnLabel_91
          CFI R6 load(1, XDATA, add(CFA_XSP16, literal(-20)))
          CFI VB load(1, XDATA, add(CFA_XSP16, literal(-19)))
          CFI V0 load(1, XDATA, add(CFA_XSP16, literal(-18)))
          CFI V1 load(1, XDATA, add(CFA_XSP16, literal(-17)))
          CFI V2 load(1, XDATA, add(CFA_XSP16, literal(-16)))
          CFI V3 load(1, XDATA, add(CFA_XSP16, literal(-15)))
          CFI V4 load(1, XDATA, add(CFA_XSP16, literal(-14)))
          CFI V5 load(1, XDATA, add(CFA_XSP16, literal(-13)))
          CFI V6 load(1, XDATA, add(CFA_XSP16, literal(-12)))
          CFI V7 load(1, XDATA, add(CFA_XSP16, literal(-11)))
          CFI V8 load(1, XDATA, add(CFA_XSP16, literal(-10)))
          CFI V9 load(1, XDATA, add(CFA_XSP16, literal(-9)))
          CFI V10 load(1, XDATA, add(CFA_XSP16, literal(-8)))
          CFI V11 load(1, XDATA, add(CFA_XSP16, literal(-7)))
          CFI R7 load(1, XDATA, add(CFA_XSP16, literal(-6)))
          CFI ?RET_LOW load(1, XDATA, add(CFA_XSP16, literal(-5)))
          CFI ?RET_HIGH load(1, XDATA, add(CFA_XSP16, literal(-4)))
          CFI ?BRET_EXT load(1, XDATA, add(CFA_XSP16, literal(-3)))
          CFI DPL0 load(1, XDATA, add(CFA_XSP16, literal(-2)))
          CFI DPH0 load(1, XDATA, add(CFA_XSP16, literal(-1)))
          CFI CFA_SP SP+0
          CFI CFA_XSP16 add(XSP16, 20)
          CFI Block cfiCond105 Using cfiCommon0
          CFI (cfiCond105) Function MT_AfDataRequestSrcRtg
          CFI (cfiCond105) Conditional ??CrossCallReturnLabel_89
          CFI (cfiCond105) R6 load(1, XDATA, add(CFA_XSP16, literal(-22)))
          CFI (cfiCond105) VB load(1, XDATA, add(CFA_XSP16, literal(-21)))
          CFI (cfiCond105) V0 load(1, XDATA, add(CFA_XSP16, literal(-20)))
          CFI (cfiCond105) V1 load(1, XDATA, add(CFA_XSP16, literal(-19)))
          CFI (cfiCond105) V2 load(1, XDATA, add(CFA_XSP16, literal(-18)))
          CFI (cfiCond105) V3 load(1, XDATA, add(CFA_XSP16, literal(-17)))
          CFI (cfiCond105) V4 load(1, XDATA, add(CFA_XSP16, literal(-16)))
          CFI (cfiCond105) V5 load(1, XDATA, add(CFA_XSP16, literal(-15)))
          CFI (cfiCond105) V6 load(1, XDATA, add(CFA_XSP16, literal(-14)))
          CFI (cfiCond105) V7 load(1, XDATA, add(CFA_XSP16, literal(-13)))
          CFI (cfiCond105) V8 load(1, XDATA, add(CFA_XSP16, literal(-12)))
          CFI (cfiCond105) V9 load(1, XDATA, add(CFA_XSP16, literal(-11)))
          CFI (cfiCond105) V10 load(1, XDATA, add(CFA_XSP16, literal(-10)))
          CFI (cfiCond105) V11 load(1, XDATA, add(CFA_XSP16, literal(-9)))
          CFI (cfiCond105) V12 load(1, XDATA, add(CFA_XSP16, literal(-8)))
          CFI (cfiCond105) V13 load(1, XDATA, add(CFA_XSP16, literal(-7)))
          CFI (cfiCond105) R7 load(1, XDATA, add(CFA_XSP16, literal(-6)))
          CFI (cfiCond105) ?RET_LOW load(1, XDATA, add(CFA_XSP16, literal(-5)))
          CFI (cfiCond105) ?RET_HIGH load(1, XDATA, add(CFA_XSP16, literal(-4)))
          CFI (cfiCond105) ?BRET_EXT load(1, XDATA, add(CFA_XSP16, literal(-3)))
          CFI (cfiCond105) DPL0 load(1, XDATA, add(CFA_XSP16, literal(-2)))
          CFI (cfiCond105) DPH0 load(1, XDATA, add(CFA_XSP16, literal(-1)))
          CFI (cfiCond105) CFA_SP SP+0
          CFI (cfiCond105) CFA_XSP16 add(XSP16, 36)
          CFI Block cfiCond106 Using cfiCommon0
          CFI (cfiCond106) Function MT_AfDataRequestSrcRtg
          CFI (cfiCond106) Conditional ??CrossCallReturnLabel_90
          CFI (cfiCond106) R6 load(1, XDATA, add(CFA_XSP16, literal(-22)))
          CFI (cfiCond106) VB load(1, XDATA, add(CFA_XSP16, literal(-21)))
          CFI (cfiCond106) V0 load(1, XDATA, add(CFA_XSP16, literal(-20)))
          CFI (cfiCond106) V1 load(1, XDATA, add(CFA_XSP16, literal(-19)))
          CFI (cfiCond106) V2 load(1, XDATA, add(CFA_XSP16, literal(-18)))
          CFI (cfiCond106) V3 load(1, XDATA, add(CFA_XSP16, literal(-17)))
          CFI (cfiCond106) V4 load(1, XDATA, add(CFA_XSP16, literal(-16)))
          CFI (cfiCond106) V5 load(1, XDATA, add(CFA_XSP16, literal(-15)))
          CFI (cfiCond106) V6 load(1, XDATA, add(CFA_XSP16, literal(-14)))
          CFI (cfiCond106) V7 load(1, XDATA, add(CFA_XSP16, literal(-13)))
          CFI (cfiCond106) V8 load(1, XDATA, add(CFA_XSP16, literal(-12)))
          CFI (cfiCond106) V9 load(1, XDATA, add(CFA_XSP16, literal(-11)))
          CFI (cfiCond106) V10 load(1, XDATA, add(CFA_XSP16, literal(-10)))
          CFI (cfiCond106) V11 load(1, XDATA, add(CFA_XSP16, literal(-9)))
          CFI (cfiCond106) V12 load(1, XDATA, add(CFA_XSP16, literal(-8)))
          CFI (cfiCond106) V13 load(1, XDATA, add(CFA_XSP16, literal(-7)))
          CFI (cfiCond106) R7 load(1, XDATA, add(CFA_XSP16, literal(-6)))
          CFI (cfiCond106) ?RET_LOW load(1, XDATA, add(CFA_XSP16, literal(-5)))
          CFI (cfiCond106) ?RET_HIGH load(1, XDATA, add(CFA_XSP16, literal(-4)))
          CFI (cfiCond106) ?BRET_EXT load(1, XDATA, add(CFA_XSP16, literal(-3)))
          CFI (cfiCond106) DPL0 load(1, XDATA, add(CFA_XSP16, literal(-2)))
          CFI (cfiCond106) DPH0 load(1, XDATA, add(CFA_XSP16, literal(-1)))
          CFI (cfiCond106) CFA_SP SP+0
          CFI (cfiCond106) CFA_XSP16 add(XSP16, 36)
          CFI Block cfiPicker107 Using cfiCommon1
          CFI (cfiPicker107) NoFunction
          CFI (cfiPicker107) Picker
        MOV     R6,A
        MOV     A,R7
        ADDC    A,#0x0
        MOV     R7,A
        MOV     DPL,R6
        MOV     DPH,R7
        MOVX    A,@DPTR
        RET
          CFI EndBlock cfiCond104
          CFI EndBlock cfiCond105
          CFI EndBlock cfiCond106
          CFI EndBlock cfiPicker107

        RSEG BANKED_CODE:CODE:NOROOT(0)
?Subroutine15:
          CFI Block cfiCond108 Using cfiCommon0
          CFI Function MT_AfDataRequest
          CFI Conditional ??CrossCallReturnLabel_93
          CFI R6 load(1, XDATA, add(CFA_XSP16, literal(-22)))
          CFI VB load(1, XDATA, add(CFA_XSP16, literal(-21)))
          CFI V0 load(1, XDATA, add(CFA_XSP16, literal(-20)))
          CFI V1 load(1, XDATA, add(CFA_XSP16, literal(-19)))
          CFI V2 load(1, XDATA, add(CFA_XSP16, literal(-18)))
          CFI V3 load(1, XDATA, add(CFA_XSP16, literal(-17)))
          CFI V4 load(1, XDATA, add(CFA_XSP16, literal(-16)))
          CFI V5 load(1, XDATA, add(CFA_XSP16, literal(-15)))
          CFI V6 load(1, XDATA, add(CFA_XSP16, literal(-14)))
          CFI V7 load(1, XDATA, add(CFA_XSP16, literal(-13)))
          CFI V8 load(1, XDATA, add(CFA_XSP16, literal(-12)))
          CFI V9 load(1, XDATA, add(CFA_XSP16, literal(-11)))
          CFI V10 load(1, XDATA, add(CFA_XSP16, literal(-10)))
          CFI V11 load(1, XDATA, add(CFA_XSP16, literal(-9)))
          CFI V12 load(1, XDATA, add(CFA_XSP16, literal(-8)))
          CFI V13 load(1, XDATA, add(CFA_XSP16, literal(-7)))
          CFI R7 load(1, XDATA, add(CFA_XSP16, literal(-6)))
          CFI ?RET_LOW load(1, XDATA, add(CFA_XSP16, literal(-5)))
          CFI ?RET_HIGH load(1, XDATA, add(CFA_XSP16, literal(-4)))
          CFI ?BRET_EXT load(1, XDATA, add(CFA_XSP16, literal(-3)))
          CFI DPL0 load(1, XDATA, add(CFA_XSP16, literal(-2)))
          CFI DPH0 load(1, XDATA, add(CFA_XSP16, literal(-1)))
          CFI CFA_SP SP+0
          CFI CFA_XSP16 add(XSP16, 36)
          CFI Block cfiCond109 Using cfiCommon0
          CFI (cfiCond109) Function MT_AfDataRequestSrcRtg
          CFI (cfiCond109) Conditional ??CrossCallReturnLabel_94
          CFI (cfiCond109) R6 load(1, XDATA, add(CFA_XSP16, literal(-22)))
          CFI (cfiCond109) VB load(1, XDATA, add(CFA_XSP16, literal(-21)))
          CFI (cfiCond109) V0 load(1, XDATA, add(CFA_XSP16, literal(-20)))
          CFI (cfiCond109) V1 load(1, XDATA, add(CFA_XSP16, literal(-19)))
          CFI (cfiCond109) V2 load(1, XDATA, add(CFA_XSP16, literal(-18)))
          CFI (cfiCond109) V3 load(1, XDATA, add(CFA_XSP16, literal(-17)))
          CFI (cfiCond109) V4 load(1, XDATA, add(CFA_XSP16, literal(-16)))
          CFI (cfiCond109) V5 load(1, XDATA, add(CFA_XSP16, literal(-15)))
          CFI (cfiCond109) V6 load(1, XDATA, add(CFA_XSP16, literal(-14)))
          CFI (cfiCond109) V7 load(1, XDATA, add(CFA_XSP16, literal(-13)))
          CFI (cfiCond109) V8 load(1, XDATA, add(CFA_XSP16, literal(-12)))
          CFI (cfiCond109) V9 load(1, XDATA, add(CFA_XSP16, literal(-11)))
          CFI (cfiCond109) V10 load(1, XDATA, add(CFA_XSP16, literal(-10)))
          CFI (cfiCond109) V11 load(1, XDATA, add(CFA_XSP16, literal(-9)))
          CFI (cfiCond109) V12 load(1, XDATA, add(CFA_XSP16, literal(-8)))
          CFI (cfiCond109) V13 load(1, XDATA, add(CFA_XSP16, literal(-7)))
          CFI (cfiCond109) R7 load(1, XDATA, add(CFA_XSP16, literal(-6)))
          CFI (cfiCond109) ?RET_LOW load(1, XDATA, add(CFA_XSP16, literal(-5)))
          CFI (cfiCond109) ?RET_HIGH load(1, XDATA, add(CFA_XSP16, literal(-4)))
          CFI (cfiCond109) ?BRET_EXT load(1, XDATA, add(CFA_XSP16, literal(-3)))
          CFI (cfiCond109) DPL0 load(1, XDATA, add(CFA_XSP16, literal(-2)))
          CFI (cfiCond109) DPH0 load(1, XDATA, add(CFA_XSP16, literal(-1)))
          CFI (cfiCond109) CFA_SP SP+0
          CFI (cfiCond109) CFA_XSP16 add(XSP16, 36)
          CFI Block cfiPicker110 Using cfiCommon1
          CFI (cfiPicker110) NoFunction
          CFI (cfiPicker110) Picker
        MOVX    A,@DPTR
        MOV     R2,A
        INC     DPTR
          CFI EndBlock cfiCond108
          CFI EndBlock cfiCond109
          CFI EndBlock cfiPicker110
        REQUIRE ??Subroutine47_0
        ; // Fall through to label ??Subroutine47_0

        RSEG BANKED_CODE:CODE:NOROOT(0)
??Subroutine47_0:
          CFI Block cfiCond111 Using cfiCommon0
          CFI Function MT_AfDataRequest
          CFI Conditional ??CrossCallReturnLabel_92
          CFI R6 load(1, XDATA, add(CFA_XSP16, literal(-22)))
          CFI VB load(1, XDATA, add(CFA_XSP16, literal(-21)))
          CFI V0 load(1, XDATA, add(CFA_XSP16, literal(-20)))
          CFI V1 load(1, XDATA, add(CFA_XSP16, literal(-19)))
          CFI V2 load(1, XDATA, add(CFA_XSP16, literal(-18)))
          CFI V3 load(1, XDATA, add(CFA_XSP16, literal(-17)))
          CFI V4 load(1, XDATA, add(CFA_XSP16, literal(-16)))
          CFI V5 load(1, XDATA, add(CFA_XSP16, literal(-15)))
          CFI V6 load(1, XDATA, add(CFA_XSP16, literal(-14)))
          CFI V7 load(1, XDATA, add(CFA_XSP16, literal(-13)))
          CFI V8 load(1, XDATA, add(CFA_XSP16, literal(-12)))
          CFI V9 load(1, XDATA, add(CFA_XSP16, literal(-11)))
          CFI V10 load(1, XDATA, add(CFA_XSP16, literal(-10)))
          CFI V11 load(1, XDATA, add(CFA_XSP16, literal(-9)))
          CFI V12 load(1, XDATA, add(CFA_XSP16, literal(-8)))
          CFI V13 load(1, XDATA, add(CFA_XSP16, literal(-7)))
          CFI R7 load(1, XDATA, add(CFA_XSP16, literal(-6)))
          CFI ?RET_LOW load(1, XDATA, add(CFA_XSP16, literal(-5)))
          CFI ?RET_HIGH load(1, XDATA, add(CFA_XSP16, literal(-4)))
          CFI ?BRET_EXT load(1, XDATA, add(CFA_XSP16, literal(-3)))
          CFI DPL0 load(1, XDATA, add(CFA_XSP16, literal(-2)))
          CFI DPH0 load(1, XDATA, add(CFA_XSP16, literal(-1)))
          CFI CFA_SP SP+0
          CFI CFA_XSP16 add(XSP16, 36)
          CFI Block cfiCond112 Using cfiCommon0
          CFI (cfiCond112) Function MT_AfDataRequest
          CFI (cfiCond112) Conditional ??CrossCallReturnLabel_93
          CFI (cfiCond112) R6 load(1, XDATA, add(CFA_XSP16, literal(-22)))
          CFI (cfiCond112) VB load(1, XDATA, add(CFA_XSP16, literal(-21)))
          CFI (cfiCond112) V0 load(1, XDATA, add(CFA_XSP16, literal(-20)))
          CFI (cfiCond112) V1 load(1, XDATA, add(CFA_XSP16, literal(-19)))
          CFI (cfiCond112) V2 load(1, XDATA, add(CFA_XSP16, literal(-18)))
          CFI (cfiCond112) V3 load(1, XDATA, add(CFA_XSP16, literal(-17)))
          CFI (cfiCond112) V4 load(1, XDATA, add(CFA_XSP16, literal(-16)))
          CFI (cfiCond112) V5 load(1, XDATA, add(CFA_XSP16, literal(-15)))
          CFI (cfiCond112) V6 load(1, XDATA, add(CFA_XSP16, literal(-14)))
          CFI (cfiCond112) V7 load(1, XDATA, add(CFA_XSP16, literal(-13)))
          CFI (cfiCond112) V8 load(1, XDATA, add(CFA_XSP16, literal(-12)))
          CFI (cfiCond112) V9 load(1, XDATA, add(CFA_XSP16, literal(-11)))
          CFI (cfiCond112) V10 load(1, XDATA, add(CFA_XSP16, literal(-10)))
          CFI (cfiCond112) V11 load(1, XDATA, add(CFA_XSP16, literal(-9)))
          CFI (cfiCond112) V12 load(1, XDATA, add(CFA_XSP16, literal(-8)))
          CFI (cfiCond112) V13 load(1, XDATA, add(CFA_XSP16, literal(-7)))
          CFI (cfiCond112) R7 load(1, XDATA, add(CFA_XSP16, literal(-6)))
          CFI (cfiCond112) ?RET_LOW load(1, XDATA, add(CFA_XSP16, literal(-5)))
          CFI (cfiCond112) ?RET_HIGH load(1, XDATA, add(CFA_XSP16, literal(-4)))
          CFI (cfiCond112) ?BRET_EXT load(1, XDATA, add(CFA_XSP16, literal(-3)))
          CFI (cfiCond112) DPL0 load(1, XDATA, add(CFA_XSP16, literal(-2)))
          CFI (cfiCond112) DPH0 load(1, XDATA, add(CFA_XSP16, literal(-1)))
          CFI (cfiCond112) CFA_SP SP+0
          CFI (cfiCond112) CFA_XSP16 add(XSP16, 36)
          CFI Block cfiCond113 Using cfiCommon0
          CFI (cfiCond113) Function MT_AfDataRequestSrcRtg
          CFI (cfiCond113) Conditional ??CrossCallReturnLabel_94
          CFI (cfiCond113) R6 load(1, XDATA, add(CFA_XSP16, literal(-22)))
          CFI (cfiCond113) VB load(1, XDATA, add(CFA_XSP16, literal(-21)))
          CFI (cfiCond113) V0 load(1, XDATA, add(CFA_XSP16, literal(-20)))
          CFI (cfiCond113) V1 load(1, XDATA, add(CFA_XSP16, literal(-19)))
          CFI (cfiCond113) V2 load(1, XDATA, add(CFA_XSP16, literal(-18)))
          CFI (cfiCond113) V3 load(1, XDATA, add(CFA_XSP16, literal(-17)))
          CFI (cfiCond113) V4 load(1, XDATA, add(CFA_XSP16, literal(-16)))
          CFI (cfiCond113) V5 load(1, XDATA, add(CFA_XSP16, literal(-15)))
          CFI (cfiCond113) V6 load(1, XDATA, add(CFA_XSP16, literal(-14)))
          CFI (cfiCond113) V7 load(1, XDATA, add(CFA_XSP16, literal(-13)))
          CFI (cfiCond113) V8 load(1, XDATA, add(CFA_XSP16, literal(-12)))
          CFI (cfiCond113) V9 load(1, XDATA, add(CFA_XSP16, literal(-11)))
          CFI (cfiCond113) V10 load(1, XDATA, add(CFA_XSP16, literal(-10)))
          CFI (cfiCond113) V11 load(1, XDATA, add(CFA_XSP16, literal(-9)))
          CFI (cfiCond113) V12 load(1, XDATA, add(CFA_XSP16, literal(-8)))
          CFI (cfiCond113) V13 load(1, XDATA, add(CFA_XSP16, literal(-7)))
          CFI (cfiCond113) R7 load(1, XDATA, add(CFA_XSP16, literal(-6)))
          CFI (cfiCond113) ?RET_LOW load(1, XDATA, add(CFA_XSP16, literal(-5)))
          CFI (cfiCond113) ?RET_HIGH load(1, XDATA, add(CFA_XSP16, literal(-4)))
          CFI (cfiCond113) ?BRET_EXT load(1, XDATA, add(CFA_XSP16, literal(-3)))
          CFI (cfiCond113) DPL0 load(1, XDATA, add(CFA_XSP16, literal(-2)))
          CFI (cfiCond113) DPH0 load(1, XDATA, add(CFA_XSP16, literal(-1)))
          CFI (cfiCond113) CFA_SP SP+0
          CFI (cfiCond113) CFA_XSP16 add(XSP16, 36)
          CFI Block cfiPicker114 Using cfiCommon1
          CFI (cfiPicker114) NoFunction
          CFI (cfiPicker114) Picker
        MOVX    A,@DPTR
        MOV     R1,A
        MOV     A,R2
        MOV     R0,A
        MOV     A,#0x2
        RET
          CFI EndBlock cfiCond111
          CFI EndBlock cfiCond112
          CFI EndBlock cfiCond113
          CFI EndBlock cfiPicker114

        RSEG BANKED_CODE:CODE:NOROOT(0)
?Subroutine12:
          CFI Block cfiCond115 Using cfiCommon0
          CFI Function MT_AfDataRequestSrcRtg
          CFI Conditional ??CrossCallReturnLabel_96
          CFI R6 load(1, XDATA, add(CFA_XSP16, literal(-22)))
          CFI VB load(1, XDATA, add(CFA_XSP16, literal(-21)))
          CFI V0 load(1, XDATA, add(CFA_XSP16, literal(-20)))
          CFI V1 load(1, XDATA, add(CFA_XSP16, literal(-19)))
          CFI V2 load(1, XDATA, add(CFA_XSP16, literal(-18)))
          CFI V3 load(1, XDATA, add(CFA_XSP16, literal(-17)))
          CFI V4 load(1, XDATA, add(CFA_XSP16, literal(-16)))
          CFI V5 load(1, XDATA, add(CFA_XSP16, literal(-15)))
          CFI V6 load(1, XDATA, add(CFA_XSP16, literal(-14)))
          CFI V7 load(1, XDATA, add(CFA_XSP16, literal(-13)))
          CFI V8 load(1, XDATA, add(CFA_XSP16, literal(-12)))
          CFI V9 load(1, XDATA, add(CFA_XSP16, literal(-11)))
          CFI V10 load(1, XDATA, add(CFA_XSP16, literal(-10)))
          CFI V11 load(1, XDATA, add(CFA_XSP16, literal(-9)))
          CFI V12 load(1, XDATA, add(CFA_XSP16, literal(-8)))
          CFI V13 load(1, XDATA, add(CFA_XSP16, literal(-7)))
          CFI R7 load(1, XDATA, add(CFA_XSP16, literal(-6)))
          CFI ?RET_LOW load(1, XDATA, add(CFA_XSP16, literal(-5)))
          CFI ?RET_HIGH load(1, XDATA, add(CFA_XSP16, literal(-4)))
          CFI ?BRET_EXT load(1, XDATA, add(CFA_XSP16, literal(-3)))
          CFI DPL0 load(1, XDATA, add(CFA_XSP16, literal(-2)))
          CFI DPH0 load(1, XDATA, add(CFA_XSP16, literal(-1)))
          CFI CFA_SP SP+0
          CFI CFA_XSP16 add(XSP16, 36)
          CFI Block cfiCond116 Using cfiCommon0
          CFI (cfiCond116) Function MT_AfDataRetrieve
          CFI (cfiCond116) Conditional ??CrossCallReturnLabel_97
          CFI (cfiCond116) R6 load(1, XDATA, add(CFA_XSP16, literal(-20)))
          CFI (cfiCond116) VB load(1, XDATA, add(CFA_XSP16, literal(-19)))
          CFI (cfiCond116) V0 load(1, XDATA, add(CFA_XSP16, literal(-18)))
          CFI (cfiCond116) V1 load(1, XDATA, add(CFA_XSP16, literal(-17)))
          CFI (cfiCond116) V2 load(1, XDATA, add(CFA_XSP16, literal(-16)))
          CFI (cfiCond116) V3 load(1, XDATA, add(CFA_XSP16, literal(-15)))
          CFI (cfiCond116) V4 load(1, XDATA, add(CFA_XSP16, literal(-14)))
          CFI (cfiCond116) V5 load(1, XDATA, add(CFA_XSP16, literal(-13)))
          CFI (cfiCond116) V6 load(1, XDATA, add(CFA_XSP16, literal(-12)))
          CFI (cfiCond116) V7 load(1, XDATA, add(CFA_XSP16, literal(-11)))
          CFI (cfiCond116) V8 load(1, XDATA, add(CFA_XSP16, literal(-10)))
          CFI (cfiCond116) V9 load(1, XDATA, add(CFA_XSP16, literal(-9)))
          CFI (cfiCond116) V10 load(1, XDATA, add(CFA_XSP16, literal(-8)))
          CFI (cfiCond116) V11 load(1, XDATA, add(CFA_XSP16, literal(-7)))
          CFI (cfiCond116) R7 load(1, XDATA, add(CFA_XSP16, literal(-6)))
          CFI (cfiCond116) ?RET_LOW load(1, XDATA, add(CFA_XSP16, literal(-5)))
          CFI (cfiCond116) ?RET_HIGH load(1, XDATA, add(CFA_XSP16, literal(-4)))
          CFI (cfiCond116) ?BRET_EXT load(1, XDATA, add(CFA_XSP16, literal(-3)))
          CFI (cfiCond116) DPL0 load(1, XDATA, add(CFA_XSP16, literal(-2)))
          CFI (cfiCond116) DPH0 load(1, XDATA, add(CFA_XSP16, literal(-1)))
          CFI (cfiCond116) CFA_SP SP+0
          CFI (cfiCond116) CFA_XSP16 add(XSP16, 20)
          CFI Block cfiPicker117 Using cfiCommon1
          CFI (cfiPicker117) NoFunction
          CFI (cfiPicker117) Picker
        MOV     DPL,R6
        MOV     DPH,R7
          CFI EndBlock cfiCond115
          CFI EndBlock cfiCond116
          CFI EndBlock cfiPicker117
        REQUIRE ??Subroutine48_0
        ; // Fall through to label ??Subroutine48_0

        RSEG BANKED_CODE:CODE:NOROOT(0)
??Subroutine48_0:
          CFI Block cfiCond118 Using cfiCommon0
          CFI Function MT_AfDataRequest
          CFI Conditional ??CrossCallReturnLabel_95
          CFI R6 load(1, XDATA, add(CFA_XSP16, literal(-22)))
          CFI VB load(1, XDATA, add(CFA_XSP16, literal(-21)))
          CFI V0 load(1, XDATA, add(CFA_XSP16, literal(-20)))
          CFI V1 load(1, XDATA, add(CFA_XSP16, literal(-19)))
          CFI V2 load(1, XDATA, add(CFA_XSP16, literal(-18)))
          CFI V3 load(1, XDATA, add(CFA_XSP16, literal(-17)))
          CFI V4 load(1, XDATA, add(CFA_XSP16, literal(-16)))
          CFI V5 load(1, XDATA, add(CFA_XSP16, literal(-15)))
          CFI V6 load(1, XDATA, add(CFA_XSP16, literal(-14)))
          CFI V7 load(1, XDATA, add(CFA_XSP16, literal(-13)))
          CFI V8 load(1, XDATA, add(CFA_XSP16, literal(-12)))
          CFI V9 load(1, XDATA, add(CFA_XSP16, literal(-11)))
          CFI V10 load(1, XDATA, add(CFA_XSP16, literal(-10)))
          CFI V11 load(1, XDATA, add(CFA_XSP16, literal(-9)))
          CFI V12 load(1, XDATA, add(CFA_XSP16, literal(-8)))
          CFI V13 load(1, XDATA, add(CFA_XSP16, literal(-7)))
          CFI R7 load(1, XDATA, add(CFA_XSP16, literal(-6)))
          CFI ?RET_LOW load(1, XDATA, add(CFA_XSP16, literal(-5)))
          CFI ?RET_HIGH load(1, XDATA, add(CFA_XSP16, literal(-4)))
          CFI ?BRET_EXT load(1, XDATA, add(CFA_XSP16, literal(-3)))
          CFI DPL0 load(1, XDATA, add(CFA_XSP16, literal(-2)))
          CFI DPH0 load(1, XDATA, add(CFA_XSP16, literal(-1)))
          CFI CFA_SP SP+0
          CFI CFA_XSP16 add(XSP16, 36)
          CFI Block cfiCond119 Using cfiCommon0
          CFI (cfiCond119) Function MT_AfDataRequestSrcRtg
          CFI (cfiCond119) Conditional ??CrossCallReturnLabel_96
          CFI (cfiCond119) R6 load(1, XDATA, add(CFA_XSP16, literal(-22)))
          CFI (cfiCond119) VB load(1, XDATA, add(CFA_XSP16, literal(-21)))
          CFI (cfiCond119) V0 load(1, XDATA, add(CFA_XSP16, literal(-20)))
          CFI (cfiCond119) V1 load(1, XDATA, add(CFA_XSP16, literal(-19)))
          CFI (cfiCond119) V2 load(1, XDATA, add(CFA_XSP16, literal(-18)))
          CFI (cfiCond119) V3 load(1, XDATA, add(CFA_XSP16, literal(-17)))
          CFI (cfiCond119) V4 load(1, XDATA, add(CFA_XSP16, literal(-16)))
          CFI (cfiCond119) V5 load(1, XDATA, add(CFA_XSP16, literal(-15)))
          CFI (cfiCond119) V6 load(1, XDATA, add(CFA_XSP16, literal(-14)))
          CFI (cfiCond119) V7 load(1, XDATA, add(CFA_XSP16, literal(-13)))
          CFI (cfiCond119) V8 load(1, XDATA, add(CFA_XSP16, literal(-12)))
          CFI (cfiCond119) V9 load(1, XDATA, add(CFA_XSP16, literal(-11)))
          CFI (cfiCond119) V10 load(1, XDATA, add(CFA_XSP16, literal(-10)))
          CFI (cfiCond119) V11 load(1, XDATA, add(CFA_XSP16, literal(-9)))
          CFI (cfiCond119) V12 load(1, XDATA, add(CFA_XSP16, literal(-8)))
          CFI (cfiCond119) V13 load(1, XDATA, add(CFA_XSP16, literal(-7)))
          CFI (cfiCond119) R7 load(1, XDATA, add(CFA_XSP16, literal(-6)))
          CFI (cfiCond119) ?RET_LOW load(1, XDATA, add(CFA_XSP16, literal(-5)))
          CFI (cfiCond119) ?RET_HIGH load(1, XDATA, add(CFA_XSP16, literal(-4)))
          CFI (cfiCond119) ?BRET_EXT load(1, XDATA, add(CFA_XSP16, literal(-3)))
          CFI (cfiCond119) DPL0 load(1, XDATA, add(CFA_XSP16, literal(-2)))
          CFI (cfiCond119) DPH0 load(1, XDATA, add(CFA_XSP16, literal(-1)))
          CFI (cfiCond119) CFA_SP SP+0
          CFI (cfiCond119) CFA_XSP16 add(XSP16, 36)
          CFI Block cfiCond120 Using cfiCommon0
          CFI (cfiCond120) Function MT_AfDataRetrieve
          CFI (cfiCond120) Conditional ??CrossCallReturnLabel_97
          CFI (cfiCond120) R6 load(1, XDATA, add(CFA_XSP16, literal(-20)))
          CFI (cfiCond120) VB load(1, XDATA, add(CFA_XSP16, literal(-19)))
          CFI (cfiCond120) V0 load(1, XDATA, add(CFA_XSP16, literal(-18)))
          CFI (cfiCond120) V1 load(1, XDATA, add(CFA_XSP16, literal(-17)))
          CFI (cfiCond120) V2 load(1, XDATA, add(CFA_XSP16, literal(-16)))
          CFI (cfiCond120) V3 load(1, XDATA, add(CFA_XSP16, literal(-15)))
          CFI (cfiCond120) V4 load(1, XDATA, add(CFA_XSP16, literal(-14)))
          CFI (cfiCond120) V5 load(1, XDATA, add(CFA_XSP16, literal(-13)))
          CFI (cfiCond120) V6 load(1, XDATA, add(CFA_XSP16, literal(-12)))
          CFI (cfiCond120) V7 load(1, XDATA, add(CFA_XSP16, literal(-11)))
          CFI (cfiCond120) V8 load(1, XDATA, add(CFA_XSP16, literal(-10)))
          CFI (cfiCond120) V9 load(1, XDATA, add(CFA_XSP16, literal(-9)))
          CFI (cfiCond120) V10 load(1, XDATA, add(CFA_XSP16, literal(-8)))
          CFI (cfiCond120) V11 load(1, XDATA, add(CFA_XSP16, literal(-7)))
          CFI (cfiCond120) R7 load(1, XDATA, add(CFA_XSP16, literal(-6)))
          CFI (cfiCond120) ?RET_LOW load(1, XDATA, add(CFA_XSP16, literal(-5)))
          CFI (cfiCond120) ?RET_HIGH load(1, XDATA, add(CFA_XSP16, literal(-4)))
          CFI (cfiCond120) ?BRET_EXT load(1, XDATA, add(CFA_XSP16, literal(-3)))
          CFI (cfiCond120) DPL0 load(1, XDATA, add(CFA_XSP16, literal(-2)))
          CFI (cfiCond120) DPH0 load(1, XDATA, add(CFA_XSP16, literal(-1)))
          CFI (cfiCond120) CFA_SP SP+0
          CFI (cfiCond120) CFA_XSP16 add(XSP16, 20)
          CFI Block cfiPicker121 Using cfiCommon1
          CFI (cfiPicker121) NoFunction
          CFI (cfiPicker121) Picker
        MOVX    A,@DPTR
        MOV     R2,A
        INC     DPTR
        MOVX    A,@DPTR
        MOV     R1,A
        MOV     A,R2
        ADD     A,#0x0
        RET
          CFI EndBlock cfiCond118
          CFI EndBlock cfiCond119
          CFI EndBlock cfiCond120
          CFI EndBlock cfiPicker121
//  515 #endif
//  516 
//  517 #if defined INTER_PAN
//  518 /***************************************************************************************************
//  519  * @fn      MT_AfInterPanCtl
//  520  *
//  521  * @brief   Process the AF Inter Pan control command.
//  522  *
//  523  * @param   pBuf - pointer to the received buffer
//  524  *
//  525  * @return  none
//  526  ***************************************************************************************************/
//  527 static void MT_AfInterPanCtl(uint8 *pBuf)
//  528 {
//  529   uint8 cmd, rtrn;
//  530   uint16 panId;
//  531   endPointDesc_t *pEP;
//  532 
//  533   cmd = pBuf[MT_RPC_POS_CMD1];
//  534   pBuf += MT_RPC_FRAME_HDR_SZ;
//  535 
//  536   switch (*pBuf++)  // Inter-pan request parameter.
//  537   {
//  538   case InterPanClr:
//  539     rtrn = StubAPS_SetIntraPanChannel();           // Switch channel back to the NIB channel.
//  540     break;
//  541 
//  542   case InterPanSet:
//  543     rtrn = StubAPS_SetInterPanChannel(*pBuf);      // Set channel for inter-pan communication.
//  544     break;
//  545 
//  546   case InterPanReg:
//  547     if ((pEP = afFindEndPointDesc(*pBuf)))
//  548     {
//  549       StubAPS_RegisterApp(pEP);
//  550       rtrn = SUCCESS;
//  551     }
//  552     else
//  553     {
//  554       rtrn = FAILURE;
//  555     }
//  556     break;
//  557 
//  558   case InterPanChk:
//  559     panId = BUILD_UINT16(pBuf[0], pBuf[1]);
//  560     rtrn = (StubAPS_InterPan(panId, pBuf[2])) ? ZSuccess : ZFailure;
//  561     break;
//  562 
//  563   default:
//  564     rtrn = afStatus_INVALID_PARAMETER;
//  565     break;
//  566   }
//  567 
//  568   MT_BuildAndSendZToolResponse(((uint8)MT_RPC_CMD_SRSP | (uint8)MT_RPC_SYS_AF), cmd, 1, &rtrn);
//  569 }
//  570 #endif
//  571 
//  572 /***************************************************************************************************
//  573  * @fn      MT_AfDataConfirm
//  574  *
//  575  * @brief   Process
//  576  *
//  577  * @param   pBuf - pointer to the received buffer
//  578  *
//  579  * @return  none
//  580  ***************************************************************************************************/

        RSEG BANKED_CODE:CODE:NOROOT(0)
//  581 void MT_AfDataConfirm(afDataConfirm_t *pMsg)
MT_AfDataConfirm:
          CFI Block cfiBlock122 Using cfiCommon0
          CFI Function MT_AfDataConfirm
        CODE
//  582 {
        FUNCALL MT_AfDataConfirm, MT_BuildAndSendZToolResponse
        LOCFRAME ISTACK, 2, STACK
        LOCFRAME PSTACK, 0, STACK
        LOCFRAME XSTACK, 3, STACK
        LOCFRAME IOVERLAY, 0, STATIC
        LOCFRAME DOVERLAY, 0, STATIC
        ARGFRAME ISTACK, 2, STACK
        ARGFRAME PSTACK, 0, STACK
        ARGFRAME XSTACK, 3, STACK
        ARGFRAME IOVERLAY, 0, STATIC
        ARGFRAME DOVERLAY, 0, STATIC
        PUSH    DPL
          CFI DPL0 Frame(CFA_SP, 4)
          CFI CFA_SP SP+-4
        PUSH    DPH
          CFI DPH0 Frame(CFA_SP, 5)
          CFI CFA_SP SP+-5
        ; Saved register size: 2
        ; Auto size: 3
        MOV     A,#-0x3
        LCALL   ?ALLOC_XSTACK8
          CFI CFA_XSP16 add(XSP16, 3)
//  583   uint8 retArray[3];
//  584 
//  585   retArray[0] = pMsg->hdr.status;
        MOV     DPL,R2
        MOV     DPH,R3
        INC     DPTR
        MOVX    A,@DPTR
        MOV     DPL,?XSP + 0
        MOV     DPH,?XSP + 1
        LCALL   ?Subroutine30 & 0xFFFF
//  586   retArray[1] = pMsg->endpoint;
??CrossCallReturnLabel_50:
        PUSH    A
          CFI CFA_SP SP+-6
        MOV     A,#0x1
        LCALL   ?XSTACK_DISP0_8
        POP     A
          CFI CFA_SP SP+-5
        LCALL   ?Subroutine31 & 0xFFFF
//  587   retArray[2] = pMsg->transID;
??CrossCallReturnLabel_52:
        INC     DPTR
        INC     DPTR
        MOVX    A,@DPTR
        PUSH    A
          CFI CFA_SP SP+-6
        MOV     A,#0x2
        LCALL   ?XSTACK_DISP0_8
        POP     A
          CFI CFA_SP SP+-5
        LCALL   ?Subroutine26 & 0xFFFF
//  588 
//  589   /* Build and send back the response */
//  590   MT_BuildAndSendZToolResponse(((uint8)MT_RPC_CMD_AREQ | (uint8)MT_RPC_SYS_AF), MT_AF_DATA_CONFIRM, 3, retArray);
??CrossCallReturnLabel_39:
        MOV     R3,#0x3
        MOV     R2,#-0x80
        MOV     R1,#0x44
        LCALL   ??MT_BuildAndSendZToolResponse?relay
//  591 }
        MOV     A,#0x3
        LCALL   ?DEALLOC_XSTACK8
          CFI CFA_XSP16 XSP16+0
        POP     DPH
          CFI DPH0 SameValue
          CFI CFA_SP SP+-4
        POP     DPL
          CFI DPL0 SameValue
          CFI CFA_SP SP+-3
        LJMP    ?BRET
          CFI EndBlock cfiBlock122

        RSEG BANKED_CODE:CODE:NOROOT(0)
?Subroutine31:
          CFI Block cfiCond123 Using cfiCommon0
          CFI Function MT_AfDataRequest
          CFI Conditional ??CrossCallReturnLabel_51
          CFI R6 load(1, XDATA, add(CFA_XSP16, literal(-22)))
          CFI VB load(1, XDATA, add(CFA_XSP16, literal(-21)))
          CFI V0 load(1, XDATA, add(CFA_XSP16, literal(-20)))
          CFI V1 load(1, XDATA, add(CFA_XSP16, literal(-19)))
          CFI V2 load(1, XDATA, add(CFA_XSP16, literal(-18)))
          CFI V3 load(1, XDATA, add(CFA_XSP16, literal(-17)))
          CFI V4 load(1, XDATA, add(CFA_XSP16, literal(-16)))
          CFI V5 load(1, XDATA, add(CFA_XSP16, literal(-15)))
          CFI V6 load(1, XDATA, add(CFA_XSP16, literal(-14)))
          CFI V7 load(1, XDATA, add(CFA_XSP16, literal(-13)))
          CFI V8 load(1, XDATA, add(CFA_XSP16, literal(-12)))
          CFI V9 load(1, XDATA, add(CFA_XSP16, literal(-11)))
          CFI V10 load(1, XDATA, add(CFA_XSP16, literal(-10)))
          CFI V11 load(1, XDATA, add(CFA_XSP16, literal(-9)))
          CFI V12 load(1, XDATA, add(CFA_XSP16, literal(-8)))
          CFI V13 load(1, XDATA, add(CFA_XSP16, literal(-7)))
          CFI R7 load(1, XDATA, add(CFA_XSP16, literal(-6)))
          CFI ?RET_LOW load(1, XDATA, add(CFA_XSP16, literal(-5)))
          CFI ?RET_HIGH load(1, XDATA, add(CFA_XSP16, literal(-4)))
          CFI ?BRET_EXT load(1, XDATA, add(CFA_XSP16, literal(-3)))
          CFI DPL0 load(1, XDATA, add(CFA_XSP16, literal(-2)))
          CFI DPH0 load(1, XDATA, add(CFA_XSP16, literal(-1)))
          CFI CFA_SP SP+0
          CFI CFA_XSP16 add(XSP16, 36)
          CFI Block cfiCond124 Using cfiCommon0
          CFI (cfiCond124) Function MT_AfDataConfirm
          CFI (cfiCond124) Conditional ??CrossCallReturnLabel_52
          CFI (cfiCond124) DPL0 Frame(CFA_SP, 4)
          CFI (cfiCond124) DPH0 Frame(CFA_SP, 5)
          CFI (cfiCond124) CFA_SP SP+-5
          CFI (cfiCond124) CFA_XSP16 add(XSP16, 3)
          CFI Block cfiCond125 Using cfiCommon0
          CFI (cfiCond125) Function MT_AfIncomingMsg
          CFI (cfiCond125) Conditional ??CrossCallReturnLabel_53
          CFI (cfiCond125) R6 load(1, XDATA, add(CFA_XSP16, literal(-24)))
          CFI (cfiCond125) VB load(1, XDATA, add(CFA_XSP16, literal(-23)))
          CFI (cfiCond125) V0 load(1, XDATA, add(CFA_XSP16, literal(-22)))
          CFI (cfiCond125) V1 load(1, XDATA, add(CFA_XSP16, literal(-21)))
          CFI (cfiCond125) V2 load(1, XDATA, add(CFA_XSP16, literal(-20)))
          CFI (cfiCond125) V3 load(1, XDATA, add(CFA_XSP16, literal(-19)))
          CFI (cfiCond125) V4 load(1, XDATA, add(CFA_XSP16, literal(-18)))
          CFI (cfiCond125) V5 load(1, XDATA, add(CFA_XSP16, literal(-17)))
          CFI (cfiCond125) V6 load(1, XDATA, add(CFA_XSP16, literal(-16)))
          CFI (cfiCond125) V7 load(1, XDATA, add(CFA_XSP16, literal(-15)))
          CFI (cfiCond125) V8 load(1, XDATA, add(CFA_XSP16, literal(-14)))
          CFI (cfiCond125) V9 load(1, XDATA, add(CFA_XSP16, literal(-13)))
          CFI (cfiCond125) V10 load(1, XDATA, add(CFA_XSP16, literal(-12)))
          CFI (cfiCond125) V11 load(1, XDATA, add(CFA_XSP16, literal(-11)))
          CFI (cfiCond125) V12 load(1, XDATA, add(CFA_XSP16, literal(-10)))
          CFI (cfiCond125) V13 load(1, XDATA, add(CFA_XSP16, literal(-9)))
          CFI (cfiCond125) V14 load(1, XDATA, add(CFA_XSP16, literal(-8)))
          CFI (cfiCond125) V15 load(1, XDATA, add(CFA_XSP16, literal(-7)))
          CFI (cfiCond125) R7 load(1, XDATA, add(CFA_XSP16, literal(-6)))
          CFI (cfiCond125) ?RET_LOW load(1, XDATA, add(CFA_XSP16, literal(-5)))
          CFI (cfiCond125) ?RET_HIGH load(1, XDATA, add(CFA_XSP16, literal(-4)))
          CFI (cfiCond125) ?BRET_EXT load(1, XDATA, add(CFA_XSP16, literal(-3)))
          CFI (cfiCond125) DPL0 load(1, XDATA, add(CFA_XSP16, literal(-2)))
          CFI (cfiCond125) DPH0 load(1, XDATA, add(CFA_XSP16, literal(-1)))
          CFI (cfiCond125) CFA_SP SP+0
          CFI (cfiCond125) CFA_XSP16 add(XSP16, 25)
          CFI Block cfiPicker126 Using cfiCommon1
          CFI (cfiPicker126) NoFunction
          CFI (cfiPicker126) Picker
        MOVX    @DPTR,A
        MOV     DPL,R2
        MOV     DPH,R3
        INC     DPTR
        RET
          CFI EndBlock cfiCond123
          CFI EndBlock cfiCond124
          CFI EndBlock cfiCond125
          CFI EndBlock cfiPicker126

        RSEG BANKED_CODE:CODE:NOROOT(0)
?Subroutine30:
          CFI Block cfiCond127 Using cfiCommon0
          CFI Function MT_AfRegister
          CFI Conditional ??CrossCallReturnLabel_49
          CFI R6 load(1, XDATA, add(CFA_XSP16, literal(-14)))
          CFI VB load(1, XDATA, add(CFA_XSP16, literal(-13)))
          CFI V0 load(1, XDATA, add(CFA_XSP16, literal(-12)))
          CFI V1 load(1, XDATA, add(CFA_XSP16, literal(-11)))
          CFI V2 load(1, XDATA, add(CFA_XSP16, literal(-10)))
          CFI V3 load(1, XDATA, add(CFA_XSP16, literal(-9)))
          CFI V4 load(1, XDATA, add(CFA_XSP16, literal(-8)))
          CFI V5 load(1, XDATA, add(CFA_XSP16, literal(-7)))
          CFI R7 load(1, XDATA, add(CFA_XSP16, literal(-6)))
          CFI ?RET_LOW load(1, XDATA, add(CFA_XSP16, literal(-5)))
          CFI ?RET_HIGH load(1, XDATA, add(CFA_XSP16, literal(-4)))
          CFI ?BRET_EXT load(1, XDATA, add(CFA_XSP16, literal(-3)))
          CFI DPL0 load(1, XDATA, add(CFA_XSP16, literal(-2)))
          CFI DPH0 load(1, XDATA, add(CFA_XSP16, literal(-1)))
          CFI CFA_SP SP+0
          CFI CFA_XSP16 add(XSP16, 15)
          CFI Block cfiCond128 Using cfiCommon0
          CFI (cfiCond128) Function MT_AfDataConfirm
          CFI (cfiCond128) Conditional ??CrossCallReturnLabel_50
          CFI (cfiCond128) DPL0 Frame(CFA_SP, 4)
          CFI (cfiCond128) DPH0 Frame(CFA_SP, 5)
          CFI (cfiCond128) CFA_SP SP+-5
          CFI (cfiCond128) CFA_XSP16 add(XSP16, 3)
          CFI Block cfiPicker129 Using cfiCommon1
          CFI (cfiPicker129) NoFunction
          CFI (cfiPicker129) Picker
        MOVX    @DPTR,A
        MOV     DPL,R2
        MOV     DPH,R3
        INC     DPTR
        INC     DPTR
        MOVX    A,@DPTR
        RET
          CFI EndBlock cfiCond127
          CFI EndBlock cfiCond128
          CFI EndBlock cfiPicker129
//  592 
//  593 /***************************************************************************************************
//  594  * @fn          MT_AfIncomingMsg
//  595  *
//  596  * @brief       Process the callback subscription for AF Incoming data.
//  597  *
//  598  * @param       pkt - Incoming AF data.
//  599  *
//  600  * @return      none
//  601  ***************************************************************************************************/

        RSEG BANKED_CODE:CODE:NOROOT(0)
//  602 void MT_AfIncomingMsg(afIncomingMSGPacket_t *pMsg)
MT_AfIncomingMsg:
          CFI Block cfiBlock130 Using cfiCommon0
          CFI Function MT_AfIncomingMsg
        CODE
//  603 {
        FUNCALL MT_AfIncomingMsg, osal_mem_alloc
        LOCFRAME ISTACK, 0, STACK
        LOCFRAME PSTACK, 0, STACK
        LOCFRAME XSTACK, 25, STACK
        LOCFRAME IOVERLAY, 0, STATIC
        LOCFRAME DOVERLAY, 0, STATIC
        ARGFRAME ISTACK, 0, STACK
        ARGFRAME PSTACK, 0, STACK
        ARGFRAME XSTACK, 25, STACK
        ARGFRAME IOVERLAY, 0, STATIC
        ARGFRAME DOVERLAY, 0, STATIC
        FUNCALL MT_AfIncomingMsg, osal_mem_alloc
        LOCFRAME ISTACK, 0, STACK
        LOCFRAME PSTACK, 0, STACK
        LOCFRAME XSTACK, 25, STACK
        LOCFRAME IOVERLAY, 0, STATIC
        LOCFRAME DOVERLAY, 0, STATIC
        ARGFRAME ISTACK, 0, STACK
        ARGFRAME PSTACK, 0, STACK
        ARGFRAME XSTACK, 25, STACK
        ARGFRAME IOVERLAY, 0, STATIC
        ARGFRAME DOVERLAY, 0, STATIC
        FUNCALL MT_AfIncomingMsg, osal_mem_free
        LOCFRAME ISTACK, 0, STACK
        LOCFRAME PSTACK, 0, STACK
        LOCFRAME XSTACK, 25, STACK
        LOCFRAME IOVERLAY, 0, STATIC
        LOCFRAME DOVERLAY, 0, STATIC
        ARGFRAME ISTACK, 0, STACK
        ARGFRAME PSTACK, 0, STACK
        ARGFRAME XSTACK, 25, STACK
        ARGFRAME IOVERLAY, 0, STATIC
        ARGFRAME DOVERLAY, 0, STATIC
        FUNCALL MT_AfIncomingMsg, osal_memcpy
        LOCFRAME ISTACK, 0, STACK
        LOCFRAME PSTACK, 0, STACK
        LOCFRAME XSTACK, 28, STACK
        LOCFRAME IOVERLAY, 0, STATIC
        LOCFRAME DOVERLAY, 0, STATIC
        ARGFRAME ISTACK, 0, STACK
        ARGFRAME PSTACK, 0, STACK
        ARGFRAME XSTACK, 28, STACK
        ARGFRAME IOVERLAY, 0, STATIC
        ARGFRAME DOVERLAY, 0, STATIC
        FUNCALL MT_AfIncomingMsg, osal_start_timerEx
        LOCFRAME ISTACK, 0, STACK
        LOCFRAME PSTACK, 0, STACK
        LOCFRAME XSTACK, 25, STACK
        LOCFRAME IOVERLAY, 0, STATIC
        LOCFRAME DOVERLAY, 0, STATIC
        ARGFRAME ISTACK, 0, STACK
        ARGFRAME PSTACK, 0, STACK
        ARGFRAME XSTACK, 25, STACK
        ARGFRAME IOVERLAY, 0, STATIC
        ARGFRAME DOVERLAY, 0, STATIC
        FUNCALL MT_AfIncomingMsg, osal_set_event
        LOCFRAME ISTACK, 0, STACK
        LOCFRAME PSTACK, 0, STACK
        LOCFRAME XSTACK, 25, STACK
        LOCFRAME IOVERLAY, 0, STATIC
        LOCFRAME DOVERLAY, 0, STATIC
        ARGFRAME ISTACK, 0, STACK
        ARGFRAME PSTACK, 0, STACK
        ARGFRAME XSTACK, 25, STACK
        ARGFRAME IOVERLAY, 0, STATIC
        ARGFRAME DOVERLAY, 0, STATIC
        FUNCALL MT_AfIncomingMsg, osal_memcpy
        LOCFRAME ISTACK, 0, STACK
        LOCFRAME PSTACK, 0, STACK
        LOCFRAME XSTACK, 28, STACK
        LOCFRAME IOVERLAY, 0, STATIC
        LOCFRAME DOVERLAY, 0, STATIC
        ARGFRAME ISTACK, 0, STACK
        ARGFRAME PSTACK, 0, STACK
        ARGFRAME XSTACK, 28, STACK
        ARGFRAME IOVERLAY, 0, STATIC
        ARGFRAME DOVERLAY, 0, STATIC
        FUNCALL MT_AfIncomingMsg, osal_memcpy
        LOCFRAME ISTACK, 0, STACK
        LOCFRAME PSTACK, 0, STACK
        LOCFRAME XSTACK, 28, STACK
        LOCFRAME IOVERLAY, 0, STATIC
        LOCFRAME DOVERLAY, 0, STATIC
        ARGFRAME ISTACK, 0, STACK
        ARGFRAME PSTACK, 0, STACK
        ARGFRAME XSTACK, 28, STACK
        ARGFRAME IOVERLAY, 0, STATIC
        ARGFRAME DOVERLAY, 0, STATIC
        FUNCALL MT_AfIncomingMsg, MT_BuildAndSendZToolResponse
        LOCFRAME ISTACK, 0, STACK
        LOCFRAME PSTACK, 0, STACK
        LOCFRAME XSTACK, 25, STACK
        LOCFRAME IOVERLAY, 0, STATIC
        LOCFRAME DOVERLAY, 0, STATIC
        ARGFRAME ISTACK, 0, STACK
        ARGFRAME PSTACK, 0, STACK
        ARGFRAME XSTACK, 25, STACK
        ARGFRAME IOVERLAY, 0, STATIC
        ARGFRAME DOVERLAY, 0, STATIC
        FUNCALL MT_AfIncomingMsg, osal_mem_free
        LOCFRAME ISTACK, 0, STACK
        LOCFRAME PSTACK, 0, STACK
        LOCFRAME XSTACK, 25, STACK
        LOCFRAME IOVERLAY, 0, STATIC
        LOCFRAME DOVERLAY, 0, STATIC
        ARGFRAME ISTACK, 0, STACK
        ARGFRAME PSTACK, 0, STACK
        ARGFRAME XSTACK, 25, STACK
        ARGFRAME IOVERLAY, 0, STATIC
        ARGFRAME DOVERLAY, 0, STATIC
        MOV     A,#-0x18
        LCALL   ?BANKED_ENTER_XDATA
          CFI DPH0 load(1, XDATA, add(CFA_XSP16, literal(-1)))
          CFI DPL0 load(1, XDATA, add(CFA_XSP16, literal(-2)))
          CFI ?BRET_EXT load(1, XDATA, add(CFA_XSP16, literal(-3)))
          CFI ?RET_HIGH load(1, XDATA, add(CFA_XSP16, literal(-4)))
          CFI ?RET_LOW load(1, XDATA, add(CFA_XSP16, literal(-5)))
          CFI R7 load(1, XDATA, add(CFA_XSP16, literal(-6)))
          CFI V15 load(1, XDATA, add(CFA_XSP16, literal(-7)))
          CFI V14 load(1, XDATA, add(CFA_XSP16, literal(-8)))
          CFI V13 load(1, XDATA, add(CFA_XSP16, literal(-9)))
          CFI V12 load(1, XDATA, add(CFA_XSP16, literal(-10)))
          CFI V11 load(1, XDATA, add(CFA_XSP16, literal(-11)))
          CFI V10 load(1, XDATA, add(CFA_XSP16, literal(-12)))
          CFI V9 load(1, XDATA, add(CFA_XSP16, literal(-13)))
          CFI V8 load(1, XDATA, add(CFA_XSP16, literal(-14)))
          CFI V7 load(1, XDATA, add(CFA_XSP16, literal(-15)))
          CFI V6 load(1, XDATA, add(CFA_XSP16, literal(-16)))
          CFI V5 load(1, XDATA, add(CFA_XSP16, literal(-17)))
          CFI V4 load(1, XDATA, add(CFA_XSP16, literal(-18)))
          CFI V3 load(1, XDATA, add(CFA_XSP16, literal(-19)))
          CFI V2 load(1, XDATA, add(CFA_XSP16, literal(-20)))
          CFI V1 load(1, XDATA, add(CFA_XSP16, literal(-21)))
          CFI V0 load(1, XDATA, add(CFA_XSP16, literal(-22)))
          CFI VB load(1, XDATA, add(CFA_XSP16, literal(-23)))
          CFI R6 load(1, XDATA, add(CFA_XSP16, literal(-24)))
          CFI CFA_SP SP+0
          CFI CFA_XSP16 add(XSP16, 24)
        ; Saved register size: 24
        ; Auto size: 1
        MOV     A,#-0x1
        LCALL   ?ALLOC_XSTACK8
          CFI CFA_XSP16 add(XSP16, 25)
        MOV     ?V0 + 8,R2
        MOV     ?V0 + 9,R3
//  604   #define MT_AF_INC_MSG_LEN  17
//  605   #define MT_AF_INC_MSG_EXT  10
//  606 
//  607   uint16 dataLen = pMsg->cmd.DataLength;  // Length of the data section in the response packet.
        MOV     A,R2
        ADD     A,#0x20
        MOV     DPL,A
        MOV     A,R3
        LCALL   ??Subroutine44_0 & 0xFFFF
??CrossCallReturnLabel_72:
        MOVX    A,@DPTR
        MOV     R6,A
        INC     DPTR
        MOVX    A,@DPTR
        MOV     R7,A
//  608   uint16 respLen = MT_AF_INC_MSG_LEN + dataLen;
        MOV     A,R6
        ADD     A,#0x11
        MOV     ?V0 + 0,A
        MOV     A,R7
        ADDC    A,#0x0
        MOV     ?V0 + 1,A
//  609   uint8 cmd = MT_AF_INCOMING_MSG;
        MOV     DPL,?XSP + 0
        MOV     DPH,?XSP + 1
        MOV     A,#-0x7f
        MOVX    @DPTR,A
//  610   uint8 *pRsp, *pTmp;
//  611   mtAfInMsgList_t *pItem = NULL;
        MOV     ?V0 + 10,#0x0
        MOV     ?V0 + 11,#0x0
//  612 
//  613 #if defined INTER_PAN
//  614   if (StubAPS_InterPan(pMsg->srcAddr.panId, pMsg->srcAddr.endPoint))
//  615   {
//  616     cmd = MT_AF_INCOMING_MSG_EXT;
//  617   }
//  618   else
//  619 #endif
//  620   if ((pMsg->srcAddr.addrMode == afAddr64Bit) ||
//  621       (respLen > (uint16)(MT_RPC_DATA_MAX - MT_AF_INC_MSG_EXT)))
        MOV     A,R2
        ADD     A,#0xe
        MOV     ?V0 + 4,A
        MOV     A,R3
        ADDC    A,#0x0
        MOV     ?V0 + 5,A
        MOV     DPL,?V0 + 4
        MOV     DPH,A
        MOVX    A,@DPTR
        XRL     A,#0x3
        JZ      ??MT_AfIncomingMsg_0
        CLR     C
        MOV     A,?V0 + 0
        SUBB    A,#-0xf
        MOV     A,?V0 + 1
        SUBB    A,#0x0
        JC      ??MT_AfIncomingMsg_1
//  622   {
//  623     cmd = MT_AF_INCOMING_MSG_EXT;
??MT_AfIncomingMsg_0:
        MOV     DPL,?XSP + 0
        MOV     DPH,?XSP + 1
        MOV     A,#-0x7e
        MOVX    @DPTR,A
//  624   }
//  625 
//  626   if (cmd == MT_AF_INCOMING_MSG_EXT)
//  627   {
//  628     respLen += MT_AF_INC_MSG_EXT;
        MOV     A,?V0 + 0
        ADD     A,#0xa
        MOV     ?V0 + 0,A
        MOV     A,?V0 + 1
        ADDC    A,#0x0
        MOV     ?V0 + 1,A
//  629   }
//  630 
//  631   if (respLen > (uint16)MT_RPC_DATA_MAX)
??MT_AfIncomingMsg_1:
        CLR     C
        MOV     A,?V0 + 0
        SUBB    A,#-0x5
        MOV     A,?V0 + 1
        SUBB    A,#0x0
        JC      ??MT_AfIncomingMsg_2
//  632   {
//  633     if ((pItem = (mtAfInMsgList_t *)osal_mem_alloc(sizeof(mtAfInMsgList_t) + dataLen)) == NULL)
        ; Setup parameters for call to function osal_mem_alloc
        MOV     A,R6
        ADD     A,#0x9
        MOV     R2,A
        MOV     A,R7
        ADDC    A,#0x0
        MOV     R3,A
        LCALL   ??osal_mem_alloc?relay
        MOV     ?V0 + 10,R2
        MOV     ?V0 + 11,R3
        MOV     A,R2
        ORL     A,?V0 + 11
        JNZ     $+5
        LJMP    ??MT_AfIncomingMsg_3 & 0xFFFF
//  634     {
//  635       return;  // If cannot hold a huge message, cannot give indication at all.
//  636     }
//  637 
//  638     pItem->data = (uint8 *)(pItem+1);
        MOV     A,R2
        ADD     A,#0x9
        MOV     R0,A
        MOV     A,R3
        ADDC    A,#0x0
        MOV     R1,A
        MOV     DPL,R2
        MOV     DPH,R3
        INC     DPTR
        INC     DPTR
        LCALL   ?Subroutine25 & 0xFFFF
//  639     respLen -= dataLen;  // Zero data bytes are sent with an over-sized incoming indication.
??CrossCallReturnLabel_36:
        CLR     C
        MOV     A,?V0 + 0
        SUBB    A,R6
        MOV     ?V0 + 0,A
        MOV     A,?V0 + 1
        SUBB    A,R7
        MOV     ?V0 + 1,A
//  640   }
//  641 
//  642   // Attempt to allocate memory for the response packet.
//  643   if ((pRsp = osal_mem_alloc(respLen)) == NULL)
??MT_AfIncomingMsg_2:
        ; Setup parameters for call to function osal_mem_alloc
        MOV     R2,?V0 + 0
        MOV     R3,?V0 + 1
        LCALL   ??osal_mem_alloc?relay
        MOV     ?V0 + 14,R2
        MOV     ?V0 + 15,R3
        MOV     A,R2
        ORL     A,?V0 + 15
        JNZ     ??MT_AfIncomingMsg_4
//  644   {
//  645     if (pItem != NULL)
        MOV     A,?V0 + 10
        ORL     A,?V0 + 11
        JNZ     $+5
        LJMP    ??MT_AfIncomingMsg_3 & 0xFFFF
//  646     {
//  647       (void)osal_mem_free(pItem);
        ; Setup parameters for call to function osal_mem_free
        MOV     R2,?V0 + 10
        MOV     R3,?V0 + 11
        LJMP    ??MT_AfIncomingMsg_5 & 0xFFFF
//  648     }
//  649     return;
//  650   }
//  651   pTmp = pRsp;
//  652 
//  653   /* Group ID */
//  654   *pTmp++ = LO_UINT16(pMsg->groupId);
??MT_AfIncomingMsg_4:
        MOV     A,?V0 + 8
        ADD     A,#0x2
        MOV     R0,A
        MOV     A,?V0 + 9
        ADDC    A,#0x0
        MOV     R1,A
        MOV     DPL,R0
        MOV     DPH,R1
        MOVX    A,@DPTR
        MOV     DPL,R2
        MOV     DPH,R3
        LCALL   ?Subroutine28 & 0xFFFF
//  655   *pTmp++ = HI_UINT16(pMsg->groupId);
??CrossCallReturnLabel_43:
        MOV     DPL,R0
        MOV     DPH,R1
        INC     DPTR
        LCALL   ??Subroutine50_0 & 0xFFFF
//  656 
//  657   /* Cluster ID */
//  658   *pTmp++ = LO_UINT16(pMsg->clusterId);
??CrossCallReturnLabel_108:
        ADD     A,#0x4
        MOV     R0,A
        MOV     A,?V0 + 9
        ADDC    A,#0x0
        MOV     R1,A
        MOV     DPL,R0
        MOV     DPH,R1
        LCALL   ?Subroutine5 & 0xFFFF
//  659   *pTmp++ = HI_UINT16(pMsg->clusterId);
??CrossCallReturnLabel_0:
        MOV     DPL,R0
        MOV     DPH,R1
        INC     DPTR
        LCALL   ?Subroutine5 & 0xFFFF
//  660 
//  661   if (cmd == MT_AF_INCOMING_MSG_EXT)
??CrossCallReturnLabel_1:
        INC     DPTR
        MOV     R0,DPL
        MOV     R1,DPH
        MOV     A,?V0 + 8
        ADD     A,#0xf
        MOV     ?V0 + 12,A
        MOV     A,?V0 + 9
        ADDC    A,#0x0
        MOV     ?V0 + 13,A
        MOV     A,?V0 + 8
        ADD     A,#0x6
        MOV     R2,A
        MOV     A,?V0 + 9
        ADDC    A,#0x0
        MOV     R3,A
        MOV     DPL,?XSP + 0
        MOV     DPH,?XSP + 1
        MOVX    A,@DPTR
        XRL     A,#0x82
        JNZ     ??MT_AfIncomingMsg_6
//  662   {
//  663     *pTmp++ = pMsg->srcAddr.addrMode;
        MOV     DPL,?V0 + 4
        MOV     DPH,?V0 + 5
        LCALL   ?Subroutine6 & 0xFFFF
??CrossCallReturnLabel_2:
        MOV     ?V0 + 2,R0
        MOV     ?V0 + 3,R1
//  664 
//  665     if (pMsg->srcAddr.addrMode == afAddr64Bit)
        MOV     DPL,?V0 + 4
        MOV     DPH,?V0 + 5
        MOVX    A,@DPTR
        XRL     A,#0x3
        JNZ     ??MT_AfIncomingMsg_7
//  666     {
//  667       (void)osal_memcpy(pTmp, pMsg->srcAddr.addr.extAddr, Z_EXTADDR_LEN);
        ; Setup parameters for call to function osal_memcpy
        MOV     ?V0 + 4,R2
        MOV     ?V0 + 5,R3
        MOV     ?V0 + 6,#0x0
        MOV     R0,#?V0 + 4
        LCALL   ?PUSH_XSTACK_I_THREE
          CFI CFA_XSP16 add(XSP16, 28)
        MOV     R4,#0x8
        MOV     R5,#0x0
        MOV     R2,?V0 + 2
        MOV     R3,?V0 + 3
        LCALL   ??osal_memcpy?relay
        MOV     A,#0x3
        LCALL   ?DEALLOC_XSTACK8
          CFI CFA_XSP16 add(XSP16, 25)
        SJMP    ??MT_AfIncomingMsg_8
//  668     }
//  669     else
//  670     {
//  671       pTmp[0] = LO_UINT16(pMsg->srcAddr.addr.shortAddr);
??MT_AfIncomingMsg_7:
        MOV     DPL,R2
        MOV     DPH,R3
        MOVX    A,@DPTR
        MOV     DPL,R0
        MOV     DPH,R1
        LCALL   ?Subroutine31 & 0xFFFF
//  672       pTmp[1] = HI_UINT16(pMsg->srcAddr.addr.shortAddr);
//  673     }
??CrossCallReturnLabel_53:
        MOVX    A,@DPTR
        MOV     DPL,R0
        MOV     DPH,R1
        INC     DPTR
        MOVX    @DPTR,A
//  674     pTmp += Z_EXTADDR_LEN;
??MT_AfIncomingMsg_8:
        MOV     A,?V0 + 2
        ADD     A,#0x8
        MOV     ?V0 + 2,A
        MOV     A,?V0 + 3
        ADDC    A,#0x0
        MOV     ?V0 + 3,A
//  675 
//  676     *pTmp++ = pMsg->srcAddr.endPoint;
        MOV     DPL,?V0 + 12
        MOV     DPH,?V0 + 13
        LCALL   ?Subroutine6 & 0xFFFF
??CrossCallReturnLabel_3:
        INC     DPTR
//  677 #if defined INTER_PAN
//  678     *pTmp++ = LO_UINT16(pMsg->srcAddr.panId);
//  679     *pTmp++ = HI_UINT16(pMsg->srcAddr.panId);
//  680 #else
//  681     *pTmp++ = 0;
        CLR     A
        MOVX    @DPTR,A
        INC     DPTR
//  682     *pTmp++ = 0;
        SJMP    ??MT_AfIncomingMsg_9
//  683 #endif
//  684   }
//  685   else
//  686   {
//  687     /* Source Address */
//  688     *pTmp++ = LO_UINT16(pMsg->srcAddr.addr.shortAddr);
??MT_AfIncomingMsg_6:
        MOV     DPL,R2
        MOV     DPH,R3
        LCALL   ?Subroutine6 & 0xFFFF
//  689     *pTmp++ = HI_UINT16(pMsg->srcAddr.addr.shortAddr);
??CrossCallReturnLabel_4:
        MOV     DPL,R2
        MOV     DPH,R3
        INC     DPTR
        MOVX    A,@DPTR
        MOV     DPL,R0
        MOV     DPH,R1
        LCALL   ?Subroutine28 & 0xFFFF
//  690 
//  691     /* Source EP */
//  692     *pTmp++ = pMsg->srcAddr.endPoint;
??CrossCallReturnLabel_44:
        MOV     DPL,?V0 + 12
        MOV     DPH,?V0 + 13
        MOVX    A,@DPTR
        MOV     DPL,?V0 + 2
        MOV     DPH,?V0 + 3
//  693   }
??MT_AfIncomingMsg_9:
        LCALL   ?Subroutine27 & 0xFFFF
//  694 
//  695   /* Destination EP */
//  696   *pTmp++ = pMsg->endPoint;
??CrossCallReturnLabel_41:
        ADD     A,#0x14
        LCALL   ?Subroutine3 & 0xFFFF
//  697 
//  698   /* WasBroadCast */
//  699   *pTmp++ = pMsg->wasBroadcast;
??CrossCallReturnLabel_104:
        ADD     A,#0x15
        LCALL   ?Subroutine3 & 0xFFFF
//  700 
//  701   /* LinkQuality */
//  702   *pTmp++ = pMsg->LinkQuality;
??CrossCallReturnLabel_105:
        ADD     A,#0x16
        LCALL   ?Subroutine3 & 0xFFFF
//  703 
//  704   /* SecurityUse */
//  705   *pTmp++ = pMsg->SecurityUse;
??CrossCallReturnLabel_106:
        ADD     A,#0x19
        LCALL   ?Subroutine3 & 0xFFFF
//  706 
//  707   /* Timestamp */
//  708   *pTmp++ = BREAK_UINT32(pMsg->timestamp, 0);
??CrossCallReturnLabel_107:
        ADD     A,#0x1a
        MOV     ?V0 + 12,A
        MOV     A,?V0 + 9
        ADDC    A,#0x0
        MOV     ?V0 + 13,A
        MOV     DPL,?V0 + 12
        MOV     DPH,A
        MOV     R0,#?V0 + 4
        LCALL   ?L_MOV_X
        LCALL   ?Subroutine22 & 0xFFFF
//  709   *pTmp++ = BREAK_UINT32(pMsg->timestamp, 1);
??CrossCallReturnLabel_98:
        LCALL   ?L_MOV_X
        MOV     A,?V0 + 5
        MOV     DPL,?V0 + 2
        MOV     DPH,?V0 + 3
        LCALL   ??Subroutine49_0 & 0xFFFF
//  710   *pTmp++ = BREAK_UINT32(pMsg->timestamp, 2);
??CrossCallReturnLabel_100:
        LCALL   ?L_MOV_X
        MOV     A,#0x10
        MOV     R0,#?V0 + 4
        LCALL   ?UL_SHR
        LCALL   ?Subroutine22 & 0xFFFF
//  711   *pTmp++ = BREAK_UINT32(pMsg->timestamp, 3);
??CrossCallReturnLabel_99:
        LCALL   ?L_MOV_X
        MOV     A,#0x18
        MOV     R0,#?V0 + 4
        LCALL   ?UL_SHR
        MOV     DPL,?V0 + 2
        MOV     DPH,?V0 + 3
        MOV     A,?V0 + 4
        LCALL   ?Subroutine28 & 0xFFFF
//  712 
//  713 
//  714   /* Data Length */
//  715   if (cmd == MT_AF_INCOMING_MSG_EXT)
??CrossCallReturnLabel_45:
        INC     DPTR
        MOV     R0,DPL
        MOV     R1,DPH
        MOV     DPL,?XSP + 0
        MOV     DPH,?XSP + 1
        MOVX    A,@DPTR
        XRL     A,#0x82
        JNZ     ??MT_AfIncomingMsg_10
//  716   {
//  717     /* Z-Tool apparently takes the last Byte before the data buffer as the dynamic length and
//  718      * ignores the bigger UInt16 length of an EXT incoming message. But no data bytes will be sent
//  719      * with a huge message, so it's necessary to work-around and fake-out Z-Tool with a zero here.
//  720      */
//  721     *pTmp++ = 0;  // TODO - workaround Z-Tool shortcoming; should be: = pMsg->cmd.TransSeqNumber;
        MOV     DPL,?V0 + 2
        MOV     DPH,?V0 + 3
        CLR     A
        MOVX    @DPTR,A
//  722     *pTmp++ = LO_UINT16(dataLen);
        MOV     A,R6
        MOV     DPL,R0
        MOV     DPH,R1
        MOVX    @DPTR,A
        INC     DPTR
//  723     *pTmp++ = HI_UINT16(dataLen);
        MOV     A,R7
        SJMP    ??MT_AfIncomingMsg_11
//  724   }
//  725   else
//  726   {
//  727     *pTmp++ = pMsg->cmd.TransSeqNumber;
??MT_AfIncomingMsg_10:
        MOV     A,?V0 + 8
        ADD     A,#0x1f
        MOV     DPL,A
        MOV     A,?V0 + 9
        LCALL   ??Subroutine44_0 & 0xFFFF
??CrossCallReturnLabel_73:
        LCALL   ?Subroutine6 & 0xFFFF
//  728     *pTmp++ = dataLen;
??CrossCallReturnLabel_5:
        MOV     A,R6
        MOV     DPL,R0
        MOV     DPH,R1
//  729   }
??MT_AfIncomingMsg_11:
        LCALL   ?Subroutine27 & 0xFFFF
//  730 
//  731   /* Data */
//  732   if (pItem != NULL)
??CrossCallReturnLabel_42:
        ADD     A,#0x22
        MOV     ?V0 + 4,A
        MOV     A,?V0 + 9
        ADDC    A,#0x0
        MOV     ?V0 + 5,A
        MOV     A,?V0 + 10
        ORL     A,?V0 + 11
        JZ      ??MT_AfIncomingMsg_12
//  733   {
//  734     // Enqueue the new huge incoming item.
//  735     pItem->next = pMtAfInMsgList;
        LCALL   ?Subroutine36 & 0xFFFF
??CrossCallReturnLabel_116:
        MOV     DPL,?V0 + 10
        MOV     DPH,?V0 + 11
        LCALL   ?Subroutine25 & 0xFFFF
//  736     pMtAfInMsgList = pItem;
??CrossCallReturnLabel_37:
        MOV     DPTR,#pMtAfInMsgList
        MOV     A,?V0 + 10
        MOVX    @DPTR,A
        INC     DPTR
        MOV     A,?V0 + 11
        MOVX    @DPTR,A
//  737 
//  738     // Setup to time-out the huge incoming item if host does not MT_AF_DATA_RETRIEVE it.
//  739     pItem->tick = MT_AF_EXEC_CNT;
        MOV     DPL,?V0 + 10
        MOV     DPH,A
        INC     DPTR
        INC     DPTR
        INC     DPTR
        INC     DPTR
        INC     DPTR
        INC     DPTR
        INC     DPTR
        INC     DPTR
        LCALL   ?Subroutine24 & 0xFFFF
//  740     if (ZSuccess != osal_start_timerEx(MT_TaskID, MT_AF_EXEC_EVT, MT_AF_EXEC_DLY))
??CrossCallReturnLabel_29:
        LCALL   ??osal_start_timerEx?relay
        MOV     A,R1
        JZ      ??MT_AfIncomingMsg_13
//  741     {
//  742       (void)osal_set_event(MT_TaskID, MT_AF_EXEC_EVT);
        ; Setup parameters for call to function osal_set_event
        MOV     R2,#0x8
        MOV     R3,#0x0
        MOV     DPTR,#MT_TaskID
        MOVX    A,@DPTR
        MOV     R1,A
        LCALL   ??osal_set_event?relay
//  743     }
//  744 
//  745     pItem->timestamp = pMsg->timestamp;
??MT_AfIncomingMsg_13:
        MOV     DPL,?V0 + 12
        MOV     DPH,?V0 + 13
        LCALL   ?XLOAD_R2345
        MOV     DPL,?V0 + 10
        MOV     DPH,?V0 + 11
        INC     DPTR
        INC     DPTR
        INC     DPTR
        INC     DPTR
        LCALL   ?XSTORE_R2345
//  746     (void)osal_memcpy(pItem->data, pMsg->cmd.Data, dataLen);
        ; Setup parameters for call to function osal_memcpy
        LCALL   ?Subroutine16 & 0xFFFF
//  747   }
??CrossCallReturnLabel_18:
        LCALL   ?PUSH_XSTACK_I_THREE
          CFI CFA_XSP16 add(XSP16, 28)
        MOV     A,R6
        MOV     R4,A
        MOV     A,R7
        MOV     R5,A
        MOV     DPL,?V0 + 10
        MOV     DPH,?V0 + 11
        INC     DPTR
        INC     DPTR
        LCALL   ??Subroutine52_0 & 0xFFFF
??CrossCallReturnLabel_119:
        SJMP    ??MT_AfIncomingMsg_14
          CFI CFA_XSP16 add(XSP16, 25)
//  748   else
//  749   {
//  750     (void)osal_memcpy(pTmp, pMsg->cmd.Data, dataLen);
??MT_AfIncomingMsg_12:
        ; Setup parameters for call to function osal_memcpy
        LCALL   ?Subroutine16 & 0xFFFF
//  751   }
??CrossCallReturnLabel_19:
        LCALL   ?PUSH_XSTACK_I_THREE
          CFI CFA_XSP16 add(XSP16, 28)
        MOV     A,R6
        MOV     R4,A
        MOV     A,R7
        MOV     R5,A
        MOV     R2,?V0 + 2
        MOV     R3,?V0 + 3
??MT_AfIncomingMsg_14:
        LCALL   ??osal_memcpy?relay
        MOV     A,#0x3
        LCALL   ?DEALLOC_XSTACK8
          CFI CFA_XSP16 add(XSP16, 25)
//  752 
//  753   /* Build and send back the response */
//  754   MT_BuildAndSendZToolResponse(((uint8)MT_RPC_CMD_AREQ|(uint8)MT_RPC_SYS_AF), cmd, respLen, pRsp);
        ; Setup parameters for call to function MT_BuildAndSendZToolResponse
        MOV     R4,?V0 + 14
        MOV     R5,?V0 + 15
        MOV     R3,?V0 + 0
        MOV     DPL,?XSP + 0
        MOV     DPH,?XSP + 1
        MOVX    A,@DPTR
        MOV     R2,A
        MOV     R1,#0x44
        LCALL   ??MT_BuildAndSendZToolResponse?relay
//  755 
//  756   (void)osal_mem_free(pRsp);
        ; Setup parameters for call to function osal_mem_free
        MOV     R2,?V0 + 14
        MOV     R3,?V0 + 15
??MT_AfIncomingMsg_5:
        LCALL   ??osal_mem_free?relay
//  757 }
??MT_AfIncomingMsg_3:
        MOV     A,#0x1
        LCALL   ?DEALLOC_XSTACK8
          CFI CFA_XSP16 add(XSP16, 24)
        MOV     R7,#0x10
        LJMP    ?BANKED_LEAVE_XDATA
          CFI EndBlock cfiBlock130

        RSEG BANKED_CODE:CODE:NOROOT(0)
?Subroutine28:
          CFI Block cfiCond131 Using cfiCommon0
          CFI Function MT_AfIncomingMsg
          CFI Conditional ??CrossCallReturnLabel_43
          CFI R6 load(1, XDATA, add(CFA_XSP16, literal(-24)))
          CFI VB load(1, XDATA, add(CFA_XSP16, literal(-23)))
          CFI V0 load(1, XDATA, add(CFA_XSP16, literal(-22)))
          CFI V1 load(1, XDATA, add(CFA_XSP16, literal(-21)))
          CFI V2 load(1, XDATA, add(CFA_XSP16, literal(-20)))
          CFI V3 load(1, XDATA, add(CFA_XSP16, literal(-19)))
          CFI V4 load(1, XDATA, add(CFA_XSP16, literal(-18)))
          CFI V5 load(1, XDATA, add(CFA_XSP16, literal(-17)))
          CFI V6 load(1, XDATA, add(CFA_XSP16, literal(-16)))
          CFI V7 load(1, XDATA, add(CFA_XSP16, literal(-15)))
          CFI V8 load(1, XDATA, add(CFA_XSP16, literal(-14)))
          CFI V9 load(1, XDATA, add(CFA_XSP16, literal(-13)))
          CFI V10 load(1, XDATA, add(CFA_XSP16, literal(-12)))
          CFI V11 load(1, XDATA, add(CFA_XSP16, literal(-11)))
          CFI V12 load(1, XDATA, add(CFA_XSP16, literal(-10)))
          CFI V13 load(1, XDATA, add(CFA_XSP16, literal(-9)))
          CFI V14 load(1, XDATA, add(CFA_XSP16, literal(-8)))
          CFI V15 load(1, XDATA, add(CFA_XSP16, literal(-7)))
          CFI R7 load(1, XDATA, add(CFA_XSP16, literal(-6)))
          CFI ?RET_LOW load(1, XDATA, add(CFA_XSP16, literal(-5)))
          CFI ?RET_HIGH load(1, XDATA, add(CFA_XSP16, literal(-4)))
          CFI ?BRET_EXT load(1, XDATA, add(CFA_XSP16, literal(-3)))
          CFI DPL0 load(1, XDATA, add(CFA_XSP16, literal(-2)))
          CFI DPH0 load(1, XDATA, add(CFA_XSP16, literal(-1)))
          CFI CFA_SP SP+0
          CFI CFA_XSP16 add(XSP16, 25)
          CFI Block cfiCond132 Using cfiCommon0
          CFI (cfiCond132) Function MT_AfIncomingMsg
          CFI (cfiCond132) Conditional ??CrossCallReturnLabel_44
          CFI (cfiCond132) R6 load(1, XDATA, add(CFA_XSP16, literal(-24)))
          CFI (cfiCond132) VB load(1, XDATA, add(CFA_XSP16, literal(-23)))
          CFI (cfiCond132) V0 load(1, XDATA, add(CFA_XSP16, literal(-22)))
          CFI (cfiCond132) V1 load(1, XDATA, add(CFA_XSP16, literal(-21)))
          CFI (cfiCond132) V2 load(1, XDATA, add(CFA_XSP16, literal(-20)))
          CFI (cfiCond132) V3 load(1, XDATA, add(CFA_XSP16, literal(-19)))
          CFI (cfiCond132) V4 load(1, XDATA, add(CFA_XSP16, literal(-18)))
          CFI (cfiCond132) V5 load(1, XDATA, add(CFA_XSP16, literal(-17)))
          CFI (cfiCond132) V6 load(1, XDATA, add(CFA_XSP16, literal(-16)))
          CFI (cfiCond132) V7 load(1, XDATA, add(CFA_XSP16, literal(-15)))
          CFI (cfiCond132) V8 load(1, XDATA, add(CFA_XSP16, literal(-14)))
          CFI (cfiCond132) V9 load(1, XDATA, add(CFA_XSP16, literal(-13)))
          CFI (cfiCond132) V10 load(1, XDATA, add(CFA_XSP16, literal(-12)))
          CFI (cfiCond132) V11 load(1, XDATA, add(CFA_XSP16, literal(-11)))
          CFI (cfiCond132) V12 load(1, XDATA, add(CFA_XSP16, literal(-10)))
          CFI (cfiCond132) V13 load(1, XDATA, add(CFA_XSP16, literal(-9)))
          CFI (cfiCond132) V14 load(1, XDATA, add(CFA_XSP16, literal(-8)))
          CFI (cfiCond132) V15 load(1, XDATA, add(CFA_XSP16, literal(-7)))
          CFI (cfiCond132) R7 load(1, XDATA, add(CFA_XSP16, literal(-6)))
          CFI (cfiCond132) ?RET_LOW load(1, XDATA, add(CFA_XSP16, literal(-5)))
          CFI (cfiCond132) ?RET_HIGH load(1, XDATA, add(CFA_XSP16, literal(-4)))
          CFI (cfiCond132) ?BRET_EXT load(1, XDATA, add(CFA_XSP16, literal(-3)))
          CFI (cfiCond132) DPL0 load(1, XDATA, add(CFA_XSP16, literal(-2)))
          CFI (cfiCond132) DPH0 load(1, XDATA, add(CFA_XSP16, literal(-1)))
          CFI (cfiCond132) CFA_SP SP+0
          CFI (cfiCond132) CFA_XSP16 add(XSP16, 25)
          CFI Block cfiCond133 Using cfiCommon0
          CFI (cfiCond133) Function MT_AfIncomingMsg
          CFI (cfiCond133) Conditional ??CrossCallReturnLabel_45
          CFI (cfiCond133) R6 load(1, XDATA, add(CFA_XSP16, literal(-24)))
          CFI (cfiCond133) VB load(1, XDATA, add(CFA_XSP16, literal(-23)))
          CFI (cfiCond133) V0 load(1, XDATA, add(CFA_XSP16, literal(-22)))
          CFI (cfiCond133) V1 load(1, XDATA, add(CFA_XSP16, literal(-21)))
          CFI (cfiCond133) V2 load(1, XDATA, add(CFA_XSP16, literal(-20)))
          CFI (cfiCond133) V3 load(1, XDATA, add(CFA_XSP16, literal(-19)))
          CFI (cfiCond133) V4 load(1, XDATA, add(CFA_XSP16, literal(-18)))
          CFI (cfiCond133) V5 load(1, XDATA, add(CFA_XSP16, literal(-17)))
          CFI (cfiCond133) V6 load(1, XDATA, add(CFA_XSP16, literal(-16)))
          CFI (cfiCond133) V7 load(1, XDATA, add(CFA_XSP16, literal(-15)))
          CFI (cfiCond133) V8 load(1, XDATA, add(CFA_XSP16, literal(-14)))
          CFI (cfiCond133) V9 load(1, XDATA, add(CFA_XSP16, literal(-13)))
          CFI (cfiCond133) V10 load(1, XDATA, add(CFA_XSP16, literal(-12)))
          CFI (cfiCond133) V11 load(1, XDATA, add(CFA_XSP16, literal(-11)))
          CFI (cfiCond133) V12 load(1, XDATA, add(CFA_XSP16, literal(-10)))
          CFI (cfiCond133) V13 load(1, XDATA, add(CFA_XSP16, literal(-9)))
          CFI (cfiCond133) V14 load(1, XDATA, add(CFA_XSP16, literal(-8)))
          CFI (cfiCond133) V15 load(1, XDATA, add(CFA_XSP16, literal(-7)))
          CFI (cfiCond133) R7 load(1, XDATA, add(CFA_XSP16, literal(-6)))
          CFI (cfiCond133) ?RET_LOW load(1, XDATA, add(CFA_XSP16, literal(-5)))
          CFI (cfiCond133) ?RET_HIGH load(1, XDATA, add(CFA_XSP16, literal(-4)))
          CFI (cfiCond133) ?BRET_EXT load(1, XDATA, add(CFA_XSP16, literal(-3)))
          CFI (cfiCond133) DPL0 load(1, XDATA, add(CFA_XSP16, literal(-2)))
          CFI (cfiCond133) DPH0 load(1, XDATA, add(CFA_XSP16, literal(-1)))
          CFI (cfiCond133) CFA_SP SP+0
          CFI (cfiCond133) CFA_XSP16 add(XSP16, 25)
          CFI Block cfiPicker134 Using cfiCommon1
          CFI (cfiPicker134) NoFunction
          CFI (cfiPicker134) Picker
        LCALL   ?Subroutine39 & 0xFFFF
??CrossCallReturnLabel_102:
        RET
          CFI EndBlock cfiCond131
          CFI EndBlock cfiCond132
          CFI EndBlock cfiCond133
          CFI EndBlock cfiPicker134

        RSEG BANKED_CODE:CODE:NOROOT(0)
?Subroutine39:
          CFI Block cfiCond135 Using cfiCommon0
          CFI Function MT_AfIncomingMsg
          CFI Conditional ??CrossCallReturnLabel_102, ??CrossCallReturnLabel_43
          CFI R6 load(1, XDATA, add(CFA_XSP16, literal(-24)))
          CFI VB load(1, XDATA, add(CFA_XSP16, literal(-23)))
          CFI V0 load(1, XDATA, add(CFA_XSP16, literal(-22)))
          CFI V1 load(1, XDATA, add(CFA_XSP16, literal(-21)))
          CFI V2 load(1, XDATA, add(CFA_XSP16, literal(-20)))
          CFI V3 load(1, XDATA, add(CFA_XSP16, literal(-19)))
          CFI V4 load(1, XDATA, add(CFA_XSP16, literal(-18)))
          CFI V5 load(1, XDATA, add(CFA_XSP16, literal(-17)))
          CFI V6 load(1, XDATA, add(CFA_XSP16, literal(-16)))
          CFI V7 load(1, XDATA, add(CFA_XSP16, literal(-15)))
          CFI V8 load(1, XDATA, add(CFA_XSP16, literal(-14)))
          CFI V9 load(1, XDATA, add(CFA_XSP16, literal(-13)))
          CFI V10 load(1, XDATA, add(CFA_XSP16, literal(-12)))
          CFI V11 load(1, XDATA, add(CFA_XSP16, literal(-11)))
          CFI V12 load(1, XDATA, add(CFA_XSP16, literal(-10)))
          CFI V13 load(1, XDATA, add(CFA_XSP16, literal(-9)))
          CFI V14 load(1, XDATA, add(CFA_XSP16, literal(-8)))
          CFI V15 load(1, XDATA, add(CFA_XSP16, literal(-7)))
          CFI R7 load(1, XDATA, add(CFA_XSP16, literal(-6)))
          CFI ?RET_LOW load(1, XDATA, add(CFA_XSP16, literal(-5)))
          CFI ?RET_HIGH load(1, XDATA, add(CFA_XSP16, literal(-4)))
          CFI ?BRET_EXT load(1, XDATA, add(CFA_XSP16, literal(-3)))
          CFI DPL0 load(1, XDATA, add(CFA_XSP16, literal(-2)))
          CFI DPH0 load(1, XDATA, add(CFA_XSP16, literal(-1)))
          CFI CFA_SP SP+0
          CFI CFA_XSP16 add(XSP16, 25)
          CFI Block cfiCond136 Using cfiCommon0
          CFI (cfiCond136) Function MT_AfIncomingMsg
          CFI (cfiCond136) Conditional ??CrossCallReturnLabel_102, ??CrossCallReturnLabel_44
          CFI (cfiCond136) R6 load(1, XDATA, add(CFA_XSP16, literal(-24)))
          CFI (cfiCond136) VB load(1, XDATA, add(CFA_XSP16, literal(-23)))
          CFI (cfiCond136) V0 load(1, XDATA, add(CFA_XSP16, literal(-22)))
          CFI (cfiCond136) V1 load(1, XDATA, add(CFA_XSP16, literal(-21)))
          CFI (cfiCond136) V2 load(1, XDATA, add(CFA_XSP16, literal(-20)))
          CFI (cfiCond136) V3 load(1, XDATA, add(CFA_XSP16, literal(-19)))
          CFI (cfiCond136) V4 load(1, XDATA, add(CFA_XSP16, literal(-18)))
          CFI (cfiCond136) V5 load(1, XDATA, add(CFA_XSP16, literal(-17)))
          CFI (cfiCond136) V6 load(1, XDATA, add(CFA_XSP16, literal(-16)))
          CFI (cfiCond136) V7 load(1, XDATA, add(CFA_XSP16, literal(-15)))
          CFI (cfiCond136) V8 load(1, XDATA, add(CFA_XSP16, literal(-14)))
          CFI (cfiCond136) V9 load(1, XDATA, add(CFA_XSP16, literal(-13)))
          CFI (cfiCond136) V10 load(1, XDATA, add(CFA_XSP16, literal(-12)))
          CFI (cfiCond136) V11 load(1, XDATA, add(CFA_XSP16, literal(-11)))
          CFI (cfiCond136) V12 load(1, XDATA, add(CFA_XSP16, literal(-10)))
          CFI (cfiCond136) V13 load(1, XDATA, add(CFA_XSP16, literal(-9)))
          CFI (cfiCond136) V14 load(1, XDATA, add(CFA_XSP16, literal(-8)))
          CFI (cfiCond136) V15 load(1, XDATA, add(CFA_XSP16, literal(-7)))
          CFI (cfiCond136) R7 load(1, XDATA, add(CFA_XSP16, literal(-6)))
          CFI (cfiCond136) ?RET_LOW load(1, XDATA, add(CFA_XSP16, literal(-5)))
          CFI (cfiCond136) ?RET_HIGH load(1, XDATA, add(CFA_XSP16, literal(-4)))
          CFI (cfiCond136) ?BRET_EXT load(1, XDATA, add(CFA_XSP16, literal(-3)))
          CFI (cfiCond136) DPL0 load(1, XDATA, add(CFA_XSP16, literal(-2)))
          CFI (cfiCond136) DPH0 load(1, XDATA, add(CFA_XSP16, literal(-1)))
          CFI (cfiCond136) CFA_SP SP+0
          CFI (cfiCond136) CFA_XSP16 add(XSP16, 25)
          CFI Block cfiCond137 Using cfiCommon0
          CFI (cfiCond137) Function MT_AfIncomingMsg
          CFI (cfiCond137) Conditional ??CrossCallReturnLabel_102, ??CrossCallReturnLabel_45
          CFI (cfiCond137) R6 load(1, XDATA, add(CFA_XSP16, literal(-24)))
          CFI (cfiCond137) VB load(1, XDATA, add(CFA_XSP16, literal(-23)))
          CFI (cfiCond137) V0 load(1, XDATA, add(CFA_XSP16, literal(-22)))
          CFI (cfiCond137) V1 load(1, XDATA, add(CFA_XSP16, literal(-21)))
          CFI (cfiCond137) V2 load(1, XDATA, add(CFA_XSP16, literal(-20)))
          CFI (cfiCond137) V3 load(1, XDATA, add(CFA_XSP16, literal(-19)))
          CFI (cfiCond137) V4 load(1, XDATA, add(CFA_XSP16, literal(-18)))
          CFI (cfiCond137) V5 load(1, XDATA, add(CFA_XSP16, literal(-17)))
          CFI (cfiCond137) V6 load(1, XDATA, add(CFA_XSP16, literal(-16)))
          CFI (cfiCond137) V7 load(1, XDATA, add(CFA_XSP16, literal(-15)))
          CFI (cfiCond137) V8 load(1, XDATA, add(CFA_XSP16, literal(-14)))
          CFI (cfiCond137) V9 load(1, XDATA, add(CFA_XSP16, literal(-13)))
          CFI (cfiCond137) V10 load(1, XDATA, add(CFA_XSP16, literal(-12)))
          CFI (cfiCond137) V11 load(1, XDATA, add(CFA_XSP16, literal(-11)))
          CFI (cfiCond137) V12 load(1, XDATA, add(CFA_XSP16, literal(-10)))
          CFI (cfiCond137) V13 load(1, XDATA, add(CFA_XSP16, literal(-9)))
          CFI (cfiCond137) V14 load(1, XDATA, add(CFA_XSP16, literal(-8)))
          CFI (cfiCond137) V15 load(1, XDATA, add(CFA_XSP16, literal(-7)))
          CFI (cfiCond137) R7 load(1, XDATA, add(CFA_XSP16, literal(-6)))
          CFI (cfiCond137) ?RET_LOW load(1, XDATA, add(CFA_XSP16, literal(-5)))
          CFI (cfiCond137) ?RET_HIGH load(1, XDATA, add(CFA_XSP16, literal(-4)))
          CFI (cfiCond137) ?BRET_EXT load(1, XDATA, add(CFA_XSP16, literal(-3)))
          CFI (cfiCond137) DPL0 load(1, XDATA, add(CFA_XSP16, literal(-2)))
          CFI (cfiCond137) DPH0 load(1, XDATA, add(CFA_XSP16, literal(-1)))
          CFI (cfiCond137) CFA_SP SP+0
          CFI (cfiCond137) CFA_XSP16 add(XSP16, 25)
          CFI Block cfiCond138 Using cfiCommon0
          CFI (cfiCond138) Function MT_AfIncomingMsg
          CFI (cfiCond138) Conditional ??CrossCallReturnLabel_101, ??CrossCallReturnLabel_41
          CFI (cfiCond138) R6 load(1, XDATA, add(CFA_XSP16, literal(-24)))
          CFI (cfiCond138) VB load(1, XDATA, add(CFA_XSP16, literal(-23)))
          CFI (cfiCond138) V0 load(1, XDATA, add(CFA_XSP16, literal(-22)))
          CFI (cfiCond138) V1 load(1, XDATA, add(CFA_XSP16, literal(-21)))
          CFI (cfiCond138) V2 load(1, XDATA, add(CFA_XSP16, literal(-20)))
          CFI (cfiCond138) V3 load(1, XDATA, add(CFA_XSP16, literal(-19)))
          CFI (cfiCond138) V4 load(1, XDATA, add(CFA_XSP16, literal(-18)))
          CFI (cfiCond138) V5 load(1, XDATA, add(CFA_XSP16, literal(-17)))
          CFI (cfiCond138) V6 load(1, XDATA, add(CFA_XSP16, literal(-16)))
          CFI (cfiCond138) V7 load(1, XDATA, add(CFA_XSP16, literal(-15)))
          CFI (cfiCond138) V8 load(1, XDATA, add(CFA_XSP16, literal(-14)))
          CFI (cfiCond138) V9 load(1, XDATA, add(CFA_XSP16, literal(-13)))
          CFI (cfiCond138) V10 load(1, XDATA, add(CFA_XSP16, literal(-12)))
          CFI (cfiCond138) V11 load(1, XDATA, add(CFA_XSP16, literal(-11)))
          CFI (cfiCond138) V12 load(1, XDATA, add(CFA_XSP16, literal(-10)))
          CFI (cfiCond138) V13 load(1, XDATA, add(CFA_XSP16, literal(-9)))
          CFI (cfiCond138) V14 load(1, XDATA, add(CFA_XSP16, literal(-8)))
          CFI (cfiCond138) V15 load(1, XDATA, add(CFA_XSP16, literal(-7)))
          CFI (cfiCond138) R7 load(1, XDATA, add(CFA_XSP16, literal(-6)))
          CFI (cfiCond138) ?RET_LOW load(1, XDATA, add(CFA_XSP16, literal(-5)))
          CFI (cfiCond138) ?RET_HIGH load(1, XDATA, add(CFA_XSP16, literal(-4)))
          CFI (cfiCond138) ?BRET_EXT load(1, XDATA, add(CFA_XSP16, literal(-3)))
          CFI (cfiCond138) DPL0 load(1, XDATA, add(CFA_XSP16, literal(-2)))
          CFI (cfiCond138) DPH0 load(1, XDATA, add(CFA_XSP16, literal(-1)))
          CFI (cfiCond138) CFA_SP SP+0
          CFI (cfiCond138) CFA_XSP16 add(XSP16, 25)
          CFI Block cfiCond139 Using cfiCommon0
          CFI (cfiCond139) Function MT_AfIncomingMsg
          CFI (cfiCond139) Conditional ??CrossCallReturnLabel_101, ??CrossCallReturnLabel_42
          CFI (cfiCond139) R6 load(1, XDATA, add(CFA_XSP16, literal(-24)))
          CFI (cfiCond139) VB load(1, XDATA, add(CFA_XSP16, literal(-23)))
          CFI (cfiCond139) V0 load(1, XDATA, add(CFA_XSP16, literal(-22)))
          CFI (cfiCond139) V1 load(1, XDATA, add(CFA_XSP16, literal(-21)))
          CFI (cfiCond139) V2 load(1, XDATA, add(CFA_XSP16, literal(-20)))
          CFI (cfiCond139) V3 load(1, XDATA, add(CFA_XSP16, literal(-19)))
          CFI (cfiCond139) V4 load(1, XDATA, add(CFA_XSP16, literal(-18)))
          CFI (cfiCond139) V5 load(1, XDATA, add(CFA_XSP16, literal(-17)))
          CFI (cfiCond139) V6 load(1, XDATA, add(CFA_XSP16, literal(-16)))
          CFI (cfiCond139) V7 load(1, XDATA, add(CFA_XSP16, literal(-15)))
          CFI (cfiCond139) V8 load(1, XDATA, add(CFA_XSP16, literal(-14)))
          CFI (cfiCond139) V9 load(1, XDATA, add(CFA_XSP16, literal(-13)))
          CFI (cfiCond139) V10 load(1, XDATA, add(CFA_XSP16, literal(-12)))
          CFI (cfiCond139) V11 load(1, XDATA, add(CFA_XSP16, literal(-11)))
          CFI (cfiCond139) V12 load(1, XDATA, add(CFA_XSP16, literal(-10)))
          CFI (cfiCond139) V13 load(1, XDATA, add(CFA_XSP16, literal(-9)))
          CFI (cfiCond139) V14 load(1, XDATA, add(CFA_XSP16, literal(-8)))
          CFI (cfiCond139) V15 load(1, XDATA, add(CFA_XSP16, literal(-7)))
          CFI (cfiCond139) R7 load(1, XDATA, add(CFA_XSP16, literal(-6)))
          CFI (cfiCond139) ?RET_LOW load(1, XDATA, add(CFA_XSP16, literal(-5)))
          CFI (cfiCond139) ?RET_HIGH load(1, XDATA, add(CFA_XSP16, literal(-4)))
          CFI (cfiCond139) ?BRET_EXT load(1, XDATA, add(CFA_XSP16, literal(-3)))
          CFI (cfiCond139) DPL0 load(1, XDATA, add(CFA_XSP16, literal(-2)))
          CFI (cfiCond139) DPH0 load(1, XDATA, add(CFA_XSP16, literal(-1)))
          CFI (cfiCond139) CFA_SP SP+0
          CFI (cfiCond139) CFA_XSP16 add(XSP16, 25)
          CFI Block cfiCond140 Using cfiCommon0
          CFI (cfiCond140) Function MT_AfIncomingMsg
          CFI (cfiCond140) Conditional ??CrossCallReturnLabel_103, ??CrossCallReturnLabel_98
          CFI (cfiCond140) R6 load(1, XDATA, add(CFA_XSP16, literal(-24)))
          CFI (cfiCond140) VB load(1, XDATA, add(CFA_XSP16, literal(-23)))
          CFI (cfiCond140) V0 load(1, XDATA, add(CFA_XSP16, literal(-22)))
          CFI (cfiCond140) V1 load(1, XDATA, add(CFA_XSP16, literal(-21)))
          CFI (cfiCond140) V2 load(1, XDATA, add(CFA_XSP16, literal(-20)))
          CFI (cfiCond140) V3 load(1, XDATA, add(CFA_XSP16, literal(-19)))
          CFI (cfiCond140) V4 load(1, XDATA, add(CFA_XSP16, literal(-18)))
          CFI (cfiCond140) V5 load(1, XDATA, add(CFA_XSP16, literal(-17)))
          CFI (cfiCond140) V6 load(1, XDATA, add(CFA_XSP16, literal(-16)))
          CFI (cfiCond140) V7 load(1, XDATA, add(CFA_XSP16, literal(-15)))
          CFI (cfiCond140) V8 load(1, XDATA, add(CFA_XSP16, literal(-14)))
          CFI (cfiCond140) V9 load(1, XDATA, add(CFA_XSP16, literal(-13)))
          CFI (cfiCond140) V10 load(1, XDATA, add(CFA_XSP16, literal(-12)))
          CFI (cfiCond140) V11 load(1, XDATA, add(CFA_XSP16, literal(-11)))
          CFI (cfiCond140) V12 load(1, XDATA, add(CFA_XSP16, literal(-10)))
          CFI (cfiCond140) V13 load(1, XDATA, add(CFA_XSP16, literal(-9)))
          CFI (cfiCond140) V14 load(1, XDATA, add(CFA_XSP16, literal(-8)))
          CFI (cfiCond140) V15 load(1, XDATA, add(CFA_XSP16, literal(-7)))
          CFI (cfiCond140) R7 load(1, XDATA, add(CFA_XSP16, literal(-6)))
          CFI (cfiCond140) ?RET_LOW load(1, XDATA, add(CFA_XSP16, literal(-5)))
          CFI (cfiCond140) ?RET_HIGH load(1, XDATA, add(CFA_XSP16, literal(-4)))
          CFI (cfiCond140) ?BRET_EXT load(1, XDATA, add(CFA_XSP16, literal(-3)))
          CFI (cfiCond140) DPL0 load(1, XDATA, add(CFA_XSP16, literal(-2)))
          CFI (cfiCond140) DPH0 load(1, XDATA, add(CFA_XSP16, literal(-1)))
          CFI (cfiCond140) CFA_SP SP+0
          CFI (cfiCond140) CFA_XSP16 add(XSP16, 25)
          CFI Block cfiCond141 Using cfiCommon0
          CFI (cfiCond141) Function MT_AfIncomingMsg
          CFI (cfiCond141) Conditional ??CrossCallReturnLabel_103, ??CrossCallReturnLabel_99
          CFI (cfiCond141) R6 load(1, XDATA, add(CFA_XSP16, literal(-24)))
          CFI (cfiCond141) VB load(1, XDATA, add(CFA_XSP16, literal(-23)))
          CFI (cfiCond141) V0 load(1, XDATA, add(CFA_XSP16, literal(-22)))
          CFI (cfiCond141) V1 load(1, XDATA, add(CFA_XSP16, literal(-21)))
          CFI (cfiCond141) V2 load(1, XDATA, add(CFA_XSP16, literal(-20)))
          CFI (cfiCond141) V3 load(1, XDATA, add(CFA_XSP16, literal(-19)))
          CFI (cfiCond141) V4 load(1, XDATA, add(CFA_XSP16, literal(-18)))
          CFI (cfiCond141) V5 load(1, XDATA, add(CFA_XSP16, literal(-17)))
          CFI (cfiCond141) V6 load(1, XDATA, add(CFA_XSP16, literal(-16)))
          CFI (cfiCond141) V7 load(1, XDATA, add(CFA_XSP16, literal(-15)))
          CFI (cfiCond141) V8 load(1, XDATA, add(CFA_XSP16, literal(-14)))
          CFI (cfiCond141) V9 load(1, XDATA, add(CFA_XSP16, literal(-13)))
          CFI (cfiCond141) V10 load(1, XDATA, add(CFA_XSP16, literal(-12)))
          CFI (cfiCond141) V11 load(1, XDATA, add(CFA_XSP16, literal(-11)))
          CFI (cfiCond141) V12 load(1, XDATA, add(CFA_XSP16, literal(-10)))
          CFI (cfiCond141) V13 load(1, XDATA, add(CFA_XSP16, literal(-9)))
          CFI (cfiCond141) V14 load(1, XDATA, add(CFA_XSP16, literal(-8)))
          CFI (cfiCond141) V15 load(1, XDATA, add(CFA_XSP16, literal(-7)))
          CFI (cfiCond141) R7 load(1, XDATA, add(CFA_XSP16, literal(-6)))
          CFI (cfiCond141) ?RET_LOW load(1, XDATA, add(CFA_XSP16, literal(-5)))
          CFI (cfiCond141) ?RET_HIGH load(1, XDATA, add(CFA_XSP16, literal(-4)))
          CFI (cfiCond141) ?BRET_EXT load(1, XDATA, add(CFA_XSP16, literal(-3)))
          CFI (cfiCond141) DPL0 load(1, XDATA, add(CFA_XSP16, literal(-2)))
          CFI (cfiCond141) DPH0 load(1, XDATA, add(CFA_XSP16, literal(-1)))
          CFI (cfiCond141) CFA_SP SP+0
          CFI (cfiCond141) CFA_XSP16 add(XSP16, 25)
          CFI Block cfiCond142 Using cfiCommon0
          CFI (cfiCond142) Function MT_AfIncomingMsg
          CFI (cfiCond142) Conditional ??CrossCallReturnLabel_103, ??CrossCallReturnLabel_100
          CFI (cfiCond142) R6 load(1, XDATA, add(CFA_XSP16, literal(-24)))
          CFI (cfiCond142) VB load(1, XDATA, add(CFA_XSP16, literal(-23)))
          CFI (cfiCond142) V0 load(1, XDATA, add(CFA_XSP16, literal(-22)))
          CFI (cfiCond142) V1 load(1, XDATA, add(CFA_XSP16, literal(-21)))
          CFI (cfiCond142) V2 load(1, XDATA, add(CFA_XSP16, literal(-20)))
          CFI (cfiCond142) V3 load(1, XDATA, add(CFA_XSP16, literal(-19)))
          CFI (cfiCond142) V4 load(1, XDATA, add(CFA_XSP16, literal(-18)))
          CFI (cfiCond142) V5 load(1, XDATA, add(CFA_XSP16, literal(-17)))
          CFI (cfiCond142) V6 load(1, XDATA, add(CFA_XSP16, literal(-16)))
          CFI (cfiCond142) V7 load(1, XDATA, add(CFA_XSP16, literal(-15)))
          CFI (cfiCond142) V8 load(1, XDATA, add(CFA_XSP16, literal(-14)))
          CFI (cfiCond142) V9 load(1, XDATA, add(CFA_XSP16, literal(-13)))
          CFI (cfiCond142) V10 load(1, XDATA, add(CFA_XSP16, literal(-12)))
          CFI (cfiCond142) V11 load(1, XDATA, add(CFA_XSP16, literal(-11)))
          CFI (cfiCond142) V12 load(1, XDATA, add(CFA_XSP16, literal(-10)))
          CFI (cfiCond142) V13 load(1, XDATA, add(CFA_XSP16, literal(-9)))
          CFI (cfiCond142) V14 load(1, XDATA, add(CFA_XSP16, literal(-8)))
          CFI (cfiCond142) V15 load(1, XDATA, add(CFA_XSP16, literal(-7)))
          CFI (cfiCond142) R7 load(1, XDATA, add(CFA_XSP16, literal(-6)))
          CFI (cfiCond142) ?RET_LOW load(1, XDATA, add(CFA_XSP16, literal(-5)))
          CFI (cfiCond142) ?RET_HIGH load(1, XDATA, add(CFA_XSP16, literal(-4)))
          CFI (cfiCond142) ?BRET_EXT load(1, XDATA, add(CFA_XSP16, literal(-3)))
          CFI (cfiCond142) DPL0 load(1, XDATA, add(CFA_XSP16, literal(-2)))
          CFI (cfiCond142) DPH0 load(1, XDATA, add(CFA_XSP16, literal(-1)))
          CFI (cfiCond142) CFA_SP SP+0
          CFI (cfiCond142) CFA_XSP16 add(XSP16, 25)
          CFI Block cfiPicker143 Using cfiCommon1
          CFI (cfiPicker143) NoFunction
          CFI (cfiPicker143) Picker
        MOVX    @DPTR,A
        INC     DPTR
        MOV     ?V0 + 2,DPL
        MOV     ?V0 + 3,DPH
        RET
          CFI EndBlock cfiCond135
          CFI EndBlock cfiCond136
          CFI EndBlock cfiCond137
          CFI EndBlock cfiCond138
          CFI EndBlock cfiCond139
          CFI EndBlock cfiCond140
          CFI EndBlock cfiCond141
          CFI EndBlock cfiCond142
          CFI EndBlock cfiPicker143

        RSEG BANKED_CODE:CODE:NOROOT(0)
?Subroutine27:
          CFI Block cfiCond144 Using cfiCommon0
          CFI Function MT_AfIncomingMsg
          CFI Conditional ??CrossCallReturnLabel_41
          CFI R6 load(1, XDATA, add(CFA_XSP16, literal(-24)))
          CFI VB load(1, XDATA, add(CFA_XSP16, literal(-23)))
          CFI V0 load(1, XDATA, add(CFA_XSP16, literal(-22)))
          CFI V1 load(1, XDATA, add(CFA_XSP16, literal(-21)))
          CFI V2 load(1, XDATA, add(CFA_XSP16, literal(-20)))
          CFI V3 load(1, XDATA, add(CFA_XSP16, literal(-19)))
          CFI V4 load(1, XDATA, add(CFA_XSP16, literal(-18)))
          CFI V5 load(1, XDATA, add(CFA_XSP16, literal(-17)))
          CFI V6 load(1, XDATA, add(CFA_XSP16, literal(-16)))
          CFI V7 load(1, XDATA, add(CFA_XSP16, literal(-15)))
          CFI V8 load(1, XDATA, add(CFA_XSP16, literal(-14)))
          CFI V9 load(1, XDATA, add(CFA_XSP16, literal(-13)))
          CFI V10 load(1, XDATA, add(CFA_XSP16, literal(-12)))
          CFI V11 load(1, XDATA, add(CFA_XSP16, literal(-11)))
          CFI V12 load(1, XDATA, add(CFA_XSP16, literal(-10)))
          CFI V13 load(1, XDATA, add(CFA_XSP16, literal(-9)))
          CFI V14 load(1, XDATA, add(CFA_XSP16, literal(-8)))
          CFI V15 load(1, XDATA, add(CFA_XSP16, literal(-7)))
          CFI R7 load(1, XDATA, add(CFA_XSP16, literal(-6)))
          CFI ?RET_LOW load(1, XDATA, add(CFA_XSP16, literal(-5)))
          CFI ?RET_HIGH load(1, XDATA, add(CFA_XSP16, literal(-4)))
          CFI ?BRET_EXT load(1, XDATA, add(CFA_XSP16, literal(-3)))
          CFI DPL0 load(1, XDATA, add(CFA_XSP16, literal(-2)))
          CFI DPH0 load(1, XDATA, add(CFA_XSP16, literal(-1)))
          CFI CFA_SP SP+0
          CFI CFA_XSP16 add(XSP16, 25)
          CFI Block cfiCond145 Using cfiCommon0
          CFI (cfiCond145) Function MT_AfIncomingMsg
          CFI (cfiCond145) Conditional ??CrossCallReturnLabel_42
          CFI (cfiCond145) R6 load(1, XDATA, add(CFA_XSP16, literal(-24)))
          CFI (cfiCond145) VB load(1, XDATA, add(CFA_XSP16, literal(-23)))
          CFI (cfiCond145) V0 load(1, XDATA, add(CFA_XSP16, literal(-22)))
          CFI (cfiCond145) V1 load(1, XDATA, add(CFA_XSP16, literal(-21)))
          CFI (cfiCond145) V2 load(1, XDATA, add(CFA_XSP16, literal(-20)))
          CFI (cfiCond145) V3 load(1, XDATA, add(CFA_XSP16, literal(-19)))
          CFI (cfiCond145) V4 load(1, XDATA, add(CFA_XSP16, literal(-18)))
          CFI (cfiCond145) V5 load(1, XDATA, add(CFA_XSP16, literal(-17)))
          CFI (cfiCond145) V6 load(1, XDATA, add(CFA_XSP16, literal(-16)))
          CFI (cfiCond145) V7 load(1, XDATA, add(CFA_XSP16, literal(-15)))
          CFI (cfiCond145) V8 load(1, XDATA, add(CFA_XSP16, literal(-14)))
          CFI (cfiCond145) V9 load(1, XDATA, add(CFA_XSP16, literal(-13)))
          CFI (cfiCond145) V10 load(1, XDATA, add(CFA_XSP16, literal(-12)))
          CFI (cfiCond145) V11 load(1, XDATA, add(CFA_XSP16, literal(-11)))
          CFI (cfiCond145) V12 load(1, XDATA, add(CFA_XSP16, literal(-10)))
          CFI (cfiCond145) V13 load(1, XDATA, add(CFA_XSP16, literal(-9)))
          CFI (cfiCond145) V14 load(1, XDATA, add(CFA_XSP16, literal(-8)))
          CFI (cfiCond145) V15 load(1, XDATA, add(CFA_XSP16, literal(-7)))
          CFI (cfiCond145) R7 load(1, XDATA, add(CFA_XSP16, literal(-6)))
          CFI (cfiCond145) ?RET_LOW load(1, XDATA, add(CFA_XSP16, literal(-5)))
          CFI (cfiCond145) ?RET_HIGH load(1, XDATA, add(CFA_XSP16, literal(-4)))
          CFI (cfiCond145) ?BRET_EXT load(1, XDATA, add(CFA_XSP16, literal(-3)))
          CFI (cfiCond145) DPL0 load(1, XDATA, add(CFA_XSP16, literal(-2)))
          CFI (cfiCond145) DPH0 load(1, XDATA, add(CFA_XSP16, literal(-1)))
          CFI (cfiCond145) CFA_SP SP+0
          CFI (cfiCond145) CFA_XSP16 add(XSP16, 25)
          CFI Block cfiPicker146 Using cfiCommon1
          CFI (cfiPicker146) NoFunction
          CFI (cfiPicker146) Picker
        LCALL   ?Subroutine39 & 0xFFFF
??CrossCallReturnLabel_101:
        MOV     A,?V0 + 8
        RET
          CFI EndBlock cfiCond144
          CFI EndBlock cfiCond145
          CFI EndBlock cfiPicker146

        RSEG BANKED_CODE:CODE:NOROOT(0)
?Subroutine24:
          CFI Block cfiCond147 Using cfiCommon0
          CFI Function MT_AfDataRequest
          CFI Conditional ??CrossCallReturnLabel_28
          CFI R6 load(1, XDATA, add(CFA_XSP16, literal(-22)))
          CFI VB load(1, XDATA, add(CFA_XSP16, literal(-21)))
          CFI V0 load(1, XDATA, add(CFA_XSP16, literal(-20)))
          CFI V1 load(1, XDATA, add(CFA_XSP16, literal(-19)))
          CFI V2 load(1, XDATA, add(CFA_XSP16, literal(-18)))
          CFI V3 load(1, XDATA, add(CFA_XSP16, literal(-17)))
          CFI V4 load(1, XDATA, add(CFA_XSP16, literal(-16)))
          CFI V5 load(1, XDATA, add(CFA_XSP16, literal(-15)))
          CFI V6 load(1, XDATA, add(CFA_XSP16, literal(-14)))
          CFI V7 load(1, XDATA, add(CFA_XSP16, literal(-13)))
          CFI V8 load(1, XDATA, add(CFA_XSP16, literal(-12)))
          CFI V9 load(1, XDATA, add(CFA_XSP16, literal(-11)))
          CFI V10 load(1, XDATA, add(CFA_XSP16, literal(-10)))
          CFI V11 load(1, XDATA, add(CFA_XSP16, literal(-9)))
          CFI V12 load(1, XDATA, add(CFA_XSP16, literal(-8)))
          CFI V13 load(1, XDATA, add(CFA_XSP16, literal(-7)))
          CFI R7 load(1, XDATA, add(CFA_XSP16, literal(-6)))
          CFI ?RET_LOW load(1, XDATA, add(CFA_XSP16, literal(-5)))
          CFI ?RET_HIGH load(1, XDATA, add(CFA_XSP16, literal(-4)))
          CFI ?BRET_EXT load(1, XDATA, add(CFA_XSP16, literal(-3)))
          CFI DPL0 load(1, XDATA, add(CFA_XSP16, literal(-2)))
          CFI DPH0 load(1, XDATA, add(CFA_XSP16, literal(-1)))
          CFI CFA_SP SP+0
          CFI CFA_XSP16 add(XSP16, 36)
          CFI Block cfiCond148 Using cfiCommon0
          CFI (cfiCond148) Function MT_AfIncomingMsg
          CFI (cfiCond148) Conditional ??CrossCallReturnLabel_29
          CFI (cfiCond148) R6 load(1, XDATA, add(CFA_XSP16, literal(-24)))
          CFI (cfiCond148) VB load(1, XDATA, add(CFA_XSP16, literal(-23)))
          CFI (cfiCond148) V0 load(1, XDATA, add(CFA_XSP16, literal(-22)))
          CFI (cfiCond148) V1 load(1, XDATA, add(CFA_XSP16, literal(-21)))
          CFI (cfiCond148) V2 load(1, XDATA, add(CFA_XSP16, literal(-20)))
          CFI (cfiCond148) V3 load(1, XDATA, add(CFA_XSP16, literal(-19)))
          CFI (cfiCond148) V4 load(1, XDATA, add(CFA_XSP16, literal(-18)))
          CFI (cfiCond148) V5 load(1, XDATA, add(CFA_XSP16, literal(-17)))
          CFI (cfiCond148) V6 load(1, XDATA, add(CFA_XSP16, literal(-16)))
          CFI (cfiCond148) V7 load(1, XDATA, add(CFA_XSP16, literal(-15)))
          CFI (cfiCond148) V8 load(1, XDATA, add(CFA_XSP16, literal(-14)))
          CFI (cfiCond148) V9 load(1, XDATA, add(CFA_XSP16, literal(-13)))
          CFI (cfiCond148) V10 load(1, XDATA, add(CFA_XSP16, literal(-12)))
          CFI (cfiCond148) V11 load(1, XDATA, add(CFA_XSP16, literal(-11)))
          CFI (cfiCond148) V12 load(1, XDATA, add(CFA_XSP16, literal(-10)))
          CFI (cfiCond148) V13 load(1, XDATA, add(CFA_XSP16, literal(-9)))
          CFI (cfiCond148) V14 load(1, XDATA, add(CFA_XSP16, literal(-8)))
          CFI (cfiCond148) V15 load(1, XDATA, add(CFA_XSP16, literal(-7)))
          CFI (cfiCond148) R7 load(1, XDATA, add(CFA_XSP16, literal(-6)))
          CFI (cfiCond148) ?RET_LOW load(1, XDATA, add(CFA_XSP16, literal(-5)))
          CFI (cfiCond148) ?RET_HIGH load(1, XDATA, add(CFA_XSP16, literal(-4)))
          CFI (cfiCond148) ?BRET_EXT load(1, XDATA, add(CFA_XSP16, literal(-3)))
          CFI (cfiCond148) DPL0 load(1, XDATA, add(CFA_XSP16, literal(-2)))
          CFI (cfiCond148) DPH0 load(1, XDATA, add(CFA_XSP16, literal(-1)))
          CFI (cfiCond148) CFA_SP SP+0
          CFI (cfiCond148) CFA_XSP16 add(XSP16, 25)
          CFI Block cfiPicker149 Using cfiCommon1
          CFI (cfiPicker149) NoFunction
          CFI (cfiPicker149) Picker
        MOV     A,#0xf
        MOVX    @DPTR,A
        ; Setup parameters for call to function osal_start_timerEx
        ; Setup parameters for call to function osal_start_timerEx
        MOV     R4,#-0x18
        MOV     R5,#0x3
        MOV     R2,#0x8
        MOV     R3,#0x0
        MOV     DPTR,#MT_TaskID
        MOVX    A,@DPTR
        MOV     R1,A
        RET
          CFI EndBlock cfiCond147
          CFI EndBlock cfiCond148
          CFI EndBlock cfiPicker149

        RSEG BANKED_CODE:CODE:NOROOT(0)
?Subroutine22:
          CFI Block cfiCond150 Using cfiCommon0
          CFI Function MT_AfIncomingMsg
          CFI Conditional ??CrossCallReturnLabel_98
          CFI R6 load(1, XDATA, add(CFA_XSP16, literal(-24)))
          CFI VB load(1, XDATA, add(CFA_XSP16, literal(-23)))
          CFI V0 load(1, XDATA, add(CFA_XSP16, literal(-22)))
          CFI V1 load(1, XDATA, add(CFA_XSP16, literal(-21)))
          CFI V2 load(1, XDATA, add(CFA_XSP16, literal(-20)))
          CFI V3 load(1, XDATA, add(CFA_XSP16, literal(-19)))
          CFI V4 load(1, XDATA, add(CFA_XSP16, literal(-18)))
          CFI V5 load(1, XDATA, add(CFA_XSP16, literal(-17)))
          CFI V6 load(1, XDATA, add(CFA_XSP16, literal(-16)))
          CFI V7 load(1, XDATA, add(CFA_XSP16, literal(-15)))
          CFI V8 load(1, XDATA, add(CFA_XSP16, literal(-14)))
          CFI V9 load(1, XDATA, add(CFA_XSP16, literal(-13)))
          CFI V10 load(1, XDATA, add(CFA_XSP16, literal(-12)))
          CFI V11 load(1, XDATA, add(CFA_XSP16, literal(-11)))
          CFI V12 load(1, XDATA, add(CFA_XSP16, literal(-10)))
          CFI V13 load(1, XDATA, add(CFA_XSP16, literal(-9)))
          CFI V14 load(1, XDATA, add(CFA_XSP16, literal(-8)))
          CFI V15 load(1, XDATA, add(CFA_XSP16, literal(-7)))
          CFI R7 load(1, XDATA, add(CFA_XSP16, literal(-6)))
          CFI ?RET_LOW load(1, XDATA, add(CFA_XSP16, literal(-5)))
          CFI ?RET_HIGH load(1, XDATA, add(CFA_XSP16, literal(-4)))
          CFI ?BRET_EXT load(1, XDATA, add(CFA_XSP16, literal(-3)))
          CFI DPL0 load(1, XDATA, add(CFA_XSP16, literal(-2)))
          CFI DPH0 load(1, XDATA, add(CFA_XSP16, literal(-1)))
          CFI CFA_SP SP+0
          CFI CFA_XSP16 add(XSP16, 25)
          CFI Block cfiCond151 Using cfiCommon0
          CFI (cfiCond151) Function MT_AfIncomingMsg
          CFI (cfiCond151) Conditional ??CrossCallReturnLabel_99
          CFI (cfiCond151) R6 load(1, XDATA, add(CFA_XSP16, literal(-24)))
          CFI (cfiCond151) VB load(1, XDATA, add(CFA_XSP16, literal(-23)))
          CFI (cfiCond151) V0 load(1, XDATA, add(CFA_XSP16, literal(-22)))
          CFI (cfiCond151) V1 load(1, XDATA, add(CFA_XSP16, literal(-21)))
          CFI (cfiCond151) V2 load(1, XDATA, add(CFA_XSP16, literal(-20)))
          CFI (cfiCond151) V3 load(1, XDATA, add(CFA_XSP16, literal(-19)))
          CFI (cfiCond151) V4 load(1, XDATA, add(CFA_XSP16, literal(-18)))
          CFI (cfiCond151) V5 load(1, XDATA, add(CFA_XSP16, literal(-17)))
          CFI (cfiCond151) V6 load(1, XDATA, add(CFA_XSP16, literal(-16)))
          CFI (cfiCond151) V7 load(1, XDATA, add(CFA_XSP16, literal(-15)))
          CFI (cfiCond151) V8 load(1, XDATA, add(CFA_XSP16, literal(-14)))
          CFI (cfiCond151) V9 load(1, XDATA, add(CFA_XSP16, literal(-13)))
          CFI (cfiCond151) V10 load(1, XDATA, add(CFA_XSP16, literal(-12)))
          CFI (cfiCond151) V11 load(1, XDATA, add(CFA_XSP16, literal(-11)))
          CFI (cfiCond151) V12 load(1, XDATA, add(CFA_XSP16, literal(-10)))
          CFI (cfiCond151) V13 load(1, XDATA, add(CFA_XSP16, literal(-9)))
          CFI (cfiCond151) V14 load(1, XDATA, add(CFA_XSP16, literal(-8)))
          CFI (cfiCond151) V15 load(1, XDATA, add(CFA_XSP16, literal(-7)))
          CFI (cfiCond151) R7 load(1, XDATA, add(CFA_XSP16, literal(-6)))
          CFI (cfiCond151) ?RET_LOW load(1, XDATA, add(CFA_XSP16, literal(-5)))
          CFI (cfiCond151) ?RET_HIGH load(1, XDATA, add(CFA_XSP16, literal(-4)))
          CFI (cfiCond151) ?BRET_EXT load(1, XDATA, add(CFA_XSP16, literal(-3)))
          CFI (cfiCond151) DPL0 load(1, XDATA, add(CFA_XSP16, literal(-2)))
          CFI (cfiCond151) DPH0 load(1, XDATA, add(CFA_XSP16, literal(-1)))
          CFI (cfiCond151) CFA_SP SP+0
          CFI (cfiCond151) CFA_XSP16 add(XSP16, 25)
          CFI Block cfiPicker152 Using cfiCommon1
          CFI (cfiPicker152) NoFunction
          CFI (cfiPicker152) Picker
        MOV     DPL,?V0 + 2
        MOV     DPH,?V0 + 3
        MOV     A,?V0 + 4
          CFI EndBlock cfiCond150
          CFI EndBlock cfiCond151
          CFI EndBlock cfiPicker152
        REQUIRE ??Subroutine49_0
        ; // Fall through to label ??Subroutine49_0

        RSEG BANKED_CODE:CODE:NOROOT(0)
??Subroutine49_0:
          CFI Block cfiCond153 Using cfiCommon0
          CFI Function MT_AfIncomingMsg
          CFI Conditional ??CrossCallReturnLabel_100
          CFI R6 load(1, XDATA, add(CFA_XSP16, literal(-24)))
          CFI VB load(1, XDATA, add(CFA_XSP16, literal(-23)))
          CFI V0 load(1, XDATA, add(CFA_XSP16, literal(-22)))
          CFI V1 load(1, XDATA, add(CFA_XSP16, literal(-21)))
          CFI V2 load(1, XDATA, add(CFA_XSP16, literal(-20)))
          CFI V3 load(1, XDATA, add(CFA_XSP16, literal(-19)))
          CFI V4 load(1, XDATA, add(CFA_XSP16, literal(-18)))
          CFI V5 load(1, XDATA, add(CFA_XSP16, literal(-17)))
          CFI V6 load(1, XDATA, add(CFA_XSP16, literal(-16)))
          CFI V7 load(1, XDATA, add(CFA_XSP16, literal(-15)))
          CFI V8 load(1, XDATA, add(CFA_XSP16, literal(-14)))
          CFI V9 load(1, XDATA, add(CFA_XSP16, literal(-13)))
          CFI V10 load(1, XDATA, add(CFA_XSP16, literal(-12)))
          CFI V11 load(1, XDATA, add(CFA_XSP16, literal(-11)))
          CFI V12 load(1, XDATA, add(CFA_XSP16, literal(-10)))
          CFI V13 load(1, XDATA, add(CFA_XSP16, literal(-9)))
          CFI V14 load(1, XDATA, add(CFA_XSP16, literal(-8)))
          CFI V15 load(1, XDATA, add(CFA_XSP16, literal(-7)))
          CFI R7 load(1, XDATA, add(CFA_XSP16, literal(-6)))
          CFI ?RET_LOW load(1, XDATA, add(CFA_XSP16, literal(-5)))
          CFI ?RET_HIGH load(1, XDATA, add(CFA_XSP16, literal(-4)))
          CFI ?BRET_EXT load(1, XDATA, add(CFA_XSP16, literal(-3)))
          CFI DPL0 load(1, XDATA, add(CFA_XSP16, literal(-2)))
          CFI DPH0 load(1, XDATA, add(CFA_XSP16, literal(-1)))
          CFI CFA_SP SP+0
          CFI CFA_XSP16 add(XSP16, 25)
          CFI Block cfiCond154 Using cfiCommon0
          CFI (cfiCond154) Function MT_AfIncomingMsg
          CFI (cfiCond154) Conditional ??CrossCallReturnLabel_98
          CFI (cfiCond154) R6 load(1, XDATA, add(CFA_XSP16, literal(-24)))
          CFI (cfiCond154) VB load(1, XDATA, add(CFA_XSP16, literal(-23)))
          CFI (cfiCond154) V0 load(1, XDATA, add(CFA_XSP16, literal(-22)))
          CFI (cfiCond154) V1 load(1, XDATA, add(CFA_XSP16, literal(-21)))
          CFI (cfiCond154) V2 load(1, XDATA, add(CFA_XSP16, literal(-20)))
          CFI (cfiCond154) V3 load(1, XDATA, add(CFA_XSP16, literal(-19)))
          CFI (cfiCond154) V4 load(1, XDATA, add(CFA_XSP16, literal(-18)))
          CFI (cfiCond154) V5 load(1, XDATA, add(CFA_XSP16, literal(-17)))
          CFI (cfiCond154) V6 load(1, XDATA, add(CFA_XSP16, literal(-16)))
          CFI (cfiCond154) V7 load(1, XDATA, add(CFA_XSP16, literal(-15)))
          CFI (cfiCond154) V8 load(1, XDATA, add(CFA_XSP16, literal(-14)))
          CFI (cfiCond154) V9 load(1, XDATA, add(CFA_XSP16, literal(-13)))
          CFI (cfiCond154) V10 load(1, XDATA, add(CFA_XSP16, literal(-12)))
          CFI (cfiCond154) V11 load(1, XDATA, add(CFA_XSP16, literal(-11)))
          CFI (cfiCond154) V12 load(1, XDATA, add(CFA_XSP16, literal(-10)))
          CFI (cfiCond154) V13 load(1, XDATA, add(CFA_XSP16, literal(-9)))
          CFI (cfiCond154) V14 load(1, XDATA, add(CFA_XSP16, literal(-8)))
          CFI (cfiCond154) V15 load(1, XDATA, add(CFA_XSP16, literal(-7)))
          CFI (cfiCond154) R7 load(1, XDATA, add(CFA_XSP16, literal(-6)))
          CFI (cfiCond154) ?RET_LOW load(1, XDATA, add(CFA_XSP16, literal(-5)))
          CFI (cfiCond154) ?RET_HIGH load(1, XDATA, add(CFA_XSP16, literal(-4)))
          CFI (cfiCond154) ?BRET_EXT load(1, XDATA, add(CFA_XSP16, literal(-3)))
          CFI (cfiCond154) DPL0 load(1, XDATA, add(CFA_XSP16, literal(-2)))
          CFI (cfiCond154) DPH0 load(1, XDATA, add(CFA_XSP16, literal(-1)))
          CFI (cfiCond154) CFA_SP SP+0
          CFI (cfiCond154) CFA_XSP16 add(XSP16, 25)
          CFI Block cfiCond155 Using cfiCommon0
          CFI (cfiCond155) Function MT_AfIncomingMsg
          CFI (cfiCond155) Conditional ??CrossCallReturnLabel_99
          CFI (cfiCond155) R6 load(1, XDATA, add(CFA_XSP16, literal(-24)))
          CFI (cfiCond155) VB load(1, XDATA, add(CFA_XSP16, literal(-23)))
          CFI (cfiCond155) V0 load(1, XDATA, add(CFA_XSP16, literal(-22)))
          CFI (cfiCond155) V1 load(1, XDATA, add(CFA_XSP16, literal(-21)))
          CFI (cfiCond155) V2 load(1, XDATA, add(CFA_XSP16, literal(-20)))
          CFI (cfiCond155) V3 load(1, XDATA, add(CFA_XSP16, literal(-19)))
          CFI (cfiCond155) V4 load(1, XDATA, add(CFA_XSP16, literal(-18)))
          CFI (cfiCond155) V5 load(1, XDATA, add(CFA_XSP16, literal(-17)))
          CFI (cfiCond155) V6 load(1, XDATA, add(CFA_XSP16, literal(-16)))
          CFI (cfiCond155) V7 load(1, XDATA, add(CFA_XSP16, literal(-15)))
          CFI (cfiCond155) V8 load(1, XDATA, add(CFA_XSP16, literal(-14)))
          CFI (cfiCond155) V9 load(1, XDATA, add(CFA_XSP16, literal(-13)))
          CFI (cfiCond155) V10 load(1, XDATA, add(CFA_XSP16, literal(-12)))
          CFI (cfiCond155) V11 load(1, XDATA, add(CFA_XSP16, literal(-11)))
          CFI (cfiCond155) V12 load(1, XDATA, add(CFA_XSP16, literal(-10)))
          CFI (cfiCond155) V13 load(1, XDATA, add(CFA_XSP16, literal(-9)))
          CFI (cfiCond155) V14 load(1, XDATA, add(CFA_XSP16, literal(-8)))
          CFI (cfiCond155) V15 load(1, XDATA, add(CFA_XSP16, literal(-7)))
          CFI (cfiCond155) R7 load(1, XDATA, add(CFA_XSP16, literal(-6)))
          CFI (cfiCond155) ?RET_LOW load(1, XDATA, add(CFA_XSP16, literal(-5)))
          CFI (cfiCond155) ?RET_HIGH load(1, XDATA, add(CFA_XSP16, literal(-4)))
          CFI (cfiCond155) ?BRET_EXT load(1, XDATA, add(CFA_XSP16, literal(-3)))
          CFI (cfiCond155) DPL0 load(1, XDATA, add(CFA_XSP16, literal(-2)))
          CFI (cfiCond155) DPH0 load(1, XDATA, add(CFA_XSP16, literal(-1)))
          CFI (cfiCond155) CFA_SP SP+0
          CFI (cfiCond155) CFA_XSP16 add(XSP16, 25)
          CFI Block cfiPicker156 Using cfiCommon1
          CFI (cfiPicker156) NoFunction
          CFI (cfiPicker156) Picker
        LCALL   ?Subroutine39 & 0xFFFF
??CrossCallReturnLabel_103:
        MOV     DPL,?V0 + 12
        MOV     DPH,?V0 + 13
        MOV     R0,#?V0 + 4
        RET
          CFI EndBlock cfiCond153
          CFI EndBlock cfiCond154
          CFI EndBlock cfiCond155
          CFI EndBlock cfiPicker156

        RSEG BANKED_CODE:CODE:NOROOT(0)
?Subroutine16:
          CFI Block cfiCond157 Using cfiCommon0
          CFI Function MT_AfIncomingMsg
          CFI Conditional ??CrossCallReturnLabel_18
          CFI R6 load(1, XDATA, add(CFA_XSP16, literal(-24)))
          CFI VB load(1, XDATA, add(CFA_XSP16, literal(-23)))
          CFI V0 load(1, XDATA, add(CFA_XSP16, literal(-22)))
          CFI V1 load(1, XDATA, add(CFA_XSP16, literal(-21)))
          CFI V2 load(1, XDATA, add(CFA_XSP16, literal(-20)))
          CFI V3 load(1, XDATA, add(CFA_XSP16, literal(-19)))
          CFI V4 load(1, XDATA, add(CFA_XSP16, literal(-18)))
          CFI V5 load(1, XDATA, add(CFA_XSP16, literal(-17)))
          CFI V6 load(1, XDATA, add(CFA_XSP16, literal(-16)))
          CFI V7 load(1, XDATA, add(CFA_XSP16, literal(-15)))
          CFI V8 load(1, XDATA, add(CFA_XSP16, literal(-14)))
          CFI V9 load(1, XDATA, add(CFA_XSP16, literal(-13)))
          CFI V10 load(1, XDATA, add(CFA_XSP16, literal(-12)))
          CFI V11 load(1, XDATA, add(CFA_XSP16, literal(-11)))
          CFI V12 load(1, XDATA, add(CFA_XSP16, literal(-10)))
          CFI V13 load(1, XDATA, add(CFA_XSP16, literal(-9)))
          CFI V14 load(1, XDATA, add(CFA_XSP16, literal(-8)))
          CFI V15 load(1, XDATA, add(CFA_XSP16, literal(-7)))
          CFI R7 load(1, XDATA, add(CFA_XSP16, literal(-6)))
          CFI ?RET_LOW load(1, XDATA, add(CFA_XSP16, literal(-5)))
          CFI ?RET_HIGH load(1, XDATA, add(CFA_XSP16, literal(-4)))
          CFI ?BRET_EXT load(1, XDATA, add(CFA_XSP16, literal(-3)))
          CFI DPL0 load(1, XDATA, add(CFA_XSP16, literal(-2)))
          CFI DPH0 load(1, XDATA, add(CFA_XSP16, literal(-1)))
          CFI CFA_SP SP+0
          CFI CFA_XSP16 add(XSP16, 25)
          CFI Block cfiCond158 Using cfiCommon0
          CFI (cfiCond158) Function MT_AfIncomingMsg
          CFI (cfiCond158) Conditional ??CrossCallReturnLabel_19
          CFI (cfiCond158) R6 load(1, XDATA, add(CFA_XSP16, literal(-24)))
          CFI (cfiCond158) VB load(1, XDATA, add(CFA_XSP16, literal(-23)))
          CFI (cfiCond158) V0 load(1, XDATA, add(CFA_XSP16, literal(-22)))
          CFI (cfiCond158) V1 load(1, XDATA, add(CFA_XSP16, literal(-21)))
          CFI (cfiCond158) V2 load(1, XDATA, add(CFA_XSP16, literal(-20)))
          CFI (cfiCond158) V3 load(1, XDATA, add(CFA_XSP16, literal(-19)))
          CFI (cfiCond158) V4 load(1, XDATA, add(CFA_XSP16, literal(-18)))
          CFI (cfiCond158) V5 load(1, XDATA, add(CFA_XSP16, literal(-17)))
          CFI (cfiCond158) V6 load(1, XDATA, add(CFA_XSP16, literal(-16)))
          CFI (cfiCond158) V7 load(1, XDATA, add(CFA_XSP16, literal(-15)))
          CFI (cfiCond158) V8 load(1, XDATA, add(CFA_XSP16, literal(-14)))
          CFI (cfiCond158) V9 load(1, XDATA, add(CFA_XSP16, literal(-13)))
          CFI (cfiCond158) V10 load(1, XDATA, add(CFA_XSP16, literal(-12)))
          CFI (cfiCond158) V11 load(1, XDATA, add(CFA_XSP16, literal(-11)))
          CFI (cfiCond158) V12 load(1, XDATA, add(CFA_XSP16, literal(-10)))
          CFI (cfiCond158) V13 load(1, XDATA, add(CFA_XSP16, literal(-9)))
          CFI (cfiCond158) V14 load(1, XDATA, add(CFA_XSP16, literal(-8)))
          CFI (cfiCond158) V15 load(1, XDATA, add(CFA_XSP16, literal(-7)))
          CFI (cfiCond158) R7 load(1, XDATA, add(CFA_XSP16, literal(-6)))
          CFI (cfiCond158) ?RET_LOW load(1, XDATA, add(CFA_XSP16, literal(-5)))
          CFI (cfiCond158) ?RET_HIGH load(1, XDATA, add(CFA_XSP16, literal(-4)))
          CFI (cfiCond158) ?BRET_EXT load(1, XDATA, add(CFA_XSP16, literal(-3)))
          CFI (cfiCond158) DPL0 load(1, XDATA, add(CFA_XSP16, literal(-2)))
          CFI (cfiCond158) DPH0 load(1, XDATA, add(CFA_XSP16, literal(-1)))
          CFI (cfiCond158) CFA_SP SP+0
          CFI (cfiCond158) CFA_XSP16 add(XSP16, 25)
          CFI Block cfiPicker159 Using cfiCommon1
          CFI (cfiPicker159) NoFunction
          CFI (cfiPicker159) Picker
        MOV     DPL,?V0 + 4
        MOV     DPH,?V0 + 5
        LCALL   ?Subroutine37 & 0xFFFF
??CrossCallReturnLabel_58:
        MOV     R0,#?V0 + 4
        RET
          CFI EndBlock cfiCond157
          CFI EndBlock cfiCond158
          CFI EndBlock cfiPicker159

        RSEG BANKED_CODE:CODE:NOROOT(0)
?Subroutine37:
          CFI Block cfiCond160 Using cfiCommon0
          CFI Function MT_AfDataRequest
          CFI Conditional ??CrossCallReturnLabel_56
          CFI R6 load(1, XDATA, add(CFA_XSP16, literal(-22)))
          CFI VB load(1, XDATA, add(CFA_XSP16, literal(-21)))
          CFI V0 load(1, XDATA, add(CFA_XSP16, literal(-20)))
          CFI V1 load(1, XDATA, add(CFA_XSP16, literal(-19)))
          CFI V2 load(1, XDATA, add(CFA_XSP16, literal(-18)))
          CFI V3 load(1, XDATA, add(CFA_XSP16, literal(-17)))
          CFI V4 load(1, XDATA, add(CFA_XSP16, literal(-16)))
          CFI V5 load(1, XDATA, add(CFA_XSP16, literal(-15)))
          CFI V6 load(1, XDATA, add(CFA_XSP16, literal(-14)))
          CFI V7 load(1, XDATA, add(CFA_XSP16, literal(-13)))
          CFI V8 load(1, XDATA, add(CFA_XSP16, literal(-12)))
          CFI V9 load(1, XDATA, add(CFA_XSP16, literal(-11)))
          CFI V10 load(1, XDATA, add(CFA_XSP16, literal(-10)))
          CFI V11 load(1, XDATA, add(CFA_XSP16, literal(-9)))
          CFI V12 load(1, XDATA, add(CFA_XSP16, literal(-8)))
          CFI V13 load(1, XDATA, add(CFA_XSP16, literal(-7)))
          CFI R7 load(1, XDATA, add(CFA_XSP16, literal(-6)))
          CFI ?RET_LOW load(1, XDATA, add(CFA_XSP16, literal(-5)))
          CFI ?RET_HIGH load(1, XDATA, add(CFA_XSP16, literal(-4)))
          CFI ?BRET_EXT load(1, XDATA, add(CFA_XSP16, literal(-3)))
          CFI DPL0 load(1, XDATA, add(CFA_XSP16, literal(-2)))
          CFI DPH0 load(1, XDATA, add(CFA_XSP16, literal(-1)))
          CFI CFA_SP SP+0
          CFI CFA_XSP16 add(XSP16, 36)
          CFI Block cfiCond161 Using cfiCommon0
          CFI (cfiCond161) Function MT_AfIncomingMsg
          CFI (cfiCond161) Conditional ??CrossCallReturnLabel_58, ??CrossCallReturnLabel_18
          CFI (cfiCond161) R6 load(1, XDATA, add(CFA_XSP16, literal(-24)))
          CFI (cfiCond161) VB load(1, XDATA, add(CFA_XSP16, literal(-23)))
          CFI (cfiCond161) V0 load(1, XDATA, add(CFA_XSP16, literal(-22)))
          CFI (cfiCond161) V1 load(1, XDATA, add(CFA_XSP16, literal(-21)))
          CFI (cfiCond161) V2 load(1, XDATA, add(CFA_XSP16, literal(-20)))
          CFI (cfiCond161) V3 load(1, XDATA, add(CFA_XSP16, literal(-19)))
          CFI (cfiCond161) V4 load(1, XDATA, add(CFA_XSP16, literal(-18)))
          CFI (cfiCond161) V5 load(1, XDATA, add(CFA_XSP16, literal(-17)))
          CFI (cfiCond161) V6 load(1, XDATA, add(CFA_XSP16, literal(-16)))
          CFI (cfiCond161) V7 load(1, XDATA, add(CFA_XSP16, literal(-15)))
          CFI (cfiCond161) V8 load(1, XDATA, add(CFA_XSP16, literal(-14)))
          CFI (cfiCond161) V9 load(1, XDATA, add(CFA_XSP16, literal(-13)))
          CFI (cfiCond161) V10 load(1, XDATA, add(CFA_XSP16, literal(-12)))
          CFI (cfiCond161) V11 load(1, XDATA, add(CFA_XSP16, literal(-11)))
          CFI (cfiCond161) V12 load(1, XDATA, add(CFA_XSP16, literal(-10)))
          CFI (cfiCond161) V13 load(1, XDATA, add(CFA_XSP16, literal(-9)))
          CFI (cfiCond161) V14 load(1, XDATA, add(CFA_XSP16, literal(-8)))
          CFI (cfiCond161) V15 load(1, XDATA, add(CFA_XSP16, literal(-7)))
          CFI (cfiCond161) R7 load(1, XDATA, add(CFA_XSP16, literal(-6)))
          CFI (cfiCond161) ?RET_LOW load(1, XDATA, add(CFA_XSP16, literal(-5)))
          CFI (cfiCond161) ?RET_HIGH load(1, XDATA, add(CFA_XSP16, literal(-4)))
          CFI (cfiCond161) ?BRET_EXT load(1, XDATA, add(CFA_XSP16, literal(-3)))
          CFI (cfiCond161) DPL0 load(1, XDATA, add(CFA_XSP16, literal(-2)))
          CFI (cfiCond161) DPH0 load(1, XDATA, add(CFA_XSP16, literal(-1)))
          CFI (cfiCond161) CFA_SP SP+0
          CFI (cfiCond161) CFA_XSP16 add(XSP16, 25)
          CFI Block cfiCond162 Using cfiCommon0
          CFI (cfiCond162) Function MT_AfIncomingMsg
          CFI (cfiCond162) Conditional ??CrossCallReturnLabel_58, ??CrossCallReturnLabel_19
          CFI (cfiCond162) R6 load(1, XDATA, add(CFA_XSP16, literal(-24)))
          CFI (cfiCond162) VB load(1, XDATA, add(CFA_XSP16, literal(-23)))
          CFI (cfiCond162) V0 load(1, XDATA, add(CFA_XSP16, literal(-22)))
          CFI (cfiCond162) V1 load(1, XDATA, add(CFA_XSP16, literal(-21)))
          CFI (cfiCond162) V2 load(1, XDATA, add(CFA_XSP16, literal(-20)))
          CFI (cfiCond162) V3 load(1, XDATA, add(CFA_XSP16, literal(-19)))
          CFI (cfiCond162) V4 load(1, XDATA, add(CFA_XSP16, literal(-18)))
          CFI (cfiCond162) V5 load(1, XDATA, add(CFA_XSP16, literal(-17)))
          CFI (cfiCond162) V6 load(1, XDATA, add(CFA_XSP16, literal(-16)))
          CFI (cfiCond162) V7 load(1, XDATA, add(CFA_XSP16, literal(-15)))
          CFI (cfiCond162) V8 load(1, XDATA, add(CFA_XSP16, literal(-14)))
          CFI (cfiCond162) V9 load(1, XDATA, add(CFA_XSP16, literal(-13)))
          CFI (cfiCond162) V10 load(1, XDATA, add(CFA_XSP16, literal(-12)))
          CFI (cfiCond162) V11 load(1, XDATA, add(CFA_XSP16, literal(-11)))
          CFI (cfiCond162) V12 load(1, XDATA, add(CFA_XSP16, literal(-10)))
          CFI (cfiCond162) V13 load(1, XDATA, add(CFA_XSP16, literal(-9)))
          CFI (cfiCond162) V14 load(1, XDATA, add(CFA_XSP16, literal(-8)))
          CFI (cfiCond162) V15 load(1, XDATA, add(CFA_XSP16, literal(-7)))
          CFI (cfiCond162) R7 load(1, XDATA, add(CFA_XSP16, literal(-6)))
          CFI (cfiCond162) ?RET_LOW load(1, XDATA, add(CFA_XSP16, literal(-5)))
          CFI (cfiCond162) ?RET_HIGH load(1, XDATA, add(CFA_XSP16, literal(-4)))
          CFI (cfiCond162) ?BRET_EXT load(1, XDATA, add(CFA_XSP16, literal(-3)))
          CFI (cfiCond162) DPL0 load(1, XDATA, add(CFA_XSP16, literal(-2)))
          CFI (cfiCond162) DPH0 load(1, XDATA, add(CFA_XSP16, literal(-1)))
          CFI (cfiCond162) CFA_SP SP+0
          CFI (cfiCond162) CFA_XSP16 add(XSP16, 25)
          CFI Block cfiCond163 Using cfiCommon0
          CFI (cfiCond163) Function MT_AfDataStore
          CFI (cfiCond163) Conditional ??CrossCallReturnLabel_57
          CFI (cfiCond163) R6 load(1, XDATA, add(CFA_XSP16, literal(-14)))
          CFI (cfiCond163) VB load(1, XDATA, add(CFA_XSP16, literal(-13)))
          CFI (cfiCond163) V0 load(1, XDATA, add(CFA_XSP16, literal(-12)))
          CFI (cfiCond163) V1 load(1, XDATA, add(CFA_XSP16, literal(-11)))
          CFI (cfiCond163) V2 load(1, XDATA, add(CFA_XSP16, literal(-10)))
          CFI (cfiCond163) V3 load(1, XDATA, add(CFA_XSP16, literal(-9)))
          CFI (cfiCond163) V4 load(1, XDATA, add(CFA_XSP16, literal(-8)))
          CFI (cfiCond163) V5 load(1, XDATA, add(CFA_XSP16, literal(-7)))
          CFI (cfiCond163) R7 load(1, XDATA, add(CFA_XSP16, literal(-6)))
          CFI (cfiCond163) ?RET_LOW load(1, XDATA, add(CFA_XSP16, literal(-5)))
          CFI (cfiCond163) ?RET_HIGH load(1, XDATA, add(CFA_XSP16, literal(-4)))
          CFI (cfiCond163) ?BRET_EXT load(1, XDATA, add(CFA_XSP16, literal(-3)))
          CFI (cfiCond163) DPL0 load(1, XDATA, add(CFA_XSP16, literal(-2)))
          CFI (cfiCond163) DPH0 load(1, XDATA, add(CFA_XSP16, literal(-1)))
          CFI (cfiCond163) CFA_SP SP+0
          CFI (cfiCond163) CFA_XSP16 add(XSP16, 15)
          CFI Block cfiPicker164 Using cfiCommon1
          CFI (cfiPicker164) NoFunction
          CFI (cfiPicker164) Picker
        MOVX    A,@DPTR
        MOV     ?V0 + 4,A
        INC     DPTR
        MOVX    A,@DPTR
        MOV     ?V0 + 5,A
        RET
          CFI EndBlock cfiCond160
          CFI EndBlock cfiCond161
          CFI EndBlock cfiCond162
          CFI EndBlock cfiCond163
          CFI EndBlock cfiPicker164

        RSEG BANKED_CODE:CODE:NOROOT(0)
?Subroutine6:
          CFI Block cfiCond165 Using cfiCommon0
          CFI Function MT_AfIncomingMsg
          CFI Conditional ??CrossCallReturnLabel_2
          CFI R6 load(1, XDATA, add(CFA_XSP16, literal(-24)))
          CFI VB load(1, XDATA, add(CFA_XSP16, literal(-23)))
          CFI V0 load(1, XDATA, add(CFA_XSP16, literal(-22)))
          CFI V1 load(1, XDATA, add(CFA_XSP16, literal(-21)))
          CFI V2 load(1, XDATA, add(CFA_XSP16, literal(-20)))
          CFI V3 load(1, XDATA, add(CFA_XSP16, literal(-19)))
          CFI V4 load(1, XDATA, add(CFA_XSP16, literal(-18)))
          CFI V5 load(1, XDATA, add(CFA_XSP16, literal(-17)))
          CFI V6 load(1, XDATA, add(CFA_XSP16, literal(-16)))
          CFI V7 load(1, XDATA, add(CFA_XSP16, literal(-15)))
          CFI V8 load(1, XDATA, add(CFA_XSP16, literal(-14)))
          CFI V9 load(1, XDATA, add(CFA_XSP16, literal(-13)))
          CFI V10 load(1, XDATA, add(CFA_XSP16, literal(-12)))
          CFI V11 load(1, XDATA, add(CFA_XSP16, literal(-11)))
          CFI V12 load(1, XDATA, add(CFA_XSP16, literal(-10)))
          CFI V13 load(1, XDATA, add(CFA_XSP16, literal(-9)))
          CFI V14 load(1, XDATA, add(CFA_XSP16, literal(-8)))
          CFI V15 load(1, XDATA, add(CFA_XSP16, literal(-7)))
          CFI R7 load(1, XDATA, add(CFA_XSP16, literal(-6)))
          CFI ?RET_LOW load(1, XDATA, add(CFA_XSP16, literal(-5)))
          CFI ?RET_HIGH load(1, XDATA, add(CFA_XSP16, literal(-4)))
          CFI ?BRET_EXT load(1, XDATA, add(CFA_XSP16, literal(-3)))
          CFI DPL0 load(1, XDATA, add(CFA_XSP16, literal(-2)))
          CFI DPH0 load(1, XDATA, add(CFA_XSP16, literal(-1)))
          CFI CFA_SP SP+0
          CFI CFA_XSP16 add(XSP16, 25)
          CFI Block cfiCond166 Using cfiCommon0
          CFI (cfiCond166) Function MT_AfIncomingMsg
          CFI (cfiCond166) Conditional ??CrossCallReturnLabel_3
          CFI (cfiCond166) R6 load(1, XDATA, add(CFA_XSP16, literal(-24)))
          CFI (cfiCond166) VB load(1, XDATA, add(CFA_XSP16, literal(-23)))
          CFI (cfiCond166) V0 load(1, XDATA, add(CFA_XSP16, literal(-22)))
          CFI (cfiCond166) V1 load(1, XDATA, add(CFA_XSP16, literal(-21)))
          CFI (cfiCond166) V2 load(1, XDATA, add(CFA_XSP16, literal(-20)))
          CFI (cfiCond166) V3 load(1, XDATA, add(CFA_XSP16, literal(-19)))
          CFI (cfiCond166) V4 load(1, XDATA, add(CFA_XSP16, literal(-18)))
          CFI (cfiCond166) V5 load(1, XDATA, add(CFA_XSP16, literal(-17)))
          CFI (cfiCond166) V6 load(1, XDATA, add(CFA_XSP16, literal(-16)))
          CFI (cfiCond166) V7 load(1, XDATA, add(CFA_XSP16, literal(-15)))
          CFI (cfiCond166) V8 load(1, XDATA, add(CFA_XSP16, literal(-14)))
          CFI (cfiCond166) V9 load(1, XDATA, add(CFA_XSP16, literal(-13)))
          CFI (cfiCond166) V10 load(1, XDATA, add(CFA_XSP16, literal(-12)))
          CFI (cfiCond166) V11 load(1, XDATA, add(CFA_XSP16, literal(-11)))
          CFI (cfiCond166) V12 load(1, XDATA, add(CFA_XSP16, literal(-10)))
          CFI (cfiCond166) V13 load(1, XDATA, add(CFA_XSP16, literal(-9)))
          CFI (cfiCond166) V14 load(1, XDATA, add(CFA_XSP16, literal(-8)))
          CFI (cfiCond166) V15 load(1, XDATA, add(CFA_XSP16, literal(-7)))
          CFI (cfiCond166) R7 load(1, XDATA, add(CFA_XSP16, literal(-6)))
          CFI (cfiCond166) ?RET_LOW load(1, XDATA, add(CFA_XSP16, literal(-5)))
          CFI (cfiCond166) ?RET_HIGH load(1, XDATA, add(CFA_XSP16, literal(-4)))
          CFI (cfiCond166) ?BRET_EXT load(1, XDATA, add(CFA_XSP16, literal(-3)))
          CFI (cfiCond166) DPL0 load(1, XDATA, add(CFA_XSP16, literal(-2)))
          CFI (cfiCond166) DPH0 load(1, XDATA, add(CFA_XSP16, literal(-1)))
          CFI (cfiCond166) CFA_SP SP+0
          CFI (cfiCond166) CFA_XSP16 add(XSP16, 25)
          CFI Block cfiCond167 Using cfiCommon0
          CFI (cfiCond167) Function MT_AfIncomingMsg
          CFI (cfiCond167) Conditional ??CrossCallReturnLabel_4
          CFI (cfiCond167) R6 load(1, XDATA, add(CFA_XSP16, literal(-24)))
          CFI (cfiCond167) VB load(1, XDATA, add(CFA_XSP16, literal(-23)))
          CFI (cfiCond167) V0 load(1, XDATA, add(CFA_XSP16, literal(-22)))
          CFI (cfiCond167) V1 load(1, XDATA, add(CFA_XSP16, literal(-21)))
          CFI (cfiCond167) V2 load(1, XDATA, add(CFA_XSP16, literal(-20)))
          CFI (cfiCond167) V3 load(1, XDATA, add(CFA_XSP16, literal(-19)))
          CFI (cfiCond167) V4 load(1, XDATA, add(CFA_XSP16, literal(-18)))
          CFI (cfiCond167) V5 load(1, XDATA, add(CFA_XSP16, literal(-17)))
          CFI (cfiCond167) V6 load(1, XDATA, add(CFA_XSP16, literal(-16)))
          CFI (cfiCond167) V7 load(1, XDATA, add(CFA_XSP16, literal(-15)))
          CFI (cfiCond167) V8 load(1, XDATA, add(CFA_XSP16, literal(-14)))
          CFI (cfiCond167) V9 load(1, XDATA, add(CFA_XSP16, literal(-13)))
          CFI (cfiCond167) V10 load(1, XDATA, add(CFA_XSP16, literal(-12)))
          CFI (cfiCond167) V11 load(1, XDATA, add(CFA_XSP16, literal(-11)))
          CFI (cfiCond167) V12 load(1, XDATA, add(CFA_XSP16, literal(-10)))
          CFI (cfiCond167) V13 load(1, XDATA, add(CFA_XSP16, literal(-9)))
          CFI (cfiCond167) V14 load(1, XDATA, add(CFA_XSP16, literal(-8)))
          CFI (cfiCond167) V15 load(1, XDATA, add(CFA_XSP16, literal(-7)))
          CFI (cfiCond167) R7 load(1, XDATA, add(CFA_XSP16, literal(-6)))
          CFI (cfiCond167) ?RET_LOW load(1, XDATA, add(CFA_XSP16, literal(-5)))
          CFI (cfiCond167) ?RET_HIGH load(1, XDATA, add(CFA_XSP16, literal(-4)))
          CFI (cfiCond167) ?BRET_EXT load(1, XDATA, add(CFA_XSP16, literal(-3)))
          CFI (cfiCond167) DPL0 load(1, XDATA, add(CFA_XSP16, literal(-2)))
          CFI (cfiCond167) DPH0 load(1, XDATA, add(CFA_XSP16, literal(-1)))
          CFI (cfiCond167) CFA_SP SP+0
          CFI (cfiCond167) CFA_XSP16 add(XSP16, 25)
          CFI Block cfiCond168 Using cfiCommon0
          CFI (cfiCond168) Function MT_AfIncomingMsg
          CFI (cfiCond168) Conditional ??CrossCallReturnLabel_5
          CFI (cfiCond168) R6 load(1, XDATA, add(CFA_XSP16, literal(-24)))
          CFI (cfiCond168) VB load(1, XDATA, add(CFA_XSP16, literal(-23)))
          CFI (cfiCond168) V0 load(1, XDATA, add(CFA_XSP16, literal(-22)))
          CFI (cfiCond168) V1 load(1, XDATA, add(CFA_XSP16, literal(-21)))
          CFI (cfiCond168) V2 load(1, XDATA, add(CFA_XSP16, literal(-20)))
          CFI (cfiCond168) V3 load(1, XDATA, add(CFA_XSP16, literal(-19)))
          CFI (cfiCond168) V4 load(1, XDATA, add(CFA_XSP16, literal(-18)))
          CFI (cfiCond168) V5 load(1, XDATA, add(CFA_XSP16, literal(-17)))
          CFI (cfiCond168) V6 load(1, XDATA, add(CFA_XSP16, literal(-16)))
          CFI (cfiCond168) V7 load(1, XDATA, add(CFA_XSP16, literal(-15)))
          CFI (cfiCond168) V8 load(1, XDATA, add(CFA_XSP16, literal(-14)))
          CFI (cfiCond168) V9 load(1, XDATA, add(CFA_XSP16, literal(-13)))
          CFI (cfiCond168) V10 load(1, XDATA, add(CFA_XSP16, literal(-12)))
          CFI (cfiCond168) V11 load(1, XDATA, add(CFA_XSP16, literal(-11)))
          CFI (cfiCond168) V12 load(1, XDATA, add(CFA_XSP16, literal(-10)))
          CFI (cfiCond168) V13 load(1, XDATA, add(CFA_XSP16, literal(-9)))
          CFI (cfiCond168) V14 load(1, XDATA, add(CFA_XSP16, literal(-8)))
          CFI (cfiCond168) V15 load(1, XDATA, add(CFA_XSP16, literal(-7)))
          CFI (cfiCond168) R7 load(1, XDATA, add(CFA_XSP16, literal(-6)))
          CFI (cfiCond168) ?RET_LOW load(1, XDATA, add(CFA_XSP16, literal(-5)))
          CFI (cfiCond168) ?RET_HIGH load(1, XDATA, add(CFA_XSP16, literal(-4)))
          CFI (cfiCond168) ?BRET_EXT load(1, XDATA, add(CFA_XSP16, literal(-3)))
          CFI (cfiCond168) DPL0 load(1, XDATA, add(CFA_XSP16, literal(-2)))
          CFI (cfiCond168) DPH0 load(1, XDATA, add(CFA_XSP16, literal(-1)))
          CFI (cfiCond168) CFA_SP SP+0
          CFI (cfiCond168) CFA_XSP16 add(XSP16, 25)
          CFI Block cfiPicker169 Using cfiCommon1
          CFI (cfiPicker169) NoFunction
          CFI (cfiPicker169) Picker
        LCALL   ?Subroutine41 & 0xFFFF
??CrossCallReturnLabel_111:
        RET
          CFI EndBlock cfiCond165
          CFI EndBlock cfiCond166
          CFI EndBlock cfiCond167
          CFI EndBlock cfiCond168
          CFI EndBlock cfiPicker169

        RSEG BANKED_CODE:CODE:NOROOT(0)
?Subroutine41:
          CFI Block cfiCond170 Using cfiCommon0
          CFI Function MT_AfIncomingMsg
          CFI Conditional ??CrossCallReturnLabel_111, ??CrossCallReturnLabel_2
          CFI R6 load(1, XDATA, add(CFA_XSP16, literal(-24)))
          CFI VB load(1, XDATA, add(CFA_XSP16, literal(-23)))
          CFI V0 load(1, XDATA, add(CFA_XSP16, literal(-22)))
          CFI V1 load(1, XDATA, add(CFA_XSP16, literal(-21)))
          CFI V2 load(1, XDATA, add(CFA_XSP16, literal(-20)))
          CFI V3 load(1, XDATA, add(CFA_XSP16, literal(-19)))
          CFI V4 load(1, XDATA, add(CFA_XSP16, literal(-18)))
          CFI V5 load(1, XDATA, add(CFA_XSP16, literal(-17)))
          CFI V6 load(1, XDATA, add(CFA_XSP16, literal(-16)))
          CFI V7 load(1, XDATA, add(CFA_XSP16, literal(-15)))
          CFI V8 load(1, XDATA, add(CFA_XSP16, literal(-14)))
          CFI V9 load(1, XDATA, add(CFA_XSP16, literal(-13)))
          CFI V10 load(1, XDATA, add(CFA_XSP16, literal(-12)))
          CFI V11 load(1, XDATA, add(CFA_XSP16, literal(-11)))
          CFI V12 load(1, XDATA, add(CFA_XSP16, literal(-10)))
          CFI V13 load(1, XDATA, add(CFA_XSP16, literal(-9)))
          CFI V14 load(1, XDATA, add(CFA_XSP16, literal(-8)))
          CFI V15 load(1, XDATA, add(CFA_XSP16, literal(-7)))
          CFI R7 load(1, XDATA, add(CFA_XSP16, literal(-6)))
          CFI ?RET_LOW load(1, XDATA, add(CFA_XSP16, literal(-5)))
          CFI ?RET_HIGH load(1, XDATA, add(CFA_XSP16, literal(-4)))
          CFI ?BRET_EXT load(1, XDATA, add(CFA_XSP16, literal(-3)))
          CFI DPL0 load(1, XDATA, add(CFA_XSP16, literal(-2)))
          CFI DPH0 load(1, XDATA, add(CFA_XSP16, literal(-1)))
          CFI CFA_SP SP+0
          CFI CFA_XSP16 add(XSP16, 25)
          CFI Block cfiCond171 Using cfiCommon0
          CFI (cfiCond171) Function MT_AfIncomingMsg
          CFI (cfiCond171) Conditional ??CrossCallReturnLabel_111, ??CrossCallReturnLabel_3
          CFI (cfiCond171) R6 load(1, XDATA, add(CFA_XSP16, literal(-24)))
          CFI (cfiCond171) VB load(1, XDATA, add(CFA_XSP16, literal(-23)))
          CFI (cfiCond171) V0 load(1, XDATA, add(CFA_XSP16, literal(-22)))
          CFI (cfiCond171) V1 load(1, XDATA, add(CFA_XSP16, literal(-21)))
          CFI (cfiCond171) V2 load(1, XDATA, add(CFA_XSP16, literal(-20)))
          CFI (cfiCond171) V3 load(1, XDATA, add(CFA_XSP16, literal(-19)))
          CFI (cfiCond171) V4 load(1, XDATA, add(CFA_XSP16, literal(-18)))
          CFI (cfiCond171) V5 load(1, XDATA, add(CFA_XSP16, literal(-17)))
          CFI (cfiCond171) V6 load(1, XDATA, add(CFA_XSP16, literal(-16)))
          CFI (cfiCond171) V7 load(1, XDATA, add(CFA_XSP16, literal(-15)))
          CFI (cfiCond171) V8 load(1, XDATA, add(CFA_XSP16, literal(-14)))
          CFI (cfiCond171) V9 load(1, XDATA, add(CFA_XSP16, literal(-13)))
          CFI (cfiCond171) V10 load(1, XDATA, add(CFA_XSP16, literal(-12)))
          CFI (cfiCond171) V11 load(1, XDATA, add(CFA_XSP16, literal(-11)))
          CFI (cfiCond171) V12 load(1, XDATA, add(CFA_XSP16, literal(-10)))
          CFI (cfiCond171) V13 load(1, XDATA, add(CFA_XSP16, literal(-9)))
          CFI (cfiCond171) V14 load(1, XDATA, add(CFA_XSP16, literal(-8)))
          CFI (cfiCond171) V15 load(1, XDATA, add(CFA_XSP16, literal(-7)))
          CFI (cfiCond171) R7 load(1, XDATA, add(CFA_XSP16, literal(-6)))
          CFI (cfiCond171) ?RET_LOW load(1, XDATA, add(CFA_XSP16, literal(-5)))
          CFI (cfiCond171) ?RET_HIGH load(1, XDATA, add(CFA_XSP16, literal(-4)))
          CFI (cfiCond171) ?BRET_EXT load(1, XDATA, add(CFA_XSP16, literal(-3)))
          CFI (cfiCond171) DPL0 load(1, XDATA, add(CFA_XSP16, literal(-2)))
          CFI (cfiCond171) DPH0 load(1, XDATA, add(CFA_XSP16, literal(-1)))
          CFI (cfiCond171) CFA_SP SP+0
          CFI (cfiCond171) CFA_XSP16 add(XSP16, 25)
          CFI Block cfiCond172 Using cfiCommon0
          CFI (cfiCond172) Function MT_AfIncomingMsg
          CFI (cfiCond172) Conditional ??CrossCallReturnLabel_111, ??CrossCallReturnLabel_4
          CFI (cfiCond172) R6 load(1, XDATA, add(CFA_XSP16, literal(-24)))
          CFI (cfiCond172) VB load(1, XDATA, add(CFA_XSP16, literal(-23)))
          CFI (cfiCond172) V0 load(1, XDATA, add(CFA_XSP16, literal(-22)))
          CFI (cfiCond172) V1 load(1, XDATA, add(CFA_XSP16, literal(-21)))
          CFI (cfiCond172) V2 load(1, XDATA, add(CFA_XSP16, literal(-20)))
          CFI (cfiCond172) V3 load(1, XDATA, add(CFA_XSP16, literal(-19)))
          CFI (cfiCond172) V4 load(1, XDATA, add(CFA_XSP16, literal(-18)))
          CFI (cfiCond172) V5 load(1, XDATA, add(CFA_XSP16, literal(-17)))
          CFI (cfiCond172) V6 load(1, XDATA, add(CFA_XSP16, literal(-16)))
          CFI (cfiCond172) V7 load(1, XDATA, add(CFA_XSP16, literal(-15)))
          CFI (cfiCond172) V8 load(1, XDATA, add(CFA_XSP16, literal(-14)))
          CFI (cfiCond172) V9 load(1, XDATA, add(CFA_XSP16, literal(-13)))
          CFI (cfiCond172) V10 load(1, XDATA, add(CFA_XSP16, literal(-12)))
          CFI (cfiCond172) V11 load(1, XDATA, add(CFA_XSP16, literal(-11)))
          CFI (cfiCond172) V12 load(1, XDATA, add(CFA_XSP16, literal(-10)))
          CFI (cfiCond172) V13 load(1, XDATA, add(CFA_XSP16, literal(-9)))
          CFI (cfiCond172) V14 load(1, XDATA, add(CFA_XSP16, literal(-8)))
          CFI (cfiCond172) V15 load(1, XDATA, add(CFA_XSP16, literal(-7)))
          CFI (cfiCond172) R7 load(1, XDATA, add(CFA_XSP16, literal(-6)))
          CFI (cfiCond172) ?RET_LOW load(1, XDATA, add(CFA_XSP16, literal(-5)))
          CFI (cfiCond172) ?RET_HIGH load(1, XDATA, add(CFA_XSP16, literal(-4)))
          CFI (cfiCond172) ?BRET_EXT load(1, XDATA, add(CFA_XSP16, literal(-3)))
          CFI (cfiCond172) DPL0 load(1, XDATA, add(CFA_XSP16, literal(-2)))
          CFI (cfiCond172) DPH0 load(1, XDATA, add(CFA_XSP16, literal(-1)))
          CFI (cfiCond172) CFA_SP SP+0
          CFI (cfiCond172) CFA_XSP16 add(XSP16, 25)
          CFI Block cfiCond173 Using cfiCommon0
          CFI (cfiCond173) Function MT_AfIncomingMsg
          CFI (cfiCond173) Conditional ??CrossCallReturnLabel_111, ??CrossCallReturnLabel_5
          CFI (cfiCond173) R6 load(1, XDATA, add(CFA_XSP16, literal(-24)))
          CFI (cfiCond173) VB load(1, XDATA, add(CFA_XSP16, literal(-23)))
          CFI (cfiCond173) V0 load(1, XDATA, add(CFA_XSP16, literal(-22)))
          CFI (cfiCond173) V1 load(1, XDATA, add(CFA_XSP16, literal(-21)))
          CFI (cfiCond173) V2 load(1, XDATA, add(CFA_XSP16, literal(-20)))
          CFI (cfiCond173) V3 load(1, XDATA, add(CFA_XSP16, literal(-19)))
          CFI (cfiCond173) V4 load(1, XDATA, add(CFA_XSP16, literal(-18)))
          CFI (cfiCond173) V5 load(1, XDATA, add(CFA_XSP16, literal(-17)))
          CFI (cfiCond173) V6 load(1, XDATA, add(CFA_XSP16, literal(-16)))
          CFI (cfiCond173) V7 load(1, XDATA, add(CFA_XSP16, literal(-15)))
          CFI (cfiCond173) V8 load(1, XDATA, add(CFA_XSP16, literal(-14)))
          CFI (cfiCond173) V9 load(1, XDATA, add(CFA_XSP16, literal(-13)))
          CFI (cfiCond173) V10 load(1, XDATA, add(CFA_XSP16, literal(-12)))
          CFI (cfiCond173) V11 load(1, XDATA, add(CFA_XSP16, literal(-11)))
          CFI (cfiCond173) V12 load(1, XDATA, add(CFA_XSP16, literal(-10)))
          CFI (cfiCond173) V13 load(1, XDATA, add(CFA_XSP16, literal(-9)))
          CFI (cfiCond173) V14 load(1, XDATA, add(CFA_XSP16, literal(-8)))
          CFI (cfiCond173) V15 load(1, XDATA, add(CFA_XSP16, literal(-7)))
          CFI (cfiCond173) R7 load(1, XDATA, add(CFA_XSP16, literal(-6)))
          CFI (cfiCond173) ?RET_LOW load(1, XDATA, add(CFA_XSP16, literal(-5)))
          CFI (cfiCond173) ?RET_HIGH load(1, XDATA, add(CFA_XSP16, literal(-4)))
          CFI (cfiCond173) ?BRET_EXT load(1, XDATA, add(CFA_XSP16, literal(-3)))
          CFI (cfiCond173) DPL0 load(1, XDATA, add(CFA_XSP16, literal(-2)))
          CFI (cfiCond173) DPH0 load(1, XDATA, add(CFA_XSP16, literal(-1)))
          CFI (cfiCond173) CFA_SP SP+0
          CFI (cfiCond173) CFA_XSP16 add(XSP16, 25)
          CFI Block cfiCond174 Using cfiCommon0
          CFI (cfiCond174) Function MT_AfIncomingMsg
          CFI (cfiCond174) Conditional ??CrossCallReturnLabel_112, ??CrossCallReturnLabel_109, ??CrossCallReturnLabel_0
          CFI (cfiCond174) R6 load(1, XDATA, add(CFA_XSP16, literal(-24)))
          CFI (cfiCond174) VB load(1, XDATA, add(CFA_XSP16, literal(-23)))
          CFI (cfiCond174) V0 load(1, XDATA, add(CFA_XSP16, literal(-22)))
          CFI (cfiCond174) V1 load(1, XDATA, add(CFA_XSP16, literal(-21)))
          CFI (cfiCond174) V2 load(1, XDATA, add(CFA_XSP16, literal(-20)))
          CFI (cfiCond174) V3 load(1, XDATA, add(CFA_XSP16, literal(-19)))
          CFI (cfiCond174) V4 load(1, XDATA, add(CFA_XSP16, literal(-18)))
          CFI (cfiCond174) V5 load(1, XDATA, add(CFA_XSP16, literal(-17)))
          CFI (cfiCond174) V6 load(1, XDATA, add(CFA_XSP16, literal(-16)))
          CFI (cfiCond174) V7 load(1, XDATA, add(CFA_XSP16, literal(-15)))
          CFI (cfiCond174) V8 load(1, XDATA, add(CFA_XSP16, literal(-14)))
          CFI (cfiCond174) V9 load(1, XDATA, add(CFA_XSP16, literal(-13)))
          CFI (cfiCond174) V10 load(1, XDATA, add(CFA_XSP16, literal(-12)))
          CFI (cfiCond174) V11 load(1, XDATA, add(CFA_XSP16, literal(-11)))
          CFI (cfiCond174) V12 load(1, XDATA, add(CFA_XSP16, literal(-10)))
          CFI (cfiCond174) V13 load(1, XDATA, add(CFA_XSP16, literal(-9)))
          CFI (cfiCond174) V14 load(1, XDATA, add(CFA_XSP16, literal(-8)))
          CFI (cfiCond174) V15 load(1, XDATA, add(CFA_XSP16, literal(-7)))
          CFI (cfiCond174) R7 load(1, XDATA, add(CFA_XSP16, literal(-6)))
          CFI (cfiCond174) ?RET_LOW load(1, XDATA, add(CFA_XSP16, literal(-5)))
          CFI (cfiCond174) ?RET_HIGH load(1, XDATA, add(CFA_XSP16, literal(-4)))
          CFI (cfiCond174) ?BRET_EXT load(1, XDATA, add(CFA_XSP16, literal(-3)))
          CFI (cfiCond174) DPL0 load(1, XDATA, add(CFA_XSP16, literal(-2)))
          CFI (cfiCond174) DPH0 load(1, XDATA, add(CFA_XSP16, literal(-1)))
          CFI (cfiCond174) CFA_SP SP+0
          CFI (cfiCond174) CFA_XSP16 add(XSP16, 25)
          CFI Block cfiCond175 Using cfiCommon0
          CFI (cfiCond175) Function MT_AfIncomingMsg
          CFI (cfiCond175) Conditional ??CrossCallReturnLabel_112, ??CrossCallReturnLabel_109, ??CrossCallReturnLabel_1
          CFI (cfiCond175) R6 load(1, XDATA, add(CFA_XSP16, literal(-24)))
          CFI (cfiCond175) VB load(1, XDATA, add(CFA_XSP16, literal(-23)))
          CFI (cfiCond175) V0 load(1, XDATA, add(CFA_XSP16, literal(-22)))
          CFI (cfiCond175) V1 load(1, XDATA, add(CFA_XSP16, literal(-21)))
          CFI (cfiCond175) V2 load(1, XDATA, add(CFA_XSP16, literal(-20)))
          CFI (cfiCond175) V3 load(1, XDATA, add(CFA_XSP16, literal(-19)))
          CFI (cfiCond175) V4 load(1, XDATA, add(CFA_XSP16, literal(-18)))
          CFI (cfiCond175) V5 load(1, XDATA, add(CFA_XSP16, literal(-17)))
          CFI (cfiCond175) V6 load(1, XDATA, add(CFA_XSP16, literal(-16)))
          CFI (cfiCond175) V7 load(1, XDATA, add(CFA_XSP16, literal(-15)))
          CFI (cfiCond175) V8 load(1, XDATA, add(CFA_XSP16, literal(-14)))
          CFI (cfiCond175) V9 load(1, XDATA, add(CFA_XSP16, literal(-13)))
          CFI (cfiCond175) V10 load(1, XDATA, add(CFA_XSP16, literal(-12)))
          CFI (cfiCond175) V11 load(1, XDATA, add(CFA_XSP16, literal(-11)))
          CFI (cfiCond175) V12 load(1, XDATA, add(CFA_XSP16, literal(-10)))
          CFI (cfiCond175) V13 load(1, XDATA, add(CFA_XSP16, literal(-9)))
          CFI (cfiCond175) V14 load(1, XDATA, add(CFA_XSP16, literal(-8)))
          CFI (cfiCond175) V15 load(1, XDATA, add(CFA_XSP16, literal(-7)))
          CFI (cfiCond175) R7 load(1, XDATA, add(CFA_XSP16, literal(-6)))
          CFI (cfiCond175) ?RET_LOW load(1, XDATA, add(CFA_XSP16, literal(-5)))
          CFI (cfiCond175) ?RET_HIGH load(1, XDATA, add(CFA_XSP16, literal(-4)))
          CFI (cfiCond175) ?BRET_EXT load(1, XDATA, add(CFA_XSP16, literal(-3)))
          CFI (cfiCond175) DPL0 load(1, XDATA, add(CFA_XSP16, literal(-2)))
          CFI (cfiCond175) DPH0 load(1, XDATA, add(CFA_XSP16, literal(-1)))
          CFI (cfiCond175) CFA_SP SP+0
          CFI (cfiCond175) CFA_XSP16 add(XSP16, 25)
          CFI Block cfiCond176 Using cfiCommon0
          CFI (cfiCond176) Function MT_AfIncomingMsg
          CFI (cfiCond176) Conditional ??CrossCallReturnLabel_112, ??CrossCallReturnLabel_110, ??CrossCallReturnLabel_104
          CFI (cfiCond176) R6 load(1, XDATA, add(CFA_XSP16, literal(-24)))
          CFI (cfiCond176) VB load(1, XDATA, add(CFA_XSP16, literal(-23)))
          CFI (cfiCond176) V0 load(1, XDATA, add(CFA_XSP16, literal(-22)))
          CFI (cfiCond176) V1 load(1, XDATA, add(CFA_XSP16, literal(-21)))
          CFI (cfiCond176) V2 load(1, XDATA, add(CFA_XSP16, literal(-20)))
          CFI (cfiCond176) V3 load(1, XDATA, add(CFA_XSP16, literal(-19)))
          CFI (cfiCond176) V4 load(1, XDATA, add(CFA_XSP16, literal(-18)))
          CFI (cfiCond176) V5 load(1, XDATA, add(CFA_XSP16, literal(-17)))
          CFI (cfiCond176) V6 load(1, XDATA, add(CFA_XSP16, literal(-16)))
          CFI (cfiCond176) V7 load(1, XDATA, add(CFA_XSP16, literal(-15)))
          CFI (cfiCond176) V8 load(1, XDATA, add(CFA_XSP16, literal(-14)))
          CFI (cfiCond176) V9 load(1, XDATA, add(CFA_XSP16, literal(-13)))
          CFI (cfiCond176) V10 load(1, XDATA, add(CFA_XSP16, literal(-12)))
          CFI (cfiCond176) V11 load(1, XDATA, add(CFA_XSP16, literal(-11)))
          CFI (cfiCond176) V12 load(1, XDATA, add(CFA_XSP16, literal(-10)))
          CFI (cfiCond176) V13 load(1, XDATA, add(CFA_XSP16, literal(-9)))
          CFI (cfiCond176) V14 load(1, XDATA, add(CFA_XSP16, literal(-8)))
          CFI (cfiCond176) V15 load(1, XDATA, add(CFA_XSP16, literal(-7)))
          CFI (cfiCond176) R7 load(1, XDATA, add(CFA_XSP16, literal(-6)))
          CFI (cfiCond176) ?RET_LOW load(1, XDATA, add(CFA_XSP16, literal(-5)))
          CFI (cfiCond176) ?RET_HIGH load(1, XDATA, add(CFA_XSP16, literal(-4)))
          CFI (cfiCond176) ?BRET_EXT load(1, XDATA, add(CFA_XSP16, literal(-3)))
          CFI (cfiCond176) DPL0 load(1, XDATA, add(CFA_XSP16, literal(-2)))
          CFI (cfiCond176) DPH0 load(1, XDATA, add(CFA_XSP16, literal(-1)))
          CFI (cfiCond176) CFA_SP SP+0
          CFI (cfiCond176) CFA_XSP16 add(XSP16, 25)
          CFI Block cfiCond177 Using cfiCommon0
          CFI (cfiCond177) Function MT_AfIncomingMsg
          CFI (cfiCond177) Conditional ??CrossCallReturnLabel_112, ??CrossCallReturnLabel_110, ??CrossCallReturnLabel_105
          CFI (cfiCond177) R6 load(1, XDATA, add(CFA_XSP16, literal(-24)))
          CFI (cfiCond177) VB load(1, XDATA, add(CFA_XSP16, literal(-23)))
          CFI (cfiCond177) V0 load(1, XDATA, add(CFA_XSP16, literal(-22)))
          CFI (cfiCond177) V1 load(1, XDATA, add(CFA_XSP16, literal(-21)))
          CFI (cfiCond177) V2 load(1, XDATA, add(CFA_XSP16, literal(-20)))
          CFI (cfiCond177) V3 load(1, XDATA, add(CFA_XSP16, literal(-19)))
          CFI (cfiCond177) V4 load(1, XDATA, add(CFA_XSP16, literal(-18)))
          CFI (cfiCond177) V5 load(1, XDATA, add(CFA_XSP16, literal(-17)))
          CFI (cfiCond177) V6 load(1, XDATA, add(CFA_XSP16, literal(-16)))
          CFI (cfiCond177) V7 load(1, XDATA, add(CFA_XSP16, literal(-15)))
          CFI (cfiCond177) V8 load(1, XDATA, add(CFA_XSP16, literal(-14)))
          CFI (cfiCond177) V9 load(1, XDATA, add(CFA_XSP16, literal(-13)))
          CFI (cfiCond177) V10 load(1, XDATA, add(CFA_XSP16, literal(-12)))
          CFI (cfiCond177) V11 load(1, XDATA, add(CFA_XSP16, literal(-11)))
          CFI (cfiCond177) V12 load(1, XDATA, add(CFA_XSP16, literal(-10)))
          CFI (cfiCond177) V13 load(1, XDATA, add(CFA_XSP16, literal(-9)))
          CFI (cfiCond177) V14 load(1, XDATA, add(CFA_XSP16, literal(-8)))
          CFI (cfiCond177) V15 load(1, XDATA, add(CFA_XSP16, literal(-7)))
          CFI (cfiCond177) R7 load(1, XDATA, add(CFA_XSP16, literal(-6)))
          CFI (cfiCond177) ?RET_LOW load(1, XDATA, add(CFA_XSP16, literal(-5)))
          CFI (cfiCond177) ?RET_HIGH load(1, XDATA, add(CFA_XSP16, literal(-4)))
          CFI (cfiCond177) ?BRET_EXT load(1, XDATA, add(CFA_XSP16, literal(-3)))
          CFI (cfiCond177) DPL0 load(1, XDATA, add(CFA_XSP16, literal(-2)))
          CFI (cfiCond177) DPH0 load(1, XDATA, add(CFA_XSP16, literal(-1)))
          CFI (cfiCond177) CFA_SP SP+0
          CFI (cfiCond177) CFA_XSP16 add(XSP16, 25)
          CFI Block cfiCond178 Using cfiCommon0
          CFI (cfiCond178) Function MT_AfIncomingMsg
          CFI (cfiCond178) Conditional ??CrossCallReturnLabel_112, ??CrossCallReturnLabel_110, ??CrossCallReturnLabel_106
          CFI (cfiCond178) R6 load(1, XDATA, add(CFA_XSP16, literal(-24)))
          CFI (cfiCond178) VB load(1, XDATA, add(CFA_XSP16, literal(-23)))
          CFI (cfiCond178) V0 load(1, XDATA, add(CFA_XSP16, literal(-22)))
          CFI (cfiCond178) V1 load(1, XDATA, add(CFA_XSP16, literal(-21)))
          CFI (cfiCond178) V2 load(1, XDATA, add(CFA_XSP16, literal(-20)))
          CFI (cfiCond178) V3 load(1, XDATA, add(CFA_XSP16, literal(-19)))
          CFI (cfiCond178) V4 load(1, XDATA, add(CFA_XSP16, literal(-18)))
          CFI (cfiCond178) V5 load(1, XDATA, add(CFA_XSP16, literal(-17)))
          CFI (cfiCond178) V6 load(1, XDATA, add(CFA_XSP16, literal(-16)))
          CFI (cfiCond178) V7 load(1, XDATA, add(CFA_XSP16, literal(-15)))
          CFI (cfiCond178) V8 load(1, XDATA, add(CFA_XSP16, literal(-14)))
          CFI (cfiCond178) V9 load(1, XDATA, add(CFA_XSP16, literal(-13)))
          CFI (cfiCond178) V10 load(1, XDATA, add(CFA_XSP16, literal(-12)))
          CFI (cfiCond178) V11 load(1, XDATA, add(CFA_XSP16, literal(-11)))
          CFI (cfiCond178) V12 load(1, XDATA, add(CFA_XSP16, literal(-10)))
          CFI (cfiCond178) V13 load(1, XDATA, add(CFA_XSP16, literal(-9)))
          CFI (cfiCond178) V14 load(1, XDATA, add(CFA_XSP16, literal(-8)))
          CFI (cfiCond178) V15 load(1, XDATA, add(CFA_XSP16, literal(-7)))
          CFI (cfiCond178) R7 load(1, XDATA, add(CFA_XSP16, literal(-6)))
          CFI (cfiCond178) ?RET_LOW load(1, XDATA, add(CFA_XSP16, literal(-5)))
          CFI (cfiCond178) ?RET_HIGH load(1, XDATA, add(CFA_XSP16, literal(-4)))
          CFI (cfiCond178) ?BRET_EXT load(1, XDATA, add(CFA_XSP16, literal(-3)))
          CFI (cfiCond178) DPL0 load(1, XDATA, add(CFA_XSP16, literal(-2)))
          CFI (cfiCond178) DPH0 load(1, XDATA, add(CFA_XSP16, literal(-1)))
          CFI (cfiCond178) CFA_SP SP+0
          CFI (cfiCond178) CFA_XSP16 add(XSP16, 25)
          CFI Block cfiCond179 Using cfiCommon0
          CFI (cfiCond179) Function MT_AfIncomingMsg
          CFI (cfiCond179) Conditional ??CrossCallReturnLabel_112, ??CrossCallReturnLabel_110, ??CrossCallReturnLabel_107
          CFI (cfiCond179) R6 load(1, XDATA, add(CFA_XSP16, literal(-24)))
          CFI (cfiCond179) VB load(1, XDATA, add(CFA_XSP16, literal(-23)))
          CFI (cfiCond179) V0 load(1, XDATA, add(CFA_XSP16, literal(-22)))
          CFI (cfiCond179) V1 load(1, XDATA, add(CFA_XSP16, literal(-21)))
          CFI (cfiCond179) V2 load(1, XDATA, add(CFA_XSP16, literal(-20)))
          CFI (cfiCond179) V3 load(1, XDATA, add(CFA_XSP16, literal(-19)))
          CFI (cfiCond179) V4 load(1, XDATA, add(CFA_XSP16, literal(-18)))
          CFI (cfiCond179) V5 load(1, XDATA, add(CFA_XSP16, literal(-17)))
          CFI (cfiCond179) V6 load(1, XDATA, add(CFA_XSP16, literal(-16)))
          CFI (cfiCond179) V7 load(1, XDATA, add(CFA_XSP16, literal(-15)))
          CFI (cfiCond179) V8 load(1, XDATA, add(CFA_XSP16, literal(-14)))
          CFI (cfiCond179) V9 load(1, XDATA, add(CFA_XSP16, literal(-13)))
          CFI (cfiCond179) V10 load(1, XDATA, add(CFA_XSP16, literal(-12)))
          CFI (cfiCond179) V11 load(1, XDATA, add(CFA_XSP16, literal(-11)))
          CFI (cfiCond179) V12 load(1, XDATA, add(CFA_XSP16, literal(-10)))
          CFI (cfiCond179) V13 load(1, XDATA, add(CFA_XSP16, literal(-9)))
          CFI (cfiCond179) V14 load(1, XDATA, add(CFA_XSP16, literal(-8)))
          CFI (cfiCond179) V15 load(1, XDATA, add(CFA_XSP16, literal(-7)))
          CFI (cfiCond179) R7 load(1, XDATA, add(CFA_XSP16, literal(-6)))
          CFI (cfiCond179) ?RET_LOW load(1, XDATA, add(CFA_XSP16, literal(-5)))
          CFI (cfiCond179) ?RET_HIGH load(1, XDATA, add(CFA_XSP16, literal(-4)))
          CFI (cfiCond179) ?BRET_EXT load(1, XDATA, add(CFA_XSP16, literal(-3)))
          CFI (cfiCond179) DPL0 load(1, XDATA, add(CFA_XSP16, literal(-2)))
          CFI (cfiCond179) DPH0 load(1, XDATA, add(CFA_XSP16, literal(-1)))
          CFI (cfiCond179) CFA_SP SP+0
          CFI (cfiCond179) CFA_XSP16 add(XSP16, 25)
          CFI Block cfiCond180 Using cfiCommon0
          CFI (cfiCond180) Function MT_AfIncomingMsg
          CFI (cfiCond180) Conditional ??CrossCallReturnLabel_112, ??CrossCallReturnLabel_110, ??CrossCallReturnLabel_108
          CFI (cfiCond180) R6 load(1, XDATA, add(CFA_XSP16, literal(-24)))
          CFI (cfiCond180) VB load(1, XDATA, add(CFA_XSP16, literal(-23)))
          CFI (cfiCond180) V0 load(1, XDATA, add(CFA_XSP16, literal(-22)))
          CFI (cfiCond180) V1 load(1, XDATA, add(CFA_XSP16, literal(-21)))
          CFI (cfiCond180) V2 load(1, XDATA, add(CFA_XSP16, literal(-20)))
          CFI (cfiCond180) V3 load(1, XDATA, add(CFA_XSP16, literal(-19)))
          CFI (cfiCond180) V4 load(1, XDATA, add(CFA_XSP16, literal(-18)))
          CFI (cfiCond180) V5 load(1, XDATA, add(CFA_XSP16, literal(-17)))
          CFI (cfiCond180) V6 load(1, XDATA, add(CFA_XSP16, literal(-16)))
          CFI (cfiCond180) V7 load(1, XDATA, add(CFA_XSP16, literal(-15)))
          CFI (cfiCond180) V8 load(1, XDATA, add(CFA_XSP16, literal(-14)))
          CFI (cfiCond180) V9 load(1, XDATA, add(CFA_XSP16, literal(-13)))
          CFI (cfiCond180) V10 load(1, XDATA, add(CFA_XSP16, literal(-12)))
          CFI (cfiCond180) V11 load(1, XDATA, add(CFA_XSP16, literal(-11)))
          CFI (cfiCond180) V12 load(1, XDATA, add(CFA_XSP16, literal(-10)))
          CFI (cfiCond180) V13 load(1, XDATA, add(CFA_XSP16, literal(-9)))
          CFI (cfiCond180) V14 load(1, XDATA, add(CFA_XSP16, literal(-8)))
          CFI (cfiCond180) V15 load(1, XDATA, add(CFA_XSP16, literal(-7)))
          CFI (cfiCond180) R7 load(1, XDATA, add(CFA_XSP16, literal(-6)))
          CFI (cfiCond180) ?RET_LOW load(1, XDATA, add(CFA_XSP16, literal(-5)))
          CFI (cfiCond180) ?RET_HIGH load(1, XDATA, add(CFA_XSP16, literal(-4)))
          CFI (cfiCond180) ?BRET_EXT load(1, XDATA, add(CFA_XSP16, literal(-3)))
          CFI (cfiCond180) DPL0 load(1, XDATA, add(CFA_XSP16, literal(-2)))
          CFI (cfiCond180) DPH0 load(1, XDATA, add(CFA_XSP16, literal(-1)))
          CFI (cfiCond180) CFA_SP SP+0
          CFI (cfiCond180) CFA_XSP16 add(XSP16, 25)
          CFI Block cfiPicker181 Using cfiCommon1
          CFI (cfiPicker181) NoFunction
          CFI (cfiPicker181) Picker
        MOVX    A,@DPTR
        MOV     DPL,?V0 + 2
        MOV     DPH,?V0 + 3
        MOVX    @DPTR,A
        RET
          CFI EndBlock cfiCond170
          CFI EndBlock cfiCond171
          CFI EndBlock cfiCond172
          CFI EndBlock cfiCond173
          CFI EndBlock cfiCond174
          CFI EndBlock cfiCond175
          CFI EndBlock cfiCond176
          CFI EndBlock cfiCond177
          CFI EndBlock cfiCond178
          CFI EndBlock cfiCond179
          CFI EndBlock cfiCond180
          CFI EndBlock cfiPicker181

        RSEG BANKED_CODE:CODE:NOROOT(0)
?Subroutine5:
          CFI Block cfiCond182 Using cfiCommon0
          CFI Function MT_AfIncomingMsg
          CFI Conditional ??CrossCallReturnLabel_0
          CFI R6 load(1, XDATA, add(CFA_XSP16, literal(-24)))
          CFI VB load(1, XDATA, add(CFA_XSP16, literal(-23)))
          CFI V0 load(1, XDATA, add(CFA_XSP16, literal(-22)))
          CFI V1 load(1, XDATA, add(CFA_XSP16, literal(-21)))
          CFI V2 load(1, XDATA, add(CFA_XSP16, literal(-20)))
          CFI V3 load(1, XDATA, add(CFA_XSP16, literal(-19)))
          CFI V4 load(1, XDATA, add(CFA_XSP16, literal(-18)))
          CFI V5 load(1, XDATA, add(CFA_XSP16, literal(-17)))
          CFI V6 load(1, XDATA, add(CFA_XSP16, literal(-16)))
          CFI V7 load(1, XDATA, add(CFA_XSP16, literal(-15)))
          CFI V8 load(1, XDATA, add(CFA_XSP16, literal(-14)))
          CFI V9 load(1, XDATA, add(CFA_XSP16, literal(-13)))
          CFI V10 load(1, XDATA, add(CFA_XSP16, literal(-12)))
          CFI V11 load(1, XDATA, add(CFA_XSP16, literal(-11)))
          CFI V12 load(1, XDATA, add(CFA_XSP16, literal(-10)))
          CFI V13 load(1, XDATA, add(CFA_XSP16, literal(-9)))
          CFI V14 load(1, XDATA, add(CFA_XSP16, literal(-8)))
          CFI V15 load(1, XDATA, add(CFA_XSP16, literal(-7)))
          CFI R7 load(1, XDATA, add(CFA_XSP16, literal(-6)))
          CFI ?RET_LOW load(1, XDATA, add(CFA_XSP16, literal(-5)))
          CFI ?RET_HIGH load(1, XDATA, add(CFA_XSP16, literal(-4)))
          CFI ?BRET_EXT load(1, XDATA, add(CFA_XSP16, literal(-3)))
          CFI DPL0 load(1, XDATA, add(CFA_XSP16, literal(-2)))
          CFI DPH0 load(1, XDATA, add(CFA_XSP16, literal(-1)))
          CFI CFA_SP SP+0
          CFI CFA_XSP16 add(XSP16, 25)
          CFI Block cfiCond183 Using cfiCommon0
          CFI (cfiCond183) Function MT_AfIncomingMsg
          CFI (cfiCond183) Conditional ??CrossCallReturnLabel_1
          CFI (cfiCond183) R6 load(1, XDATA, add(CFA_XSP16, literal(-24)))
          CFI (cfiCond183) VB load(1, XDATA, add(CFA_XSP16, literal(-23)))
          CFI (cfiCond183) V0 load(1, XDATA, add(CFA_XSP16, literal(-22)))
          CFI (cfiCond183) V1 load(1, XDATA, add(CFA_XSP16, literal(-21)))
          CFI (cfiCond183) V2 load(1, XDATA, add(CFA_XSP16, literal(-20)))
          CFI (cfiCond183) V3 load(1, XDATA, add(CFA_XSP16, literal(-19)))
          CFI (cfiCond183) V4 load(1, XDATA, add(CFA_XSP16, literal(-18)))
          CFI (cfiCond183) V5 load(1, XDATA, add(CFA_XSP16, literal(-17)))
          CFI (cfiCond183) V6 load(1, XDATA, add(CFA_XSP16, literal(-16)))
          CFI (cfiCond183) V7 load(1, XDATA, add(CFA_XSP16, literal(-15)))
          CFI (cfiCond183) V8 load(1, XDATA, add(CFA_XSP16, literal(-14)))
          CFI (cfiCond183) V9 load(1, XDATA, add(CFA_XSP16, literal(-13)))
          CFI (cfiCond183) V10 load(1, XDATA, add(CFA_XSP16, literal(-12)))
          CFI (cfiCond183) V11 load(1, XDATA, add(CFA_XSP16, literal(-11)))
          CFI (cfiCond183) V12 load(1, XDATA, add(CFA_XSP16, literal(-10)))
          CFI (cfiCond183) V13 load(1, XDATA, add(CFA_XSP16, literal(-9)))
          CFI (cfiCond183) V14 load(1, XDATA, add(CFA_XSP16, literal(-8)))
          CFI (cfiCond183) V15 load(1, XDATA, add(CFA_XSP16, literal(-7)))
          CFI (cfiCond183) R7 load(1, XDATA, add(CFA_XSP16, literal(-6)))
          CFI (cfiCond183) ?RET_LOW load(1, XDATA, add(CFA_XSP16, literal(-5)))
          CFI (cfiCond183) ?RET_HIGH load(1, XDATA, add(CFA_XSP16, literal(-4)))
          CFI (cfiCond183) ?BRET_EXT load(1, XDATA, add(CFA_XSP16, literal(-3)))
          CFI (cfiCond183) DPL0 load(1, XDATA, add(CFA_XSP16, literal(-2)))
          CFI (cfiCond183) DPH0 load(1, XDATA, add(CFA_XSP16, literal(-1)))
          CFI (cfiCond183) CFA_SP SP+0
          CFI (cfiCond183) CFA_XSP16 add(XSP16, 25)
          CFI Block cfiPicker184 Using cfiCommon1
          CFI (cfiPicker184) NoFunction
          CFI (cfiPicker184) Picker
        LCALL   ?Subroutine35 & 0xFFFF
??CrossCallReturnLabel_109:
        RET
          CFI EndBlock cfiCond182
          CFI EndBlock cfiCond183
          CFI EndBlock cfiPicker184

        RSEG BANKED_CODE:CODE:NOROOT(0)
?Subroutine35:
          CFI Block cfiCond185 Using cfiCommon0
          CFI Function MT_AfIncomingMsg
          CFI Conditional ??CrossCallReturnLabel_109, ??CrossCallReturnLabel_0
          CFI R6 load(1, XDATA, add(CFA_XSP16, literal(-24)))
          CFI VB load(1, XDATA, add(CFA_XSP16, literal(-23)))
          CFI V0 load(1, XDATA, add(CFA_XSP16, literal(-22)))
          CFI V1 load(1, XDATA, add(CFA_XSP16, literal(-21)))
          CFI V2 load(1, XDATA, add(CFA_XSP16, literal(-20)))
          CFI V3 load(1, XDATA, add(CFA_XSP16, literal(-19)))
          CFI V4 load(1, XDATA, add(CFA_XSP16, literal(-18)))
          CFI V5 load(1, XDATA, add(CFA_XSP16, literal(-17)))
          CFI V6 load(1, XDATA, add(CFA_XSP16, literal(-16)))
          CFI V7 load(1, XDATA, add(CFA_XSP16, literal(-15)))
          CFI V8 load(1, XDATA, add(CFA_XSP16, literal(-14)))
          CFI V9 load(1, XDATA, add(CFA_XSP16, literal(-13)))
          CFI V10 load(1, XDATA, add(CFA_XSP16, literal(-12)))
          CFI V11 load(1, XDATA, add(CFA_XSP16, literal(-11)))
          CFI V12 load(1, XDATA, add(CFA_XSP16, literal(-10)))
          CFI V13 load(1, XDATA, add(CFA_XSP16, literal(-9)))
          CFI V14 load(1, XDATA, add(CFA_XSP16, literal(-8)))
          CFI V15 load(1, XDATA, add(CFA_XSP16, literal(-7)))
          CFI R7 load(1, XDATA, add(CFA_XSP16, literal(-6)))
          CFI ?RET_LOW load(1, XDATA, add(CFA_XSP16, literal(-5)))
          CFI ?RET_HIGH load(1, XDATA, add(CFA_XSP16, literal(-4)))
          CFI ?BRET_EXT load(1, XDATA, add(CFA_XSP16, literal(-3)))
          CFI DPL0 load(1, XDATA, add(CFA_XSP16, literal(-2)))
          CFI DPH0 load(1, XDATA, add(CFA_XSP16, literal(-1)))
          CFI CFA_SP SP+0
          CFI CFA_XSP16 add(XSP16, 25)
          CFI Block cfiCond186 Using cfiCommon0
          CFI (cfiCond186) Function MT_AfIncomingMsg
          CFI (cfiCond186) Conditional ??CrossCallReturnLabel_109, ??CrossCallReturnLabel_1
          CFI (cfiCond186) R6 load(1, XDATA, add(CFA_XSP16, literal(-24)))
          CFI (cfiCond186) VB load(1, XDATA, add(CFA_XSP16, literal(-23)))
          CFI (cfiCond186) V0 load(1, XDATA, add(CFA_XSP16, literal(-22)))
          CFI (cfiCond186) V1 load(1, XDATA, add(CFA_XSP16, literal(-21)))
          CFI (cfiCond186) V2 load(1, XDATA, add(CFA_XSP16, literal(-20)))
          CFI (cfiCond186) V3 load(1, XDATA, add(CFA_XSP16, literal(-19)))
          CFI (cfiCond186) V4 load(1, XDATA, add(CFA_XSP16, literal(-18)))
          CFI (cfiCond186) V5 load(1, XDATA, add(CFA_XSP16, literal(-17)))
          CFI (cfiCond186) V6 load(1, XDATA, add(CFA_XSP16, literal(-16)))
          CFI (cfiCond186) V7 load(1, XDATA, add(CFA_XSP16, literal(-15)))
          CFI (cfiCond186) V8 load(1, XDATA, add(CFA_XSP16, literal(-14)))
          CFI (cfiCond186) V9 load(1, XDATA, add(CFA_XSP16, literal(-13)))
          CFI (cfiCond186) V10 load(1, XDATA, add(CFA_XSP16, literal(-12)))
          CFI (cfiCond186) V11 load(1, XDATA, add(CFA_XSP16, literal(-11)))
          CFI (cfiCond186) V12 load(1, XDATA, add(CFA_XSP16, literal(-10)))
          CFI (cfiCond186) V13 load(1, XDATA, add(CFA_XSP16, literal(-9)))
          CFI (cfiCond186) V14 load(1, XDATA, add(CFA_XSP16, literal(-8)))
          CFI (cfiCond186) V15 load(1, XDATA, add(CFA_XSP16, literal(-7)))
          CFI (cfiCond186) R7 load(1, XDATA, add(CFA_XSP16, literal(-6)))
          CFI (cfiCond186) ?RET_LOW load(1, XDATA, add(CFA_XSP16, literal(-5)))
          CFI (cfiCond186) ?RET_HIGH load(1, XDATA, add(CFA_XSP16, literal(-4)))
          CFI (cfiCond186) ?BRET_EXT load(1, XDATA, add(CFA_XSP16, literal(-3)))
          CFI (cfiCond186) DPL0 load(1, XDATA, add(CFA_XSP16, literal(-2)))
          CFI (cfiCond186) DPH0 load(1, XDATA, add(CFA_XSP16, literal(-1)))
          CFI (cfiCond186) CFA_SP SP+0
          CFI (cfiCond186) CFA_XSP16 add(XSP16, 25)
          CFI Block cfiCond187 Using cfiCommon0
          CFI (cfiCond187) Function MT_AfIncomingMsg
          CFI (cfiCond187) Conditional ??CrossCallReturnLabel_110, ??CrossCallReturnLabel_104
          CFI (cfiCond187) R6 load(1, XDATA, add(CFA_XSP16, literal(-24)))
          CFI (cfiCond187) VB load(1, XDATA, add(CFA_XSP16, literal(-23)))
          CFI (cfiCond187) V0 load(1, XDATA, add(CFA_XSP16, literal(-22)))
          CFI (cfiCond187) V1 load(1, XDATA, add(CFA_XSP16, literal(-21)))
          CFI (cfiCond187) V2 load(1, XDATA, add(CFA_XSP16, literal(-20)))
          CFI (cfiCond187) V3 load(1, XDATA, add(CFA_XSP16, literal(-19)))
          CFI (cfiCond187) V4 load(1, XDATA, add(CFA_XSP16, literal(-18)))
          CFI (cfiCond187) V5 load(1, XDATA, add(CFA_XSP16, literal(-17)))
          CFI (cfiCond187) V6 load(1, XDATA, add(CFA_XSP16, literal(-16)))
          CFI (cfiCond187) V7 load(1, XDATA, add(CFA_XSP16, literal(-15)))
          CFI (cfiCond187) V8 load(1, XDATA, add(CFA_XSP16, literal(-14)))
          CFI (cfiCond187) V9 load(1, XDATA, add(CFA_XSP16, literal(-13)))
          CFI (cfiCond187) V10 load(1, XDATA, add(CFA_XSP16, literal(-12)))
          CFI (cfiCond187) V11 load(1, XDATA, add(CFA_XSP16, literal(-11)))
          CFI (cfiCond187) V12 load(1, XDATA, add(CFA_XSP16, literal(-10)))
          CFI (cfiCond187) V13 load(1, XDATA, add(CFA_XSP16, literal(-9)))
          CFI (cfiCond187) V14 load(1, XDATA, add(CFA_XSP16, literal(-8)))
          CFI (cfiCond187) V15 load(1, XDATA, add(CFA_XSP16, literal(-7)))
          CFI (cfiCond187) R7 load(1, XDATA, add(CFA_XSP16, literal(-6)))
          CFI (cfiCond187) ?RET_LOW load(1, XDATA, add(CFA_XSP16, literal(-5)))
          CFI (cfiCond187) ?RET_HIGH load(1, XDATA, add(CFA_XSP16, literal(-4)))
          CFI (cfiCond187) ?BRET_EXT load(1, XDATA, add(CFA_XSP16, literal(-3)))
          CFI (cfiCond187) DPL0 load(1, XDATA, add(CFA_XSP16, literal(-2)))
          CFI (cfiCond187) DPH0 load(1, XDATA, add(CFA_XSP16, literal(-1)))
          CFI (cfiCond187) CFA_SP SP+0
          CFI (cfiCond187) CFA_XSP16 add(XSP16, 25)
          CFI Block cfiCond188 Using cfiCommon0
          CFI (cfiCond188) Function MT_AfIncomingMsg
          CFI (cfiCond188) Conditional ??CrossCallReturnLabel_110, ??CrossCallReturnLabel_105
          CFI (cfiCond188) R6 load(1, XDATA, add(CFA_XSP16, literal(-24)))
          CFI (cfiCond188) VB load(1, XDATA, add(CFA_XSP16, literal(-23)))
          CFI (cfiCond188) V0 load(1, XDATA, add(CFA_XSP16, literal(-22)))
          CFI (cfiCond188) V1 load(1, XDATA, add(CFA_XSP16, literal(-21)))
          CFI (cfiCond188) V2 load(1, XDATA, add(CFA_XSP16, literal(-20)))
          CFI (cfiCond188) V3 load(1, XDATA, add(CFA_XSP16, literal(-19)))
          CFI (cfiCond188) V4 load(1, XDATA, add(CFA_XSP16, literal(-18)))
          CFI (cfiCond188) V5 load(1, XDATA, add(CFA_XSP16, literal(-17)))
          CFI (cfiCond188) V6 load(1, XDATA, add(CFA_XSP16, literal(-16)))
          CFI (cfiCond188) V7 load(1, XDATA, add(CFA_XSP16, literal(-15)))
          CFI (cfiCond188) V8 load(1, XDATA, add(CFA_XSP16, literal(-14)))
          CFI (cfiCond188) V9 load(1, XDATA, add(CFA_XSP16, literal(-13)))
          CFI (cfiCond188) V10 load(1, XDATA, add(CFA_XSP16, literal(-12)))
          CFI (cfiCond188) V11 load(1, XDATA, add(CFA_XSP16, literal(-11)))
          CFI (cfiCond188) V12 load(1, XDATA, add(CFA_XSP16, literal(-10)))
          CFI (cfiCond188) V13 load(1, XDATA, add(CFA_XSP16, literal(-9)))
          CFI (cfiCond188) V14 load(1, XDATA, add(CFA_XSP16, literal(-8)))
          CFI (cfiCond188) V15 load(1, XDATA, add(CFA_XSP16, literal(-7)))
          CFI (cfiCond188) R7 load(1, XDATA, add(CFA_XSP16, literal(-6)))
          CFI (cfiCond188) ?RET_LOW load(1, XDATA, add(CFA_XSP16, literal(-5)))
          CFI (cfiCond188) ?RET_HIGH load(1, XDATA, add(CFA_XSP16, literal(-4)))
          CFI (cfiCond188) ?BRET_EXT load(1, XDATA, add(CFA_XSP16, literal(-3)))
          CFI (cfiCond188) DPL0 load(1, XDATA, add(CFA_XSP16, literal(-2)))
          CFI (cfiCond188) DPH0 load(1, XDATA, add(CFA_XSP16, literal(-1)))
          CFI (cfiCond188) CFA_SP SP+0
          CFI (cfiCond188) CFA_XSP16 add(XSP16, 25)
          CFI Block cfiCond189 Using cfiCommon0
          CFI (cfiCond189) Function MT_AfIncomingMsg
          CFI (cfiCond189) Conditional ??CrossCallReturnLabel_110, ??CrossCallReturnLabel_106
          CFI (cfiCond189) R6 load(1, XDATA, add(CFA_XSP16, literal(-24)))
          CFI (cfiCond189) VB load(1, XDATA, add(CFA_XSP16, literal(-23)))
          CFI (cfiCond189) V0 load(1, XDATA, add(CFA_XSP16, literal(-22)))
          CFI (cfiCond189) V1 load(1, XDATA, add(CFA_XSP16, literal(-21)))
          CFI (cfiCond189) V2 load(1, XDATA, add(CFA_XSP16, literal(-20)))
          CFI (cfiCond189) V3 load(1, XDATA, add(CFA_XSP16, literal(-19)))
          CFI (cfiCond189) V4 load(1, XDATA, add(CFA_XSP16, literal(-18)))
          CFI (cfiCond189) V5 load(1, XDATA, add(CFA_XSP16, literal(-17)))
          CFI (cfiCond189) V6 load(1, XDATA, add(CFA_XSP16, literal(-16)))
          CFI (cfiCond189) V7 load(1, XDATA, add(CFA_XSP16, literal(-15)))
          CFI (cfiCond189) V8 load(1, XDATA, add(CFA_XSP16, literal(-14)))
          CFI (cfiCond189) V9 load(1, XDATA, add(CFA_XSP16, literal(-13)))
          CFI (cfiCond189) V10 load(1, XDATA, add(CFA_XSP16, literal(-12)))
          CFI (cfiCond189) V11 load(1, XDATA, add(CFA_XSP16, literal(-11)))
          CFI (cfiCond189) V12 load(1, XDATA, add(CFA_XSP16, literal(-10)))
          CFI (cfiCond189) V13 load(1, XDATA, add(CFA_XSP16, literal(-9)))
          CFI (cfiCond189) V14 load(1, XDATA, add(CFA_XSP16, literal(-8)))
          CFI (cfiCond189) V15 load(1, XDATA, add(CFA_XSP16, literal(-7)))
          CFI (cfiCond189) R7 load(1, XDATA, add(CFA_XSP16, literal(-6)))
          CFI (cfiCond189) ?RET_LOW load(1, XDATA, add(CFA_XSP16, literal(-5)))
          CFI (cfiCond189) ?RET_HIGH load(1, XDATA, add(CFA_XSP16, literal(-4)))
          CFI (cfiCond189) ?BRET_EXT load(1, XDATA, add(CFA_XSP16, literal(-3)))
          CFI (cfiCond189) DPL0 load(1, XDATA, add(CFA_XSP16, literal(-2)))
          CFI (cfiCond189) DPH0 load(1, XDATA, add(CFA_XSP16, literal(-1)))
          CFI (cfiCond189) CFA_SP SP+0
          CFI (cfiCond189) CFA_XSP16 add(XSP16, 25)
          CFI Block cfiCond190 Using cfiCommon0
          CFI (cfiCond190) Function MT_AfIncomingMsg
          CFI (cfiCond190) Conditional ??CrossCallReturnLabel_110, ??CrossCallReturnLabel_107
          CFI (cfiCond190) R6 load(1, XDATA, add(CFA_XSP16, literal(-24)))
          CFI (cfiCond190) VB load(1, XDATA, add(CFA_XSP16, literal(-23)))
          CFI (cfiCond190) V0 load(1, XDATA, add(CFA_XSP16, literal(-22)))
          CFI (cfiCond190) V1 load(1, XDATA, add(CFA_XSP16, literal(-21)))
          CFI (cfiCond190) V2 load(1, XDATA, add(CFA_XSP16, literal(-20)))
          CFI (cfiCond190) V3 load(1, XDATA, add(CFA_XSP16, literal(-19)))
          CFI (cfiCond190) V4 load(1, XDATA, add(CFA_XSP16, literal(-18)))
          CFI (cfiCond190) V5 load(1, XDATA, add(CFA_XSP16, literal(-17)))
          CFI (cfiCond190) V6 load(1, XDATA, add(CFA_XSP16, literal(-16)))
          CFI (cfiCond190) V7 load(1, XDATA, add(CFA_XSP16, literal(-15)))
          CFI (cfiCond190) V8 load(1, XDATA, add(CFA_XSP16, literal(-14)))
          CFI (cfiCond190) V9 load(1, XDATA, add(CFA_XSP16, literal(-13)))
          CFI (cfiCond190) V10 load(1, XDATA, add(CFA_XSP16, literal(-12)))
          CFI (cfiCond190) V11 load(1, XDATA, add(CFA_XSP16, literal(-11)))
          CFI (cfiCond190) V12 load(1, XDATA, add(CFA_XSP16, literal(-10)))
          CFI (cfiCond190) V13 load(1, XDATA, add(CFA_XSP16, literal(-9)))
          CFI (cfiCond190) V14 load(1, XDATA, add(CFA_XSP16, literal(-8)))
          CFI (cfiCond190) V15 load(1, XDATA, add(CFA_XSP16, literal(-7)))
          CFI (cfiCond190) R7 load(1, XDATA, add(CFA_XSP16, literal(-6)))
          CFI (cfiCond190) ?RET_LOW load(1, XDATA, add(CFA_XSP16, literal(-5)))
          CFI (cfiCond190) ?RET_HIGH load(1, XDATA, add(CFA_XSP16, literal(-4)))
          CFI (cfiCond190) ?BRET_EXT load(1, XDATA, add(CFA_XSP16, literal(-3)))
          CFI (cfiCond190) DPL0 load(1, XDATA, add(CFA_XSP16, literal(-2)))
          CFI (cfiCond190) DPH0 load(1, XDATA, add(CFA_XSP16, literal(-1)))
          CFI (cfiCond190) CFA_SP SP+0
          CFI (cfiCond190) CFA_XSP16 add(XSP16, 25)
          CFI Block cfiCond191 Using cfiCommon0
          CFI (cfiCond191) Function MT_AfIncomingMsg
          CFI (cfiCond191) Conditional ??CrossCallReturnLabel_110, ??CrossCallReturnLabel_108
          CFI (cfiCond191) R6 load(1, XDATA, add(CFA_XSP16, literal(-24)))
          CFI (cfiCond191) VB load(1, XDATA, add(CFA_XSP16, literal(-23)))
          CFI (cfiCond191) V0 load(1, XDATA, add(CFA_XSP16, literal(-22)))
          CFI (cfiCond191) V1 load(1, XDATA, add(CFA_XSP16, literal(-21)))
          CFI (cfiCond191) V2 load(1, XDATA, add(CFA_XSP16, literal(-20)))
          CFI (cfiCond191) V3 load(1, XDATA, add(CFA_XSP16, literal(-19)))
          CFI (cfiCond191) V4 load(1, XDATA, add(CFA_XSP16, literal(-18)))
          CFI (cfiCond191) V5 load(1, XDATA, add(CFA_XSP16, literal(-17)))
          CFI (cfiCond191) V6 load(1, XDATA, add(CFA_XSP16, literal(-16)))
          CFI (cfiCond191) V7 load(1, XDATA, add(CFA_XSP16, literal(-15)))
          CFI (cfiCond191) V8 load(1, XDATA, add(CFA_XSP16, literal(-14)))
          CFI (cfiCond191) V9 load(1, XDATA, add(CFA_XSP16, literal(-13)))
          CFI (cfiCond191) V10 load(1, XDATA, add(CFA_XSP16, literal(-12)))
          CFI (cfiCond191) V11 load(1, XDATA, add(CFA_XSP16, literal(-11)))
          CFI (cfiCond191) V12 load(1, XDATA, add(CFA_XSP16, literal(-10)))
          CFI (cfiCond191) V13 load(1, XDATA, add(CFA_XSP16, literal(-9)))
          CFI (cfiCond191) V14 load(1, XDATA, add(CFA_XSP16, literal(-8)))
          CFI (cfiCond191) V15 load(1, XDATA, add(CFA_XSP16, literal(-7)))
          CFI (cfiCond191) R7 load(1, XDATA, add(CFA_XSP16, literal(-6)))
          CFI (cfiCond191) ?RET_LOW load(1, XDATA, add(CFA_XSP16, literal(-5)))
          CFI (cfiCond191) ?RET_HIGH load(1, XDATA, add(CFA_XSP16, literal(-4)))
          CFI (cfiCond191) ?BRET_EXT load(1, XDATA, add(CFA_XSP16, literal(-3)))
          CFI (cfiCond191) DPL0 load(1, XDATA, add(CFA_XSP16, literal(-2)))
          CFI (cfiCond191) DPH0 load(1, XDATA, add(CFA_XSP16, literal(-1)))
          CFI (cfiCond191) CFA_SP SP+0
          CFI (cfiCond191) CFA_XSP16 add(XSP16, 25)
          CFI Block cfiPicker192 Using cfiCommon1
          CFI (cfiPicker192) NoFunction
          CFI (cfiPicker192) Picker
        LCALL   ?Subroutine41 & 0xFFFF
??CrossCallReturnLabel_112:
        INC     DPTR
        MOV     ?V0 + 2,DPL
        MOV     ?V0 + 3,DPH
        RET
          CFI EndBlock cfiCond185
          CFI EndBlock cfiCond186
          CFI EndBlock cfiCond187
          CFI EndBlock cfiCond188
          CFI EndBlock cfiCond189
          CFI EndBlock cfiCond190
          CFI EndBlock cfiCond191
          CFI EndBlock cfiPicker192

        RSEG BANKED_CODE:CODE:NOROOT(0)
?Subroutine3:
          CFI Block cfiCond193 Using cfiCommon0
          CFI Function MT_AfIncomingMsg
          CFI Conditional ??CrossCallReturnLabel_104
          CFI R6 load(1, XDATA, add(CFA_XSP16, literal(-24)))
          CFI VB load(1, XDATA, add(CFA_XSP16, literal(-23)))
          CFI V0 load(1, XDATA, add(CFA_XSP16, literal(-22)))
          CFI V1 load(1, XDATA, add(CFA_XSP16, literal(-21)))
          CFI V2 load(1, XDATA, add(CFA_XSP16, literal(-20)))
          CFI V3 load(1, XDATA, add(CFA_XSP16, literal(-19)))
          CFI V4 load(1, XDATA, add(CFA_XSP16, literal(-18)))
          CFI V5 load(1, XDATA, add(CFA_XSP16, literal(-17)))
          CFI V6 load(1, XDATA, add(CFA_XSP16, literal(-16)))
          CFI V7 load(1, XDATA, add(CFA_XSP16, literal(-15)))
          CFI V8 load(1, XDATA, add(CFA_XSP16, literal(-14)))
          CFI V9 load(1, XDATA, add(CFA_XSP16, literal(-13)))
          CFI V10 load(1, XDATA, add(CFA_XSP16, literal(-12)))
          CFI V11 load(1, XDATA, add(CFA_XSP16, literal(-11)))
          CFI V12 load(1, XDATA, add(CFA_XSP16, literal(-10)))
          CFI V13 load(1, XDATA, add(CFA_XSP16, literal(-9)))
          CFI V14 load(1, XDATA, add(CFA_XSP16, literal(-8)))
          CFI V15 load(1, XDATA, add(CFA_XSP16, literal(-7)))
          CFI R7 load(1, XDATA, add(CFA_XSP16, literal(-6)))
          CFI ?RET_LOW load(1, XDATA, add(CFA_XSP16, literal(-5)))
          CFI ?RET_HIGH load(1, XDATA, add(CFA_XSP16, literal(-4)))
          CFI ?BRET_EXT load(1, XDATA, add(CFA_XSP16, literal(-3)))
          CFI DPL0 load(1, XDATA, add(CFA_XSP16, literal(-2)))
          CFI DPH0 load(1, XDATA, add(CFA_XSP16, literal(-1)))
          CFI CFA_SP SP+0
          CFI CFA_XSP16 add(XSP16, 25)
          CFI Block cfiCond194 Using cfiCommon0
          CFI (cfiCond194) Function MT_AfIncomingMsg
          CFI (cfiCond194) Conditional ??CrossCallReturnLabel_105
          CFI (cfiCond194) R6 load(1, XDATA, add(CFA_XSP16, literal(-24)))
          CFI (cfiCond194) VB load(1, XDATA, add(CFA_XSP16, literal(-23)))
          CFI (cfiCond194) V0 load(1, XDATA, add(CFA_XSP16, literal(-22)))
          CFI (cfiCond194) V1 load(1, XDATA, add(CFA_XSP16, literal(-21)))
          CFI (cfiCond194) V2 load(1, XDATA, add(CFA_XSP16, literal(-20)))
          CFI (cfiCond194) V3 load(1, XDATA, add(CFA_XSP16, literal(-19)))
          CFI (cfiCond194) V4 load(1, XDATA, add(CFA_XSP16, literal(-18)))
          CFI (cfiCond194) V5 load(1, XDATA, add(CFA_XSP16, literal(-17)))
          CFI (cfiCond194) V6 load(1, XDATA, add(CFA_XSP16, literal(-16)))
          CFI (cfiCond194) V7 load(1, XDATA, add(CFA_XSP16, literal(-15)))
          CFI (cfiCond194) V8 load(1, XDATA, add(CFA_XSP16, literal(-14)))
          CFI (cfiCond194) V9 load(1, XDATA, add(CFA_XSP16, literal(-13)))
          CFI (cfiCond194) V10 load(1, XDATA, add(CFA_XSP16, literal(-12)))
          CFI (cfiCond194) V11 load(1, XDATA, add(CFA_XSP16, literal(-11)))
          CFI (cfiCond194) V12 load(1, XDATA, add(CFA_XSP16, literal(-10)))
          CFI (cfiCond194) V13 load(1, XDATA, add(CFA_XSP16, literal(-9)))
          CFI (cfiCond194) V14 load(1, XDATA, add(CFA_XSP16, literal(-8)))
          CFI (cfiCond194) V15 load(1, XDATA, add(CFA_XSP16, literal(-7)))
          CFI (cfiCond194) R7 load(1, XDATA, add(CFA_XSP16, literal(-6)))
          CFI (cfiCond194) ?RET_LOW load(1, XDATA, add(CFA_XSP16, literal(-5)))
          CFI (cfiCond194) ?RET_HIGH load(1, XDATA, add(CFA_XSP16, literal(-4)))
          CFI (cfiCond194) ?BRET_EXT load(1, XDATA, add(CFA_XSP16, literal(-3)))
          CFI (cfiCond194) DPL0 load(1, XDATA, add(CFA_XSP16, literal(-2)))
          CFI (cfiCond194) DPH0 load(1, XDATA, add(CFA_XSP16, literal(-1)))
          CFI (cfiCond194) CFA_SP SP+0
          CFI (cfiCond194) CFA_XSP16 add(XSP16, 25)
          CFI Block cfiCond195 Using cfiCommon0
          CFI (cfiCond195) Function MT_AfIncomingMsg
          CFI (cfiCond195) Conditional ??CrossCallReturnLabel_106
          CFI (cfiCond195) R6 load(1, XDATA, add(CFA_XSP16, literal(-24)))
          CFI (cfiCond195) VB load(1, XDATA, add(CFA_XSP16, literal(-23)))
          CFI (cfiCond195) V0 load(1, XDATA, add(CFA_XSP16, literal(-22)))
          CFI (cfiCond195) V1 load(1, XDATA, add(CFA_XSP16, literal(-21)))
          CFI (cfiCond195) V2 load(1, XDATA, add(CFA_XSP16, literal(-20)))
          CFI (cfiCond195) V3 load(1, XDATA, add(CFA_XSP16, literal(-19)))
          CFI (cfiCond195) V4 load(1, XDATA, add(CFA_XSP16, literal(-18)))
          CFI (cfiCond195) V5 load(1, XDATA, add(CFA_XSP16, literal(-17)))
          CFI (cfiCond195) V6 load(1, XDATA, add(CFA_XSP16, literal(-16)))
          CFI (cfiCond195) V7 load(1, XDATA, add(CFA_XSP16, literal(-15)))
          CFI (cfiCond195) V8 load(1, XDATA, add(CFA_XSP16, literal(-14)))
          CFI (cfiCond195) V9 load(1, XDATA, add(CFA_XSP16, literal(-13)))
          CFI (cfiCond195) V10 load(1, XDATA, add(CFA_XSP16, literal(-12)))
          CFI (cfiCond195) V11 load(1, XDATA, add(CFA_XSP16, literal(-11)))
          CFI (cfiCond195) V12 load(1, XDATA, add(CFA_XSP16, literal(-10)))
          CFI (cfiCond195) V13 load(1, XDATA, add(CFA_XSP16, literal(-9)))
          CFI (cfiCond195) V14 load(1, XDATA, add(CFA_XSP16, literal(-8)))
          CFI (cfiCond195) V15 load(1, XDATA, add(CFA_XSP16, literal(-7)))
          CFI (cfiCond195) R7 load(1, XDATA, add(CFA_XSP16, literal(-6)))
          CFI (cfiCond195) ?RET_LOW load(1, XDATA, add(CFA_XSP16, literal(-5)))
          CFI (cfiCond195) ?RET_HIGH load(1, XDATA, add(CFA_XSP16, literal(-4)))
          CFI (cfiCond195) ?BRET_EXT load(1, XDATA, add(CFA_XSP16, literal(-3)))
          CFI (cfiCond195) DPL0 load(1, XDATA, add(CFA_XSP16, literal(-2)))
          CFI (cfiCond195) DPH0 load(1, XDATA, add(CFA_XSP16, literal(-1)))
          CFI (cfiCond195) CFA_SP SP+0
          CFI (cfiCond195) CFA_XSP16 add(XSP16, 25)
          CFI Block cfiCond196 Using cfiCommon0
          CFI (cfiCond196) Function MT_AfIncomingMsg
          CFI (cfiCond196) Conditional ??CrossCallReturnLabel_107
          CFI (cfiCond196) R6 load(1, XDATA, add(CFA_XSP16, literal(-24)))
          CFI (cfiCond196) VB load(1, XDATA, add(CFA_XSP16, literal(-23)))
          CFI (cfiCond196) V0 load(1, XDATA, add(CFA_XSP16, literal(-22)))
          CFI (cfiCond196) V1 load(1, XDATA, add(CFA_XSP16, literal(-21)))
          CFI (cfiCond196) V2 load(1, XDATA, add(CFA_XSP16, literal(-20)))
          CFI (cfiCond196) V3 load(1, XDATA, add(CFA_XSP16, literal(-19)))
          CFI (cfiCond196) V4 load(1, XDATA, add(CFA_XSP16, literal(-18)))
          CFI (cfiCond196) V5 load(1, XDATA, add(CFA_XSP16, literal(-17)))
          CFI (cfiCond196) V6 load(1, XDATA, add(CFA_XSP16, literal(-16)))
          CFI (cfiCond196) V7 load(1, XDATA, add(CFA_XSP16, literal(-15)))
          CFI (cfiCond196) V8 load(1, XDATA, add(CFA_XSP16, literal(-14)))
          CFI (cfiCond196) V9 load(1, XDATA, add(CFA_XSP16, literal(-13)))
          CFI (cfiCond196) V10 load(1, XDATA, add(CFA_XSP16, literal(-12)))
          CFI (cfiCond196) V11 load(1, XDATA, add(CFA_XSP16, literal(-11)))
          CFI (cfiCond196) V12 load(1, XDATA, add(CFA_XSP16, literal(-10)))
          CFI (cfiCond196) V13 load(1, XDATA, add(CFA_XSP16, literal(-9)))
          CFI (cfiCond196) V14 load(1, XDATA, add(CFA_XSP16, literal(-8)))
          CFI (cfiCond196) V15 load(1, XDATA, add(CFA_XSP16, literal(-7)))
          CFI (cfiCond196) R7 load(1, XDATA, add(CFA_XSP16, literal(-6)))
          CFI (cfiCond196) ?RET_LOW load(1, XDATA, add(CFA_XSP16, literal(-5)))
          CFI (cfiCond196) ?RET_HIGH load(1, XDATA, add(CFA_XSP16, literal(-4)))
          CFI (cfiCond196) ?BRET_EXT load(1, XDATA, add(CFA_XSP16, literal(-3)))
          CFI (cfiCond196) DPL0 load(1, XDATA, add(CFA_XSP16, literal(-2)))
          CFI (cfiCond196) DPH0 load(1, XDATA, add(CFA_XSP16, literal(-1)))
          CFI (cfiCond196) CFA_SP SP+0
          CFI (cfiCond196) CFA_XSP16 add(XSP16, 25)
          CFI Block cfiPicker197 Using cfiCommon1
          CFI (cfiPicker197) NoFunction
          CFI (cfiPicker197) Picker
        MOV     DPL,A
        MOV     A,?V0 + 9
        LCALL   ??Subroutine44_0 & 0xFFFF
          CFI EndBlock cfiCond193
          CFI EndBlock cfiCond194
          CFI EndBlock cfiCond195
          CFI EndBlock cfiCond196
          CFI EndBlock cfiPicker197
??CrossCallReturnLabel_74:
        REQUIRE ??Subroutine50_0
        ; // Fall through to label ??Subroutine50_0

        RSEG BANKED_CODE:CODE:NOROOT(0)
??Subroutine50_0:
          CFI Block cfiCond198 Using cfiCommon0
          CFI Function MT_AfIncomingMsg
          CFI Conditional ??CrossCallReturnLabel_108
          CFI R6 load(1, XDATA, add(CFA_XSP16, literal(-24)))
          CFI VB load(1, XDATA, add(CFA_XSP16, literal(-23)))
          CFI V0 load(1, XDATA, add(CFA_XSP16, literal(-22)))
          CFI V1 load(1, XDATA, add(CFA_XSP16, literal(-21)))
          CFI V2 load(1, XDATA, add(CFA_XSP16, literal(-20)))
          CFI V3 load(1, XDATA, add(CFA_XSP16, literal(-19)))
          CFI V4 load(1, XDATA, add(CFA_XSP16, literal(-18)))
          CFI V5 load(1, XDATA, add(CFA_XSP16, literal(-17)))
          CFI V6 load(1, XDATA, add(CFA_XSP16, literal(-16)))
          CFI V7 load(1, XDATA, add(CFA_XSP16, literal(-15)))
          CFI V8 load(1, XDATA, add(CFA_XSP16, literal(-14)))
          CFI V9 load(1, XDATA, add(CFA_XSP16, literal(-13)))
          CFI V10 load(1, XDATA, add(CFA_XSP16, literal(-12)))
          CFI V11 load(1, XDATA, add(CFA_XSP16, literal(-11)))
          CFI V12 load(1, XDATA, add(CFA_XSP16, literal(-10)))
          CFI V13 load(1, XDATA, add(CFA_XSP16, literal(-9)))
          CFI V14 load(1, XDATA, add(CFA_XSP16, literal(-8)))
          CFI V15 load(1, XDATA, add(CFA_XSP16, literal(-7)))
          CFI R7 load(1, XDATA, add(CFA_XSP16, literal(-6)))
          CFI ?RET_LOW load(1, XDATA, add(CFA_XSP16, literal(-5)))
          CFI ?RET_HIGH load(1, XDATA, add(CFA_XSP16, literal(-4)))
          CFI ?BRET_EXT load(1, XDATA, add(CFA_XSP16, literal(-3)))
          CFI DPL0 load(1, XDATA, add(CFA_XSP16, literal(-2)))
          CFI DPH0 load(1, XDATA, add(CFA_XSP16, literal(-1)))
          CFI CFA_SP SP+0
          CFI CFA_XSP16 add(XSP16, 25)
          CFI Block cfiCond199 Using cfiCommon0
          CFI (cfiCond199) Function MT_AfIncomingMsg
          CFI (cfiCond199) Conditional ??CrossCallReturnLabel_104
          CFI (cfiCond199) R6 load(1, XDATA, add(CFA_XSP16, literal(-24)))
          CFI (cfiCond199) VB load(1, XDATA, add(CFA_XSP16, literal(-23)))
          CFI (cfiCond199) V0 load(1, XDATA, add(CFA_XSP16, literal(-22)))
          CFI (cfiCond199) V1 load(1, XDATA, add(CFA_XSP16, literal(-21)))
          CFI (cfiCond199) V2 load(1, XDATA, add(CFA_XSP16, literal(-20)))
          CFI (cfiCond199) V3 load(1, XDATA, add(CFA_XSP16, literal(-19)))
          CFI (cfiCond199) V4 load(1, XDATA, add(CFA_XSP16, literal(-18)))
          CFI (cfiCond199) V5 load(1, XDATA, add(CFA_XSP16, literal(-17)))
          CFI (cfiCond199) V6 load(1, XDATA, add(CFA_XSP16, literal(-16)))
          CFI (cfiCond199) V7 load(1, XDATA, add(CFA_XSP16, literal(-15)))
          CFI (cfiCond199) V8 load(1, XDATA, add(CFA_XSP16, literal(-14)))
          CFI (cfiCond199) V9 load(1, XDATA, add(CFA_XSP16, literal(-13)))
          CFI (cfiCond199) V10 load(1, XDATA, add(CFA_XSP16, literal(-12)))
          CFI (cfiCond199) V11 load(1, XDATA, add(CFA_XSP16, literal(-11)))
          CFI (cfiCond199) V12 load(1, XDATA, add(CFA_XSP16, literal(-10)))
          CFI (cfiCond199) V13 load(1, XDATA, add(CFA_XSP16, literal(-9)))
          CFI (cfiCond199) V14 load(1, XDATA, add(CFA_XSP16, literal(-8)))
          CFI (cfiCond199) V15 load(1, XDATA, add(CFA_XSP16, literal(-7)))
          CFI (cfiCond199) R7 load(1, XDATA, add(CFA_XSP16, literal(-6)))
          CFI (cfiCond199) ?RET_LOW load(1, XDATA, add(CFA_XSP16, literal(-5)))
          CFI (cfiCond199) ?RET_HIGH load(1, XDATA, add(CFA_XSP16, literal(-4)))
          CFI (cfiCond199) ?BRET_EXT load(1, XDATA, add(CFA_XSP16, literal(-3)))
          CFI (cfiCond199) DPL0 load(1, XDATA, add(CFA_XSP16, literal(-2)))
          CFI (cfiCond199) DPH0 load(1, XDATA, add(CFA_XSP16, literal(-1)))
          CFI (cfiCond199) CFA_SP SP+0
          CFI (cfiCond199) CFA_XSP16 add(XSP16, 25)
          CFI Block cfiCond200 Using cfiCommon0
          CFI (cfiCond200) Function MT_AfIncomingMsg
          CFI (cfiCond200) Conditional ??CrossCallReturnLabel_105
          CFI (cfiCond200) R6 load(1, XDATA, add(CFA_XSP16, literal(-24)))
          CFI (cfiCond200) VB load(1, XDATA, add(CFA_XSP16, literal(-23)))
          CFI (cfiCond200) V0 load(1, XDATA, add(CFA_XSP16, literal(-22)))
          CFI (cfiCond200) V1 load(1, XDATA, add(CFA_XSP16, literal(-21)))
          CFI (cfiCond200) V2 load(1, XDATA, add(CFA_XSP16, literal(-20)))
          CFI (cfiCond200) V3 load(1, XDATA, add(CFA_XSP16, literal(-19)))
          CFI (cfiCond200) V4 load(1, XDATA, add(CFA_XSP16, literal(-18)))
          CFI (cfiCond200) V5 load(1, XDATA, add(CFA_XSP16, literal(-17)))
          CFI (cfiCond200) V6 load(1, XDATA, add(CFA_XSP16, literal(-16)))
          CFI (cfiCond200) V7 load(1, XDATA, add(CFA_XSP16, literal(-15)))
          CFI (cfiCond200) V8 load(1, XDATA, add(CFA_XSP16, literal(-14)))
          CFI (cfiCond200) V9 load(1, XDATA, add(CFA_XSP16, literal(-13)))
          CFI (cfiCond200) V10 load(1, XDATA, add(CFA_XSP16, literal(-12)))
          CFI (cfiCond200) V11 load(1, XDATA, add(CFA_XSP16, literal(-11)))
          CFI (cfiCond200) V12 load(1, XDATA, add(CFA_XSP16, literal(-10)))
          CFI (cfiCond200) V13 load(1, XDATA, add(CFA_XSP16, literal(-9)))
          CFI (cfiCond200) V14 load(1, XDATA, add(CFA_XSP16, literal(-8)))
          CFI (cfiCond200) V15 load(1, XDATA, add(CFA_XSP16, literal(-7)))
          CFI (cfiCond200) R7 load(1, XDATA, add(CFA_XSP16, literal(-6)))
          CFI (cfiCond200) ?RET_LOW load(1, XDATA, add(CFA_XSP16, literal(-5)))
          CFI (cfiCond200) ?RET_HIGH load(1, XDATA, add(CFA_XSP16, literal(-4)))
          CFI (cfiCond200) ?BRET_EXT load(1, XDATA, add(CFA_XSP16, literal(-3)))
          CFI (cfiCond200) DPL0 load(1, XDATA, add(CFA_XSP16, literal(-2)))
          CFI (cfiCond200) DPH0 load(1, XDATA, add(CFA_XSP16, literal(-1)))
          CFI (cfiCond200) CFA_SP SP+0
          CFI (cfiCond200) CFA_XSP16 add(XSP16, 25)
          CFI Block cfiCond201 Using cfiCommon0
          CFI (cfiCond201) Function MT_AfIncomingMsg
          CFI (cfiCond201) Conditional ??CrossCallReturnLabel_106
          CFI (cfiCond201) R6 load(1, XDATA, add(CFA_XSP16, literal(-24)))
          CFI (cfiCond201) VB load(1, XDATA, add(CFA_XSP16, literal(-23)))
          CFI (cfiCond201) V0 load(1, XDATA, add(CFA_XSP16, literal(-22)))
          CFI (cfiCond201) V1 load(1, XDATA, add(CFA_XSP16, literal(-21)))
          CFI (cfiCond201) V2 load(1, XDATA, add(CFA_XSP16, literal(-20)))
          CFI (cfiCond201) V3 load(1, XDATA, add(CFA_XSP16, literal(-19)))
          CFI (cfiCond201) V4 load(1, XDATA, add(CFA_XSP16, literal(-18)))
          CFI (cfiCond201) V5 load(1, XDATA, add(CFA_XSP16, literal(-17)))
          CFI (cfiCond201) V6 load(1, XDATA, add(CFA_XSP16, literal(-16)))
          CFI (cfiCond201) V7 load(1, XDATA, add(CFA_XSP16, literal(-15)))
          CFI (cfiCond201) V8 load(1, XDATA, add(CFA_XSP16, literal(-14)))
          CFI (cfiCond201) V9 load(1, XDATA, add(CFA_XSP16, literal(-13)))
          CFI (cfiCond201) V10 load(1, XDATA, add(CFA_XSP16, literal(-12)))
          CFI (cfiCond201) V11 load(1, XDATA, add(CFA_XSP16, literal(-11)))
          CFI (cfiCond201) V12 load(1, XDATA, add(CFA_XSP16, literal(-10)))
          CFI (cfiCond201) V13 load(1, XDATA, add(CFA_XSP16, literal(-9)))
          CFI (cfiCond201) V14 load(1, XDATA, add(CFA_XSP16, literal(-8)))
          CFI (cfiCond201) V15 load(1, XDATA, add(CFA_XSP16, literal(-7)))
          CFI (cfiCond201) R7 load(1, XDATA, add(CFA_XSP16, literal(-6)))
          CFI (cfiCond201) ?RET_LOW load(1, XDATA, add(CFA_XSP16, literal(-5)))
          CFI (cfiCond201) ?RET_HIGH load(1, XDATA, add(CFA_XSP16, literal(-4)))
          CFI (cfiCond201) ?BRET_EXT load(1, XDATA, add(CFA_XSP16, literal(-3)))
          CFI (cfiCond201) DPL0 load(1, XDATA, add(CFA_XSP16, literal(-2)))
          CFI (cfiCond201) DPH0 load(1, XDATA, add(CFA_XSP16, literal(-1)))
          CFI (cfiCond201) CFA_SP SP+0
          CFI (cfiCond201) CFA_XSP16 add(XSP16, 25)
          CFI Block cfiCond202 Using cfiCommon0
          CFI (cfiCond202) Function MT_AfIncomingMsg
          CFI (cfiCond202) Conditional ??CrossCallReturnLabel_107
          CFI (cfiCond202) R6 load(1, XDATA, add(CFA_XSP16, literal(-24)))
          CFI (cfiCond202) VB load(1, XDATA, add(CFA_XSP16, literal(-23)))
          CFI (cfiCond202) V0 load(1, XDATA, add(CFA_XSP16, literal(-22)))
          CFI (cfiCond202) V1 load(1, XDATA, add(CFA_XSP16, literal(-21)))
          CFI (cfiCond202) V2 load(1, XDATA, add(CFA_XSP16, literal(-20)))
          CFI (cfiCond202) V3 load(1, XDATA, add(CFA_XSP16, literal(-19)))
          CFI (cfiCond202) V4 load(1, XDATA, add(CFA_XSP16, literal(-18)))
          CFI (cfiCond202) V5 load(1, XDATA, add(CFA_XSP16, literal(-17)))
          CFI (cfiCond202) V6 load(1, XDATA, add(CFA_XSP16, literal(-16)))
          CFI (cfiCond202) V7 load(1, XDATA, add(CFA_XSP16, literal(-15)))
          CFI (cfiCond202) V8 load(1, XDATA, add(CFA_XSP16, literal(-14)))
          CFI (cfiCond202) V9 load(1, XDATA, add(CFA_XSP16, literal(-13)))
          CFI (cfiCond202) V10 load(1, XDATA, add(CFA_XSP16, literal(-12)))
          CFI (cfiCond202) V11 load(1, XDATA, add(CFA_XSP16, literal(-11)))
          CFI (cfiCond202) V12 load(1, XDATA, add(CFA_XSP16, literal(-10)))
          CFI (cfiCond202) V13 load(1, XDATA, add(CFA_XSP16, literal(-9)))
          CFI (cfiCond202) V14 load(1, XDATA, add(CFA_XSP16, literal(-8)))
          CFI (cfiCond202) V15 load(1, XDATA, add(CFA_XSP16, literal(-7)))
          CFI (cfiCond202) R7 load(1, XDATA, add(CFA_XSP16, literal(-6)))
          CFI (cfiCond202) ?RET_LOW load(1, XDATA, add(CFA_XSP16, literal(-5)))
          CFI (cfiCond202) ?RET_HIGH load(1, XDATA, add(CFA_XSP16, literal(-4)))
          CFI (cfiCond202) ?BRET_EXT load(1, XDATA, add(CFA_XSP16, literal(-3)))
          CFI (cfiCond202) DPL0 load(1, XDATA, add(CFA_XSP16, literal(-2)))
          CFI (cfiCond202) DPH0 load(1, XDATA, add(CFA_XSP16, literal(-1)))
          CFI (cfiCond202) CFA_SP SP+0
          CFI (cfiCond202) CFA_XSP16 add(XSP16, 25)
          CFI Block cfiPicker203 Using cfiCommon1
          CFI (cfiPicker203) NoFunction
          CFI (cfiPicker203) Picker
        LCALL   ?Subroutine35 & 0xFFFF
??CrossCallReturnLabel_110:
        MOV     A,?V0 + 8
        RET
          CFI EndBlock cfiCond198
          CFI EndBlock cfiCond199
          CFI EndBlock cfiCond200
          CFI EndBlock cfiCond201
          CFI EndBlock cfiCond202
          CFI EndBlock cfiPicker203
//  758 
//  759 /**************************************************************************************************
//  760  * @fn          MT_AfDataRetrieve
//  761  *
//  762  * @brief   Process AF Data Retrieve command to incrementally read out a very large
//  763  *          incoming AF message.
//  764  *
//  765  * input parameters
//  766  *
//  767  * @param pBuf - pointer to the received buffer
//  768  *
//  769  * output parameters
//  770  *
//  771  * @param rtrn - AF-Status of the operation.
//  772  *
//  773  * @return      None.
//  774  **************************************************************************************************
//  775  */

        RSEG BANKED_CODE:CODE:NOROOT(0)
//  776 void MT_AfDataRetrieve(uint8 *pBuf)
MT_AfDataRetrieve:
          CFI Block cfiBlock204 Using cfiCommon0
          CFI Function MT_AfDataRetrieve
        CODE
//  777 {
        FUNCALL MT_AfDataRetrieve, osal_mem_free
        LOCFRAME ISTACK, 0, STACK
        LOCFRAME PSTACK, 0, STACK
        LOCFRAME XSTACK, 20, STACK
        LOCFRAME IOVERLAY, 0, STATIC
        LOCFRAME DOVERLAY, 0, STATIC
        ARGFRAME ISTACK, 0, STACK
        ARGFRAME PSTACK, 0, STACK
        ARGFRAME XSTACK, 20, STACK
        ARGFRAME IOVERLAY, 0, STATIC
        ARGFRAME DOVERLAY, 0, STATIC
        FUNCALL MT_AfDataRetrieve, MT_BuildAndSendZToolResponse
        LOCFRAME ISTACK, 0, STACK
        LOCFRAME PSTACK, 0, STACK
        LOCFRAME XSTACK, 20, STACK
        LOCFRAME IOVERLAY, 0, STATIC
        LOCFRAME DOVERLAY, 0, STATIC
        ARGFRAME ISTACK, 0, STACK
        ARGFRAME PSTACK, 0, STACK
        ARGFRAME XSTACK, 20, STACK
        ARGFRAME IOVERLAY, 0, STATIC
        ARGFRAME DOVERLAY, 0, STATIC
        FUNCALL MT_AfDataRetrieve, osal_mem_alloc
        LOCFRAME ISTACK, 0, STACK
        LOCFRAME PSTACK, 0, STACK
        LOCFRAME XSTACK, 20, STACK
        LOCFRAME IOVERLAY, 0, STATIC
        LOCFRAME DOVERLAY, 0, STATIC
        ARGFRAME ISTACK, 0, STACK
        ARGFRAME PSTACK, 0, STACK
        ARGFRAME XSTACK, 20, STACK
        ARGFRAME IOVERLAY, 0, STATIC
        ARGFRAME DOVERLAY, 0, STATIC
        FUNCALL MT_AfDataRetrieve, osal_memcpy
        LOCFRAME ISTACK, 0, STACK
        LOCFRAME PSTACK, 0, STACK
        LOCFRAME XSTACK, 23, STACK
        LOCFRAME IOVERLAY, 0, STATIC
        LOCFRAME DOVERLAY, 0, STATIC
        ARGFRAME ISTACK, 0, STACK
        ARGFRAME PSTACK, 0, STACK
        ARGFRAME XSTACK, 23, STACK
        ARGFRAME IOVERLAY, 0, STATIC
        ARGFRAME DOVERLAY, 0, STATIC
        FUNCALL MT_AfDataRetrieve, MT_BuildAndSendZToolResponse
        LOCFRAME ISTACK, 0, STACK
        LOCFRAME PSTACK, 0, STACK
        LOCFRAME XSTACK, 20, STACK
        LOCFRAME IOVERLAY, 0, STATIC
        LOCFRAME DOVERLAY, 0, STATIC
        ARGFRAME ISTACK, 0, STACK
        ARGFRAME PSTACK, 0, STACK
        ARGFRAME XSTACK, 20, STACK
        ARGFRAME IOVERLAY, 0, STATIC
        ARGFRAME DOVERLAY, 0, STATIC
        FUNCALL MT_AfDataRetrieve, osal_mem_free
        LOCFRAME ISTACK, 0, STACK
        LOCFRAME PSTACK, 0, STACK
        LOCFRAME XSTACK, 20, STACK
        LOCFRAME IOVERLAY, 0, STATIC
        LOCFRAME DOVERLAY, 0, STATIC
        ARGFRAME ISTACK, 0, STACK
        ARGFRAME PSTACK, 0, STACK
        ARGFRAME XSTACK, 20, STACK
        ARGFRAME IOVERLAY, 0, STATIC
        ARGFRAME DOVERLAY, 0, STATIC
        MOV     A,#-0x14
        LCALL   ?BANKED_ENTER_XDATA
          CFI DPH0 load(1, XDATA, add(CFA_XSP16, literal(-1)))
          CFI DPL0 load(1, XDATA, add(CFA_XSP16, literal(-2)))
          CFI ?BRET_EXT load(1, XDATA, add(CFA_XSP16, literal(-3)))
          CFI ?RET_HIGH load(1, XDATA, add(CFA_XSP16, literal(-4)))
          CFI ?RET_LOW load(1, XDATA, add(CFA_XSP16, literal(-5)))
          CFI R7 load(1, XDATA, add(CFA_XSP16, literal(-6)))
          CFI V11 load(1, XDATA, add(CFA_XSP16, literal(-7)))
          CFI V10 load(1, XDATA, add(CFA_XSP16, literal(-8)))
          CFI V9 load(1, XDATA, add(CFA_XSP16, literal(-9)))
          CFI V8 load(1, XDATA, add(CFA_XSP16, literal(-10)))
          CFI V7 load(1, XDATA, add(CFA_XSP16, literal(-11)))
          CFI V6 load(1, XDATA, add(CFA_XSP16, literal(-12)))
          CFI V5 load(1, XDATA, add(CFA_XSP16, literal(-13)))
          CFI V4 load(1, XDATA, add(CFA_XSP16, literal(-14)))
          CFI V3 load(1, XDATA, add(CFA_XSP16, literal(-15)))
          CFI V2 load(1, XDATA, add(CFA_XSP16, literal(-16)))
          CFI V1 load(1, XDATA, add(CFA_XSP16, literal(-17)))
          CFI V0 load(1, XDATA, add(CFA_XSP16, literal(-18)))
          CFI VB load(1, XDATA, add(CFA_XSP16, literal(-19)))
          CFI R6 load(1, XDATA, add(CFA_XSP16, literal(-20)))
          CFI CFA_SP SP+0
          CFI CFA_XSP16 add(XSP16, 20)
        ; Saved register size: 20
        ; Auto size: 0
        MOV     A,R2
        MOV     R6,A
        MOV     A,R3
        MOV     R7,A
//  778   #define MT_AF_RTV_HDR_SZ  2
//  779 
//  780   uint32 timestamp;
//  781   mtAfInMsgList_t *pPrev, *pItem = pMtAfInMsgList;
        MOV     DPTR,#pMtAfInMsgList
        MOVX    A,@DPTR
        MOV     ?V0 + 6,A
        INC     DPTR
        MOVX    A,@DPTR
        MOV     ?V0 + 7,A
//  782   uint8 rtrn = afStatus_FAILED;
        MOV     R2,#0x1
//  783   uint8 len = 0;
        MOV     ?V0 + 4,#0x0
//  784 
//  785   pBuf += MT_RPC_FRAME_HDR_SZ;
        MOV     A,R6
        ADD     A,#0x3
        LCALL   ??Subroutine46_0 & 0xFFFF
//  786   timestamp = BUILD_UINT32(pBuf[0], pBuf[1], pBuf[2], pBuf[3]);
??CrossCallReturnLabel_91:
        MOV     ?V0 + 0,A
        CLR     A
        MOV     ?V0 + 1,A
        MOV     ?V0 + 2,A
        MOV     ?V0 + 3,A
        INC     DPTR
        MOVX    A,@DPTR
        MOV     ?V0 + 8,A
        CLR     A
        MOV     ?V0 + 9,A
        MOV     ?V0 + 10,A
        MOV     ?V0 + 11,A
        MOV     A,#0x8
        MOV     R0,#?V0 + 8
        LCALL   ?L_SHL
        MOV     R0,#?V0 + 0
        MOV     R1,#?V0 + 8
        LCALL   ?L_ADD
        MOV     DPL,R6
        MOV     DPH,R7
        INC     DPTR
        INC     DPTR
        MOVX    A,@DPTR
        MOV     ?V0 + 8,A
        CLR     A
        MOV     ?V0 + 9,A
        MOV     A,#0x10
        MOV     R0,#?V0 + 8
        LCALL   ?L_SHL
        MOV     R0,#?V0 + 0
        MOV     R1,#?V0 + 8
        LCALL   ?L_ADD
        MOV     DPL,R6
        MOV     DPH,R7
        INC     DPTR
        INC     DPTR
        INC     DPTR
        MOVX    A,@DPTR
        MOV     ?V0 + 8,A
        CLR     A
        MOV     ?V0 + 10,A
        MOV     A,#0x18
        MOV     R0,#?V0 + 8
        LCALL   ?L_SHL
        MOV     R0,#?V0 + 0
        MOV     R1,#?V0 + 8
        LCALL   ?L_ADD
        SJMP    ??MT_AfDataRetrieve_0
//  787 
//  788   while (pItem != NULL)
//  789   {
//  790     pPrev = pItem;
//  791     if (pItem->timestamp == timestamp)
//  792     {
//  793       break;
//  794     }
//  795     pItem = pItem->next;
??MT_AfDataRetrieve_1:
        MOV     DPL,R4
        MOV     DPH,R5
        MOVX    A,@DPTR
        MOV     ?V0 + 6,A
        INC     DPTR
        MOVX    A,@DPTR
        MOV     ?V0 + 7,A
??MT_AfDataRetrieve_0:
        MOV     A,?V0 + 6
        ORL     A,?V0 + 7
        JZ      ??MT_AfDataRetrieve_2
        MOV     R4,?V0 + 6
        MOV     R5,?V0 + 7
        MOV     DPL,R4
        MOV     DPH,R5
        INC     DPTR
        INC     DPTR
        INC     DPTR
        INC     DPTR
        MOV     R0,#?V0 + 0
        LCALL   ?L_EQ_X
        JNZ     ??MT_AfDataRetrieve_1
//  796   }
//  797 
//  798   if (pItem != NULL)
//  799   {
//  800     uint16 idx;
//  801     uint8 *pRsp;
//  802 
//  803     pBuf += 4;
        MOV     A,R6
        ADD     A,#0x4
        MOV     R6,A
        MOV     A,R7
        ADDC    A,#0x0
        MOV     R7,A
//  804     idx = BUILD_UINT16(pBuf[0], pBuf[1]);
        LCALL   ?Subroutine12 & 0xFFFF
??CrossCallReturnLabel_97:
        MOV     ?V0 + 2,A
        CLR     A
        ADDC    A,R1
        MOV     ?V0 + 3,A
//  805     len = pBuf[2];
        MOV     DPL,R6
        MOV     DPH,R7
        INC     DPTR
        INC     DPTR
        MOVX    A,@DPTR
        MOV     ?V0 + 4,A
//  806 
//  807     if (len == 0)  // Indication to delete the afIncomingMSGPacket.
        JNZ     ??MT_AfDataRetrieve_3
//  808     {
//  809       if (pMtAfInMsgList == pItem)
        MOV     DPL,R4
        MOV     DPH,R5
        LCALL   ?Subroutine18 & 0xFFFF
??CrossCallReturnLabel_23:
        LCALL   ??Subroutine52_0 & 0xFFFF
??CrossCallReturnLabel_120:
        MOV     A,R4
        XRL     A,R2
        JNZ     ??MT_AfDataRetrieve_4
        MOV     A,R5
        XRL     A,R3
??MT_AfDataRetrieve_4:
        JNZ     ??MT_AfDataRetrieve_5
//  810       {
//  811         pMtAfInMsgList = pItem->next;
        MOV     DPTR,#pMtAfInMsgList
        SJMP    ??MT_AfDataRetrieve_6
//  812       }
//  813       else
//  814       {
//  815         pPrev->next = pItem->next;
??MT_AfDataRetrieve_5:
        MOV     DPL,R4
        MOV     DPH,R5
//  816       }
??MT_AfDataRetrieve_6:
        LCALL   ?Subroutine25 & 0xFFFF
//  817       (void)osal_mem_free(pItem);
??CrossCallReturnLabel_38:
        ; Setup parameters for call to function osal_mem_free
        MOV     R2,?V0 + 6
        MOV     R3,?V0 + 7
        LCALL   ??osal_mem_free?relay
//  818       rtrn = afStatus_SUCCESS;
        MOV     R2,#0x0
//  819     }
//  820     else if ((pRsp = osal_mem_alloc(len + MT_AF_RTV_HDR_SZ)) == NULL)
//  821     {
//  822       rtrn = afStatus_MEM_FAIL;
//  823       len = 0;
//  824     }
//  825     else
//  826     {
//  827       pRsp[0] = ZSuccess;
//  828       pRsp[1] = len;
//  829       (void)osal_memcpy(pRsp + MT_AF_RTV_HDR_SZ, pItem->data+idx, len);
//  830       MT_BuildAndSendZToolResponse(((uint8)MT_RPC_CMD_SRSP | (uint8)MT_RPC_SYS_AF),
//  831                                            MT_AF_DATA_RETRIEVE, len + MT_AF_RTV_HDR_SZ, pRsp);
//  832       (void)osal_mem_free(pRsp);
//  833       return;
//  834     }
//  835   }
//  836 
//  837   pBuf[0] = rtrn;
??MT_AfDataRetrieve_2:
        MOV     A,R2
        MOV     DPL,R6
        MOV     DPH,R7
        MOVX    @DPTR,A
//  838   pBuf[1] = len;
        INC     DPTR
        MOV     A,?V0 + 4
        MOVX    @DPTR,A
//  839   MT_BuildAndSendZToolResponse(((uint8)MT_RPC_CMD_SRSP | (uint8)MT_RPC_SYS_AF),
//  840                                        MT_AF_DATA_RETRIEVE, MT_AF_RTV_HDR_SZ, pBuf);
        ; Setup parameters for call to function MT_BuildAndSendZToolResponse
        MOV     A,R6
        MOV     R4,A
        MOV     A,R7
        MOV     R5,A
        MOV     R3,#0x2
        MOV     R2,#0x12
        MOV     R1,#0x64
        LCALL   ??MT_BuildAndSendZToolResponse?relay
//  841 }
??MT_AfDataRetrieve_7:
        MOV     R7,#0xc
        LJMP    ?BANKED_LEAVE_XDATA
??MT_AfDataRetrieve_3:
        ; Setup parameters for call to function osal_mem_alloc
        ADD     A,#0x2
        MOV     R2,A
        CLR     A
        ADDC    A,#0x0
        MOV     R3,A
        LCALL   ??osal_mem_alloc?relay
        MOV     ?V0 + 0,R2
        MOV     ?V0 + 1,R3
        MOV     A,R2
        ORL     A,?V0 + 1
        JNZ     ??MT_AfDataRetrieve_8
        MOV     R2,#0x10
        MOV     ?V0 + 4,#0x0
        SJMP    ??MT_AfDataRetrieve_2
??MT_AfDataRetrieve_8:
        MOV     DPL,R2
        MOV     DPH,R3
        CLR     A
        MOVX    @DPTR,A
        INC     DPTR
        MOV     A,?V0 + 4
        MOVX    @DPTR,A
        ; Setup parameters for call to function osal_memcpy
        MOV     DPL,?V0 + 6
        MOV     DPH,?V0 + 7
        INC     DPTR
        INC     DPTR
        MOVX    A,@DPTR
        ADD     A,?V0 + 2
        MOV     ?V0 + 8,A
        INC     DPTR
        MOVX    A,@DPTR
        ADDC    A,?V0 + 3
        MOV     ?V0 + 9,A
        MOV     R0,#?V0 + 8
        LCALL   ?PUSH_XSTACK_I_THREE
          CFI CFA_XSP16 add(XSP16, 23)
        MOV     ?V0 + 2,?V0 + 4
        MOV     R4,?V0 + 2
        MOV     R5,#0x0
        MOV     A,R2
        ADD     A,#0x2
        MOV     R2,A
        MOV     A,R3
        ADDC    A,#0x0
        MOV     R3,A
        LCALL   ??osal_memcpy?relay
        MOV     A,#0x3
        LCALL   ?DEALLOC_XSTACK8
          CFI CFA_XSP16 add(XSP16, 20)
        ; Setup parameters for call to function MT_BuildAndSendZToolResponse
        MOV     R4,?V0 + 0
        MOV     R5,?V0 + 1
        MOV     A,#0x2
        ADD     A,?V0 + 4
        MOV     R3,A
        MOV     R2,#0x12
        MOV     R1,#0x64
        LCALL   ??MT_BuildAndSendZToolResponse?relay
        ; Setup parameters for call to function osal_mem_free
        MOV     R2,?V0 + 0
        MOV     R3,?V0 + 1
        LCALL   ??osal_mem_free?relay
        SJMP    ??MT_AfDataRetrieve_7
          CFI EndBlock cfiBlock204

        RSEG BANKED_CODE:CODE:NOROOT(0)
?Subroutine18:
          CFI Block cfiCond205 Using cfiCommon0
          CFI Function MT_AfExec
          CFI Conditional ??CrossCallReturnLabel_22
          CFI R6 load(1, XDATA, add(CFA_XSP16, literal(-9)))
          CFI VB load(1, XDATA, add(CFA_XSP16, literal(-8)))
          CFI V0 load(1, XDATA, add(CFA_XSP16, literal(-7)))
          CFI R7 load(1, XDATA, add(CFA_XSP16, literal(-6)))
          CFI ?RET_LOW load(1, XDATA, add(CFA_XSP16, literal(-5)))
          CFI ?RET_HIGH load(1, XDATA, add(CFA_XSP16, literal(-4)))
          CFI ?BRET_EXT load(1, XDATA, add(CFA_XSP16, literal(-3)))
          CFI DPL0 load(1, XDATA, add(CFA_XSP16, literal(-2)))
          CFI DPH0 load(1, XDATA, add(CFA_XSP16, literal(-1)))
          CFI CFA_SP SP+0
          CFI CFA_XSP16 add(XSP16, 9)
          CFI Block cfiCond206 Using cfiCommon0
          CFI (cfiCond206) Function MT_AfDataRetrieve
          CFI (cfiCond206) Conditional ??CrossCallReturnLabel_23
          CFI (cfiCond206) R6 load(1, XDATA, add(CFA_XSP16, literal(-20)))
          CFI (cfiCond206) VB load(1, XDATA, add(CFA_XSP16, literal(-19)))
          CFI (cfiCond206) V0 load(1, XDATA, add(CFA_XSP16, literal(-18)))
          CFI (cfiCond206) V1 load(1, XDATA, add(CFA_XSP16, literal(-17)))
          CFI (cfiCond206) V2 load(1, XDATA, add(CFA_XSP16, literal(-16)))
          CFI (cfiCond206) V3 load(1, XDATA, add(CFA_XSP16, literal(-15)))
          CFI (cfiCond206) V4 load(1, XDATA, add(CFA_XSP16, literal(-14)))
          CFI (cfiCond206) V5 load(1, XDATA, add(CFA_XSP16, literal(-13)))
          CFI (cfiCond206) V6 load(1, XDATA, add(CFA_XSP16, literal(-12)))
          CFI (cfiCond206) V7 load(1, XDATA, add(CFA_XSP16, literal(-11)))
          CFI (cfiCond206) V8 load(1, XDATA, add(CFA_XSP16, literal(-10)))
          CFI (cfiCond206) V9 load(1, XDATA, add(CFA_XSP16, literal(-9)))
          CFI (cfiCond206) V10 load(1, XDATA, add(CFA_XSP16, literal(-8)))
          CFI (cfiCond206) V11 load(1, XDATA, add(CFA_XSP16, literal(-7)))
          CFI (cfiCond206) R7 load(1, XDATA, add(CFA_XSP16, literal(-6)))
          CFI (cfiCond206) ?RET_LOW load(1, XDATA, add(CFA_XSP16, literal(-5)))
          CFI (cfiCond206) ?RET_HIGH load(1, XDATA, add(CFA_XSP16, literal(-4)))
          CFI (cfiCond206) ?BRET_EXT load(1, XDATA, add(CFA_XSP16, literal(-3)))
          CFI (cfiCond206) DPL0 load(1, XDATA, add(CFA_XSP16, literal(-2)))
          CFI (cfiCond206) DPH0 load(1, XDATA, add(CFA_XSP16, literal(-1)))
          CFI (cfiCond206) CFA_SP SP+0
          CFI (cfiCond206) CFA_XSP16 add(XSP16, 20)
          CFI Block cfiPicker207 Using cfiCommon1
          CFI (cfiPicker207) NoFunction
          CFI (cfiPicker207) Picker
        LCALL   ??Subroutine51_0 & 0xFFFF
??CrossCallReturnLabel_114:
        MOV     DPTR,#pMtAfInMsgList
        RET
          CFI EndBlock cfiCond205
          CFI EndBlock cfiCond206
          CFI EndBlock cfiPicker207

        RSEG BANKED_CODE:CODE:NOROOT(0)
?Subroutine36:
          CFI Block cfiCond208 Using cfiCommon0
          CFI Function MT_AfExec
          CFI Conditional ??CrossCallReturnLabel_115
          CFI R6 load(1, XDATA, add(CFA_XSP16, literal(-9)))
          CFI VB load(1, XDATA, add(CFA_XSP16, literal(-8)))
          CFI V0 load(1, XDATA, add(CFA_XSP16, literal(-7)))
          CFI R7 load(1, XDATA, add(CFA_XSP16, literal(-6)))
          CFI ?RET_LOW load(1, XDATA, add(CFA_XSP16, literal(-5)))
          CFI ?RET_HIGH load(1, XDATA, add(CFA_XSP16, literal(-4)))
          CFI ?BRET_EXT load(1, XDATA, add(CFA_XSP16, literal(-3)))
          CFI DPL0 load(1, XDATA, add(CFA_XSP16, literal(-2)))
          CFI DPH0 load(1, XDATA, add(CFA_XSP16, literal(-1)))
          CFI CFA_SP SP+0
          CFI CFA_XSP16 add(XSP16, 9)
          CFI Block cfiCond209 Using cfiCommon0
          CFI (cfiCond209) Function MT_AfIncomingMsg
          CFI (cfiCond209) Conditional ??CrossCallReturnLabel_116
          CFI (cfiCond209) R6 load(1, XDATA, add(CFA_XSP16, literal(-24)))
          CFI (cfiCond209) VB load(1, XDATA, add(CFA_XSP16, literal(-23)))
          CFI (cfiCond209) V0 load(1, XDATA, add(CFA_XSP16, literal(-22)))
          CFI (cfiCond209) V1 load(1, XDATA, add(CFA_XSP16, literal(-21)))
          CFI (cfiCond209) V2 load(1, XDATA, add(CFA_XSP16, literal(-20)))
          CFI (cfiCond209) V3 load(1, XDATA, add(CFA_XSP16, literal(-19)))
          CFI (cfiCond209) V4 load(1, XDATA, add(CFA_XSP16, literal(-18)))
          CFI (cfiCond209) V5 load(1, XDATA, add(CFA_XSP16, literal(-17)))
          CFI (cfiCond209) V6 load(1, XDATA, add(CFA_XSP16, literal(-16)))
          CFI (cfiCond209) V7 load(1, XDATA, add(CFA_XSP16, literal(-15)))
          CFI (cfiCond209) V8 load(1, XDATA, add(CFA_XSP16, literal(-14)))
          CFI (cfiCond209) V9 load(1, XDATA, add(CFA_XSP16, literal(-13)))
          CFI (cfiCond209) V10 load(1, XDATA, add(CFA_XSP16, literal(-12)))
          CFI (cfiCond209) V11 load(1, XDATA, add(CFA_XSP16, literal(-11)))
          CFI (cfiCond209) V12 load(1, XDATA, add(CFA_XSP16, literal(-10)))
          CFI (cfiCond209) V13 load(1, XDATA, add(CFA_XSP16, literal(-9)))
          CFI (cfiCond209) V14 load(1, XDATA, add(CFA_XSP16, literal(-8)))
          CFI (cfiCond209) V15 load(1, XDATA, add(CFA_XSP16, literal(-7)))
          CFI (cfiCond209) R7 load(1, XDATA, add(CFA_XSP16, literal(-6)))
          CFI (cfiCond209) ?RET_LOW load(1, XDATA, add(CFA_XSP16, literal(-5)))
          CFI (cfiCond209) ?RET_HIGH load(1, XDATA, add(CFA_XSP16, literal(-4)))
          CFI (cfiCond209) ?BRET_EXT load(1, XDATA, add(CFA_XSP16, literal(-3)))
          CFI (cfiCond209) DPL0 load(1, XDATA, add(CFA_XSP16, literal(-2)))
          CFI (cfiCond209) DPH0 load(1, XDATA, add(CFA_XSP16, literal(-1)))
          CFI (cfiCond209) CFA_SP SP+0
          CFI (cfiCond209) CFA_XSP16 add(XSP16, 25)
          CFI Block cfiPicker210 Using cfiCommon1
          CFI (cfiPicker210) NoFunction
          CFI (cfiPicker210) Picker
        MOV     DPTR,#pMtAfInMsgList
          CFI EndBlock cfiCond208
          CFI EndBlock cfiCond209
          CFI EndBlock cfiPicker210
        REQUIRE ??Subroutine51_0
        ; // Fall through to label ??Subroutine51_0

        RSEG BANKED_CODE:CODE:NOROOT(0)
??Subroutine51_0:
          CFI Block cfiCond211 Using cfiCommon0
          CFI Function MT_AfExec
          CFI Conditional ??CrossCallReturnLabel_113
          CFI R6 load(1, XDATA, add(CFA_XSP16, literal(-9)))
          CFI VB load(1, XDATA, add(CFA_XSP16, literal(-8)))
          CFI V0 load(1, XDATA, add(CFA_XSP16, literal(-7)))
          CFI R7 load(1, XDATA, add(CFA_XSP16, literal(-6)))
          CFI ?RET_LOW load(1, XDATA, add(CFA_XSP16, literal(-5)))
          CFI ?RET_HIGH load(1, XDATA, add(CFA_XSP16, literal(-4)))
          CFI ?BRET_EXT load(1, XDATA, add(CFA_XSP16, literal(-3)))
          CFI DPL0 load(1, XDATA, add(CFA_XSP16, literal(-2)))
          CFI DPH0 load(1, XDATA, add(CFA_XSP16, literal(-1)))
          CFI CFA_SP SP+0
          CFI CFA_XSP16 add(XSP16, 9)
          CFI Block cfiCond212 Using cfiCommon0
          CFI (cfiCond212) Function MT_AfExec
          CFI (cfiCond212) Conditional ??CrossCallReturnLabel_117, ??CrossCallReturnLabel_84
          CFI (cfiCond212) R6 load(1, XDATA, add(CFA_XSP16, literal(-9)))
          CFI (cfiCond212) VB load(1, XDATA, add(CFA_XSP16, literal(-8)))
          CFI (cfiCond212) V0 load(1, XDATA, add(CFA_XSP16, literal(-7)))
          CFI (cfiCond212) R7 load(1, XDATA, add(CFA_XSP16, literal(-6)))
          CFI (cfiCond212) ?RET_LOW load(1, XDATA, add(CFA_XSP16, literal(-5)))
          CFI (cfiCond212) ?RET_HIGH load(1, XDATA, add(CFA_XSP16, literal(-4)))
          CFI (cfiCond212) ?BRET_EXT load(1, XDATA, add(CFA_XSP16, literal(-3)))
          CFI (cfiCond212) DPL0 load(1, XDATA, add(CFA_XSP16, literal(-2)))
          CFI (cfiCond212) DPH0 load(1, XDATA, add(CFA_XSP16, literal(-1)))
          CFI (cfiCond212) CFA_SP SP+0
          CFI (cfiCond212) CFA_XSP16 add(XSP16, 9)
          CFI Block cfiCond213 Using cfiCommon0
          CFI (cfiCond213) Function MT_AfExec
          CFI (cfiCond213) Conditional ??CrossCallReturnLabel_117, ??CrossCallReturnLabel_85
          CFI (cfiCond213) R6 load(1, XDATA, add(CFA_XSP16, literal(-9)))
          CFI (cfiCond213) VB load(1, XDATA, add(CFA_XSP16, literal(-8)))
          CFI (cfiCond213) V0 load(1, XDATA, add(CFA_XSP16, literal(-7)))
          CFI (cfiCond213) R7 load(1, XDATA, add(CFA_XSP16, literal(-6)))
          CFI (cfiCond213) ?RET_LOW load(1, XDATA, add(CFA_XSP16, literal(-5)))
          CFI (cfiCond213) ?RET_HIGH load(1, XDATA, add(CFA_XSP16, literal(-4)))
          CFI (cfiCond213) ?BRET_EXT load(1, XDATA, add(CFA_XSP16, literal(-3)))
          CFI (cfiCond213) DPL0 load(1, XDATA, add(CFA_XSP16, literal(-2)))
          CFI (cfiCond213) DPH0 load(1, XDATA, add(CFA_XSP16, literal(-1)))
          CFI (cfiCond213) CFA_SP SP+0
          CFI (cfiCond213) CFA_XSP16 add(XSP16, 9)
          CFI Block cfiCond214 Using cfiCommon0
          CFI (cfiCond214) Function MT_AfDataRequest
          CFI (cfiCond214) Conditional ??CrossCallReturnLabel_117, ??CrossCallReturnLabel_86
          CFI (cfiCond214) R6 load(1, XDATA, add(CFA_XSP16, literal(-22)))
          CFI (cfiCond214) VB load(1, XDATA, add(CFA_XSP16, literal(-21)))
          CFI (cfiCond214) V0 load(1, XDATA, add(CFA_XSP16, literal(-20)))
          CFI (cfiCond214) V1 load(1, XDATA, add(CFA_XSP16, literal(-19)))
          CFI (cfiCond214) V2 load(1, XDATA, add(CFA_XSP16, literal(-18)))
          CFI (cfiCond214) V3 load(1, XDATA, add(CFA_XSP16, literal(-17)))
          CFI (cfiCond214) V4 load(1, XDATA, add(CFA_XSP16, literal(-16)))
          CFI (cfiCond214) V5 load(1, XDATA, add(CFA_XSP16, literal(-15)))
          CFI (cfiCond214) V6 load(1, XDATA, add(CFA_XSP16, literal(-14)))
          CFI (cfiCond214) V7 load(1, XDATA, add(CFA_XSP16, literal(-13)))
          CFI (cfiCond214) V8 load(1, XDATA, add(CFA_XSP16, literal(-12)))
          CFI (cfiCond214) V9 load(1, XDATA, add(CFA_XSP16, literal(-11)))
          CFI (cfiCond214) V10 load(1, XDATA, add(CFA_XSP16, literal(-10)))
          CFI (cfiCond214) V11 load(1, XDATA, add(CFA_XSP16, literal(-9)))
          CFI (cfiCond214) V12 load(1, XDATA, add(CFA_XSP16, literal(-8)))
          CFI (cfiCond214) V13 load(1, XDATA, add(CFA_XSP16, literal(-7)))
          CFI (cfiCond214) R7 load(1, XDATA, add(CFA_XSP16, literal(-6)))
          CFI (cfiCond214) ?RET_LOW load(1, XDATA, add(CFA_XSP16, literal(-5)))
          CFI (cfiCond214) ?RET_HIGH load(1, XDATA, add(CFA_XSP16, literal(-4)))
          CFI (cfiCond214) ?BRET_EXT load(1, XDATA, add(CFA_XSP16, literal(-3)))
          CFI (cfiCond214) DPL0 load(1, XDATA, add(CFA_XSP16, literal(-2)))
          CFI (cfiCond214) DPH0 load(1, XDATA, add(CFA_XSP16, literal(-1)))
          CFI (cfiCond214) CFA_SP SP+0
          CFI (cfiCond214) CFA_XSP16 add(XSP16, 36)
          CFI Block cfiCond215 Using cfiCommon0
          CFI (cfiCond215) Function MT_AfDataRequest
          CFI (cfiCond215) Conditional ??CrossCallReturnLabel_117, ??CrossCallReturnLabel_87
          CFI (cfiCond215) R6 load(1, XDATA, add(CFA_XSP16, literal(-22)))
          CFI (cfiCond215) VB load(1, XDATA, add(CFA_XSP16, literal(-21)))
          CFI (cfiCond215) V0 load(1, XDATA, add(CFA_XSP16, literal(-20)))
          CFI (cfiCond215) V1 load(1, XDATA, add(CFA_XSP16, literal(-19)))
          CFI (cfiCond215) V2 load(1, XDATA, add(CFA_XSP16, literal(-18)))
          CFI (cfiCond215) V3 load(1, XDATA, add(CFA_XSP16, literal(-17)))
          CFI (cfiCond215) V4 load(1, XDATA, add(CFA_XSP16, literal(-16)))
          CFI (cfiCond215) V5 load(1, XDATA, add(CFA_XSP16, literal(-15)))
          CFI (cfiCond215) V6 load(1, XDATA, add(CFA_XSP16, literal(-14)))
          CFI (cfiCond215) V7 load(1, XDATA, add(CFA_XSP16, literal(-13)))
          CFI (cfiCond215) V8 load(1, XDATA, add(CFA_XSP16, literal(-12)))
          CFI (cfiCond215) V9 load(1, XDATA, add(CFA_XSP16, literal(-11)))
          CFI (cfiCond215) V10 load(1, XDATA, add(CFA_XSP16, literal(-10)))
          CFI (cfiCond215) V11 load(1, XDATA, add(CFA_XSP16, literal(-9)))
          CFI (cfiCond215) V12 load(1, XDATA, add(CFA_XSP16, literal(-8)))
          CFI (cfiCond215) V13 load(1, XDATA, add(CFA_XSP16, literal(-7)))
          CFI (cfiCond215) R7 load(1, XDATA, add(CFA_XSP16, literal(-6)))
          CFI (cfiCond215) ?RET_LOW load(1, XDATA, add(CFA_XSP16, literal(-5)))
          CFI (cfiCond215) ?RET_HIGH load(1, XDATA, add(CFA_XSP16, literal(-4)))
          CFI (cfiCond215) ?BRET_EXT load(1, XDATA, add(CFA_XSP16, literal(-3)))
          CFI (cfiCond215) DPL0 load(1, XDATA, add(CFA_XSP16, literal(-2)))
          CFI (cfiCond215) DPH0 load(1, XDATA, add(CFA_XSP16, literal(-1)))
          CFI (cfiCond215) CFA_SP SP+0
          CFI (cfiCond215) CFA_XSP16 add(XSP16, 36)
          CFI Block cfiCond216 Using cfiCommon0
          CFI (cfiCond216) Function MT_AfDataStore
          CFI (cfiCond216) Conditional ??CrossCallReturnLabel_117, ??CrossCallReturnLabel_88
          CFI (cfiCond216) R6 load(1, XDATA, add(CFA_XSP16, literal(-14)))
          CFI (cfiCond216) VB load(1, XDATA, add(CFA_XSP16, literal(-13)))
          CFI (cfiCond216) V0 load(1, XDATA, add(CFA_XSP16, literal(-12)))
          CFI (cfiCond216) V1 load(1, XDATA, add(CFA_XSP16, literal(-11)))
          CFI (cfiCond216) V2 load(1, XDATA, add(CFA_XSP16, literal(-10)))
          CFI (cfiCond216) V3 load(1, XDATA, add(CFA_XSP16, literal(-9)))
          CFI (cfiCond216) V4 load(1, XDATA, add(CFA_XSP16, literal(-8)))
          CFI (cfiCond216) V5 load(1, XDATA, add(CFA_XSP16, literal(-7)))
          CFI (cfiCond216) R7 load(1, XDATA, add(CFA_XSP16, literal(-6)))
          CFI (cfiCond216) ?RET_LOW load(1, XDATA, add(CFA_XSP16, literal(-5)))
          CFI (cfiCond216) ?RET_HIGH load(1, XDATA, add(CFA_XSP16, literal(-4)))
          CFI (cfiCond216) ?BRET_EXT load(1, XDATA, add(CFA_XSP16, literal(-3)))
          CFI (cfiCond216) DPL0 load(1, XDATA, add(CFA_XSP16, literal(-2)))
          CFI (cfiCond216) DPH0 load(1, XDATA, add(CFA_XSP16, literal(-1)))
          CFI (cfiCond216) CFA_SP SP+0
          CFI (cfiCond216) CFA_XSP16 add(XSP16, 15)
          CFI Block cfiCond217 Using cfiCommon0
          CFI (cfiCond217) Function MT_AfExec
          CFI (cfiCond217) Conditional ??CrossCallReturnLabel_117, ??CrossCallReturnLabel_83
          CFI (cfiCond217) R6 load(1, XDATA, add(CFA_XSP16, literal(-9)))
          CFI (cfiCond217) VB load(1, XDATA, add(CFA_XSP16, literal(-8)))
          CFI (cfiCond217) V0 load(1, XDATA, add(CFA_XSP16, literal(-7)))
          CFI (cfiCond217) R7 load(1, XDATA, add(CFA_XSP16, literal(-6)))
          CFI (cfiCond217) ?RET_LOW load(1, XDATA, add(CFA_XSP16, literal(-5)))
          CFI (cfiCond217) ?RET_HIGH load(1, XDATA, add(CFA_XSP16, literal(-4)))
          CFI (cfiCond217) ?BRET_EXT load(1, XDATA, add(CFA_XSP16, literal(-3)))
          CFI (cfiCond217) DPL0 load(1, XDATA, add(CFA_XSP16, literal(-2)))
          CFI (cfiCond217) DPH0 load(1, XDATA, add(CFA_XSP16, literal(-1)))
          CFI (cfiCond217) CFA_SP SP+0
          CFI (cfiCond217) CFA_XSP16 add(XSP16, 9)
          CFI Block cfiCond218 Using cfiCommon0
          CFI (cfiCond218) Function MT_AfExec
          CFI (cfiCond218) Conditional ??CrossCallReturnLabel_114, ??CrossCallReturnLabel_22
          CFI (cfiCond218) R6 load(1, XDATA, add(CFA_XSP16, literal(-9)))
          CFI (cfiCond218) VB load(1, XDATA, add(CFA_XSP16, literal(-8)))
          CFI (cfiCond218) V0 load(1, XDATA, add(CFA_XSP16, literal(-7)))
          CFI (cfiCond218) R7 load(1, XDATA, add(CFA_XSP16, literal(-6)))
          CFI (cfiCond218) ?RET_LOW load(1, XDATA, add(CFA_XSP16, literal(-5)))
          CFI (cfiCond218) ?RET_HIGH load(1, XDATA, add(CFA_XSP16, literal(-4)))
          CFI (cfiCond218) ?BRET_EXT load(1, XDATA, add(CFA_XSP16, literal(-3)))
          CFI (cfiCond218) DPL0 load(1, XDATA, add(CFA_XSP16, literal(-2)))
          CFI (cfiCond218) DPH0 load(1, XDATA, add(CFA_XSP16, literal(-1)))
          CFI (cfiCond218) CFA_SP SP+0
          CFI (cfiCond218) CFA_XSP16 add(XSP16, 9)
          CFI Block cfiCond219 Using cfiCommon0
          CFI (cfiCond219) Function MT_AfDataRetrieve
          CFI (cfiCond219) Conditional ??CrossCallReturnLabel_114, ??CrossCallReturnLabel_23
          CFI (cfiCond219) R6 load(1, XDATA, add(CFA_XSP16, literal(-20)))
          CFI (cfiCond219) VB load(1, XDATA, add(CFA_XSP16, literal(-19)))
          CFI (cfiCond219) V0 load(1, XDATA, add(CFA_XSP16, literal(-18)))
          CFI (cfiCond219) V1 load(1, XDATA, add(CFA_XSP16, literal(-17)))
          CFI (cfiCond219) V2 load(1, XDATA, add(CFA_XSP16, literal(-16)))
          CFI (cfiCond219) V3 load(1, XDATA, add(CFA_XSP16, literal(-15)))
          CFI (cfiCond219) V4 load(1, XDATA, add(CFA_XSP16, literal(-14)))
          CFI (cfiCond219) V5 load(1, XDATA, add(CFA_XSP16, literal(-13)))
          CFI (cfiCond219) V6 load(1, XDATA, add(CFA_XSP16, literal(-12)))
          CFI (cfiCond219) V7 load(1, XDATA, add(CFA_XSP16, literal(-11)))
          CFI (cfiCond219) V8 load(1, XDATA, add(CFA_XSP16, literal(-10)))
          CFI (cfiCond219) V9 load(1, XDATA, add(CFA_XSP16, literal(-9)))
          CFI (cfiCond219) V10 load(1, XDATA, add(CFA_XSP16, literal(-8)))
          CFI (cfiCond219) V11 load(1, XDATA, add(CFA_XSP16, literal(-7)))
          CFI (cfiCond219) R7 load(1, XDATA, add(CFA_XSP16, literal(-6)))
          CFI (cfiCond219) ?RET_LOW load(1, XDATA, add(CFA_XSP16, literal(-5)))
          CFI (cfiCond219) ?RET_HIGH load(1, XDATA, add(CFA_XSP16, literal(-4)))
          CFI (cfiCond219) ?BRET_EXT load(1, XDATA, add(CFA_XSP16, literal(-3)))
          CFI (cfiCond219) DPL0 load(1, XDATA, add(CFA_XSP16, literal(-2)))
          CFI (cfiCond219) DPH0 load(1, XDATA, add(CFA_XSP16, literal(-1)))
          CFI (cfiCond219) CFA_SP SP+0
          CFI (cfiCond219) CFA_XSP16 add(XSP16, 20)
          CFI Block cfiCond220 Using cfiCommon0
          CFI (cfiCond220) Function MT_AfExec
          CFI (cfiCond220) Conditional ??CrossCallReturnLabel_115
          CFI (cfiCond220) R6 load(1, XDATA, add(CFA_XSP16, literal(-9)))
          CFI (cfiCond220) VB load(1, XDATA, add(CFA_XSP16, literal(-8)))
          CFI (cfiCond220) V0 load(1, XDATA, add(CFA_XSP16, literal(-7)))
          CFI (cfiCond220) R7 load(1, XDATA, add(CFA_XSP16, literal(-6)))
          CFI (cfiCond220) ?RET_LOW load(1, XDATA, add(CFA_XSP16, literal(-5)))
          CFI (cfiCond220) ?RET_HIGH load(1, XDATA, add(CFA_XSP16, literal(-4)))
          CFI (cfiCond220) ?BRET_EXT load(1, XDATA, add(CFA_XSP16, literal(-3)))
          CFI (cfiCond220) DPL0 load(1, XDATA, add(CFA_XSP16, literal(-2)))
          CFI (cfiCond220) DPH0 load(1, XDATA, add(CFA_XSP16, literal(-1)))
          CFI (cfiCond220) CFA_SP SP+0
          CFI (cfiCond220) CFA_XSP16 add(XSP16, 9)
          CFI Block cfiCond221 Using cfiCommon0
          CFI (cfiCond221) Function MT_AfIncomingMsg
          CFI (cfiCond221) Conditional ??CrossCallReturnLabel_116
          CFI (cfiCond221) R6 load(1, XDATA, add(CFA_XSP16, literal(-24)))
          CFI (cfiCond221) VB load(1, XDATA, add(CFA_XSP16, literal(-23)))
          CFI (cfiCond221) V0 load(1, XDATA, add(CFA_XSP16, literal(-22)))
          CFI (cfiCond221) V1 load(1, XDATA, add(CFA_XSP16, literal(-21)))
          CFI (cfiCond221) V2 load(1, XDATA, add(CFA_XSP16, literal(-20)))
          CFI (cfiCond221) V3 load(1, XDATA, add(CFA_XSP16, literal(-19)))
          CFI (cfiCond221) V4 load(1, XDATA, add(CFA_XSP16, literal(-18)))
          CFI (cfiCond221) V5 load(1, XDATA, add(CFA_XSP16, literal(-17)))
          CFI (cfiCond221) V6 load(1, XDATA, add(CFA_XSP16, literal(-16)))
          CFI (cfiCond221) V7 load(1, XDATA, add(CFA_XSP16, literal(-15)))
          CFI (cfiCond221) V8 load(1, XDATA, add(CFA_XSP16, literal(-14)))
          CFI (cfiCond221) V9 load(1, XDATA, add(CFA_XSP16, literal(-13)))
          CFI (cfiCond221) V10 load(1, XDATA, add(CFA_XSP16, literal(-12)))
          CFI (cfiCond221) V11 load(1, XDATA, add(CFA_XSP16, literal(-11)))
          CFI (cfiCond221) V12 load(1, XDATA, add(CFA_XSP16, literal(-10)))
          CFI (cfiCond221) V13 load(1, XDATA, add(CFA_XSP16, literal(-9)))
          CFI (cfiCond221) V14 load(1, XDATA, add(CFA_XSP16, literal(-8)))
          CFI (cfiCond221) V15 load(1, XDATA, add(CFA_XSP16, literal(-7)))
          CFI (cfiCond221) R7 load(1, XDATA, add(CFA_XSP16, literal(-6)))
          CFI (cfiCond221) ?RET_LOW load(1, XDATA, add(CFA_XSP16, literal(-5)))
          CFI (cfiCond221) ?RET_HIGH load(1, XDATA, add(CFA_XSP16, literal(-4)))
          CFI (cfiCond221) ?BRET_EXT load(1, XDATA, add(CFA_XSP16, literal(-3)))
          CFI (cfiCond221) DPL0 load(1, XDATA, add(CFA_XSP16, literal(-2)))
          CFI (cfiCond221) DPH0 load(1, XDATA, add(CFA_XSP16, literal(-1)))
          CFI (cfiCond221) CFA_SP SP+0
          CFI (cfiCond221) CFA_XSP16 add(XSP16, 25)
          CFI Block cfiPicker222 Using cfiCommon1
          CFI (cfiPicker222) NoFunction
          CFI (cfiPicker222) Picker
        MOVX    A,@DPTR
        MOV     R0,A
        INC     DPTR
        MOVX    A,@DPTR
        MOV     R1,A
        RET
          CFI EndBlock cfiCond211
          CFI EndBlock cfiCond212
          CFI EndBlock cfiCond213
          CFI EndBlock cfiCond214
          CFI EndBlock cfiCond215
          CFI EndBlock cfiCond216
          CFI EndBlock cfiCond217
          CFI EndBlock cfiCond218
          CFI EndBlock cfiCond219
          CFI EndBlock cfiCond220
          CFI EndBlock cfiCond221
          CFI EndBlock cfiPicker222

        RSEG BANKED_CODE:CODE:NOROOT(0)
?Subroutine13:
          CFI Block cfiCond223 Using cfiCommon0
          CFI Function MT_AfExec
          CFI Conditional ??CrossCallReturnLabel_121
          CFI R6 load(1, XDATA, add(CFA_XSP16, literal(-9)))
          CFI VB load(1, XDATA, add(CFA_XSP16, literal(-8)))
          CFI V0 load(1, XDATA, add(CFA_XSP16, literal(-7)))
          CFI R7 load(1, XDATA, add(CFA_XSP16, literal(-6)))
          CFI ?RET_LOW load(1, XDATA, add(CFA_XSP16, literal(-5)))
          CFI ?RET_HIGH load(1, XDATA, add(CFA_XSP16, literal(-4)))
          CFI ?BRET_EXT load(1, XDATA, add(CFA_XSP16, literal(-3)))
          CFI DPL0 load(1, XDATA, add(CFA_XSP16, literal(-2)))
          CFI DPH0 load(1, XDATA, add(CFA_XSP16, literal(-1)))
          CFI CFA_SP SP+0
          CFI CFA_XSP16 add(XSP16, 9)
          CFI Block cfiCond224 Using cfiCommon0
          CFI (cfiCond224) Function MT_AfDataStore
          CFI (cfiCond224) Conditional ??CrossCallReturnLabel_122
          CFI (cfiCond224) R6 load(1, XDATA, add(CFA_XSP16, literal(-14)))
          CFI (cfiCond224) VB load(1, XDATA, add(CFA_XSP16, literal(-13)))
          CFI (cfiCond224) V0 load(1, XDATA, add(CFA_XSP16, literal(-12)))
          CFI (cfiCond224) V1 load(1, XDATA, add(CFA_XSP16, literal(-11)))
          CFI (cfiCond224) V2 load(1, XDATA, add(CFA_XSP16, literal(-10)))
          CFI (cfiCond224) V3 load(1, XDATA, add(CFA_XSP16, literal(-9)))
          CFI (cfiCond224) V4 load(1, XDATA, add(CFA_XSP16, literal(-8)))
          CFI (cfiCond224) V5 load(1, XDATA, add(CFA_XSP16, literal(-7)))
          CFI (cfiCond224) R7 load(1, XDATA, add(CFA_XSP16, literal(-6)))
          CFI (cfiCond224) ?RET_LOW load(1, XDATA, add(CFA_XSP16, literal(-5)))
          CFI (cfiCond224) ?RET_HIGH load(1, XDATA, add(CFA_XSP16, literal(-4)))
          CFI (cfiCond224) ?BRET_EXT load(1, XDATA, add(CFA_XSP16, literal(-3)))
          CFI (cfiCond224) DPL0 load(1, XDATA, add(CFA_XSP16, literal(-2)))
          CFI (cfiCond224) DPH0 load(1, XDATA, add(CFA_XSP16, literal(-1)))
          CFI (cfiCond224) CFA_SP SP+0
          CFI (cfiCond224) CFA_XSP16 add(XSP16, 15)
          CFI Block cfiPicker225 Using cfiCommon1
          CFI (cfiPicker225) NoFunction
          CFI (cfiPicker225) Picker
        MOV     DPTR,#pMtAfDataReq
          CFI EndBlock cfiCond223
          CFI EndBlock cfiCond224
          CFI EndBlock cfiPicker225
        REQUIRE ??Subroutine52_0
        ; // Fall through to label ??Subroutine52_0

        RSEG BANKED_CODE:CODE:NOROOT(0)
??Subroutine52_0:
          CFI Block cfiCond226 Using cfiCommon0
          CFI Function MT_AfExec
          CFI Conditional ??CrossCallReturnLabel_118
          CFI R6 load(1, XDATA, add(CFA_XSP16, literal(-9)))
          CFI VB load(1, XDATA, add(CFA_XSP16, literal(-8)))
          CFI V0 load(1, XDATA, add(CFA_XSP16, literal(-7)))
          CFI R7 load(1, XDATA, add(CFA_XSP16, literal(-6)))
          CFI ?RET_LOW load(1, XDATA, add(CFA_XSP16, literal(-5)))
          CFI ?RET_HIGH load(1, XDATA, add(CFA_XSP16, literal(-4)))
          CFI ?BRET_EXT load(1, XDATA, add(CFA_XSP16, literal(-3)))
          CFI DPL0 load(1, XDATA, add(CFA_XSP16, literal(-2)))
          CFI DPH0 load(1, XDATA, add(CFA_XSP16, literal(-1)))
          CFI CFA_SP SP+0
          CFI CFA_XSP16 add(XSP16, 9)
          CFI Block cfiCond227 Using cfiCommon0
          CFI (cfiCond227) Function MT_AfIncomingMsg
          CFI (cfiCond227) Conditional ??CrossCallReturnLabel_119
          CFI (cfiCond227) R6 load(1, XDATA, add(CFA_XSP16, literal(-24)))
          CFI (cfiCond227) VB load(1, XDATA, add(CFA_XSP16, literal(-23)))
          CFI (cfiCond227) V0 load(1, XDATA, add(CFA_XSP16, literal(-22)))
          CFI (cfiCond227) V1 load(1, XDATA, add(CFA_XSP16, literal(-21)))
          CFI (cfiCond227) V2 load(1, XDATA, add(CFA_XSP16, literal(-20)))
          CFI (cfiCond227) V3 load(1, XDATA, add(CFA_XSP16, literal(-19)))
          CFI (cfiCond227) V4 load(1, XDATA, add(CFA_XSP16, literal(-18)))
          CFI (cfiCond227) V5 load(1, XDATA, add(CFA_XSP16, literal(-17)))
          CFI (cfiCond227) V6 load(1, XDATA, add(CFA_XSP16, literal(-16)))
          CFI (cfiCond227) V7 load(1, XDATA, add(CFA_XSP16, literal(-15)))
          CFI (cfiCond227) V8 load(1, XDATA, add(CFA_XSP16, literal(-14)))
          CFI (cfiCond227) V9 load(1, XDATA, add(CFA_XSP16, literal(-13)))
          CFI (cfiCond227) V10 load(1, XDATA, add(CFA_XSP16, literal(-12)))
          CFI (cfiCond227) V11 load(1, XDATA, add(CFA_XSP16, literal(-11)))
          CFI (cfiCond227) V12 load(1, XDATA, add(CFA_XSP16, literal(-10)))
          CFI (cfiCond227) V13 load(1, XDATA, add(CFA_XSP16, literal(-9)))
          CFI (cfiCond227) V14 load(1, XDATA, add(CFA_XSP16, literal(-8)))
          CFI (cfiCond227) V15 load(1, XDATA, add(CFA_XSP16, literal(-7)))
          CFI (cfiCond227) R7 load(1, XDATA, add(CFA_XSP16, literal(-6)))
          CFI (cfiCond227) ?RET_LOW load(1, XDATA, add(CFA_XSP16, literal(-5)))
          CFI (cfiCond227) ?RET_HIGH load(1, XDATA, add(CFA_XSP16, literal(-4)))
          CFI (cfiCond227) ?BRET_EXT load(1, XDATA, add(CFA_XSP16, literal(-3)))
          CFI (cfiCond227) DPL0 load(1, XDATA, add(CFA_XSP16, literal(-2)))
          CFI (cfiCond227) DPH0 load(1, XDATA, add(CFA_XSP16, literal(-1)))
          CFI (cfiCond227) CFA_SP SP+0
          CFI (cfiCond227) CFA_XSP16 add(XSP16, 28)
          CFI Block cfiCond228 Using cfiCommon0
          CFI (cfiCond228) Function MT_AfDataRetrieve
          CFI (cfiCond228) Conditional ??CrossCallReturnLabel_120
          CFI (cfiCond228) R6 load(1, XDATA, add(CFA_XSP16, literal(-20)))
          CFI (cfiCond228) VB load(1, XDATA, add(CFA_XSP16, literal(-19)))
          CFI (cfiCond228) V0 load(1, XDATA, add(CFA_XSP16, literal(-18)))
          CFI (cfiCond228) V1 load(1, XDATA, add(CFA_XSP16, literal(-17)))
          CFI (cfiCond228) V2 load(1, XDATA, add(CFA_XSP16, literal(-16)))
          CFI (cfiCond228) V3 load(1, XDATA, add(CFA_XSP16, literal(-15)))
          CFI (cfiCond228) V4 load(1, XDATA, add(CFA_XSP16, literal(-14)))
          CFI (cfiCond228) V5 load(1, XDATA, add(CFA_XSP16, literal(-13)))
          CFI (cfiCond228) V6 load(1, XDATA, add(CFA_XSP16, literal(-12)))
          CFI (cfiCond228) V7 load(1, XDATA, add(CFA_XSP16, literal(-11)))
          CFI (cfiCond228) V8 load(1, XDATA, add(CFA_XSP16, literal(-10)))
          CFI (cfiCond228) V9 load(1, XDATA, add(CFA_XSP16, literal(-9)))
          CFI (cfiCond228) V10 load(1, XDATA, add(CFA_XSP16, literal(-8)))
          CFI (cfiCond228) V11 load(1, XDATA, add(CFA_XSP16, literal(-7)))
          CFI (cfiCond228) R7 load(1, XDATA, add(CFA_XSP16, literal(-6)))
          CFI (cfiCond228) ?RET_LOW load(1, XDATA, add(CFA_XSP16, literal(-5)))
          CFI (cfiCond228) ?RET_HIGH load(1, XDATA, add(CFA_XSP16, literal(-4)))
          CFI (cfiCond228) ?BRET_EXT load(1, XDATA, add(CFA_XSP16, literal(-3)))
          CFI (cfiCond228) DPL0 load(1, XDATA, add(CFA_XSP16, literal(-2)))
          CFI (cfiCond228) DPH0 load(1, XDATA, add(CFA_XSP16, literal(-1)))
          CFI (cfiCond228) CFA_SP SP+0
          CFI (cfiCond228) CFA_XSP16 add(XSP16, 20)
          CFI Block cfiCond229 Using cfiCommon0
          CFI (cfiCond229) Function MT_AfExec
          CFI (cfiCond229) Conditional ??CrossCallReturnLabel_121
          CFI (cfiCond229) R6 load(1, XDATA, add(CFA_XSP16, literal(-9)))
          CFI (cfiCond229) VB load(1, XDATA, add(CFA_XSP16, literal(-8)))
          CFI (cfiCond229) V0 load(1, XDATA, add(CFA_XSP16, literal(-7)))
          CFI (cfiCond229) R7 load(1, XDATA, add(CFA_XSP16, literal(-6)))
          CFI (cfiCond229) ?RET_LOW load(1, XDATA, add(CFA_XSP16, literal(-5)))
          CFI (cfiCond229) ?RET_HIGH load(1, XDATA, add(CFA_XSP16, literal(-4)))
          CFI (cfiCond229) ?BRET_EXT load(1, XDATA, add(CFA_XSP16, literal(-3)))
          CFI (cfiCond229) DPL0 load(1, XDATA, add(CFA_XSP16, literal(-2)))
          CFI (cfiCond229) DPH0 load(1, XDATA, add(CFA_XSP16, literal(-1)))
          CFI (cfiCond229) CFA_SP SP+0
          CFI (cfiCond229) CFA_XSP16 add(XSP16, 9)
          CFI Block cfiCond230 Using cfiCommon0
          CFI (cfiCond230) Function MT_AfDataStore
          CFI (cfiCond230) Conditional ??CrossCallReturnLabel_122
          CFI (cfiCond230) R6 load(1, XDATA, add(CFA_XSP16, literal(-14)))
          CFI (cfiCond230) VB load(1, XDATA, add(CFA_XSP16, literal(-13)))
          CFI (cfiCond230) V0 load(1, XDATA, add(CFA_XSP16, literal(-12)))
          CFI (cfiCond230) V1 load(1, XDATA, add(CFA_XSP16, literal(-11)))
          CFI (cfiCond230) V2 load(1, XDATA, add(CFA_XSP16, literal(-10)))
          CFI (cfiCond230) V3 load(1, XDATA, add(CFA_XSP16, literal(-9)))
          CFI (cfiCond230) V4 load(1, XDATA, add(CFA_XSP16, literal(-8)))
          CFI (cfiCond230) V5 load(1, XDATA, add(CFA_XSP16, literal(-7)))
          CFI (cfiCond230) R7 load(1, XDATA, add(CFA_XSP16, literal(-6)))
          CFI (cfiCond230) ?RET_LOW load(1, XDATA, add(CFA_XSP16, literal(-5)))
          CFI (cfiCond230) ?RET_HIGH load(1, XDATA, add(CFA_XSP16, literal(-4)))
          CFI (cfiCond230) ?BRET_EXT load(1, XDATA, add(CFA_XSP16, literal(-3)))
          CFI (cfiCond230) DPL0 load(1, XDATA, add(CFA_XSP16, literal(-2)))
          CFI (cfiCond230) DPH0 load(1, XDATA, add(CFA_XSP16, literal(-1)))
          CFI (cfiCond230) CFA_SP SP+0
          CFI (cfiCond230) CFA_XSP16 add(XSP16, 15)
          CFI Block cfiPicker231 Using cfiCommon1
          CFI (cfiPicker231) NoFunction
          CFI (cfiPicker231) Picker
        MOVX    A,@DPTR
        MOV     R2,A
        INC     DPTR
        MOVX    A,@DPTR
        MOV     R3,A
        RET
          CFI EndBlock cfiCond226
          CFI EndBlock cfiCond227
          CFI EndBlock cfiCond228
          CFI EndBlock cfiCond229
          CFI EndBlock cfiCond230
          CFI EndBlock cfiPicker231
//  842 
//  843 /**************************************************************************************************
//  844  * @fn          MT_AfDataStore
//  845  *
//  846  * @brief   Process AF Data Store command to incrementally store the data buffer for very large
//  847  *          outgoing AF message.
//  848  *
//  849  * input parameters
//  850  *
//  851  * @param pBuf - pointer to the received buffer
//  852  *
//  853  * output parameters
//  854  *
//  855  * @param rtrn - AF-Status of the operation.
//  856  *
//  857  * @return      None.
//  858  **************************************************************************************************
//  859  */

        RSEG BANKED_CODE:CODE:NOROOT(0)
//  860 void MT_AfDataStore(uint8 *pBuf)
MT_AfDataStore:
          CFI Block cfiBlock232 Using cfiCommon0
          CFI Function MT_AfDataStore
        CODE
//  861 {
        FUNCALL MT_AfDataStore, AF_DataRequest
        LOCFRAME ISTACK, 0, STACK
        LOCFRAME PSTACK, 0, STACK
        LOCFRAME XSTACK, 24, STACK
        LOCFRAME IOVERLAY, 0, STATIC
        LOCFRAME DOVERLAY, 0, STATIC
        ARGFRAME ISTACK, 0, STACK
        ARGFRAME PSTACK, 0, STACK
        ARGFRAME XSTACK, 24, STACK
        ARGFRAME IOVERLAY, 0, STATIC
        ARGFRAME DOVERLAY, 0, STATIC
        FUNCALL MT_AfDataStore, osal_mem_free
        LOCFRAME ISTACK, 0, STACK
        LOCFRAME PSTACK, 0, STACK
        LOCFRAME XSTACK, 15, STACK
        LOCFRAME IOVERLAY, 0, STATIC
        LOCFRAME DOVERLAY, 0, STATIC
        ARGFRAME ISTACK, 0, STACK
        ARGFRAME PSTACK, 0, STACK
        ARGFRAME XSTACK, 15, STACK
        ARGFRAME IOVERLAY, 0, STATIC
        ARGFRAME DOVERLAY, 0, STATIC
        FUNCALL MT_AfDataStore, osal_memcpy
        LOCFRAME ISTACK, 0, STACK
        LOCFRAME PSTACK, 0, STACK
        LOCFRAME XSTACK, 18, STACK
        LOCFRAME IOVERLAY, 0, STATIC
        LOCFRAME DOVERLAY, 0, STATIC
        ARGFRAME ISTACK, 0, STACK
        ARGFRAME PSTACK, 0, STACK
        ARGFRAME XSTACK, 18, STACK
        ARGFRAME IOVERLAY, 0, STATIC
        ARGFRAME DOVERLAY, 0, STATIC
        FUNCALL MT_AfDataStore, MT_BuildAndSendZToolResponse
        LOCFRAME ISTACK, 0, STACK
        LOCFRAME PSTACK, 0, STACK
        LOCFRAME XSTACK, 15, STACK
        LOCFRAME IOVERLAY, 0, STATIC
        LOCFRAME DOVERLAY, 0, STATIC
        ARGFRAME ISTACK, 0, STACK
        ARGFRAME PSTACK, 0, STACK
        ARGFRAME XSTACK, 15, STACK
        ARGFRAME IOVERLAY, 0, STATIC
        ARGFRAME DOVERLAY, 0, STATIC
        MOV     A,#-0xe
        LCALL   ?BANKED_ENTER_XDATA
          CFI DPH0 load(1, XDATA, add(CFA_XSP16, literal(-1)))
          CFI DPL0 load(1, XDATA, add(CFA_XSP16, literal(-2)))
          CFI ?BRET_EXT load(1, XDATA, add(CFA_XSP16, literal(-3)))
          CFI ?RET_HIGH load(1, XDATA, add(CFA_XSP16, literal(-4)))
          CFI ?RET_LOW load(1, XDATA, add(CFA_XSP16, literal(-5)))
          CFI R7 load(1, XDATA, add(CFA_XSP16, literal(-6)))
          CFI V5 load(1, XDATA, add(CFA_XSP16, literal(-7)))
          CFI V4 load(1, XDATA, add(CFA_XSP16, literal(-8)))
          CFI V3 load(1, XDATA, add(CFA_XSP16, literal(-9)))
          CFI V2 load(1, XDATA, add(CFA_XSP16, literal(-10)))
          CFI V1 load(1, XDATA, add(CFA_XSP16, literal(-11)))
          CFI V0 load(1, XDATA, add(CFA_XSP16, literal(-12)))
          CFI VB load(1, XDATA, add(CFA_XSP16, literal(-13)))
          CFI R6 load(1, XDATA, add(CFA_XSP16, literal(-14)))
          CFI CFA_SP SP+0
          CFI CFA_XSP16 add(XSP16, 14)
        ; Saved register size: 14
        ; Auto size: 1
        MOV     A,#-0x1
        LCALL   ?ALLOC_XSTACK8
          CFI CFA_XSP16 add(XSP16, 15)
//  862   uint16 idx;
//  863   uint8 len, rtrn = afStatus_FAILED;
        MOV     DPL,?XSP + 0
        MOV     DPH,?XSP + 1
        MOV     A,#0x1
        MOVX    @DPTR,A
//  864 
//  865   pBuf += MT_RPC_FRAME_HDR_SZ;
        MOV     A,R2
        ADD     A,#0x3
        MOV     R2,A
        MOV     A,R3
        ADDC    A,#0x0
        MOV     R3,A
//  866   idx = BUILD_UINT16(pBuf[0], pBuf[1]);
        MOV     DPL,R2
        MOV     DPH,R3
        MOVX    A,@DPTR
        MOV     R4,A
        INC     DPTR
        MOVX    A,@DPTR
        MOV     R1,A
        MOV     A,R4
        ADD     A,#0x0
        MOV     R6,A
        CLR     A
        ADDC    A,R1
        MOV     R7,A
//  867   len = pBuf[2];
        MOV     DPL,R2
        MOV     DPH,R3
        INC     DPTR
        INC     DPTR
        MOVX    A,@DPTR
        MOV     R4,A
//  868   pBuf += 3;
        MOV     A,R2
        ADD     A,#0x3
        MOV     R2,A
        MOV     A,R3
        ADDC    A,#0x0
        MOV     R3,A
//  869 
//  870   if (pMtAfDataReq == NULL)
        LCALL   ?Subroutine4 & 0xFFFF
??CrossCallReturnLabel_88:
        JNZ     ??MT_AfDataStore_0
//  871   {
//  872     rtrn = afStatus_MEM_FAIL;
        MOV     DPL,?XSP + 0
        MOV     DPH,?XSP + 1
        MOV     A,#0x10
        LJMP    ??MT_AfDataStore_1 & 0xFFFF
//  873   }
//  874   else if (len == 0)  // Indication to send the message.
??MT_AfDataStore_0:
        LCALL   ?Subroutine19 & 0xFFFF
??CrossCallReturnLabel_25:
        LCALL   ?Subroutine37 & 0xFFFF
??CrossCallReturnLabel_57:
        MOV     A,R4
        JNZ     ??MT_AfDataStore_2
//  875   {
//  876     rtrn = AF_DataRequest(&(pMtAfDataReq->dstAddr), pMtAfDataReq->epDesc, pMtAfDataReq->cId,
//  877                             pMtAfDataReq->dataLen,  pMtAfDataReq->data,
//  878                           &(pMtAfDataReq->transId), pMtAfDataReq->txOpts, pMtAfDataReq->radius);
        ; Setup parameters for call to function AF_DataRequest
        MOV     DPTR,#pMtAfDataReq + 1
        LCALL   ?Subroutine14 & 0xFFFF
??CrossCallReturnLabel_17:
        MOVX    A,@DPTR
        MOV     ?V0 + 0,A
        MOV     R0,#?V0 + 0
        LCALL   ?PUSH_XSTACK_I_ONE
          CFI CFA_XSP16 add(XSP16, 16)
        MOV     DPTR,#pMtAfDataReq
        MOVX    A,@DPTR
        ADD     A,#0x14
        MOV     ?V0 + 0,A
        INC     DPTR
        MOVX    A,@DPTR
        ADDC    A,#0x0
        MOV     ?V0 + 1,A
        MOV     R0,#?V0 + 0
        LCALL   ?PUSH_XSTACK_I_TWO
          CFI CFA_XSP16 add(XSP16, 18)
        MOV     R0,#?V0 + 4
        LCALL   ?PUSH_XSTACK_I_TWO
          CFI CFA_XSP16 add(XSP16, 20)
        LCALL   ?Subroutine10 & 0xFFFF
??CrossCallReturnLabel_13:
        LCALL   ?PUSH_XSTACK8_X_TWO
          CFI CFA_XSP16 add(XSP16, 22)
        LCALL   ?Subroutine9 & 0xFFFF
??CrossCallReturnLabel_11:
        LCALL   ?PUSH_XSTACK8_X_TWO
          CFI CFA_XSP16 add(XSP16, 24)
        LCALL   ?Subroutine11 & 0xFFFF
??CrossCallReturnLabel_15:
        MOVX    A,@DPTR
        MOV     R1,A
        LCALL   ?Subroutine8 & 0xFFFF
??CrossCallReturnLabel_9:
        MOVX    A,@DPTR
        MOV     R4,A
        INC     DPTR
        MOVX    A,@DPTR
        MOV     R5,A
        LCALL   ?Subroutine17 & 0xFFFF
??CrossCallReturnLabel_21:
        LCALL   ??AF_DataRequest?relay
        MOV     A,#0x9
        LCALL   ?DEALLOC_XSTACK8
          CFI CFA_XSP16 add(XSP16, 15)
        MOV     A,R1
        MOV     DPL,?XSP + 0
        MOV     DPH,?XSP + 1
        MOVX    @DPTR,A
//  879     (void)osal_mem_free(pMtAfDataReq);
        ; Setup parameters for call to function osal_mem_free
        LCALL   ?Subroutine13 & 0xFFFF
??CrossCallReturnLabel_122:
        LCALL   ??osal_mem_free?relay
//  880     pMtAfDataReq = NULL;
        MOV     DPTR,#pMtAfDataReq
        CLR     A
        MOVX    @DPTR,A
        INC     DPTR
        SJMP    ??MT_AfDataStore_1
//  881   }
//  882   else
//  883   {
//  884     (void)osal_memcpy(pMtAfDataReq->data+idx, pBuf, len);
??MT_AfDataStore_2:
        ; Setup parameters for call to function osal_memcpy
        MOV     ?V0 + 0,R2
        MOV     ?V0 + 1,R3
        MOV     ?V0 + 2,#0x0
        MOV     R0,#?V0 + 0
        LCALL   ?PUSH_XSTACK_I_THREE
          CFI CFA_XSP16 add(XSP16, 18)
        MOV     R5,#0x0
        MOV     A,?V0 + 4
        ADD     A,R6
        MOV     R2,A
        MOV     A,?V0 + 5
        ADDC    A,R7
        MOV     R3,A
        LCALL   ??osal_memcpy?relay
        MOV     A,#0x3
        LCALL   ?DEALLOC_XSTACK8
          CFI CFA_XSP16 add(XSP16, 15)
//  885     rtrn = afStatus_SUCCESS;
        MOV     DPL,?XSP + 0
        MOV     DPH,?XSP + 1
        CLR     A
//  886   }
??MT_AfDataStore_1:
        LCALL   ?Subroutine26 & 0xFFFF
//  887 
//  888   MT_BuildAndSendZToolResponse(((uint8)MT_RPC_CMD_SRSP | (uint8)MT_RPC_SYS_AF),
//  889                                                                 MT_AF_DATA_STORE, 1, &rtrn);
??CrossCallReturnLabel_40:
        MOV     R3,#0x1
        MOV     R2,#0x11
        LJMP    ?Subroutine1 & 0xFFFF
          CFI EndBlock cfiBlock232
//  890 }

        RSEG BANKED_CODE:CODE:NOROOT(0)
?Subroutine26:
          CFI Block cfiCond233 Using cfiCommon0
          CFI Function MT_AfDataConfirm
          CFI Conditional ??CrossCallReturnLabel_39
          CFI DPL0 Frame(CFA_SP, 4)
          CFI DPH0 Frame(CFA_SP, 5)
          CFI CFA_SP SP+-5
          CFI CFA_XSP16 add(XSP16, 3)
          CFI Block cfiCond234 Using cfiCommon0
          CFI (cfiCond234) Function MT_AfDataStore
          CFI (cfiCond234) Conditional ??CrossCallReturnLabel_40
          CFI (cfiCond234) R6 load(1, XDATA, add(CFA_XSP16, literal(-14)))
          CFI (cfiCond234) VB load(1, XDATA, add(CFA_XSP16, literal(-13)))
          CFI (cfiCond234) V0 load(1, XDATA, add(CFA_XSP16, literal(-12)))
          CFI (cfiCond234) V1 load(1, XDATA, add(CFA_XSP16, literal(-11)))
          CFI (cfiCond234) V2 load(1, XDATA, add(CFA_XSP16, literal(-10)))
          CFI (cfiCond234) V3 load(1, XDATA, add(CFA_XSP16, literal(-9)))
          CFI (cfiCond234) V4 load(1, XDATA, add(CFA_XSP16, literal(-8)))
          CFI (cfiCond234) V5 load(1, XDATA, add(CFA_XSP16, literal(-7)))
          CFI (cfiCond234) R7 load(1, XDATA, add(CFA_XSP16, literal(-6)))
          CFI (cfiCond234) ?RET_LOW load(1, XDATA, add(CFA_XSP16, literal(-5)))
          CFI (cfiCond234) ?RET_HIGH load(1, XDATA, add(CFA_XSP16, literal(-4)))
          CFI (cfiCond234) ?BRET_EXT load(1, XDATA, add(CFA_XSP16, literal(-3)))
          CFI (cfiCond234) DPL0 load(1, XDATA, add(CFA_XSP16, literal(-2)))
          CFI (cfiCond234) DPH0 load(1, XDATA, add(CFA_XSP16, literal(-1)))
          CFI (cfiCond234) CFA_SP SP+0
          CFI (cfiCond234) CFA_XSP16 add(XSP16, 15)
          CFI Block cfiPicker235 Using cfiCommon1
          CFI (cfiPicker235) NoFunction
          CFI (cfiPicker235) Picker
        MOVX    @DPTR,A
        ; Setup parameters for call to function MT_BuildAndSendZToolResponse
        ; Setup parameters for call to function MT_BuildAndSendZToolResponse
        MOV     DPL,?XSP + 0
        MOV     DPH,?XSP + 1
        MOV     R4,DPL
        MOV     R5,DPH
        RET
          CFI EndBlock cfiCond233
          CFI EndBlock cfiCond234
          CFI EndBlock cfiPicker235

        RSEG BANKED_CODE:CODE:NOROOT(0)
?Subroutine19:
          CFI Block cfiCond236 Using cfiCommon0
          CFI Function MT_AfDataRequest
          CFI Conditional ??CrossCallReturnLabel_24
          CFI R6 load(1, XDATA, add(CFA_XSP16, literal(-22)))
          CFI VB load(1, XDATA, add(CFA_XSP16, literal(-21)))
          CFI V0 load(1, XDATA, add(CFA_XSP16, literal(-20)))
          CFI V1 load(1, XDATA, add(CFA_XSP16, literal(-19)))
          CFI V2 load(1, XDATA, add(CFA_XSP16, literal(-18)))
          CFI V3 load(1, XDATA, add(CFA_XSP16, literal(-17)))
          CFI V4 load(1, XDATA, add(CFA_XSP16, literal(-16)))
          CFI V5 load(1, XDATA, add(CFA_XSP16, literal(-15)))
          CFI V6 load(1, XDATA, add(CFA_XSP16, literal(-14)))
          CFI V7 load(1, XDATA, add(CFA_XSP16, literal(-13)))
          CFI V8 load(1, XDATA, add(CFA_XSP16, literal(-12)))
          CFI V9 load(1, XDATA, add(CFA_XSP16, literal(-11)))
          CFI V10 load(1, XDATA, add(CFA_XSP16, literal(-10)))
          CFI V11 load(1, XDATA, add(CFA_XSP16, literal(-9)))
          CFI V12 load(1, XDATA, add(CFA_XSP16, literal(-8)))
          CFI V13 load(1, XDATA, add(CFA_XSP16, literal(-7)))
          CFI R7 load(1, XDATA, add(CFA_XSP16, literal(-6)))
          CFI ?RET_LOW load(1, XDATA, add(CFA_XSP16, literal(-5)))
          CFI ?RET_HIGH load(1, XDATA, add(CFA_XSP16, literal(-4)))
          CFI ?BRET_EXT load(1, XDATA, add(CFA_XSP16, literal(-3)))
          CFI DPL0 load(1, XDATA, add(CFA_XSP16, literal(-2)))
          CFI DPH0 load(1, XDATA, add(CFA_XSP16, literal(-1)))
          CFI CFA_SP SP+0
          CFI CFA_XSP16 add(XSP16, 36)
          CFI Block cfiCond237 Using cfiCommon0
          CFI (cfiCond237) Function MT_AfDataStore
          CFI (cfiCond237) Conditional ??CrossCallReturnLabel_25
          CFI (cfiCond237) R6 load(1, XDATA, add(CFA_XSP16, literal(-14)))
          CFI (cfiCond237) VB load(1, XDATA, add(CFA_XSP16, literal(-13)))
          CFI (cfiCond237) V0 load(1, XDATA, add(CFA_XSP16, literal(-12)))
          CFI (cfiCond237) V1 load(1, XDATA, add(CFA_XSP16, literal(-11)))
          CFI (cfiCond237) V2 load(1, XDATA, add(CFA_XSP16, literal(-10)))
          CFI (cfiCond237) V3 load(1, XDATA, add(CFA_XSP16, literal(-9)))
          CFI (cfiCond237) V4 load(1, XDATA, add(CFA_XSP16, literal(-8)))
          CFI (cfiCond237) V5 load(1, XDATA, add(CFA_XSP16, literal(-7)))
          CFI (cfiCond237) R7 load(1, XDATA, add(CFA_XSP16, literal(-6)))
          CFI (cfiCond237) ?RET_LOW load(1, XDATA, add(CFA_XSP16, literal(-5)))
          CFI (cfiCond237) ?RET_HIGH load(1, XDATA, add(CFA_XSP16, literal(-4)))
          CFI (cfiCond237) ?BRET_EXT load(1, XDATA, add(CFA_XSP16, literal(-3)))
          CFI (cfiCond237) DPL0 load(1, XDATA, add(CFA_XSP16, literal(-2)))
          CFI (cfiCond237) DPH0 load(1, XDATA, add(CFA_XSP16, literal(-1)))
          CFI (cfiCond237) CFA_SP SP+0
          CFI (cfiCond237) CFA_XSP16 add(XSP16, 15)
          CFI Block cfiPicker238 Using cfiCommon1
          CFI (cfiPicker238) NoFunction
          CFI (cfiPicker238) Picker
        MOV     DPTR,#pMtAfDataReq
        MOVX    A,@DPTR
        MOV     R0,A
        INC     DPTR
        MOVX    A,@DPTR
        MOV     DPH,A
        MOV     DPL,R0
        RET
          CFI EndBlock cfiCond236
          CFI EndBlock cfiCond237
          CFI EndBlock cfiPicker238

        RSEG BANKED_CODE:CODE:NOROOT(0)
?Subroutine17:
          CFI Block cfiCond239 Using cfiCommon0
          CFI Function MT_AfDataRequest
          CFI Conditional ??CrossCallReturnLabel_20
          CFI R6 load(1, XDATA, add(CFA_XSP16, literal(-22)))
          CFI VB load(1, XDATA, add(CFA_XSP16, literal(-21)))
          CFI V0 load(1, XDATA, add(CFA_XSP16, literal(-20)))
          CFI V1 load(1, XDATA, add(CFA_XSP16, literal(-19)))
          CFI V2 load(1, XDATA, add(CFA_XSP16, literal(-18)))
          CFI V3 load(1, XDATA, add(CFA_XSP16, literal(-17)))
          CFI V4 load(1, XDATA, add(CFA_XSP16, literal(-16)))
          CFI V5 load(1, XDATA, add(CFA_XSP16, literal(-15)))
          CFI V6 load(1, XDATA, add(CFA_XSP16, literal(-14)))
          CFI V7 load(1, XDATA, add(CFA_XSP16, literal(-13)))
          CFI V8 load(1, XDATA, add(CFA_XSP16, literal(-12)))
          CFI V9 load(1, XDATA, add(CFA_XSP16, literal(-11)))
          CFI V10 load(1, XDATA, add(CFA_XSP16, literal(-10)))
          CFI V11 load(1, XDATA, add(CFA_XSP16, literal(-9)))
          CFI V12 load(1, XDATA, add(CFA_XSP16, literal(-8)))
          CFI V13 load(1, XDATA, add(CFA_XSP16, literal(-7)))
          CFI R7 load(1, XDATA, add(CFA_XSP16, literal(-6)))
          CFI ?RET_LOW load(1, XDATA, add(CFA_XSP16, literal(-5)))
          CFI ?RET_HIGH load(1, XDATA, add(CFA_XSP16, literal(-4)))
          CFI ?BRET_EXT load(1, XDATA, add(CFA_XSP16, literal(-3)))
          CFI DPL0 load(1, XDATA, add(CFA_XSP16, literal(-2)))
          CFI DPH0 load(1, XDATA, add(CFA_XSP16, literal(-1)))
          CFI CFA_SP SP+0
          CFI CFA_XSP16 add(XSP16, 39)
          CFI Block cfiCond240 Using cfiCommon0
          CFI (cfiCond240) Function MT_AfDataStore
          CFI (cfiCond240) Conditional ??CrossCallReturnLabel_21
          CFI (cfiCond240) R6 load(1, XDATA, add(CFA_XSP16, literal(-14)))
          CFI (cfiCond240) VB load(1, XDATA, add(CFA_XSP16, literal(-13)))
          CFI (cfiCond240) V0 load(1, XDATA, add(CFA_XSP16, literal(-12)))
          CFI (cfiCond240) V1 load(1, XDATA, add(CFA_XSP16, literal(-11)))
          CFI (cfiCond240) V2 load(1, XDATA, add(CFA_XSP16, literal(-10)))
          CFI (cfiCond240) V3 load(1, XDATA, add(CFA_XSP16, literal(-9)))
          CFI (cfiCond240) V4 load(1, XDATA, add(CFA_XSP16, literal(-8)))
          CFI (cfiCond240) V5 load(1, XDATA, add(CFA_XSP16, literal(-7)))
          CFI (cfiCond240) R7 load(1, XDATA, add(CFA_XSP16, literal(-6)))
          CFI (cfiCond240) ?RET_LOW load(1, XDATA, add(CFA_XSP16, literal(-5)))
          CFI (cfiCond240) ?RET_HIGH load(1, XDATA, add(CFA_XSP16, literal(-4)))
          CFI (cfiCond240) ?BRET_EXT load(1, XDATA, add(CFA_XSP16, literal(-3)))
          CFI (cfiCond240) DPL0 load(1, XDATA, add(CFA_XSP16, literal(-2)))
          CFI (cfiCond240) DPH0 load(1, XDATA, add(CFA_XSP16, literal(-1)))
          CFI (cfiCond240) CFA_SP SP+0
          CFI (cfiCond240) CFA_XSP16 add(XSP16, 24)
          CFI Block cfiPicker241 Using cfiCommon1
          CFI (cfiPicker241) NoFunction
          CFI (cfiPicker241) Picker
        MOV     DPTR,#pMtAfDataReq
        MOVX    A,@DPTR
        ADD     A,#0x2
        MOV     R2,A
        INC     DPTR
        MOVX    A,@DPTR
        ADDC    A,#0x0
        MOV     R3,A
        RET
          CFI EndBlock cfiCond239
          CFI EndBlock cfiCond240
          CFI EndBlock cfiPicker241

        RSEG BANKED_CODE:CODE:NOROOT(0)
?Subroutine14:
          CFI Block cfiCond242 Using cfiCommon0
          CFI Function MT_AfDataRequest
          CFI Conditional ??CrossCallReturnLabel_16
          CFI R6 load(1, XDATA, add(CFA_XSP16, literal(-22)))
          CFI VB load(1, XDATA, add(CFA_XSP16, literal(-21)))
          CFI V0 load(1, XDATA, add(CFA_XSP16, literal(-20)))
          CFI V1 load(1, XDATA, add(CFA_XSP16, literal(-19)))
          CFI V2 load(1, XDATA, add(CFA_XSP16, literal(-18)))
          CFI V3 load(1, XDATA, add(CFA_XSP16, literal(-17)))
          CFI V4 load(1, XDATA, add(CFA_XSP16, literal(-16)))
          CFI V5 load(1, XDATA, add(CFA_XSP16, literal(-15)))
          CFI V6 load(1, XDATA, add(CFA_XSP16, literal(-14)))
          CFI V7 load(1, XDATA, add(CFA_XSP16, literal(-13)))
          CFI V8 load(1, XDATA, add(CFA_XSP16, literal(-12)))
          CFI V9 load(1, XDATA, add(CFA_XSP16, literal(-11)))
          CFI V10 load(1, XDATA, add(CFA_XSP16, literal(-10)))
          CFI V11 load(1, XDATA, add(CFA_XSP16, literal(-9)))
          CFI V12 load(1, XDATA, add(CFA_XSP16, literal(-8)))
          CFI V13 load(1, XDATA, add(CFA_XSP16, literal(-7)))
          CFI R7 load(1, XDATA, add(CFA_XSP16, literal(-6)))
          CFI ?RET_LOW load(1, XDATA, add(CFA_XSP16, literal(-5)))
          CFI ?RET_HIGH load(1, XDATA, add(CFA_XSP16, literal(-4)))
          CFI ?BRET_EXT load(1, XDATA, add(CFA_XSP16, literal(-3)))
          CFI DPL0 load(1, XDATA, add(CFA_XSP16, literal(-2)))
          CFI DPH0 load(1, XDATA, add(CFA_XSP16, literal(-1)))
          CFI CFA_SP SP+0
          CFI CFA_XSP16 add(XSP16, 36)
          CFI Block cfiCond243 Using cfiCommon0
          CFI (cfiCond243) Function MT_AfDataStore
          CFI (cfiCond243) Conditional ??CrossCallReturnLabel_17
          CFI (cfiCond243) R6 load(1, XDATA, add(CFA_XSP16, literal(-14)))
          CFI (cfiCond243) VB load(1, XDATA, add(CFA_XSP16, literal(-13)))
          CFI (cfiCond243) V0 load(1, XDATA, add(CFA_XSP16, literal(-12)))
          CFI (cfiCond243) V1 load(1, XDATA, add(CFA_XSP16, literal(-11)))
          CFI (cfiCond243) V2 load(1, XDATA, add(CFA_XSP16, literal(-10)))
          CFI (cfiCond243) V3 load(1, XDATA, add(CFA_XSP16, literal(-9)))
          CFI (cfiCond243) V4 load(1, XDATA, add(CFA_XSP16, literal(-8)))
          CFI (cfiCond243) V5 load(1, XDATA, add(CFA_XSP16, literal(-7)))
          CFI (cfiCond243) R7 load(1, XDATA, add(CFA_XSP16, literal(-6)))
          CFI (cfiCond243) ?RET_LOW load(1, XDATA, add(CFA_XSP16, literal(-5)))
          CFI (cfiCond243) ?RET_HIGH load(1, XDATA, add(CFA_XSP16, literal(-4)))
          CFI (cfiCond243) ?BRET_EXT load(1, XDATA, add(CFA_XSP16, literal(-3)))
          CFI (cfiCond243) DPL0 load(1, XDATA, add(CFA_XSP16, literal(-2)))
          CFI (cfiCond243) DPH0 load(1, XDATA, add(CFA_XSP16, literal(-1)))
          CFI (cfiCond243) CFA_SP SP+0
          CFI (cfiCond243) CFA_XSP16 add(XSP16, 15)
          CFI Block cfiPicker244 Using cfiCommon1
          CFI (cfiPicker244) NoFunction
          CFI (cfiPicker244) Picker
        MOVX    A,@DPTR
        XCH     A,R0
        ADD     A,#0x16
        LCALL   ??Subroutine43_0 & 0xFFFF
??CrossCallReturnLabel_80:
        RET
          CFI EndBlock cfiCond242
          CFI EndBlock cfiCond243
          CFI EndBlock cfiPicker244

        RSEG BANKED_CODE:CODE:NOROOT(0)
?Subroutine11:
          CFI Block cfiCond245 Using cfiCommon0
          CFI Function MT_AfDataRequest
          CFI Conditional ??CrossCallReturnLabel_14
          CFI R6 load(1, XDATA, add(CFA_XSP16, literal(-22)))
          CFI VB load(1, XDATA, add(CFA_XSP16, literal(-21)))
          CFI V0 load(1, XDATA, add(CFA_XSP16, literal(-20)))
          CFI V1 load(1, XDATA, add(CFA_XSP16, literal(-19)))
          CFI V2 load(1, XDATA, add(CFA_XSP16, literal(-18)))
          CFI V3 load(1, XDATA, add(CFA_XSP16, literal(-17)))
          CFI V4 load(1, XDATA, add(CFA_XSP16, literal(-16)))
          CFI V5 load(1, XDATA, add(CFA_XSP16, literal(-15)))
          CFI V6 load(1, XDATA, add(CFA_XSP16, literal(-14)))
          CFI V7 load(1, XDATA, add(CFA_XSP16, literal(-13)))
          CFI V8 load(1, XDATA, add(CFA_XSP16, literal(-12)))
          CFI V9 load(1, XDATA, add(CFA_XSP16, literal(-11)))
          CFI V10 load(1, XDATA, add(CFA_XSP16, literal(-10)))
          CFI V11 load(1, XDATA, add(CFA_XSP16, literal(-9)))
          CFI V12 load(1, XDATA, add(CFA_XSP16, literal(-8)))
          CFI V13 load(1, XDATA, add(CFA_XSP16, literal(-7)))
          CFI R7 load(1, XDATA, add(CFA_XSP16, literal(-6)))
          CFI ?RET_LOW load(1, XDATA, add(CFA_XSP16, literal(-5)))
          CFI ?RET_HIGH load(1, XDATA, add(CFA_XSP16, literal(-4)))
          CFI ?BRET_EXT load(1, XDATA, add(CFA_XSP16, literal(-3)))
          CFI DPL0 load(1, XDATA, add(CFA_XSP16, literal(-2)))
          CFI DPH0 load(1, XDATA, add(CFA_XSP16, literal(-1)))
          CFI CFA_SP SP+0
          CFI CFA_XSP16 add(XSP16, 36)
          CFI Block cfiCond246 Using cfiCommon0
          CFI (cfiCond246) Function MT_AfDataStore
          CFI (cfiCond246) Conditional ??CrossCallReturnLabel_15
          CFI (cfiCond246) R6 load(1, XDATA, add(CFA_XSP16, literal(-14)))
          CFI (cfiCond246) VB load(1, XDATA, add(CFA_XSP16, literal(-13)))
          CFI (cfiCond246) V0 load(1, XDATA, add(CFA_XSP16, literal(-12)))
          CFI (cfiCond246) V1 load(1, XDATA, add(CFA_XSP16, literal(-11)))
          CFI (cfiCond246) V2 load(1, XDATA, add(CFA_XSP16, literal(-10)))
          CFI (cfiCond246) V3 load(1, XDATA, add(CFA_XSP16, literal(-9)))
          CFI (cfiCond246) V4 load(1, XDATA, add(CFA_XSP16, literal(-8)))
          CFI (cfiCond246) V5 load(1, XDATA, add(CFA_XSP16, literal(-7)))
          CFI (cfiCond246) R7 load(1, XDATA, add(CFA_XSP16, literal(-6)))
          CFI (cfiCond246) ?RET_LOW load(1, XDATA, add(CFA_XSP16, literal(-5)))
          CFI (cfiCond246) ?RET_HIGH load(1, XDATA, add(CFA_XSP16, literal(-4)))
          CFI (cfiCond246) ?BRET_EXT load(1, XDATA, add(CFA_XSP16, literal(-3)))
          CFI (cfiCond246) DPL0 load(1, XDATA, add(CFA_XSP16, literal(-2)))
          CFI (cfiCond246) DPH0 load(1, XDATA, add(CFA_XSP16, literal(-1)))
          CFI (cfiCond246) CFA_SP SP+0
          CFI (cfiCond246) CFA_XSP16 add(XSP16, 24)
          CFI Block cfiPicker247 Using cfiCommon1
          CFI (cfiPicker247) NoFunction
          CFI (cfiPicker247) Picker
        LCALL   ?Subroutine38 & 0xFFFF
??CrossCallReturnLabel_63:
        ADD     A,#0x15
        LCALL   ??Subroutine43_0 & 0xFFFF
??CrossCallReturnLabel_79:
        RET
          CFI EndBlock cfiCond245
          CFI EndBlock cfiCond246
          CFI EndBlock cfiPicker247

        RSEG BANKED_CODE:CODE:NOROOT(0)
?Subroutine10:
          CFI Block cfiCond248 Using cfiCommon0
          CFI Function MT_AfDataRequest
          CFI Conditional ??CrossCallReturnLabel_12
          CFI R6 load(1, XDATA, add(CFA_XSP16, literal(-22)))
          CFI VB load(1, XDATA, add(CFA_XSP16, literal(-21)))
          CFI V0 load(1, XDATA, add(CFA_XSP16, literal(-20)))
          CFI V1 load(1, XDATA, add(CFA_XSP16, literal(-19)))
          CFI V2 load(1, XDATA, add(CFA_XSP16, literal(-18)))
          CFI V3 load(1, XDATA, add(CFA_XSP16, literal(-17)))
          CFI V4 load(1, XDATA, add(CFA_XSP16, literal(-16)))
          CFI V5 load(1, XDATA, add(CFA_XSP16, literal(-15)))
          CFI V6 load(1, XDATA, add(CFA_XSP16, literal(-14)))
          CFI V7 load(1, XDATA, add(CFA_XSP16, literal(-13)))
          CFI V8 load(1, XDATA, add(CFA_XSP16, literal(-12)))
          CFI V9 load(1, XDATA, add(CFA_XSP16, literal(-11)))
          CFI V10 load(1, XDATA, add(CFA_XSP16, literal(-10)))
          CFI V11 load(1, XDATA, add(CFA_XSP16, literal(-9)))
          CFI V12 load(1, XDATA, add(CFA_XSP16, literal(-8)))
          CFI V13 load(1, XDATA, add(CFA_XSP16, literal(-7)))
          CFI R7 load(1, XDATA, add(CFA_XSP16, literal(-6)))
          CFI ?RET_LOW load(1, XDATA, add(CFA_XSP16, literal(-5)))
          CFI ?RET_HIGH load(1, XDATA, add(CFA_XSP16, literal(-4)))
          CFI ?BRET_EXT load(1, XDATA, add(CFA_XSP16, literal(-3)))
          CFI DPL0 load(1, XDATA, add(CFA_XSP16, literal(-2)))
          CFI DPH0 load(1, XDATA, add(CFA_XSP16, literal(-1)))
          CFI CFA_SP SP+0
          CFI CFA_XSP16 add(XSP16, 36)
          CFI Block cfiCond249 Using cfiCommon0
          CFI (cfiCond249) Function MT_AfDataStore
          CFI (cfiCond249) Conditional ??CrossCallReturnLabel_13
          CFI (cfiCond249) R6 load(1, XDATA, add(CFA_XSP16, literal(-14)))
          CFI (cfiCond249) VB load(1, XDATA, add(CFA_XSP16, literal(-13)))
          CFI (cfiCond249) V0 load(1, XDATA, add(CFA_XSP16, literal(-12)))
          CFI (cfiCond249) V1 load(1, XDATA, add(CFA_XSP16, literal(-11)))
          CFI (cfiCond249) V2 load(1, XDATA, add(CFA_XSP16, literal(-10)))
          CFI (cfiCond249) V3 load(1, XDATA, add(CFA_XSP16, literal(-9)))
          CFI (cfiCond249) V4 load(1, XDATA, add(CFA_XSP16, literal(-8)))
          CFI (cfiCond249) V5 load(1, XDATA, add(CFA_XSP16, literal(-7)))
          CFI (cfiCond249) R7 load(1, XDATA, add(CFA_XSP16, literal(-6)))
          CFI (cfiCond249) ?RET_LOW load(1, XDATA, add(CFA_XSP16, literal(-5)))
          CFI (cfiCond249) ?RET_HIGH load(1, XDATA, add(CFA_XSP16, literal(-4)))
          CFI (cfiCond249) ?BRET_EXT load(1, XDATA, add(CFA_XSP16, literal(-3)))
          CFI (cfiCond249) DPL0 load(1, XDATA, add(CFA_XSP16, literal(-2)))
          CFI (cfiCond249) DPH0 load(1, XDATA, add(CFA_XSP16, literal(-1)))
          CFI (cfiCond249) CFA_SP SP+0
          CFI (cfiCond249) CFA_XSP16 add(XSP16, 20)
          CFI Block cfiPicker250 Using cfiCommon1
          CFI (cfiPicker250) NoFunction
          CFI (cfiPicker250) Picker
        LCALL   ?Subroutine38 & 0xFFFF
??CrossCallReturnLabel_62:
        ADD     A,#0x12
        LCALL   ??Subroutine43_0 & 0xFFFF
??CrossCallReturnLabel_78:
        RET
          CFI EndBlock cfiCond248
          CFI EndBlock cfiCond249
          CFI EndBlock cfiPicker250

        RSEG BANKED_CODE:CODE:NOROOT(0)
?Subroutine38:
          CFI Block cfiCond251 Using cfiCommon0
          CFI Function MT_AfDataRequest
          CFI Conditional ??CrossCallReturnLabel_59
          CFI R6 load(1, XDATA, add(CFA_XSP16, literal(-22)))
          CFI VB load(1, XDATA, add(CFA_XSP16, literal(-21)))
          CFI V0 load(1, XDATA, add(CFA_XSP16, literal(-20)))
          CFI V1 load(1, XDATA, add(CFA_XSP16, literal(-19)))
          CFI V2 load(1, XDATA, add(CFA_XSP16, literal(-18)))
          CFI V3 load(1, XDATA, add(CFA_XSP16, literal(-17)))
          CFI V4 load(1, XDATA, add(CFA_XSP16, literal(-16)))
          CFI V5 load(1, XDATA, add(CFA_XSP16, literal(-15)))
          CFI V6 load(1, XDATA, add(CFA_XSP16, literal(-14)))
          CFI V7 load(1, XDATA, add(CFA_XSP16, literal(-13)))
          CFI V8 load(1, XDATA, add(CFA_XSP16, literal(-12)))
          CFI V9 load(1, XDATA, add(CFA_XSP16, literal(-11)))
          CFI V10 load(1, XDATA, add(CFA_XSP16, literal(-10)))
          CFI V11 load(1, XDATA, add(CFA_XSP16, literal(-9)))
          CFI V12 load(1, XDATA, add(CFA_XSP16, literal(-8)))
          CFI V13 load(1, XDATA, add(CFA_XSP16, literal(-7)))
          CFI R7 load(1, XDATA, add(CFA_XSP16, literal(-6)))
          CFI ?RET_LOW load(1, XDATA, add(CFA_XSP16, literal(-5)))
          CFI ?RET_HIGH load(1, XDATA, add(CFA_XSP16, literal(-4)))
          CFI ?BRET_EXT load(1, XDATA, add(CFA_XSP16, literal(-3)))
          CFI DPL0 load(1, XDATA, add(CFA_XSP16, literal(-2)))
          CFI DPH0 load(1, XDATA, add(CFA_XSP16, literal(-1)))
          CFI CFA_SP SP+-1
          CFI CFA_XSP16 add(XSP16, 36)
          CFI Block cfiCond252 Using cfiCommon0
          CFI (cfiCond252) Function MT_AfDataRequest
          CFI (cfiCond252) Conditional ??CrossCallReturnLabel_63, ??CrossCallReturnLabel_14
          CFI (cfiCond252) R6 load(1, XDATA, add(CFA_XSP16, literal(-22)))
          CFI (cfiCond252) VB load(1, XDATA, add(CFA_XSP16, literal(-21)))
          CFI (cfiCond252) V0 load(1, XDATA, add(CFA_XSP16, literal(-20)))
          CFI (cfiCond252) V1 load(1, XDATA, add(CFA_XSP16, literal(-19)))
          CFI (cfiCond252) V2 load(1, XDATA, add(CFA_XSP16, literal(-18)))
          CFI (cfiCond252) V3 load(1, XDATA, add(CFA_XSP16, literal(-17)))
          CFI (cfiCond252) V4 load(1, XDATA, add(CFA_XSP16, literal(-16)))
          CFI (cfiCond252) V5 load(1, XDATA, add(CFA_XSP16, literal(-15)))
          CFI (cfiCond252) V6 load(1, XDATA, add(CFA_XSP16, literal(-14)))
          CFI (cfiCond252) V7 load(1, XDATA, add(CFA_XSP16, literal(-13)))
          CFI (cfiCond252) V8 load(1, XDATA, add(CFA_XSP16, literal(-12)))
          CFI (cfiCond252) V9 load(1, XDATA, add(CFA_XSP16, literal(-11)))
          CFI (cfiCond252) V10 load(1, XDATA, add(CFA_XSP16, literal(-10)))
          CFI (cfiCond252) V11 load(1, XDATA, add(CFA_XSP16, literal(-9)))
          CFI (cfiCond252) V12 load(1, XDATA, add(CFA_XSP16, literal(-8)))
          CFI (cfiCond252) V13 load(1, XDATA, add(CFA_XSP16, literal(-7)))
          CFI (cfiCond252) R7 load(1, XDATA, add(CFA_XSP16, literal(-6)))
          CFI (cfiCond252) ?RET_LOW load(1, XDATA, add(CFA_XSP16, literal(-5)))
          CFI (cfiCond252) ?RET_HIGH load(1, XDATA, add(CFA_XSP16, literal(-4)))
          CFI (cfiCond252) ?BRET_EXT load(1, XDATA, add(CFA_XSP16, literal(-3)))
          CFI (cfiCond252) DPL0 load(1, XDATA, add(CFA_XSP16, literal(-2)))
          CFI (cfiCond252) DPH0 load(1, XDATA, add(CFA_XSP16, literal(-1)))
          CFI (cfiCond252) CFA_SP SP+0
          CFI (cfiCond252) CFA_XSP16 add(XSP16, 36)
          CFI Block cfiCond253 Using cfiCommon0
          CFI (cfiCond253) Function MT_AfDataStore
          CFI (cfiCond253) Conditional ??CrossCallReturnLabel_63, ??CrossCallReturnLabel_15
          CFI (cfiCond253) R6 load(1, XDATA, add(CFA_XSP16, literal(-14)))
          CFI (cfiCond253) VB load(1, XDATA, add(CFA_XSP16, literal(-13)))
          CFI (cfiCond253) V0 load(1, XDATA, add(CFA_XSP16, literal(-12)))
          CFI (cfiCond253) V1 load(1, XDATA, add(CFA_XSP16, literal(-11)))
          CFI (cfiCond253) V2 load(1, XDATA, add(CFA_XSP16, literal(-10)))
          CFI (cfiCond253) V3 load(1, XDATA, add(CFA_XSP16, literal(-9)))
          CFI (cfiCond253) V4 load(1, XDATA, add(CFA_XSP16, literal(-8)))
          CFI (cfiCond253) V5 load(1, XDATA, add(CFA_XSP16, literal(-7)))
          CFI (cfiCond253) R7 load(1, XDATA, add(CFA_XSP16, literal(-6)))
          CFI (cfiCond253) ?RET_LOW load(1, XDATA, add(CFA_XSP16, literal(-5)))
          CFI (cfiCond253) ?RET_HIGH load(1, XDATA, add(CFA_XSP16, literal(-4)))
          CFI (cfiCond253) ?BRET_EXT load(1, XDATA, add(CFA_XSP16, literal(-3)))
          CFI (cfiCond253) DPL0 load(1, XDATA, add(CFA_XSP16, literal(-2)))
          CFI (cfiCond253) DPH0 load(1, XDATA, add(CFA_XSP16, literal(-1)))
          CFI (cfiCond253) CFA_SP SP+0
          CFI (cfiCond253) CFA_XSP16 add(XSP16, 24)
          CFI Block cfiCond254 Using cfiCommon0
          CFI (cfiCond254) Function MT_AfDataRequest
          CFI (cfiCond254) Conditional ??CrossCallReturnLabel_62, ??CrossCallReturnLabel_12
          CFI (cfiCond254) R6 load(1, XDATA, add(CFA_XSP16, literal(-22)))
          CFI (cfiCond254) VB load(1, XDATA, add(CFA_XSP16, literal(-21)))
          CFI (cfiCond254) V0 load(1, XDATA, add(CFA_XSP16, literal(-20)))
          CFI (cfiCond254) V1 load(1, XDATA, add(CFA_XSP16, literal(-19)))
          CFI (cfiCond254) V2 load(1, XDATA, add(CFA_XSP16, literal(-18)))
          CFI (cfiCond254) V3 load(1, XDATA, add(CFA_XSP16, literal(-17)))
          CFI (cfiCond254) V4 load(1, XDATA, add(CFA_XSP16, literal(-16)))
          CFI (cfiCond254) V5 load(1, XDATA, add(CFA_XSP16, literal(-15)))
          CFI (cfiCond254) V6 load(1, XDATA, add(CFA_XSP16, literal(-14)))
          CFI (cfiCond254) V7 load(1, XDATA, add(CFA_XSP16, literal(-13)))
          CFI (cfiCond254) V8 load(1, XDATA, add(CFA_XSP16, literal(-12)))
          CFI (cfiCond254) V9 load(1, XDATA, add(CFA_XSP16, literal(-11)))
          CFI (cfiCond254) V10 load(1, XDATA, add(CFA_XSP16, literal(-10)))
          CFI (cfiCond254) V11 load(1, XDATA, add(CFA_XSP16, literal(-9)))
          CFI (cfiCond254) V12 load(1, XDATA, add(CFA_XSP16, literal(-8)))
          CFI (cfiCond254) V13 load(1, XDATA, add(CFA_XSP16, literal(-7)))
          CFI (cfiCond254) R7 load(1, XDATA, add(CFA_XSP16, literal(-6)))
          CFI (cfiCond254) ?RET_LOW load(1, XDATA, add(CFA_XSP16, literal(-5)))
          CFI (cfiCond254) ?RET_HIGH load(1, XDATA, add(CFA_XSP16, literal(-4)))
          CFI (cfiCond254) ?BRET_EXT load(1, XDATA, add(CFA_XSP16, literal(-3)))
          CFI (cfiCond254) DPL0 load(1, XDATA, add(CFA_XSP16, literal(-2)))
          CFI (cfiCond254) DPH0 load(1, XDATA, add(CFA_XSP16, literal(-1)))
          CFI (cfiCond254) CFA_SP SP+0
          CFI (cfiCond254) CFA_XSP16 add(XSP16, 36)
          CFI Block cfiCond255 Using cfiCommon0
          CFI (cfiCond255) Function MT_AfDataStore
          CFI (cfiCond255) Conditional ??CrossCallReturnLabel_62, ??CrossCallReturnLabel_13
          CFI (cfiCond255) R6 load(1, XDATA, add(CFA_XSP16, literal(-14)))
          CFI (cfiCond255) VB load(1, XDATA, add(CFA_XSP16, literal(-13)))
          CFI (cfiCond255) V0 load(1, XDATA, add(CFA_XSP16, literal(-12)))
          CFI (cfiCond255) V1 load(1, XDATA, add(CFA_XSP16, literal(-11)))
          CFI (cfiCond255) V2 load(1, XDATA, add(CFA_XSP16, literal(-10)))
          CFI (cfiCond255) V3 load(1, XDATA, add(CFA_XSP16, literal(-9)))
          CFI (cfiCond255) V4 load(1, XDATA, add(CFA_XSP16, literal(-8)))
          CFI (cfiCond255) V5 load(1, XDATA, add(CFA_XSP16, literal(-7)))
          CFI (cfiCond255) R7 load(1, XDATA, add(CFA_XSP16, literal(-6)))
          CFI (cfiCond255) ?RET_LOW load(1, XDATA, add(CFA_XSP16, literal(-5)))
          CFI (cfiCond255) ?RET_HIGH load(1, XDATA, add(CFA_XSP16, literal(-4)))
          CFI (cfiCond255) ?BRET_EXT load(1, XDATA, add(CFA_XSP16, literal(-3)))
          CFI (cfiCond255) DPL0 load(1, XDATA, add(CFA_XSP16, literal(-2)))
          CFI (cfiCond255) DPH0 load(1, XDATA, add(CFA_XSP16, literal(-1)))
          CFI (cfiCond255) CFA_SP SP+0
          CFI (cfiCond255) CFA_XSP16 add(XSP16, 20)
          CFI Block cfiCond256 Using cfiCommon0
          CFI (cfiCond256) Function MT_AfDataRequest
          CFI (cfiCond256) Conditional ??CrossCallReturnLabel_61, ??CrossCallReturnLabel_10
          CFI (cfiCond256) R6 load(1, XDATA, add(CFA_XSP16, literal(-22)))
          CFI (cfiCond256) VB load(1, XDATA, add(CFA_XSP16, literal(-21)))
          CFI (cfiCond256) V0 load(1, XDATA, add(CFA_XSP16, literal(-20)))
          CFI (cfiCond256) V1 load(1, XDATA, add(CFA_XSP16, literal(-19)))
          CFI (cfiCond256) V2 load(1, XDATA, add(CFA_XSP16, literal(-18)))
          CFI (cfiCond256) V3 load(1, XDATA, add(CFA_XSP16, literal(-17)))
          CFI (cfiCond256) V4 load(1, XDATA, add(CFA_XSP16, literal(-16)))
          CFI (cfiCond256) V5 load(1, XDATA, add(CFA_XSP16, literal(-15)))
          CFI (cfiCond256) V6 load(1, XDATA, add(CFA_XSP16, literal(-14)))
          CFI (cfiCond256) V7 load(1, XDATA, add(CFA_XSP16, literal(-13)))
          CFI (cfiCond256) V8 load(1, XDATA, add(CFA_XSP16, literal(-12)))
          CFI (cfiCond256) V9 load(1, XDATA, add(CFA_XSP16, literal(-11)))
          CFI (cfiCond256) V10 load(1, XDATA, add(CFA_XSP16, literal(-10)))
          CFI (cfiCond256) V11 load(1, XDATA, add(CFA_XSP16, literal(-9)))
          CFI (cfiCond256) V12 load(1, XDATA, add(CFA_XSP16, literal(-8)))
          CFI (cfiCond256) V13 load(1, XDATA, add(CFA_XSP16, literal(-7)))
          CFI (cfiCond256) R7 load(1, XDATA, add(CFA_XSP16, literal(-6)))
          CFI (cfiCond256) ?RET_LOW load(1, XDATA, add(CFA_XSP16, literal(-5)))
          CFI (cfiCond256) ?RET_HIGH load(1, XDATA, add(CFA_XSP16, literal(-4)))
          CFI (cfiCond256) ?BRET_EXT load(1, XDATA, add(CFA_XSP16, literal(-3)))
          CFI (cfiCond256) DPL0 load(1, XDATA, add(CFA_XSP16, literal(-2)))
          CFI (cfiCond256) DPH0 load(1, XDATA, add(CFA_XSP16, literal(-1)))
          CFI (cfiCond256) CFA_SP SP+0
          CFI (cfiCond256) CFA_XSP16 add(XSP16, 36)
          CFI Block cfiCond257 Using cfiCommon0
          CFI (cfiCond257) Function MT_AfDataStore
          CFI (cfiCond257) Conditional ??CrossCallReturnLabel_61, ??CrossCallReturnLabel_11
          CFI (cfiCond257) R6 load(1, XDATA, add(CFA_XSP16, literal(-14)))
          CFI (cfiCond257) VB load(1, XDATA, add(CFA_XSP16, literal(-13)))
          CFI (cfiCond257) V0 load(1, XDATA, add(CFA_XSP16, literal(-12)))
          CFI (cfiCond257) V1 load(1, XDATA, add(CFA_XSP16, literal(-11)))
          CFI (cfiCond257) V2 load(1, XDATA, add(CFA_XSP16, literal(-10)))
          CFI (cfiCond257) V3 load(1, XDATA, add(CFA_XSP16, literal(-9)))
          CFI (cfiCond257) V4 load(1, XDATA, add(CFA_XSP16, literal(-8)))
          CFI (cfiCond257) V5 load(1, XDATA, add(CFA_XSP16, literal(-7)))
          CFI (cfiCond257) R7 load(1, XDATA, add(CFA_XSP16, literal(-6)))
          CFI (cfiCond257) ?RET_LOW load(1, XDATA, add(CFA_XSP16, literal(-5)))
          CFI (cfiCond257) ?RET_HIGH load(1, XDATA, add(CFA_XSP16, literal(-4)))
          CFI (cfiCond257) ?BRET_EXT load(1, XDATA, add(CFA_XSP16, literal(-3)))
          CFI (cfiCond257) DPL0 load(1, XDATA, add(CFA_XSP16, literal(-2)))
          CFI (cfiCond257) DPH0 load(1, XDATA, add(CFA_XSP16, literal(-1)))
          CFI (cfiCond257) CFA_SP SP+0
          CFI (cfiCond257) CFA_XSP16 add(XSP16, 22)
          CFI Block cfiCond258 Using cfiCommon0
          CFI (cfiCond258) Function MT_AfDataRequest
          CFI (cfiCond258) Conditional ??CrossCallReturnLabel_60, ??CrossCallReturnLabel_8
          CFI (cfiCond258) R6 load(1, XDATA, add(CFA_XSP16, literal(-22)))
          CFI (cfiCond258) VB load(1, XDATA, add(CFA_XSP16, literal(-21)))
          CFI (cfiCond258) V0 load(1, XDATA, add(CFA_XSP16, literal(-20)))
          CFI (cfiCond258) V1 load(1, XDATA, add(CFA_XSP16, literal(-19)))
          CFI (cfiCond258) V2 load(1, XDATA, add(CFA_XSP16, literal(-18)))
          CFI (cfiCond258) V3 load(1, XDATA, add(CFA_XSP16, literal(-17)))
          CFI (cfiCond258) V4 load(1, XDATA, add(CFA_XSP16, literal(-16)))
          CFI (cfiCond258) V5 load(1, XDATA, add(CFA_XSP16, literal(-15)))
          CFI (cfiCond258) V6 load(1, XDATA, add(CFA_XSP16, literal(-14)))
          CFI (cfiCond258) V7 load(1, XDATA, add(CFA_XSP16, literal(-13)))
          CFI (cfiCond258) V8 load(1, XDATA, add(CFA_XSP16, literal(-12)))
          CFI (cfiCond258) V9 load(1, XDATA, add(CFA_XSP16, literal(-11)))
          CFI (cfiCond258) V10 load(1, XDATA, add(CFA_XSP16, literal(-10)))
          CFI (cfiCond258) V11 load(1, XDATA, add(CFA_XSP16, literal(-9)))
          CFI (cfiCond258) V12 load(1, XDATA, add(CFA_XSP16, literal(-8)))
          CFI (cfiCond258) V13 load(1, XDATA, add(CFA_XSP16, literal(-7)))
          CFI (cfiCond258) R7 load(1, XDATA, add(CFA_XSP16, literal(-6)))
          CFI (cfiCond258) ?RET_LOW load(1, XDATA, add(CFA_XSP16, literal(-5)))
          CFI (cfiCond258) ?RET_HIGH load(1, XDATA, add(CFA_XSP16, literal(-4)))
          CFI (cfiCond258) ?BRET_EXT load(1, XDATA, add(CFA_XSP16, literal(-3)))
          CFI (cfiCond258) DPL0 load(1, XDATA, add(CFA_XSP16, literal(-2)))
          CFI (cfiCond258) DPH0 load(1, XDATA, add(CFA_XSP16, literal(-1)))
          CFI (cfiCond258) CFA_SP SP+0
          CFI (cfiCond258) CFA_XSP16 add(XSP16, 36)
          CFI Block cfiCond259 Using cfiCommon0
          CFI (cfiCond259) Function MT_AfDataStore
          CFI (cfiCond259) Conditional ??CrossCallReturnLabel_60, ??CrossCallReturnLabel_9
          CFI (cfiCond259) R6 load(1, XDATA, add(CFA_XSP16, literal(-14)))
          CFI (cfiCond259) VB load(1, XDATA, add(CFA_XSP16, literal(-13)))
          CFI (cfiCond259) V0 load(1, XDATA, add(CFA_XSP16, literal(-12)))
          CFI (cfiCond259) V1 load(1, XDATA, add(CFA_XSP16, literal(-11)))
          CFI (cfiCond259) V2 load(1, XDATA, add(CFA_XSP16, literal(-10)))
          CFI (cfiCond259) V3 load(1, XDATA, add(CFA_XSP16, literal(-9)))
          CFI (cfiCond259) V4 load(1, XDATA, add(CFA_XSP16, literal(-8)))
          CFI (cfiCond259) V5 load(1, XDATA, add(CFA_XSP16, literal(-7)))
          CFI (cfiCond259) R7 load(1, XDATA, add(CFA_XSP16, literal(-6)))
          CFI (cfiCond259) ?RET_LOW load(1, XDATA, add(CFA_XSP16, literal(-5)))
          CFI (cfiCond259) ?RET_HIGH load(1, XDATA, add(CFA_XSP16, literal(-4)))
          CFI (cfiCond259) ?BRET_EXT load(1, XDATA, add(CFA_XSP16, literal(-3)))
          CFI (cfiCond259) DPL0 load(1, XDATA, add(CFA_XSP16, literal(-2)))
          CFI (cfiCond259) DPH0 load(1, XDATA, add(CFA_XSP16, literal(-1)))
          CFI (cfiCond259) CFA_SP SP+0
          CFI (cfiCond259) CFA_XSP16 add(XSP16, 24)
          CFI Block cfiPicker260 Using cfiCommon1
          CFI (cfiPicker260) NoFunction
          CFI (cfiPicker260) Picker
        MOV     DPTR,#pMtAfDataReq
        MOVX    A,@DPTR
        MOV     R0,A
        INC     DPTR
        MOVX    A,@DPTR
        XCH     A,R0
        RET
          CFI EndBlock cfiCond251
          CFI EndBlock cfiCond252
          CFI EndBlock cfiCond253
          CFI EndBlock cfiCond254
          CFI EndBlock cfiCond255
          CFI EndBlock cfiCond256
          CFI EndBlock cfiCond257
          CFI EndBlock cfiCond258
          CFI EndBlock cfiCond259
          CFI EndBlock cfiPicker260

        RSEG BANKED_CODE:CODE:NOROOT(0)
?Subroutine9:
          CFI Block cfiCond261 Using cfiCommon0
          CFI Function MT_AfDataRequest
          CFI Conditional ??CrossCallReturnLabel_10
          CFI R6 load(1, XDATA, add(CFA_XSP16, literal(-22)))
          CFI VB load(1, XDATA, add(CFA_XSP16, literal(-21)))
          CFI V0 load(1, XDATA, add(CFA_XSP16, literal(-20)))
          CFI V1 load(1, XDATA, add(CFA_XSP16, literal(-19)))
          CFI V2 load(1, XDATA, add(CFA_XSP16, literal(-18)))
          CFI V3 load(1, XDATA, add(CFA_XSP16, literal(-17)))
          CFI V4 load(1, XDATA, add(CFA_XSP16, literal(-16)))
          CFI V5 load(1, XDATA, add(CFA_XSP16, literal(-15)))
          CFI V6 load(1, XDATA, add(CFA_XSP16, literal(-14)))
          CFI V7 load(1, XDATA, add(CFA_XSP16, literal(-13)))
          CFI V8 load(1, XDATA, add(CFA_XSP16, literal(-12)))
          CFI V9 load(1, XDATA, add(CFA_XSP16, literal(-11)))
          CFI V10 load(1, XDATA, add(CFA_XSP16, literal(-10)))
          CFI V11 load(1, XDATA, add(CFA_XSP16, literal(-9)))
          CFI V12 load(1, XDATA, add(CFA_XSP16, literal(-8)))
          CFI V13 load(1, XDATA, add(CFA_XSP16, literal(-7)))
          CFI R7 load(1, XDATA, add(CFA_XSP16, literal(-6)))
          CFI ?RET_LOW load(1, XDATA, add(CFA_XSP16, literal(-5)))
          CFI ?RET_HIGH load(1, XDATA, add(CFA_XSP16, literal(-4)))
          CFI ?BRET_EXT load(1, XDATA, add(CFA_XSP16, literal(-3)))
          CFI DPL0 load(1, XDATA, add(CFA_XSP16, literal(-2)))
          CFI DPH0 load(1, XDATA, add(CFA_XSP16, literal(-1)))
          CFI CFA_SP SP+0
          CFI CFA_XSP16 add(XSP16, 36)
          CFI Block cfiCond262 Using cfiCommon0
          CFI (cfiCond262) Function MT_AfDataStore
          CFI (cfiCond262) Conditional ??CrossCallReturnLabel_11
          CFI (cfiCond262) R6 load(1, XDATA, add(CFA_XSP16, literal(-14)))
          CFI (cfiCond262) VB load(1, XDATA, add(CFA_XSP16, literal(-13)))
          CFI (cfiCond262) V0 load(1, XDATA, add(CFA_XSP16, literal(-12)))
          CFI (cfiCond262) V1 load(1, XDATA, add(CFA_XSP16, literal(-11)))
          CFI (cfiCond262) V2 load(1, XDATA, add(CFA_XSP16, literal(-10)))
          CFI (cfiCond262) V3 load(1, XDATA, add(CFA_XSP16, literal(-9)))
          CFI (cfiCond262) V4 load(1, XDATA, add(CFA_XSP16, literal(-8)))
          CFI (cfiCond262) V5 load(1, XDATA, add(CFA_XSP16, literal(-7)))
          CFI (cfiCond262) R7 load(1, XDATA, add(CFA_XSP16, literal(-6)))
          CFI (cfiCond262) ?RET_LOW load(1, XDATA, add(CFA_XSP16, literal(-5)))
          CFI (cfiCond262) ?RET_HIGH load(1, XDATA, add(CFA_XSP16, literal(-4)))
          CFI (cfiCond262) ?BRET_EXT load(1, XDATA, add(CFA_XSP16, literal(-3)))
          CFI (cfiCond262) DPL0 load(1, XDATA, add(CFA_XSP16, literal(-2)))
          CFI (cfiCond262) DPH0 load(1, XDATA, add(CFA_XSP16, literal(-1)))
          CFI (cfiCond262) CFA_SP SP+0
          CFI (cfiCond262) CFA_XSP16 add(XSP16, 22)
          CFI Block cfiPicker263 Using cfiCommon1
          CFI (cfiPicker263) NoFunction
          CFI (cfiPicker263) Picker
        LCALL   ?Subroutine38 & 0xFFFF
??CrossCallReturnLabel_61:
        ADD     A,#0x10
        LCALL   ??Subroutine43_0 & 0xFFFF
??CrossCallReturnLabel_77:
        RET
          CFI EndBlock cfiCond261
          CFI EndBlock cfiCond262
          CFI EndBlock cfiPicker263

        RSEG BANKED_CODE:CODE:NOROOT(0)
?Subroutine8:
          CFI Block cfiCond264 Using cfiCommon0
          CFI Function MT_AfDataRequest
          CFI Conditional ??CrossCallReturnLabel_8
          CFI R6 load(1, XDATA, add(CFA_XSP16, literal(-22)))
          CFI VB load(1, XDATA, add(CFA_XSP16, literal(-21)))
          CFI V0 load(1, XDATA, add(CFA_XSP16, literal(-20)))
          CFI V1 load(1, XDATA, add(CFA_XSP16, literal(-19)))
          CFI V2 load(1, XDATA, add(CFA_XSP16, literal(-18)))
          CFI V3 load(1, XDATA, add(CFA_XSP16, literal(-17)))
          CFI V4 load(1, XDATA, add(CFA_XSP16, literal(-16)))
          CFI V5 load(1, XDATA, add(CFA_XSP16, literal(-15)))
          CFI V6 load(1, XDATA, add(CFA_XSP16, literal(-14)))
          CFI V7 load(1, XDATA, add(CFA_XSP16, literal(-13)))
          CFI V8 load(1, XDATA, add(CFA_XSP16, literal(-12)))
          CFI V9 load(1, XDATA, add(CFA_XSP16, literal(-11)))
          CFI V10 load(1, XDATA, add(CFA_XSP16, literal(-10)))
          CFI V11 load(1, XDATA, add(CFA_XSP16, literal(-9)))
          CFI V12 load(1, XDATA, add(CFA_XSP16, literal(-8)))
          CFI V13 load(1, XDATA, add(CFA_XSP16, literal(-7)))
          CFI R7 load(1, XDATA, add(CFA_XSP16, literal(-6)))
          CFI ?RET_LOW load(1, XDATA, add(CFA_XSP16, literal(-5)))
          CFI ?RET_HIGH load(1, XDATA, add(CFA_XSP16, literal(-4)))
          CFI ?BRET_EXT load(1, XDATA, add(CFA_XSP16, literal(-3)))
          CFI DPL0 load(1, XDATA, add(CFA_XSP16, literal(-2)))
          CFI DPH0 load(1, XDATA, add(CFA_XSP16, literal(-1)))
          CFI CFA_SP SP+0
          CFI CFA_XSP16 add(XSP16, 36)
          CFI Block cfiCond265 Using cfiCommon0
          CFI (cfiCond265) Function MT_AfDataStore
          CFI (cfiCond265) Conditional ??CrossCallReturnLabel_9
          CFI (cfiCond265) R6 load(1, XDATA, add(CFA_XSP16, literal(-14)))
          CFI (cfiCond265) VB load(1, XDATA, add(CFA_XSP16, literal(-13)))
          CFI (cfiCond265) V0 load(1, XDATA, add(CFA_XSP16, literal(-12)))
          CFI (cfiCond265) V1 load(1, XDATA, add(CFA_XSP16, literal(-11)))
          CFI (cfiCond265) V2 load(1, XDATA, add(CFA_XSP16, literal(-10)))
          CFI (cfiCond265) V3 load(1, XDATA, add(CFA_XSP16, literal(-9)))
          CFI (cfiCond265) V4 load(1, XDATA, add(CFA_XSP16, literal(-8)))
          CFI (cfiCond265) V5 load(1, XDATA, add(CFA_XSP16, literal(-7)))
          CFI (cfiCond265) R7 load(1, XDATA, add(CFA_XSP16, literal(-6)))
          CFI (cfiCond265) ?RET_LOW load(1, XDATA, add(CFA_XSP16, literal(-5)))
          CFI (cfiCond265) ?RET_HIGH load(1, XDATA, add(CFA_XSP16, literal(-4)))
          CFI (cfiCond265) ?BRET_EXT load(1, XDATA, add(CFA_XSP16, literal(-3)))
          CFI (cfiCond265) DPL0 load(1, XDATA, add(CFA_XSP16, literal(-2)))
          CFI (cfiCond265) DPH0 load(1, XDATA, add(CFA_XSP16, literal(-1)))
          CFI (cfiCond265) CFA_SP SP+0
          CFI (cfiCond265) CFA_XSP16 add(XSP16, 24)
          CFI Block cfiPicker266 Using cfiCommon1
          CFI (cfiPicker266) NoFunction
          CFI (cfiPicker266) Picker
        LCALL   ?Subroutine38 & 0xFFFF
??CrossCallReturnLabel_60:
        ADD     A,#0xe
        LCALL   ??Subroutine43_0 & 0xFFFF
??CrossCallReturnLabel_76:
        RET
          CFI EndBlock cfiCond264
          CFI EndBlock cfiCond265
          CFI EndBlock cfiPicker266

        RSEG BANK_RELAYS:CODE:REORDER:NOROOT(0)
??MT_AfExec?relay:
        CODE
        LCALL   ?BDISPATCH
        DATA24
        DC24    MT_AfExec

        RSEG BANK_RELAYS:CODE:REORDER:NOROOT(0)
??MT_AfCommandProcessing?relay:
        CODE
        LCALL   ?BDISPATCH
        DATA24
        DC24    MT_AfCommandProcessing

        RSEG BANK_RELAYS:CODE:REORDER:NOROOT(0)
??MT_AfRegister?relay:
        CODE
        LCALL   ?BDISPATCH
        DATA24
        DC24    MT_AfRegister

        RSEG BANK_RELAYS:CODE:REORDER:NOROOT(0)
??MT_AfDataRequest?relay:
        CODE
        LCALL   ?BDISPATCH
        DATA24
        DC24    MT_AfDataRequest

        RSEG BANK_RELAYS:CODE:REORDER:NOROOT(0)
??MT_AfDataRequestSrcRtg?relay:
        CODE
        LCALL   ?BDISPATCH
        DATA24
        DC24    MT_AfDataRequestSrcRtg

        RSEG BANK_RELAYS:CODE:REORDER:NOROOT(0)
??MT_AfDataConfirm?relay:
        CODE
        LCALL   ?BDISPATCH
        DATA24
        DC24    MT_AfDataConfirm

        RSEG BANK_RELAYS:CODE:REORDER:NOROOT(0)
??MT_AfIncomingMsg?relay:
        CODE
        LCALL   ?BDISPATCH
        DATA24
        DC24    MT_AfIncomingMsg

        RSEG BANK_RELAYS:CODE:REORDER:NOROOT(0)
??MT_AfDataRetrieve?relay:
        CODE
        LCALL   ?BDISPATCH
        DATA24
        DC24    MT_AfDataRetrieve

        RSEG BANK_RELAYS:CODE:REORDER:NOROOT(0)
??MT_AfDataStore?relay:
        CODE
        LCALL   ?BDISPATCH
        DATA24
        DC24    MT_AfDataStore

        END
//  891 
//  892 /**************************************************************************************************
//  893  * @fn          MT_AfAPSF_ConfigSet
//  894  *
//  895  * @brief       This function is the MT proxy for afAPSF_ConfigSet().
//  896  *
//  897  * input parameters
//  898  *
//  899  * @param       pBuf - Pointer to the received buffer.
//  900  *
//  901  * output parameters
//  902  *
//  903  * None.
//  904  *
//  905  * @return      None.
//  906  */
//  907 static void MT_AfAPSF_ConfigSet(uint8 *pBuf)
//  908 {
//  909   afAPSF_Config_t cfg = { pBuf[MT_RPC_POS_DAT0+1], pBuf[MT_RPC_POS_DAT0+2] };
//  910   afStatus_t rtrn = afAPSF_ConfigSet(pBuf[MT_RPC_POS_DAT0], &cfg);
//  911 
//  912   MT_BuildAndSendZToolResponse(((uint8)MT_RPC_CMD_SRSP | (uint8)MT_RPC_SYS_AF),
//  913                                        MT_AF_APSF_CONFIG_SET, 1, (uint8 *)&rtrn);
//  914 }
//  915 
//  916 /***************************************************************************************************
//  917 ***************************************************************************************************/
// 
// 3 314 bytes in segment BANKED_CODE
//    54 bytes in segment BANK_RELAYS
//     4 bytes in segment XDATA_Z
// 
// 3 368 bytes of CODE  memory
//     4 bytes of XDATA memory
//
//Errors: none
//Warnings: none
