###############################################################################
#                                                                             #
# IAR C/C++ Compiler V8.20.2.41139 for 8051             02/Apr/2014  09:56:10 #
# Copyright 2004-2013 IAR Systems AB.                                         #
#                                                                             #
#    Core               =  plain                                              #
#    Code model         =  banked                                             #
#    Data model         =  large                                              #
#    Calling convention =  xdata reentrant                                    #
#    Constant location  =  data_rom                                           #
#    Dptr setup         =  1,16                                               #
#                                                                             #
#    Source file        =  E:\wise-house\Components\stack\zdo\ZDObject.c      #
#    Command line       =  -f E:\wise-house\Projects\zstack\Samples\MyGeneric #
#                          App\CC2530DB\..\..\..\Tools\CC2530DB\f8wCoord.cfg  #
#                          (-DCPU32MHZ -DROOT=__near_func                     #
#                          -DMAC_CFG_APP_PENDING_QUEUE=TRUE                   #
#                          -DMAC_CFG_TX_DATA_MAX=5 -DMAC_CFG_TX_MAX=8         #
#                          -DMAC_CFG_RX_MAX=5 -DZDO_COORDINATOR -DRTR_NWK)    #
#                          -f E:\wise-house\Projects\zstack\Samples\MyGeneric #
#                          App\CC2530DB\..\..\..\Tools\CC2530DB\f8wConfig.cfg #
#                           (-DZIGBEEPRO -DSECURE=0 -DZG_SECURE_DYNAMIC=0     #
#                          -DREFLECTOR -DDEFAULT_CHANLIST=0x00000800          #
#                          -DZDAPP_CONFIG_PAN_ID=0xFFFF                       #
#                          -DNWK_START_DELAY=100 -DEXTENDED_JOINING_RANDOM_MA #
#                          SK=0x007F -DBEACON_REQUEST_DELAY=100               #
#                          -DBEACON_REQ_DELAY_MASK=0x00FF                     #
#                          -DLINK_STATUS_JITTER_MASK=0x007F                   #
#                          -DROUTE_EXPIRY_TIME=30 -DAPSC_ACK_WAIT_DURATION_PO #
#                          LLED=3000 -DNWK_INDIRECT_MSG_TIMEOUT=7             #
#                          -DMAX_RREQ_ENTRIES=8 -DAPSC_MAX_FRAME_RETRIES=3    #
#                          -DNWK_MAX_DATA_RETRIES=2                           #
#                          -DMAX_POLL_FAILURE_RETRIES=2 -DMAX_BCAST=9         #
#                          -DAPS_MAX_GROUPS=16 -DMAX_RTG_ENTRIES=40           #
#                          -DNWK_MAX_BINDING_ENTRIES=4                        #
#                          -DMAX_BINDING_CLUSTER_IDS=4 "-DDEFAULT_KEY={0x01,  #
#                          0x03, 0x05, 0x07, 0x09, 0x0B, 0x0D, 0x0F, 0x00,    #
#                          0x02, 0x04, 0x06, 0x08, 0x0A, 0x0C, 0x0D}"         #
#                          -DMAC_MAX_FRAME_SIZE=116                           #
#                          -DZDNWKMGR_MIN_TRANSMISSIONS=20 "-DCONST=const     #
#                          __code" -DGENERIC=__generic                        #
#                          -DRFD_RCVC_ALWAYS_ON=TRUE -DPOLL_RATE=1000         #
#                          -DQUEUED_POLL_RATE=100 -DRESPONSE_POLL_RATE=100)   #
#                          -DREJOIN_POLL_RATE=440 E:\wise-house\Components\st #
#                          ack\zdo\ZDObject.c -D ZTOOL_P1 -D MT_TASK -D       #
#                          MT_SYS_FUNC -D MT_ZDO_FUNC -D LCD_SUPPORTED=DEBUG  #
#                          -D NV_RESTORE=1 -lC E:\wise-house\Projects\zstack\ #
#                          Samples\MyGenericApp\CC2530DB\CoordinatorEB\List\  #
#                          -lA E:\wise-house\Projects\zstack\Samples\MyGeneri #
#                          cApp\CC2530DB\CoordinatorEB\List\ --diag_suppress  #
#                          Pe001,Pa010 -o E:\wise-house\Projects\zstack\Sampl #
#                          es\MyGenericApp\CC2530DB\CoordinatorEB\Obj\ -e     #
#                          --debug --core=plain --dptr=16,1                   #
#                          --data_model=large --code_model=banked             #
#                          --calling_convention=xdata_reentrant               #
#                          --place_constants=data_rom --nr_virtual_regs 16    #
#                          -I E:\wise-house\Projects\zstack\Samples\MyGeneric #
#                          App\CC2530DB\ -I E:\wise-house\Projects\zstack\Sam #
#                          ples\MyGenericApp\CC2530DB\..\Source\ -I           #
#                          E:\wise-house\Projects\zstack\Samples\MyGenericApp #
#                          \CC2530DB\..\..\..\ZMain\TI2530DB\ -I              #
#                          E:\wise-house\Projects\zstack\Samples\MyGenericApp #
#                          \CC2530DB\..\..\..\..\..\Components\hal\include\   #
#                          -I E:\wise-house\Projects\zstack\Samples\MyGeneric #
#                          App\CC2530DB\..\..\..\..\..\Components\hal\target\ #
#                          CC2530EB\ -I E:\wise-house\Projects\zstack\Samples #
#                          \MyGenericApp\CC2530DB\..\..\..\..\..\Components\m #
#                          ac\include\ -I E:\wise-house\Projects\zstack\Sampl #
#                          es\MyGenericApp\CC2530DB\..\..\..\..\..\Components #
#                          \mac\high_level\ -I E:\wise-house\Projects\zstack\ #
#                          Samples\MyGenericApp\CC2530DB\..\..\..\..\..\Compo #
#                          nents\mac\low_level\srf04\ -I                      #
#                          E:\wise-house\Projects\zstack\Samples\MyGenericApp #
#                          \CC2530DB\..\..\..\..\..\Components\mac\low_level\ #
#                          srf04\single_chip\ -I E:\wise-house\Projects\zstac #
#                          k\Samples\MyGenericApp\CC2530DB\..\..\..\..\..\Com #
#                          ponents\mt\ -I E:\wise-house\Projects\zstack\Sampl #
#                          es\MyGenericApp\CC2530DB\..\..\..\..\..\Components #
#                          \osal\include\ -I E:\wise-house\Projects\zstack\Sa #
#                          mples\MyGenericApp\CC2530DB\..\..\..\..\..\Compone #
#                          nts\services\saddr\ -I E:\wise-house\Projects\zsta #
#                          ck\Samples\MyGenericApp\CC2530DB\..\..\..\..\..\Co #
#                          mponents\services\sdata\ -I                        #
#                          E:\wise-house\Projects\zstack\Samples\MyGenericApp #
#                          \CC2530DB\..\..\..\..\..\Components\stack\af\ -I   #
#                          E:\wise-house\Projects\zstack\Samples\MyGenericApp #
#                          \CC2530DB\..\..\..\..\..\Components\stack\nwk\ -I  #
#                          E:\wise-house\Projects\zstack\Samples\MyGenericApp #
#                          \CC2530DB\..\..\..\..\..\Components\stack\sapi\    #
#                          -I E:\wise-house\Projects\zstack\Samples\MyGeneric #
#                          App\CC2530DB\..\..\..\..\..\Components\stack\sec\  #
#                          -I E:\wise-house\Projects\zstack\Samples\MyGeneric #
#                          App\CC2530DB\..\..\..\..\..\Components\stack\sys\  #
#                          -I E:\wise-house\Projects\zstack\Samples\MyGeneric #
#                          App\CC2530DB\..\..\..\..\..\Components\stack\zdo\  #
#                          -I E:\wise-house\Projects\zstack\Samples\MyGeneric #
#                          App\CC2530DB\..\..\..\..\..\Components\zmac\ -I    #
#                          E:\wise-house\Projects\zstack\Samples\MyGenericApp #
#                          \CC2530DB\..\..\..\..\..\Components\zmac\f8w\ -Ohz #
#    List file          =  E:\wise-house\Projects\zstack\Samples\MyGenericApp #
#                          \CC2530DB\CoordinatorEB\List\ZDObject.lst          #
#    Object file        =  E:\wise-house\Projects\zstack\Samples\MyGenericApp #
#                          \CC2530DB\CoordinatorEB\Obj\ZDObject.r51           #
#                                                                             #
#                                                                             #
###############################################################################

E:\wise-house\Components\stack\zdo\ZDObject.c
      1          /**************************************************************************************************
      2            Filename:       ZDObject.c
      3            Revised:        $Date: 2011-07-13 10:55:53 -0700 (Wed, 13 Jul 2011) $
      4            Revision:       $Revision: 26766 $
      5          
      6            Description:    This is the Zigbee Device Object.
      7          
      8          
      9            Copyright 2004-2011 Texas Instruments Incorporated. All rights reserved.
     10          
     11            IMPORTANT: Your use of this Software is limited to those specific rights
     12            granted under the terms of a software license agreement between the user
     13            who downloaded the software, his/her employer (which must be your employer)
     14            and Texas Instruments Incorporated (the "License"). You may not use this
     15            Software unless you agree to abide by the terms of the License. The License
     16            limits your use, and you acknowledge, that the Software may not be modified,
     17            copied or distributed unless embedded on a Texas Instruments microcontroller
     18            or used solely and exclusively in conjunction with a Texas Instruments radio
     19            frequency transceiver, which is integrated into your product. Other than for
     20            the foregoing purpose, you may not use, reproduce, copy, prepare derivative
     21            works of, modify, distribute, perform, display or sell this Software and/or
     22            its documentation for any purpose.
     23          
     24            YOU FURTHER ACKNOWLEDGE AND AGREE THAT THE SOFTWARE AND DOCUMENTATION ARE
     25            PROVIDED “AS IS” WITHOUT WARRANTY OF ANY KIND, EITHER EXPRESS OR IMPLIED,
     26            INCLUDING WITHOUT LIMITATION, ANY WARRANTY OF MERCHANTABILITY, TITLE,
     27            NON-INFRINGEMENT AND FITNESS FOR A PARTICULAR PURPOSE. IN NO EVENT SHALL
     28            TEXAS INSTRUMENTS OR ITS LICENSORS BE LIABLE OR OBLIGATED UNDER CONTRACT,
     29            NEGLIGENCE, STRICT LIABILITY, CONTRIBUTION, BREACH OF WARRANTY, OR OTHER
     30            LEGAL EQUITABLE THEORY ANY DIRECT OR INDIRECT DAMAGES OR EXPENSES
     31            INCLUDING BUT NOT LIMITED TO ANY INCIDENTAL, SPECIAL, INDIRECT, PUNITIVE
     32            OR CONSEQUENTIAL DAMAGES, LOST PROFITS OR LOST DATA, COST OF PROCUREMENT
     33            OF SUBSTITUTE GOODS, TECHNOLOGY, SERVICES, OR ANY CLAIMS BY THIRD PARTIES
     34            (INCLUDING BUT NOT LIMITED TO ANY DEFENSE THEREOF), OR OTHER SIMILAR COSTS.
     35          
     36            Should you have any questions regarding your right to use this Software,
     37            contact Texas Instruments Incorporated at www.TI.com.
     38          **************************************************************************************************/
     39          
     40          /*********************************************************************
     41           * INCLUDES
     42           */
     43          #include "ZComdef.h"
     44          #include "OSAL.h"
     45          #include "OSAL_Nv.h"
     46          #include "rtg.h"
     47          #include "NLMEDE.h"
     48          #include "nwk_globals.h"
     49          #include "APS.h"
     50          #include "APSMEDE.h"
     51          #include "AssocList.h"
     52          #include "BindingTable.h"
     53          #include "AddrMgr.h"
     54          #include "AF.h"
     55          #include "ZDObject.h"
     56          #include "ZDProfile.h"
     57          #include "ZDConfig.h"
     58          #include "ZDSecMgr.h"
     59          #include "ZDApp.h"
     60          #include "nwk_util.h"   // NLME_IsAddressBroadcast()
     61          #include "ZGlobals.h"
     62          #if defined MT_ZDO_CB_FUNC
     63          #include "MT.h"
     64          #endif
     65          
     66          #if defined( LCD_SUPPORTED )
     67            #include "OnBoard.h"
     68          #endif
     69          
     70          /* HAL */
     71          #include "hal_lcd.h"
     72          
     73          /*********************************************************************
     74           * MACROS
     75           */
     76          
     77          /*********************************************************************
     78           * CONSTANTS
     79           */
     80          // NLME Stub Implementations
     81          #define ZDO_ProcessMgmtPermitJoinTimeout NLME_PermitJoiningTimeout
     82          
     83          // Status fields used by ZDO_ProcessMgmtRtgReq
     84          #define ZDO_MGMT_RTG_ENTRY_ACTIVE             0x00
     85          #define ZDO_MGMT_RTG_ENTRY_DISCOVERY_UNDERWAY 0x01
     86          #define ZDO_MGMT_RTG_ENTRY_DISCOVERY_FAILED   0x02
     87          #define ZDO_MGMT_RTG_ENTRY_INACTIVE           0x03
     88          
     89          /*********************************************************************
     90           * TYPEDEFS
     91           */
     92          #if defined ( REFLECTOR )
     93          typedef struct
     94          {
     95            byte SrcTransSeq;
     96            zAddrType_t SrcAddr;
     97            uint16 LocalCoordinator;
     98            byte epIntf;
     99            uint16 ProfileID;
    100            byte numInClusters;
    101            uint16 *inClusters;
    102            byte numOutClusters;
    103            uint16 *outClusters;
    104            byte SecurityUse;
    105            byte status;
    106          } ZDO_EDBind_t;
    107          #endif // defined ( REFLECTOR )
    108          
    109          enum
    110          {
    111            ZDMATCH_INIT,           // Initialized
    112            ZDMATCH_WAIT_REQ,       // Received first request, waiting for second
    113            ZDMATCH_SENDING_BINDS   // Received both requests, sending unbind/binds
    114          };
    115          
    116          enum
    117          {
    118            ZDMATCH_SENDING_NOT,
    119            ZDMATCH_SENDING_UNBIND,
    120            ZDMATCH_SENDING_BIND
    121          };
    122          
    123          /*********************************************************************
    124           * GLOBAL VARIABLES
    125           */
    126          
    127          /*********************************************************************
    128           * EXTERNAL VARIABLES
    129           */
    130          
    131          /*********************************************************************
    132           * EXTERNAL FUNCTIONS
    133           */
    134          
    135          /*********************************************************************
    136           * LOCAL VARIABLES
    137           */

   \                                 In  segment XDATA_Z, align 1, keep-with-next
    138          static uint16 ZDOBuildBuf[26];  // temp area to build data without allocation
   \                     ZDOBuildBuf:
   \   000000                DS 52
   \   000034                REQUIRE __INIT_XDATA_Z
    139          
    140          #if defined ( REFLECTOR )

   \                                 In  segment XDATA_Z, align 1, keep-with-next
    141          static ZDO_EDBind_t *ZDO_EDBind;     // Null when not used
   \                     ZDO_EDBind:
   \   000000                DS 2
   \   000002                REQUIRE __INIT_XDATA_Z
    142          #endif
    143          
    144          #if defined ( MANAGED_SCAN )
    145            uint32 managedScanNextChannel = 0;
    146            uint32 managedScanChannelMask = 0;
    147            uint8  managedScanTimesPerChannel = 0;
    148          #endif
    149          

   \                                 In  segment XDATA_Z, align 1, keep-with-next
    150          ZDMatchEndDeviceBind_t *matchED = (ZDMatchEndDeviceBind_t *)NULL;
   \                     matchED:
   \   000000                DS 2
   \   000002                REQUIRE __INIT_XDATA_Z
    151          

   \                                 In  segment XDATA_Z, align 1, keep-with-next
    152          uint32 apsChannelMask = 0;
   \                     apsChannelMask:
   \   000000                DS 4
   \   000004                REQUIRE __INIT_XDATA_Z
    153          
    154          /*********************************************************************
    155           * LOCAL FUNCTIONS
    156           */
    157          static void ZDODeviceSetup( void );
    158          #if defined ( MANAGED_SCAN )
    159            static void ZDOManagedScan_Next( void );
    160          #endif
    161          #if defined ( REFLECTOR )
    162            static void ZDO_RemoveEndDeviceBind( void );
    163            static void ZDO_SendEDBindRsp( byte TransSeq, zAddrType_t *dstAddr, byte Status, byte secUse );
    164          #endif
    165          static byte ZDO_CompareClusterLists( byte numList1, uint16 *list1,
    166                                          byte numList2, uint16 *list2, uint16 *pMatches );
    167          static void ZDO_RemoveMatchMemory( void );
    168          static uint8 ZDO_CopyMatchInfo( ZDEndDeviceBind_t *destReq, ZDEndDeviceBind_t *srcReq );
    169          static void ZDO_EndDeviceBindMatchTimeoutCB( void );
    170          uint8 *ZDO_ConvertOTAClusters( uint8 cnt, uint8 *inBuf, uint16 *outList );
    171          static void zdoSendStateChangeMsg(uint8 state, uint8 taskId);
    172          
    173          /*********************************************************************
    174           * @fn          ZDO_Init
    175           *
    176           * @brief       ZDObject and ZDProfile initialization.
    177           *
    178           * @param       none
    179           *
    180           * @return      none
    181           */

   \                                 In  segment BANKED_CODE, align 1, keep-with-next
    182          void ZDO_Init( void )
   \                     ZDO_Init:
    183          {
   \   000000   C082         PUSH    DPL
   \   000002   C083         PUSH    DPH
   \   000004                ; Saved register size: 2
   \   000004                ; Auto size: 0
    184            // Initialize ZD items
    185            #if defined ( REFLECTOR )
    186            ZDO_EDBind = NULL;
   \   000004   90....       MOV     DPTR,#ZDO_EDBind
   \   000007   E4           CLR     A
   \   000008   F0           MOVX    @DPTR,A
   \   000009   A3           INC     DPTR
   \   00000A   F0           MOVX    @DPTR,A
    187            #endif
    188          
    189            // Initialize default ZDO_UseExtendedPANID to the APS one.
    190            osal_cpyExtAddr( ZDO_UseExtendedPANID, AIB_apsUseExtendedPANID );
   \   00000B                ; Setup parameters for call to function sAddrExtCpy
   \   00000B   7C..         MOV     R4,#AIB_apsUseExtendedPANID & 0xff
   \   00000D   7D..         MOV     R5,#(AIB_apsUseExtendedPANID >> 8) & 0xff
   \   00000F   7A..         MOV     R2,#ZDO_UseExtendedPANID & 0xff
   \   000011   7B..         MOV     R3,#(ZDO_UseExtendedPANID >> 8) & 0xff
   \   000013   12....       LCALL   ??sAddrExtCpy?relay
    191          
    192            // Setup the device - type of device to create.
    193            ZDODeviceSetup();
   \   000016                ; Setup parameters for call to function NLME_CoordinatorInit
   \   000016   12....       LCALL   ??NLME_CoordinatorInit?relay
   \   000019                ; Setup parameters for call to function APS_ReflectorInit
   \   000019   7900         MOV     R1,#0x0
   \   00001B   12....       LCALL   ??APS_ReflectorInit?relay
    194          }
   \   00001E   02....       LJMP    ?Subroutine0 & 0xFFFF

   \                                 In  segment BANKED_CODE, align 1, keep-with-next
   \                     ?Subroutine0:
   \   000000   D083         POP     DPH
   \   000002   D082         POP     DPL
   \   000004   02....       LJMP    ?BRET
    195          
    196          #if defined ( MANAGED_SCAN )
    197          /*********************************************************************
    198           * @fn      ZDOManagedScan_Next()
    199           *
    200           * @brief   Setup a managed scan.
    201           *
    202           * @param   none
    203           *
    204           * @return  none
    205           */
    206          static void ZDOManagedScan_Next( void )
    207          {
    208            // Is it the first time
    209            if ( managedScanNextChannel == 0 && managedScanTimesPerChannel == 0 )
    210            {
    211              // Setup the defaults
    212              managedScanNextChannel  = 1;
    213          
    214              while( managedScanNextChannel && (zgDefaultChannelList & managedScanNextChannel) == 0 )
    215                managedScanNextChannel <<= 1;
    216          
    217              managedScanChannelMask = managedScanNextChannel;
    218              managedScanTimesPerChannel = MANAGEDSCAN_TIMES_PRE_CHANNEL;
    219            }
    220            else
    221            {
    222              // Do we need to go to the next channel
    223              if ( managedScanTimesPerChannel == 0 )
    224              {
    225                // Find next active channel
    226                managedScanChannelMask  = managedScanNextChannel;
    227                managedScanTimesPerChannel = MANAGEDSCAN_TIMES_PRE_CHANNEL;
    228              }
    229              else
    230              {
    231                managedScanTimesPerChannel--;
    232          
    233                if ( managedScanTimesPerChannel == 0 )
    234                {
    235                  managedScanNextChannel  <<= 1;
    236                  while( managedScanNextChannel && (zgDefaultChannelList & managedScanNextChannel) == 0 )
    237                    managedScanNextChannel <<= 1;
    238          
    239                  if ( managedScanNextChannel == 0 )
    240                    zdoDiscCounter  = NUM_DISC_ATTEMPTS + 1; // Stop
    241                }
    242              }
    243            }
    244          }
    245          #endif // MANAGED_SCAN
    246          
    247          /*********************************************************************
    248           * @fn      ZDODeviceSetup()
    249           *
    250           * @brief   Call set functions depending on the type of device compiled.
    251           *
    252           * @param   none
    253           *
    254           * @return  none
    255           */
    256          static void ZDODeviceSetup( void )
    257          {
    258            if ( ZG_BUILD_COORDINATOR_TYPE )
    259            {
    260              NLME_CoordinatorInit();
    261            }
    262          
    263          #if defined ( REFLECTOR )
    264            APS_ReflectorInit( (ZG_DEVICE_COORDINATOR_TYPE) ? APS_REFLECTOR_PUBLIC :  APS_REFLECTOR_PRIVATE );
    265          #endif
    266          
    267            if ( ZG_BUILD_JOINING_TYPE )
    268            {
    269              NLME_DeviceJoiningInit();
    270            }
    271          }
    272          
    273          /*********************************************************************
    274           * @fn          ZDO_StartDevice
    275           *
    276           * @brief       This function starts a device in a network.
    277           *
    278           * @param       logicalType     - Device type to start
    279           *              startMode       - indicates mode of device startup
    280           *              beaconOrder     - indicates time betwen beacons
    281           *              superframeOrder - indicates length of active superframe
    282           *
    283           * @return      none
    284           */

   \                                 In  segment BANKED_CODE, align 1, keep-with-next
    285          void ZDO_StartDevice( byte logicalType, devStartModes_t startMode, byte beaconOrder, byte superframeOrder )
   \                     ZDO_StartDevice:
    286          {
   \   000000   74F5         MOV     A,#-0xb
   \   000002   12....       LCALL   ?BANKED_ENTER_XDATA
   \   000005                ; Saved register size: 11
   \   000005                ; Auto size: 0
   \   000005   E9           MOV     A,R1
   \   000006   FF           MOV     R7,A
   \   000007   8A..         MOV     ?V0 + 0,R2
   \   000009   EB           MOV     A,R3
   \   00000A   FE           MOV     R6,A
    287            ZStatus_t ret;
    288          #if defined ( ZIGBEE_FREQ_AGILITY )
    289            static uint8 discRetries = 0;
    290          #endif
    291          #if defined ( ZIGBEE_COMMISSIONING )
    292            static uint8 scanCnt = 0;
    293          #endif
    294          
    295            ret = ZUnsupportedMode;
    296          
    297            if ( ZG_BUILD_COORDINATOR_TYPE && logicalType == NODETYPE_COORDINATOR )
   \   00000B   EF           MOV     A,R7
   \   00000C   7044         JNZ     ??ZDO_StartDevice_0
    298            {
    299              if ( startMode == MODE_HARD )
   \   00000E   7402         MOV     A,#0x2
   \   000010   65..         XRL     A,?V0 + 0
   \   000012   7051         JNZ     ??ZDO_StartDevice_1
    300              {
    301                devState = DEV_COORD_STARTING;
   \   000014   90....       MOV     DPTR,#devState
   \   000017   7408         MOV     A,#0x8
   \   000019   F0           MOVX    @DPTR,A
    302                ret = NLME_NetworkFormationRequest( zgConfigPANID, zgApsUseExtendedPANID, zgDefaultChannelList,
    303                                                    zgDefaultStartingScanDuration, beaconOrder,
    304                                                    superframeOrder, false );
   \   00001A                ; Setup parameters for call to function NLME_NetworkFormationRequest
   \   00001A   75..00       MOV     ?V0 + 2,#0x0
   \   00001D   78..         MOV     R0,#?V0 + 2
   \   00001F   12....       LCALL   ?PUSH_XSTACK_I_ONE
   \   000022   EC           MOV     A,R4
   \   000023   F5..         MOV     ?V0 + 2,A
   \   000025   78..         MOV     R0,#?V0 + 2
   \   000027   12....       LCALL   ?PUSH_XSTACK_I_ONE
   \   00002A   EE           MOV     A,R6
   \   00002B   F5..         MOV     ?V0 + 2,A
   \   00002D   78..         MOV     R0,#?V0 + 2
   \   00002F   12....       LCALL   ?PUSH_XSTACK_I_ONE
   \   000032   90....       MOV     DPTR,#zgDefaultChannelList
   \   000035   12....       LCALL   ?PUSH_XSTACK8_X_FOUR
   \   000038   90....       MOV     DPTR,#zgDefaultStartingScanDuration
   \   00003B   E0           MOVX    A,@DPTR
   \   00003C   F9           MOV     R1,A
   \   00003D   7C..         MOV     R4,#zgApsUseExtendedPANID & 0xff
   \   00003F   7D..         MOV     R5,#(zgApsUseExtendedPANID >> 8) & 0xff
   \   000041   90....       MOV     DPTR,#zgConfigPANID
   \   000044   12....       LCALL   ??Subroutine195_0 & 0xFFFF
    305              }
   \                     ??CrossCallReturnLabel_371:
   \   000047   12....       LCALL   ??NLME_NetworkFormationRequest?relay
   \   00004A   7407         MOV     A,#0x7
   \   00004C   12....       LCALL   ?DEALLOC_XSTACK8
   \                     ??ZDO_StartDevice_2:
   \   00004F   E9           MOV     A,R1
    306              else if ( startMode == MODE_RESUME )
    307              {
    308                // Just start the coordinator
    309                devState = DEV_COORD_STARTING;
    310                ret = NLME_StartRouterRequest( beaconOrder, beaconOrder, false );
    311              }
    312              else
    313              {
    314          #if defined( LCD_SUPPORTED )
    315                HalLcdWriteScreen( "StartDevice ERR", "MODE unknown" );
    316          #endif
    317              }
    318            }
    319          
    320            if ( ZG_BUILD_JOINING_TYPE && (logicalType == NODETYPE_ROUTER || logicalType == NODETYPE_DEVICE) )
    321            {
    322              if ( (startMode == MODE_JOIN) || (startMode == MODE_REJOIN) )
    323              {
    324                devState = DEV_NWK_DISC;
    325          
    326            #if defined( MANAGED_SCAN )
    327                ZDOManagedScan_Next();
    328                ret = NLME_NetworkDiscoveryRequest( managedScanChannelMask, BEACON_ORDER_15_MSEC );
    329            #else
    330                ret = NLME_NetworkDiscoveryRequest( zgDefaultChannelList, zgDefaultStartingScanDuration );
    331              #if defined ( ZIGBEE_FREQ_AGILITY )
    332                if ( !( ZDO_Config_Node_Descriptor.CapabilityFlags & CAPINFO_RCVR_ON_IDLE ) &&
    333                      ( ret == ZSuccess ) && ( ++discRetries == 4 ) )
    334                {
    335                  // For devices with RxOnWhenIdle equals to FALSE, any network channel
    336                  // change will not be recieved. On these devices or routers that have
    337                  // lost the network, an active scan shall be conducted on the Default
    338                  // Channel list using the extended PANID to find the network. If the
    339                  // extended PANID isn't found using the Default Channel list, an scan
    340                  // should be completed using all channels.
    341                  zgDefaultChannelList = MAX_CHANNELS_24GHZ;
    342                }
    343              #endif // ZIGBEE_FREQ_AGILITY
    344              #if defined ( ZIGBEE_COMMISSIONING )
    345                if (startMode == MODE_REJOIN && scanCnt++ >= 5 )
    346                {
    347                  // When ApsUseExtendedPanID is commissioned to a non zero value via
    348                  // application specific means, the device shall conduct an active scan
    349                  // on the Default Channel list and join the PAN with the same
    350                  // ExtendedPanID. If the PAN is not found, an scan should be completed
    351                  // on all channels.
    352                  // When devices rejoin the network and the PAN is not found from
    353                  zgDefaultChannelList = MAX_CHANNELS_24GHZ;
    354                }
    355              #endif // ZIGBEE_COMMISSIONING
    356            #endif
    357              }
    358              else if ( startMode == MODE_RESUME )
    359              {
    360                if ( logicalType == NODETYPE_ROUTER )
    361                {
    362                  ZMacScanCnf_t scanCnf;
    363                  devState = DEV_NWK_ORPHAN;
    364          
    365                  /* if router and nvram is available, fake successful orphan scan */
    366                  scanCnf.hdr.Status = ZSUCCESS;
    367                  scanCnf.ScanType = ZMAC_ORPHAN_SCAN;
    368                  scanCnf.UnscannedChannels = 0;
    369                  scanCnf.ResultListSize = 0;
    370                  nwk_ScanJoiningOrphan(&scanCnf);
    371          
    372                  ret = ZSuccess;
    373                }
    374                else
    375                {
    376                  devState = DEV_NWK_ORPHAN;
    377                  ret = NLME_OrphanJoinRequest( zgDefaultChannelList,
    378                                                zgDefaultStartingScanDuration );
    379                }
    380              }
    381              else
    382              {
    383          #if defined( LCD_SUPPORTED )
    384                HalLcdWriteScreen( "StartDevice ERR", "MODE unknown" );
    385          #endif
    386              }
    387            }
    388          
    389            if ( ret != ZSuccess )
   \   000050   6010         JZ      ??ZDO_StartDevice_3
    390            {
    391              osal_start_timerEx(ZDAppTaskID, ZDO_NETWORK_INIT, NWK_RETRY_DELAY );
   \                     ??ZDO_StartDevice_0:
   \   000052                ; Setup parameters for call to function osal_start_timerEx
   \   000052   7CE8         MOV     R4,#-0x18
   \   000054   7D03         MOV     R5,#0x3
   \   000056   7A01         MOV     R2,#0x1
   \   000058   7B00         MOV     R3,#0x0
   \   00005A   90....       MOV     DPTR,#ZDAppTaskID
   \   00005D   E0           MOVX    A,@DPTR
   \   00005E   F9           MOV     R1,A
   \   00005F   12....       LCALL   ??osal_start_timerEx?relay
    392            }
    393          }
   \                     ??ZDO_StartDevice_3:
   \   000062   02....       LJMP    ?Subroutine1 & 0xFFFF
   \                     ??ZDO_StartDevice_1:
   \   000065   7401         MOV     A,#0x1
   \   000067   65..         XRL     A,?V0 + 0
   \   000069   7010         JNZ     ??ZDO_StartDevice_4
   \   00006B   90....       MOV     DPTR,#devState
   \   00006E   7408         MOV     A,#0x8
   \   000070   F0           MOVX    @DPTR,A
   \   000071                ; Setup parameters for call to function NLME_StartRouterRequest
   \   000071   7B00         MOV     R3,#0x0
   \   000073   EE           MOV     A,R6
   \   000074   FA           MOV     R2,A
   \   000075   F9           MOV     R1,A
   \   000076   12....       LCALL   ??NLME_StartRouterRequest?relay
   \   000079   80D4         SJMP    ??ZDO_StartDevice_2
   \                     ??ZDO_StartDevice_4:
   \   00007B                ; Setup parameters for call to function HalLcdWriteScreen
   \   00007B   7C..         MOV     R4,#`?<Constant "MODE unknown">` & 0xff
   \   00007D   7D..         MOV     R5,#(`?<Constant "MODE unknown">` >> 8) & 0xff
   \   00007F   7A..         MOV     R2,#`?<Constant "StartDevice ERR">` & 0xff
   \   000081   7B..         MOV     R3,#(`?<Constant "StartDevice ERR">` >> 8) & 0xff
   \   000083   12....       LCALL   ??HalLcdWriteScreen?relay
   \   000086   80CA         SJMP    ??ZDO_StartDevice_0

   \                                 In  segment BANKED_CODE, align 1, keep-with-next
   \                     ??Subroutine195_0:
   \   000000   12....       LCALL   ??Subroutine212_0 & 0xFFFF
   \                     ??CrossCallReturnLabel_489:
   \   000003   22           RET

   \                                 In  segment BANKED_CODE, align 1, keep-with-next
   \                     ??Subroutine212_0:
   \   000000   12....       LCALL   ??Subroutine223_0 & 0xFFFF
   \                     ??CrossCallReturnLabel_568:
   \   000003   FB           MOV     R3,A
   \   000004   22           RET

   \                                 In  segment BANKED_CODE, align 1, keep-with-next
   \                     ?Subroutine1:
   \   000000   7F03         MOV     R7,#0x3
   \   000002   02....       LJMP    ?BANKED_LEAVE_XDATA

   \                                 In  segment BANKED_CODE, align 1, keep-with-next
   \                     ??Subroutine223_0:
   \   000000   E0           MOVX    A,@DPTR
   \   000001   FA           MOV     R2,A
   \   000002   A3           INC     DPTR
   \   000003   E0           MOVX    A,@DPTR
   \   000004   22           RET
    394          
    395          /**************************************************************************************************
    396           * @fn          zdoSendStateChangeMsg
    397           *
    398           * @brief       Helper function for ZDO_UpdateNwkStatus.
    399           *
    400           * input parameters
    401           *
    402           * @param       taskId - The OSAL task identifier to which to send the ZDO_STATE_CHANGE_EVT.
    403           * @param       state - The current device state.
    404           *
    405           * output parameters
    406           *
    407           * None.
    408           *
    409           * @return      None.
    410           **************************************************************************************************
    411           */
    412          static void zdoSendStateChangeMsg(uint8 state, uint8 taskId)
    413          {
    414            osal_event_hdr_t *pMsg = (osal_event_hdr_t *)osal_msg_find(taskId, ZDO_STATE_CHANGE);
    415          
    416            if (NULL == pMsg)
    417            {
    418              if (NULL == (pMsg = (osal_event_hdr_t *)osal_msg_allocate(sizeof(osal_event_hdr_t))))
    419              {
    420                // Upon failure to notify any EndPoint of the state change, re-set the ZDO event to
    421                // try again later when more Heap may be available.
    422                osal_set_event(ZDAppTaskID, ZDO_STATE_CHANGE_EVT);
    423              }
    424              else
    425              {
    426                pMsg->event = ZDO_STATE_CHANGE;
    427                pMsg->status = state;
    428          
    429                (void)osal_msg_send(taskId, (uint8 *)pMsg);
    430              }
    431            }
    432            else
    433            {
    434              // Modify in place the status of an existing ZDO_STATE_CHANGE message to the EndPoint.
    435              pMsg->status = state;
    436            }
    437          }
    438          
    439          /**************************************************************************************************
    440           * @fn          ZDO_UpdateNwkStatus
    441           *
    442           * @brief       This function sends a ZDO_STATE_CHANGE message to the task of every EndPoint
    443           *              registered with AF (except, of course, the ZDO_EP). Even if a single task has more
    444           *              than one registered EndPoint, it will only receive one notification per state
    445           *              change. Although the device may go through a sequence of state changes, the
    446           *              Application task may only receive notification of the final, steady-state state
    447           *              because it has the lowest priority and never even runs to receive the intermediate
    448           *              state change notifications.
    449           *
    450           * input parameters
    451           *
    452           * @param       state - The current device state.
    453           *
    454           * output parameters
    455           *
    456           * None.
    457           *
    458           * @return      None.
    459           **************************************************************************************************
    460           */

   \                                 In  segment BANKED_CODE, align 1, keep-with-next
    461          void ZDO_UpdateNwkStatus(devStates_t state)
   \                     ZDO_UpdateNwkStatus:
    462          {
   \   000000   74F4         MOV     A,#-0xc
   \   000002   12....       LCALL   ?BANKED_ENTER_XDATA
   \   000005                ; Saved register size: 12
   \   000005                ; Auto size: 0
   \   000005   89..         MOV     ?V0 + 1,R1
    463            epList_t *pItem = epList;
   \   000007   90....       MOV     DPTR,#epList
   \   00000A   E0           MOVX    A,@DPTR
   \   00000B   FE           MOV     R6,A
   \   00000C   A3           INC     DPTR
   \   00000D   E0           MOVX    A,@DPTR
   \   00000E   800B         SJMP    ??CrossCallReturnLabel_166
    464          
    465            while (pItem != NULL)
    466            {
    467              if (pItem->epDesc->endPoint != ZDO_EP)
    468              {
    469                zdoSendStateChangeMsg(state, *(pItem->epDesc->task_id));
   \                     ??ZDO_UpdateNwkStatus_0:
   \   000010   A3           INC     DPTR
   \   000011   E5..         MOV     A,?V0 + 1
   \   000013   F0           MOVX    @DPTR,A
    470              }
    471          
    472              pItem = pItem->nextDesc;
   \                     ??ZDO_UpdateNwkStatus_1:
   \   000014   8E82         MOV     DPL,R6
   \   000016   8F83         MOV     DPH,R7
   \   000018   12....       LCALL   ?Subroutine99 & 0xFFFF
   \                     ??CrossCallReturnLabel_166:
   \   00001B   FF           MOV     R7,A
   \   00001C   EE           MOV     A,R6
   \   00001D   4F           ORL     A,R7
   \   00001E   604B         JZ      ??ZDO_UpdateNwkStatus_2
   \   000020   8E82         MOV     DPL,R6
   \   000022   8F83         MOV     DPH,R7
   \   000024   12....       LCALL   ?Subroutine76 & 0xFFFF
   \                     ??CrossCallReturnLabel_271:
   \   000027   E0           MOVX    A,@DPTR
   \   000028   60EA         JZ      ??ZDO_UpdateNwkStatus_1
   \   00002A   A3           INC     DPTR
   \   00002B   12....       LCALL   ??Subroutine187_0 & 0xFFFF
    473            }
   \                     ??CrossCallReturnLabel_325:
   \   00002E   F5..         MOV     ?V0 + 0,A
   \   000030                ; Setup parameters for call to function osal_msg_find
   \   000030   7AD1         MOV     R2,#-0x2f
   \   000032   F9           MOV     R1,A
   \   000033   12....       LCALL   ??osal_msg_find?relay
   \   000036   8A82         MOV     DPL,R2
   \   000038   8B83         MOV     DPH,R3
   \   00003A   E582         MOV     A,DPL
   \   00003C   4583         ORL     A,DPH
   \   00003E   70D0         JNZ     ??ZDO_UpdateNwkStatus_0
   \   000040                ; Setup parameters for call to function osal_msg_allocate
   \   000040   7A02         MOV     R2,#0x2
   \   000042   7B00         MOV     R3,#0x0
   \   000044   12....       LCALL   ??osal_msg_allocate?relay
   \   000047   EA           MOV     A,R2
   \   000048   4B           ORL     A,R3
   \   000049   700E         JNZ     ??ZDO_UpdateNwkStatus_3
   \   00004B                ; Setup parameters for call to function osal_set_event
   \   00004B   7A10         MOV     R2,#0x10
   \   00004D   7B00         MOV     R3,#0x0
   \   00004F   90....       MOV     DPTR,#ZDAppTaskID
   \   000052   E0           MOVX    A,@DPTR
   \   000053   F9           MOV     R1,A
   \   000054   12....       LCALL   ??osal_set_event?relay
   \   000057   80BB         SJMP    ??ZDO_UpdateNwkStatus_1
   \                     ??ZDO_UpdateNwkStatus_3:
   \   000059   8A82         MOV     DPL,R2
   \   00005B   8B83         MOV     DPH,R3
   \   00005D   74D1         MOV     A,#-0x2f
   \   00005F   F0           MOVX    @DPTR,A
   \   000060   A3           INC     DPTR
   \   000061   E5..         MOV     A,?V0 + 1
   \   000063   F0           MOVX    @DPTR,A
   \   000064                ; Setup parameters for call to function osal_msg_send
   \   000064   A9..         MOV     R1,?V0 + 0
   \   000066   12....       LCALL   ??osal_msg_send?relay
   \   000069   80A9         SJMP    ??ZDO_UpdateNwkStatus_1
    474          #if defined MT_ZDO_CB_FUNC
    475            zdoSendStateChangeMsg(state, MT_TaskID);
    476          #endif
    477          
    478            ZDAppNwkAddr.addr.shortAddr = NLME_GetShortAddr();
   \                     ??ZDO_UpdateNwkStatus_2:
   \   00006B                ; Setup parameters for call to function NLME_GetShortAddr
   \   00006B   12....       LCALL   ??NLME_GetShortAddr?relay
   \   00006E   90....       MOV     DPTR,#ZDAppNwkAddr
   \   000071   12....       LCALL   ?Subroutine40 & 0xFFFF
    479            (void)NLME_GetExtAddr();  // Load the saveExtAddr pointer.
   \                     ??CrossCallReturnLabel_54:
   \   000074                ; Setup parameters for call to function NLME_GetExtAddr
   \   000074   12....       LCALL   ??NLME_GetExtAddr?relay
    480          }
   \   000077                REQUIRE ?Subroutine2
   \   000077                ; // Fall through to label ?Subroutine2

   \                                 In  segment BANKED_CODE, align 1, keep-with-next
   \                     ?Subroutine2:
   \   000000   7F04         MOV     R7,#0x4
   \   000002   02....       LJMP    ?BANKED_LEAVE_XDATA

   \                                 In  segment BANKED_CODE, align 1, keep-with-next
   \                     ?Subroutine76:
   \   000000   A3           INC     DPTR
   \   000001   A3           INC     DPTR
   \   000002                REQUIRE ??Subroutine173_0
   \   000002                ; // Fall through to label ??Subroutine173_0

   \                                 In  segment BANKED_CODE, align 1, keep-with-next
   \                     ??Subroutine173_0:
   \   000000   E0           MOVX    A,@DPTR
   \   000001                REQUIRE ??Subroutine174_0
   \   000001                ; // Fall through to label ??Subroutine174_0

   \                                 In  segment BANKED_CODE, align 1, keep-with-next
   \                     ??Subroutine174_0:
   \   000000   F8           MOV     R0,A
   \   000001   A3           INC     DPTR
   \   000002   E0           MOVX    A,@DPTR
   \   000003   F9           MOV     R1,A
   \   000004   8882         MOV     DPL,R0
   \   000006   8983         MOV     DPH,R1
   \   000008   22           RET

   \                                 In  segment BANKED_CODE, align 1, keep-with-next
   \                     ?Subroutine144:
   \   000000   12....       LCALL   ??Subroutine200_0 & 0xFFFF
   \                     ??CrossCallReturnLabel_484:
   \   000003   F9           MOV     R1,A
   \   000004   22           RET

   \                                 In  segment BANKED_CODE, align 1, keep-with-next
   \                     ??Subroutine187_0:
   \   000000   12....       LCALL   ?Subroutine147 & 0xFFFF
   \                     ??CrossCallReturnLabel_330:
   \   000003   22           RET

   \                                 In  segment BANKED_CODE, align 1, keep-with-next
   \                     ?Subroutine147:
   \   000000   12....       LCALL   ?Subroutine166 & 0xFFFF
   \                     ??CrossCallReturnLabel_332:
   \   000003   E0           MOVX    A,@DPTR
   \   000004   22           RET

   \                                 In  segment BANKED_CODE, align 1, keep-with-next
   \                     ?Subroutine166:
   \   000000   E0           MOVX    A,@DPTR
   \   000001   F8           MOV     R0,A
   \   000002   A3           INC     DPTR
   \   000003   E0           MOVX    A,@DPTR
   \   000004   F583         MOV     DPH,A
   \   000006   8882         MOV     DPL,R0
   \   000008   22           RET

   \                                 In  segment BANKED_CODE, align 1, keep-with-next
   \                     ?Subroutine40:
   \   000000   EA           MOV     A,R2
   \   000001   F0           MOVX    @DPTR,A
   \   000002   A3           INC     DPTR
   \   000003   EB           MOV     A,R3
   \   000004   F0           MOVX    @DPTR,A
   \   000005   22           RET

   \                                 In  segment BANKED_CODE, align 1, keep-with-next
   \                     ??Subroutine200_0:
   \   000000   E0           MOVX    A,@DPTR
   \   000001   F8           MOV     R0,A
   \   000002   A3           INC     DPTR
   \   000003   E0           MOVX    A,@DPTR
   \   000004   22           RET

   \                                 In  segment BANKED_CODE, align 1, keep-with-next
   \                     ?Subroutine99:
   \   000000   12....       LCALL   ?Subroutine144 & 0xFFFF
   \                     ??CrossCallReturnLabel_430:
   \   000003   E8           MOV     A,R0
   \   000004   FE           MOV     R6,A
   \   000005   E9           MOV     A,R1
   \   000006   22           RET
    481          
    482          #if defined ( REFLECTOR )
    483          /*********************************************************************
    484           * @fn          ZDO_RemoveEndDeviceBind
    485           *
    486           * @brief       Remove the end device bind
    487           *
    488           * @param  none
    489           *
    490           * @return      none
    491           */
    492          static void ZDO_RemoveEndDeviceBind( void )
    493          {
    494            if ( ZDO_EDBind != NULL )
    495            {
    496              // Free the RAM
    497              if ( ZDO_EDBind->inClusters != NULL )
    498              {
    499                osal_mem_free( ZDO_EDBind->inClusters );
    500              }
    501              if ( ZDO_EDBind->outClusters != NULL )
    502              {
    503                osal_mem_free( ZDO_EDBind->outClusters );
    504              }
    505              osal_mem_free( ZDO_EDBind );
    506              ZDO_EDBind = NULL;
    507            }
    508          }
    509          #endif // REFLECTOR
    510          
    511          #if defined ( REFLECTOR )
    512          /*********************************************************************
    513           * @fn          ZDO_RemoveEndDeviceBind
    514           *
    515           * @brief       Remove the end device bind
    516           *
    517           * @param  none
    518           *
    519           * @return      none
    520           */
    521          static void ZDO_SendEDBindRsp( byte TransSeq, zAddrType_t *dstAddr, byte Status, byte secUse )
    522          {
    523            ZDP_EndDeviceBindRsp( TransSeq, dstAddr, Status, secUse );
    524          
    525          #if defined( LCD_SUPPORTED )
    526            HalLcdWriteString( "End Device Bind", HAL_LCD_LINE_1 );
    527            if ( Status == ZDP_SUCCESS )
    528            {
    529              HalLcdWriteString( "Success Sent", HAL_LCD_LINE_2 );
    530            }
    531            else
    532            {
    533              HalLcdWriteString( "Timeout", HAL_LCD_LINE_2 );
    534            }
    535          #endif
    536          
    537          }
    538          #endif // REFLECTOR
    539          
    540          /*********************************************************************
    541           * @fn          ZDO_CompareClusterLists
    542           *
    543           * @brief       Compare one list to another list
    544           *
    545           * @param       numList1 - number of items in list 1
    546           * @param       list1 - first list of cluster IDs
    547           * @param       numList2 - number of items in list 2
    548           * @param       list2 - second list of cluster IDs
    549           * @param       pMatches - buffer to put matches
    550           *
    551           * @return      number of matches
    552           */

   \                                 In  segment BANKED_CODE, align 1, keep-with-next
    553          static byte ZDO_CompareClusterLists( byte numList1, uint16 *list1,
   \                     ZDO_CompareClusterLists:
    554                                    byte numList2, uint16 *list2, uint16 *pMatches )
    555          {
   \   000000   74F1         MOV     A,#-0xf
   \   000002   12....       LCALL   ?BANKED_ENTER_XDATA
   \   000005                ; Saved register size: 15
   \   000005                ; Auto size: 0
   \   000005   89..         MOV     ?V0 + 2,R1
   \   000007   8C..         MOV     ?V0 + 0,R4
    556            byte x, y;
    557            uint16 z;
    558            byte numMatches = 0;
   \   000009   75..00       MOV     ?V0 + 1,#0x0
    559          
    560            // Check the first in against the seconds out
    561            for ( x = 0; x < numList1; x++ )
   \   00000C   75..00       MOV     ?V0 + 3,#0x0
   \   00000F   740F         MOV     A,#0xf
   \   000011   12....       LCALL   ?XSTACK_DISP0_8
   \   000014   12....       LCALL   ??Subroutine186_0 & 0xFFFF
   \                     ??CrossCallReturnLabel_312:
   \   000017   7411         MOV     A,#0x11
   \   000019   12....       LCALL   ?XSTACK_DISP0_8
   \   00001C   12....       LCALL   ?Subroutine146 & 0xFFFF
   \                     ??CrossCallReturnLabel_237:
   \   00001F   804A         SJMP    ??ZDO_CompareClusterLists_0
    562            {
    563              for ( y = 0; y < numList2; y++ )
    564              {
    565                z = list2[y];
   \                     ??ZDO_CompareClusterLists_1:
   \   000021   E5..         MOV     A,?V0 + 6
   \   000023   12....       LCALL   ?Subroutine106 & 0xFFFF
   \                     ??CrossCallReturnLabel_177:
   \   000026   F5..         MOV     ?V0 + 4,A
   \   000028   A3           INC     DPTR
   \   000029   E0           MOVX    A,@DPTR
   \   00002A   F5..         MOV     ?V0 + 5,A
    566                if ( list1[x] == z )
   \   00002C   E5..         MOV     A,?V0 + 3
   \   00002E   C3           CLR     C
   \   00002F   33           RLC     A
   \   000030   FE           MOV     R6,A
   \   000031   E4           CLR     A
   \   000032   33           RLC     A
   \   000033   FF           MOV     R7,A
   \   000034   EA           MOV     A,R2
   \   000035   2E           ADD     A,R6
   \   000036   F582         MOV     DPL,A
   \   000038   EB           MOV     A,R3
   \   000039   3F           ADDC    A,R7
   \   00003A   F583         MOV     DPH,A
   \   00003C   E0           MOVX    A,@DPTR
   \   00003D   65..         XRL     A,?V0 + 4
   \   00003F   7004         JNZ     ??ZDO_CompareClusterLists_2
   \   000041   A3           INC     DPTR
   \   000042   E0           MOVX    A,@DPTR
   \   000043   65..         XRL     A,?V0 + 5
   \                     ??ZDO_CompareClusterLists_2:
   \   000045   7019         JNZ     ??ZDO_CompareClusterLists_3
    567                {
    568                  pMatches[numMatches++] = z;
   \   000047   E5..         MOV     A,?V0 + 1
   \   000049   C3           CLR     C
   \   00004A   33           RLC     A
   \   00004B   FE           MOV     R6,A
   \   00004C   E4           CLR     A
   \   00004D   33           RLC     A
   \   00004E   FF           MOV     R7,A
   \   00004F   EC           MOV     A,R4
   \   000050   2E           ADD     A,R6
   \   000051   F582         MOV     DPL,A
   \   000053   ED           MOV     A,R5
   \   000054   3F           ADDC    A,R7
   \   000055   F583         MOV     DPH,A
   \   000057   E5..         MOV     A,?V0 + 4
   \   000059   F0           MOVX    @DPTR,A
   \   00005A   A3           INC     DPTR
   \   00005B   E5..         MOV     A,?V0 + 5
   \   00005D   F0           MOVX    @DPTR,A
   \   00005E   05..         INC     ?V0 + 1
    569                }
    570              }
   \                     ??ZDO_CompareClusterLists_3:
   \   000060   05..         INC     ?V0 + 6
   \                     ??ZDO_CompareClusterLists_4:
   \   000062   E5..         MOV     A,?V0 + 6
   \   000064   C3           CLR     C
   \   000065   95..         SUBB    A,?V0 + 0
   \   000067   40B8         JC      ??ZDO_CompareClusterLists_1
   \   000069   05..         INC     ?V0 + 3
   \                     ??ZDO_CompareClusterLists_0:
   \   00006B   E5..         MOV     A,?V0 + 3
   \   00006D   C3           CLR     C
   \   00006E   95..         SUBB    A,?V0 + 2
   \   000070   5005         JNC     ??ZDO_CompareClusterLists_5
   \   000072   75..00       MOV     ?V0 + 6,#0x0
   \   000075   80EB         SJMP    ??ZDO_CompareClusterLists_4
    571            }
    572          
    573            return ( numMatches );
   \                     ??ZDO_CompareClusterLists_5:
   \   000077   A9..         MOV     R1,?V0 + 1
   \   000079   02....       LJMP    ??Subroutine191_0 & 0xFFFF
    574          }

   \                                 In  segment BANKED_CODE, align 1, keep-with-next
   \                     ?Subroutine106:
   \   000000   C3           CLR     C
   \   000001   33           RLC     A
   \   000002   FE           MOV     R6,A
   \   000003   E4           CLR     A
   \   000004   33           RLC     A
   \   000005   FF           MOV     R7,A
   \   000006   E8           MOV     A,R0
   \   000007   2E           ADD     A,R6
   \   000008   F582         MOV     DPL,A
   \   00000A   E9           MOV     A,R1
   \   00000B   3F           ADDC    A,R7
   \   00000C   F583         MOV     DPH,A
   \   00000E   E0           MOVX    A,@DPTR
   \   00000F   22           RET

   \                                 In  segment BANKED_CODE, align 1, keep-with-next
   \                     ?Subroutine146:
   \   000000   E0           MOVX    A,@DPTR
   \   000001   FC           MOV     R4,A
   \   000002   A3           INC     DPTR
   \   000003   E0           MOVX    A,@DPTR
   \   000004   FD           MOV     R5,A
   \   000005   22           RET

   \                                 In  segment BANKED_CODE, align 1, keep-with-next
   \                     ??Subroutine186_0:
   \   000000   12....       LCALL   ?Subroutine144 & 0xFFFF
   \                     ??CrossCallReturnLabel_431:
   \   000003   22           RET

   \                                 In  segment BANKED_CODE, align 1, keep-with-next
   \                     ??Subroutine191_0:
   \   000000   7F07         MOV     R7,#0x7
   \   000002   02....       LJMP    ?BANKED_LEAVE_XDATA
    575          
    576          /*********************************************************************
    577           * Utility functions
    578           */
    579          
    580          /*********************************************************************
    581           * @fn          ZDO_CompareByteLists
    582           *
    583           * @brief       Compares two lists for matches.
    584           *
    585           * @param       ACnt  - number of entries in list A
    586           * @param       AList  - List A
    587           * @param       BCnt  - number of entries in list B
    588           * @param       BList  - List B
    589           *
    590           * @return      true if a match is found
    591           */

   \                                 In  segment BANKED_CODE, align 1, keep-with-next
    592          byte ZDO_AnyClusterMatches( byte ACnt, uint16 *AList, byte BCnt, uint16 *BList )
   \                     ZDO_AnyClusterMatches:
    593          {
   \   000000   74F4         MOV     A,#-0xc
   \   000002   12....       LCALL   ?BANKED_ENTER_XDATA
   \   000005                ; Saved register size: 12
   \   000005                ; Auto size: 0
   \   000005   89..         MOV     ?V0 + 3,R1
    594            byte x, y;
    595          
    596            for ( x = 0; x < ACnt; x++ )
   \   000007   7D00         MOV     R5,#0x0
   \   000009   740C         MOV     A,#0xc
   \   00000B   12....       LCALL   ?XSTACK_DISP0_8
   \   00000E   12....       LCALL   ??Subroutine186_0 & 0xFFFF
   \                     ??CrossCallReturnLabel_313:
   \   000011   8001         SJMP    ??ZDO_AnyClusterMatches_0
   \                     ??ZDO_AnyClusterMatches_1:
   \   000013   0D           INC     R5
   \                     ??ZDO_AnyClusterMatches_0:
   \   000014   ED           MOV     A,R5
   \   000015   C3           CLR     C
   \   000016   95..         SUBB    A,?V0 + 3
   \   000018   5034         JNC     ??ZDO_AnyClusterMatches_2
    597            {
    598              for ( y = 0; y < BCnt; y++ )
   \   00001A   75..00       MOV     ?V0 + 2,#0x0
   \   00001D   8002         SJMP    ??ZDO_AnyClusterMatches_3
   \                     ??ZDO_AnyClusterMatches_4:
   \   00001F   05..         INC     ?V0 + 2
   \                     ??ZDO_AnyClusterMatches_3:
   \   000021   E5..         MOV     A,?V0 + 2
   \   000023   C3           CLR     C
   \   000024   9C           SUBB    A,R4
   \   000025   50EC         JNC     ??ZDO_AnyClusterMatches_1
    599              {
    600                if ( AList[x] == BList[y] )
   \   000027   ED           MOV     A,R5
   \   000028   C3           CLR     C
   \   000029   33           RLC     A
   \   00002A   FE           MOV     R6,A
   \   00002B   E4           CLR     A
   \   00002C   33           RLC     A
   \   00002D   FF           MOV     R7,A
   \   00002E   EA           MOV     A,R2
   \   00002F   2E           ADD     A,R6
   \   000030   F582         MOV     DPL,A
   \   000032   EB           MOV     A,R3
   \   000033   3F           ADDC    A,R7
   \   000034   F583         MOV     DPH,A
   \   000036   12....       LCALL   ?Subroutine91 & 0xFFFF
   \                     ??CrossCallReturnLabel_150:
   \   000039   F5..         MOV     ?V0 + 1,A
   \   00003B   E5..         MOV     A,?V0 + 2
   \   00003D   12....       LCALL   ?Subroutine106 & 0xFFFF
   \                     ??CrossCallReturnLabel_178:
   \   000040   65..         XRL     A,?V0 + 0
   \   000042   7004         JNZ     ??ZDO_AnyClusterMatches_5
   \   000044   A3           INC     DPTR
   \   000045   E0           MOVX    A,@DPTR
   \   000046   65..         XRL     A,?V0 + 1
   \                     ??ZDO_AnyClusterMatches_5:
   \   000048   70D5         JNZ     ??ZDO_AnyClusterMatches_4
    601                {
    602                  return true;
   \   00004A   7901         MOV     R1,#0x1
   \   00004C   8002         SJMP    ??ZDO_AnyClusterMatches_6
    603                }
    604              }
    605            }
    606          
    607            return false;
   \                     ??ZDO_AnyClusterMatches_2:
   \   00004E   7900         MOV     R1,#0x0
   \                     ??ZDO_AnyClusterMatches_6:
   \   000050   02....       LJMP    ?Subroutine2 & 0xFFFF
    608          }

   \                                 In  segment BANKED_CODE, align 1, keep-with-next
   \                     ?Subroutine91:
   \   000000   E0           MOVX    A,@DPTR
   \   000001   F5..         MOV     ?V0 + 0,A
   \   000003   A3           INC     DPTR
   \   000004   E0           MOVX    A,@DPTR
   \   000005   22           RET
    609          
    610          /*********************************************************************
    611           * Callback functions from ZDProfile
    612           */
    613          
    614          /*********************************************************************
    615           * @fn          ZDO_ProcessNodeDescReq
    616           *
    617           * @brief       This function processes and responds to the
    618           *              Node_Desc_req message.
    619           *
    620           * @param       inMsg - incoming message
    621           *
    622           * @return      none
    623           */

   \                                 In  segment BANKED_CODE, align 1, keep-with-next
    624          void ZDO_ProcessNodeDescReq( zdoIncomingMsg_t *inMsg )
   \                     ZDO_ProcessNodeDescReq:
    625          {
   \   000000   74F6         MOV     A,#-0xa
   \   000002   12....       LCALL   ?BANKED_ENTER_XDATA
   \   000005                ; Saved register size: 10
   \   000005                ; Auto size: 0
   \   000005   12....       LCALL   ?Subroutine59 & 0xFFFF
    626            uint16 aoi = BUILD_UINT16( inMsg->asdu[0], inMsg->asdu[1] );
    627            NodeDescriptorFormat_t *desc = NULL;
    628          
    629            if ( aoi == ZDAppNwkAddr.addr.shortAddr )
   \                     ??CrossCallReturnLabel_99:
   \   000008   7003         JNZ     ??ZDO_ProcessNodeDescReq_0
   \   00000A   A3           INC     DPTR
   \   00000B   E0           MOVX    A,@DPTR
   \   00000C   6D           XRL     A,R5
   \                     ??ZDO_ProcessNodeDescReq_0:
   \   00000D   7017         JNZ     ??ZDO_ProcessNodeDescReq_1
    630            {
    631              desc = &ZDO_Config_Node_Descriptor;
    632            }
    633          
    634            if ( desc != NULL )
    635            {
    636              ZDP_NodeDescMsg( inMsg, aoi, desc );
   \   00000F                ; Setup parameters for call to function ZDP_NodeDescMsg
   \   00000F   75....       MOV     ?V0 + 0,#ZDO_Config_Node_Descriptor & 0xff
   \   000012   75....       MOV     ?V0 + 1,#(ZDO_Config_Node_Descriptor >> 8) & 0xff
   \   000015   78..         MOV     R0,#?V0 + 0
   \   000017   12....       LCALL   ?PUSH_XSTACK_I_TWO
   \   00001A   EE           MOV     A,R6
   \   00001B   FA           MOV     R2,A
   \   00001C   12....       LCALL   ??ZDP_NodeDescMsg?relay
   \   00001F   7402         MOV     A,#0x2
   \   000021   12....       LCALL   ?DEALLOC_XSTACK8
   \   000024   801F         SJMP    ??ZDO_ProcessNodeDescReq_2
    637            }
    638            else
    639            {
    640              ZDP_GenericRsp( inMsg->TransSeq, &(inMsg->srcAddr),
    641                        ZDP_INVALID_REQTYPE, aoi, Node_Desc_rsp, inMsg->SecurityUse );
   \                     ??ZDO_ProcessNodeDescReq_1:
   \   000026                ; Setup parameters for call to function ZDP_GenericRsp
   \   000026   75..02       MOV     ?V0 + 0,#0x2
   \   000029   75..80       MOV     ?V0 + 1,#-0x80
   \   00002C   78..         MOV     R0,#?V0 + 0
   \   00002E   12....       LCALL   ?PUSH_XSTACK_I_TWO
   \   000031   8C..         MOV     ?V0 + 0,R4
   \   000033   8D..         MOV     ?V0 + 1,R5
   \   000035   78..         MOV     R0,#?V0 + 0
   \   000037   12....       LCALL   ?PUSH_XSTACK_I_TWO
   \   00003A   12....       LCALL   ?Subroutine62 & 0xFFFF
    642            }
   \                     ??CrossCallReturnLabel_103:
   \   00003D   12....       LCALL   ??ZDP_GenericRsp?relay
   \   000040   7404         MOV     A,#0x4
   \   000042   12....       LCALL   ?DEALLOC_XSTACK8
    643          }
   \                     ??ZDO_ProcessNodeDescReq_2:
   \   000045   80..         SJMP    ??Subroutine176_0

   \                                 In  segment BANKED_CODE, align 1, keep-with-next
   \                     ?Subroutine62:
   \   000000   EE           MOV     A,R6
   \   000001   12....       LCALL   ??Subroutine201_0 & 0xFFFF
   \                     ??CrossCallReturnLabel_420:
   \   000004   EF           MOV     A,R7
   \   000005   12....       LCALL   ??Subroutine205_0 & 0xFFFF
   \                     ??CrossCallReturnLabel_435:
   \   000008   FD           MOV     R5,A
   \   000009   7C80         MOV     R4,#-0x80
   \   00000B   12....       LCALL   ?Subroutine159 & 0xFFFF
   \                     ??CrossCallReturnLabel_251:
   \   00000E   EE           MOV     A,R6
   \   00000F   240F         ADD     A,#0xf
   \   000011   F582         MOV     DPL,A
   \   000013   EF           MOV     A,R7
   \   000014   12....       LCALL   ?Subroutine153 & 0xFFFF
   \                     ??CrossCallReturnLabel_368:
   \   000017   22           RET

   \                                 In  segment BANKED_CODE, align 1, keep-with-next
   \                     ?Subroutine59:
   \   000000   EA           MOV     A,R2
   \   000001   FE           MOV     R6,A
   \   000002   EB           MOV     A,R3
   \   000003   FF           MOV     R7,A
   \   000004   12....       LCALL   ?Subroutine137 & 0xFFFF
   \                     ??CrossCallReturnLabel_221:
   \   000007   FC           MOV     R4,A
   \   000008   E4           CLR     A
   \   000009   39           ADDC    A,R1
   \   00000A   FD           MOV     R5,A
   \   00000B   90....       MOV     DPTR,#ZDAppNwkAddr
   \   00000E   E0           MOVX    A,@DPTR
   \   00000F   6C           XRL     A,R4
   \   000010   22           RET

   \                                 In  segment BANKED_CODE, align 1, keep-with-next
   \                     ??Subroutine176_0:
   \   000000   7F02         MOV     R7,#0x2
   \   000002   02....       LJMP    ?BANKED_LEAVE_XDATA

   \                                 In  segment BANKED_CODE, align 1, keep-with-next
   \                     ?Subroutine159:
   \   000000   EE           MOV     A,R6
   \   000001   2402         ADD     A,#0x2
   \   000003   FA           MOV     R2,A
   \   000004   EF           MOV     A,R7
   \   000005   3400         ADDC    A,#0x0
   \   000007   FB           MOV     R3,A
   \   000008   22           RET

   \                                 In  segment BANKED_CODE, align 1, keep-with-next
   \                     ?Subroutine137:
   \   000000   EE           MOV     A,R6
   \   000001   12....       LCALL   ??Subroutine214_0 & 0xFFFF
   \                     ??CrossCallReturnLabel_539:
   \   000004   EF           MOV     A,R7
   \   000005   12....       LCALL   ?Subroutine164 & 0xFFFF
   \                     ??CrossCallReturnLabel_261:
   \   000008   FA           MOV     R2,A
   \   000009   A3           INC     DPTR
   \   00000A   E0           MOVX    A,@DPTR
   \   00000B   F9           MOV     R1,A
   \   00000C   EA           MOV     A,R2
   \   00000D   2400         ADD     A,#0x0
   \   00000F   22           RET

   \                                 In  segment BANKED_CODE, align 1, keep-with-next
   \                     ?Subroutine153:
   \   000000   12....       LCALL   ??Subroutine213_0 & 0xFFFF
   \                     ??CrossCallReturnLabel_606:
   \   000003   E0           MOVX    A,@DPTR
   \   000004   F9           MOV     R1,A
   \   000005   22           RET

   \                                 In  segment BANKED_CODE, align 1, keep-with-next
   \                     ??Subroutine201_0:
   \   000000   240E         ADD     A,#0xe
   \   000002   F582         MOV     DPL,A
   \   000004   22           RET

   \                                 In  segment BANKED_CODE, align 1, keep-with-next
   \                     ??Subroutine205_0:
   \   000000   12....       LCALL   ??Subroutine213_0 & 0xFFFF
   \                     ??CrossCallReturnLabel_607:
   \   000003   E0           MOVX    A,@DPTR
   \   000004   22           RET

   \                                 In  segment BANKED_CODE, align 1, keep-with-next
   \                     ??Subroutine213_0:
   \   000000   3400         ADDC    A,#0x0
   \   000002   F583         MOV     DPH,A
   \   000004   22           RET

   \                                 In  segment BANKED_CODE, align 1, keep-with-next
   \                     ??Subroutine214_0:
   \   000000   2413         ADD     A,#0x13
   \   000002   F582         MOV     DPL,A
   \   000004   22           RET

   \                                 In  segment BANKED_CODE, align 1, keep-with-next
   \                     ?Subroutine164:
   \   000000   3400         ADDC    A,#0x0
   \   000002   F583         MOV     DPH,A
   \   000004   E0           MOVX    A,@DPTR
   \   000005   F8           MOV     R0,A
   \   000006   A3           INC     DPTR
   \   000007   E0           MOVX    A,@DPTR
   \   000008   F9           MOV     R1,A
   \   000009   8882         MOV     DPL,R0
   \   00000B   8983         MOV     DPH,R1
   \   00000D   E0           MOVX    A,@DPTR
   \   00000E   22           RET
    644          
    645          /*********************************************************************
    646           * @fn          ZDO_ProcessPowerDescReq
    647           *
    648           * @brief       This function processes and responds to the
    649           *              Node_Power_req message.
    650           *
    651           * @param       inMsg  - incoming request
    652           *
    653           * @return      none
    654           */

   \                                 In  segment BANKED_CODE, align 1, keep-with-next
    655          void ZDO_ProcessPowerDescReq( zdoIncomingMsg_t *inMsg )
   \                     ZDO_ProcessPowerDescReq:
    656          {
   \   000000   74F6         MOV     A,#-0xa
   \   000002   12....       LCALL   ?BANKED_ENTER_XDATA
   \   000005                ; Saved register size: 10
   \   000005                ; Auto size: 0
   \   000005   12....       LCALL   ?Subroutine59 & 0xFFFF
    657            uint16 aoi = BUILD_UINT16( inMsg->asdu[0], inMsg->asdu[1] );
    658            NodePowerDescriptorFormat_t *desc = NULL;
    659          
    660            if ( aoi == ZDAppNwkAddr.addr.shortAddr )
   \                     ??CrossCallReturnLabel_100:
   \   000008   7003         JNZ     ??ZDO_ProcessPowerDescReq_0
   \   00000A   A3           INC     DPTR
   \   00000B   E0           MOVX    A,@DPTR
   \   00000C   6D           XRL     A,R5
   \                     ??ZDO_ProcessPowerDescReq_0:
   \   00000D   7017         JNZ     ??ZDO_ProcessPowerDescReq_1
    661            {
    662              desc = &ZDO_Config_Power_Descriptor;
    663            }
    664          
    665            if ( desc != NULL )
    666            {
    667              ZDP_PowerDescMsg( inMsg, aoi, desc );
   \   00000F                ; Setup parameters for call to function ZDP_PowerDescMsg
   \   00000F   75....       MOV     ?V0 + 0,#ZDO_Config_Power_Descriptor & 0xff
   \   000012   75....       MOV     ?V0 + 1,#(ZDO_Config_Power_Descriptor >> 8) & 0xff
   \   000015   78..         MOV     R0,#?V0 + 0
   \   000017   12....       LCALL   ?PUSH_XSTACK_I_TWO
   \   00001A   EE           MOV     A,R6
   \   00001B   FA           MOV     R2,A
   \   00001C   12....       LCALL   ??ZDP_PowerDescMsg?relay
   \   00001F   7402         MOV     A,#0x2
   \   000021   12....       LCALL   ?DEALLOC_XSTACK8
   \   000024   801F         SJMP    ??ZDO_ProcessPowerDescReq_2
    668            }
    669            else
    670            {
    671              ZDP_GenericRsp( inMsg->TransSeq, &(inMsg->srcAddr),
    672                        ZDP_INVALID_REQTYPE, aoi, Power_Desc_rsp, inMsg->SecurityUse );
   \                     ??ZDO_ProcessPowerDescReq_1:
   \   000026                ; Setup parameters for call to function ZDP_GenericRsp
   \   000026   75..03       MOV     ?V0 + 0,#0x3
   \   000029   75..80       MOV     ?V0 + 1,#-0x80
   \   00002C   78..         MOV     R0,#?V0 + 0
   \   00002E   12....       LCALL   ?PUSH_XSTACK_I_TWO
   \   000031   8C..         MOV     ?V0 + 0,R4
   \   000033   8D..         MOV     ?V0 + 1,R5
   \   000035   78..         MOV     R0,#?V0 + 0
   \   000037   12....       LCALL   ?PUSH_XSTACK_I_TWO
   \   00003A   12....       LCALL   ?Subroutine62 & 0xFFFF
    673            }
   \                     ??CrossCallReturnLabel_104:
   \   00003D   12....       LCALL   ??ZDP_GenericRsp?relay
   \   000040   7404         MOV     A,#0x4
   \   000042   12....       LCALL   ?DEALLOC_XSTACK8
    674          }
   \                     ??ZDO_ProcessPowerDescReq_2:
   \   000045   80..         SJMP    ??Subroutine176_0
    675          
    676          /*********************************************************************
    677           * @fn          ZDO_ProcessSimpleDescReq
    678           *
    679           * @brief       This function processes and responds to the
    680           *              Simple_Desc_req message.
    681           *
    682           * @param       inMsg - incoming message (request)
    683           *
    684           * @return      none
    685           */

   \                                 In  segment BANKED_CODE, align 1, keep-with-next
   \                     ?Subroutine4:
   \   000000   7402         MOV     A,#0x2
   \   000002                REQUIRE ??Subroutine175_0
   \   000002                ; // Fall through to label ??Subroutine175_0

   \                                 In  segment BANKED_CODE, align 1, keep-with-next
   \                     ??Subroutine175_0:
   \   000000   12....       LCALL   ?DEALLOC_XSTACK8
   \   000003                REQUIRE ??Subroutine176_0
   \   000003                ; // Fall through to label ??Subroutine176_0

   \                                 In  segment BANKED_CODE, align 1, keep-with-next
    686          void ZDO_ProcessSimpleDescReq( zdoIncomingMsg_t *inMsg )
   \                     ZDO_ProcessSimpleDescReq:
    687          {
   \   000000   74F6         MOV     A,#-0xa
   \   000002   12....       LCALL   ?BANKED_ENTER_XDATA
   \   000005                ; Saved register size: 10
   \   000005                ; Auto size: 2
   \   000005   74FE         MOV     A,#-0x2
   \   000007   12....       LCALL   ?ALLOC_XSTACK8
   \   00000A   EA           MOV     A,R2
   \   00000B   FE           MOV     R6,A
   \   00000C   EB           MOV     A,R3
   \   00000D   FF           MOV     R7,A
    688            SimpleDescriptionFormat_t *sDesc = NULL;
   \   00000E   85..82       MOV     DPL,?XSP + 0
   \   000011   85..83       MOV     DPH,?XSP + 1
   \   000014   E4           CLR     A
   \   000015   F0           MOVX    @DPTR,A
   \   000016   A3           INC     DPTR
   \   000017   F0           MOVX    @DPTR,A
    689            uint16 aoi = BUILD_UINT16( inMsg->asdu[0], inMsg->asdu[1] );
   \   000018   12....       LCALL   ??Subroutine219_0 & 0xFFFF
   \                     ??CrossCallReturnLabel_537:
   \   00001B   EF           MOV     A,R7
   \   00001C   12....       LCALL   ?Subroutine72 & 0xFFFF
   \                     ??CrossCallReturnLabel_120:
   \   00001F   FA           MOV     R2,A
    690            byte endPoint = inMsg->asdu[2];
   \   000020   8882         MOV     DPL,R0
   \   000022   8983         MOV     DPH,R1
   \   000024   A3           INC     DPTR
   \   000025   A3           INC     DPTR
   \   000026   E0           MOVX    A,@DPTR
   \   000027   F9           MOV     R1,A
    691            byte free = false;
   \   000028   75..00       MOV     ?V0 + 1,#0x0
    692            byte stat = ZDP_SUCCESS;
   \   00002B   75..00       MOV     ?V0 + 0,#0x0
    693          
    694            if ( (endPoint == ZDO_EP) || (endPoint > MAX_ENDPOINTS) )
   \   00002E   6005         JZ      ??ZDO_ProcessSimpleDescReq_0
   \   000030   C3           CLR     C
   \   000031   94F1         SUBB    A,#-0xf
   \   000033   4005         JC      ??ZDO_ProcessSimpleDescReq_1
    695            {
    696              stat = ZDP_INVALID_EP;
   \                     ??ZDO_ProcessSimpleDescReq_0:
   \   000035   75..82       MOV     ?V0 + 0,#-0x7e
   \   000038   8029         SJMP    ??ZDO_ProcessSimpleDescReq_2
    697            }
    698            else if ( aoi == ZDAppNwkAddr.addr.shortAddr )
   \                     ??ZDO_ProcessSimpleDescReq_1:
   \   00003A   90....       MOV     DPTR,#ZDAppNwkAddr
   \   00003D   E0           MOVX    A,@DPTR
   \   00003E   6A           XRL     A,R2
   \   00003F   7003         JNZ     ??ZDO_ProcessSimpleDescReq_3
   \   000041   A3           INC     DPTR
   \   000042   E0           MOVX    A,@DPTR
   \   000043   6B           XRL     A,R3
   \                     ??ZDO_ProcessSimpleDescReq_3:
   \   000044   701A         JNZ     ??ZDO_ProcessSimpleDescReq_4
    699            {
    700              free = afFindSimpleDesc( &sDesc, endPoint );
   \   000046                ; Setup parameters for call to function afFindSimpleDesc
   \   000046   85..82       MOV     DPL,?XSP + 0
   \   000049   85..83       MOV     DPH,?XSP + 1
   \   00004C   AA82         MOV     R2,DPL
   \   00004E   AB83         MOV     R3,DPH
   \   000050   12....       LCALL   ??afFindSimpleDesc?relay
   \   000053   E9           MOV     A,R1
   \   000054   F5..         MOV     ?V0 + 1,A
    701              if ( sDesc == NULL )
   \   000056   12....       LCALL   ?Subroutine54 & 0xFFFF
   \                     ??CrossCallReturnLabel_408:
   \   000059   7008         JNZ     ??ZDO_ProcessSimpleDescReq_2
    702              {
    703                stat = ZDP_NOT_ACTIVE;
   \   00005B   75..83       MOV     ?V0 + 0,#-0x7d
   \   00005E   8003         SJMP    ??ZDO_ProcessSimpleDescReq_2
    704              }
    705            }
    706            else
    707            {
    708              if ( ZSTACK_ROUTER_BUILD )
    709              {
    710                stat = ZDP_DEVICE_NOT_FOUND;
   \                     ??ZDO_ProcessSimpleDescReq_4:
   \   000060   75..81       MOV     ?V0 + 0,#-0x7f
    711              }
    712              else if ( ZSTACK_END_DEVICE_BUILD )
    713              {
    714                stat = ZDP_INVALID_REQTYPE;
    715              }
    716            }
    717          
    718            ZDP_SimpleDescMsg( inMsg, stat, sDesc );
   \                     ??ZDO_ProcessSimpleDescReq_2:
   \   000063                ; Setup parameters for call to function ZDP_SimpleDescMsg
   \   000063   85..82       MOV     DPL,?XSP + 0
   \   000066   85..83       MOV     DPH,?XSP + 1
   \   000069   12....       LCALL   ?Subroutine146 & 0xFFFF
   \                     ??CrossCallReturnLabel_238:
   \   00006C   A9..         MOV     R1,?V0 + 0
   \   00006E   EE           MOV     A,R6
   \   00006F   FA           MOV     R2,A
   \   000070   EF           MOV     A,R7
   \   000071   FB           MOV     R3,A
   \   000072   12....       LCALL   ??ZDP_SimpleDescMsg?relay
    719          
    720            if ( free && sDesc )
   \   000075   E5..         MOV     A,?V0 + 1
   \   000077   600B         JZ      ??ZDO_ProcessSimpleDescReq_5
   \   000079   12....       LCALL   ?Subroutine54 & 0xFFFF
   \                     ??CrossCallReturnLabel_409:
   \   00007C   6006         JZ      ??ZDO_ProcessSimpleDescReq_5
    721            {
    722              osal_mem_free( sDesc );
   \   00007E                ; Setup parameters for call to function osal_mem_free
   \   00007E   12....       LCALL   ??Subroutine194_0 & 0xFFFF
    723            }
   \                     ??CrossCallReturnLabel_387:
   \   000081   12....       LCALL   ??osal_mem_free?relay
    724          }
   \                     ??ZDO_ProcessSimpleDescReq_5:
   \   000084   02....       LJMP    ?Subroutine4 & 0xFFFF

   \                                 In  segment BANKED_CODE, align 1, keep-with-next
   \                     ?Subroutine72:
   \   000000   12....       LCALL   ?Subroutine143 & 0xFFFF
   \                     ??CrossCallReturnLabel_235:
   \   000003   FC           MOV     R4,A
   \   000004   A3           INC     DPTR
   \   000005   E0           MOVX    A,@DPTR
   \   000006   FB           MOV     R3,A
   \   000007   EC           MOV     A,R4
   \   000008   22           RET

   \                                 In  segment BANKED_CODE, align 1, keep-with-next
   \                     ??Subroutine194_0:
   \   000000   85..82       MOV     DPL,?XSP + 0
   \   000003   85..83       MOV     DPH,?XSP + 1
   \   000006                REQUIRE ??Subroutine195_0
   \   000006                ; // Fall through to label ??Subroutine195_0

   \                                 In  segment BANKED_CODE, align 1, keep-with-next
   \                     ?Subroutine54:
   \   000000   85..82       MOV     DPL,?XSP + 0
   \   000003   85..83       MOV     DPH,?XSP + 1
   \   000006                REQUIRE ??Subroutine197_0
   \   000006                ; // Fall through to label ??Subroutine197_0

   \                                 In  segment BANKED_CODE, align 1, keep-with-next
   \                     ??Subroutine197_0:
   \   000000   12....       LCALL   ?Subroutine144 & 0xFFFF
   \                     ??CrossCallReturnLabel_432:
   \   000003   E8           MOV     A,R0
   \   000004   49           ORL     A,R1
   \   000005   22           RET

   \                                 In  segment BANKED_CODE, align 1, keep-with-next
   \                     ??Subroutine219_0:
   \   000000   EE           MOV     A,R6
   \   000001                REQUIRE ??Subroutine220_0
   \   000001                ; // Fall through to label ??Subroutine220_0

   \                                 In  segment BANKED_CODE, align 1, keep-with-next
   \                     ??Subroutine220_0:
   \   000000   12....       LCALL   ??Subroutine214_0 & 0xFFFF
   \                     ??CrossCallReturnLabel_543:
   \   000003   22           RET

   \                                 In  segment BANKED_CODE, align 1, keep-with-next
   \                     ?Subroutine143:
   \   000000   12....       LCALL   ?Subroutine164 & 0xFFFF
   \                     ??CrossCallReturnLabel_260:
   \   000003   22           RET
    725          
    726          /*********************************************************************
    727           * @fn          ZDO_ProcessActiveEPReq
    728           *
    729           * @brief       This function processes and responds to the
    730           *              Active_EP_req message.
    731           *
    732           * @param       inMsg  - incoming message (request)
    733           *
    734           * @return      none
    735           */

   \                                 In  segment BANKED_CODE, align 1, keep-with-next
    736          void ZDO_ProcessActiveEPReq( zdoIncomingMsg_t *inMsg )
   \                     ZDO_ProcessActiveEPReq:
    737          {
   \   000000   74F2         MOV     A,#-0xe
   \   000002   12....       LCALL   ?BANKED_ENTER_XDATA
   \   000005                ; Saved register size: 14
   \   000005                ; Auto size: 0
   \   000005   EA           MOV     A,R2
   \   000006   FE           MOV     R6,A
   \   000007   EB           MOV     A,R3
   \   000008   FF           MOV     R7,A
    738            byte cnt = 0;
   \   000009   75..00       MOV     ?V0 + 2,#0x0
    739            uint16 aoi;
    740            byte stat = ZDP_SUCCESS;
   \   00000C   75..00       MOV     ?V0 + 3,#0x0
    741          
    742            aoi = BUILD_UINT16( inMsg->asdu[0], inMsg->asdu[1] );
   \   00000F   12....       LCALL   ?Subroutine67 & 0xFFFF
   \                     ??CrossCallReturnLabel_111:
   \   000012   F5..         MOV     ?V0 + 0,A
   \   000014   E4           CLR     A
   \   000015   39           ADDC    A,R1
   \   000016   F5..         MOV     ?V0 + 1,A
    743          
    744            if ( aoi == NLME_GetShortAddr() )
   \   000018                ; Setup parameters for call to function NLME_GetShortAddr
   \   000018   12....       LCALL   ??NLME_GetShortAddr?relay
   \   00001B   EA           MOV     A,R2
   \   00001C   65..         XRL     A,?V0 + 0
   \   00001E   7003         JNZ     ??ZDO_ProcessActiveEPReq_0
   \   000020   EB           MOV     A,R3
   \   000021   65..         XRL     A,?V0 + 1
   \                     ??ZDO_ProcessActiveEPReq_0:
   \   000023   7012         JNZ     ??ZDO_ProcessActiveEPReq_1
    745            {
    746              cnt = afNumEndPoints() - 1;  // -1 for ZDO endpoint descriptor
   \   000025                ; Setup parameters for call to function afNumEndPoints
   \   000025   12....       LCALL   ??afNumEndPoints?relay
   \   000028   E9           MOV     A,R1
   \   000029   14           DEC     A
   \   00002A   F5..         MOV     ?V0 + 2,A
    747              afEndPoints( (uint8 *)ZDOBuildBuf, true );
   \   00002C                ; Setup parameters for call to function afEndPoints
   \   00002C   7901         MOV     R1,#0x1
   \   00002E   7A..         MOV     R2,#ZDOBuildBuf & 0xff
   \   000030   7B..         MOV     R3,#(ZDOBuildBuf >> 8) & 0xff
   \   000032   12....       LCALL   ??afEndPoints?relay
   \   000035   8003         SJMP    ??ZDO_ProcessActiveEPReq_2
    748            }
    749            else
    750            {
    751              stat = ZDP_INVALID_REQTYPE;
   \                     ??ZDO_ProcessActiveEPReq_1:
   \   000037   75..80       MOV     ?V0 + 3,#-0x80
    752            }
    753          
    754            ZDP_ActiveEPRsp( inMsg->TransSeq, &(inMsg->srcAddr), stat,
    755                            aoi, cnt, (uint8 *)ZDOBuildBuf, inMsg->SecurityUse );
   \                     ??ZDO_ProcessActiveEPReq_2:
   \   00003A                ; Setup parameters for call to function ZDP_EPRsp
   \   00003A   12....       LCALL   ?Subroutine121 & 0xFFFF
   \                     ??CrossCallReturnLabel_189:
   \   00003D   12....       LCALL   ??Subroutine189_0 & 0xFFFF
   \                     ??CrossCallReturnLabel_339:
   \   000040   F5..         MOV     ?V0 + 4,A
   \   000042   78..         MOV     R0,#?V0 + 4
   \   000044   12....       LCALL   ?PUSH_XSTACK_I_ONE
   \   000047   75....       MOV     ?V0 + 4,#ZDOBuildBuf & 0xff
   \   00004A   75....       MOV     ?V0 + 5,#(ZDOBuildBuf >> 8) & 0xff
   \   00004D   78..         MOV     R0,#?V0 + 4
   \   00004F   12....       LCALL   ?PUSH_XSTACK_I_TWO
   \   000052   78..         MOV     R0,#?V0 + 2
   \   000054   12....       LCALL   ?PUSH_XSTACK_I_ONE
   \   000057   78..         MOV     R0,#?V0 + 0
   \   000059   12....       LCALL   ?PUSH_XSTACK_I_TWO
   \   00005C   E5..         MOV     A,?V0 + 3
   \   00005E   F5..         MOV     ?V0 + 0,A
   \   000060   78..         MOV     R0,#?V0 + 0
   \   000062   12....       LCALL   ?PUSH_XSTACK_I_ONE
   \   000065   EE           MOV     A,R6
   \   000066   2402         ADD     A,#0x2
   \   000068   FC           MOV     R4,A
   \   000069   EF           MOV     A,R7
   \   00006A   3400         ADDC    A,#0x0
   \   00006C   FD           MOV     R5,A
   \   00006D   12....       LCALL   ?Subroutine107 & 0xFFFF
   \                     ??CrossCallReturnLabel_366:
   \   000070   7A05         MOV     R2,#0x5
   \   000072   7B80         MOV     R3,#-0x80
   \   000074   12....       LCALL   ??ZDP_EPRsp?relay
   \   000077   7407         MOV     A,#0x7
   \   000079   12....       LCALL   ?DEALLOC_XSTACK8
    756          }
   \   00007C   02....       LJMP    ?Subroutine5 & 0xFFFF

   \                                 In  segment BANKED_CODE, align 1, keep-with-next
   \                     ?Subroutine121:
   \   000000   EE           MOV     A,R6
   \   000001   12....       LCALL   ??Subroutine201_0 & 0xFFFF
   \                     ??CrossCallReturnLabel_421:
   \   000004   EF           MOV     A,R7
   \   000005   22           RET

   \                                 In  segment BANKED_CODE, align 1, keep-with-next
   \                     ??Subroutine189_0:
   \   000000   12....       LCALL   ??Subroutine205_0 & 0xFFFF
   \                     ??CrossCallReturnLabel_437:
   \   000003   22           RET

   \                                 In  segment BANKED_CODE, align 1, keep-with-next
   \                     ?Subroutine67:
   \   000000   12....       LCALL   ?Subroutine137 & 0xFFFF
   \                     ??CrossCallReturnLabel_222:
   \   000003   22           RET

   \                                 In  segment BANKED_CODE, align 1, keep-with-next
   \                     ?Subroutine107:
   \   000000   EE           MOV     A,R6
   \   000001   240F         ADD     A,#0xf
   \   000003   F582         MOV     DPL,A
   \   000005   EF           MOV     A,R7
   \   000006                REQUIRE ??Subroutine193_0
   \   000006                ; // Fall through to label ??Subroutine193_0

   \                                 In  segment BANKED_CODE, align 1, keep-with-next
   \                     ??Subroutine193_0:
   \   000000   12....       LCALL   ?Subroutine153 & 0xFFFF
   \                     ??CrossCallReturnLabel_370:
   \   000003   22           RET

   \                                 In  segment BANKED_CODE, align 1, keep-with-next
   \                     ?Subroutine5:
   \   000000   7F06         MOV     R7,#0x6
   \   000002   02....       LJMP    ?BANKED_LEAVE_XDATA
    757          
    758          /*********************************************************************
    759           * @fn          ZDO_ConvertOTAClusters
    760           *
    761           * @brief       This function will convert the over-the-air cluster list
    762           *              format to an internal format.
    763           *
    764           * @param       inMsg  - incoming message (request)
    765           *
    766           * @return      pointer to incremented inBuf
    767           */

   \                                 In  segment BANKED_CODE, align 1, keep-with-next
    768          uint8 *ZDO_ConvertOTAClusters( uint8 cnt, uint8 *inBuf, uint16 *outList )
   \                     ZDO_ConvertOTAClusters:
    769          {
   \   000000   74F6         MOV     A,#-0xa
   \   000002   12....       LCALL   ?BANKED_ENTER_XDATA
   \   000005                ; Saved register size: 10
   \   000005                ; Auto size: 0
   \   000005   E9           MOV     A,R1
   \   000006   FE           MOV     R6,A
    770            uint8 x;
    771          
    772            for ( x = 0; x < cnt; x++ )
   \   000007   7F00         MOV     R7,#0x0
   \   000009   802E         SJMP    ??ZDO_ConvertOTAClusters_0
    773            {
    774              // convert ota format to internal
    775              outList[x] = BUILD_UINT16( inBuf[0], inBuf[1] );
   \                     ??ZDO_ConvertOTAClusters_1:
   \   00000B   8A82         MOV     DPL,R2
   \   00000D   8B83         MOV     DPH,R3
   \   00000F   12....       LCALL   ?Subroutine91 & 0xFFFF
   \                     ??CrossCallReturnLabel_151:
   \   000012   F9           MOV     R1,A
   \   000013   E5..         MOV     A,?V0 + 0
   \   000015   2400         ADD     A,#0x0
   \   000017   E4           CLR     A
   \   000018   39           ADDC    A,R1
   \   000019   F5..         MOV     ?V0 + 1,A
   \   00001B   EF           MOV     A,R7
   \   00001C   33           RLC     A
   \   00001D   F8           MOV     R0,A
   \   00001E   E4           CLR     A
   \   00001F   33           RLC     A
   \   000020   F9           MOV     R1,A
   \   000021   EC           MOV     A,R4
   \   000022   28           ADD     A,R0
   \   000023   F582         MOV     DPL,A
   \   000025   ED           MOV     A,R5
   \   000026   39           ADDC    A,R1
   \   000027   F583         MOV     DPH,A
   \   000029   E5..         MOV     A,?V0 + 0
   \   00002B   F0           MOVX    @DPTR,A
   \   00002C   A3           INC     DPTR
   \   00002D   E5..         MOV     A,?V0 + 1
   \   00002F   F0           MOVX    @DPTR,A
    776              inBuf += sizeof( uint16 );
   \   000030   EA           MOV     A,R2
   \   000031   2402         ADD     A,#0x2
   \   000033   FA           MOV     R2,A
   \   000034   EB           MOV     A,R3
   \   000035   3400         ADDC    A,#0x0
   \   000037   FB           MOV     R3,A
    777            }
   \   000038   0F           INC     R7
   \                     ??ZDO_ConvertOTAClusters_0:
   \   000039   EF           MOV     A,R7
   \   00003A   C3           CLR     C
   \   00003B   9E           SUBB    A,R6
   \   00003C   40CD         JC      ??ZDO_ConvertOTAClusters_1
    778            return ( inBuf );
   \   00003E   02....       LJMP    ??Subroutine176_0 & 0xFFFF
    779          }
    780          
    781          /*********************************************************************
    782           * @fn          ZDO_ProcessMatchDescReq
    783           *
    784           * @brief       This function processes and responds to the
    785           *              Match_Desc_req message.
    786           *
    787           * @param       inMsg  - incoming message (request)
    788           *
    789           * @return      none
    790           */

   \                                 In  segment BANKED_CODE, align 1, keep-with-next
    791          void ZDO_ProcessMatchDescReq( zdoIncomingMsg_t *inMsg )
   \                     ZDO_ProcessMatchDescReq:
    792          {
   \   000000   74E8         MOV     A,#-0x18
   \   000002   12....       LCALL   ?BANKED_ENTER_XDATA
   \   000005                ; Saved register size: 24
   \   000005                ; Auto size: 5
   \   000005   74FB         MOV     A,#-0x5
   \   000007   12....       LCALL   ?ALLOC_XSTACK8
   \   00000A   8A..         MOV     ?V0 + 12,R2
   \   00000C   8B..         MOV     ?V0 + 13,R3
    793            uint8 epCnt = 0;
   \   00000E   85..82       MOV     DPL,?XSP + 0
   \   000011   85..83       MOV     DPH,?XSP + 1
   \   000014   E4           CLR     A
   \   000015   F0           MOVX    @DPTR,A
    794            uint8 numInClusters;
    795            uint16 *inClusters = NULL;
   \   000016   7403         MOV     A,#0x3
   \   000018   12....       LCALL   ?XSTACK_DISP0_8
   \   00001B   E4           CLR     A
   \   00001C   F0           MOVX    @DPTR,A
   \   00001D   A3           INC     DPTR
   \   00001E   F0           MOVX    @DPTR,A
    796            uint8 numOutClusters;
    797            uint16 *outClusters = NULL;
   \   00001F   04           INC     A
   \   000020   12....       LCALL   ?XSTACK_DISP0_8
   \   000023   E4           CLR     A
   \   000024   F0           MOVX    @DPTR,A
   \   000025   12....       LCALL   ?Subroutine15 & 0xFFFF
    798            epList_t *epDesc;
    799            SimpleDescriptionFormat_t *sDesc = NULL;
    800            uint8 allocated;
    801            uint8 *msg;
    802            uint16 aoi;
    803            uint16 profileID;
    804          
    805            // Parse the incoming message
    806            msg = inMsg->asdu;
    807            aoi = BUILD_UINT16( msg[0], msg[1] );
   \                     ??CrossCallReturnLabel_2:
   \   000028   2400         ADD     A,#0x0
   \   00002A   FE           MOV     R6,A
   \   00002B   E4           CLR     A
   \   00002C   39           ADDC    A,R1
   \   00002D   FF           MOV     R7,A
    808            profileID = BUILD_UINT16( msg[2], msg[3] );
   \   00002E   85..82       MOV     DPL,?V0 + 2
   \   000031   85..83       MOV     DPH,?V0 + 3
   \   000034   A3           INC     DPTR
   \   000035   12....       LCALL   ?Subroutine92 & 0xFFFF
   \                     ??CrossCallReturnLabel_154:
   \   000038   A3           INC     DPTR
   \   000039   A3           INC     DPTR
   \   00003A   E0           MOVX    A,@DPTR
   \   00003B   F9           MOV     R1,A
   \   00003C   EA           MOV     A,R2
   \   00003D   F5..         MOV     ?V0 + 0,A
   \   00003F   E4           CLR     A
   \   000040   39           ADDC    A,R1
   \   000041   F5..         MOV     ?V0 + 1,A
    809            msg += 4;
   \   000043   E5..         MOV     A,?V0 + 2
   \   000045   2404         ADD     A,#0x4
   \   000047   12....       LCALL   ?Subroutine117 & 0xFFFF
   \                     ??CrossCallReturnLabel_335:
   \   00004A                ; Setup parameters for call to function NLME_IsAddressBroadcast
   \   00004A   EE           MOV     A,R6
   \   00004B   FA           MOV     R2,A
   \   00004C   EF           MOV     A,R7
   \   00004D   FB           MOV     R3,A
    810          
    811            if ( ADDR_BCAST_NOT_ME == NLME_IsAddressBroadcast(aoi) )
   \   00004E   12....       LCALL   ??NLME_IsAddressBroadcast?relay
   \   000051   E9           MOV     A,R1
   \   000052   6401         XRL     A,#0x1
   \   000054   6016         JZ      ??ZDO_ProcessMatchDescReq_0
    812            {
    813              ZDP_MatchDescRsp( inMsg->TransSeq, &(inMsg->srcAddr), ZDP_INVALID_REQTYPE,
    814                                    ZDAppNwkAddr.addr.shortAddr, 0, NULL, inMsg->SecurityUse );
    815              return;
    816            }
    817            else if ( (ADDR_NOT_BCAST == NLME_IsAddressBroadcast(aoi)) && (aoi != ZDAppNwkAddr.addr.shortAddr) )
   \   000056                ; Setup parameters for call to function NLME_IsAddressBroadcast
   \   000056   EE           MOV     A,R6
   \   000057   FA           MOV     R2,A
   \   000058   EF           MOV     A,R7
   \   000059   FB           MOV     R3,A
   \   00005A   12....       LCALL   ??NLME_IsAddressBroadcast?relay
   \   00005D   E9           MOV     A,R1
   \   00005E   7042         JNZ     ??ZDO_ProcessMatchDescReq_1
   \   000060   90....       MOV     DPTR,#ZDAppNwkAddr
   \   000063   E0           MOVX    A,@DPTR
   \   000064   6E           XRL     A,R6
   \   000065   7003         JNZ     ??ZDO_ProcessMatchDescReq_2
   \   000067   A3           INC     DPTR
   \   000068   E0           MOVX    A,@DPTR
   \   000069   6F           XRL     A,R7
   \                     ??ZDO_ProcessMatchDescReq_2:
   \   00006A   6036         JZ      ??ZDO_ProcessMatchDescReq_1
    818            {
    819              ZDP_MatchDescRsp( inMsg->TransSeq, &(inMsg->srcAddr), ZDP_INVALID_REQTYPE,
    820                                       ZDAppNwkAddr.addr.shortAddr, 0, NULL, inMsg->SecurityUse );
   \                     ??ZDO_ProcessMatchDescReq_0:
   \   00006C                ; Setup parameters for call to function ZDP_EPRsp
   \   00006C   12....       LCALL   ?Subroutine151 & 0xFFFF
   \                     ??CrossCallReturnLabel_422:
   \   00006F   E5..         MOV     A,?V0 + 13
   \   000071   12....       LCALL   ??Subroutine180_0 & 0xFFFF
   \                     ??CrossCallReturnLabel_279:
   \   000074   12....       LCALL   ?PUSH_XSTACK_I_ONE
   \   000077   E4           CLR     A
   \   000078   F5..         MOV     ?V0 + 0,A
   \   00007A   F5..         MOV     ?V0 + 1,A
   \   00007C   78..         MOV     R0,#?V0 + 0
   \   00007E   12....       LCALL   ?PUSH_XSTACK_I_TWO
   \   000081   78..         MOV     R0,#?V0 + 0
   \   000083   12....       LCALL   ?PUSH_XSTACK_I_ONE
   \   000086   90....       MOV     DPTR,#ZDAppNwkAddr
   \   000089   12....       LCALL   ?PUSH_XSTACK8_X_TWO
   \   00008C   75..80       MOV     ?V0 + 0,#-0x80
   \   00008F   78..         MOV     R0,#?V0 + 0
   \   000091   12....       LCALL   ?PUSH_XSTACK_I_ONE
   \   000094   12....       LCALL   ?Subroutine86 & 0xFFFF
   \                     ??CrossCallReturnLabel_141:
   \   000097   12....       LCALL   ??ZDP_EPRsp?relay
   \   00009A   7407         MOV     A,#0x7
   \   00009C   12....       LCALL   ?DEALLOC_XSTACK8
    821              return;
   \   00009F   02....       LJMP    ??ZDO_ProcessMatchDescReq_3 & 0xFFFF
    822            }
    823          
    824            if ((numInClusters = *msg++) &&
    825                (inClusters = (uint16*)osal_mem_alloc( numInClusters * sizeof( uint16 ) )))
   \                     ??ZDO_ProcessMatchDescReq_1:
   \   0000A2   12....       LCALL   ?Subroutine73 & 0xFFFF
   \                     ??CrossCallReturnLabel_121:
   \   0000A5   88..         MOV     ?V0 + 8,R0
   \   0000A7   602E         JZ      ??ZDO_ProcessMatchDescReq_4
   \   0000A9                ; Setup parameters for call to function osal_mem_alloc
   \   0000A9   C3           CLR     C
   \   0000AA   33           RLC     A
   \   0000AB   FA           MOV     R2,A
   \   0000AC   E4           CLR     A
   \   0000AD   33           RLC     A
   \   0000AE   FB           MOV     R3,A
   \   0000AF   12....       LCALL   ??osal_mem_alloc?relay
   \   0000B2   7403         MOV     A,#0x3
   \   0000B4   12....       LCALL   ?XSTACK_DISP0_8
   \   0000B7   12....       LCALL   ?Subroutine40 & 0xFFFF
   \                     ??CrossCallReturnLabel_55:
   \   0000BA   7403         MOV     A,#0x3
   \   0000BC   12....       LCALL   ?XSTACK_DISP0_8
   \   0000BF   12....       LCALL   ??Subroutine197_0 & 0xFFFF
   \                     ??CrossCallReturnLabel_395:
   \   0000C2   6013         JZ      ??ZDO_ProcessMatchDescReq_4
    826            {
    827              msg = ZDO_ConvertOTAClusters( numInClusters, msg, inClusters );
   \   0000C4                ; Setup parameters for call to function ZDO_ConvertOTAClusters
   \   0000C4   7403         MOV     A,#0x3
   \   0000C6   12....       LCALL   ?XSTACK_DISP0_8
   \   0000C9   12....       LCALL   ?Subroutine89 & 0xFFFF
    828            }
   \                     ??CrossCallReturnLabel_146:
   \   0000CC   A9..         MOV     R1,?V0 + 8
   \   0000CE   12....       LCALL   ??ZDO_ConvertOTAClusters?relay
   \   0000D1   8A..         MOV     ?V0 + 2,R2
   \   0000D3   8B..         MOV     ?V0 + 3,R3
   \   0000D5   8003         SJMP    ??ZDO_ProcessMatchDescReq_5
    829            else
    830            {
    831              numInClusters = 0;
   \                     ??ZDO_ProcessMatchDescReq_4:
   \   0000D7   75..00       MOV     ?V0 + 8,#0x0
    832            }
    833          
    834            if ((numOutClusters = *msg++) &&
    835                (outClusters = (uint16 *)osal_mem_alloc( numOutClusters * sizeof( uint16 ) )))
   \                     ??ZDO_ProcessMatchDescReq_5:
   \   0000DA   12....       LCALL   ?Subroutine73 & 0xFFFF
   \                     ??CrossCallReturnLabel_122:
   \   0000DD   88..         MOV     ?V0 + 7,R0
   \   0000DF   602A         JZ      ??ZDO_ProcessMatchDescReq_6
   \   0000E1                ; Setup parameters for call to function osal_mem_alloc
   \   0000E1   C3           CLR     C
   \   0000E2   33           RLC     A
   \   0000E3   FA           MOV     R2,A
   \   0000E4   E4           CLR     A
   \   0000E5   33           RLC     A
   \   0000E6   FB           MOV     R3,A
   \   0000E7   12....       LCALL   ??osal_mem_alloc?relay
   \   0000EA   7401         MOV     A,#0x1
   \   0000EC   12....       LCALL   ?XSTACK_DISP0_8
   \   0000EF   12....       LCALL   ?Subroutine40 & 0xFFFF
   \                     ??CrossCallReturnLabel_56:
   \   0000F2   7401         MOV     A,#0x1
   \   0000F4   12....       LCALL   ?XSTACK_DISP0_8
   \   0000F7   12....       LCALL   ??Subroutine197_0 & 0xFFFF
   \                     ??CrossCallReturnLabel_396:
   \   0000FA   600F         JZ      ??ZDO_ProcessMatchDescReq_6
    836            {
    837              msg = ZDO_ConvertOTAClusters( numOutClusters, msg, outClusters );
   \   0000FC                ; Setup parameters for call to function ZDO_ConvertOTAClusters
   \   0000FC   7401         MOV     A,#0x1
   \   0000FE   12....       LCALL   ?XSTACK_DISP0_8
   \   000101   12....       LCALL   ?Subroutine89 & 0xFFFF
    838            }
   \                     ??CrossCallReturnLabel_147:
   \   000104   A9..         MOV     R1,?V0 + 7
   \   000106   12....       LCALL   ??ZDO_ConvertOTAClusters?relay
   \   000109   8003         SJMP    ??ZDO_ProcessMatchDescReq_7
    839            else
    840            {
    841              numOutClusters = 0;
   \                     ??ZDO_ProcessMatchDescReq_6:
   \   00010B   75..00       MOV     ?V0 + 7,#0x0
    842            }
    843          
    844            // First count the number of endpoints that match.
    845            epDesc = epList;
   \                     ??ZDO_ProcessMatchDescReq_7:
   \   00010E   90....       MOV     DPTR,#epList
   \   000111   8050         SJMP    ??ZDO_ProcessMatchDescReq_8
    846            while ( epDesc )
    847            {
    848              // Don't search endpoint 0 and check if response is allowed
    849              if ( epDesc->epDesc->endPoint != ZDO_EP && (epDesc->flags&eEP_AllowMatch) )
    850              {
    851                if ( epDesc->pfnDescCB )
    852                {
    853                  sDesc = (SimpleDescriptionFormat_t *)epDesc->pfnDescCB( AF_DESCRIPTOR_SIMPLE, epDesc->epDesc->endPoint );
    854                  allocated = TRUE;
    855                }
    856                else
    857                {
    858                  sDesc = epDesc->epDesc->simpleDesc;
    859                  allocated = FALSE;
    860                }
    861          
    862                if ( sDesc && sDesc->AppProfId == profileID )
    863                {
    864                  uint8 *uint8Buf = (uint8 *)ZDOBuildBuf;
    865          
    866                  // Are there matching input clusters?
    867                  if ((ZDO_AnyClusterMatches( numInClusters, inClusters,
    868                             sDesc->AppNumInClusters, sDesc->pAppInClusterList )) ||
    869                      // Are there matching output clusters?
    870                      (ZDO_AnyClusterMatches( numOutClusters, outClusters,
    871                             sDesc->AppNumOutClusters, sDesc->pAppOutClusterList )))
    872                  {
    873                    // Notify the endpoint of the match.
    874                    uint8 bufLen = sizeof( ZDO_MatchDescRspSent_t ) + (numOutClusters + numInClusters) * sizeof(uint16);
    875                    ZDO_MatchDescRspSent_t *pRspSent = (ZDO_MatchDescRspSent_t *) osal_msg_allocate( bufLen );
    876          
    877                    if (pRspSent)
    878                    {
    879                      pRspSent->hdr.event = ZDO_MATCH_DESC_RSP_SENT;
    880                      pRspSent->nwkAddr = inMsg->srcAddr.addr.shortAddr;
    881                      pRspSent->numInClusters = numInClusters;
    882                      pRspSent->numOutClusters = numOutClusters;
    883          
    884                      if (numInClusters)
    885                      {
    886                        pRspSent->pInClusters = (uint16*) (pRspSent + 1);
    887                        osal_memcpy(pRspSent->pInClusters, inClusters, numInClusters * sizeof(uint16));
    888                      }
    889                      else
    890                      {
    891                        pRspSent->pInClusters = NULL;
    892                      }
    893          
    894                      if (numOutClusters)
    895                      {
    896                        pRspSent->pOutClusters = (uint16*)(pRspSent + 1) + numInClusters;
    897                        osal_memcpy(pRspSent->pOutClusters, outClusters, numOutClusters * sizeof(uint16));
    898                      }
    899                      else
    900                      {
    901                        pRspSent->pOutClusters = NULL;
   \                     ??ZDO_ProcessMatchDescReq_9:
   \   000113   E4           CLR     A
   \   000114   F0           MOVX    @DPTR,A
   \   000115   A3           INC     DPTR
   \   000116   F0           MOVX    @DPTR,A
    902                      }
    903          
    904                      osal_msg_send( *epDesc->epDesc->task_id, (uint8 *)pRspSent );
   \                     ??ZDO_ProcessMatchDescReq_10:
   \   000117                ; Setup parameters for call to function osal_msg_send
   \   000117   AA..         MOV     R2,?V0 + 2
   \   000119   AB..         MOV     R3,?V0 + 3
   \   00011B   85..82       MOV     DPL,?V0 + 14
   \   00011E   85..83       MOV     DPH,?V0 + 15
   \   000121   A3           INC     DPTR
   \   000122   A3           INC     DPTR
   \   000123   12....       LCALL   ?Subroutine166 & 0xFFFF
   \                     ??CrossCallReturnLabel_331:
   \   000126   A3           INC     DPTR
   \   000127   12....       LCALL   ??Subroutine187_0 & 0xFFFF
   \                     ??CrossCallReturnLabel_326:
   \   00012A   F9           MOV     R1,A
   \   00012B   12....       LCALL   ??osal_msg_send?relay
    905                    }
    906          
    907                    uint8Buf[epCnt++] = sDesc->EndPoint;
   \                     ??ZDO_ProcessMatchDescReq_11:
   \   00012E   85..82       MOV     DPL,?V0 + 10
   \   000131   85..83       MOV     DPH,?V0 + 11
   \   000134   E0           MOVX    A,@DPTR
   \   000135   C0E0         PUSH    A
   \   000137   85..82       MOV     DPL,?XSP + 0
   \   00013A   85..83       MOV     DPH,?XSP + 1
   \   00013D   E0           MOVX    A,@DPTR
   \   00013E   F8           MOV     R0,A
   \   00013F   74..         MOV     A,#ZDOBuildBuf & 0xff
   \   000141   28           ADD     A,R0
   \   000142   F582         MOV     DPL,A
   \   000144   74..         MOV     A,#(ZDOBuildBuf >> 8) & 0xff
   \   000146   12....       LCALL   ??Subroutine217_0 & 0xFFFF
   \                     ??CrossCallReturnLabel_490:
   \   000149   D0E0         POP     A
   \   00014B   12....       LCALL   ?Subroutine32 & 0xFFFF
   \                     ??CrossCallReturnLabel_35:
   \   00014E   04           INC     A
   \   00014F   F0           MOVX    @DPTR,A
    908                  }
    909                }
    910          
    911                if ( allocated )
   \                     ??ZDO_ProcessMatchDescReq_12:
   \   000150   E5..         MOV     A,?V0 + 9
   \   000152   A2E0         MOV     C,0xE0 /* A   */.0
   \   000154   5007         JNC     ??ZDO_ProcessMatchDescReq_13
    912                {
    913                  osal_mem_free( sDesc );
   \   000156                ; Setup parameters for call to function osal_mem_free
   \   000156   AA..         MOV     R2,?V0 + 10
   \   000158   AB..         MOV     R3,?V0 + 11
   \   00015A   12....       LCALL   ??osal_mem_free?relay
    914                }
    915              }
    916              epDesc = epDesc->nextDesc;
   \                     ??ZDO_ProcessMatchDescReq_13:
   \   00015D   85..82       MOV     DPL,?V0 + 14
   \   000160   85..83       MOV     DPH,?V0 + 15
   \                     ??ZDO_ProcessMatchDescReq_8:
   \   000163   E0           MOVX    A,@DPTR
   \   000164   F5..         MOV     ?V0 + 14,A
   \   000166   A3           INC     DPTR
   \   000167   E0           MOVX    A,@DPTR
   \   000168   F5..         MOV     ?V0 + 15,A
   \   00016A   E5..         MOV     A,?V0 + 14
   \   00016C   45..         ORL     A,?V0 + 15
   \   00016E   7003         JNZ     $+5
   \   000170   02....       LJMP    ??ZDO_ProcessMatchDescReq_14 & 0xFFFF
   \   000173   85..82       MOV     DPL,?V0 + 14
   \   000176   85..83       MOV     DPH,?V0 + 15
   \   000179   A3           INC     DPTR
   \   00017A   A3           INC     DPTR
   \   00017B   12....       LCALL   ??Subroutine186_0 & 0xFFFF
   \                     ??CrossCallReturnLabel_314:
   \   00017E   E8           MOV     A,R0
   \   00017F   FA           MOV     R2,A
   \   000180   E9           MOV     A,R1
   \   000181   FB           MOV     R3,A
   \   000182   8A82         MOV     DPL,R2
   \   000184   8B83         MOV     DPH,R3
   \   000186   E0           MOVX    A,@DPTR
   \   000187   FC           MOV     R4,A
   \   000188   60D3         JZ      ??ZDO_ProcessMatchDescReq_13
   \   00018A   85..82       MOV     DPL,?V0 + 14
   \   00018D   85..83       MOV     DPH,?V0 + 15
   \   000190   A3           INC     DPTR
   \   000191   A3           INC     DPTR
   \   000192   A3           INC     DPTR
   \   000193   A3           INC     DPTR
   \   000194   A3           INC     DPTR
   \   000195   A3           INC     DPTR
   \   000196   A3           INC     DPTR
   \   000197   A3           INC     DPTR
   \   000198   E0           MOVX    A,@DPTR
   \   000199   A2E0         MOV     C,0xE0 /* A   */.0
   \   00019B   50C0         JNC     ??ZDO_ProcessMatchDescReq_13
   \   00019D   85..82       MOV     DPL,?V0 + 14
   \   0001A0   85..83       MOV     DPH,?V0 + 15
   \   0001A3   A3           INC     DPTR
   \   0001A4   A3           INC     DPTR
   \   0001A5   12....       LCALL   ?Subroutine76 & 0xFFFF
   \                     ??CrossCallReturnLabel_272:
   \   0001A8   E582         MOV     A,DPL
   \   0001AA   4583         ORL     A,DPH
   \   0001AC   6010         JZ      ??ZDO_ProcessMatchDescReq_15
   \   0001AE                ; Setup parameters for indirect call
   \   0001AE   EC           MOV     A,R4
   \   0001AF   FA           MOV     R2,A
   \   0001B0   7901         MOV     R1,#0x1
   \   0001B2   12....       LCALL   ?CALL_IND
   \   0001B5   8A..         MOV     ?V0 + 10,R2
   \   0001B7   8B..         MOV     ?V0 + 11,R3
   \   0001B9   75..01       MOV     ?V0 + 9,#0x1
   \   0001BC   8011         SJMP    ??ZDO_ProcessMatchDescReq_16
   \                     ??ZDO_ProcessMatchDescReq_15:
   \   0001BE   8A82         MOV     DPL,R2
   \   0001C0   8B83         MOV     DPH,R3
   \   0001C2   A3           INC     DPTR
   \   0001C3   A3           INC     DPTR
   \   0001C4   A3           INC     DPTR
   \   0001C5   E0           MOVX    A,@DPTR
   \   0001C6   F5..         MOV     ?V0 + 10,A
   \   0001C8   A3           INC     DPTR
   \   0001C9   E0           MOVX    A,@DPTR
   \   0001CA   F5..         MOV     ?V0 + 11,A
   \   0001CC   75..00       MOV     ?V0 + 9,#0x0
   \                     ??ZDO_ProcessMatchDescReq_16:
   \   0001CF   E5..         MOV     A,?V0 + 10
   \   0001D1   45..         ORL     A,?V0 + 11
   \   0001D3   7003         JNZ     $+5
   \   0001D5   02....       LJMP    ??ZDO_ProcessMatchDescReq_12 & 0xFFFF
   \   0001D8   85..82       MOV     DPL,?V0 + 10
   \   0001DB   85..83       MOV     DPH,?V0 + 11
   \   0001DE   A3           INC     DPTR
   \   0001DF   E0           MOVX    A,@DPTR
   \   0001E0   65..         XRL     A,?V0 + 0
   \   0001E2   7004         JNZ     ??ZDO_ProcessMatchDescReq_17
   \   0001E4   A3           INC     DPTR
   \   0001E5   E0           MOVX    A,@DPTR
   \   0001E6   65..         XRL     A,?V0 + 1
   \                     ??ZDO_ProcessMatchDescReq_17:
   \   0001E8   6003         JZ      $+5
   \   0001EA   02....       LJMP    ??ZDO_ProcessMatchDescReq_12 & 0xFFFF
   \   0001ED                ; Setup parameters for call to function ZDO_AnyClusterMatches
   \   0001ED   85..82       MOV     DPL,?V0 + 10
   \   0001F0   85..83       MOV     DPH,?V0 + 11
   \   0001F3   A3           INC     DPTR
   \   0001F4   A3           INC     DPTR
   \   0001F5   A3           INC     DPTR
   \   0001F6   A3           INC     DPTR
   \   0001F7   A3           INC     DPTR
   \   0001F8   A3           INC     DPTR
   \   0001F9   A3           INC     DPTR
   \   0001FA   12....       LCALL   ?PUSH_XSTACK8_X_TWO
   \   0001FD   85..82       MOV     DPL,?V0 + 10
   \   000200   85..83       MOV     DPH,?V0 + 11
   \   000203   A3           INC     DPTR
   \   000204   A3           INC     DPTR
   \   000205   A3           INC     DPTR
   \   000206   A3           INC     DPTR
   \   000207   A3           INC     DPTR
   \   000208   A3           INC     DPTR
   \   000209   E0           MOVX    A,@DPTR
   \   00020A   FC           MOV     R4,A
   \   00020B   7405         MOV     A,#0x5
   \   00020D   12....       LCALL   ?XSTACK_DISP0_8
   \   000210   12....       LCALL   ??Subroutine195_0 & 0xFFFF
   \                     ??CrossCallReturnLabel_372:
   \   000213   A9..         MOV     R1,?V0 + 8
   \   000215   12....       LCALL   ??ZDO_AnyClusterMatches?relay
   \   000218   7402         MOV     A,#0x2
   \   00021A   12....       LCALL   ?DEALLOC_XSTACK8
   \   00021D   E9           MOV     A,R1
   \   00021E   703C         JNZ     ??ZDO_ProcessMatchDescReq_18
   \   000220                ; Setup parameters for call to function ZDO_AnyClusterMatches
   \   000220   85..82       MOV     DPL,?V0 + 10
   \   000223   85..83       MOV     DPH,?V0 + 11
   \   000226   A3           INC     DPTR
   \   000227   A3           INC     DPTR
   \   000228   A3           INC     DPTR
   \   000229   A3           INC     DPTR
   \   00022A   A3           INC     DPTR
   \   00022B   A3           INC     DPTR
   \   00022C   A3           INC     DPTR
   \   00022D   A3           INC     DPTR
   \   00022E   A3           INC     DPTR
   \   00022F   A3           INC     DPTR
   \   000230   12....       LCALL   ?PUSH_XSTACK8_X_TWO
   \   000233   85..82       MOV     DPL,?V0 + 10
   \   000236   85..83       MOV     DPH,?V0 + 11
   \   000239   A3           INC     DPTR
   \   00023A   A3           INC     DPTR
   \   00023B   A3           INC     DPTR
   \   00023C   A3           INC     DPTR
   \   00023D   A3           INC     DPTR
   \   00023E   A3           INC     DPTR
   \   00023F   A3           INC     DPTR
   \   000240   A3           INC     DPTR
   \   000241   A3           INC     DPTR
   \   000242   E0           MOVX    A,@DPTR
   \   000243   FC           MOV     R4,A
   \   000244   7403         MOV     A,#0x3
   \   000246   12....       LCALL   ?XSTACK_DISP0_8
   \   000249   12....       LCALL   ??Subroutine195_0 & 0xFFFF
   \                     ??CrossCallReturnLabel_373:
   \   00024C   A9..         MOV     R1,?V0 + 7
   \   00024E   12....       LCALL   ??ZDO_AnyClusterMatches?relay
   \   000251   7402         MOV     A,#0x2
   \   000253   12....       LCALL   ?DEALLOC_XSTACK8
   \   000256   E9           MOV     A,R1
   \   000257   7003         JNZ     $+5
   \   000259   02....       LJMP    ??ZDO_ProcessMatchDescReq_12 & 0xFFFF
   \                     ??ZDO_ProcessMatchDescReq_18:
   \   00025C                ; Setup parameters for call to function osal_msg_allocate
   \   00025C   E5..         MOV     A,?V0 + 7
   \   00025E   25..         ADD     A,?V0 + 8
   \   000260   C3           CLR     C
   \   000261   33           RLC     A
   \   000262   240A         ADD     A,#0xa
   \   000264   FA           MOV     R2,A
   \   000265   7B00         MOV     R3,#0x0
   \   000267   12....       LCALL   ??osal_msg_allocate?relay
   \   00026A   8A..         MOV     ?V0 + 2,R2
   \   00026C   8B..         MOV     ?V0 + 3,R3
   \   00026E   EA           MOV     A,R2
   \   00026F   45..         ORL     A,?V0 + 3
   \   000271   7003         JNZ     $+5
   \   000273   02....       LJMP    ??ZDO_ProcessMatchDescReq_11 & 0xFFFF
   \   000276   8A82         MOV     DPL,R2
   \   000278   8B83         MOV     DPH,R3
   \   00027A   74D2         MOV     A,#-0x2e
   \   00027C   F0           MOVX    @DPTR,A
   \   00027D   85..82       MOV     DPL,?V0 + 12
   \   000280   85..83       MOV     DPH,?V0 + 13
   \   000283   A3           INC     DPTR
   \   000284   A3           INC     DPTR
   \   000285   12....       LCALL   ??Subroutine186_0 & 0xFFFF
   \                     ??CrossCallReturnLabel_315:
   \   000288   8A82         MOV     DPL,R2
   \   00028A   8B83         MOV     DPH,R3
   \   00028C   A3           INC     DPTR
   \   00028D   A3           INC     DPTR
   \   00028E   12....       LCALL   ??Subroutine183_0 & 0xFFFF
   \                     ??CrossCallReturnLabel_297:
   \   000291   8A82         MOV     DPL,R2
   \   000293   8B83         MOV     DPH,R3
   \   000295   A3           INC     DPTR
   \   000296   A3           INC     DPTR
   \   000297   A3           INC     DPTR
   \   000298   A3           INC     DPTR
   \   000299   E5..         MOV     A,?V0 + 8
   \   00029B   12....       LCALL   ?Subroutine19 & 0xFFFF
   \                     ??CrossCallReturnLabel_10:
   \   00029E   E5..         MOV     A,?V0 + 7
   \   0002A0   F0           MOVX    @DPTR,A
   \   0002A1   EA           MOV     A,R2
   \   0002A2   2405         ADD     A,#0x5
   \   0002A4   FA           MOV     R2,A
   \   0002A5   EB           MOV     A,R3
   \   0002A6   3400         ADDC    A,#0x0
   \   0002A8   FB           MOV     R3,A
   \   0002A9   E5..         MOV     A,?V0 + 8
   \   0002AB   6035         JZ      ??ZDO_ProcessMatchDescReq_19
   \   0002AD   E5..         MOV     A,?V0 + 2
   \   0002AF   240A         ADD     A,#0xa
   \   0002B1   F8           MOV     R0,A
   \   0002B2   E5..         MOV     A,?V0 + 3
   \   0002B4   3400         ADDC    A,#0x0
   \   0002B6   F9           MOV     R1,A
   \   0002B7   8A82         MOV     DPL,R2
   \   0002B9   8B83         MOV     DPH,R3
   \   0002BB   12....       LCALL   ??Subroutine183_0 & 0xFFFF
   \                     ??CrossCallReturnLabel_298:
   \   0002BE                ; Setup parameters for call to function osal_memcpy
   \   0002BE   7403         MOV     A,#0x3
   \   0002C0   12....       LCALL   ?XSTACK_DISP0_8
   \   0002C3   12....       LCALL   ?Subroutine79 & 0xFFFF
   \                     ??CrossCallReturnLabel_131:
   \   0002C6   12....       LCALL   ?PUSH_XSTACK_I_THREE
   \   0002C9   E5..         MOV     A,?V0 + 8
   \   0002CB   C3           CLR     C
   \   0002CC   33           RLC     A
   \   0002CD   FC           MOV     R4,A
   \   0002CE   E4           CLR     A
   \   0002CF   33           RLC     A
   \   0002D0   FD           MOV     R5,A
   \   0002D1   8A82         MOV     DPL,R2
   \   0002D3   8B83         MOV     DPH,R3
   \   0002D5   12....       LCALL   ??Subroutine195_0 & 0xFFFF
   \                     ??CrossCallReturnLabel_374:
   \   0002D8   12....       LCALL   ??osal_memcpy?relay
   \   0002DB   7403         MOV     A,#0x3
   \   0002DD   12....       LCALL   ?DEALLOC_XSTACK8
   \   0002E0   8008         SJMP    ??ZDO_ProcessMatchDescReq_20
   \                     ??ZDO_ProcessMatchDescReq_19:
   \   0002E2   8A82         MOV     DPL,R2
   \   0002E4   8B83         MOV     DPH,R3
   \   0002E6   E4           CLR     A
   \   0002E7   F0           MOVX    @DPTR,A
   \   0002E8   A3           INC     DPTR
   \   0002E9   F0           MOVX    @DPTR,A
   \                     ??ZDO_ProcessMatchDescReq_20:
   \   0002EA   E5..         MOV     A,?V0 + 2
   \   0002EC   2408         ADD     A,#0x8
   \   0002EE   F582         MOV     DPL,A
   \   0002F0   E5..         MOV     A,?V0 + 3
   \   0002F2   12....       LCALL   ??Subroutine217_0 & 0xFFFF
   \                     ??CrossCallReturnLabel_491:
   \   0002F5   E5..         MOV     A,?V0 + 7
   \   0002F7   7003         JNZ     $+5
   \   0002F9   02....       LJMP    ??ZDO_ProcessMatchDescReq_9 & 0xFFFF
   \   0002FC   E5..         MOV     A,?V0 + 8
   \   0002FE   C3           CLR     C
   \   0002FF   33           RLC     A
   \   000300   F8           MOV     R0,A
   \   000301   E4           CLR     A
   \   000302   33           RLC     A
   \   000303   F9           MOV     R1,A
   \   000304   E5..         MOV     A,?V0 + 2
   \   000306   28           ADD     A,R0
   \   000307   F8           MOV     R0,A
   \   000308   E5..         MOV     A,?V0 + 3
   \   00030A   39           ADDC    A,R1
   \   00030B   F9           MOV     R1,A
   \   00030C   E8           MOV     A,R0
   \   00030D   240A         ADD     A,#0xa
   \   00030F   FA           MOV     R2,A
   \   000310   E9           MOV     A,R1
   \   000311   3400         ADDC    A,#0x0
   \   000313   FB           MOV     R3,A
   \   000314   12....       LCALL   ?Subroutine40 & 0xFFFF
   \                     ??CrossCallReturnLabel_57:
   \   000317                ; Setup parameters for call to function osal_memcpy
   \   000317   7401         MOV     A,#0x1
   \   000319   12....       LCALL   ?XSTACK_DISP0_8
   \   00031C   12....       LCALL   ?Subroutine79 & 0xFFFF
    917            }
   \                     ??CrossCallReturnLabel_132:
   \   00031F   12....       LCALL   ?PUSH_XSTACK_I_THREE
   \   000322   E5..         MOV     A,?V0 + 7
   \   000324   C3           CLR     C
   \   000325   33           RLC     A
   \   000326   FC           MOV     R4,A
   \   000327   E4           CLR     A
   \   000328   33           RLC     A
   \   000329   FD           MOV     R5,A
   \   00032A   12....       LCALL   ??osal_memcpy?relay
   \   00032D   7403         MOV     A,#0x3
   \   00032F   12....       LCALL   ?DEALLOC_XSTACK8
   \   000332   02....       LJMP    ??ZDO_ProcessMatchDescReq_10 & 0xFFFF
    918          
    919            if ( epCnt )
   \                     ??ZDO_ProcessMatchDescReq_14:
   \   000335   75....       MOV     ?V0 + 0,#`?<Constant "Match Desc Req">` & 0xff
   \   000338   75....       MOV     ?V0 + 1,#(`?<Constant "Match Desc Req">` >> 8) & 0xff
   \   00033B   85..82       MOV     DPL,?XSP + 0
   \   00033E   85..83       MOV     DPH,?XSP + 1
   \   000341   E0           MOVX    A,@DPTR
   \   000342   603E         JZ      ??ZDO_ProcessMatchDescReq_21
    920            {
    921              // Send the message if at least one match found.
    922              if ( ZSuccess == ZDP_MatchDescRsp( inMsg->TransSeq, &(inMsg->srcAddr), ZDP_SUCCESS,
    923                        ZDAppNwkAddr.addr.shortAddr, epCnt, (uint8 *)ZDOBuildBuf, inMsg->SecurityUse ) )
   \   000344                ; Setup parameters for call to function ZDP_EPRsp
   \   000344   12....       LCALL   ?Subroutine82 & 0xFFFF
   \                     ??CrossCallReturnLabel_276:
   \   000347   12....       LCALL   ?PUSH_XSTACK_I_ONE
   \   00034A   75....       MOV     ?V0 + 2,#ZDOBuildBuf & 0xff
   \   00034D   75....       MOV     ?V0 + 3,#(ZDOBuildBuf >> 8) & 0xff
   \   000350   78..         MOV     R0,#?V0 + 2
   \   000352   12....       LCALL   ?PUSH_XSTACK_I_TWO
   \   000355   7403         MOV     A,#0x3
   \   000357   12....       LCALL   ?XSTACK_DISP0_8
   \   00035A   12....       LCALL   ??Subroutine179_0 & 0xFFFF
   \                     ??CrossCallReturnLabel_273:
   \   00035D   12....       LCALL   ?PUSH_XSTACK_I_ONE
   \   000360   90....       MOV     DPTR,#ZDAppNwkAddr
   \   000363   12....       LCALL   ?PUSH_XSTACK8_X_TWO
   \   000366   75..00       MOV     ?V0 + 2,#0x0
   \   000369   78..         MOV     R0,#?V0 + 2
   \   00036B   12....       LCALL   ?PUSH_XSTACK_I_ONE
   \   00036E   12....       LCALL   ?Subroutine86 & 0xFFFF
   \                     ??CrossCallReturnLabel_142:
   \   000371   12....       LCALL   ??ZDP_EPRsp?relay
   \   000374   7407         MOV     A,#0x7
   \   000376   12....       LCALL   ?DEALLOC_XSTACK8
   \   000379   E9           MOV     A,R1
   \   00037A   7050         JNZ     ??ZDO_ProcessMatchDescReq_22
    924              {
    925          #if defined( LCD_SUPPORTED )
    926                HalLcdWriteScreen( "Match Desc Req", "Rsp Sent" );
   \   00037C                ; Setup parameters for call to function HalLcdWriteScreen
   \   00037C   7C..         MOV     R4,#`?<Constant "Rsp Sent">` & 0xff
   \   00037E   7D..         MOV     R5,#(`?<Constant "Rsp Sent">` >> 8) & 0xff
   \   000380   8043         SJMP    ??ZDO_ProcessMatchDescReq_23
    927          #endif
    928              }
    929            }
    930            else
    931            {
    932              // No match found
    933              if (ADDR_NOT_BCAST == NLME_IsAddressBroadcast(aoi))
   \                     ??ZDO_ProcessMatchDescReq_21:
   \   000382                ; Setup parameters for call to function NLME_IsAddressBroadcast
   \   000382   EE           MOV     A,R6
   \   000383   FA           MOV     R2,A
   \   000384   EF           MOV     A,R7
   \   000385   FB           MOV     R3,A
   \   000386   12....       LCALL   ??NLME_IsAddressBroadcast?relay
   \   000389   E9           MOV     A,R1
   \   00038A   7035         JNZ     ??ZDO_ProcessMatchDescReq_24
    934              {
    935                // send response message with match length = 0
    936                ZDP_MatchDescRsp( inMsg->TransSeq, &(inMsg->srcAddr), ZDP_SUCCESS,
    937                                  ZDAppNwkAddr.addr.shortAddr, 0, (uint8 *)ZDOBuildBuf, inMsg->SecurityUse );
   \   00038C                ; Setup parameters for call to function ZDP_EPRsp
   \   00038C   12....       LCALL   ?Subroutine82 & 0xFFFF
   \                     ??CrossCallReturnLabel_277:
   \   00038F   12....       LCALL   ?PUSH_XSTACK_I_ONE
   \   000392   75....       MOV     ?V0 + 2,#ZDOBuildBuf & 0xff
   \   000395   75....       MOV     ?V0 + 3,#(ZDOBuildBuf >> 8) & 0xff
   \   000398   78..         MOV     R0,#?V0 + 2
   \   00039A   12....       LCALL   ?PUSH_XSTACK_I_TWO
   \   00039D   75..00       MOV     ?V0 + 2,#0x0
   \   0003A0   78..         MOV     R0,#?V0 + 2
   \   0003A2   12....       LCALL   ?PUSH_XSTACK_I_ONE
   \   0003A5   90....       MOV     DPTR,#ZDAppNwkAddr
   \   0003A8   12....       LCALL   ?PUSH_XSTACK8_X_TWO
   \   0003AB   78..         MOV     R0,#?V0 + 2
   \   0003AD   12....       LCALL   ?PUSH_XSTACK_I_ONE
   \   0003B0   12....       LCALL   ?Subroutine86 & 0xFFFF
   \                     ??CrossCallReturnLabel_143:
   \   0003B3   12....       LCALL   ??ZDP_EPRsp?relay
   \   0003B6   7407         MOV     A,#0x7
   \   0003B8   12....       LCALL   ?DEALLOC_XSTACK8
    938          #if defined( LCD_SUPPORTED )
    939                HalLcdWriteScreen( "Match Desc Req", "Rsp Non Matched" );
   \   0003BB                ; Setup parameters for call to function HalLcdWriteScreen
   \   0003BB   7C..         MOV     R4,#`?<Constant "Rsp Non Matched">` & 0xff
   \   0003BD   7D..         MOV     R5,#(`?<Constant "Rsp Non Matched">` >> 8) & 0xff
   \   0003BF   8004         SJMP    ??ZDO_ProcessMatchDescReq_23
    940          #endif
    941              }
    942              else
    943              {
    944                // no response mesage for broadcast message
    945          #if defined( LCD_SUPPORTED )
    946                HalLcdWriteScreen( "Match Desc Req", "Non Matched" );
   \                     ??ZDO_ProcessMatchDescReq_24:
   \   0003C1                ; Setup parameters for call to function HalLcdWriteScreen
   \   0003C1   7C..         MOV     R4,#`?<Constant "Non Matched">` & 0xff
   \   0003C3   7D..         MOV     R5,#(`?<Constant "Non Matched">` >> 8) & 0xff
   \                     ??ZDO_ProcessMatchDescReq_23:
   \   0003C5   AA..         MOV     R2,?V0 + 0
   \   0003C7   AB..         MOV     R3,?V0 + 1
   \   0003C9   12....       LCALL   ??HalLcdWriteScreen?relay
    947          #endif
    948              }
    949            }
    950          
    951            if ( inClusters != NULL )
   \                     ??ZDO_ProcessMatchDescReq_22:
   \   0003CC   7403         MOV     A,#0x3
   \   0003CE   12....       LCALL   ?XSTACK_DISP0_8
   \   0003D1   12....       LCALL   ??Subroutine197_0 & 0xFFFF
   \                     ??CrossCallReturnLabel_397:
   \   0003D4   600B         JZ      ??ZDO_ProcessMatchDescReq_25
    952            {
    953              osal_mem_free( inClusters );
   \   0003D6                ; Setup parameters for call to function osal_mem_free
   \   0003D6   7403         MOV     A,#0x3
   \   0003D8   12....       LCALL   ?XSTACK_DISP0_8
   \   0003DB   12....       LCALL   ??Subroutine195_0 & 0xFFFF
    954            }
   \                     ??CrossCallReturnLabel_375:
   \   0003DE   12....       LCALL   ??osal_mem_free?relay
    955          
    956            if ( outClusters != NULL )
   \                     ??ZDO_ProcessMatchDescReq_25:
   \   0003E1   7401         MOV     A,#0x1
   \   0003E3   12....       LCALL   ?XSTACK_DISP0_8
   \   0003E6   12....       LCALL   ??Subroutine197_0 & 0xFFFF
   \                     ??CrossCallReturnLabel_398:
   \   0003E9   600B         JZ      ??ZDO_ProcessMatchDescReq_3
    957            {
    958              osal_mem_free( outClusters );
   \   0003EB                ; Setup parameters for call to function osal_mem_free
   \   0003EB   7401         MOV     A,#0x1
   \   0003ED   12....       LCALL   ?XSTACK_DISP0_8
   \   0003F0   12....       LCALL   ??Subroutine195_0 & 0xFFFF
    959            }
   \                     ??CrossCallReturnLabel_376:
   \   0003F3   12....       LCALL   ??osal_mem_free?relay
   \                     ??ZDO_ProcessMatchDescReq_3:
   \   0003F6   7405         MOV     A,#0x5
   \   0003F8                REQUIRE ?Subroutine6
   \   0003F8                ; // Fall through to label ?Subroutine6
    960          }

   \                                 In  segment BANKED_CODE, align 1, keep-with-next
   \                     ?Subroutine6:
   \   000000   12....       LCALL   ?DEALLOC_XSTACK8
   \   000003                REQUIRE ??Subroutine177_0
   \   000003                ; // Fall through to label ??Subroutine177_0

   \                                 In  segment BANKED_CODE, align 1, keep-with-next
   \                     ??Subroutine177_0:
   \   000000   7F10         MOV     R7,#0x10
   \   000002   02....       LJMP    ?BANKED_LEAVE_XDATA

   \                                 In  segment BANKED_CODE, align 1, keep-with-next
   \                     ?Subroutine89:
   \   000000   12....       LCALL   ?Subroutine146 & 0xFFFF
   \                     ??CrossCallReturnLabel_240:
   \   000003   AA..         MOV     R2,?V0 + 2
   \   000005   AB..         MOV     R3,?V0 + 3
   \   000007   22           RET

   \                                 In  segment BANKED_CODE, align 1, keep-with-next
   \                     ?Subroutine86:
   \   000000   E5..         MOV     A,?V0 + 12
   \   000002   2402         ADD     A,#0x2
   \   000004   FC           MOV     R4,A
   \   000005   E5..         MOV     A,?V0 + 13
   \   000007   3400         ADDC    A,#0x0
   \   000009   FD           MOV     R5,A
   \   00000A   E5..         MOV     A,?V0 + 12
   \   00000C   240F         ADD     A,#0xf
   \   00000E   F582         MOV     DPL,A
   \   000010   E5..         MOV     A,?V0 + 13
   \   000012   12....       LCALL   ?Subroutine153 & 0xFFFF
   \                     ??CrossCallReturnLabel_369:
   \   000015   7A06         MOV     R2,#0x6
   \   000017   7B80         MOV     R3,#-0x80
   \   000019   22           RET

   \                                 In  segment BANKED_CODE, align 1, keep-with-next
   \                     ?Subroutine79:
   \   000000   E0           MOVX    A,@DPTR
   \   000001   F5..         MOV     ?V0 + 4,A
   \   000003   A3           INC     DPTR
   \   000004   E0           MOVX    A,@DPTR
   \   000005   F5..         MOV     ?V0 + 5,A
   \   000007   75..00       MOV     ?V0 + 6,#0x0
   \   00000A   78..         MOV     R0,#?V0 + 4
   \   00000C   22           RET

   \                                 In  segment BANKED_CODE, align 1, keep-with-next
   \                     ?Subroutine82:
   \   000000   12....       LCALL   ?Subroutine151 & 0xFFFF
   \                     ??CrossCallReturnLabel_423:
   \   000003   E5..         MOV     A,?V0 + 13
   \   000005                REQUIRE ??Subroutine178_0
   \   000005                ; // Fall through to label ??Subroutine178_0

   \                                 In  segment BANKED_CODE, align 1, keep-with-next
   \                     ??Subroutine178_0:
   \   000000   12....       LCALL   ??Subroutine229_0 & 0xFFFF
   \                     ??CrossCallReturnLabel_598:
   \   000003                REQUIRE ??Subroutine179_0
   \   000003                ; // Fall through to label ??Subroutine179_0

   \                                 In  segment BANKED_CODE, align 1, keep-with-next
   \                     ??Subroutine179_0:
   \   000000   E0           MOVX    A,@DPTR
   \   000001   F5..         MOV     ?V0 + 2,A
   \   000003   78..         MOV     R0,#?V0 + 2
   \   000005   22           RET

   \                                 In  segment BANKED_CODE, align 1, keep-with-next
   \                     ??Subroutine180_0:
   \   000000   12....       LCALL   ??Subroutine229_0 & 0xFFFF
   \                     ??CrossCallReturnLabel_599:
   \   000003                REQUIRE ??Subroutine181_0
   \   000003                ; // Fall through to label ??Subroutine181_0

   \                                 In  segment BANKED_CODE, align 1, keep-with-next
   \                     ??Subroutine181_0:
   \   000000   E0           MOVX    A,@DPTR
   \   000001   F5..         MOV     ?V0 + 0,A
   \   000003   78..         MOV     R0,#?V0 + 0
   \   000005   22           RET

   \                                 In  segment BANKED_CODE, align 1, keep-with-next
   \                     ??Subroutine183_0:
   \   000000   E8           MOV     A,R0
   \   000001                REQUIRE ??Subroutine184_0
   \   000001                ; // Fall through to label ??Subroutine184_0

   \                                 In  segment BANKED_CODE, align 1, keep-with-next
   \                     ??Subroutine184_0:
   \   000000   F0           MOVX    @DPTR,A
   \   000001   A3           INC     DPTR
   \   000002   E9           MOV     A,R1
   \   000003   F0           MOVX    @DPTR,A
   \   000004   22           RET

   \                                 In  segment BANKED_CODE, align 1, keep-with-next
   \                     ?Subroutine117:
   \   000000   F5..         MOV     ?V0 + 2,A
   \   000002   E5..         MOV     A,?V0 + 3
   \   000004                REQUIRE ??Subroutine188_0
   \   000004                ; // Fall through to label ??Subroutine188_0

   \                                 In  segment BANKED_CODE, align 1, keep-with-next
   \                     ??Subroutine188_0:
   \   000000   3400         ADDC    A,#0x0
   \   000002   F5..         MOV     ?V0 + 3,A
   \   000004   22           RET

   \                                 In  segment BANKED_CODE, align 1, keep-with-next
   \                     ?Subroutine133:
   \   000000   F0           MOVX    @DPTR,A
   \   000001                ; Setup parameters for call to function NLME_NwkDiscReq2
   \   000001   85..82       MOV     DPL,?XSP + 0
   \   000004   85..83       MOV     DPH,?XSP + 1
   \   000007   22           RET

   \                                 In  segment BANKED_CODE, align 1, keep-with-next
   \                     ?Subroutine32:
   \   000000   12....       LCALL   ?Subroutine133 & 0xFFFF
   \                     ??CrossCallReturnLabel_215:
   \   000003   E0           MOVX    A,@DPTR
   \   000004   22           RET

   \                                 In  segment BANKED_CODE, align 1, keep-with-next
   \                     ?Subroutine151:
   \   000000   E5..         MOV     A,?V0 + 12
   \   000002                REQUIRE ??Subroutine201_0
   \   000002                ; // Fall through to label ??Subroutine201_0

   \                                 In  segment BANKED_CODE, align 1, keep-with-next
   \                     ?Subroutine73:
   \   000000   85..82       MOV     DPL,?V0 + 2
   \   000003   85..83       MOV     DPH,?V0 + 3
   \   000006   E0           MOVX    A,@DPTR
   \   000007   F8           MOV     R0,A
   \   000008   A3           INC     DPTR
   \   000009   8582..       MOV     ?V0 + 2,DPL
   \   00000C   8583..       MOV     ?V0 + 3,DPH
   \   00000F   22           RET

   \                                 In  segment BANKED_CODE, align 1, keep-with-next
   \                     ?Subroutine15:
   \   000000   A3           INC     DPTR
   \   000001   F0           MOVX    @DPTR,A
   \   000002   12....       LCALL   ?Subroutine154 & 0xFFFF
   \                     ??CrossCallReturnLabel_243:
   \   000005   F5..         MOV     ?V0 + 3,A
   \   000007   85..82       MOV     DPL,?V0 + 2
   \   00000A   F583         MOV     DPH,A
   \   00000C   12....       LCALL   ?Subroutine140 & 0xFFFF
   \                     ??CrossCallReturnLabel_228:
   \   00000F   22           RET

   \                                 In  segment BANKED_CODE, align 1, keep-with-next
   \                     ?Subroutine171:
   \   000000   12....       LCALL   ?Subroutine172 & 0xFFFF
   \                     ??CrossCallReturnLabel_542:
   \   000003   EB           MOV     A,R3
   \   000004                REQUIRE ??Subroutine213_0
   \   000004                ; // Fall through to label ??Subroutine213_0

   \                                 In  segment BANKED_CODE, align 1, keep-with-next
   \                     ?Subroutine172:
   \   000000   EA           MOV     A,R2
   \   000001                REQUIRE ??Subroutine214_0
   \   000001                ; // Fall through to label ??Subroutine214_0

   \                                 In  segment BANKED_CODE, align 1, keep-with-next
   \                     ??Subroutine217_0:
   \   000000   12....       LCALL   ??Subroutine229_0 & 0xFFFF
   \                     ??CrossCallReturnLabel_600:
   \   000003   22           RET

   \                                 In  segment BANKED_CODE, align 1, keep-with-next
   \                     ?Subroutine160:
   \   000000   F0           MOVX    @DPTR,A
   \   000001   8A82         MOV     DPL,R2
   \   000003   8B83         MOV     DPH,R3
   \   000005   22           RET

   \                                 In  segment BANKED_CODE, align 1, keep-with-next
   \                     ?Subroutine154:
   \   000000   12....       LCALL   ?Subroutine171 & 0xFFFF
   \                     ??CrossCallReturnLabel_605:
   \   000003   E0           MOVX    A,@DPTR
   \   000004   F5..         MOV     ?V0 + 2,A
   \   000006   A3           INC     DPTR
   \   000007   E0           MOVX    A,@DPTR
   \   000008   22           RET

   \                                 In  segment BANKED_CODE, align 1, keep-with-next
   \                     ?Subroutine140:
   \   000000   12....       LCALL   ??Subroutine223_0 & 0xFFFF
   \                     ??CrossCallReturnLabel_565:
   \   000003   F9           MOV     R1,A
   \   000004   EA           MOV     A,R2
   \   000005   22           RET

   \                                 In  segment BANKED_CODE, align 1, keep-with-next
   \                     ??Subroutine229_0:
   \   000000   12....       LCALL   ??Subroutine213_0 & 0xFFFF
   \                     ??CrossCallReturnLabel_608:
   \   000003   22           RET

   \                                 In  segment BANKED_CODE, align 1, keep-with-next
   \                     ?Subroutine92:
   \   000000   A3           INC     DPTR
   \   000001   E0           MOVX    A,@DPTR
   \   000002   FA           MOV     R2,A
   \   000003   85..82       MOV     DPL,?V0 + 2
   \   000006   85..83       MOV     DPH,?V0 + 3
   \   000009   A3           INC     DPTR
   \   00000A   22           RET

   \                                 In  segment BANKED_CODE, align 1, keep-with-next
   \                     ?Subroutine19:
   \   000000   12....       LCALL   ?Subroutine135 & 0xFFFF
   \                     ??CrossCallReturnLabel_217:
   \   000003   A3           INC     DPTR
   \   000004   A3           INC     DPTR
   \   000005   A3           INC     DPTR
   \   000006   A3           INC     DPTR
   \   000007   22           RET

   \                                 In  segment BANKED_CODE, align 1, keep-with-next
   \                     ?Subroutine135:
   \   000000   12....       LCALL   ?Subroutine160 & 0xFFFF
   \                     ??CrossCallReturnLabel_256:
   \   000003   A3           INC     DPTR
   \   000004   A3           INC     DPTR
   \   000005   A3           INC     DPTR
   \   000006   22           RET
    961          
    962          /*********************************************************************
    963           * @fn      ZDO_ProcessBindUnbindReq()
    964           *
    965           * @brief   Called to process a Bind or Unbind Request message.
    966           *
    967           * @param   inMsg  - incoming message (request)
    968           * @param   pReq - place to put parsed information
    969           *
    970           * @return  none
    971           */

   \                                 In  segment BANKED_CODE, align 1, keep-with-next
    972          void ZDO_ProcessBindUnbindReq( zdoIncomingMsg_t *inMsg, ZDO_BindUnbindReq_t *pReq )
   \                     ZDO_ProcessBindUnbindReq:
    973          {
   \   000000   74EF         MOV     A,#-0x11
   \   000002   12....       LCALL   ?BANKED_ENTER_XDATA
   \   000005                ; Saved register size: 17
   \   000005                ; Auto size: 12
   \   000005   74F4         MOV     A,#-0xc
   \   000007   12....       LCALL   ?ALLOC_XSTACK8
   \   00000A   8A..         MOV     ?V0 + 0,R2
   \   00000C   8B..         MOV     ?V0 + 1,R3
   \   00000E   EC           MOV     A,R4
   \   00000F   FE           MOV     R6,A
   \   000010   ED           MOV     A,R5
   \   000011   FF           MOV     R7,A
    974            zAddrType_t SourceAddr;       // Binding Source addres
    975            byte bindStat;
    976          
    977            SourceAddr.addrMode = Addr64Bit;
   \   000012   740B         MOV     A,#0xb
   \   000014   12....       LCALL   ?XSTACK_DISP0_8
   \   000017   7403         MOV     A,#0x3
   \   000019   F0           MOVX    @DPTR,A
    978            osal_cpyExtAddr( SourceAddr.addr.extAddr, pReq->srcAddress );
   \   00001A                ; Setup parameters for call to function sAddrExtCpy
   \   00001A   12....       LCALL   ?XSTACK_DISP0_8
   \   00001D   AA82         MOV     R2,DPL
   \   00001F   AB83         MOV     R3,DPH
   \   000021   12....       LCALL   ??sAddrExtCpy?relay
    979          
    980            // If the local device is not the primary binding cache
    981            // check the src address of the bind request.
    982            // If it is not the local device's extended address
    983            // discard the request.
    984            if ( !osal_ExtAddrEqual( SourceAddr.addr.extAddr, NLME_GetExtAddr()) ||
    985                  (pReq->dstAddress.addrMode != Addr64Bit &&
    986                   pReq->dstAddress.addrMode != AddrGroup) )
   \   000024   E5..         MOV     A,?V0 + 0
   \   000026   240C         ADD     A,#0xc
   \   000028   12....       LCALL   ?Subroutine120 & 0xFFFF
   \                     ??CrossCallReturnLabel_589:
   \   00002B                ; Setup parameters for call to function sAddrExtCmp
   \   00002B                ; Setup parameters for call to function NLME_GetExtAddr
   \   00002B   12....       LCALL   ??NLME_GetExtAddr?relay
   \   00002E   EA           MOV     A,R2
   \   00002F   FC           MOV     R4,A
   \   000030   EB           MOV     A,R3
   \   000031   FD           MOV     R5,A
   \   000032   7403         MOV     A,#0x3
   \   000034   12....       LCALL   ?XSTACK_DISP0_8
   \   000037   AA82         MOV     R2,DPL
   \   000039   AB83         MOV     R3,DPH
   \   00003B   12....       LCALL   ??sAddrExtCmp?relay
   \   00003E   E9           MOV     A,R1
   \   00003F   6014         JZ      ??ZDO_ProcessBindUnbindReq_0
   \   000041   EE           MOV     A,R6
   \   000042   2413         ADD     A,#0x13
   \   000044   F5..         MOV     ?V0 + 2,A
   \   000046   EF           MOV     A,R7
   \   000047   12....       LCALL   ??Subroutine207_0 & 0xFFFF
   \                     ??CrossCallReturnLabel_444:
   \   00004A   FA           MOV     R2,A
   \   00004B   7403         MOV     A,#0x3
   \   00004D   6A           XRL     A,R2
   \   00004E   6010         JZ      ??ZDO_ProcessBindUnbindReq_1
   \   000050   7401         MOV     A,#0x1
   \   000052   6A           XRL     A,R2
   \   000053   600B         JZ      ??ZDO_ProcessBindUnbindReq_1
    987            {
    988              bindStat = ZDP_NOT_SUPPORTED;
   \                     ??ZDO_ProcessBindUnbindReq_0:
   \   000055   85..82       MOV     DPL,?XSP + 0
   \   000058   85..83       MOV     DPH,?XSP + 1
   \   00005B   7484         MOV     A,#-0x7c
   \   00005D   02....       LJMP    ??ZDO_ProcessBindUnbindReq_2 & 0xFFFF
    989            }
    990            else
    991            {
    992              // Check source & destination endpoints
    993              if ( (pReq->srcEndpoint == 0 || pReq->srcEndpoint > MAX_ENDPOINTS)
    994                  || (( pReq->dstAddress.addrMode == Addr64Bit ) &&
    995                      (pReq->dstEndpoint == 0 || pReq->dstEndpoint > MAX_ENDPOINTS)) )
   \                     ??ZDO_ProcessBindUnbindReq_1:
   \   000060   EE           MOV     A,R6
   \   000061   2408         ADD     A,#0x8
   \   000063   F8           MOV     R0,A
   \   000064   EF           MOV     A,R7
   \   000065   3400         ADDC    A,#0x0
   \   000067   F9           MOV     R1,A
   \   000068   88..         MOV     ?V0 + 6,R0
   \   00006A   89..         MOV     ?V0 + 7,R1
   \   00006C   8882         MOV     DPL,R0
   \   00006E   F583         MOV     DPH,A
   \   000070   E0           MOVX    A,@DPTR
   \   000071   F5..         MOV     ?V0 + 8,A
   \   000073   6022         JZ      ??ZDO_ProcessBindUnbindReq_3
   \   000075   C3           CLR     C
   \   000076   94F1         SUBB    A,#-0xf
   \   000078   501D         JNC     ??ZDO_ProcessBindUnbindReq_3
   \   00007A   EE           MOV     A,R6
   \   00007B   2414         ADD     A,#0x14
   \   00007D   F8           MOV     R0,A
   \   00007E   EF           MOV     A,R7
   \   00007F   3400         ADDC    A,#0x0
   \   000081   F9           MOV     R1,A
   \   000082   E8           MOV     A,R0
   \   000083   FC           MOV     R4,A
   \   000084   E9           MOV     A,R1
   \   000085   FD           MOV     R5,A
   \   000086   7403         MOV     A,#0x3
   \   000088   6A           XRL     A,R2
   \   000089   7017         JNZ     ??ZDO_ProcessBindUnbindReq_4
   \   00008B   8C82         MOV     DPL,R4
   \   00008D   8D83         MOV     DPH,R5
   \   00008F   E0           MOVX    A,@DPTR
   \   000090   6005         JZ      ??ZDO_ProcessBindUnbindReq_3
   \   000092   C3           CLR     C
   \   000093   94F1         SUBB    A,#-0xf
   \   000095   400B         JC      ??ZDO_ProcessBindUnbindReq_4
    996              {
    997                bindStat = ZDP_INVALID_EP;
   \                     ??ZDO_ProcessBindUnbindReq_3:
   \   000097   85..82       MOV     DPL,?XSP + 0
   \   00009A   85..83       MOV     DPH,?XSP + 1
   \   00009D   7482         MOV     A,#-0x7e
   \   00009F   02....       LJMP    ??ZDO_ProcessBindUnbindReq_2 & 0xFFFF
    998              }
    999              else
   1000              {
   1001                if ( inMsg->clusterID == Bind_req )
   \                     ??ZDO_ProcessBindUnbindReq_4:
   \   0000A2   EE           MOV     A,R6
   \   0000A3   2409         ADD     A,#0x9
   \   0000A5   F8           MOV     R0,A
   \   0000A6   EF           MOV     A,R7
   \   0000A7   3400         ADDC    A,#0x0
   \   0000A9   F9           MOV     R1,A
   \   0000AA   E8           MOV     A,R0
   \   0000AB   FA           MOV     R2,A
   \   0000AC   E9           MOV     A,R1
   \   0000AD   FB           MOV     R3,A
   \   0000AE   EE           MOV     A,R6
   \   0000AF   240B         ADD     A,#0xb
   \   0000B1   FE           MOV     R6,A
   \   0000B2   EF           MOV     A,R7
   \   0000B3   3400         ADDC    A,#0x0
   \   0000B5   FF           MOV     R7,A
   \   0000B6   85..82       MOV     DPL,?V0 + 4
   \   0000B9   85..83       MOV     DPH,?V0 + 5
   \   0000BC   E0           MOVX    A,@DPTR
   \   0000BD   6421         XRL     A,#0x21
   \   0000BF   7002         JNZ     ??ZDO_ProcessBindUnbindReq_5
   \   0000C1   A3           INC     DPTR
   \   0000C2   E0           MOVX    A,@DPTR
   \                     ??ZDO_ProcessBindUnbindReq_5:
   \   0000C3   706B         JNZ     ??ZDO_ProcessBindUnbindReq_6
   1002                {
   1003                  // Assume the table is full
   1004                  bindStat = ZDP_TABLE_FULL;
   \   0000C5   85..82       MOV     DPL,?XSP + 0
   \   0000C8   85..83       MOV     DPH,?XSP + 1
   \   0000CB   748C         MOV     A,#-0x74
   \   0000CD   F0           MOVX    @DPTR,A
   1005          
   1006          #if defined( APP_TP ) || defined( APP_TP2 )
   1007                  // For ZigBee Conformance Testing
   1008                  if ( bindNumOfEntries() < gNWK_MAX_BINDING_ENTRIES )
   1009          #endif
   1010                  {
   1011                    if ( APSME_BindRequest( pReq->srcEndpoint, pReq->clusterID,
   1012                                   &(pReq->dstAddress), pReq->dstEndpoint ) == ZSuccess )
   \   0000CE                ; Setup parameters for call to function APSME_BindRequest
   \   0000CE   8C82         MOV     DPL,R4
   \   0000D0   8D83         MOV     DPH,R5
   \   0000D2   E0           MOVX    A,@DPTR
   \   0000D3   F5..         MOV     ?V0 + 8,A
   \   0000D5   78..         MOV     R0,#?V0 + 8
   \   0000D7   12....       LCALL   ?PUSH_XSTACK_I_ONE
   \   0000DA   EE           MOV     A,R6
   \   0000DB   FC           MOV     R4,A
   \   0000DC   EF           MOV     A,R7
   \   0000DD   FD           MOV     R5,A
   \   0000DE   8A82         MOV     DPL,R2
   \   0000E0   8B83         MOV     DPH,R3
   \   0000E2   12....       LCALL   ??Subroutine195_0 & 0xFFFF
   \                     ??CrossCallReturnLabel_377:
   \   0000E5   85..82       MOV     DPL,?V0 + 6
   \   0000E8   85..83       MOV     DPH,?V0 + 7
   \   0000EB   E0           MOVX    A,@DPTR
   \   0000EC   F9           MOV     R1,A
   \   0000ED   12....       LCALL   ??APSME_BindRequest?relay
   \   0000F0   7401         MOV     A,#0x1
   \   0000F2   12....       LCALL   ?DEALLOC_XSTACK8
   \   0000F5   E9           MOV     A,R1
   \   0000F6   706A         JNZ     ??ZDO_ProcessBindUnbindReq_7
   1013                    {
   1014                      uint16 nwkAddr;
   1015          
   1016                      // valid entry
   1017                      bindStat = ZDP_SUCCESS;
   \   0000F8   85..82       MOV     DPL,?XSP + 0
   \   0000FB   85..83       MOV     DPH,?XSP + 1
   \   0000FE   E4           CLR     A
   \   0000FF   F0           MOVX    @DPTR,A
   1018          
   1019                      // Notify to save info into NV
   1020                      ZDApp_NVUpdate();
   \   000100                ; Setup parameters for call to function ZDApp_NVUpdate
   \   000100   12....       LCALL   ??ZDApp_NVUpdate?relay
   1021          
   1022                      // Check for the destination address
   1023                      if ( pReq->dstAddress.addrMode == Addr64Bit )
   \   000103   85..82       MOV     DPL,?V0 + 2
   \   000106   85..83       MOV     DPH,?V0 + 3
   \   000109   E0           MOVX    A,@DPTR
   \   00010A   6403         XRL     A,#0x3
   \   00010C   7054         JNZ     ??ZDO_ProcessBindUnbindReq_7
   1024                      {
   1025                        if ( APSME_LookupNwkAddr( pReq->dstAddress.addr.extAddr, &nwkAddr ) == FALSE )
   \   00010E                ; Setup parameters for call to function APSME_LookupNwkAddr
   \   00010E   7401         MOV     A,#0x1
   \   000110   12....       LCALL   ?XSTACK_DISP0_8
   \   000113   AC82         MOV     R4,DPL
   \   000115   AD83         MOV     R5,DPH
   \   000117   EE           MOV     A,R6
   \   000118   FA           MOV     R2,A
   \   000119   EF           MOV     A,R7
   \   00011A   FB           MOV     R3,A
   \   00011B   12....       LCALL   ??APSME_LookupNwkAddr?relay
   \   00011E   E9           MOV     A,R1
   \   00011F   7041         JNZ     ??ZDO_ProcessBindUnbindReq_7
   1026                        {
   1027                          ZDP_NwkAddrReq( pReq->dstAddress.addr.extAddr, ZDP_ADDR_REQTYPE_SINGLE, 0, 0 );
   \   000121                ; Setup parameters for call to function ZDP_NwkAddrReq
   \   000121   7D00         MOV     R5,#0x0
   \   000123   7C00         MOV     R4,#0x0
   \   000125   7900         MOV     R1,#0x0
   \   000127   EE           MOV     A,R6
   \   000128   FA           MOV     R2,A
   \   000129   EF           MOV     A,R7
   \   00012A   FB           MOV     R3,A
   \   00012B   12....       LCALL   ??ZDP_NwkAddrReq?relay
   \   00012E   8032         SJMP    ??ZDO_ProcessBindUnbindReq_7
   1028                        }
   1029                      }
   1030                    }
   1031                  }
   1032                }
   1033                else // Unbind_req
   1034                {
   1035                  if ( APSME_UnBindRequest( pReq->srcEndpoint, pReq->clusterID,
   1036                                 &(pReq->dstAddress), pReq->dstEndpoint ) == ZSuccess )
   \                     ??ZDO_ProcessBindUnbindReq_6:
   \   000130                ; Setup parameters for call to function APSME_UnBindRequest
   \   000130   8C82         MOV     DPL,R4
   \   000132   8D83         MOV     DPH,R5
   \   000134   12....       LCALL   ??Subroutine179_0 & 0xFFFF
   \                     ??CrossCallReturnLabel_274:
   \   000137   12....       LCALL   ?PUSH_XSTACK_I_ONE
   \   00013A   EE           MOV     A,R6
   \   00013B   FC           MOV     R4,A
   \   00013C   EF           MOV     A,R7
   \   00013D   FD           MOV     R5,A
   \   00013E   8A82         MOV     DPL,R2
   \   000140   8B83         MOV     DPH,R3
   \   000142   12....       LCALL   ??Subroutine195_0 & 0xFFFF
   \                     ??CrossCallReturnLabel_378:
   \   000145   A9..         MOV     R1,?V0 + 8
   \   000147   12....       LCALL   ??APSME_UnBindRequest?relay
   \   00014A   7401         MOV     A,#0x1
   \   00014C   12....       LCALL   ?DEALLOC_XSTACK8
   \   00014F   E9           MOV     A,R1
   \   000150   85..82       MOV     DPL,?XSP + 0
   \   000153   85..83       MOV     DPH,?XSP + 1
   \   000156   7007         JNZ     ??ZDO_ProcessBindUnbindReq_8
   1037                  {
   1038                    bindStat = ZDP_SUCCESS;
   \   000158   E4           CLR     A
   \   000159   F0           MOVX    @DPTR,A
   1039          
   1040                    // Notify to save info into NV
   1041                    ZDApp_NVUpdate();
   \   00015A                ; Setup parameters for call to function ZDApp_NVUpdate
   \   00015A   12....       LCALL   ??ZDApp_NVUpdate?relay
   \   00015D   8003         SJMP    ??ZDO_ProcessBindUnbindReq_7
   1042                  }
   1043                  else
   1044                    bindStat = ZDP_NO_ENTRY;
   \                     ??ZDO_ProcessBindUnbindReq_8:
   \   00015F   7488         MOV     A,#-0x78
   \                     ??ZDO_ProcessBindUnbindReq_2:
   \   000161   F0           MOVX    @DPTR,A
   1045                }
   1046              }
   1047            }
   1048          
   1049            // Send back a response message
   1050            ZDP_SendData( &(inMsg->TransSeq), &(inMsg->srcAddr),
   1051                         (inMsg->clusterID | ZDO_RESPONSE_BIT), 1, &bindStat,
   1052                         inMsg->SecurityUse );
   \                     ??ZDO_ProcessBindUnbindReq_7:
   \   000162                ; Setup parameters for call to function ZDP_SendData
   \   000162   E5..         MOV     A,?V0 + 0
   \   000164   12....       LCALL   ??Subroutine201_0 & 0xFFFF
   \                     ??CrossCallReturnLabel_416:
   \   000167   E5..         MOV     A,?V0 + 1
   \   000169   12....       LCALL   ??Subroutine178_0 & 0xFFFF
   \                     ??CrossCallReturnLabel_275:
   \   00016C   12....       LCALL   ?PUSH_XSTACK_I_ONE
   \   00016F   7401         MOV     A,#0x1
   \   000171   12....       LCALL   ?XSTACK_DISP0_8
   \   000174   8582..       MOV     ?V0 + 2,DPL
   \   000177   8583..       MOV     ?V0 + 3,DPH
   \   00017A   78..         MOV     R0,#?V0 + 2
   \   00017C   12....       LCALL   ?PUSH_XSTACK_I_TWO
   \   00017F   85..82       MOV     DPL,?V0 + 4
   \   000182   85..83       MOV     DPH,?V0 + 5
   \   000185   12....       LCALL   ?Subroutine94 & 0xFFFF
   \                     ??CrossCallReturnLabel_157:
   \   000188   4480         ORL     A,#0x80
   \   00018A   F5..         MOV     ?V0 + 3,A
   \   00018C   78..         MOV     R0,#?V0 + 2
   \   00018E   12....       LCALL   ?PUSH_XSTACK_I_TWO
   \   000191   12....       LCALL   ?Subroutine110 & 0xFFFF
   \                     ??CrossCallReturnLabel_179:
   \   000194   12....       LCALL   ??ZDP_SendData?relay
   \   000197   7405         MOV     A,#0x5
   \   000199   12....       LCALL   ?DEALLOC_XSTACK8
   1053          }
   \   00019C   740C         MOV     A,#0xc
   \   00019E   12....       LCALL   ?DEALLOC_XSTACK8
   \   0001A1   7F09         MOV     R7,#0x9
   \   0001A3   02....       LJMP    ?BANKED_LEAVE_XDATA

   \                                 In  segment BANKED_CODE, align 1, keep-with-next
   \                     ?Subroutine110:
   \   000000   7901         MOV     R1,#0x1
   \   000002   E5..         MOV     A,?V0 + 0
   \   000004   2402         ADD     A,#0x2
   \   000006   FC           MOV     R4,A
   \   000007   E5..         MOV     A,?V0 + 1
   \   000009   3400         ADDC    A,#0x0
   \   00000B   FD           MOV     R5,A
   \   00000C   E5..         MOV     A,?V0 + 0
   \   00000E   240F         ADD     A,#0xf
   \   000010   FA           MOV     R2,A
   \   000011   E5..         MOV     A,?V0 + 1
   \   000013   3400         ADDC    A,#0x0
   \   000015   FB           MOV     R3,A
   \   000016   22           RET

   \                                 In  segment BANKED_CODE, align 1, keep-with-next
   \                     ??Subroutine207_0:
   \   000000   3400         ADDC    A,#0x0
   \   000002   F5..         MOV     ?V0 + 3,A
   \   000004   85..82       MOV     DPL,?V0 + 2
   \   000007   F583         MOV     DPH,A
   \   000009   E0           MOVX    A,@DPTR
   \   00000A   22           RET

   \                                 In  segment BANKED_CODE, align 1, keep-with-next
   \                     ?Subroutine94:
   \   000000   E0           MOVX    A,@DPTR
   \   000001   F5..         MOV     ?V0 + 2,A
   \   000003   A3           INC     DPTR
   \   000004   E0           MOVX    A,@DPTR
   \   000005   22           RET

   \                                 In  segment BANKED_CODE, align 1, keep-with-next
   \                     ?Subroutine120:
   \   000000   F5..         MOV     ?V0 + 4,A
   \   000002   E5..         MOV     A,?V0 + 1
   \   000004                REQUIRE ??Subroutine228_0
   \   000004                ; // Fall through to label ??Subroutine228_0

   \                                 In  segment BANKED_CODE, align 1, keep-with-next
   \                     ??Subroutine228_0:
   \   000000   3400         ADDC    A,#0x0
   \   000002   F5..         MOV     ?V0 + 5,A
   \   000004   22           RET
   1054          
   1055          /*********************************************************************
   1056           * @fn      ZDO_UpdateAddrManager
   1057           *
   1058           * @brief   Update the Address Manager.
   1059           *
   1060           * @param   nwkAddr - network address
   1061           * @param   extAddr - extended address
   1062           *
   1063           * @return  none
   1064           */

   \                                 In  segment BANKED_CODE, align 1, keep-with-next
   1065          void ZDO_UpdateAddrManager( uint16 nwkAddr, uint8 *extAddr )
   \                     ZDO_UpdateAddrManager:
   1066          {
   \   000000   C082         PUSH    DPL
   \   000002   C083         PUSH    DPH
   \   000004                ; Saved register size: 2
   \   000004                ; Auto size: 13
   \   000004   74F3         MOV     A,#-0xd
   \   000006   12....       LCALL   ?ALLOC_XSTACK8
   1067            AddrMgrEntry_t addrEntry;
   1068          
   1069            // Update the address manager
   1070            addrEntry.user = ADDRMGR_USER_DEFAULT;
   \   000009   85..82       MOV     DPL,?XSP + 0
   \   00000C   85..83       MOV     DPH,?XSP + 1
   \   00000F   E4           CLR     A
   \   000010   F0           MOVX    @DPTR,A
   1071            addrEntry.nwkAddr = nwkAddr;
   \   000011   04           INC     A
   \   000012   12....       LCALL   ?XSTACK_DISP0_8
   \   000015   12....       LCALL   ?Subroutine40 & 0xFFFF
   1072            AddrMgrExtAddrSet( addrEntry.extAddr, extAddr );
   \                     ??CrossCallReturnLabel_58:
   \   000018                ; Setup parameters for call to function AddrMgrExtAddrSet
   \   000018   7403         MOV     A,#0x3
   \   00001A   12....       LCALL   ?XSTACK_DISP0_8
   \   00001D   AA82         MOV     R2,DPL
   \   00001F   AB83         MOV     R3,DPH
   \   000021   12....       LCALL   ??AddrMgrExtAddrSet?relay
   1073            AddrMgrEntryUpdate( &addrEntry );
   \   000024                ; Setup parameters for call to function AddrMgrEntryUpdate
   \   000024   85..82       MOV     DPL,?XSP + 0
   \   000027   85..83       MOV     DPH,?XSP + 1
   \   00002A   AA82         MOV     R2,DPL
   \   00002C   AB83         MOV     R3,DPH
   \   00002E   12....       LCALL   ??AddrMgrEntryUpdate?relay
   1074          }
   \   000031   740D         MOV     A,#0xd
   \   000033   12....       LCALL   ?DEALLOC_XSTACK8
   \   000036   02....       LJMP    ?Subroutine0 & 0xFFFF
   1075          
   1076          /*********************************************************************
   1077           * @fn      ZDO_ProcessServerDiscReq
   1078           *
   1079           * @brief   Process the Server_Discovery_req message.
   1080           *
   1081           * @param   inMsg  - incoming message (request)
   1082           *
   1083           * @return  none
   1084           */

   \                                 In  segment BANKED_CODE, align 1, keep-with-next
   1085          void ZDO_ProcessServerDiscReq( zdoIncomingMsg_t *inMsg )
   \                     ZDO_ProcessServerDiscReq:
   1086          {
   \   000000   74F6         MOV     A,#-0xa
   \   000002   12....       LCALL   ?BANKED_ENTER_XDATA
   \   000005                ; Saved register size: 10
   \   000005                ; Auto size: 0
   \   000005   EA           MOV     A,R2
   \   000006   FE           MOV     R6,A
   \   000007   EB           MOV     A,R3
   \   000008   FF           MOV     R7,A
   1087            uint16 serverMask = BUILD_UINT16( inMsg->asdu[0], inMsg->asdu[1] );
   1088            uint16 matchMask = serverMask & ZDO_Config_Node_Descriptor.ServerMask;
   \   000009   12....       LCALL   ?Subroutine104 & 0xFFFF
   \                     ??CrossCallReturnLabel_175:
   \   00000C   12....       LCALL   ??Subroutine173_0 & 0xFFFF
   \                     ??CrossCallReturnLabel_270:
   \   00000F   12....       LCALL   ?Subroutine140 & 0xFFFF
   \                     ??CrossCallReturnLabel_227:
   \   000012   F8           MOV     R0,A
   \   000013   90....       MOV     DPTR,#ZDO_Config_Node_Descriptor + 8
   \   000016   E0           MOVX    A,@DPTR
   \   000017   58           ANL     A,R0
   \   000018   F5..         MOV     ?V0 + 0,A
   \   00001A   A3           INC     DPTR
   \   00001B   E0           MOVX    A,@DPTR
   \   00001C   59           ANL     A,R1
   \   00001D   F5..         MOV     ?V0 + 1,A
   1089          
   1090            if ( matchMask )
   \   00001F   E5..         MOV     A,?V0 + 0
   \   000021   45..         ORL     A,?V0 + 1
   \   000023   6022         JZ      ??ZDO_ProcessServerDiscReq_0
   1091            {
   1092              ZDP_ServerDiscRsp( inMsg->TransSeq, &(inMsg->srcAddr), ZSUCCESS,
   1093                          ZDAppNwkAddr.addr.shortAddr, matchMask, inMsg->SecurityUse );
   \   000025                ; Setup parameters for call to function ZDP_ServerDiscRsp
   \   000025   78..         MOV     R0,#?V0 + 0
   \   000027   12....       LCALL   ?PUSH_XSTACK_I_TWO
   \   00002A   90....       MOV     DPTR,#ZDAppNwkAddr
   \   00002D   12....       LCALL   ?PUSH_XSTACK8_X_TWO
   \   000030   12....       LCALL   ?Subroutine121 & 0xFFFF
   1094            }
   \                     ??CrossCallReturnLabel_190:
   \   000033   12....       LCALL   ??Subroutine189_0 & 0xFFFF
   \                     ??CrossCallReturnLabel_340:
   \   000036   FD           MOV     R5,A
   \   000037   7C00         MOV     R4,#0x0
   \   000039   12....       LCALL   ?Subroutine159 & 0xFFFF
   \                     ??CrossCallReturnLabel_249:
   \   00003C   12....       LCALL   ?Subroutine107 & 0xFFFF
   \                     ??CrossCallReturnLabel_367:
   \   00003F   12....       LCALL   ??ZDP_ServerDiscRsp?relay
   \   000042   7404         MOV     A,#0x4
   \   000044   12....       LCALL   ?DEALLOC_XSTACK8
   1095          }
   \                     ??ZDO_ProcessServerDiscReq_0:
   \   000047   02....       LJMP    ??Subroutine176_0 & 0xFFFF

   \                                 In  segment BANKED_CODE, align 1, keep-with-next
   \                     ?Subroutine104:
   \   000000   EE           MOV     A,R6
   \   000001   12....       LCALL   ??Subroutine214_0 & 0xFFFF
   \                     ??CrossCallReturnLabel_538:
   \   000004   EF           MOV     A,R7
   \   000005   12....       LCALL   ??Subroutine229_0 & 0xFFFF
   \                     ??CrossCallReturnLabel_594:
   \   000008   22           RET
   1096          
   1097          /*********************************************************************
   1098           * Call Back Functions from APS  - API
   1099           */
   1100          
   1101          /*********************************************************************
   1102           * @fn          ZDO_EndDeviceTimeoutCB
   1103           *
   1104           * @brief       This function handles the binding timer for the End
   1105           *              Device Bind command.
   1106           *
   1107           * @param       none
   1108           *
   1109           * @return      none
   1110           */

   \                                 In  segment BANKED_CODE, align 1, keep-with-next
   1111          void ZDO_EndDeviceTimeoutCB( void )
   \                     ZDO_EndDeviceTimeoutCB:
   1112          {
   \   000000   74F6         MOV     A,#-0xa
   \   000002   12....       LCALL   ?BANKED_ENTER_XDATA
   \   000005                ; Saved register size: 10
   \   000005                ; Auto size: 2
   \   000005   74FE         MOV     A,#-0x2
   \   000007   12....       LCALL   ?ALLOC_XSTACK8
   1113          #if defined ( REFLECTOR )
   1114            byte stat;
   1115            if ( ZDO_EDBind )
   \   00000A   90....       MOV     DPTR,#ZDO_EDBind
   \   00000D   12....       LCALL   ??Subroutine197_0 & 0xFFFF
   \                     ??CrossCallReturnLabel_399:
   \   000010   7003         JNZ     $+5
   \   000012   02....       LJMP    ??ZDO_EndDeviceTimeoutCB_0 & 0xFFFF
   1116            {
   1117              stat = ZDO_EDBind->status;
   1118          
   1119              // Send the response message to the first sent
   1120              ZDO_SendEDBindRsp( ZDO_EDBind->SrcTransSeq, &(ZDO_EDBind->SrcAddr),
   1121                                  stat, ZDO_EDBind->SecurityUse );
   \   000015   E0           MOVX    A,@DPTR
   \   000016   C8           XCH     A,R0
   \   000017   2416         ADD     A,#0x16
   \   000019   12....       LCALL   ?Subroutine108 & 0xFFFF
   \                     ??CrossCallReturnLabel_347:
   \   00001C   85..82       MOV     DPL,?XSP + 0
   \   00001F   85..83       MOV     DPH,?XSP + 1
   \   000022   12....       LCALL   ?Subroutine51 & 0xFFFF
   \                     ??CrossCallReturnLabel_89:
   \   000025   F583         MOV     DPH,A
   \   000027   8882         MOV     DPL,R0
   \   000029   E0           MOVX    A,@DPTR
   \   00002A   C0E0         PUSH    A
   \   00002C   7401         MOV     A,#0x1
   \   00002E   12....       LCALL   ?XSTACK_DISP0_8
   \   000031   D0E0         POP     A
   \   000033   12....       LCALL   ?Subroutine51 & 0xFFFF
   \                     ??CrossCallReturnLabel_88:
   \   000036   C8           XCH     A,R0
   \   000037   2415         ADD     A,#0x15
   \   000039   12....       LCALL   ?Subroutine93 & 0xFFFF
   \                     ??CrossCallReturnLabel_280:
   \   00003C   12....       LCALL   ?PUSH_XSTACK_I_ONE
   \   00003F   7401         MOV     A,#0x1
   \   000041   12....       LCALL   ?XSTACK_DISP0_8
   \   000044   8582..       MOV     ?V0 + 0,DPL
   \   000047   8583..       MOV     ?V0 + 1,DPH
   \   00004A   78..         MOV     R0,#?V0 + 0
   \   00004C   12....       LCALL   ?PUSH_XSTACK_I_TWO
   \   00004F   75..20       MOV     ?V0 + 0,#0x20
   \   000052   75..80       MOV     ?V0 + 1,#-0x80
   \   000055   78..         MOV     R0,#?V0 + 0
   \   000057   12....       LCALL   ?PUSH_XSTACK_I_TWO
   \   00005A   7901         MOV     R1,#0x1
   \   00005C   90....       MOV     DPTR,#ZDO_EDBind
   \   00005F   E0           MOVX    A,@DPTR
   \   000060   2401         ADD     A,#0x1
   \   000062   FC           MOV     R4,A
   \   000063   A3           INC     DPTR
   \   000064   E0           MOVX    A,@DPTR
   \   000065   3400         ADDC    A,#0x0
   \   000067   FD           MOV     R5,A
   \   000068   7406         MOV     A,#0x6
   \   00006A   12....       LCALL   ?XSTACK_DISP0_8
   \   00006D   AA82         MOV     R2,DPL
   \   00006F   AB83         MOV     R3,DPH
   \   000071   12....       LCALL   ??ZDP_SendData?relay
   \   000074   7405         MOV     A,#0x5
   \   000076   12....       LCALL   ?DEALLOC_XSTACK8
   \   000079                ; Setup parameters for call to function HalLcdWriteString
   \   000079   7901         MOV     R1,#0x1
   \   00007B   7A..         MOV     R2,#`?<Constant "End Device Bind">` & 0xff
   \   00007D   7B..         MOV     R3,#(`?<Constant "End Device Bind">` >> 8) & 0xff
   \   00007F   12....       LCALL   ??HalLcdWriteString?relay
   \   000082   85..82       MOV     DPL,?XSP + 0
   \   000085   85..83       MOV     DPH,?XSP + 1
   \   000088   E0           MOVX    A,@DPTR
   \   000089   7902         MOV     R1,#0x2
   \   00008B   7006         JNZ     ??ZDO_EndDeviceTimeoutCB_1
   \   00008D                ; Setup parameters for call to function HalLcdWriteString
   \   00008D   7A..         MOV     R2,#`?<Constant "Success Sent">` & 0xff
   \   00008F   7B..         MOV     R3,#(`?<Constant "Success Sent">` >> 8) & 0xff
   \   000091   8004         SJMP    ??ZDO_EndDeviceTimeoutCB_2
   \                     ??ZDO_EndDeviceTimeoutCB_1:
   \   000093                ; Setup parameters for call to function HalLcdWriteString
   \   000093   7A..         MOV     R2,#`?<Constant "Timeout">` & 0xff
   \   000095   7B..         MOV     R3,#(`?<Constant "Timeout">` >> 8) & 0xff
   \                     ??ZDO_EndDeviceTimeoutCB_2:
   \   000097   12....       LCALL   ??HalLcdWriteString?relay
   1122          
   1123              ZDO_RemoveEndDeviceBind();
   \   00009A   90....       MOV     DPTR,#ZDO_EDBind
   \   00009D   12....       LCALL   ??Subroutine197_0 & 0xFFFF
   1124            }
   \                     ??CrossCallReturnLabel_400:
   \   0000A0   602C         JZ      ??ZDO_EndDeviceTimeoutCB_0
   \   0000A2   E0           MOVX    A,@DPTR
   \   0000A3   C8           XCH     A,R0
   \   0000A4   2410         ADD     A,#0x10
   \   0000A6   12....       LCALL   ?Subroutine55 & 0xFFFF
   \                     ??CrossCallReturnLabel_285:
   \   0000A9   6003         JZ      ??ZDO_EndDeviceTimeoutCB_3
   \   0000AB                ; Setup parameters for call to function osal_mem_free
   \   0000AB   12....       LCALL   ??osal_mem_free?relay
   \                     ??ZDO_EndDeviceTimeoutCB_3:
   \   0000AE   90....       MOV     DPTR,#ZDO_EDBind
   \   0000B1   12....       LCALL   ??Subroutine211_0 & 0xFFFF
   \                     ??CrossCallReturnLabel_453:
   \   0000B4   2413         ADD     A,#0x13
   \   0000B6   12....       LCALL   ?Subroutine55 & 0xFFFF
   \                     ??CrossCallReturnLabel_286:
   \   0000B9   6003         JZ      ??ZDO_EndDeviceTimeoutCB_4
   \   0000BB                ; Setup parameters for call to function osal_mem_free
   \   0000BB   12....       LCALL   ??osal_mem_free?relay
   \                     ??ZDO_EndDeviceTimeoutCB_4:
   \   0000BE                ; Setup parameters for call to function osal_mem_free
   \   0000BE   90....       MOV     DPTR,#ZDO_EDBind
   \   0000C1   12....       LCALL   ??Subroutine195_0 & 0xFFFF
   \                     ??CrossCallReturnLabel_379:
   \   0000C4   12....       LCALL   ??osal_mem_free?relay
   \   0000C7   90....       MOV     DPTR,#ZDO_EDBind
   \   0000CA   E4           CLR     A
   \   0000CB   F0           MOVX    @DPTR,A
   \   0000CC   A3           INC     DPTR
   \   0000CD   F0           MOVX    @DPTR,A
   1125          #endif  // REFLECTOR
   1126          }
   \                     ??ZDO_EndDeviceTimeoutCB_0:
   \   0000CE   02....       LJMP    ?Subroutine4 & 0xFFFF

   \                                 In  segment BANKED_CODE, align 1, keep-with-next
   \                     ?Subroutine55:
   \   000000   F582         MOV     DPL,A
   \   000002   E8           MOV     A,R0
   \   000003   12....       LCALL   ??Subroutine229_0 & 0xFFFF
   \                     ??CrossCallReturnLabel_592:
   \   000006                REQUIRE ??Subroutine182_0
   \   000006                ; // Fall through to label ??Subroutine182_0

   \                                 In  segment BANKED_CODE, align 1, keep-with-next
   \                     ??Subroutine182_0:
   \   000000   12....       LCALL   ??Subroutine212_0 & 0xFFFF
   \                     ??CrossCallReturnLabel_488:
   \   000003   EA           MOV     A,R2
   \   000004   4B           ORL     A,R3
   \   000005   22           RET

   \                                 In  segment BANKED_CODE, align 1, keep-with-next
   \                     ?Subroutine51:
   \   000000   F0           MOVX    @DPTR,A
   \   000001                ; Setup parameters for call to function ZDP_SendData
   \   000001   90....       MOV     DPTR,#ZDO_EDBind
   \   000004   12....       LCALL   ??Subroutine200_0 & 0xFFFF
   \                     ??CrossCallReturnLabel_480:
   \   000007   22           RET

   \                                 In  segment BANKED_CODE, align 1, keep-with-next
   \                     ?Subroutine108:
   \   000000   F582         MOV     DPL,A
   \   000002   E8           MOV     A,R0
   \   000003                REQUIRE ??Subroutine189_0
   \   000003                ; // Fall through to label ??Subroutine189_0

   \                                 In  segment BANKED_CODE, align 1, keep-with-next
   \                     ??Subroutine202_0:
   \   000000   12....       LCALL   ??Subroutine200_0 & 0xFFFF
   \                     ??CrossCallReturnLabel_485:
   \   000003   C8           XCH     A,R0
   \   000004   22           RET

   \                                 In  segment BANKED_CODE, align 1, keep-with-next
   \                     ??Subroutine211_0:
   \   000000   12....       LCALL   ??Subroutine202_0 & 0xFFFF
   \                     ??CrossCallReturnLabel_479:
   \   000003   22           RET
   1127          
   1128          /*********************************************************************
   1129           * Optional Management Messages
   1130           */
   1131          
   1132          /*********************************************************************
   1133           * @fn          ZDO_ProcessMgmtLqiReq
   1134           *
   1135           * @brief       This function handles parsing the incoming Management
   1136           *              LQI request and generate the response.
   1137           *
   1138           *   Note:      This function will limit the number of items returned
   1139           *              to ZDO_MAX_LQI_ITEMS items.
   1140           *
   1141           * @param       inMsg - incoming message (request)
   1142           *
   1143           * @return      none
   1144           */

   \                                 In  segment BANKED_CODE, align 1, keep-with-next
   1145          void ZDO_ProcessMgmtLqiReq( zdoIncomingMsg_t *inMsg )
   \                     ZDO_ProcessMgmtLqiReq:
   1146          {
   \   000000   74E8         MOV     A,#-0x18
   \   000002   12....       LCALL   ?BANKED_ENTER_XDATA
   \   000005                ; Saved register size: 24
   \   000005                ; Auto size: 37
   \   000005   74DB         MOV     A,#-0x25
   \   000007   12....       LCALL   ?ALLOC_XSTACK8
   \   00000A   8A..         MOV     ?V0 + 14,R2
   \   00000C   8B..         MOV     ?V0 + 15,R3
   1147            byte x;
   1148            byte index;
   1149            byte numItems;
   1150            byte maxItems;
   1151            ZDP_MgmtLqiItem_t* table = NULL;
   \   00000E   75..00       MOV     ?V0 + 12,#0x0
   \   000011   75..00       MOV     ?V0 + 13,#0x0
   1152            ZDP_MgmtLqiItem_t* item;
   1153            neighborEntry_t    entry;
   1154            byte aItems;
   1155            associated_devices_t *aDevice;
   1156            AddrMgrEntry_t  nwkEntry;
   1157            uint8 StartIndex = inMsg->asdu[0];
   \   000014   12....       LCALL   ?Subroutine60 & 0xFFFF
   1158          
   1159            // Get the number of neighbor items
   1160            NLME_GetRequest( nwkNumNeighborTableEntries, 0, &maxItems );
   \                     ??CrossCallReturnLabel_101:
   \   000017   799C         MOV     R1,#-0x64
   \   000019   12....       LCALL   ??NLME_GetRequest?relay
   1161          
   1162            // Get the number of associated items
   1163            aItems = (uint8)AssocCount( PARENT, CHILD_FFD_RX_IDLE );
   \   00001C                ; Setup parameters for call to function AssocCount
   \   00001C   7A04         MOV     R2,#0x4
   \   00001E   7900         MOV     R1,#0x0
   \   000020   12....       LCALL   ??AssocCount?relay
   \   000023   EA           MOV     A,R2
   \   000024   F5..         MOV     ?V0 + 2,A
   1164          
   1165            // Total number of items
   1166            maxItems += aItems;
   \   000026   85..82       MOV     DPL,?XSP + 0
   \   000029   85..83       MOV     DPH,?XSP + 1
   \   00002C   E0           MOVX    A,@DPTR
   \   00002D   25..         ADD     A,?V0 + 2
   \   00002F   F0           MOVX    @DPTR,A
   1167          
   1168            // Start with the supplied index
   1169            if ( maxItems > StartIndex )
   \   000030   F8           MOV     R0,A
   \   000031   E5..         MOV     A,?V0 + 4
   \   000033   C3           CLR     C
   \   000034   98           SUBB    A,R0
   \   000035   4003         JC      $+5
   \   000037   02....       LJMP    ??ZDO_ProcessMgmtLqiReq_0 & 0xFFFF
   1170            {
   1171              numItems = maxItems - StartIndex;
   \   00003A   E0           MOVX    A,@DPTR
   \   00003B   C3           CLR     C
   \   00003C   95..         SUBB    A,?V0 + 4
   \   00003E   F5..         MOV     ?V0 + 1,A
   1172          
   1173              // limit the size of the list
   1174              if ( numItems > ZDO_MAX_LQI_ITEMS )
   \   000040   C3           CLR     C
   \   000041   9404         SUBB    A,#0x4
   \   000043   4003         JC      ??ZDO_ProcessMgmtLqiReq_1
   1175                numItems = ZDO_MAX_LQI_ITEMS;
   \   000045   75..03       MOV     ?V0 + 1,#0x3
   1176          
   1177              // Allocate the memory to build the table
   1178              table = (ZDP_MgmtLqiItem_t*)osal_mem_alloc( (short)
   1179                        ( numItems * sizeof( ZDP_MgmtLqiItem_t ) ) );
   \                     ??ZDO_ProcessMgmtLqiReq_1:
   \   000048                ; Setup parameters for call to function osal_mem_alloc
   \   000048   E5..         MOV     A,?V0 + 1
   \   00004A   75F01A       MOV     B,#0x1a
   \   00004D   A4           MUL     AB
   \   00004E   FA           MOV     R2,A
   \   00004F   ABF0         MOV     R3,B
   \   000051   12....       LCALL   ??osal_mem_alloc?relay
   \   000054   8A..         MOV     ?V0 + 12,R2
   \   000056   8B..         MOV     ?V0 + 13,R3
   1180          
   1181              if ( table != NULL )
   \   000058   EA           MOV     A,R2
   \   000059   45..         ORL     A,?V0 + 13
   \   00005B   7003         JNZ     $+5
   \   00005D   02....       LJMP    ??ZDO_ProcessMgmtLqiReq_2 & 0xFFFF
   1182              {
   1183                x = 0;
   \   000060   75..00       MOV     ?V0 + 3,#0x0
   1184                item = table;
   \   000063   AE..         MOV     R6,?V0 + 12
   \   000065   AF..         MOV     R7,?V0 + 13
   1185                index = StartIndex;
   \   000067   85....       MOV     ?V0 + 0,?V0 + 4
   \   00006A   02....       LJMP    ??CrossCallReturnLabel_65 & 0xFFFF
   1186          
   1187                // Loop through associated items and build list
   1188                for ( ; x < numItems; x++ )
   1189                {
   1190                  if ( index < aItems )
   1191                  {
   1192                    // get next associated device
   1193                    aDevice = AssocFindDevice( index++ );
   1194          
   1195                    // set basic fields
   1196                    item->panID   = _NIB.nwkPanId;
   1197                    osal_cpyExtAddr( item->extPanID, _NIB.extendedPANID );
   1198                    item->nwkAddr = aDevice->shortAddr;
   1199                    item->permit  = ZDP_MGMT_BOOL_UNKNOWN;
   1200                    item->depth   = 0xFF;
   1201                    item->lqi     = aDevice->linkInfo.rxLqi;
   1202          
   1203                    // set extented address
   1204                    nwkEntry.user    = ADDRMGR_USER_DEFAULT;
   1205                    nwkEntry.nwkAddr = aDevice->shortAddr;
   1206          
   1207                    if ( AddrMgrEntryLookupNwk( &nwkEntry ) == TRUE )
   1208                    {
   1209                      osal_cpyExtAddr( item->extAddr, nwkEntry.extAddr );
   1210                    }
   1211                    else
   1212                    {
   1213                      osal_memset( item->extAddr, 0xFF, Z_EXTADDR_LEN );
   \                     ??ZDO_ProcessMgmtLqiReq_3:
   \   00006D                ; Setup parameters for call to function osal_memset
   \   00006D   7C08         MOV     R4,#0x8
   \   00006F   7D00         MOV     R5,#0x0
   \   000071   79FF         MOV     R1,#-0x1
   \   000073   AA..         MOV     R2,?V0 + 10
   \   000075   AB..         MOV     R3,?V0 + 11
   \   000077   12....       LCALL   ??osal_memset?relay
   1214                    }
   1215          
   1216                    // use association info to set other fields
   1217                    if ( aDevice->nodeRelation == PARENT )
   \                     ??ZDO_ProcessMgmtLqiReq_4:
   \   00007A   E5..         MOV     A,?V0 + 6
   \   00007C   2404         ADD     A,#0x4
   \   00007E   F8           MOV     R0,A
   \   00007F   E5..         MOV     A,?V0 + 7
   \   000081   3400         ADDC    A,#0x0
   \   000083   F9           MOV     R1,A
   \   000084   EE           MOV     A,R6
   \   000085   2416         ADD     A,#0x16
   \   000087   FA           MOV     R2,A
   \   000088   EF           MOV     A,R7
   \   000089   3400         ADDC    A,#0x0
   \   00008B   FB           MOV     R3,A
   \   00008C   EE           MOV     A,R6
   \   00008D   2415         ADD     A,#0x15
   \   00008F   FC           MOV     R4,A
   \   000090   EF           MOV     A,R7
   \   000091   3400         ADDC    A,#0x0
   \   000093   FD           MOV     R5,A
   \   000094   EE           MOV     A,R6
   \   000095   2414         ADD     A,#0x14
   \   000097   F5..         MOV     ?V0 + 10,A
   \   000099   EF           MOV     A,R7
   \   00009A   3400         ADDC    A,#0x0
   \   00009C   F5..         MOV     ?V0 + 11,A
   \   00009E   8882         MOV     DPL,R0
   \   0000A0   8983         MOV     DPH,R1
   \   0000A2   E0           MOVX    A,@DPTR
   \   0000A3   7030         JNZ     ??ZDO_ProcessMgmtLqiReq_5
   1218                    {
   1219                      if (  aDevice->shortAddr == 0 )
   \   0000A5   85..82       MOV     DPL,?V0 + 6
   \   0000A8   85..83       MOV     DPH,?V0 + 7
   \   0000AB   12....       LCALL   ??Subroutine197_0 & 0xFFFF
   \                     ??CrossCallReturnLabel_401:
   \   0000AE   85..82       MOV     DPL,?V0 + 10
   \   0000B1   85..83       MOV     DPH,?V0 + 11
   \   0000B4   7004         JNZ     ??ZDO_ProcessMgmtLqiReq_6
   1220                      {
   1221                        item->devType = ZDP_MGMT_DT_COORD;
   \   0000B6   E4           CLR     A
   \   0000B7   F0           MOVX    @DPTR,A
   1222                        item->depth = 0;
   \   0000B8   8008         SJMP    ??ZDO_ProcessMgmtLqiReq_7
   1223                      }
   1224                      else
   1225                      {
   1226                        item->devType = ZDP_MGMT_DT_ROUTER;
   \                     ??ZDO_ProcessMgmtLqiReq_6:
   \   0000BA   7401         MOV     A,#0x1
   \   0000BC   F0           MOVX    @DPTR,A
   1227                        item->depth = _NIB.nodeDepth - 1;
   \   0000BD   90....       MOV     DPTR,#_NIB + 52
   \   0000C0   E0           MOVX    A,@DPTR
   \   0000C1   14           DEC     A
   \                     ??ZDO_ProcessMgmtLqiReq_7:
   \   0000C2   85..82       MOV     DPL,?V0 + 8
   \   0000C5   85..83       MOV     DPH,?V0 + 9
   \   0000C8   F0           MOVX    @DPTR,A
   1228                      }
   1229          
   1230                      item->rxOnIdle = ZDP_MGMT_BOOL_UNKNOWN;
   \   0000C9   8C82         MOV     DPL,R4
   \   0000CB   8D83         MOV     DPH,R5
   \   0000CD   7402         MOV     A,#0x2
   \   0000CF   12....       LCALL   ?Subroutine160 & 0xFFFF
   1231                      item->relation = ZDP_MGMT_REL_PARENT;
   1232                    }
   \                     ??CrossCallReturnLabel_252:
   \   0000D2   E4           CLR     A
   \   0000D3   8033         SJMP    ??ZDO_ProcessMgmtLqiReq_8
   1233                    else
   1234                    {
   1235                      // If not parent, then it's a child
   1236                      item->depth = _NIB.nodeDepth + 1;
   \                     ??ZDO_ProcessMgmtLqiReq_5:
   \   0000D5   90....       MOV     DPTR,#_NIB + 52
   \   0000D8   E0           MOVX    A,@DPTR
   \   0000D9   04           INC     A
   \   0000DA   85..82       MOV     DPL,?V0 + 8
   \   0000DD   85..83       MOV     DPH,?V0 + 9
   \   0000E0   12....       LCALL   ?Subroutine38 & 0xFFFF
   1237          
   1238                      if ( aDevice->nodeRelation < CHILD_FFD )
   \                     ??CrossCallReturnLabel_44:
   \   0000E3   C3           CLR     C
   \   0000E4   9403         SUBB    A,#0x3
   \   0000E6   85..82       MOV     DPL,?V0 + 10
   \   0000E9   85..83       MOV     DPH,?V0 + 11
   \   0000EC   4003         JC      $+5
   \   0000EE   02....       LJMP    ??ZDO_ProcessMgmtLqiReq_9 & 0xFFFF
   1239                      {
   1240                        item->devType = ZDP_MGMT_DT_ENDDEV;
   \   0000F1   7402         MOV     A,#0x2
   \   0000F3   12....       LCALL   ?Subroutine38 & 0xFFFF
   1241          
   1242                        if ( aDevice->nodeRelation == CHILD_RFD )
   1243                        {
   1244                          item->rxOnIdle = FALSE;
   1245                        }
   1246                        else
   1247                        {
   1248                          item->rxOnIdle = TRUE;
   1249                        }
   1250                      }
   \                     ??CrossCallReturnLabel_45:
   \   0000F6   6401         XRL     A,#0x1
   \   0000F8   7003         JNZ     $+5
   \   0000FA   02....       LJMP    ??ZDO_ProcessMgmtLqiReq_10 & 0xFFFF
   1251                      else
   1252                      {
   1253                        item->devType = ZDP_MGMT_DT_ROUTER;
   1254          
   1255                        if ( aDevice->nodeRelation == CHILD_FFD )
   1256                        {
   1257                          item->rxOnIdle = FALSE;
   1258                        }
   1259                        else
   1260                        {
   1261                          item->rxOnIdle = TRUE;
   \                     ??ZDO_ProcessMgmtLqiReq_11:
   \   0000FD   8C82         MOV     DPL,R4
   \   0000FF   8D83         MOV     DPH,R5
   \   000101   7401         MOV     A,#0x1
   1262                        }
   \                     ??ZDO_ProcessMgmtLqiReq_12:
   \   000103   12....       LCALL   ?Subroutine160 & 0xFFFF
   1263                      }
   1264          
   1265                      item->relation = ZDP_MGMT_REL_CHILD;
   \                     ??CrossCallReturnLabel_253:
   \   000106   7401         MOV     A,#0x1
   \                     ??ZDO_ProcessMgmtLqiReq_8:
   \   000108   12....       LCALL   ?Subroutine41 & 0xFFFF
   \                     ??CrossCallReturnLabel_65:
   \   00010B   E5..         MOV     A,?V0 + 3
   \   00010D   C3           CLR     C
   \   00010E   95..         SUBB    A,?V0 + 1
   \   000110   4003         JC      $+5
   \   000112   02....       LJMP    ??CrossCallReturnLabel_66 & 0xFFFF
   \   000115   E5..         MOV     A,?V0 + 0
   \   000117   C3           CLR     C
   \   000118   95..         SUBB    A,?V0 + 2
   \   00011A   4003         JC      $+5
   \   00011C   02....       LJMP    ??ZDO_ProcessMgmtLqiReq_13 & 0xFFFF
   \   00011F                ; Setup parameters for call to function AssocFindDevice
   \   00011F   A9..         MOV     R1,?V0 + 0
   \   000121   12....       LCALL   ??AssocFindDevice?relay
   \   000124   8A..         MOV     ?V0 + 6,R2
   \   000126   8B..         MOV     ?V0 + 7,R3
   \   000128   05..         INC     ?V0 + 0
   \   00012A   90....       MOV     DPTR,#_NIB + 33
   \   00012D   12....       LCALL   ?Subroutine28 & 0xFFFF
   \                     ??CrossCallReturnLabel_27:
   \   000130   12....       LCALL   ??sAddrExtCpy?relay
   \   000133   85..82       MOV     DPL,?V0 + 6
   \   000136   85..83       MOV     DPH,?V0 + 7
   \   000139   12....       LCALL   ??Subroutine186_0 & 0xFFFF
   \                     ??CrossCallReturnLabel_316:
   \   00013C   EE           MOV     A,R6
   \   00013D   2412         ADD     A,#0x12
   \   00013F   F582         MOV     DPL,A
   \   000141   EF           MOV     A,R7
   \   000142   12....       LCALL   ??Subroutine217_0 & 0xFFFF
   \                     ??CrossCallReturnLabel_492:
   \   000145   E8           MOV     A,R0
   \   000146   F0           MOVX    @DPTR,A
   \   000147   A3           INC     DPTR
   \   000148   E9           MOV     A,R1
   \   000149   12....       LCALL   ?Subroutine25 & 0xFFFF
   \                     ??CrossCallReturnLabel_22:
   \   00014C   12....       LCALL   ?Subroutine156 & 0xFFFF
   \                     ??CrossCallReturnLabel_245:
   \   00014F   74FF         MOV     A,#-0x1
   \   000151   F0           MOVX    @DPTR,A
   \   000152   85..82       MOV     DPL,?V0 + 6
   \   000155   85..83       MOV     DPH,?V0 + 7
   \   000158   A3           INC     DPTR
   \   000159   A3           INC     DPTR
   \   00015A   A3           INC     DPTR
   \   00015B   A3           INC     DPTR
   \   00015C   A3           INC     DPTR
   \   00015D   A3           INC     DPTR
   \   00015E   A3           INC     DPTR
   \   00015F   A3           INC     DPTR
   \   000160   A3           INC     DPTR
   \   000161   A3           INC     DPTR
   \   000162   E0           MOVX    A,@DPTR
   \   000163   C0E0         PUSH    A
   \   000165   EE           MOV     A,R6
   \   000166   2419         ADD     A,#0x19
   \   000168   F582         MOV     DPL,A
   \   00016A   EF           MOV     A,R7
   \   00016B   12....       LCALL   ??Subroutine217_0 & 0xFFFF
   \                     ??CrossCallReturnLabel_493:
   \   00016E   D0E0         POP     A
   \   000170   F0           MOVX    @DPTR,A
   \   000171   7401         MOV     A,#0x1
   \   000173   12....       LCALL   ?XSTACK_DISP0_8
   \   000176   E4           CLR     A
   \   000177   F0           MOVX    @DPTR,A
   \   000178   85..82       MOV     DPL,?V0 + 6
   \   00017B   85..83       MOV     DPH,?V0 + 7
   \   00017E   12....       LCALL   ??Subroutine186_0 & 0xFFFF
   \                     ??CrossCallReturnLabel_317:
   \   000181   7402         MOV     A,#0x2
   \   000183   12....       LCALL   ?XSTACK_DISP0_8
   \   000186   12....       LCALL   ??Subroutine183_0 & 0xFFFF
   \                     ??CrossCallReturnLabel_299:
   \   000189   EE           MOV     A,R6
   \   00018A   240A         ADD     A,#0xa
   \   00018C   F5..         MOV     ?V0 + 10,A
   \   00018E   EF           MOV     A,R7
   \   00018F   3400         ADDC    A,#0x0
   \   000191   F5..         MOV     ?V0 + 11,A
   \   000193                ; Setup parameters for call to function AddrMgrEntryLookupNwk
   \   000193   7401         MOV     A,#0x1
   \   000195   12....       LCALL   ?XSTACK_DISP0_8
   \   000198   AA82         MOV     R2,DPL
   \   00019A   AB83         MOV     R3,DPH
   \   00019C   12....       LCALL   ??AddrMgrEntryLookupNwk?relay
   \   00019F   E9           MOV     A,R1
   \   0001A0   6401         XRL     A,#0x1
   \   0001A2   6003         JZ      $+5
   \   0001A4   02....       LJMP    ??ZDO_ProcessMgmtLqiReq_3 & 0xFFFF
   \   0001A7                ; Setup parameters for call to function sAddrExtCpy
   \   0001A7   7404         MOV     A,#0x4
   \   0001A9   12....       LCALL   ?XSTACK_DISP0_8
   \   0001AC   AC82         MOV     R4,DPL
   \   0001AE   AD83         MOV     R5,DPH
   \   0001B0   AA..         MOV     R2,?V0 + 10
   \   0001B2   AB..         MOV     R3,?V0 + 11
   \   0001B4   12....       LCALL   ??sAddrExtCpy?relay
   \   0001B7   02....       LJMP    ??ZDO_ProcessMgmtLqiReq_4 & 0xFFFF
   \                     ??ZDO_ProcessMgmtLqiReq_9:
   \   0001BA   7401         MOV     A,#0x1
   \   0001BC   12....       LCALL   ?Subroutine38 & 0xFFFF
   \                     ??CrossCallReturnLabel_46:
   \   0001BF   6403         XRL     A,#0x3
   \   0001C1   6003         JZ      $+5
   \   0001C3   02....       LJMP    ??ZDO_ProcessMgmtLqiReq_11 & 0xFFFF
   \                     ??ZDO_ProcessMgmtLqiReq_10:
   \   0001C6   8C82         MOV     DPL,R4
   \   0001C8   8D83         MOV     DPH,R5
   \   0001CA   E4           CLR     A
   \   0001CB   02....       LJMP    ??ZDO_ProcessMgmtLqiReq_12 & 0xFFFF
   1266                    }
   1267          
   1268                    item++;
   1269                  }
   1270                  else
   1271                  {
   1272                    if ( StartIndex <= aItems )
   \                     ??ZDO_ProcessMgmtLqiReq_13:
   \   0001CE   E5..         MOV     A,?V0 + 2
   \   0001D0   C3           CLR     C
   \   0001D1   95..         SUBB    A,?V0 + 4
   \   0001D3   4005         JC      ??ZDO_ProcessMgmtLqiReq_14
   1273                      // Start with 1st neighbor
   1274                      index = 0;
   \   0001D5   75..00       MOV     ?V0 + 0,#0x0
   \   0001D8   8018         SJMP    ??ZDO_ProcessMgmtLqiReq_15
   1275                    else
   1276                      // Start with >1st neighbor
   1277                      index = StartIndex - aItems;
   \                     ??ZDO_ProcessMgmtLqiReq_14:
   \   0001DA   E5..         MOV     A,?V0 + 4
   \   0001DC   C3           CLR     C
   \   0001DD   95..         SUBB    A,?V0 + 2
   \   0001DF   F5..         MOV     ?V0 + 0,A
   \   0001E1   800F         SJMP    ??ZDO_ProcessMgmtLqiReq_15
   1278                    break;
   1279                  }
   1280                }
   1281          
   1282                // Loop through neighbor items and finish list
   1283                for ( ; x < numItems; x++ )
   1284                {
   1285                  // Add next neighbor table item
   1286                  NLME_GetRequest( nwkNeighborTable, index++, &entry );
   1287          
   1288                  // set ZDP_MgmtLqiItem_t fields
   1289                  item->panID    = entry.panId;
   1290                  osal_cpyExtAddr( item->extPanID, _NIB.extendedPANID );
   1291                  osal_memset( item->extAddr, 0xFF, Z_EXTADDR_LEN );
   1292                  item->nwkAddr  = entry.neighborAddress;
   1293                  item->rxOnIdle = ZDP_MGMT_BOOL_UNKNOWN;
   1294                  item->relation = ZDP_MGMT_REL_UNKNOWN;
   1295                  item->permit   = ZDP_MGMT_BOOL_UNKNOWN;
   1296                  item->depth    = 0xFF;
   1297                  item->lqi      = entry.linkInfo.rxLqi;
   1298          
   1299                  if ( item->nwkAddr == 0 )
   1300                  {
   1301                    item->devType = ZDP_MGMT_DT_COORD;
   1302                  }
   1303                  else
   1304                  {
   1305                    item->devType = ZDP_MGMT_DT_ROUTER;
   \                     ??ZDO_ProcessMgmtLqiReq_16:
   \   0001E3   7401         MOV     A,#0x1
   1306                  }
   \                     ??ZDO_ProcessMgmtLqiReq_17:
   \   0001E5   12....       LCALL   ?Subroutine41 & 0xFFFF
   \                     ??CrossCallReturnLabel_66:
   \   0001E8   E5..         MOV     A,?V0 + 3
   \   0001EA   C3           CLR     C
   \   0001EB   95..         SUBB    A,?V0 + 1
   \   0001ED   4003         JC      $+5
   \   0001EF   02....       LJMP    ??ZDO_ProcessMgmtLqiReq_2 & 0xFFFF
   \                     ??ZDO_ProcessMgmtLqiReq_15:
   \   0001F2                ; Setup parameters for call to function NLME_GetRequest
   \   0001F2   740E         MOV     A,#0xe
   \   0001F4   12....       LCALL   ?XSTACK_DISP0_8
   \   0001F7   AC82         MOV     R4,DPL
   \   0001F9   AD83         MOV     R5,DPH
   \   0001FB   85....       MOV     ?V0 + 6,?V0 + 0
   \   0001FE   AA..         MOV     R2,?V0 + 6
   \   000200   7B00         MOV     R3,#0x0
   \   000202   7987         MOV     R1,#-0x79
   \   000204   12....       LCALL   ??NLME_GetRequest?relay
   \   000207   05..         INC     ?V0 + 0
   \   000209   7418         MOV     A,#0x18
   \   00020B   12....       LCALL   ?XSTACK_DISP0_8
   \   00020E   12....       LCALL   ?Subroutine28 & 0xFFFF
   \                     ??CrossCallReturnLabel_28:
   \   000211   12....       LCALL   ??sAddrExtCpy?relay
   \   000214                ; Setup parameters for call to function osal_memset
   \   000214   7C08         MOV     R4,#0x8
   \   000216   7D00         MOV     R5,#0x0
   \   000218   79FF         MOV     R1,#-0x1
   \   00021A   EE           MOV     A,R6
   \   00021B   240A         ADD     A,#0xa
   \   00021D   FA           MOV     R2,A
   \   00021E   EF           MOV     A,R7
   \   00021F   3400         ADDC    A,#0x0
   \   000221   FB           MOV     R3,A
   \   000222   12....       LCALL   ??osal_memset?relay
   \   000225   EE           MOV     A,R6
   \   000226   2412         ADD     A,#0x12
   \   000228   F8           MOV     R0,A
   \   000229   EF           MOV     A,R7
   \   00022A   3400         ADDC    A,#0x0
   \   00022C   F9           MOV     R1,A
   \   00022D   740E         MOV     A,#0xe
   \   00022F   12....       LCALL   ?XSTACK_DISP0_8
   \   000232   12....       LCALL   ??Subroutine195_0 & 0xFFFF
   \                     ??CrossCallReturnLabel_380:
   \   000235   8882         MOV     DPL,R0
   \   000237   8983         MOV     DPH,R1
   \   000239   12....       LCALL   ?Subroutine40 & 0xFFFF
   \                     ??CrossCallReturnLabel_59:
   \   00023C   EE           MOV     A,R6
   \   00023D   2415         ADD     A,#0x15
   \   00023F   F582         MOV     DPL,A
   \   000241   EF           MOV     A,R7
   \   000242   12....       LCALL   ?Subroutine118 & 0xFFFF
   \                     ??CrossCallReturnLabel_187:
   \   000245   2416         ADD     A,#0x16
   \   000247   F582         MOV     DPL,A
   \   000249   EF           MOV     A,R7
   \   00024A   12....       LCALL   ??Subroutine217_0 & 0xFFFF
   \                     ??CrossCallReturnLabel_494:
   \   00024D   7403         MOV     A,#0x3
   \   00024F   12....       LCALL   ?Subroutine25 & 0xFFFF
   \                     ??CrossCallReturnLabel_23:
   \   000252   F582         MOV     DPL,A
   \   000254   EF           MOV     A,R7
   \   000255   12....       LCALL   ??Subroutine217_0 & 0xFFFF
   \                     ??CrossCallReturnLabel_495:
   \   000258   74FF         MOV     A,#-0x1
   \   00025A   F0           MOVX    @DPTR,A
   \   00025B   741D         MOV     A,#0x1d
   \   00025D   12....       LCALL   ?XSTACK_DISP0_8
   \   000260   E0           MOVX    A,@DPTR
   \   000261   C0E0         PUSH    A
   \   000263   EE           MOV     A,R6
   \   000264   2419         ADD     A,#0x19
   \   000266   F582         MOV     DPL,A
   \   000268   EF           MOV     A,R7
   \   000269   12....       LCALL   ??Subroutine217_0 & 0xFFFF
   \                     ??CrossCallReturnLabel_496:
   \   00026C   D0E0         POP     A
   \   00026E   F0           MOVX    @DPTR,A
   \   00026F   EE           MOV     A,R6
   \   000270   2414         ADD     A,#0x14
   \   000272   FA           MOV     R2,A
   \   000273   EF           MOV     A,R7
   \   000274   3400         ADDC    A,#0x0
   \   000276   FB           MOV     R3,A
   \   000277   8882         MOV     DPL,R0
   \   000279   8983         MOV     DPH,R1
   \   00027B   12....       LCALL   ??Subroutine197_0 & 0xFFFF
   \                     ??CrossCallReturnLabel_402:
   \   00027E   8A82         MOV     DPL,R2
   \   000280   8B83         MOV     DPH,R3
   \   000282   6003         JZ      $+5
   \   000284   02....       LJMP    ??ZDO_ProcessMgmtLqiReq_16 & 0xFFFF
   \   000287   E4           CLR     A
   \   000288   02....       LJMP    ??ZDO_ProcessMgmtLqiReq_17 & 0xFFFF
   1307          
   1308                  item++;
   1309                }
   1310              }
   1311            }
   1312            else
   1313            {
   1314              numItems = 0;
   \                     ??ZDO_ProcessMgmtLqiReq_0:
   \   00028B   75..00       MOV     ?V0 + 1,#0x0
   1315            }
   1316          
   1317            // Send response
   1318            ZDP_MgmtLqiRsp( inMsg->TransSeq, &(inMsg->srcAddr), ZSuccess, maxItems,
   1319                            StartIndex, numItems, table, false );
   \                     ??ZDO_ProcessMgmtLqiReq_2:
   \   00028E                ; Setup parameters for call to function ZDP_MgmtLqiRsp
   \   00028E   75..00       MOV     ?V0 + 2,#0x0
   \   000291   78..         MOV     R0,#?V0 + 2
   \   000293   12....       LCALL   ?PUSH_XSTACK_I_ONE
   \   000296   78..         MOV     R0,#?V0 + 12
   \   000298   12....       LCALL   ?PUSH_XSTACK_I_TWO
   \   00029B   78..         MOV     R0,#?V0 + 1
   \   00029D   12....       LCALL   ?PUSH_XSTACK_I_ONE
   \   0002A0   E5..         MOV     A,?V0 + 4
   \   0002A2   F5..         MOV     ?V0 + 1,A
   \   0002A4   78..         MOV     R0,#?V0 + 1
   \   0002A6   12....       LCALL   ?PUSH_XSTACK_I_ONE
   \   0002A9   7405         MOV     A,#0x5
   \   0002AB   12....       LCALL   ?XSTACK_DISP0_8
   \   0002AE   E0           MOVX    A,@DPTR
   \   0002AF   FD           MOV     R5,A
   \   0002B0   7C00         MOV     R4,#0x0
   \   0002B2   E5..         MOV     A,?V0 + 14
   \   0002B4   2402         ADD     A,#0x2
   \   0002B6   FA           MOV     R2,A
   \   0002B7   E5..         MOV     A,?V0 + 15
   \   0002B9   3400         ADDC    A,#0x0
   \   0002BB   FB           MOV     R3,A
   \   0002BC   E5..         MOV     A,?V0 + 14
   \   0002BE   12....       LCALL   ?Subroutine123 & 0xFFFF
   \                     ??CrossCallReturnLabel_196:
   \   0002C1   E5..         MOV     A,?V0 + 15
   \   0002C3   12....       LCALL   ??Subroutine193_0 & 0xFFFF
   \                     ??CrossCallReturnLabel_360:
   \   0002C6   12....       LCALL   ??ZDP_MgmtLqiRsp?relay
   \   0002C9   7405         MOV     A,#0x5
   \   0002CB   12....       LCALL   ?DEALLOC_XSTACK8
   1320          
   1321            if ( table )
   \   0002CE   E5..         MOV     A,?V0 + 12
   \   0002D0   45..         ORL     A,?V0 + 13
   \   0002D2   6007         JZ      ??ZDO_ProcessMgmtLqiReq_18
   1322            {
   1323              osal_mem_free( table );
   \   0002D4                ; Setup parameters for call to function osal_mem_free
   \   0002D4   AA..         MOV     R2,?V0 + 12
   \   0002D6   AB..         MOV     R3,?V0 + 13
   \   0002D8   12....       LCALL   ??osal_mem_free?relay
   1324            }
   1325          }
   \                     ??ZDO_ProcessMgmtLqiReq_18:
   \   0002DB   7425         MOV     A,#0x25
   \   0002DD   02....       LJMP    ?Subroutine6 & 0xFFFF

   \                                 In  segment BANKED_CODE, align 1, keep-with-next
   \                     ?Subroutine41:
   \   000000   F0           MOVX    @DPTR,A
   \   000001   EE           MOV     A,R6
   \   000002   241A         ADD     A,#0x1a
   \   000004   FE           MOV     R6,A
   \   000005   EF           MOV     A,R7
   \   000006   3400         ADDC    A,#0x0
   \   000008   FF           MOV     R7,A
   \   000009   05..         INC     ?V0 + 3
   \   00000B   22           RET

   \                                 In  segment BANKED_CODE, align 1, keep-with-next
   \                     ?Subroutine28:
   \   000000   12....       LCALL   ?Subroutine144 & 0xFFFF
   \                     ??CrossCallReturnLabel_429:
   \   000003   8E82         MOV     DPL,R6
   \   000005   8F83         MOV     DPH,R7
   \   000007   E8           MOV     A,R0
   \   000008   F0           MOVX    @DPTR,A
   \   000009   A3           INC     DPTR
   \   00000A   E9           MOV     A,R1
   \   00000B   F0           MOVX    @DPTR,A
   \   00000C                ; Setup parameters for call to function sAddrExtCpy
   \   00000C                ; Setup parameters for call to function sAddrExtCpy
   \   00000C   7C..         MOV     R4,#(_NIB + 53) & 0xff
   \   00000E   7D..         MOV     R5,#((_NIB + 53) >> 8) & 0xff
   \   000010   12....       LCALL   ?Subroutine159 & 0xFFFF
   \                     ??CrossCallReturnLabel_250:
   \   000013   22           RET

   \                                 In  segment BANKED_CODE, align 1, keep-with-next
   \                     ?Subroutine25:
   \   000000   F0           MOVX    @DPTR,A
   \   000001   EE           MOV     A,R6
   \   000002   2417         ADD     A,#0x17
   \   000004   F582         MOV     DPL,A
   \   000006   EF           MOV     A,R7
   \   000007   12....       LCALL   ?Subroutine157 & 0xFFFF
   \                     ??CrossCallReturnLabel_247:
   \   00000A   2418         ADD     A,#0x18
   \   00000C   22           RET

   \                                 In  segment BANKED_CODE, align 1, keep-with-next
   \                     ?Subroutine123:
   \   000000   240F         ADD     A,#0xf
   \   000002   F582         MOV     DPL,A
   \   000004   22           RET

   \                                 In  segment BANKED_CODE, align 1, keep-with-next
   \                     ?Subroutine60:
   \   000000   12....       LCALL   ?Subroutine158 & 0xFFFF
   \                     ??CrossCallReturnLabel_595:
   \   000003   12....       LCALL   ?Subroutine147 & 0xFFFF
   \                     ??CrossCallReturnLabel_329:
   \   000006   F5..         MOV     ?V0 + 4,A
   \   000008                ; Setup parameters for call to function NLME_GetRequest
   \   000008                ; Setup parameters for call to function APSME_GetRequest
   \   000008   85..82       MOV     DPL,?XSP + 0
   \   00000B   85..83       MOV     DPH,?XSP + 1
   \   00000E   AC82         MOV     R4,DPL
   \   000010   AD83         MOV     R5,DPH
   \   000012   7A00         MOV     R2,#0x0
   \   000014   7B00         MOV     R3,#0x0
   \   000016   22           RET

   \                                 In  segment BANKED_CODE, align 1, keep-with-next
   \                     ?Subroutine118:
   \   000000   12....       LCALL   ?Subroutine157 & 0xFFFF
   \                     ??CrossCallReturnLabel_248:
   \   000003   22           RET

   \                                 In  segment BANKED_CODE, align 1, keep-with-next
   \                     ?Subroutine157:
   \   000000   12....       LCALL   ??Subroutine213_0 & 0xFFFF
   \                     ??CrossCallReturnLabel_603:
   \   000003   7402         MOV     A,#0x2
   \   000005   F0           MOVX    @DPTR,A
   \   000006                ; Setup parameters for call to function ZDO_CopyMatchInfo
   \   000006   EE           MOV     A,R6
   \   000007   22           RET

   \                                 In  segment BANKED_CODE, align 1, keep-with-next
   \                     ?Subroutine156:
   \   000000   F5..         MOV     ?V0 + 8,A
   \   000002   EF           MOV     A,R7
   \   000003   3400         ADDC    A,#0x0
   \   000005   F5..         MOV     ?V0 + 9,A
   \   000007   85..82       MOV     DPL,?V0 + 8
   \   00000A   F583         MOV     DPH,A
   \   00000C   22           RET

   \                                 In  segment BANKED_CODE, align 1, keep-with-next
   \                     ?Subroutine38:
   \   000000   12....       LCALL   ?Subroutine162 & 0xFFFF
   \                     ??CrossCallReturnLabel_529:
   \   000003   E0           MOVX    A,@DPTR
   \   000004   22           RET

   \                                 In  segment BANKED_CODE, align 1, keep-with-next
   \                     ?Subroutine162:
   \   000000   F0           MOVX    @DPTR,A
   \   000001                ; Setup parameters for call to function osal_memcpy
   \   000001   8882         MOV     DPL,R0
   \   000003   8983         MOV     DPH,R1
   \   000005   22           RET

   \                                 In  segment BANKED_CODE, align 1, keep-with-next
   \                     ?Subroutine158:
   \   000000   12....       LCALL   ?Subroutine172 & 0xFFFF
   \                     ??CrossCallReturnLabel_541:
   \   000003   EB           MOV     A,R3
   \   000004                REQUIRE ??Subroutine229_0
   \   000004                ; // Fall through to label ??Subroutine229_0
   1326          
   1327          /*********************************************************************
   1328           * @fn          ZDO_ProcessMgmtNwkDiscReq
   1329           *
   1330           * @brief       This function handles parsing the incoming Management
   1331           *              Network Discover request and starts the request.
   1332           *
   1333           * @param       inMsg - incoming message (request)
   1334           *
   1335           * @return      none
   1336           */

   \                                 In  segment BANKED_CODE, align 1, keep-with-next
   1337          void ZDO_ProcessMgmtNwkDiscReq( zdoIncomingMsg_t *inMsg )
   \                     ZDO_ProcessMgmtNwkDiscReq:
   1338          {
   \   000000   74F6         MOV     A,#-0xa
   \   000002   12....       LCALL   ?BANKED_ENTER_XDATA
   \   000005                ; Saved register size: 10
   \   000005                ; Auto size: 7
   \   000005   74F9         MOV     A,#-0x7
   \   000007   12....       LCALL   ?ALLOC_XSTACK8
   \   00000A   8A..         MOV     ?V0 + 0,R2
   \   00000C   8B..         MOV     ?V0 + 1,R3
   1339            NLME_ScanFields_t scan;
   1340            uint8             index;
   1341            uint8             *msg;
   1342          
   1343            msg = inMsg->asdu;
   \   00000E   12....       LCALL   ?Subroutine81 & 0xFFFF
   1344            scan.channels = osal_build_uint32( msg, 4 );
   \                     ??CrossCallReturnLabel_133:
   \   000011   12....       LCALL   ??osal_build_uint32?relay
   \   000014   85..82       MOV     DPL,?XSP + 0
   \   000017   85..83       MOV     DPH,?XSP + 1
   \   00001A   12....       LCALL   ?XSTORE_R2345
   1345            msg += 4;
   \   00001D   12....       LCALL   ?Subroutine111 & 0xFFFF
   1346            scan.duration = *msg++;
   \                     ??CrossCallReturnLabel_309:
   \   000020   C0E0         PUSH    A
   \   000022   7404         MOV     A,#0x4
   \   000024   12....       LCALL   ?XSTACK_DISP0_8
   \   000027   D0E0         POP     A
   \   000029   12....       LCALL   ?Subroutine132 & 0xFFFF
   1347            index         = *msg;
   \                     ??CrossCallReturnLabel_550:
   \   00002C   E0           MOVX    A,@DPTR
   \   00002D   FA           MOV     R2,A
   1348            scan.scanType = ZMAC_ACTIVE_SCAN;
   \   00002E   7405         MOV     A,#0x5
   \   000030   12....       LCALL   ?XSTACK_DISP0_8
   \   000033   7401         MOV     A,#0x1
   \   000035   F0           MOVX    @DPTR,A
   1349            scan.scanApp  = NLME_DISC_SCAN;
   \   000036   7406         MOV     A,#0x6
   \   000038   12....       LCALL   ?XSTACK_DISP0_8
   \   00003B   7401         MOV     A,#0x1
   \   00003D   F0           MOVX    @DPTR,A
   1350          
   1351            // Save off the information to be used for the response
   1352            zdappMgmtNwkDiscReqInProgress          = true;
   \   00003E   90....       MOV     DPTR,#zdappMgmtNwkDiscReqInProgress
   \   000041   F0           MOVX    @DPTR,A
   1353            zdappMgmtNwkDiscRspAddr.addrMode       = Addr16Bit;
   \   000042   90....       MOV     DPTR,#zdappMgmtNwkDiscRspAddr + 8
   \   000045   04           INC     A
   \   000046   F0           MOVX    @DPTR,A
   1354            zdappMgmtNwkDiscRspAddr.addr.shortAddr = inMsg->srcAddr.addr.shortAddr;
   \   000047   85..82       MOV     DPL,?V0 + 0
   \   00004A   85..83       MOV     DPH,?V0 + 1
   \   00004D   A3           INC     DPTR
   \   00004E   A3           INC     DPTR
   \   00004F   12....       LCALL   ??Subroutine186_0 & 0xFFFF
   \                     ??CrossCallReturnLabel_318:
   \   000052   90....       MOV     DPTR,#zdappMgmtNwkDiscRspAddr
   \   000055   12....       LCALL   ??Subroutine183_0 & 0xFFFF
   1355            zdappMgmtNwkDiscStartIndex             = index;
   \                     ??CrossCallReturnLabel_300:
   \   000058   EA           MOV     A,R2
   \   000059   90....       MOV     DPTR,#zdappMgmtNwkDiscStartIndex
   \   00005C   F0           MOVX    @DPTR,A
   1356            zdappMgmtNwkDiscRspTransSeq            = inMsg->TransSeq;
   \   00005D   E5..         MOV     A,?V0 + 0
   \   00005F   12....       LCALL   ?Subroutine123 & 0xFFFF
   \                     ??CrossCallReturnLabel_197:
   \   000062   E5..         MOV     A,?V0 + 1
   \   000064   12....       LCALL   ??Subroutine189_0 & 0xFFFF
   \                     ??CrossCallReturnLabel_341:
   \   000067   90....       MOV     DPTR,#zdappMgmtNwkDiscRspTransSeq
   \   00006A   12....       LCALL   ?Subroutine133 & 0xFFFF
   1357          
   1358            if ( NLME_NwkDiscReq2( &scan ) != ZSuccess )
   \                     ??CrossCallReturnLabel_213:
   \   00006D   AA82         MOV     R2,DPL
   \   00006F   AB83         MOV     R3,DPH
   \   000071   12....       LCALL   ??NLME_NwkDiscReq2?relay
   \   000074   E9           MOV     A,R1
   \   000075   6003         JZ      ??ZDO_ProcessMgmtNwkDiscReq_0
   1359            {
   1360              NLME_NwkDiscTerm();
   \   000077                ; Setup parameters for call to function NLME_NwkDiscTerm
   \   000077   12....       LCALL   ??NLME_NwkDiscTerm?relay
   1361          
   1362              // zdappMgmtNwkDiscReqInProgress will be reset in the confirm callback
   1363            }
   1364          }
   \                     ??ZDO_ProcessMgmtNwkDiscReq_0:
   \   00007A   7407         MOV     A,#0x7
   \   00007C   02....       LJMP    ??Subroutine175_0 & 0xFFFF

   \                                 In  segment BANKED_CODE, align 1, keep-with-next
   \                     ?Subroutine111:
   \   000000   EE           MOV     A,R6
   \   000001   2404         ADD     A,#0x4
   \   000003                REQUIRE ??Subroutine185_0
   \   000003                ; // Fall through to label ??Subroutine185_0

   \                                 In  segment BANKED_CODE, align 1, keep-with-next
   \                     ??Subroutine185_0:
   \   000000   12....       LCALL   ?Subroutine152 & 0xFFFF
   \                     ??CrossCallReturnLabel_450:
   \   000003   E0           MOVX    A,@DPTR
   \   000004   22           RET

   \                                 In  segment BANKED_CODE, align 1, keep-with-next
   \                     ?Subroutine152:
   \   000000   FE           MOV     R6,A
   \   000001   EF           MOV     A,R7
   \   000002   3400         ADDC    A,#0x0
   \   000004   FF           MOV     R7,A
   \   000005   8E82         MOV     DPL,R6
   \   000007   8F83         MOV     DPH,R7
   \   000009   22           RET

   \                                 In  segment BANKED_CODE, align 1, keep-with-next
   \                     ?Subroutine145:
   \   000000   12....       LCALL   ?Subroutine171 & 0xFFFF
   \                     ??CrossCallReturnLabel_604:
   \   000003                REQUIRE ??Subroutine209_0
   \   000003                ; // Fall through to label ??Subroutine209_0

   \                                 In  segment BANKED_CODE, align 1, keep-with-next
   \                     ??Subroutine209_0:
   \   000000   E0           MOVX    A,@DPTR
   \   000001   FE           MOV     R6,A
   \   000002   A3           INC     DPTR
   \   000003   E0           MOVX    A,@DPTR
   \   000004   FF           MOV     R7,A
   \   000005   22           RET

   \                                 In  segment BANKED_CODE, align 1, keep-with-next
   \                     ?Subroutine132:
   \   000000   12....       LCALL   ?Subroutine163 & 0xFFFF
   \                     ??CrossCallReturnLabel_552:
   \   000003   22           RET

   \                                 In  segment BANKED_CODE, align 1, keep-with-next
   \                     ?Subroutine163:
   \   000000   F0           MOVX    @DPTR,A
   \   000001   8E82         MOV     DPL,R6
   \   000003   8F83         MOV     DPH,R7
   \   000005   A3           INC     DPTR
   \   000006   22           RET

   \                                 In  segment BANKED_CODE, align 1, keep-with-next
   \                     ?Subroutine81:
   \   000000   12....       LCALL   ?Subroutine145 & 0xFFFF
   \                     ??CrossCallReturnLabel_574:
   \   000003                ; Setup parameters for call to function osal_build_uint32
   \   000003                ; Setup parameters for call to function osal_build_uint32
   \   000003   7904         MOV     R1,#0x4
   \   000005   EE           MOV     A,R6
   \   000006   FA           MOV     R2,A
   \   000007   EF           MOV     A,R7
   \   000008   FB           MOV     R3,A
   \   000009   22           RET
   1365          
   1366          #if defined ( ZDO_MGMT_NWKDISC_RESPONSE )
   1367          /*********************************************************************
   1368           * @fn          ZDO_FinishProcessingMgmtNwkDiscReq
   1369           *
   1370           * @brief       This function finishes the processing of the Management
   1371           *              Network Discover Request and generates the response.
   1372           *
   1373           *   Note:      This function will limit the number of items returned
   1374           *              to ZDO_MAX_NWKDISC_ITEMS items.
   1375           *
   1376           * @param       ResultCountSrcAddr - source of the request
   1377           * @param       msg - pointer to incoming message
   1378           * @param       SecurityUse -
   1379           *
   1380           * @return      none
   1381           */
   1382          void ZDO_FinishProcessingMgmtNwkDiscReq( void )
   1383          {
   1384            byte count, i, ResultCount = 0;
   1385            networkDesc_t *newDesc = NULL, *pList, *NetworkList;
   1386          
   1387            NetworkList = nwk_getNwkDescList();
   1388          
   1389            // Count the number of nwk descriptors in the list
   1390            pList = nwk_getNwkDescList();
   1391            while (pList)
   1392            {
   1393              ResultCount++;
   1394              pList = pList->nextDesc;
   1395            }
   1396          
   1397            if ( ZSTACK_ROUTER_BUILD )
   1398            {
   1399              // Look for my PanID.
   1400              pList = nwk_getNwkDescList();
   1401              while ( pList )
   1402              {
   1403                if ( pList->panId == _NIB.nwkPanId )
   1404                {
   1405                  break;
   1406                }
   1407          
   1408          
   1409                if ( !pList->nextDesc )
   1410                {
   1411                  break;
   1412                }
   1413                pList = pList->nextDesc;
   1414              }
   1415          
   1416          
   1417              // If my Pan not present (query to a star network ZC or an isolated ZR?),
   1418              // prepend it.
   1419              if ( !pList || (pList->panId != _NIB.nwkPanId) )
   1420              {
   1421                newDesc = (networkDesc_t *)osal_mem_alloc( sizeof( networkDesc_t ) );
   1422                if ( newDesc )
   1423                {
   1424                  byte pJoin;
   1425          
   1426                  newDesc->panId = _NIB.nwkPanId;
   1427                  newDesc->logicalChannel = _NIB.nwkLogicalChannel;
   1428                  newDesc->version = NLME_GetProtocolVersion();
   1429                  newDesc->stackProfile = zgStackProfile;
   1430          
   1431                  //Extended PanID
   1432                  osal_cpyExtAddr( newDesc->extendedPANID, _NIB.extendedPANID);
   1433          
   1434                  ZMacGetReq( ZMacAssociationPermit, &pJoin );
   1435                  newDesc->chosenRouter = ((pJoin) ? ZDAppNwkAddr.addr.shortAddr :
   1436                                                     INVALID_NODE_ADDR);
   1437          
   1438                  newDesc->nextDesc = NetworkList;
   1439                  NetworkList = newDesc;
   1440                  ResultCount++;
   1441                }
   1442              }
   1443            }
   1444          
   1445            // Calc the count and apply a max count.
   1446            if ( zdappMgmtNwkDiscStartIndex > ResultCount )
   1447            {
   1448              count = 0;
   1449            }
   1450            else
   1451            {
   1452              count = ResultCount - zdappMgmtNwkDiscStartIndex;
   1453              if ( count > ZDO_MAX_NWKDISC_ITEMS )
   1454              {
   1455                count = ZDO_MAX_NWKDISC_ITEMS;
   1456              }
   1457          
   1458              // Move the list pointer up to the start index.
   1459              for ( i = 0; i < zdappMgmtNwkDiscStartIndex; i++ )
   1460              {
   1461                NetworkList = NetworkList->nextDesc;
   1462              }
   1463            }
   1464          
   1465            ZDP_MgmtNwkDiscRsp( zdappMgmtNwkDiscRspTransSeq,
   1466                               &zdappMgmtNwkDiscRspAddr, ZSuccess, ResultCount,
   1467                                zdappMgmtNwkDiscStartIndex,
   1468                                count,
   1469                                NetworkList,
   1470                                false );
   1471          
   1472            if ( ZSTACK_ROUTER_BUILD )
   1473            {
   1474              if ( newDesc != NULL )
   1475              {
   1476                osal_mem_free( newDesc );
   1477              }
   1478            }
   1479          
   1480            NLME_NwkDiscTerm();
   1481          }
   1482          #endif
   1483          
   1484          /*********************************************************************
   1485           * @fn          ZDO_ProcessMgmtRtgReq
   1486           *
   1487           * @brief       This function finishes the processing of the Management
   1488           *              Routing Request and generates the response.
   1489           *
   1490           *   Note:      This function will limit the number of items returned
   1491           *              to ZDO_MAX_RTG_ITEMS items.
   1492           *
   1493           * @param       inMsg - incoming message (request)
   1494           *
   1495           * @return      none
   1496           */

   \                                 In  segment BANKED_CODE, align 1, keep-with-next
   1497          void ZDO_ProcessMgmtRtgReq( zdoIncomingMsg_t *inMsg )
   \                     ZDO_ProcessMgmtRtgReq:
   1498          {
   \   000000   74EC         MOV     A,#-0x14
   \   000002   12....       LCALL   ?BANKED_ENTER_XDATA
   \   000005                ; Saved register size: 20
   \   000005                ; Auto size: 1
   \   000005   74FF         MOV     A,#-0x1
   \   000007   12....       LCALL   ?ALLOC_XSTACK8
   \   00000A   8A..         MOV     ?V0 + 2,R2
   \   00000C   8B..         MOV     ?V0 + 3,R3
   1499            byte x;
   1500            byte maxNumItems;
   1501            byte numItems = 0;
   \   00000E   7E00         MOV     R6,#0x0
   1502            uint8 *pBuf = NULL;
   \   000010   8E..         MOV     ?V0 + 6,R6
   \   000012   8E..         MOV     ?V0 + 7,R6
   1503            rtgItem_t *pList;
   1504            uint8 StartIndex = inMsg->asdu[0];
   \   000014   EA           MOV     A,R2
   \   000015   12....       LCALL   ??Subroutine220_0 & 0xFFFF
   \                     ??CrossCallReturnLabel_533:
   \   000018   EB           MOV     A,R3
   \   000019   12....       LCALL   ?Subroutine78 & 0xFFFF
   \                     ??CrossCallReturnLabel_327:
   \   00001C   FF           MOV     R7,A
   1505          
   1506            // Get the number of table items
   1507            NLME_GetRequest( nwkNumRoutingTableEntries, 0, &maxNumItems );
   \   00001D                ; Setup parameters for call to function NLME_GetRequest
   \   00001D   85..82       MOV     DPL,?XSP + 0
   \   000020   85..83       MOV     DPH,?XSP + 1
   \   000023   AC82         MOV     R4,DPL
   \   000025   AD83         MOV     R5,DPH
   \   000027   7A00         MOV     R2,#0x0
   \   000029   7B00         MOV     R3,#0x0
   \   00002B   799D         MOV     R1,#-0x63
   \   00002D   12....       LCALL   ??NLME_GetRequest?relay
   1508          
   1509            if ( maxNumItems > StartIndex )
   \   000030   85..82       MOV     DPL,?XSP + 0
   \   000033   85..83       MOV     DPH,?XSP + 1
   \   000036   E0           MOVX    A,@DPTR
   \   000037   F8           MOV     R0,A
   \   000038   EF           MOV     A,R7
   \   000039   C3           CLR     C
   \   00003A   98           SUBB    A,R0
   \   00003B   5074         JNC     ??ZDO_ProcessMgmtRtgReq_0
   1510            {
   1511              numItems = maxNumItems - StartIndex;    // Start at the passed in index
   \   00003D   E0           MOVX    A,@DPTR
   \   00003E   C3           CLR     C
   \   00003F   9F           SUBB    A,R7
   \   000040   FE           MOV     R6,A
   1512          
   1513              // limit the size of the list
   1514              if ( numItems > ZDO_MAX_RTG_ITEMS )
   \   000041   C3           CLR     C
   \   000042   940B         SUBB    A,#0xb
   \   000044   4002         JC      ??ZDO_ProcessMgmtRtgReq_1
   1515              {
   1516                numItems = ZDO_MAX_RTG_ITEMS;
   \   000046   7E0A         MOV     R6,#0xa
   1517              }
   1518          
   1519              // Allocate the memory to build the table
   1520              pBuf = osal_mem_alloc( (short)(sizeof( rtgItem_t ) * numItems) );
   \                     ??ZDO_ProcessMgmtRtgReq_1:
   \   000048                ; Setup parameters for call to function osal_mem_alloc
   \   000048   EE           MOV     A,R6
   \   000049   75F007       MOV     B,#0x7
   \   00004C   A4           MUL     AB
   \   00004D   FA           MOV     R2,A
   \   00004E   ABF0         MOV     R3,B
   \   000050   12....       LCALL   ??osal_mem_alloc?relay
   \   000053   8A..         MOV     ?V0 + 0,R2
   \   000055   8B..         MOV     ?V0 + 1,R3
   \   000057   8A..         MOV     ?V0 + 6,R2
   \   000059   8B..         MOV     ?V0 + 7,R3
   1521          
   1522              if ( pBuf != NULL )
   \   00005B   EA           MOV     A,R2
   \   00005C   45..         ORL     A,?V0 + 7
   \   00005E   604F         JZ      ??ZDO_ProcessMgmtRtgReq_2
   1523              {
   1524                // Convert buffer to list
   1525                pList = (rtgItem_t *)pBuf;
   1526          
   1527                // Loop through items and build list
   1528                for ( x = 0; x < numItems; x++ )
   \   000060   75..00       MOV     ?V0 + 4,#0x0
   \   000063   800C         SJMP    ??ZDO_ProcessMgmtRtgReq_3
   1529                {
   1530                  NLME_GetRequest( nwkRoutingTable, (uint16)(x + StartIndex), (void*)pList );
   1531          
   1532                  // Remap the status to the RoutingTableList Record Format defined in the ZigBee spec
   1533                  switch( pList->status )
   1534                  {
   1535                    case RT_ACTIVE:
   1536                      pList->status = ZDO_MGMT_RTG_ENTRY_ACTIVE;
   1537                      break;
   1538          
   1539                    case RT_DISC:
   1540                      pList->status = ZDO_MGMT_RTG_ENTRY_DISCOVERY_UNDERWAY;
   1541                      break;
   1542          
   1543                    case RT_LINK_FAIL:
   1544                      pList->status = ZDO_MGMT_RTG_ENTRY_DISCOVERY_FAILED;
   1545                      break;
   1546          
   1547                    case RT_INIT:
   1548                    case RT_REPAIR:
   1549                    default:
   1550                      pList->status = ZDO_MGMT_RTG_ENTRY_INACTIVE;
   \                     ??ZDO_ProcessMgmtRtgReq_4:
   \   000065   7403         MOV     A,#0x3
   \                     ??ZDO_ProcessMgmtRtgReq_5:
   \   000067   F0           MOVX    @DPTR,A
   1551                      break;
   1552                  }
   1553          
   1554                  // Increment pointer to next record
   1555                  pList++;
   \   000068   E5..         MOV     A,?V0 + 0
   \   00006A   2407         ADD     A,#0x7
   \   00006C   12....       LCALL   ?Subroutine116 & 0xFFFF
   \                     ??CrossCallReturnLabel_560:
   \   00006F   05..         INC     ?V0 + 4
   \                     ??ZDO_ProcessMgmtRtgReq_3:
   \   000071   E5..         MOV     A,?V0 + 4
   \   000073   C3           CLR     C
   \   000074   9E           SUBB    A,R6
   \   000075   503A         JNC     ??ZDO_ProcessMgmtRtgReq_0
   \   000077                ; Setup parameters for call to function NLME_GetRequest
   \   000077   AC..         MOV     R4,?V0 + 0
   \   000079   AD..         MOV     R5,?V0 + 1
   \   00007B   85....       MOV     ?V0 + 8,?V0 + 4
   \   00007E   8F..         MOV     ?V0 + 10,R7
   \   000080   E5..         MOV     A,?V0 + 8
   \   000082   25..         ADD     A,?V0 + 10
   \   000084   FA           MOV     R2,A
   \   000085   E4           CLR     A
   \   000086   3400         ADDC    A,#0x0
   \   000088   FB           MOV     R3,A
   \   000089   798B         MOV     R1,#-0x75
   \   00008B   12....       LCALL   ??NLME_GetRequest?relay
   \   00008E   E5..         MOV     A,?V0 + 0
   \   000090   2405         ADD     A,#0x5
   \   000092   F582         MOV     DPL,A
   \   000094   E5..         MOV     A,?V0 + 1
   \   000096   12....       LCALL   ??Subroutine189_0 & 0xFFFF
   \                     ??CrossCallReturnLabel_342:
   \   000099   14           DEC     A
   \   00009A   6008         JZ      ??ZDO_ProcessMgmtRtgReq_6
   \   00009C   14           DEC     A
   \   00009D   6008         JZ      ??ZDO_ProcessMgmtRtgReq_7
   \   00009F   14           DEC     A
   \   0000A0   6009         JZ      ??ZDO_ProcessMgmtRtgReq_8
   \   0000A2   80C1         SJMP    ??ZDO_ProcessMgmtRtgReq_4
   \                     ??ZDO_ProcessMgmtRtgReq_6:
   \   0000A4   E4           CLR     A
   \   0000A5   80C0         SJMP    ??ZDO_ProcessMgmtRtgReq_5
   \                     ??ZDO_ProcessMgmtRtgReq_7:
   \   0000A7   7401         MOV     A,#0x1
   \   0000A9   80BC         SJMP    ??ZDO_ProcessMgmtRtgReq_5
   \                     ??ZDO_ProcessMgmtRtgReq_8:
   \   0000AB   7402         MOV     A,#0x2
   \   0000AD   80B8         SJMP    ??ZDO_ProcessMgmtRtgReq_5
   1556                }
   1557              }
   1558              else
   1559              {
   1560                numItems = 0;
   \                     ??ZDO_ProcessMgmtRtgReq_2:
   \   0000AF   7E00         MOV     R6,#0x0
   1561              }
   1562            }
   1563          
   1564            // Send response
   1565            ZDP_MgmtRtgRsp( inMsg->TransSeq, &(inMsg->srcAddr), ZSuccess, maxNumItems, StartIndex, numItems,
   1566                                  (rtgItem_t *)pBuf, false );
   \                     ??ZDO_ProcessMgmtRtgReq_0:
   \   0000B1                ; Setup parameters for call to function ZDP_MgmtRtgRsp
   \   0000B1   75..00       MOV     ?V0 + 0,#0x0
   \   0000B4   78..         MOV     R0,#?V0 + 0
   \   0000B6   12....       LCALL   ?PUSH_XSTACK_I_ONE
   \   0000B9   78..         MOV     R0,#?V0 + 6
   \   0000BB   12....       LCALL   ?PUSH_XSTACK_I_TWO
   \   0000BE   EE           MOV     A,R6
   \   0000BF   F5..         MOV     ?V0 + 0,A
   \   0000C1   78..         MOV     R0,#?V0 + 0
   \   0000C3   12....       LCALL   ?PUSH_XSTACK_I_ONE
   \   0000C6   EF           MOV     A,R7
   \   0000C7   F5..         MOV     ?V0 + 0,A
   \   0000C9   78..         MOV     R0,#?V0 + 0
   \   0000CB   12....       LCALL   ?PUSH_XSTACK_I_ONE
   \   0000CE   7405         MOV     A,#0x5
   \   0000D0   12....       LCALL   ?XSTACK_DISP0_8
   \   0000D3   E0           MOVX    A,@DPTR
   \   0000D4   FD           MOV     R5,A
   \   0000D5   7C00         MOV     R4,#0x0
   \   0000D7   E5..         MOV     A,?V0 + 2
   \   0000D9   2402         ADD     A,#0x2
   \   0000DB   FA           MOV     R2,A
   \   0000DC   E5..         MOV     A,?V0 + 3
   \   0000DE   3400         ADDC    A,#0x0
   \   0000E0   FB           MOV     R3,A
   \   0000E1   E5..         MOV     A,?V0 + 2
   \   0000E3   12....       LCALL   ?Subroutine123 & 0xFFFF
   \                     ??CrossCallReturnLabel_198:
   \   0000E6   E5..         MOV     A,?V0 + 3
   \   0000E8   12....       LCALL   ??Subroutine193_0 & 0xFFFF
   \                     ??CrossCallReturnLabel_361:
   \   0000EB   12....       LCALL   ??ZDP_MgmtRtgRsp?relay
   \   0000EE   7405         MOV     A,#0x5
   \   0000F0   12....       LCALL   ?DEALLOC_XSTACK8
   1567          
   1568            if ( pBuf != NULL )
   \   0000F3   E5..         MOV     A,?V0 + 6
   \   0000F5   45..         ORL     A,?V0 + 7
   \   0000F7   6007         JZ      ??ZDO_ProcessMgmtRtgReq_9
   1569            {
   1570              osal_mem_free( pBuf );
   \   0000F9                ; Setup parameters for call to function osal_mem_free
   \   0000F9   AA..         MOV     R2,?V0 + 6
   \   0000FB   AB..         MOV     R3,?V0 + 7
   \   0000FD   12....       LCALL   ??osal_mem_free?relay
   1571            }
   1572          }
   \                     ??ZDO_ProcessMgmtRtgReq_9:
   \   000100   7401         MOV     A,#0x1
   \   000102   12....       LCALL   ?DEALLOC_XSTACK8
   \   000105                REQUIRE ?Subroutine7
   \   000105                ; // Fall through to label ?Subroutine7

   \                                 In  segment BANKED_CODE, align 1, keep-with-next
   \                     ?Subroutine7:
   \   000000   7F0C         MOV     R7,#0xc
   \   000002   02....       LJMP    ?BANKED_LEAVE_XDATA

   \                                 In  segment BANKED_CODE, align 1, keep-with-next
   \                     ?Subroutine78:
   \   000000   12....       LCALL   ??Subroutine229_0 & 0xFFFF
   \                     ??CrossCallReturnLabel_593:
   \   000003                REQUIRE ??Subroutine187_0
   \   000003                ; // Fall through to label ??Subroutine187_0

   \                                 In  segment BANKED_CODE, align 1, keep-with-next
   \                     ?Subroutine116:
   \   000000   F5..         MOV     ?V0 + 0,A
   \   000002   E5..         MOV     A,?V0 + 1
   \   000004                REQUIRE ??Subroutine222_0
   \   000004                ; // Fall through to label ??Subroutine222_0

   \                                 In  segment BANKED_CODE, align 1, keep-with-next
   \                     ??Subroutine222_0:
   \   000000   3400         ADDC    A,#0x0
   \   000002   F5..         MOV     ?V0 + 1,A
   \   000004   22           RET
   1573          
   1574          /*********************************************************************
   1575           * @fn          ZDO_ProcessMgmtBindReq
   1576           *
   1577           * @brief       This function finishes the processing of the Management
   1578           *              Bind Request and generates the response.
   1579           *
   1580           *   Note:      This function will limit the number of items returned
   1581           *              to ZDO_MAX_BIND_ITEMS items.
   1582           *
   1583           * @param       inMsg - incoming message (request)
   1584           *
   1585           * @return      none
   1586           */

   \                                 In  segment BANKED_CODE, align 1, keep-with-next
   \                     ?Subroutine100:
   \   000000   85..82       MOV     DPL,?XSP + 0
   \   000003   85..83       MOV     DPH,?XSP + 1
   \   000006                REQUIRE ??Subroutine186_0
   \   000006                ; // Fall through to label ??Subroutine186_0

   \                                 In  segment BANKED_CODE, align 1, keep-with-next
   1587          void ZDO_ProcessMgmtBindReq( zdoIncomingMsg_t *inMsg )
   \                     ZDO_ProcessMgmtBindReq:
   1588          {
   \   000000   74EA         MOV     A,#-0x16
   \   000002   12....       LCALL   ?BANKED_ENTER_XDATA
   \   000005                ; Saved register size: 22
   \   000005                ; Auto size: 2
   \   000005   74FE         MOV     A,#-0x2
   \   000007   12....       LCALL   ?ALLOC_XSTACK8
   \   00000A   8A..         MOV     ?V0 + 12,R2
   \   00000C   8B..         MOV     ?V0 + 13,R3
   1589          #if defined ( REFLECTOR )
   1590            byte x;
   1591            uint16 maxNumItems;
   1592            uint16 numItems;
   1593            uint8 *pBuf = NULL;
   \   00000E   75..00       MOV     ?V0 + 0,#0x0
   \   000011   75..00       MOV     ?V0 + 1,#0x0
   1594            apsBindingItem_t *pList;
   1595            uint8 StartIndex = inMsg->asdu[0];
   \   000014   12....       LCALL   ?Subroutine60 & 0xFFFF
   1596            uint8 status;
   1597          
   1598            // Get the number of table items
   1599            APSME_GetRequest( apsNumBindingTableEntries, 0, (byte*)(&maxNumItems) );
   \                     ??CrossCallReturnLabel_102:
   \   000017   79A3         MOV     R1,#-0x5d
   \   000019   12....       LCALL   ??APSME_GetRequest?relay
   1600          
   1601            if ( maxNumItems > StartIndex )
   \   00001C   85..82       MOV     DPL,?V0 + 4
   \   00001F   AA82         MOV     R2,DPL
   \   000021   12....       LCALL   ?Subroutine100 & 0xFFFF
   \                     ??CrossCallReturnLabel_322:
   \   000024   C3           CLR     C
   \   000025   EA           MOV     A,R2
   \   000026   98           SUBB    A,R0
   \   000027   E4           CLR     A
   \   000028   99           SUBB    A,R1
   \   000029   5079         JNC     ??ZDO_ProcessMgmtBindReq_0
   1602            {
   1603              numItems = maxNumItems - StartIndex;    // Start at the passed in index
   \   00002B   85..82       MOV     DPL,?XSP + 0
   \   00002E   85..83       MOV     DPH,?XSP + 1
   \   000031   E0           MOVX    A,@DPTR
   \   000032   C3           CLR     C
   \   000033   9A           SUBB    A,R2
   \   000034   FE           MOV     R6,A
   \   000035   A3           INC     DPTR
   \   000036   E0           MOVX    A,@DPTR
   \   000037   9400         SUBB    A,#0x0
   \   000039   FF           MOV     R7,A
   1604            }
   1605            else
   1606            {
   1607              numItems = 0;
   1608            }
   1609          
   1610            // limit the size of the list
   1611            if ( numItems > ZDO_MAX_BIND_ITEMS )
   \   00003A   C3           CLR     C
   \   00003B   EE           MOV     A,R6
   \   00003C   9404         SUBB    A,#0x4
   \   00003E   EF           MOV     A,R7
   \   00003F   9400         SUBB    A,#0x0
   \   000041   4006         JC      ??ZDO_ProcessMgmtBindReq_1
   1612            {
   1613              numItems = ZDO_MAX_BIND_ITEMS;
   \   000043   7E03         MOV     R6,#0x3
   \   000045   7F00         MOV     R7,#0x0
   \   000047   8004         SJMP    ??ZDO_ProcessMgmtBindReq_2
   1614            }
   1615          
   1616            // Allocate the memory to build the table
   1617            if ( numItems && (pBuf = osal_mem_alloc( sizeof( apsBindingItem_t ) * numItems )) )
   \                     ??ZDO_ProcessMgmtBindReq_1:
   \   000049   EE           MOV     A,R6
   \   00004A   4F           ORL     A,R7
   \   00004B   6057         JZ      ??ZDO_ProcessMgmtBindReq_0
   \                     ??ZDO_ProcessMgmtBindReq_2:
   \   00004D                ; Setup parameters for call to function osal_mem_alloc
   \   00004D   EE           MOV     A,R6
   \   00004E   FA           MOV     R2,A
   \   00004F   EF           MOV     A,R7
   \   000050   FB           MOV     R3,A
   \   000051   EA           MOV     A,R2
   \   000052   75F015       MOV     B,#0x15
   \   000055   A4           MUL     AB
   \   000056   FA           MOV     R2,A
   \   000057   A8F0         MOV     R0,B
   \   000059   75F015       MOV     B,#0x15
   \   00005C   EB           MOV     A,R3
   \   00005D   A4           MUL     AB
   \   00005E   28           ADD     A,R0
   \   00005F   FB           MOV     R3,A
   \   000060   12....       LCALL   ??osal_mem_alloc?relay
   \   000063   8A..         MOV     ?V0 + 2,R2
   \   000065   8B..         MOV     ?V0 + 3,R3
   \   000067   8A..         MOV     ?V0 + 0,R2
   \   000069   8B..         MOV     ?V0 + 1,R3
   \   00006B   EA           MOV     A,R2
   \   00006C   45..         ORL     A,?V0 + 1
   \   00006E   6034         JZ      ??ZDO_ProcessMgmtBindReq_0
   1618            {
   1619              status = ZSuccess;
   \   000070   75..00       MOV     ?V0 + 5,#0x0
   1620          
   1621              // Convert buffer to list
   1622              pList = (apsBindingItem_t *)pBuf;
   1623          
   1624              // Loop through items and build list
   1625              for ( x = 0; x < numItems; x++ )
   \   000073   75..00       MOV     ?V0 + 6,#0x0
   \                     ??ZDO_ProcessMgmtBindReq_3:
   \   000076   85....       MOV     ?V0 + 8,?V0 + 6
   \   000079   C3           CLR     C
   \   00007A   E5..         MOV     A,?V0 + 8
   \   00007C   9E           SUBB    A,R6
   \   00007D   E4           CLR     A
   \   00007E   9F           SUBB    A,R7
   \   00007F   5028         JNC     ??ZDO_ProcessMgmtBindReq_4
   1626              {
   1627                APSME_GetRequest( apsBindingTable, (x + StartIndex), (void*)pList );
   \   000081                ; Setup parameters for call to function APSME_GetRequest
   \   000081   AC..         MOV     R4,?V0 + 2
   \   000083   AD..         MOV     R5,?V0 + 3
   \   000085   85....       MOV     ?V0 + 10,?V0 + 6
   \   000088   85....       MOV     ?V0 + 8,?V0 + 4
   \   00008B   E5..         MOV     A,?V0 + 10
   \   00008D   25..         ADD     A,?V0 + 8
   \   00008F   FA           MOV     R2,A
   \   000090   E4           CLR     A
   \   000091   3400         ADDC    A,#0x0
   \   000093   FB           MOV     R3,A
   \   000094   79A2         MOV     R1,#-0x5e
   \   000096   12....       LCALL   ??APSME_GetRequest?relay
   1628                pList++;
   \   000099   E5..         MOV     A,?V0 + 2
   \   00009B   2415         ADD     A,#0x15
   \   00009D   12....       LCALL   ?Subroutine117 & 0xFFFF
   1629              }
   \                     ??CrossCallReturnLabel_336:
   \   0000A0   05..         INC     ?V0 + 6
   \   0000A2   80D2         SJMP    ??ZDO_ProcessMgmtBindReq_3
   1630          
   1631            }
   1632            else
   1633            {
   1634              status = ZDP_NOT_PERMITTED;
   \                     ??ZDO_ProcessMgmtBindReq_0:
   \   0000A4   75..8B       MOV     ?V0 + 5,#-0x75
   1635              numItems = 0;
   \   0000A7   7E00         MOV     R6,#0x0
   1636            }
   1637          
   1638            // Send response
   1639            ZDP_MgmtBindRsp( inMsg->TransSeq, &(inMsg->srcAddr), status, (byte)maxNumItems, StartIndex,
   1640                             (byte)numItems, (apsBindingItem_t *)pBuf, false );
   \                     ??ZDO_ProcessMgmtBindReq_4:
   \   0000A9                ; Setup parameters for call to function ZDP_MgmtBindRsp
   \   0000A9   75..00       MOV     ?V0 + 2,#0x0
   \   0000AC   78..         MOV     R0,#?V0 + 2
   \   0000AE   12....       LCALL   ?PUSH_XSTACK_I_ONE
   \   0000B1   78..         MOV     R0,#?V0 + 0
   \   0000B3   12....       LCALL   ?PUSH_XSTACK_I_TWO
   \   0000B6   EE           MOV     A,R6
   \   0000B7   F5..         MOV     ?V0 + 2,A
   \   0000B9   78..         MOV     R0,#?V0 + 2
   \   0000BB   12....       LCALL   ?PUSH_XSTACK_I_ONE
   \   0000BE   E5..         MOV     A,?V0 + 4
   \   0000C0   F5..         MOV     ?V0 + 2,A
   \   0000C2   78..         MOV     R0,#?V0 + 2
   \   0000C4   12....       LCALL   ?PUSH_XSTACK_I_ONE
   \   0000C7   7405         MOV     A,#0x5
   \   0000C9   12....       LCALL   ?XSTACK_DISP0_8
   \   0000CC   E0           MOVX    A,@DPTR
   \   0000CD   FD           MOV     R5,A
   \   0000CE   AC..         MOV     R4,?V0 + 5
   \   0000D0   E5..         MOV     A,?V0 + 12
   \   0000D2   2402         ADD     A,#0x2
   \   0000D4   FA           MOV     R2,A
   \   0000D5   E5..         MOV     A,?V0 + 13
   \   0000D7   3400         ADDC    A,#0x0
   \   0000D9   FB           MOV     R3,A
   \   0000DA   E5..         MOV     A,?V0 + 12
   \   0000DC   12....       LCALL   ?Subroutine123 & 0xFFFF
   \                     ??CrossCallReturnLabel_199:
   \   0000DF   E5..         MOV     A,?V0 + 13
   \   0000E1   12....       LCALL   ??Subroutine193_0 & 0xFFFF
   \                     ??CrossCallReturnLabel_362:
   \   0000E4   12....       LCALL   ??ZDP_MgmtBindRsp?relay
   \   0000E7   7405         MOV     A,#0x5
   \   0000E9   12....       LCALL   ?DEALLOC_XSTACK8
   1641          
   1642            if ( pBuf )
   \   0000EC   E5..         MOV     A,?V0 + 0
   \   0000EE   45..         ORL     A,?V0 + 1
   \   0000F0   6007         JZ      ??ZDO_ProcessMgmtBindReq_5
   1643            {
   1644              osal_mem_free( pBuf );
   \   0000F2                ; Setup parameters for call to function osal_mem_free
   \   0000F2   AA..         MOV     R2,?V0 + 0
   \   0000F4   AB..         MOV     R3,?V0 + 1
   \   0000F6   12....       LCALL   ??osal_mem_free?relay
   1645            }
   1646          #else
   1647            (void)inMsg;
   1648          #endif
   1649          }
   \                     ??ZDO_ProcessMgmtBindReq_5:
   \   0000F9   7402         MOV     A,#0x2
   \   0000FB   12....       LCALL   ?DEALLOC_XSTACK8
   \   0000FE   7F0E         MOV     R7,#0xe
   \   000100   02....       LJMP    ?BANKED_LEAVE_XDATA
   1650          
   1651          /*********************************************************************
   1652           * @fn          ZDO_ProcessMgmtDirectJoinReq
   1653           *
   1654           * @brief       This function finishes the processing of the Management
   1655           *              Direct Join Request and generates the response.
   1656           *
   1657           * @param       inMsg - incoming message (request)
   1658           *
   1659           * @return      none
   1660           */

   \                                 In  segment BANKED_CODE, align 1, keep-with-next
   1661          void ZDO_ProcessMgmtDirectJoinReq( zdoIncomingMsg_t *inMsg )
   \                     ZDO_ProcessMgmtDirectJoinReq:
   1662          {
   \   000000   74F6         MOV     A,#-0xa
   \   000002   12....       LCALL   ?BANKED_ENTER_XDATA
   \   000005                ; Saved register size: 10
   \   000005                ; Auto size: 1
   \   000005   74FF         MOV     A,#-0x1
   \   000007   12....       LCALL   ?ALLOC_XSTACK8
   \   00000A   12....       LCALL   ?Subroutine105 & 0xFFFF
   1663            uint8 *deviceAddr;
   1664            uint8 capInfo;
   1665            uint8 stat;
   1666          
   1667            // Parse the message
   1668            deviceAddr = inMsg->asdu;
   1669            capInfo = inMsg->asdu[Z_EXTADDR_LEN];
   1670          
   1671            stat = (byte) NLME_DirectJoinRequest( deviceAddr, capInfo );
   \                     ??CrossCallReturnLabel_531:
   \   00000D   EF           MOV     A,R7
   \   00000E   12....       LCALL   ?Subroutine87 & 0xFFFF
   \                     ??CrossCallReturnLabel_145:
   \   000011   A3           INC     DPTR
   \   000012   A3           INC     DPTR
   \   000013   A3           INC     DPTR
   \   000014   A3           INC     DPTR
   \   000015   A3           INC     DPTR
   \   000016   A3           INC     DPTR
   \   000017   A3           INC     DPTR
   \   000018   A3           INC     DPTR
   \   000019   E0           MOVX    A,@DPTR
   \   00001A   F9           MOV     R1,A
   \   00001B   12....       LCALL   ??NLME_DirectJoinRequest?relay
   \   00001E   E9           MOV     A,R1
   \   00001F   85..82       MOV     DPL,?XSP + 0
   \   000022   85..83       MOV     DPH,?XSP + 1
   \   000025   F0           MOVX    @DPTR,A
   1672          
   1673            ZDP_MgmtDirectJoinRsp( inMsg->TransSeq, &(inMsg->srcAddr), stat, false );
   \   000026                ; Setup parameters for call to function ZDP_SendData
   \   000026   75..00       MOV     ?V0 + 0,#0x0
   \   000029   78..         MOV     R0,#?V0 + 0
   \   00002B   12....       LCALL   ?PUSH_XSTACK_I_ONE
   \   00002E   7401         MOV     A,#0x1
   \   000030   12....       LCALL   ?XSTACK_DISP0_8
   \   000033   8582..       MOV     ?V0 + 0,DPL
   \   000036   8583..       MOV     ?V0 + 1,DPH
   \   000039   78..         MOV     R0,#?V0 + 0
   \   00003B   12....       LCALL   ?PUSH_XSTACK_I_TWO
   \   00003E   75..35       MOV     ?V0 + 0,#0x35
   \   000041   75..80       MOV     ?V0 + 1,#-0x80
   \   000044   78..         MOV     R0,#?V0 + 0
   \   000046   12....       LCALL   ?PUSH_XSTACK_I_TWO
   \   000049   12....       LCALL   ?Subroutine114 & 0xFFFF
   \                     ??CrossCallReturnLabel_183:
   \   00004C   12....       LCALL   ??ZDP_SendData?relay
   \   00004F   7405         MOV     A,#0x5
   \   000051   12....       LCALL   ?DEALLOC_XSTACK8
   1674          }
   \   000054                REQUIRE ?Subroutine11
   \   000054                ; // Fall through to label ?Subroutine11

   \                                 In  segment BANKED_CODE, align 1, keep-with-next
   \                     ?Subroutine11:
   \   000000   7401         MOV     A,#0x1
   \   000002   02....       LJMP    ??Subroutine175_0 & 0xFFFF

   \                                 In  segment BANKED_CODE, align 1, keep-with-next
   \                     ?Subroutine114:
   \   000000   7901         MOV     R1,#0x1
   \   000002   EE           MOV     A,R6
   \   000003   2402         ADD     A,#0x2
   \   000005   FC           MOV     R4,A
   \   000006   EF           MOV     A,R7
   \   000007   3400         ADDC    A,#0x0
   \   000009   FD           MOV     R5,A
   \   00000A   EE           MOV     A,R6
   \   00000B   240F         ADD     A,#0xf
   \   00000D   FA           MOV     R2,A
   \   00000E   EF           MOV     A,R7
   \   00000F   3400         ADDC    A,#0x0
   \   000011   FB           MOV     R3,A
   \   000012   22           RET

   \                                 In  segment BANKED_CODE, align 1, keep-with-next
   \                     ?Subroutine149:
   \   000000   12....       LCALL   ??Subroutine213_0 & 0xFFFF
   \                     ??CrossCallReturnLabel_602:
   \   000003                REQUIRE ??Subroutine212_0
   \   000003                ; // Fall through to label ??Subroutine212_0

   \                                 In  segment BANKED_CODE, align 1, keep-with-next
   \                     ?Subroutine105:
   \   000000   EA           MOV     A,R2
   \   000001   FE           MOV     R6,A
   \   000002   EB           MOV     A,R3
   \   000003   FF           MOV     R7,A
   \   000004                ; Setup parameters for call to function NLME_PermitJoiningRequest
   \   000004                REQUIRE ??Subroutine219_0
   \   000004                ; // Fall through to label ??Subroutine219_0

   \                                 In  segment BANKED_CODE, align 1, keep-with-next
   \                     ?Subroutine87:
   \   000000   12....       LCALL   ?Subroutine149 & 0xFFFF
   \                     ??CrossCallReturnLabel_487:
   \   000003                ; Setup parameters for call to function NLME_DirectJoinRequest
   \   000003   8A82         MOV     DPL,R2
   \   000005   8B83         MOV     DPH,R3
   \   000007   22           RET
   1675          
   1676          /*********************************************************************
   1677           * @fn          ZDO_ProcessMgmtLeaveReq
   1678           *
   1679           * @brief       This function processes a Management Leave Request
   1680           *              and generates the response.
   1681           *
   1682           * @param       inMsg - incoming message (request)
   1683           *
   1684           * @return      none
   1685           */

   \                                 In  segment BANKED_CODE, align 1, keep-with-next
   1686          void ZDO_ProcessMgmtLeaveReq( zdoIncomingMsg_t *inMsg )
   \                     ZDO_ProcessMgmtLeaveReq:
   1687          {
   \   000000   74F4         MOV     A,#-0xc
   \   000002   12....       LCALL   ?BANKED_ENTER_XDATA
   \   000005                ; Saved register size: 12
   \   000005                ; Auto size: 6
   \   000005   74FA         MOV     A,#-0x6
   \   000007   12....       LCALL   ?ALLOC_XSTACK8
   \   00000A   8A..         MOV     ?V0 + 0,R2
   \   00000C   8B..         MOV     ?V0 + 1,R3
   1688            NLME_LeaveReq_t req;
   1689            ZStatus_t       status;
   1690            uint8           option;
   1691            uint8 *msg = inMsg->asdu;
   \   00000E   12....       LCALL   ?Subroutine102 & 0xFFFF
   1692          
   1693            if ( ( AddrMgrExtAddrValid( msg ) == FALSE                 ) ||
   1694                 ( osal_ExtAddrEqual( msg, NLME_GetExtAddr() ) == TRUE )    )
   \                     ??CrossCallReturnLabel_170:
   \   000011   FA           MOV     R2,A
   \   000012   EF           MOV     A,R7
   \   000013   FB           MOV     R3,A
   \   000014   12....       LCALL   ??AddrMgrExtAddrValid?relay
   \   000017   E9           MOV     A,R1
   \   000018   6013         JZ      ??ZDO_ProcessMgmtLeaveReq_0
   \   00001A                ; Setup parameters for call to function sAddrExtCmp
   \   00001A                ; Setup parameters for call to function NLME_GetExtAddr
   \   00001A   12....       LCALL   ??NLME_GetExtAddr?relay
   \   00001D   EA           MOV     A,R2
   \   00001E   FC           MOV     R4,A
   \   00001F   EB           MOV     A,R3
   \   000020   FD           MOV     R5,A
   \   000021   EE           MOV     A,R6
   \   000022   FA           MOV     R2,A
   \   000023   EF           MOV     A,R7
   \   000024   FB           MOV     R3,A
   \   000025   12....       LCALL   ??sAddrExtCmp?relay
   \   000028   E9           MOV     A,R1
   \   000029   6401         XRL     A,#0x1
   \   00002B   700A         JNZ     ??ZDO_ProcessMgmtLeaveReq_1
   1695            {
   1696              // Remove this device
   1697              req.extAddr = NULL;
   \                     ??ZDO_ProcessMgmtLeaveReq_0:
   \   00002D   7401         MOV     A,#0x1
   \   00002F   12....       LCALL   ?XSTACK_DISP0_8
   \   000032   E4           CLR     A
   \   000033   F0           MOVX    @DPTR,A
   \   000034   A3           INC     DPTR
   \   000035   8009         SJMP    ??ZDO_ProcessMgmtLeaveReq_2
   1698            }
   1699            else
   1700            {
   1701              // Remove child device
   1702              req.extAddr = msg;
   \                     ??ZDO_ProcessMgmtLeaveReq_1:
   \   000037   7401         MOV     A,#0x1
   \   000039   12....       LCALL   ?XSTACK_DISP0_8
   \   00003C   EE           MOV     A,R6
   \   00003D   F0           MOVX    @DPTR,A
   \   00003E   A3           INC     DPTR
   \   00003F   EF           MOV     A,R7
   1703            }
   \                     ??ZDO_ProcessMgmtLeaveReq_2:
   \   000040   12....       LCALL   ?Subroutine43 & 0xFFFF
   1704          
   1705            option = msg[Z_EXTADDR_LEN];
   \                     ??CrossCallReturnLabel_70:
   \   000043   A3           INC     DPTR
   \   000044   A3           INC     DPTR
   \   000045   A3           INC     DPTR
   \   000046   A3           INC     DPTR
   \   000047   A3           INC     DPTR
   \   000048   A3           INC     DPTR
   \   000049   E0           MOVX    A,@DPTR
   \   00004A   F8           MOV     R0,A
   1706            if ( option & ZDP_MGMT_LEAVE_REQ_RC )
   \   00004B   A2E6         MOV     C,0xE0 /* A   */.6
   \   00004D   5008         JNC     ??ZDO_ProcessMgmtLeaveReq_3
   1707            {
   1708              req.removeChildren = TRUE;
   \   00004F   7403         MOV     A,#0x3
   \   000051   12....       LCALL   ?XSTACK_DISP0_8
   \   000054   7401         MOV     A,#0x1
   \   000056   F0           MOVX    @DPTR,A
   1709            }
   1710          
   1711            if ( option & ZDP_MGMT_LEAVE_REQ_REJOIN )
   \                     ??ZDO_ProcessMgmtLeaveReq_3:
   \   000057   E8           MOV     A,R0
   \   000058   A2E7         MOV     C,0xE0 /* A   */.7
   \   00005A   5008         JNC     ??ZDO_ProcessMgmtLeaveReq_4
   1712            {
   1713               req.rejoin = TRUE;
   \   00005C   7404         MOV     A,#0x4
   \   00005E   12....       LCALL   ?XSTACK_DISP0_8
   \   000061   7401         MOV     A,#0x1
   \   000063   F0           MOVX    @DPTR,A
   1714            }
   1715          
   1716            req.silent = FALSE;
   \                     ??ZDO_ProcessMgmtLeaveReq_4:
   \   000064   7405         MOV     A,#0x5
   \   000066   12....       LCALL   ?XSTACK_DISP0_8
   \   000069   E4           CLR     A
   \   00006A   F0           MOVX    @DPTR,A
   1717          
   1718            status = NLME_LeaveReq( &req );
   \   00006B                ; Setup parameters for call to function NLME_LeaveReq
   \   00006B   04           INC     A
   \   00006C   12....       LCALL   ?XSTACK_DISP0_8
   \   00006F   AA82         MOV     R2,DPL
   \   000071   AB83         MOV     R3,DPH
   \   000073   12....       LCALL   ??NLME_LeaveReq?relay
   \   000076   E9           MOV     A,R1
   \   000077   85..82       MOV     DPL,?XSP + 0
   \   00007A   85..83       MOV     DPH,?XSP + 1
   \   00007D   F0           MOVX    @DPTR,A
   1719          
   1720            ZDP_MgmtLeaveRsp( inMsg->TransSeq, &(inMsg->srcAddr), status, FALSE );
   \   00007E                ; Setup parameters for call to function ZDP_SendData
   \   00007E   75..00       MOV     ?V0 + 2,#0x0
   \   000081   78..         MOV     R0,#?V0 + 2
   \   000083   12....       LCALL   ?PUSH_XSTACK_I_ONE
   \   000086   7401         MOV     A,#0x1
   \   000088   12....       LCALL   ?XSTACK_DISP0_8
   \   00008B   8582..       MOV     ?V0 + 2,DPL
   \   00008E   8583..       MOV     ?V0 + 3,DPH
   \   000091   78..         MOV     R0,#?V0 + 2
   \   000093   12....       LCALL   ?PUSH_XSTACK_I_TWO
   \   000096   75..34       MOV     ?V0 + 2,#0x34
   \   000099   75..80       MOV     ?V0 + 3,#-0x80
   \   00009C   78..         MOV     R0,#?V0 + 2
   \   00009E   12....       LCALL   ?PUSH_XSTACK_I_TWO
   \   0000A1   12....       LCALL   ?Subroutine110 & 0xFFFF
   \                     ??CrossCallReturnLabel_180:
   \   0000A4   12....       LCALL   ??ZDP_SendData?relay
   \   0000A7   7405         MOV     A,#0x5
   \   0000A9   12....       LCALL   ?DEALLOC_XSTACK8
   1721          }
   \   0000AC   7406         MOV     A,#0x6
   \   0000AE   12....       LCALL   ?DEALLOC_XSTACK8
   \   0000B1   02....       LJMP    ?Subroutine2 & 0xFFFF

   \                                 In  segment BANKED_CODE, align 1, keep-with-next
   \                     ?Subroutine43:
   \   000000   12....       LCALL   ?Subroutine132 & 0xFFFF
   \                     ??CrossCallReturnLabel_547:
   \   000003   A3           INC     DPTR
   \   000004   22           RET

   \                                 In  segment BANKED_CODE, align 1, keep-with-next
   \                     ?Subroutine102:
   \   000000   12....       LCALL   ?Subroutine145 & 0xFFFF
   \                     ??CrossCallReturnLabel_575:
   \   000003                ; Setup parameters for call to function AddrMgrExtAddrValid
   \   000003                ; Setup parameters for call to function sAddrExtCpy
   \   000003   EE           MOV     A,R6
   \   000004   22           RET
   1722          
   1723          
   1724          /*********************************************************************
   1725           * @fn          ZDO_ProcessMgmtPermitJoinReq
   1726           *
   1727           * @brief       This function processes a Management Permit Join Request
   1728           *              and generates the response.
   1729           *
   1730           * @param       inMsg - incoming message (request)
   1731           *
   1732           * @return      none
   1733           */

   \                                 In  segment BANKED_CODE, align 1, keep-with-next
   1734          void ZDO_ProcessMgmtPermitJoinReq( zdoIncomingMsg_t *inMsg )
   \                     ZDO_ProcessMgmtPermitJoinReq:
   1735          {
   \   000000   74F6         MOV     A,#-0xa
   \   000002   12....       LCALL   ?BANKED_ENTER_XDATA
   \   000005                ; Saved register size: 10
   \   000005                ; Auto size: 1
   \   000005   74FF         MOV     A,#-0x1
   \   000007   12....       LCALL   ?ALLOC_XSTACK8
   \   00000A   12....       LCALL   ?Subroutine105 & 0xFFFF
   1736            uint8 stat;
   1737            uint8 duration;
   1738            uint8 tcsig;
   1739          
   1740            duration = inMsg->asdu[ZDP_MGMT_PERMIT_JOIN_REQ_DURATION];
   1741            tcsig    = inMsg->asdu[ZDP_MGMT_PERMIT_JOIN_REQ_TC_SIG];
   1742          
   1743            // Set the network layer permit join duration
   1744            stat = (byte) NLME_PermitJoiningRequest( duration );
   \                     ??CrossCallReturnLabel_532:
   \   00000D   EF           MOV     A,R7
   \   00000E   12....       LCALL   ?Subroutine78 & 0xFFFF
   \                     ??CrossCallReturnLabel_328:
   \   000011   F9           MOV     R1,A
   \   000012   12....       LCALL   ??NLME_PermitJoiningRequest?relay
   \   000015   E9           MOV     A,R1
   \   000016   85..82       MOV     DPL,?XSP + 0
   \   000019   85..83       MOV     DPH,?XSP + 1
   \   00001C   F0           MOVX    @DPTR,A
   1745          
   1746            // Handle the Trust Center Significance
   1747            if ( ZG_SECURE_ENABLED && ZG_BUILD_COORDINATOR_TYPE && ZG_DEVICE_COORDINATOR_TYPE )
   1748            {
   1749              if ( tcsig == TRUE )
   1750              {
   1751                ZDSecMgrPermitJoining( duration );
   1752              }
   1753            }
   1754          
   1755            // Send a response if unicast
   1756            if ( !inMsg->wasBroadcast )
   \   00001D   EE           MOV     A,R6
   \   00001E   240B         ADD     A,#0xb
   \   000020   F582         MOV     DPL,A
   \   000022   EF           MOV     A,R7
   \   000023   12....       LCALL   ??Subroutine189_0 & 0xFFFF
   \                     ??CrossCallReturnLabel_343:
   \   000026   702E         JNZ     ??ZDO_ProcessMgmtPermitJoinReq_0
   1757            {
   1758              ZDP_MgmtPermitJoinRsp( inMsg->TransSeq, &(inMsg->srcAddr), stat, false );
   \   000028                ; Setup parameters for call to function ZDP_SendData
   \   000028   75..00       MOV     ?V0 + 0,#0x0
   \   00002B   78..         MOV     R0,#?V0 + 0
   \   00002D   12....       LCALL   ?PUSH_XSTACK_I_ONE
   \   000030   7401         MOV     A,#0x1
   \   000032   12....       LCALL   ?XSTACK_DISP0_8
   \   000035   8582..       MOV     ?V0 + 0,DPL
   \   000038   8583..       MOV     ?V0 + 1,DPH
   \   00003B   78..         MOV     R0,#?V0 + 0
   \   00003D   12....       LCALL   ?PUSH_XSTACK_I_TWO
   \   000040   75..36       MOV     ?V0 + 0,#0x36
   \   000043   75..80       MOV     ?V0 + 1,#-0x80
   \   000046   78..         MOV     R0,#?V0 + 0
   \   000048   12....       LCALL   ?PUSH_XSTACK_I_TWO
   \   00004B   12....       LCALL   ?Subroutine114 & 0xFFFF
   1759            }
   \                     ??CrossCallReturnLabel_184:
   \   00004E   12....       LCALL   ??ZDP_SendData?relay
   \   000051   7405         MOV     A,#0x5
   \   000053   12....       LCALL   ?DEALLOC_XSTACK8
   1760          }
   \                     ??ZDO_ProcessMgmtPermitJoinReq_0:
   \   000056   02....       LJMP    ?Subroutine11 & 0xFFFF
   1761          
   1762          /*
   1763           * This function stub allows the next higher layer to be notified of
   1764           * a permit joining timeout.
   1765           */
   1766          /*********************************************************************
   1767           * @fn          ZDO_ProcessMgmtPermitJoinTimeout
   1768           *
   1769           * @brief       This function stub allows the next higher layer to be
   1770           *              notified of a permit joining timeout. Currently, this
   1771           *              directly bypasses the APS layer.
   1772           *
   1773           * @param       none
   1774           *
   1775           * @return      none
   1776           */

   \                                 In  segment BANKED_CODE, align 1, keep-with-next
   1777          void ZDO_ProcessMgmtPermitJoinTimeout( void )
   \                     NLME_PermitJoiningTimeout:
   1778          {
   \   000000                ; Saved register size: 0
   \   000000                ; Auto size: 0
   1779            #if defined( ZDO_MGMT_PERMIT_JOIN_RESPONSE )
   1780            // Currently, only the ZDSecMgr needs to be notified
   1781            if ( ZG_SECURE_ENABLED && ZG_BUILD_COORDINATOR_TYPE && ZG_DEVICE_COORDINATOR_TYPE )
   1782            {
   1783              ZDSecMgrPermitJoiningTimeout();
   1784            }
   1785            #endif
   1786          }
   \   000000   02....       LJMP    ?BRET
   1787          
   1788          /*********************************************************************
   1789           * @fn          ZDO_ProcessUserDescReq
   1790           *
   1791           * @brief       This function finishes the processing of the User
   1792           *              Descriptor Request and generates the response.
   1793           *
   1794           * @param       inMsg - incoming message (request)
   1795           *
   1796           * @return      none
   1797           */

   \                                 In  segment BANKED_CODE, align 1, keep-with-next
   1798          void ZDO_ProcessUserDescReq( zdoIncomingMsg_t *inMsg )
   \                     ZDO_ProcessUserDescReq:
   1799          {
   \   000000   74F0         MOV     A,#-0x10
   \   000002   12....       LCALL   ?BANKED_ENTER_XDATA
   \   000005                ; Saved register size: 16
   \   000005                ; Auto size: 17
   \   000005   74EF         MOV     A,#-0x11
   \   000007   12....       LCALL   ?ALLOC_XSTACK8
   \   00000A   EA           MOV     A,R2
   \   00000B   FE           MOV     R6,A
   \   00000C   EB           MOV     A,R3
   \   00000D   FF           MOV     R7,A
   1800            uint16 aoi = BUILD_UINT16( inMsg->asdu[0], inMsg->asdu[1] );
   \   00000E   12....       LCALL   ?Subroutine67 & 0xFFFF
   \                     ??CrossCallReturnLabel_112:
   \   000011   F5..         MOV     ?V0 + 4,A
   \   000013   E4           CLR     A
   \   000014   39           ADDC    A,R1
   \   000015   F5..         MOV     ?V0 + 5,A
   1801            UserDescriptorFormat_t userDesc;
   1802          
   1803            if ( (aoi == ZDAppNwkAddr.addr.shortAddr) && (ZSUCCESS == osal_nv_read(
   1804                       ZCD_NV_USERDESC, 0, sizeof(UserDescriptorFormat_t), &userDesc )) )
   \   000017   EE           MOV     A,R6
   \   000018   240F         ADD     A,#0xf
   \   00001A   F5..         MOV     ?V0 + 2,A
   \   00001C   EF           MOV     A,R7
   \   00001D   12....       LCALL   ??Subroutine188_0 & 0xFFFF
   \                     ??CrossCallReturnLabel_333:
   \   000020   EE           MOV     A,R6
   \   000021   2402         ADD     A,#0x2
   \   000023   F5..         MOV     ?V0 + 0,A
   \   000025   EF           MOV     A,R7
   \   000026   12....       LCALL   ??Subroutine222_0 & 0xFFFF
   \                     ??CrossCallReturnLabel_555:
   \   000029   90....       MOV     DPTR,#ZDAppNwkAddr
   \   00002C   E0           MOVX    A,@DPTR
   \   00002D   65..         XRL     A,?V0 + 4
   \   00002F   7004         JNZ     ??ZDO_ProcessUserDescReq_0
   \   000031   A3           INC     DPTR
   \   000032   E0           MOVX    A,@DPTR
   \   000033   65..         XRL     A,?V0 + 5
   \                     ??ZDO_ProcessUserDescReq_0:
   \   000035   7061         JNZ     ??ZDO_ProcessUserDescReq_1
   \   000037                ; Setup parameters for call to function osal_nv_read
   \   000037   85..82       MOV     DPL,?XSP + 0
   \   00003A   85..83       MOV     DPH,?XSP + 1
   \   00003D   8582..       MOV     ?V0 + 6,DPL
   \   000040   8583..       MOV     ?V0 + 7,DPH
   \   000043   78..         MOV     R0,#?V0 + 6
   \   000045   12....       LCALL   ?PUSH_XSTACK_I_TWO
   \   000048   75..11       MOV     ?V0 + 6,#0x11
   \   00004B   75..00       MOV     ?V0 + 7,#0x0
   \   00004E   78..         MOV     R0,#?V0 + 6
   \   000050   12....       LCALL   ?PUSH_XSTACK_I_TWO
   \   000053   7C00         MOV     R4,#0x0
   \   000055   7D00         MOV     R5,#0x0
   \   000057   7A81         MOV     R2,#-0x7f
   \   000059   7B00         MOV     R3,#0x0
   \   00005B   12....       LCALL   ??osal_nv_read?relay
   \   00005E   7404         MOV     A,#0x4
   \   000060   12....       LCALL   ?DEALLOC_XSTACK8
   \   000063   E9           MOV     A,R1
   \   000064   7032         JNZ     ??ZDO_ProcessUserDescReq_1
   1805            {
   1806              ZDP_UserDescRsp( inMsg->TransSeq, &(inMsg->srcAddr), aoi, &userDesc, false );
   \   000066                ; Setup parameters for call to function ZDP_UserDescRsp
   \   000066   75..00       MOV     ?V0 + 6,#0x0
   \   000069   78..         MOV     R0,#?V0 + 6
   \   00006B   12....       LCALL   ?PUSH_XSTACK_I_ONE
   \   00006E   7401         MOV     A,#0x1
   \   000070   12....       LCALL   ?XSTACK_DISP0_8
   \   000073   8582..       MOV     ?V0 + 6,DPL
   \   000076   8583..       MOV     ?V0 + 7,DPH
   \   000079   78..         MOV     R0,#?V0 + 6
   \   00007B   12....       LCALL   ?PUSH_XSTACK_I_TWO
   \   00007E   AC..         MOV     R4,?V0 + 4
   \   000080   AD..         MOV     R5,?V0 + 5
   \   000082   AA..         MOV     R2,?V0 + 0
   \   000084   AB..         MOV     R3,?V0 + 1
   \   000086   85..82       MOV     DPL,?V0 + 2
   \   000089   85..83       MOV     DPH,?V0 + 3
   \   00008C   E0           MOVX    A,@DPTR
   \   00008D   F9           MOV     R1,A
   \   00008E   12....       LCALL   ??ZDP_UserDescRsp?relay
   \   000091   7403         MOV     A,#0x3
   \   000093   12....       LCALL   ?DEALLOC_XSTACK8
   \   000096   802D         SJMP    ??ZDO_ProcessUserDescReq_2
   1807            }
   1808            else
   1809            {
   1810              ZDP_GenericRsp(inMsg->TransSeq, &(inMsg->srcAddr),
   1811                     ZDP_NOT_SUPPORTED, aoi, User_Desc_rsp, inMsg->SecurityUse );
   \                     ??ZDO_ProcessUserDescReq_1:
   \   000098                ; Setup parameters for call to function ZDP_GenericRsp
   \   000098   75..11       MOV     ?V0 + 6,#0x11
   \   00009B   75..80       MOV     ?V0 + 7,#-0x80
   \   00009E   78..         MOV     R0,#?V0 + 6
   \   0000A0   12....       LCALL   ?PUSH_XSTACK_I_TWO
   \   0000A3   78..         MOV     R0,#?V0 + 4
   \   0000A5   12....       LCALL   ?PUSH_XSTACK_I_TWO
   \   0000A8   12....       LCALL   ?Subroutine121 & 0xFFFF
   1812            }
   \                     ??CrossCallReturnLabel_191:
   \   0000AB   12....       LCALL   ??Subroutine189_0 & 0xFFFF
   \                     ??CrossCallReturnLabel_344:
   \   0000AE   FD           MOV     R5,A
   \   0000AF   7C84         MOV     R4,#-0x7c
   \   0000B1   AA..         MOV     R2,?V0 + 0
   \   0000B3   AB..         MOV     R3,?V0 + 1
   \   0000B5   85..82       MOV     DPL,?V0 + 2
   \   0000B8   85..83       MOV     DPH,?V0 + 3
   \   0000BB   E0           MOVX    A,@DPTR
   \   0000BC   F9           MOV     R1,A
   \   0000BD   12....       LCALL   ??ZDP_GenericRsp?relay
   \   0000C0   7404         MOV     A,#0x4
   \   0000C2   12....       LCALL   ?DEALLOC_XSTACK8
   1813          }
   \                     ??ZDO_ProcessUserDescReq_2:
   \   0000C5   7411         MOV     A,#0x11
   \   0000C7   12....       LCALL   ?DEALLOC_XSTACK8
   \   0000CA   80..         SJMP    ??Subroutine190_0

   \                                 In  segment BANKED_CODE, align 1, keep-with-next
   \                     ??Subroutine190_0:
   \   000000   7F08         MOV     R7,#0x8
   \   000002   02....       LJMP    ?BANKED_LEAVE_XDATA
   1814          
   1815          /*********************************************************************
   1816           * @fn          ZDO_ProcessUserDescSet
   1817           *
   1818           * @brief       This function finishes the processing of the User
   1819           *              Descriptor Set and generates the response.
   1820           *
   1821           * @param       inMsg - incoming message (request)
   1822           *
   1823           * @return      none
   1824           */

   \                                 In  segment BANKED_CODE, align 1, keep-with-next
   1825          void ZDO_ProcessUserDescSet( zdoIncomingMsg_t *inMsg )
   \                     ZDO_ProcessUserDescSet:
   1826          {
   \   000000   74F1         MOV     A,#-0xf
   \   000002   12....       LCALL   ?BANKED_ENTER_XDATA
   \   000005                ; Saved register size: 15
   \   000005                ; Auto size: 21
   \   000005   74EB         MOV     A,#-0x15
   \   000007   12....       LCALL   ?ALLOC_XSTACK8
   \   00000A   8A..         MOV     ?V0 + 2,R2
   \   00000C   8B..         MOV     ?V0 + 3,R3
   1827            uint8 *msg;
   1828            uint16 aoi;
   1829            UserDescriptorFormat_t userDesc;
   1830            uint8 outMsg[3];
   1831            uint8 status;
   1832          
   1833            msg = inMsg->asdu;
   \   00000E   EA           MOV     A,R2
   \   00000F   12....       LCALL   ??Subroutine220_0 & 0xFFFF
   \                     ??CrossCallReturnLabel_534:
   \   000012   EB           MOV     A,R3
   \   000013   12....       LCALL   ?Subroutine72 & 0xFFFF
   1834            aoi = BUILD_UINT16( msg[0], msg[1] );
   \                     ??CrossCallReturnLabel_119:
   \   000016   2400         ADD     A,#0x0
   \   000018   FE           MOV     R6,A
   \   000019   E4           CLR     A
   \   00001A   3B           ADDC    A,R3
   \   00001B   FF           MOV     R7,A
   1835          
   1836            if ( aoi == ZDAppNwkAddr.addr.shortAddr )
   \   00001C   90....       MOV     DPTR,#ZDAppNwkAddr
   \   00001F   E0           MOVX    A,@DPTR
   \   000020   6E           XRL     A,R6
   \   000021   7003         JNZ     ??ZDO_ProcessUserDescSet_0
   \   000023   A3           INC     DPTR
   \   000024   E0           MOVX    A,@DPTR
   \   000025   6F           XRL     A,R7
   \                     ??ZDO_ProcessUserDescSet_0:
   \   000026   6003         JZ      $+5
   \   000028   02....       LJMP    ??ZDO_ProcessUserDescSet_1 & 0xFFFF
   1837            {
   1838              userDesc.len = (msg[2] < AF_MAX_USER_DESCRIPTOR_LEN) ? msg[2] : AF_MAX_USER_DESCRIPTOR_LEN;
   \   00002B   8882         MOV     DPL,R0
   \   00002D   8983         MOV     DPH,R1
   \   00002F   A3           INC     DPTR
   \   000030   A3           INC     DPTR
   \   000031   E0           MOVX    A,@DPTR
   \   000032   FA           MOV     R2,A
   \   000033   9410         SUBB    A,#0x10
   \   000035   5004         JNC     ??ZDO_ProcessUserDescSet_2
   \   000037   8A..         MOV     ?V0 + 0,R2
   \   000039   8003         SJMP    ??ZDO_ProcessUserDescSet_3
   \                     ??ZDO_ProcessUserDescSet_2:
   \   00003B   75..10       MOV     ?V0 + 0,#0x10
   \                     ??ZDO_ProcessUserDescSet_3:
   \   00003E   7404         MOV     A,#0x4
   \   000040   12....       LCALL   ?XSTACK_DISP0_8
   \   000043   E5..         MOV     A,?V0 + 0
   \   000045   12....       LCALL   ?Subroutine50 & 0xFFFF
   1839              msg ++;  // increment one for the length field
   1840          
   1841              osal_memcpy( userDesc.desc, &msg[2], userDesc.len );
   \                     ??CrossCallReturnLabel_85:
   \   000048   A3           INC     DPTR
   \   000049   A3           INC     DPTR
   \   00004A   A982         MOV     R1,DPL
   \   00004C   AA83         MOV     R2,DPH
   \   00004E   89..         MOV     ?V0 + 4,R1
   \   000050   8A..         MOV     ?V0 + 5,R2
   \   000052   75..00       MOV     ?V0 + 6,#0x0
   \   000055   78..         MOV     R0,#?V0 + 4
   \   000057   12....       LCALL   ?PUSH_XSTACK_I_THREE
   \   00005A   7407         MOV     A,#0x7
   \   00005C   12....       LCALL   ?XSTACK_DISP0_8
   \   00005F   E0           MOVX    A,@DPTR
   \   000060   FC           MOV     R4,A
   \   000061   7D00         MOV     R5,#0x0
   \   000063   7408         MOV     A,#0x8
   \   000065   12....       LCALL   ?XSTACK_DISP0_8
   \   000068   AA82         MOV     R2,DPL
   \   00006A   AB83         MOV     R3,DPH
   \   00006C   12....       LCALL   ??osal_memcpy?relay
   \   00006F   7403         MOV     A,#0x3
   \   000071   12....       LCALL   ?DEALLOC_XSTACK8
   1842              osal_nv_write( ZCD_NV_USERDESC, 0, sizeof(UserDescriptorFormat_t), &userDesc );
   \   000074                ; Setup parameters for call to function osal_nv_write
   \   000074   7404         MOV     A,#0x4
   \   000076   12....       LCALL   ?XSTACK_DISP0_8
   \   000079   8582..       MOV     ?V0 + 4,DPL
   \   00007C   8583..       MOV     ?V0 + 5,DPH
   \   00007F   78..         MOV     R0,#?V0 + 4
   \   000081   12....       LCALL   ?PUSH_XSTACK_I_TWO
   \   000084   75..11       MOV     ?V0 + 4,#0x11
   \   000087   75..00       MOV     ?V0 + 5,#0x0
   \   00008A   78..         MOV     R0,#?V0 + 4
   \   00008C   12....       LCALL   ?PUSH_XSTACK_I_TWO
   \   00008F   7C00         MOV     R4,#0x0
   \   000091   7D00         MOV     R5,#0x0
   \   000093   7A81         MOV     R2,#-0x7f
   \   000095   7B00         MOV     R3,#0x0
   \   000097   12....       LCALL   ??osal_nv_write?relay
   \   00009A   7404         MOV     A,#0x4
   \   00009C   12....       LCALL   ?DEALLOC_XSTACK8
   1843              if ( userDesc.len != 0 )
   \   00009F   7404         MOV     A,#0x4
   \   0000A1   12....       LCALL   ?XSTACK_DISP0_8
   \   0000A4   E0           MOVX    A,@DPTR
   \   0000A5   90....       MOV     DPTR,#ZDO_Config_Node_Descriptor
   \   0000A8   6005         JZ      ??ZDO_ProcessUserDescSet_4
   1844              {
   1845                ZDO_Config_Node_Descriptor.UserDescAvail = TRUE;
   \   0000AA   E0           MOVX    A,@DPTR
   \   0000AB   D2E4         SETB    0xE0 /* A   */.4
   \   0000AD   8003         SJMP    ??ZDO_ProcessUserDescSet_5
   1846              }
   1847              else
   1848              {
   1849                ZDO_Config_Node_Descriptor.UserDescAvail = FALSE;
   \                     ??ZDO_ProcessUserDescSet_4:
   \   0000AF   E0           MOVX    A,@DPTR
   \   0000B0   C2E4         CLR     0xE0 /* A   */.4
   1850              }
   1851          
   1852              status = ZDP_SUCCESS;
   1853            }
   \                     ??ZDO_ProcessUserDescSet_5:
   \   0000B2   12....       LCALL   ?Subroutine133 & 0xFFFF
   \                     ??CrossCallReturnLabel_214:
   \   0000B5   E4           CLR     A
   \   0000B6   8008         SJMP    ??ZDO_ProcessUserDescSet_6
   1854            else
   1855            {
   1856              status =  ZDP_NOT_SUPPORTED;
   \                     ??ZDO_ProcessUserDescSet_1:
   \   0000B8   85..82       MOV     DPL,?XSP + 0
   \   0000BB   85..83       MOV     DPH,?XSP + 1
   \   0000BE   7484         MOV     A,#-0x7c
   \                     ??ZDO_ProcessUserDescSet_6:
   \   0000C0   F0           MOVX    @DPTR,A
   1857            }
   1858          
   1859            outMsg[0] = status;
   \   0000C1   E0           MOVX    A,@DPTR
   \   0000C2   C0E0         PUSH    A
   \   0000C4   7401         MOV     A,#0x1
   \   0000C6   12....       LCALL   ?XSTACK_DISP0_8
   \   0000C9   D0E0         POP     A
   \   0000CB   F0           MOVX    @DPTR,A
   1860            outMsg[1] = LO_UINT16( aoi );
   \   0000CC   7402         MOV     A,#0x2
   \   0000CE   12....       LCALL   ?XSTACK_DISP0_8
   \   0000D1   EE           MOV     A,R6
   \   0000D2   F0           MOVX    @DPTR,A
   1861            outMsg[2] = LO_UINT16( aoi );
   \   0000D3   7403         MOV     A,#0x3
   \   0000D5   12....       LCALL   ?XSTACK_DISP0_8
   \   0000D8   EE           MOV     A,R6
   \   0000D9   F0           MOVX    @DPTR,A
   1862          
   1863            ZDP_SendData( &(inMsg->TransSeq), &(inMsg->srcAddr), User_Desc_conf, 3, outMsg,
   1864                         inMsg->SecurityUse );
   \   0000DA                ; Setup parameters for call to function ZDP_SendData
   \   0000DA   E5..         MOV     A,?V0 + 2
   \   0000DC   12....       LCALL   ??Subroutine201_0 & 0xFFFF
   \                     ??CrossCallReturnLabel_417:
   \   0000DF   E5..         MOV     A,?V0 + 3
   \   0000E1   12....       LCALL   ??Subroutine189_0 & 0xFFFF
   \                     ??CrossCallReturnLabel_345:
   \   0000E4   F5..         MOV     ?V0 + 1,A
   \   0000E6   78..         MOV     R0,#?V0 + 1
   \   0000E8   12....       LCALL   ?PUSH_XSTACK_I_ONE
   \   0000EB   7402         MOV     A,#0x2
   \   0000ED   12....       LCALL   ?XSTACK_DISP0_8
   \   0000F0   8582..       MOV     ?V0 + 4,DPL
   \   0000F3   8583..       MOV     ?V0 + 5,DPH
   \   0000F6   78..         MOV     R0,#?V0 + 4
   \   0000F8   12....       LCALL   ?PUSH_XSTACK_I_TWO
   \   0000FB   75..14       MOV     ?V0 + 4,#0x14
   \   0000FE   75..80       MOV     ?V0 + 5,#-0x80
   \   000101   78..         MOV     R0,#?V0 + 4
   \   000103   12....       LCALL   ?PUSH_XSTACK_I_TWO
   \   000106   7903         MOV     R1,#0x3
   \   000108   E5..         MOV     A,?V0 + 2
   \   00010A   2402         ADD     A,#0x2
   \   00010C   FC           MOV     R4,A
   \   00010D   E5..         MOV     A,?V0 + 3
   \   00010F   3400         ADDC    A,#0x0
   \   000111   FD           MOV     R5,A
   \   000112   E5..         MOV     A,?V0 + 2
   \   000114   240F         ADD     A,#0xf
   \   000116   FA           MOV     R2,A
   \   000117   E5..         MOV     A,?V0 + 3
   \   000119   3400         ADDC    A,#0x0
   \   00011B   FB           MOV     R3,A
   \   00011C   12....       LCALL   ??ZDP_SendData?relay
   \   00011F   7405         MOV     A,#0x5
   \   000121   12....       LCALL   ?DEALLOC_XSTACK8
   1865          }
   \   000124   7415         MOV     A,#0x15
   \   000126                REQUIRE ?Subroutine3
   \   000126                ; // Fall through to label ?Subroutine3

   \                                 In  segment BANKED_CODE, align 1, keep-with-next
   \                     ?Subroutine3:
   \   000000   12....       LCALL   ?DEALLOC_XSTACK8
   \   000003                REQUIRE ??Subroutine191_0
   \   000003                ; // Fall through to label ??Subroutine191_0

   \                                 In  segment BANKED_CODE, align 1, keep-with-next
   \                     ?Subroutine50:
   \   000000   12....       LCALL   ?Subroutine134 & 0xFFFF
   \                     ??CrossCallReturnLabel_524:
   \   000003   22           RET

   \                                 In  segment BANKED_CODE, align 1, keep-with-next
   \                     ?Subroutine134:
   \   000000   12....       LCALL   ?Subroutine162 & 0xFFFF
   \                     ??CrossCallReturnLabel_528:
   \   000003   A3           INC     DPTR
   \   000004   22           RET
   1866          
   1867          /*********************************************************************
   1868           * @fn          ZDO_ProcessDeviceAnnce
   1869           *
   1870           * @brief       This function processes a device annouce message.
   1871           *
   1872           * @param       inMsg - incoming message
   1873           *
   1874           * @return      none
   1875           */

   \                                 In  segment BANKED_CODE, align 1, keep-with-next
   1876          void ZDO_ProcessDeviceAnnce( zdoIncomingMsg_t *inMsg )
   \                     ZDO_ProcessDeviceAnnce:
   1877          {
   \   000000   74F6         MOV     A,#-0xa
   \   000002   12....       LCALL   ?BANKED_ENTER_XDATA
   \   000005                ; Saved register size: 10
   \   000005                ; Auto size: 32
   \   000005   74E0         MOV     A,#-0x20
   \   000007   12....       LCALL   ?ALLOC_XSTACK8
   \   00000A   EA           MOV     A,R2
   \   00000B   FE           MOV     R6,A
   \   00000C   EB           MOV     A,R3
   \   00000D   FF           MOV     R7,A
   1878            ZDO_DeviceAnnce_t Annce;
   1879            AddrMgrEntry_t addrEntry;
   1880            uint8 parentExt[Z_EXTADDR_LEN];
   1881          
   1882            // Parse incoming message
   1883            ZDO_ParseDeviceAnnce( inMsg, &Annce );
   \   00000E                ; Setup parameters for call to function ZDO_ParseDeviceAnnce
   \   00000E   85..82       MOV     DPL,?XSP + 0
   \   000011   85..83       MOV     DPH,?XSP + 1
   \   000014   AC82         MOV     R4,DPL
   \   000016   AD83         MOV     R5,DPH
   \   000018   12....       LCALL   ??ZDO_ParseDeviceAnnce?relay
   1884          
   1885            if ( ZSTACK_END_DEVICE_BUILD )
   1886            {
   1887              // Make sure the message didn't come from myself - end device only
   1888              if ( osal_ExtAddrEqual( NLME_GetExtAddr(), Annce.extAddr ) && Annce.nwkAddr == NLME_GetShortAddr() )
   1889              {
   1890                return;
   1891              }
   1892            }
   1893          
   1894          #if defined ( ZIGBEE_STOCHASTIC_ADDRESSING )
   1895            // Clean up the neighbor table
   1896            nwkNeighborRemoveAllStranded();
   \   00001B                ; Setup parameters for call to function nwkNeighborRemoveAllStranded
   \   00001B   12....       LCALL   ??nwkNeighborRemoveAllStranded?relay
   1897          
   1898            // If address conflict is detected, no need to update the address manager
   1899            if ( NLME_CheckNewAddrSet( Annce.nwkAddr, Annce.extAddr )== ZFailure )
   \   00001E                ; Setup parameters for call to function NLME_CheckNewAddrSet
   \   00001E   7402         MOV     A,#0x2
   \   000020   12....       LCALL   ?XSTACK_DISP0_8
   \   000023   12....       LCALL   ?Subroutine88 & 0xFFFF
   \                     ??CrossCallReturnLabel_389:
   \   000026   12....       LCALL   ??NLME_CheckNewAddrSet?relay
   \   000029   E9           MOV     A,R1
   \   00002A   6401         XRL     A,#0x1
   \   00002C   7003         JNZ     $+5
   \   00002E   02....       LJMP    ??ZDO_ProcessDeviceAnnce_0 & 0xFFFF
   1900            {
   1901              return;
   1902            }
   1903          #endif
   1904          
   1905          #if defined ( ZIGBEE_STOCHASTIC_ADDRESSING )
   1906            // Check for parent's address
   1907            NLME_GetCoordExtAddr( parentExt );
   \   000031                ; Setup parameters for call to function NLME_GetCoordExtAddr
   \   000031   7418         MOV     A,#0x18
   \   000033   12....       LCALL   ?XSTACK_DISP0_8
   \   000036   AA82         MOV     R2,DPL
   \   000038   AB83         MOV     R3,DPH
   \   00003A   12....       LCALL   ??NLME_GetCoordExtAddr?relay
   1908            if ( osal_ExtAddrEqual( parentExt, Annce.extAddr ) )
   \   00003D                ; Setup parameters for call to function sAddrExtCmp
   \   00003D   7402         MOV     A,#0x2
   \   00003F   12....       LCALL   ?XSTACK_DISP0_8
   \   000042   AC82         MOV     R4,DPL
   \   000044   AD83         MOV     R5,DPH
   \   000046   7418         MOV     A,#0x18
   \   000048   12....       LCALL   ?XSTACK_DISP0_8
   \   00004B   AA82         MOV     R2,DPL
   \   00004D   AB83         MOV     R3,DPH
   \   00004F   12....       LCALL   ??sAddrExtCmp?relay
   \   000052   E9           MOV     A,R1
   \   000053   602C         JZ      ??ZDO_ProcessDeviceAnnce_1
   1909            {
   1910              if ( Annce.nwkAddr != NLME_GetCoordShortAddr() )
   \   000055                ; Setup parameters for call to function NLME_GetCoordShortAddr
   \   000055   12....       LCALL   ??NLME_GetCoordShortAddr?relay
   \   000058   8A..         MOV     ?V0 + 0,R2
   \   00005A   8B..         MOV     ?V0 + 1,R3
   \   00005C   A8..         MOV     R0,?V0 + 0
   \   00005E   A9..         MOV     R1,?V0 + 1
   \   000060   85..82       MOV     DPL,?XSP + 0
   \   000063   85..83       MOV     DPH,?XSP + 1
   \   000066   E0           MOVX    A,@DPTR
   \   000067   68           XRL     A,R0
   \   000068   7003         JNZ     ??ZDO_ProcessDeviceAnnce_2
   \   00006A   A3           INC     DPTR
   \   00006B   E0           MOVX    A,@DPTR
   \   00006C   69           XRL     A,R1
   \                     ??ZDO_ProcessDeviceAnnce_2:
   \   00006D   6012         JZ      ??ZDO_ProcessDeviceAnnce_1
   1911              {
   1912                // Set the Parent's MAC's new short address
   1913                _NIB.nwkCoordAddress = Annce.nwkAddr;
   \   00006F   12....       LCALL   ?Subroutine100 & 0xFFFF
   \                     ??CrossCallReturnLabel_323:
   \   000072   90....       MOV     DPTR,#_NIB + 23
   \   000075   12....       LCALL   ??Subroutine183_0 & 0xFFFF
   1914                ZMacSetReq( ZMacCoordShortAddress, (byte*)&(_NIB.nwkCoordAddress) );
   \                     ??CrossCallReturnLabel_301:
   \   000078                ; Setup parameters for call to function ZMacSetReq
   \   000078   7A..         MOV     R2,#(_NIB + 23) & 0xff
   \   00007A   7B..         MOV     R3,#((_NIB + 23) >> 8) & 0xff
   \   00007C   794B         MOV     R1,#0x4b
   \   00007E   12....       LCALL   ??ZMacSetReq?relay
   1915              }
   1916            }
   1917          
   1918            if ( ZSTACK_ROUTER_BUILD )
   1919            {
   1920              // If the device annce comes from a end device child that has moved
   1921              // to another parent, remove it from associated device list
   1922          
   1923              // If the dev annce is coming from other device's children,
   1924              // (The dev annce from its own children shall be unicast to itself,
   1925              // So check the mac destination address)
   1926              // Remove it from the associated device list. If it is not
   1927              // a child, no action will be taken in AssocRemove() anyway.
   1928              if ( inMsg->macDestAddr != NLME_GetShortAddr() )
   \                     ??ZDO_ProcessDeviceAnnce_1:
   \   000081   EE           MOV     A,R6
   \   000082   2411         ADD     A,#0x11
   \   000084   F582         MOV     DPL,A
   \   000086   EF           MOV     A,R7
   \   000087   12....       LCALL   ??Subroutine217_0 & 0xFFFF
   \                     ??CrossCallReturnLabel_497:
   \   00008A   C082         PUSH    DPL
   \   00008C   C083         PUSH    DPH
   \   00008E                ; Setup parameters for call to function NLME_GetShortAddr
   \   00008E   12....       LCALL   ??NLME_GetShortAddr?relay
   \   000091   8A..         MOV     ?V0 + 0,R2
   \   000093   8B..         MOV     ?V0 + 1,R3
   \   000095   D083         POP     DPH
   \   000097   D082         POP     DPL
   \   000099   E0           MOVX    A,@DPTR
   \   00009A   65..         XRL     A,?V0 + 0
   \   00009C   7004         JNZ     ??ZDO_ProcessDeviceAnnce_3
   \   00009E   A3           INC     DPTR
   \   00009F   E0           MOVX    A,@DPTR
   \   0000A0   65..         XRL     A,?V0 + 1
   \                     ??ZDO_ProcessDeviceAnnce_3:
   \   0000A2   6032         JZ      ??ZDO_ProcessDeviceAnnce_4
   1929              {
   1930                associated_devices_t *dev_ptr;
   1931          
   1932                // If it's an end device child
   1933                dev_ptr = AssocGetWithExt( Annce.extAddr );
   \   0000A4                ; Setup parameters for call to function AssocGetWithExt
   \   0000A4   7402         MOV     A,#0x2
   \   0000A6   12....       LCALL   ?XSTACK_DISP0_8
   \   0000A9   AA82         MOV     R2,DPL
   \   0000AB   AB83         MOV     R3,DPH
   \   0000AD   12....       LCALL   ??AssocGetWithExt?relay
   \   0000B0   8A82         MOV     DPL,R2
   \   0000B2   8B83         MOV     DPH,R3
   1934                if ( dev_ptr )
   \   0000B4   E582         MOV     A,DPL
   \   0000B6   4583         ORL     A,DPH
   \   0000B8   601C         JZ      ??ZDO_ProcessDeviceAnnce_4
   1935                {
   1936                  if ( dev_ptr->nodeRelation == CHILD_RFD ||
   1937                       dev_ptr->nodeRelation == CHILD_RFD_RX_IDLE )
   \   0000BA   A3           INC     DPTR
   \   0000BB   A3           INC     DPTR
   \   0000BC   A3           INC     DPTR
   \   0000BD   A3           INC     DPTR
   \   0000BE   E0           MOVX    A,@DPTR
   \   0000BF   F8           MOV     R0,A
   \   0000C0   7401         MOV     A,#0x1
   \   0000C2   68           XRL     A,R0
   \   0000C3   6005         JZ      ??ZDO_ProcessDeviceAnnce_5
   \   0000C5   7402         MOV     A,#0x2
   \   0000C7   68           XRL     A,R0
   \   0000C8   700C         JNZ     ??ZDO_ProcessDeviceAnnce_4
   1938                  {
   1939                    AssocRemove( Annce.extAddr );
   \                     ??ZDO_ProcessDeviceAnnce_5:
   \   0000CA                ; Setup parameters for call to function AssocRemove
   \   0000CA   7402         MOV     A,#0x2
   \   0000CC   12....       LCALL   ?XSTACK_DISP0_8
   \   0000CF   AA82         MOV     R2,DPL
   \   0000D1   AB83         MOV     R3,DPH
   \   0000D3   12....       LCALL   ??AssocRemove?relay
   1940                  }
   1941                }
   1942              }
   1943          
   1944              if ( Annce.nwkAddr != NLME_GetShortAddr() )
   \                     ??ZDO_ProcessDeviceAnnce_4:
   \   0000D6                ; Setup parameters for call to function NLME_GetShortAddr
   \   0000D6   12....       LCALL   ??NLME_GetShortAddr?relay
   \   0000D9   8A..         MOV     ?V0 + 0,R2
   \   0000DB   8B..         MOV     ?V0 + 1,R3
   \   0000DD   A8..         MOV     R0,?V0 + 0
   \   0000DF   A9..         MOV     R1,?V0 + 1
   \   0000E1   85..82       MOV     DPL,?XSP + 0
   \   0000E4   85..83       MOV     DPH,?XSP + 1
   \   0000E7   E0           MOVX    A,@DPTR
   \   0000E8   68           XRL     A,R0
   \   0000E9   7003         JNZ     ??ZDO_ProcessDeviceAnnce_6
   \   0000EB   A3           INC     DPTR
   \   0000EC   E0           MOVX    A,@DPTR
   \   0000ED   69           XRL     A,R1
   \                     ??ZDO_ProcessDeviceAnnce_6:
   \   0000EE   6011         JZ      ??ZDO_ProcessDeviceAnnce_7
   1945              {
   1946                // If an associated device is found with matched extended Address,
   1947                // update its short address
   1948                if ( AssocChangeNwkAddr( Annce.nwkAddr, Annce.extAddr ) )
   \   0000F0                ; Setup parameters for call to function AssocChangeNwkAddr
   \   0000F0   7402         MOV     A,#0x2
   \   0000F2   12....       LCALL   ?XSTACK_DISP0_8
   \   0000F5   12....       LCALL   ?Subroutine88 & 0xFFFF
   \                     ??CrossCallReturnLabel_390:
   \   0000F8   12....       LCALL   ??AssocChangeNwkAddr?relay
   \   0000FB   E9           MOV     A,R1
   \   0000FC   6003         JZ      ??ZDO_ProcessDeviceAnnce_7
   1949                {
   1950                  // Set event to save NV
   1951                  ZDApp_NVUpdate();
   \   0000FE                ; Setup parameters for call to function ZDApp_NVUpdate
   \   0000FE   12....       LCALL   ??ZDApp_NVUpdate?relay
   1952                }
   1953              }
   1954            }
   1955          
   1956            // Update the neighbor table
   1957            nwkNeighborUpdateNwkAddr( Annce.nwkAddr, Annce.extAddr );
   \                     ??ZDO_ProcessDeviceAnnce_7:
   \   000101                ; Setup parameters for call to function nwkNeighborUpdateNwkAddr
   \   000101   7402         MOV     A,#0x2
   \   000103   12....       LCALL   ?XSTACK_DISP0_8
   \   000106   12....       LCALL   ?Subroutine88 & 0xFFFF
   \                     ??CrossCallReturnLabel_391:
   \   000109   12....       LCALL   ??nwkNeighborUpdateNwkAddr?relay
   1958          
   1959            // Assume that the device has moved, remove existing routing entries
   1960            RTG_RemoveRtgEntry( Annce.nwkAddr, 0 );
   \   00010C                ; Setup parameters for call to function RTG_RemoveRtgEntry
   \   00010C   7900         MOV     R1,#0x0
   \   00010E   12....       LCALL   ??Subroutine194_0 & 0xFFFF
   \                     ??CrossCallReturnLabel_388:
   \   000111   12....       LCALL   ??RTG_RemoveRtgEntry?relay
   1961          
   1962          #endif // ZIGBEE_STOCHASTIC_ADDRESSING
   1963          
   1964            // Fill in the extended address in address manager if we don't have it already.
   1965            addrEntry.user = ADDRMGR_USER_DEFAULT;
   \   000114   740B         MOV     A,#0xb
   \   000116   12....       LCALL   ?XSTACK_DISP0_8
   \   000119   E4           CLR     A
   \   00011A   12....       LCALL   ?Subroutine32 & 0xFFFF
   1966            addrEntry.nwkAddr = Annce.nwkAddr;
   \                     ??CrossCallReturnLabel_33:
   \   00011D   F8           MOV     R0,A
   \   00011E   A3           INC     DPTR
   \   00011F   E0           MOVX    A,@DPTR
   \   000120   F9           MOV     R1,A
   \   000121   740C         MOV     A,#0xc
   \   000123   12....       LCALL   ?XSTACK_DISP0_8
   \   000126   12....       LCALL   ??Subroutine183_0 & 0xFFFF
   1967            if ( AddrMgrEntryLookupNwk( &addrEntry ) )
   \                     ??CrossCallReturnLabel_302:
   \   000129                ; Setup parameters for call to function AddrMgrEntryLookupNwk
   \   000129   740B         MOV     A,#0xb
   \   00012B   12....       LCALL   ?XSTACK_DISP0_8
   \   00012E   AA82         MOV     R2,DPL
   \   000130   AB83         MOV     R3,DPH
   \   000132   12....       LCALL   ??AddrMgrEntryLookupNwk?relay
   \   000135   E9           MOV     A,R1
   \   000136   604B         JZ      ??ZDO_ProcessDeviceAnnce_8
   1968            {
   1969              osal_memset( parentExt, 0, Z_EXTADDR_LEN );
   \   000138                ; Setup parameters for call to function osal_memset
   \   000138   7C08         MOV     R4,#0x8
   \   00013A   7D00         MOV     R5,#0x0
   \   00013C   7900         MOV     R1,#0x0
   \   00013E   7418         MOV     A,#0x18
   \   000140   12....       LCALL   ?XSTACK_DISP0_8
   \   000143   AA82         MOV     R2,DPL
   \   000145   AB83         MOV     R3,DPH
   \   000147   12....       LCALL   ??osal_memset?relay
   1970              if ( osal_ExtAddrEqual( parentExt, addrEntry.extAddr ) )
   \   00014A                ; Setup parameters for call to function sAddrExtCmp
   \   00014A   740E         MOV     A,#0xe
   \   00014C   12....       LCALL   ?XSTACK_DISP0_8
   \   00014F   AC82         MOV     R4,DPL
   \   000151   AD83         MOV     R5,DPH
   \   000153   7418         MOV     A,#0x18
   \   000155   12....       LCALL   ?XSTACK_DISP0_8
   \   000158   AA82         MOV     R2,DPL
   \   00015A   AB83         MOV     R3,DPH
   \   00015C   12....       LCALL   ??sAddrExtCmp?relay
   \   00015F   E9           MOV     A,R1
   \   000160   6021         JZ      ??ZDO_ProcessDeviceAnnce_8
   1971              {
   1972                AddrMgrExtAddrSet( addrEntry.extAddr, Annce.extAddr );
   \   000162                ; Setup parameters for call to function AddrMgrExtAddrSet
   \   000162   7402         MOV     A,#0x2
   \   000164   12....       LCALL   ?XSTACK_DISP0_8
   \   000167   AC82         MOV     R4,DPL
   \   000169   AD83         MOV     R5,DPH
   \   00016B   740E         MOV     A,#0xe
   \   00016D   12....       LCALL   ?XSTACK_DISP0_8
   \   000170   AA82         MOV     R2,DPL
   \   000172   AB83         MOV     R3,DPH
   \   000174   12....       LCALL   ??AddrMgrExtAddrSet?relay
   1973                AddrMgrEntryUpdate( &addrEntry );
   \   000177                ; Setup parameters for call to function AddrMgrEntryUpdate
   \   000177   740B         MOV     A,#0xb
   \   000179   12....       LCALL   ?XSTACK_DISP0_8
   \   00017C   AA82         MOV     R2,DPL
   \   00017E   AB83         MOV     R3,DPH
   \   000180   12....       LCALL   ??AddrMgrEntryUpdate?relay
   1974              }
   1975            }
   1976          
   1977            // Update the short address in address manager if it's been changed
   1978            AddrMgrExtAddrSet( addrEntry.extAddr, Annce.extAddr );
   \                     ??ZDO_ProcessDeviceAnnce_8:
   \   000183                ; Setup parameters for call to function AddrMgrExtAddrSet
   \   000183   7402         MOV     A,#0x2
   \   000185   12....       LCALL   ?XSTACK_DISP0_8
   \   000188   AC82         MOV     R4,DPL
   \   00018A   AD83         MOV     R5,DPH
   \   00018C   740E         MOV     A,#0xe
   \   00018E   12....       LCALL   ?XSTACK_DISP0_8
   \   000191   AA82         MOV     R2,DPL
   \   000193   AB83         MOV     R3,DPH
   \   000195   12....       LCALL   ??AddrMgrExtAddrSet?relay
   1979            if ( AddrMgrEntryLookupExt( &addrEntry ) )
   \   000198                ; Setup parameters for call to function AddrMgrEntryLookupExt
   \   000198   740B         MOV     A,#0xb
   \   00019A   12....       LCALL   ?XSTACK_DISP0_8
   \   00019D   AA82         MOV     R2,DPL
   \   00019F   AB83         MOV     R3,DPH
   \   0001A1   12....       LCALL   ??AddrMgrEntryLookupExt?relay
   \   0001A4   E9           MOV     A,R1
   \   0001A5   602E         JZ      ??ZDO_ProcessDeviceAnnce_0
   1980            {
   1981              if ( addrEntry.nwkAddr != Annce.nwkAddr )
   \   0001A7   740C         MOV     A,#0xc
   \   0001A9   12....       LCALL   ?XSTACK_DISP0_8
   \   0001AC   12....       LCALL   ??Subroutine186_0 & 0xFFFF
   \                     ??CrossCallReturnLabel_319:
   \   0001AF   85..82       MOV     DPL,?XSP + 0
   \   0001B2   85..83       MOV     DPH,?XSP + 1
   \   0001B5   E0           MOVX    A,@DPTR
   \   0001B6   68           XRL     A,R0
   \   0001B7   7003         JNZ     ??ZDO_ProcessDeviceAnnce_9
   \   0001B9   A3           INC     DPTR
   \   0001BA   E0           MOVX    A,@DPTR
   \   0001BB   69           XRL     A,R1
   \                     ??ZDO_ProcessDeviceAnnce_9:
   \   0001BC   6017         JZ      ??ZDO_ProcessDeviceAnnce_0
   1982              {
   1983                addrEntry.nwkAddr = Annce.nwkAddr;
   \   0001BE   12....       LCALL   ?Subroutine100 & 0xFFFF
   \                     ??CrossCallReturnLabel_324:
   \   0001C1   740C         MOV     A,#0xc
   \   0001C3   12....       LCALL   ?XSTACK_DISP0_8
   \   0001C6   12....       LCALL   ??Subroutine183_0 & 0xFFFF
   1984                AddrMgrEntryUpdate( &addrEntry );
   \                     ??CrossCallReturnLabel_303:
   \   0001C9                ; Setup parameters for call to function AddrMgrEntryUpdate
   \   0001C9   740B         MOV     A,#0xb
   \   0001CB   12....       LCALL   ?XSTACK_DISP0_8
   \   0001CE   AA82         MOV     R2,DPL
   \   0001D0   AB83         MOV     R3,DPH
   \   0001D2   12....       LCALL   ??AddrMgrEntryUpdate?relay
   \                     ??ZDO_ProcessDeviceAnnce_0:
   \   0001D5   7420         MOV     A,#0x20
   1985              }
   1986            }
   \   0001D7   02....       LJMP    ??Subroutine175_0 & 0xFFFF
   1987          }

   \                                 In  segment BANKED_CODE, align 1, keep-with-next
   \                     ?Subroutine88:
   \   000000   AC82         MOV     R4,DPL
   \   000002   AD83         MOV     R5,DPH
   \   000004                REQUIRE ??Subroutine194_0
   \   000004                ; // Fall through to label ??Subroutine194_0
   1988          
   1989          /*********************************************************************
   1990           * @fn          ZDO_BuildSimpleDescBuf
   1991           *
   1992           * @brief       Build a byte sequence representation of a Simple Descriptor.
   1993           *
   1994           * @param       buf  - pointer to a byte array big enough for data.
   1995           * @param       desc - SimpleDescriptionFormat_t *
   1996           *
   1997           * @return      none
   1998           */

   \                                 In  segment BANKED_CODE, align 1, keep-with-next
   1999          void ZDO_BuildSimpleDescBuf( uint8 *buf, SimpleDescriptionFormat_t *desc )
   \                     ZDO_BuildSimpleDescBuf:
   2000          {
   \   000000   74F2         MOV     A,#-0xe
   \   000002   12....       LCALL   ?BANKED_ENTER_XDATA
   \   000005                ; Saved register size: 14
   \   000005                ; Auto size: 0
   2001            byte cnt;
   2002            uint16 *ptr;
   2003          
   2004            *buf++ = desc->EndPoint;
   \   000005   8C82         MOV     DPL,R4
   \   000007   8D83         MOV     DPH,R5
   \   000009   12....       LCALL   ?Subroutine83 & 0xFFFF
   2005            *buf++ = HI_UINT16( desc->AppProfId );
   \                     ??CrossCallReturnLabel_135:
   \   00000C   8C82         MOV     DPL,R4
   \   00000E   8D83         MOV     DPH,R5
   \   000010   A3           INC     DPTR
   \   000011   A882         MOV     R0,DPL
   \   000013   A983         MOV     R1,DPH
   \   000015   12....       LCALL   ?Subroutine23 & 0xFFFF
   2006            *buf++ = LO_UINT16( desc->AppProfId );
   2007            *buf++ = HI_UINT16( desc->AppDeviceId );
   \                     ??CrossCallReturnLabel_20:
   \   000018   EC           MOV     A,R4
   \   000019   2403         ADD     A,#0x3
   \   00001B   F8           MOV     R0,A
   \   00001C   ED           MOV     A,R5
   \   00001D   12....       LCALL   ?Subroutine170 & 0xFFFF
   \                     ??CrossCallReturnLabel_266:
   \   000020   12....       LCALL   ?Subroutine23 & 0xFFFF
   2008            *buf++ = LO_UINT16( desc->AppDeviceId );
   2009          
   2010            *buf++ = (byte)(desc->AppDevVer << 4);
   \                     ??CrossCallReturnLabel_21:
   \   000023   8C82         MOV     DPL,R4
   \   000025   8D83         MOV     DPH,R5
   \   000027   A3           INC     DPTR
   \   000028   A3           INC     DPTR
   \   000029   A3           INC     DPTR
   \   00002A   A3           INC     DPTR
   \   00002B   A3           INC     DPTR
   \   00002C   E0           MOVX    A,@DPTR
   \   00002D   C4           SWAP    A
   \   00002E   54F0         ANL     A,#0xf0
   \   000030   12....       LCALL   ??Subroutine192_0 & 0xFFFF
   2011          
   2012            *buf++ = desc->AppNumInClusters;
   \                     ??CrossCallReturnLabel_355:
   \   000033   EC           MOV     A,R4
   \   000034   2406         ADD     A,#0x6
   \   000036   F8           MOV     R0,A
   \   000037   ED           MOV     A,R5
   \   000038   3400         ADDC    A,#0x0
   \   00003A   F9           MOV     R1,A
   \   00003B   88..         MOV     ?V0 + 0,R0
   \   00003D   89..         MOV     ?V0 + 1,R1
   \   00003F   8882         MOV     DPL,R0
   \   000041   F583         MOV     DPH,A
   \   000043   12....       LCALL   ?Subroutine130 & 0xFFFF
   2013            ptr = desc->pAppInClusterList;
   \                     ??CrossCallReturnLabel_356:
   \   000046   8C82         MOV     DPL,R4
   \   000048   8D83         MOV     DPH,R5
   \   00004A   12....       LCALL   ?Subroutine98 & 0xFFFF
   2014            for ( cnt = 0; cnt < desc->AppNumInClusters; ptr++, cnt++ )
   \                     ??CrossCallReturnLabel_164:
   \   00004D   800B         SJMP    ??CrossCallReturnLabel_31
   2015            {
   2016              *buf++ = HI_UINT16( *ptr );
   \                     ??ZDO_BuildSimpleDescBuf_0:
   \   00004F   8E82         MOV     DPL,R6
   \   000051   8F83         MOV     DPH,R7
   \   000053   A3           INC     DPTR
   \   000054   12....       LCALL   ?Subroutine85 & 0xFFFF
   2017              *buf++ = LO_UINT16( *ptr );
   \                     ??CrossCallReturnLabel_139:
   \   000057   12....       LCALL   ?Subroutine30 & 0xFFFF
   2018            }
   \                     ??CrossCallReturnLabel_31:
   \   00005A   8A82         MOV     DPL,R2
   \   00005C   8B83         MOV     DPH,R3
   \   00005E   A3           INC     DPTR
   \   00005F   A882         MOV     R0,DPL
   \   000061   A983         MOV     R1,DPH
   \   000063   85..82       MOV     DPL,?V0 + 0
   \   000066   85..83       MOV     DPH,?V0 + 1
   \   000069   E0           MOVX    A,@DPTR
   \   00006A   F5..         MOV     ?V0 + 3,A
   \   00006C   E5..         MOV     A,?V0 + 2
   \   00006E   C3           CLR     C
   \   00006F   95..         SUBB    A,?V0 + 3
   \   000071   40DC         JC      ??ZDO_BuildSimpleDescBuf_0
   2019          
   2020            *buf++ = desc->AppNumOutClusters;
   \   000073   EC           MOV     A,R4
   \   000074   2409         ADD     A,#0x9
   \   000076   FE           MOV     R6,A
   \   000077   ED           MOV     A,R5
   \   000078   3400         ADDC    A,#0x0
   \   00007A   FF           MOV     R7,A
   \   00007B   8E..         MOV     ?V0 + 0,R6
   \   00007D   8F..         MOV     ?V0 + 1,R7
   \   00007F   8E82         MOV     DPL,R6
   \   000081   F583         MOV     DPH,A
   \   000083   12....       LCALL   ?Subroutine85 & 0xFFFF
   2021            ptr = desc->pAppOutClusterList;
   \                     ??CrossCallReturnLabel_140:
   \   000086   8C82         MOV     DPL,R4
   \   000088   8D83         MOV     DPH,R5
   \   00008A   A3           INC     DPTR
   \   00008B   A3           INC     DPTR
   \   00008C   A3           INC     DPTR
   \   00008D   12....       LCALL   ?Subroutine98 & 0xFFFF
   2022            for ( cnt = 0; cnt < desc->AppNumOutClusters; ptr++, cnt++ )
   \                     ??CrossCallReturnLabel_165:
   \   000090   800B         SJMP    ??CrossCallReturnLabel_32
   2023            {
   2024              *buf++ = HI_UINT16( *ptr );
   \                     ??ZDO_BuildSimpleDescBuf_1:
   \   000092   8E82         MOV     DPL,R6
   \   000094   8F83         MOV     DPH,R7
   \   000096   A3           INC     DPTR
   \   000097   12....       LCALL   ?Subroutine83 & 0xFFFF
   2025              *buf++ = LO_UINT16( *ptr );
   \                     ??CrossCallReturnLabel_136:
   \   00009A   12....       LCALL   ?Subroutine30 & 0xFFFF
   2026            }
   \                     ??CrossCallReturnLabel_32:
   \   00009D   85..82       MOV     DPL,?V0 + 0
   \   0000A0   85..83       MOV     DPH,?V0 + 1
   \   0000A3   E0           MOVX    A,@DPTR
   \   0000A4   F8           MOV     R0,A
   \   0000A5   E5..         MOV     A,?V0 + 2
   \   0000A7   C3           CLR     C
   \   0000A8   98           SUBB    A,R0
   \   0000A9   40E7         JC      ??ZDO_BuildSimpleDescBuf_1
   2027          }
   \   0000AB   02....       LJMP    ?Subroutine5 & 0xFFFF

   \                                 In  segment BANKED_CODE, align 1, keep-with-next
   \                     ?Subroutine98:
   \   000000   A3           INC     DPTR
   \   000001   A3           INC     DPTR
   \   000002   A3           INC     DPTR
   \   000003   A3           INC     DPTR
   \   000004   A3           INC     DPTR
   \   000005   A3           INC     DPTR
   \   000006   A3           INC     DPTR
   \   000007   12....       LCALL   ??Subroutine209_0 & 0xFFFF
   \                     ??CrossCallReturnLabel_573:
   \   00000A   75..00       MOV     ?V0 + 2,#0x0
   \   00000D   22           RET

   \                                 In  segment BANKED_CODE, align 1, keep-with-next
   \                     ?Subroutine85:
   \   000000   E0           MOVX    A,@DPTR
   \   000001   8A82         MOV     DPL,R2
   \   000003   8B83         MOV     DPH,R3
   \   000005   F0           MOVX    @DPTR,A
   \   000006   E8           MOV     A,R0
   \   000007   FA           MOV     R2,A
   \   000008   E9           MOV     A,R1
   \   000009   FB           MOV     R3,A
   \   00000A   22           RET

   \                                 In  segment BANKED_CODE, align 1, keep-with-next
   \                     ?Subroutine83:
   \   000000   E0           MOVX    A,@DPTR
   \   000001   8A82         MOV     DPL,R2
   \   000003   8B83         MOV     DPH,R3
   \   000005   F0           MOVX    @DPTR,A
   \   000006   A3           INC     DPTR
   \   000007   AA82         MOV     R2,DPL
   \   000009   AB83         MOV     R3,DPH
   \   00000B   22           RET

   \                                 In  segment BANKED_CODE, align 1, keep-with-next
   \                     ?Subroutine30:
   \   000000   8E82         MOV     DPL,R6
   \   000002   8F83         MOV     DPH,R7
   \   000004   12....       LCALL   ?Subroutine130 & 0xFFFF
   \                     ??CrossCallReturnLabel_359:
   \   000007   12....       LCALL   ?Subroutine169 & 0xFFFF
   \                     ??CrossCallReturnLabel_621:
   \   00000A   05..         INC     ?V0 + 2
   \   00000C   22           RET

   \                                 In  segment BANKED_CODE, align 1, keep-with-next
   \                     ?Subroutine23:
   \   000000   A3           INC     DPTR
   \   000001   12....       LCALL   ?Subroutine130 & 0xFFFF
   \                     ??CrossCallReturnLabel_357:
   \   000004   8882         MOV     DPL,R0
   \   000006   8983         MOV     DPH,R1
   \   000008   12....       LCALL   ?Subroutine130 & 0xFFFF
   \                     ??CrossCallReturnLabel_358:
   \   00000B   22           RET

   \                                 In  segment BANKED_CODE, align 1, keep-with-next
   \                     ?Subroutine130:
   \   000000   E0           MOVX    A,@DPTR
   \   000001                REQUIRE ??Subroutine192_0
   \   000001                ; // Fall through to label ??Subroutine192_0

   \                                 In  segment BANKED_CODE, align 1, keep-with-next
   \                     ??Subroutine192_0:
   \   000000   8A82         MOV     DPL,R2
   \   000002   8B83         MOV     DPH,R3
   \   000004   F0           MOVX    @DPTR,A
   \   000005   A3           INC     DPTR
   \   000006   0A           INC     R2
   \   000007   AB83         MOV     R3,DPH
   \   000009   22           RET

   \                                 In  segment BANKED_CODE, align 1, keep-with-next
   \                     ?Subroutine170:
   \   000000   3400         ADDC    A,#0x0
   \   000002   F9           MOV     R1,A
   \   000003   8882         MOV     DPL,R0
   \   000005   8983         MOV     DPH,R1
   \   000007   22           RET

   \                                 In  segment BANKED_CODE, align 1, keep-with-next
   \                     ?Subroutine169:
   \   000000   EE           MOV     A,R6
   \   000001   2402         ADD     A,#0x2
   \   000003   FE           MOV     R6,A
   \   000004   EF           MOV     A,R7
   \   000005   3400         ADDC    A,#0x0
   \   000007   FF           MOV     R7,A
   \   000008   22           RET
   2028          
   2029          /*********************************************************************
   2030           * @fn      ZDO_MatchEndDeviceBind()
   2031           *
   2032           * @brief
   2033           *
   2034           *   Called to match end device binding requests
   2035           *
   2036           * @param  bindReq  - binding request information
   2037           * @param  SecurityUse - Security enable/disable
   2038           *
   2039           * @return  none
   2040           */

   \                                 In  segment BANKED_CODE, align 1, keep-with-next
   2041          void ZDO_MatchEndDeviceBind( ZDEndDeviceBind_t *bindReq )
   \                     ZDO_MatchEndDeviceBind:
   2042          {
   \   000000   74F1         MOV     A,#-0xf
   \   000002   12....       LCALL   ?BANKED_ENTER_XDATA
   \   000005                ; Saved register size: 15
   \   000005                ; Auto size: 10
   \   000005   74F6         MOV     A,#-0xa
   \   000007   12....       LCALL   ?ALLOC_XSTACK8
   \   00000A   EA           MOV     A,R2
   \   00000B   FE           MOV     R6,A
   \   00000C   EB           MOV     A,R3
   \   00000D   FF           MOV     R7,A
   2043            zAddrType_t dstAddr;
   2044            uint8 sendRsp = FALSE;
   \   00000E   75..00       MOV     ?V0 + 0,#0x0
   2045            uint8 status;
   2046          
   2047            // Is this the first request?
   2048            if ( matchED == NULL )
   \   000011   90....       MOV     DPTR,#matchED
   \   000014   12....       LCALL   ??Subroutine197_0 & 0xFFFF
   \                     ??CrossCallReturnLabel_403:
   \   000017   7057         JNZ     ??ZDO_MatchEndDeviceBind_0
   2049            {
   2050              // Create match info structure
   2051              matchED = (ZDMatchEndDeviceBind_t *)osal_mem_alloc( sizeof ( ZDMatchEndDeviceBind_t ) );
   \   000019                ; Setup parameters for call to function osal_mem_alloc
   \   000019   7A37         MOV     R2,#0x37
   \   00001B   7B00         MOV     R3,#0x0
   \   00001D   12....       LCALL   ??osal_mem_alloc?relay
   \   000020   90....       MOV     DPTR,#matchED
   \   000023   12....       LCALL   ?Subroutine40 & 0xFFFF
   2052              if ( matchED )
   \                     ??CrossCallReturnLabel_60:
   \   000026   90....       MOV     DPTR,#matchED
   \   000029   12....       LCALL   ??Subroutine197_0 & 0xFFFF
   \                     ??CrossCallReturnLabel_404:
   \   00002C   6019         JZ      ??ZDO_MatchEndDeviceBind_1
   2053              {
   2054                // Clear the structure
   2055                osal_memset( (uint8 *)matchED, 0, sizeof ( ZDMatchEndDeviceBind_t ) );
   \   00002E                ; Setup parameters for call to function osal_memset
   \   00002E   7C37         MOV     R4,#0x37
   \   000030   7D00         MOV     R5,#0x0
   \   000032   7900         MOV     R1,#0x0
   \   000034   12....       LCALL   ??osal_memset?relay
   2056          
   2057                // Copy the first request's information
   2058                if ( !ZDO_CopyMatchInfo( &(matchED->ed1), bindReq ) )
   \   000037                ; Setup parameters for call to function ZDO_CopyMatchInfo
   \   000037   EE           MOV     A,R6
   \   000038   FC           MOV     R4,A
   \   000039   EF           MOV     A,R7
   \   00003A   FD           MOV     R5,A
   \   00003B   90....       MOV     DPTR,#matchED
   \   00003E   12....       LCALL   ??Subroutine195_0 & 0xFFFF
   2059                {
   2060                  status = ZDP_NO_ENTRY;
   2061                  sendRsp = TRUE;
   2062                }
   2063              }
   \                     ??CrossCallReturnLabel_381:
   \   000041   12....       LCALL   ??ZDO_CopyMatchInfo?relay
   \   000044   E9           MOV     A,R1
   \   000045   700B         JNZ     ??ZDO_MatchEndDeviceBind_2
   2064              else
   2065              {
   2066                status = ZDP_NO_ENTRY;
   \                     ??ZDO_MatchEndDeviceBind_1:
   \   000047   85..82       MOV     DPL,?XSP + 0
   \   00004A   85..83       MOV     DPH,?XSP + 1
   \   00004D   7488         MOV     A,#-0x78
   \   00004F   02....       LJMP    ??ZDO_MatchEndDeviceBind_3 & 0xFFFF
   2067                sendRsp = TRUE;
   2068              }
   2069          
   2070              if ( !sendRsp )
   2071              {
   2072                // Set into the correct state
   2073                matchED->state = ZDMATCH_WAIT_REQ;
   \                     ??ZDO_MatchEndDeviceBind_2:
   \   000052   12....       LCALL   ??Subroutine210_0 & 0xFFFF
   \                     ??CrossCallReturnLabel_456:
   \   000055   242E         ADD     A,#0x2e
   \   000057   F582         MOV     DPL,A
   \   000059   E8           MOV     A,R0
   \   00005A   12....       LCALL   ??Subroutine217_0 & 0xFFFF
   \                     ??CrossCallReturnLabel_498:
   \   00005D   7401         MOV     A,#0x1
   \   00005F   F0           MOVX    @DPTR,A
   2074          
   2075                // Setup the timeout
   2076                APS_SetEndDeviceBindTimeout( AIB_MaxBindingTime, ZDO_EndDeviceBindMatchTimeoutCB );
   \   000060                ; Setup parameters for call to function APS_SetEndDeviceBindTimeout
   \   000060   7C..         MOV     R4,#??ZDO_EndDeviceBindMatchTimeoutCB?relay & 0xff
   \   000062   7D..         MOV     R5,#(??ZDO_EndDeviceBindMatchTimeoutCB?relay >> 8) & 0xff
   \   000064   90....       MOV     DPTR,#AIB_MaxBindingTime
   \   000067   12....       LCALL   ??Subroutine195_0 & 0xFFFF
   2077              }
   2078            }
   \                     ??CrossCallReturnLabel_382:
   \   00006A   12....       LCALL   ??APS_SetEndDeviceBindTimeout?relay
   \   00006D   02....       LJMP    ??ZDO_MatchEndDeviceBind_4 & 0xFFFF
   2079            else
   2080            {
   2081                matchED->state = ZDMATCH_SENDING_BINDS;
   \                     ??ZDO_MatchEndDeviceBind_0:
   \   000070   E0           MOVX    A,@DPTR
   \   000071   C8           XCH     A,R0
   \   000072   242E         ADD     A,#0x2e
   \   000074   F582         MOV     DPL,A
   \   000076   E8           MOV     A,R0
   \   000077   12....       LCALL   ?Subroutine118 & 0xFFFF
   2082          
   2083                // Copy the 2nd request's information
   2084                if ( !ZDO_CopyMatchInfo( &(matchED->ed2), bindReq ) )
   \                     ??CrossCallReturnLabel_188:
   \   00007A   FC           MOV     R4,A
   \   00007B   EF           MOV     A,R7
   \   00007C   FD           MOV     R5,A
   \   00007D   12....       LCALL   ?Subroutine96 & 0xFFFF
   \                     ??CrossCallReturnLabel_162:
   \   000080   12....       LCALL   ??ZDO_CopyMatchInfo?relay
   \   000083   E9           MOV     A,R1
   \   000084   700C         JNZ     ??ZDO_MatchEndDeviceBind_5
   2085                {
   2086                  status = ZDP_NO_ENTRY;
   \   000086   85..82       MOV     DPL,?XSP + 0
   \   000089   85..83       MOV     DPH,?XSP + 1
   \   00008C   7488         MOV     A,#-0x78
   \   00008E   F0           MOVX    @DPTR,A
   2087                  sendRsp = TRUE;
   \   00008F   75..01       MOV     ?V0 + 0,#0x1
   2088                }
   2089          
   2090                // Make a source match for ed1
   2091                matchED->ed1numMatched = ZDO_CompareClusterLists(
   2092                            matchED->ed1.numOutClusters, matchED->ed1.outClusters,
   2093                            matchED->ed2.numInClusters, matchED->ed2.inClusters, ZDOBuildBuf );
   \                     ??ZDO_MatchEndDeviceBind_5:
   \   000092                ; Setup parameters for call to function ZDO_CompareClusterLists
   \   000092   75....       MOV     ?V0 + 2,#ZDOBuildBuf & 0xff
   \   000095   75....       MOV     ?V0 + 3,#(ZDOBuildBuf >> 8) & 0xff
   \   000098   78..         MOV     R0,#?V0 + 2
   \   00009A   12....       LCALL   ?PUSH_XSTACK_I_TWO
   \   00009D   12....       LCALL   ??Subroutine210_0 & 0xFFFF
   \                     ??CrossCallReturnLabel_457:
   \   0000A0   2429         ADD     A,#0x29
   \   0000A2   F582         MOV     DPL,A
   \   0000A4   E8           MOV     A,R0
   \   0000A5   12....       LCALL   ??Subroutine217_0 & 0xFFFF
   \                     ??CrossCallReturnLabel_499:
   \   0000A8   12....       LCALL   ?PUSH_XSTACK8_X_TWO
   \   0000AB   12....       LCALL   ??Subroutine210_0 & 0xFFFF
   \                     ??CrossCallReturnLabel_458:
   \   0000AE   2428         ADD     A,#0x28
   \   0000B0   12....       LCALL   ?Subroutine108 & 0xFFFF
   \                     ??CrossCallReturnLabel_348:
   \   0000B3   FC           MOV     R4,A
   \   0000B4   12....       LCALL   ??Subroutine210_0 & 0xFFFF
   \                     ??CrossCallReturnLabel_459:
   \   0000B7   2415         ADD     A,#0x15
   \   0000B9   12....       LCALL   ?Subroutine71 & 0xFFFF
   \                     ??CrossCallReturnLabel_474:
   \   0000BC   2414         ADD     A,#0x14
   \   0000BE   F582         MOV     DPL,A
   \   0000C0   E8           MOV     A,R0
   \   0000C1   12....       LCALL   ??Subroutine193_0 & 0xFFFF
   \                     ??CrossCallReturnLabel_363:
   \   0000C4   12....       LCALL   ??ZDO_CompareClusterLists?relay
   \   0000C7   7404         MOV     A,#0x4
   \   0000C9   12....       LCALL   ?DEALLOC_XSTACK8
   \   0000CC   12....       LCALL   ??Subroutine210_0 & 0xFFFF
   \                     ??CrossCallReturnLabel_460:
   \   0000CF   2431         ADD     A,#0x31
   \   0000D1   12....       LCALL   ?Subroutine31 & 0xFFFF
   2094                if ( matchED->ed1numMatched )
   \                     ??CrossCallReturnLabel_410:
   \   0000D4   2431         ADD     A,#0x31
   \   0000D6   12....       LCALL   ?Subroutine108 & 0xFFFF
   \                     ??CrossCallReturnLabel_349:
   \   0000D9   75....       MOV     ?V0 + 4,#ZDOBuildBuf & 0xff
   \   0000DC   75....       MOV     ?V0 + 5,#(ZDOBuildBuf >> 8) & 0xff
   \   0000DF   75..00       MOV     ?V0 + 6,#0x0
   \   0000E2   6038         JZ      ??ZDO_MatchEndDeviceBind_6
   2095                {
   2096                  // Save the match list
   2097                  matchED->ed1Matched = osal_mem_alloc( (short)(matchED->ed1numMatched * sizeof ( uint16 )) );
   \   0000E4                ; Setup parameters for call to function osal_mem_alloc
   \   0000E4   C3           CLR     C
   \   0000E5   33           RLC     A
   \   0000E6   FA           MOV     R2,A
   \   0000E7   E4           CLR     A
   \   0000E8   33           RLC     A
   \   0000E9   FB           MOV     R3,A
   \   0000EA   12....       LCALL   ??osal_mem_alloc?relay
   \   0000ED   90....       MOV     DPTR,#matchED
   \   0000F0   E0           MOVX    A,@DPTR
   \   0000F1   2432         ADD     A,#0x32
   \   0000F3   12....       LCALL   ?Subroutine37 & 0xFFFF
   2098                  if ( matchED->ed1Matched )
   \                     ??CrossCallReturnLabel_42:
   \   0000F6   6018         JZ      ??ZDO_MatchEndDeviceBind_7
   2099                  {
   2100                    osal_memcpy( matchED->ed1Matched, ZDOBuildBuf, (matchED->ed1numMatched * sizeof ( uint16 )) );
   \   0000F8                ; Setup parameters for call to function osal_memcpy
   \   0000F8   78..         MOV     R0,#?V0 + 4
   \   0000FA   12....       LCALL   ?PUSH_XSTACK_I_THREE
   \   0000FD   12....       LCALL   ?Subroutine57 & 0xFFFF
   2101                  }
   \                     ??CrossCallReturnLabel_96:
   \   000100   C3           CLR     C
   \   000101   33           RLC     A
   \   000102   FC           MOV     R4,A
   \   000103   E4           CLR     A
   \   000104   33           RLC     A
   \   000105   FD           MOV     R5,A
   \   000106   12....       LCALL   ??osal_memcpy?relay
   \   000109   7403         MOV     A,#0x3
   \   00010B   12....       LCALL   ?DEALLOC_XSTACK8
   \   00010E   800C         SJMP    ??ZDO_MatchEndDeviceBind_6
   2102                  else
   2103                  {
   2104                    // Allocation error, stop
   2105                    status = ZDP_NO_ENTRY;
   \                     ??ZDO_MatchEndDeviceBind_7:
   \   000110   85..82       MOV     DPL,?XSP + 0
   \   000113   85..83       MOV     DPH,?XSP + 1
   \   000116   7488         MOV     A,#-0x78
   \   000118   F0           MOVX    @DPTR,A
   2106                    sendRsp = TRUE;
   \   000119   75..01       MOV     ?V0 + 0,#0x1
   2107                  }
   2108                }
   2109          
   2110                // Make a source match for ed2
   2111                matchED->ed2numMatched = ZDO_CompareClusterLists(
   2112                            matchED->ed2.numOutClusters, matchED->ed2.outClusters,
   2113                            matchED->ed1.numInClusters, matchED->ed1.inClusters, ZDOBuildBuf );
   \                     ??ZDO_MatchEndDeviceBind_6:
   \   00011C                ; Setup parameters for call to function ZDO_CompareClusterLists
   \   00011C   78..         MOV     R0,#?V0 + 2
   \   00011E   12....       LCALL   ?PUSH_XSTACK_I_TWO
   \   000121   12....       LCALL   ??Subroutine210_0 & 0xFFFF
   \                     ??CrossCallReturnLabel_461:
   \   000124   2412         ADD     A,#0x12
   \   000126   F582         MOV     DPL,A
   \   000128   E8           MOV     A,R0
   \   000129   12....       LCALL   ??Subroutine217_0 & 0xFFFF
   \                     ??CrossCallReturnLabel_500:
   \   00012C   12....       LCALL   ?PUSH_XSTACK8_X_TWO
   \   00012F   12....       LCALL   ??Subroutine210_0 & 0xFFFF
   \                     ??CrossCallReturnLabel_462:
   \   000132   2411         ADD     A,#0x11
   \   000134   12....       LCALL   ?Subroutine108 & 0xFFFF
   \                     ??CrossCallReturnLabel_350:
   \   000137   FC           MOV     R4,A
   \   000138   12....       LCALL   ??Subroutine210_0 & 0xFFFF
   \                     ??CrossCallReturnLabel_463:
   \   00013B   242C         ADD     A,#0x2c
   \   00013D   12....       LCALL   ?Subroutine71 & 0xFFFF
   \                     ??CrossCallReturnLabel_475:
   \   000140   242B         ADD     A,#0x2b
   \   000142   F582         MOV     DPL,A
   \   000144   E8           MOV     A,R0
   \   000145   12....       LCALL   ??Subroutine193_0 & 0xFFFF
   \                     ??CrossCallReturnLabel_364:
   \   000148   12....       LCALL   ??ZDO_CompareClusterLists?relay
   \   00014B   7404         MOV     A,#0x4
   \   00014D   12....       LCALL   ?DEALLOC_XSTACK8
   \   000150   12....       LCALL   ??Subroutine210_0 & 0xFFFF
   \                     ??CrossCallReturnLabel_464:
   \   000153   2434         ADD     A,#0x34
   \   000155   12....       LCALL   ?Subroutine31 & 0xFFFF
   2114                if ( matchED->ed2numMatched )
   \                     ??CrossCallReturnLabel_411:
   \   000158   2434         ADD     A,#0x34
   \   00015A   12....       LCALL   ?Subroutine108 & 0xFFFF
   \                     ??CrossCallReturnLabel_351:
   \   00015D   602A         JZ      ??ZDO_MatchEndDeviceBind_8
   2115                {
   2116                  // Save the match list
   2117                  matchED->ed2Matched = osal_mem_alloc( (short)(matchED->ed2numMatched * sizeof ( uint16 )) );
   \   00015F                ; Setup parameters for call to function osal_mem_alloc
   \   00015F   C3           CLR     C
   \   000160   33           RLC     A
   \   000161   FA           MOV     R2,A
   \   000162   E4           CLR     A
   \   000163   33           RLC     A
   \   000164   FB           MOV     R3,A
   \   000165   12....       LCALL   ??osal_mem_alloc?relay
   \   000168   90....       MOV     DPTR,#matchED
   \   00016B   E0           MOVX    A,@DPTR
   \   00016C   2435         ADD     A,#0x35
   \   00016E   12....       LCALL   ?Subroutine37 & 0xFFFF
   2118                  if ( matchED->ed2Matched )
   \                     ??CrossCallReturnLabel_43:
   \   000171   6032         JZ      ??ZDO_MatchEndDeviceBind_9
   2119                  {
   2120                    osal_memcpy( matchED->ed2Matched, ZDOBuildBuf, (matchED->ed2numMatched * sizeof ( uint16 )) );
   \   000173                ; Setup parameters for call to function osal_memcpy
   \   000173   78..         MOV     R0,#?V0 + 4
   \   000175   12....       LCALL   ?PUSH_XSTACK_I_THREE
   \   000178   12....       LCALL   ?Subroutine58 & 0xFFFF
   2121                  }
   \                     ??CrossCallReturnLabel_393:
   \   00017B   C3           CLR     C
   \   00017C   33           RLC     A
   \   00017D   FC           MOV     R4,A
   \   00017E   E4           CLR     A
   \   00017F   33           RLC     A
   \   000180   FD           MOV     R5,A
   \   000181   12....       LCALL   ??osal_memcpy?relay
   \   000184   7403         MOV     A,#0x3
   \   000186   12....       LCALL   ?DEALLOC_XSTACK8
   2122                  else
   2123                  {
   2124                    // Allocation error, stop
   2125                    status = ZDP_NO_ENTRY;
   2126                    sendRsp = TRUE;
   2127                  }
   2128                }
   2129          
   2130                if ( (sendRsp == FALSE) && (matchED->ed1numMatched || matchED->ed2numMatched) )
   \                     ??ZDO_MatchEndDeviceBind_8:
   \   000189   E5..         MOV     A,?V0 + 0
   \   00018B   A2E0         MOV     C,0xE0 /* A   */.0
   \   00018D   401F         JC      ??ZDO_MatchEndDeviceBind_10
   \   00018F   12....       LCALL   ?Subroutine57 & 0xFFFF
   \                     ??CrossCallReturnLabel_97:
   \   000192   7005         JNZ     ??ZDO_MatchEndDeviceBind_11
   \   000194   12....       LCALL   ?Subroutine58 & 0xFFFF
   \                     ??CrossCallReturnLabel_394:
   \   000197   6015         JZ      ??ZDO_MatchEndDeviceBind_10
   2131                {
   2132                  // Do the first unbind/bind state
   2133                  ZDMatchSendState( ZDMATCH_REASON_START, ZDP_SUCCESS, 0 );
   \                     ??ZDO_MatchEndDeviceBind_11:
   \   000199                ; Setup parameters for call to function ZDMatchSendState
   \   000199   7B00         MOV     R3,#0x0
   \   00019B   7A00         MOV     R2,#0x0
   \   00019D   7900         MOV     R1,#0x0
   \   00019F   12....       LCALL   ??ZDMatchSendState?relay
   2134                }
   2135                else
   2136                {
   2137                  status = ZDP_NO_MATCH;
   2138                  sendRsp = TRUE;
   2139                }
   2140            }
   2141          
   2142            if ( sendRsp )
   \   0001A2   02....       LJMP    ??ZDO_MatchEndDeviceBind_4 & 0xFFFF
   \                     ??ZDO_MatchEndDeviceBind_9:
   \   0001A5   85..82       MOV     DPL,?XSP + 0
   \   0001A8   85..83       MOV     DPH,?XSP + 1
   \   0001AB   7488         MOV     A,#-0x78
   \   0001AD   F0           MOVX    @DPTR,A
   \                     ??ZDO_MatchEndDeviceBind_10:
   \   0001AE   85..82       MOV     DPL,?XSP + 0
   \   0001B1   85..83       MOV     DPH,?XSP + 1
   \   0001B4   7486         MOV     A,#-0x7a
   \                     ??ZDO_MatchEndDeviceBind_3:
   \   0001B6   F0           MOVX    @DPTR,A
   2143            {
   2144              // send response to this requester
   2145              dstAddr.addrMode = Addr16Bit;
   \   0001B7   7409         MOV     A,#0x9
   \   0001B9   12....       LCALL   ?XSTACK_DISP0_8
   \   0001BC   7402         MOV     A,#0x2
   \   0001BE   12....       LCALL   ?Subroutine43 & 0xFFFF
   2146              dstAddr.addr.shortAddr = bindReq->srcAddr;
   \                     ??CrossCallReturnLabel_71:
   \   0001C1   12....       LCALL   ??Subroutine204_0 & 0xFFFF
   \                     ??CrossCallReturnLabel_424:
   \   0001C4   12....       LCALL   ?XSTACK_DISP0_8
   \   0001C7   12....       LCALL   ??Subroutine183_0 & 0xFFFF
   2147              ZDP_EndDeviceBindRsp( bindReq->TransSeq, &dstAddr, status, bindReq->SecurityUse );
   \                     ??CrossCallReturnLabel_304:
   \   0001CA                ; Setup parameters for call to function ZDP_SendData
   \   0001CA   8E82         MOV     DPL,R6
   \   0001CC   8F83         MOV     DPH,R7
   \   0001CE   A3           INC     DPTR
   \   0001CF   12....       LCALL   ??Subroutine181_0 & 0xFFFF
   \                     ??CrossCallReturnLabel_278:
   \   0001D2   12....       LCALL   ?PUSH_XSTACK_I_ONE
   \   0001D5   7401         MOV     A,#0x1
   \   0001D7   12....       LCALL   ?XSTACK_DISP0_8
   \   0001DA   8582..       MOV     ?V0 + 0,DPL
   \   0001DD   8583..       MOV     ?V0 + 1,DPH
   \   0001E0   78..         MOV     R0,#?V0 + 0
   \   0001E2   12....       LCALL   ?PUSH_XSTACK_I_TWO
   \   0001E5   75..20       MOV     ?V0 + 0,#0x20
   \   0001E8   75..80       MOV     ?V0 + 1,#-0x80
   \   0001EB   78..         MOV     R0,#?V0 + 0
   \   0001ED   12....       LCALL   ?PUSH_XSTACK_I_TWO
   \   0001F0   7901         MOV     R1,#0x1
   \   0001F2   7406         MOV     A,#0x6
   \   0001F4   12....       LCALL   ?XSTACK_DISP0_8
   \   0001F7   AC82         MOV     R4,DPL
   \   0001F9   AD83         MOV     R5,DPH
   \   0001FB   EE           MOV     A,R6
   \   0001FC   FA           MOV     R2,A
   \   0001FD   EF           MOV     A,R7
   \   0001FE   FB           MOV     R3,A
   \   0001FF   12....       LCALL   ??ZDP_SendData?relay
   \   000202   7405         MOV     A,#0x5
   \   000204   12....       LCALL   ?DEALLOC_XSTACK8
   2148          
   2149              if ( matchED->state == ZDMATCH_SENDING_BINDS )
   \   000207   12....       LCALL   ?Subroutine68 & 0xFFFF
   \                     ??CrossCallReturnLabel_113:
   \   00020A   704A         JNZ     ??ZDO_MatchEndDeviceBind_12
   2150              {
   2151                // send response to first requester
   2152                dstAddr.addrMode = Addr16Bit;
   \   00020C   7409         MOV     A,#0x9
   \   00020E   12....       LCALL   ?XSTACK_DISP0_8
   \   000211   7402         MOV     A,#0x2
   \   000213   12....       LCALL   ?Subroutine52 & 0xFFFF
   2153                dstAddr.addr.shortAddr = matchED->ed1.srcAddr;
   2154                ZDP_EndDeviceBindRsp( matchED->ed1.TransSeq, &dstAddr, status, matchED->ed1.SecurityUse );
   2155              }
   \                     ??CrossCallReturnLabel_90:
   \   000216   12....       LCALL   ?Subroutine65 & 0xFFFF
   \                     ??CrossCallReturnLabel_427:
   \   000219   12....       LCALL   ?XSTACK_DISP0_8
   \   00021C   12....       LCALL   ?Subroutine18 & 0xFFFF
   \                     ??CrossCallReturnLabel_8:
   \   00021F   12....       LCALL   ?PUSH_XSTACK_I_ONE
   \   000222   7401         MOV     A,#0x1
   \   000224   12....       LCALL   ?XSTACK_DISP0_8
   \   000227   8582..       MOV     ?V0 + 0,DPL
   \   00022A   8583..       MOV     ?V0 + 1,DPH
   \   00022D   78..         MOV     R0,#?V0 + 0
   \   00022F   12....       LCALL   ?PUSH_XSTACK_I_TWO
   \   000232   75..20       MOV     ?V0 + 0,#0x20
   \   000235   75..80       MOV     ?V0 + 1,#-0x80
   \   000238   78..         MOV     R0,#?V0 + 0
   \   00023A   12....       LCALL   ?PUSH_XSTACK_I_TWO
   \   00023D   7901         MOV     R1,#0x1
   \   00023F   7406         MOV     A,#0x6
   \   000241   12....       LCALL   ?XSTACK_DISP0_8
   \   000244   AC82         MOV     R4,DPL
   \   000246   AD83         MOV     R5,DPH
   \   000248   90....       MOV     DPTR,#matchED
   \   00024B   12....       LCALL   ??Subroutine195_0 & 0xFFFF
   \                     ??CrossCallReturnLabel_383:
   \   00024E   12....       LCALL   ??ZDP_SendData?relay
   \   000251   7405         MOV     A,#0x5
   \   000253   12....       LCALL   ?DEALLOC_XSTACK8
   2156          
   2157              // Process ended - release memory used
   2158              ZDO_RemoveMatchMemory();
   \                     ??ZDO_MatchEndDeviceBind_12:
   \   000256                ; Setup parameters for call to function ZDO_RemoveMatchMemory
   \   000256   12....       LCALL   ??ZDO_RemoveMatchMemory?relay
   2159            }
   2160          }
   \                     ??ZDO_MatchEndDeviceBind_4:
   \   000259   740A         MOV     A,#0xa
   \   00025B   02....       LJMP    ?Subroutine3 & 0xFFFF

   \                                 In  segment BANKED_CODE, align 1, keep-with-next
   \                     ?Subroutine58:
   \   000000   90....       MOV     DPTR,#matchED
   \   000003                REQUIRE ??Subroutine196_0
   \   000003                ; // Fall through to label ??Subroutine196_0

   \                                 In  segment BANKED_CODE, align 1, keep-with-next
   \                     ??Subroutine196_0:
   \   000000   12....       LCALL   ??Subroutine202_0 & 0xFFFF
   \                     ??CrossCallReturnLabel_478:
   \   000003   2434         ADD     A,#0x34
   \   000005   12....       LCALL   ?Subroutine155 & 0xFFFF
   \                     ??CrossCallReturnLabel_440:
   \   000008   22           RET

   \                                 In  segment BANKED_CODE, align 1, keep-with-next
   \                     ?Subroutine37:
   \   000000   12....       LCALL   ?Subroutine150 & 0xFFFF
   \                     ??CrossCallReturnLabel_241:
   \   000003   EA           MOV     A,R2
   \   000004   F0           MOVX    @DPTR,A
   \   000005   A3           INC     DPTR
   \   000006   EB           MOV     A,R3
   \   000007   12....       LCALL   ?Subroutine162 & 0xFFFF
   \                     ??CrossCallReturnLabel_527:
   \   00000A   E0           MOVX    A,@DPTR
   \   00000B   FA           MOV     R2,A
   \   00000C   4B           ORL     A,R3
   \   00000D   22           RET

   \                                 In  segment BANKED_CODE, align 1, keep-with-next
   \                     ?Subroutine31:
   \   000000   F582         MOV     DPL,A
   \   000002   E8           MOV     A,R0
   \   000003   12....       LCALL   ??Subroutine229_0 & 0xFFFF
   \                     ??CrossCallReturnLabel_591:
   \   000006                REQUIRE ??Subroutine198_0
   \   000006                ; // Fall through to label ??Subroutine198_0

   \                                 In  segment BANKED_CODE, align 1, keep-with-next
   \                     ??Subroutine198_0:
   \   000000   12....       LCALL   ?Subroutine129 & 0xFFFF
   \                     ??CrossCallReturnLabel_413:
   \   000003   C8           XCH     A,R0
   \   000004   22           RET

   \                                 In  segment BANKED_CODE, align 1, keep-with-next
   \                     ?Subroutine129:
   \   000000   E9           MOV     A,R1
   \   000001                REQUIRE ??Subroutine199_0
   \   000001                ; // Fall through to label ??Subroutine199_0

   \                                 In  segment BANKED_CODE, align 1, keep-with-next
   \                     ??Subroutine199_0:
   \   000000   F0           MOVX    @DPTR,A
   \   000001                ; Setup parameters for call to function ZDP_SendData
   \   000001                ; Setup parameters for call to function ZDP_SendData
   \   000001                ; Setup parameters for call to function ZDP_SendData
   \   000001   12....       LCALL   ?Subroutine167 & 0xFFFF
   \                     ??CrossCallReturnLabel_483:
   \   000004   22           RET

   \                                 In  segment BANKED_CODE, align 1, keep-with-next
   \                     ?Subroutine167:
   \   000000   90....       MOV     DPTR,#matchED
   \   000003                REQUIRE ??Subroutine200_0
   \   000003                ; // Fall through to label ??Subroutine200_0

   \                                 In  segment BANKED_CODE, align 1, keep-with-next
   \                     ?Subroutine96:
   \   000000   90....       MOV     DPTR,#matchED
   \   000003   E0           MOVX    A,@DPTR
   \   000004   2417         ADD     A,#0x17
   \   000006   FA           MOV     R2,A
   \   000007   A3           INC     DPTR
   \   000008   E0           MOVX    A,@DPTR
   \   000009   3400         ADDC    A,#0x0
   \   00000B   FB           MOV     R3,A
   \   00000C   22           RET

   \                                 In  segment BANKED_CODE, align 1, keep-with-next
   \                     ?Subroutine150:
   \   000000   F8           MOV     R0,A
   \   000001   A3           INC     DPTR
   \   000002   E0           MOVX    A,@DPTR
   \   000003   12....       LCALL   ?Subroutine170 & 0xFFFF
   \                     ??CrossCallReturnLabel_268:
   \   000006   22           RET

   \                                 In  segment BANKED_CODE, align 1, keep-with-next
   \                     ?Subroutine68:
   \   000000   12....       LCALL   ?Subroutine148 & 0xFFFF
   \                     ??CrossCallReturnLabel_477:
   \   000003   242E         ADD     A,#0x2e
   \   000005   12....       LCALL   ?Subroutine155 & 0xFFFF
   \                     ??CrossCallReturnLabel_439:
   \   000008   6402         XRL     A,#0x2
   \   00000A   22           RET

   \                                 In  segment BANKED_CODE, align 1, keep-with-next
   \                     ?Subroutine148:
   \   000000   90....       MOV     DPTR,#matchED
   \   000003                REQUIRE ??Subroutine202_0
   \   000003                ; // Fall through to label ??Subroutine202_0

   \                                 In  segment BANKED_CODE, align 1, keep-with-next
   \                     ?Subroutine65:
   \   000000   F583         MOV     DPH,A
   \   000002   8882         MOV     DPL,R0
   \   000004                REQUIRE ??Subroutine203_0
   \   000004                ; // Fall through to label ??Subroutine203_0

   \                                 In  segment BANKED_CODE, align 1, keep-with-next
   \                     ??Subroutine203_0:
   \   000000   A3           INC     DPTR
   \   000001   A3           INC     DPTR
   \   000002                REQUIRE ??Subroutine204_0
   \   000002                ; // Fall through to label ??Subroutine204_0

   \                                 In  segment BANKED_CODE, align 1, keep-with-next
   \                     ??Subroutine204_0:
   \   000000   12....       LCALL   ?Subroutine144 & 0xFFFF
   \                     ??CrossCallReturnLabel_433:
   \   000003   7401         MOV     A,#0x1
   \   000005   22           RET

   \                                 In  segment BANKED_CODE, align 1, keep-with-next
   \                     ?Subroutine57:
   \   000000   12....       LCALL   ?Subroutine148 & 0xFFFF
   \                     ??CrossCallReturnLabel_476:
   \   000003   2431         ADD     A,#0x31
   \   000005   12....       LCALL   ?Subroutine155 & 0xFFFF
   \                     ??CrossCallReturnLabel_438:
   \   000008   22           RET

   \                                 In  segment BANKED_CODE, align 1, keep-with-next
   \                     ?Subroutine155:
   \   000000   F582         MOV     DPL,A
   \   000002   E8           MOV     A,R0
   \   000003                REQUIRE ??Subroutine205_0
   \   000003                ; // Fall through to label ??Subroutine205_0

   \                                 In  segment BANKED_CODE, align 1, keep-with-next
   \                     ?Subroutine52:
   \   000000   12....       LCALL   ??Subroutine199_0 & 0xFFFF
   \                     ??CrossCallReturnLabel_415:
   \   000003   22           RET

   \                                 In  segment BANKED_CODE, align 1, keep-with-next
   \                     ?Subroutine18:
   \   000000   E8           MOV     A,R0
   \   000001   F0           MOVX    @DPTR,A
   \   000002   A3           INC     DPTR
   \   000003   12....       LCALL   ?Subroutine129 & 0xFFFF
   \                     ??CrossCallReturnLabel_414:
   \   000006   F583         MOV     DPH,A
   \   000008   8882         MOV     DPL,R0
   \   00000A   A3           INC     DPTR
   \   00000B   E0           MOVX    A,@DPTR
   \   00000C   F5..         MOV     ?V0 + 0,A
   \   00000E   78..         MOV     R0,#?V0 + 0
   \   000010   22           RET

   \                                 In  segment BANKED_CODE, align 1, keep-with-next
   \                     ?Subroutine71:
   \   000000   F582         MOV     DPL,A
   \   000002   E8           MOV     A,R0
   \   000003   12....       LCALL   ?Subroutine149 & 0xFFFF
   \                     ??CrossCallReturnLabel_486:
   \   000006                REQUIRE ??Subroutine210_0
   \   000006                ; // Fall through to label ??Subroutine210_0

   \                                 In  segment BANKED_CODE, align 1, keep-with-next
   \                     ??Subroutine210_0:
   \   000000   90....       MOV     DPTR,#matchED
   \   000003                REQUIRE ??Subroutine211_0
   \   000003                ; // Fall through to label ??Subroutine211_0
   2161          
   2162          /*********************************************************************
   2163           * @fn      ZDO_RemoveMatchMemory()
   2164           *
   2165           * @brief   Called to clear the memory used for the end device bind.
   2166           *
   2167           * @param  none
   2168           *
   2169           * @return  none
   2170           */

   \                                 In  segment BANKED_CODE, align 1, keep-with-next
   2171          static void ZDO_RemoveMatchMemory( void )
   \                     ZDO_RemoveMatchMemory:
   2172          {
   \   000000   C082         PUSH    DPL
   \   000002   C083         PUSH    DPH
   \   000004                ; Saved register size: 2
   \   000004                ; Auto size: 0
   2173            if ( matchED != NULL )
   \   000004   90....       MOV     DPTR,#matchED
   \   000007   12....       LCALL   ??Subroutine197_0 & 0xFFFF
   \                     ??CrossCallReturnLabel_405:
   \   00000A   605D         JZ      ??ZDO_RemoveMatchMemory_0
   2174            {
   2175              if ( matchED->ed2Matched != NULL )
   \   00000C   E0           MOVX    A,@DPTR
   \   00000D   C8           XCH     A,R0
   \   00000E   2435         ADD     A,#0x35
   \   000010   12....       LCALL   ?Subroutine55 & 0xFFFF
   \                     ??CrossCallReturnLabel_287:
   \   000013   6003         JZ      ??ZDO_RemoveMatchMemory_1
   2176              {
   2177                osal_mem_free( matchED->ed2Matched );
   \   000015                ; Setup parameters for call to function osal_mem_free
   \   000015   12....       LCALL   ??osal_mem_free?relay
   2178              }
   2179              if ( matchED->ed1Matched != NULL )
   \                     ??ZDO_RemoveMatchMemory_1:
   \   000018   12....       LCALL   ??Subroutine210_0 & 0xFFFF
   \                     ??CrossCallReturnLabel_465:
   \   00001B   2432         ADD     A,#0x32
   \   00001D   12....       LCALL   ?Subroutine55 & 0xFFFF
   \                     ??CrossCallReturnLabel_288:
   \   000020   6003         JZ      ??ZDO_RemoveMatchMemory_2
   2180              {
   2181                osal_mem_free( matchED->ed1Matched );
   \   000022                ; Setup parameters for call to function osal_mem_free
   \   000022   12....       LCALL   ??osal_mem_free?relay
   2182              }
   2183              if ( matchED->ed1.inClusters != NULL )
   \                     ??ZDO_RemoveMatchMemory_2:
   \   000025   12....       LCALL   ??Subroutine210_0 & 0xFFFF
   \                     ??CrossCallReturnLabel_466:
   \   000028   2412         ADD     A,#0x12
   \   00002A   12....       LCALL   ?Subroutine55 & 0xFFFF
   \                     ??CrossCallReturnLabel_289:
   \   00002D   6003         JZ      ??ZDO_RemoveMatchMemory_3
   2184              {
   2185                osal_mem_free( matchED->ed1.inClusters );
   \   00002F                ; Setup parameters for call to function osal_mem_free
   \   00002F   12....       LCALL   ??osal_mem_free?relay
   2186              }
   2187              if ( matchED->ed1.outClusters != NULL )
   \                     ??ZDO_RemoveMatchMemory_3:
   \   000032   12....       LCALL   ??Subroutine210_0 & 0xFFFF
   \                     ??CrossCallReturnLabel_467:
   \   000035   2415         ADD     A,#0x15
   \   000037   12....       LCALL   ?Subroutine55 & 0xFFFF
   \                     ??CrossCallReturnLabel_290:
   \   00003A   6003         JZ      ??ZDO_RemoveMatchMemory_4
   2188              {
   2189                osal_mem_free( matchED->ed1.outClusters );
   \   00003C                ; Setup parameters for call to function osal_mem_free
   \   00003C   12....       LCALL   ??osal_mem_free?relay
   2190              }
   2191              if ( matchED->ed2.inClusters != NULL )
   \                     ??ZDO_RemoveMatchMemory_4:
   \   00003F   12....       LCALL   ??Subroutine210_0 & 0xFFFF
   \                     ??CrossCallReturnLabel_468:
   \   000042   2429         ADD     A,#0x29
   \   000044   12....       LCALL   ?Subroutine55 & 0xFFFF
   \                     ??CrossCallReturnLabel_291:
   \   000047   6003         JZ      ??ZDO_RemoveMatchMemory_5
   2192              {
   2193                osal_mem_free( matchED->ed2.inClusters );
   \   000049                ; Setup parameters for call to function osal_mem_free
   \   000049   12....       LCALL   ??osal_mem_free?relay
   2194              }
   2195              if ( matchED->ed2.outClusters != NULL )
   \                     ??ZDO_RemoveMatchMemory_5:
   \   00004C   12....       LCALL   ??Subroutine210_0 & 0xFFFF
   \                     ??CrossCallReturnLabel_469:
   \   00004F   242C         ADD     A,#0x2c
   \   000051   12....       LCALL   ?Subroutine55 & 0xFFFF
   \                     ??CrossCallReturnLabel_292:
   \   000054   6003         JZ      ??ZDO_RemoveMatchMemory_6
   2196              {
   2197                osal_mem_free( matchED->ed2.outClusters );
   \   000056                ; Setup parameters for call to function osal_mem_free
   \   000056   12....       LCALL   ??osal_mem_free?relay
   2198              }
   2199          
   2200              osal_mem_free( matchED );
   \                     ??ZDO_RemoveMatchMemory_6:
   \   000059                ; Setup parameters for call to function osal_mem_free
   \   000059   90....       MOV     DPTR,#matchED
   \   00005C   12....       LCALL   ??Subroutine195_0 & 0xFFFF
   \                     ??CrossCallReturnLabel_384:
   \   00005F   12....       LCALL   ??osal_mem_free?relay
   2201              matchED = (ZDMatchEndDeviceBind_t *)NULL;
   \   000062   90....       MOV     DPTR,#matchED
   \   000065   E4           CLR     A
   \   000066   F0           MOVX    @DPTR,A
   \   000067   A3           INC     DPTR
   \   000068   F0           MOVX    @DPTR,A
   2202            }
   2203          }
   \                     ??ZDO_RemoveMatchMemory_0:
   \   000069                REQUIRE ?Subroutine0
   \   000069                ; // Fall through to label ?Subroutine0
   2204          
   2205          /*********************************************************************
   2206           * @fn      ZDO_CopyMatchInfo()
   2207           *
   2208           * @brief   Called to copy memory used for the end device bind.
   2209           *
   2210           * @param  srcReq - source information
   2211           * @param  dstReq - destination location
   2212           *
   2213           * @return  TRUE if copy was successful.
   2214           */

   \                                 In  segment BANKED_CODE, align 1, keep-with-next
   2215          static uint8 ZDO_CopyMatchInfo( ZDEndDeviceBind_t *destReq, ZDEndDeviceBind_t *srcReq )
   \                     ZDO_CopyMatchInfo:
   2216          {
   \   000000   74EC         MOV     A,#-0x14
   \   000002   12....       LCALL   ?BANKED_ENTER_XDATA
   \   000005                ; Saved register size: 20
   \   000005                ; Auto size: 0
   \   000005   EA           MOV     A,R2
   \   000006   FE           MOV     R6,A
   \   000007   EB           MOV     A,R3
   \   000008   FF           MOV     R7,A
   \   000009   8C..         MOV     ?V0 + 0,R4
   \   00000B   8D..         MOV     ?V0 + 1,R5
   2217            uint8 allOK = TRUE;
   \   00000D   75..01       MOV     ?V0 + 2,#0x1
   2218          
   2219            // Copy bind information into the match info structure
   2220            osal_memcpy( (uint8 *)destReq, srcReq, sizeof ( ZDEndDeviceBind_t ) );
   \   000010                ; Setup parameters for call to function osal_memcpy
   \   000010   8C..         MOV     ?V0 + 4,R4
   \   000012   8D..         MOV     ?V0 + 5,R5
   \   000014   75..00       MOV     ?V0 + 6,#0x0
   \   000017   78..         MOV     R0,#?V0 + 4
   \   000019   12....       LCALL   ?PUSH_XSTACK_I_THREE
   \   00001C   7C17         MOV     R4,#0x17
   \   00001E   7D00         MOV     R5,#0x0
   \   000020   12....       LCALL   ??osal_memcpy?relay
   \   000023   7403         MOV     A,#0x3
   \   000025   12....       LCALL   ?DEALLOC_XSTACK8
   2221          
   2222            // Initialize the destination cluster pointers
   2223            destReq->inClusters = NULL;
   \   000028   EE           MOV     A,R6
   \   000029   2412         ADD     A,#0x12
   \   00002B   12....       LCALL   ?Subroutine113 & 0xFFFF
   \                     ??CrossCallReturnLabel_181:
   \   00002E   F0           MOVX    @DPTR,A
   2224            destReq->outClusters = NULL;
   \   00002F   EE           MOV     A,R6
   \   000030   2415         ADD     A,#0x15
   \   000032   12....       LCALL   ??Subroutine208_0 & 0xFFFF
   \                     ??CrossCallReturnLabel_448:
   \   000035   E4           CLR     A
   \   000036   F0           MOVX    @DPTR,A
   \   000037   A3           INC     DPTR
   \   000038   F0           MOVX    @DPTR,A
   2225          
   2226            // Copy input cluster IDs
   2227            if ( srcReq->numInClusters )
   \   000039   E5..         MOV     A,?V0 + 0
   \   00003B   2411         ADD     A,#0x11
   \   00003D   12....       LCALL   ?Subroutine115 & 0xFFFF
   \                     ??CrossCallReturnLabel_185:
   \   000040   6034         JZ      ??ZDO_CopyMatchInfo_0
   2228            {
   2229              destReq->inClusters = osal_mem_alloc( (short)(srcReq->numInClusters * sizeof ( uint16 )) );
   \   000042                ; Setup parameters for call to function osal_mem_alloc
   \   000042   C3           CLR     C
   \   000043   33           RLC     A
   \   000044   FA           MOV     R2,A
   \   000045   E4           CLR     A
   \   000046   33           RLC     A
   \   000047   FB           MOV     R3,A
   \   000048   12....       LCALL   ??osal_mem_alloc?relay
   \   00004B   12....       LCALL   ?Subroutine39 & 0xFFFF
   2230              if ( destReq->inClusters )
   \                     ??CrossCallReturnLabel_52:
   \   00004E   FA           MOV     R2,A
   \   00004F   4B           ORL     A,R3
   \   000050   6021         JZ      ??ZDO_CopyMatchInfo_1
   2231              {
   2232                // Copy the clusters
   2233                osal_memcpy( (uint8*)(destReq->inClusters), (uint8 *)(srcReq->inClusters),
   2234                                (srcReq->numInClusters * sizeof ( uint16 )) );
   \   000052                ; Setup parameters for call to function osal_memcpy
   \   000052   E5..         MOV     A,?V0 + 0
   \   000054   2412         ADD     A,#0x12
   \   000056   12....       LCALL   ?Subroutine90 & 0xFFFF
   2235              }
   \                     ??CrossCallReturnLabel_148:
   \   000059   12....       LCALL   ?PUSH_XSTACK_I_THREE
   \   00005C   85..82       MOV     DPL,?V0 + 10
   \   00005F   85..83       MOV     DPH,?V0 + 11
   \   000062   E0           MOVX    A,@DPTR
   \   000063   C3           CLR     C
   \   000064   33           RLC     A
   \   000065   FC           MOV     R4,A
   \   000066   E4           CLR     A
   \   000067   33           RLC     A
   \   000068   FD           MOV     R5,A
   \   000069   12....       LCALL   ??osal_memcpy?relay
   \   00006C   7403         MOV     A,#0x3
   \   00006E   12....       LCALL   ?DEALLOC_XSTACK8
   \   000071   8003         SJMP    ??ZDO_CopyMatchInfo_0
   2236              else
   2237              {
   2238                allOK = FALSE;
   \                     ??ZDO_CopyMatchInfo_1:
   \   000073   75..00       MOV     ?V0 + 2,#0x0
   2239              }
   2240            }
   2241          
   2242            // Copy output cluster IDs
   2243            if ( srcReq->numOutClusters )
   \                     ??ZDO_CopyMatchInfo_0:
   \   000076   E5..         MOV     A,?V0 + 0
   \   000078   2414         ADD     A,#0x14
   \   00007A   12....       LCALL   ?Subroutine115 & 0xFFFF
   \                     ??CrossCallReturnLabel_186:
   \   00007D   6038         JZ      ??ZDO_CopyMatchInfo_2
   2244            {
   2245              destReq->outClusters = osal_mem_alloc( (short)(srcReq->numOutClusters * sizeof ( uint16 )) );
   \   00007F                ; Setup parameters for call to function osal_mem_alloc
   \   00007F   C3           CLR     C
   \   000080   33           RLC     A
   \   000081   FA           MOV     R2,A
   \   000082   E4           CLR     A
   \   000083   33           RLC     A
   \   000084   FB           MOV     R3,A
   \   000085   12....       LCALL   ??osal_mem_alloc?relay
   \   000088   8E82         MOV     DPL,R6
   \   00008A   8F83         MOV     DPH,R7
   \   00008C   12....       LCALL   ?Subroutine40 & 0xFFFF
   2246              if ( destReq->outClusters )
   \                     ??CrossCallReturnLabel_61:
   \   00008F   8E82         MOV     DPL,R6
   \   000091   8F83         MOV     DPH,R7
   \   000093   E0           MOVX    A,@DPTR
   \   000094   FA           MOV     R2,A
   \   000095   4B           ORL     A,R3
   \   000096   6044         JZ      ??ZDO_CopyMatchInfo_3
   2247              {
   2248                // Copy the clusters
   2249                osal_memcpy( (uint8 *)(destReq->outClusters), (uint8 *)(srcReq->outClusters),
   2250                                (srcReq->numOutClusters * sizeof ( uint16 )) );
   \   000098                ; Setup parameters for call to function osal_memcpy
   \   000098   E5..         MOV     A,?V0 + 0
   \   00009A   2415         ADD     A,#0x15
   \   00009C   12....       LCALL   ?Subroutine90 & 0xFFFF
   2251              }
   \                     ??CrossCallReturnLabel_149:
   \   00009F   12....       LCALL   ?PUSH_XSTACK_I_THREE
   \   0000A2   85..82       MOV     DPL,?V0 + 10
   \   0000A5   85..83       MOV     DPH,?V0 + 11
   \   0000A8   E0           MOVX    A,@DPTR
   \   0000A9   C3           CLR     C
   \   0000AA   33           RLC     A
   \   0000AB   FC           MOV     R4,A
   \   0000AC   E4           CLR     A
   \   0000AD   33           RLC     A
   \   0000AE   FD           MOV     R5,A
   \   0000AF   12....       LCALL   ??osal_memcpy?relay
   \   0000B2   7403         MOV     A,#0x3
   \   0000B4   12....       LCALL   ?DEALLOC_XSTACK8
   2252              else
   2253              {
   2254                allOK = FALSE;
   2255              }
   2256            }
   2257          
   2258            if ( allOK == FALSE )
   \                     ??ZDO_CopyMatchInfo_2:
   \   0000B7   E5..         MOV     A,?V0 + 2
   \   0000B9   A2E0         MOV     C,0xE0 /* A   */.0
   \   0000BB   401A         JC      ??ZDO_CopyMatchInfo_4
   2259            {
   2260              if ( destReq->inClusters != NULL )
   \                     ??ZDO_CopyMatchInfo_5:
   \   0000BD   85..82       MOV     DPL,?V0 + 8
   \   0000C0   85..83       MOV     DPH,?V0 + 9
   \   0000C3   12....       LCALL   ??Subroutine182_0 & 0xFFFF
   \                     ??CrossCallReturnLabel_282:
   \   0000C6   6003         JZ      ??ZDO_CopyMatchInfo_6
   2261              {
   2262                osal_mem_free( destReq->inClusters );
   \   0000C8                ; Setup parameters for call to function osal_mem_free
   \   0000C8   12....       LCALL   ??osal_mem_free?relay
   2263              }
   2264              if ( destReq->outClusters != NULL )
   \                     ??ZDO_CopyMatchInfo_6:
   \   0000CB   8E82         MOV     DPL,R6
   \   0000CD   8F83         MOV     DPH,R7
   \   0000CF   12....       LCALL   ??Subroutine182_0 & 0xFFFF
   \                     ??CrossCallReturnLabel_283:
   \   0000D2   6003         JZ      ??ZDO_CopyMatchInfo_4
   2265              {
   2266                osal_mem_free( destReq->outClusters );
   \   0000D4                ; Setup parameters for call to function osal_mem_free
   \   0000D4   12....       LCALL   ??osal_mem_free?relay
   2267              }
   2268            }
   2269          
   2270            return ( allOK );
   \                     ??ZDO_CopyMatchInfo_4:
   \   0000D7   A9..         MOV     R1,?V0 + 2
   \   0000D9   02....       LJMP    ?Subroutine7 & 0xFFFF
   \                     ??ZDO_CopyMatchInfo_3:
   \   0000DC   75..00       MOV     ?V0 + 2,#0x0
   \   0000DF   80DC         SJMP    ??ZDO_CopyMatchInfo_5
   2271          }

   \                                 In  segment BANKED_CODE, align 1, keep-with-next
   \                     ?Subroutine115:
   \   000000   F5..         MOV     ?V0 + 10,A
   \   000002   E5..         MOV     A,?V0 + 1
   \   000004   3400         ADDC    A,#0x0
   \   000006   F5..         MOV     ?V0 + 11,A
   \   000008   85..82       MOV     DPL,?V0 + 10
   \   00000B   F583         MOV     DPH,A
   \   00000D   E0           MOVX    A,@DPTR
   \   00000E   22           RET

   \                                 In  segment BANKED_CODE, align 1, keep-with-next
   \                     ?Subroutine90:
   \   000000   F582         MOV     DPL,A
   \   000002   E5..         MOV     A,?V0 + 1
   \   000004   12....       LCALL   ??Subroutine205_0 & 0xFFFF
   \                     ??CrossCallReturnLabel_436:
   \   000007   F5..         MOV     ?V0 + 4,A
   \   000009   A3           INC     DPTR
   \   00000A   E0           MOVX    A,@DPTR
   \   00000B   F5..         MOV     ?V0 + 5,A
   \   00000D   78..         MOV     R0,#?V0 + 4
   \   00000F   22           RET

   \                                 In  segment BANKED_CODE, align 1, keep-with-next
   \                     ?Subroutine113:
   \   000000   12....       LCALL   ?Subroutine156 & 0xFFFF
   \                     ??CrossCallReturnLabel_246:
   \   000003   E4           CLR     A
   \   000004   F0           MOVX    @DPTR,A
   \   000005   A3           INC     DPTR
   \   000006   22           RET

   \                                 In  segment BANKED_CODE, align 1, keep-with-next
   \                     ?Subroutine39:
   \   000000   85..82       MOV     DPL,?V0 + 8
   \   000003   85..83       MOV     DPH,?V0 + 9
   \   000006   EA           MOV     A,R2
   \   000007   F0           MOVX    @DPTR,A
   \   000008   A3           INC     DPTR
   \   000009   EB           MOV     A,R3
   \   00000A   F0           MOVX    @DPTR,A
   \   00000B   85..82       MOV     DPL,?V0 + 8
   \   00000E   85..83       MOV     DPH,?V0 + 9
   \   000011   E0           MOVX    A,@DPTR
   \   000012   22           RET

   \                                 In  segment BANKED_CODE, align 1, keep-with-next
   \                     ??Subroutine208_0:
   \   000000   12....       LCALL   ?Subroutine152 & 0xFFFF
   \                     ??CrossCallReturnLabel_451:
   \   000003   22           RET
   2272          
   2273          /*********************************************************************
   2274           * @fn      ZDMatchSendState()
   2275           *
   2276           * @brief   State machine for the End device match message algorithm.
   2277           *
   2278           * @param  reason - state of algoritm
   2279           * @param  status - initial message status
   2280           * @param  TransSeq - next transaction sequence number
   2281           *
   2282           * @return  FALSE if error and we are not currently matching, TRUE
   2283           *          if success.
   2284           */

   \                                 In  segment BANKED_CODE, align 1, keep-with-next
   \                     ?Subroutine93:
   \   000000   F582         MOV     DPL,A
   \   000002   E8           MOV     A,R0
   \   000003                REQUIRE ??Subroutine180_0
   \   000003                ; // Fall through to label ??Subroutine180_0

   \                                 In  segment BANKED_CODE, align 1, keep-with-next
   2285          uint8 ZDMatchSendState( uint8 reason, uint8 status, uint8 TransSeq )
   \                     ZDMatchSendState:
   2286          {
   \   000000   74EE         MOV     A,#-0x12
   \   000002   12....       LCALL   ?BANKED_ENTER_XDATA
   \   000005                ; Saved register size: 18
   \   000005                ; Auto size: 19
   \   000005   74ED         MOV     A,#-0x13
   \   000007   12....       LCALL   ?ALLOC_XSTACK8
   \   00000A   89..         MOV     ?V0 + 2,R1
   \   00000C   8A..         MOV     ?V0 + 6,R2
   \   00000E   8B..         MOV     ?V0 + 7,R3
   2287            uint8 *dstIEEEAddr = NULL;
   \   000010   75..00       MOV     ?V0 + 4,#0x0
   \   000013   75..00       MOV     ?V0 + 5,#0x0
   2288            uint8 dstEP = 0xFF;
   \   000016   75..FF       MOV     ?V0 + 3,#-0x1
   2289            zAddrType_t dstAddr;
   2290            zAddrType_t destinationAddr;
   2291            uint16 msgType;
   2292            uint16 clusterID = 0xFFFF;
   \   000019   75..FF       MOV     ?V0 + 8,#-0x1
   \   00001C   75..FF       MOV     ?V0 + 9,#-0x1
   2293            ZDEndDeviceBind_t *ed = NULL;
   \   00001F   75..00       MOV     ?V0 + 0,#0x0
   \   000022   75..00       MOV     ?V0 + 1,#0x0
   2294            uint8 rspStatus = ZDP_SUCCESS;
   \   000025   85..82       MOV     DPL,?XSP + 0
   \   000028   85..83       MOV     DPH,?XSP + 1
   \   00002B   E4           CLR     A
   \   00002C   12....       LCALL   ?Subroutine52 & 0xFFFF
   2295          
   2296            if ( matchED == NULL )
   \                     ??CrossCallReturnLabel_91:
   \   00002F   F9           MOV     R1,A
   \   000030   E8           MOV     A,R0
   \   000031   49           ORL     A,R1
   \   000032   6017         JZ      ??ZDMatchSendState_0
   2297            {
   2298              return ( FALSE );
   2299            }
   2300          
   2301            // Check sequence number
   2302            if ( reason == ZDMATCH_REASON_BIND_RSP || reason == ZDMATCH_REASON_UNBIND_RSP )
   \   000034   7403         MOV     A,#0x3
   \   000036   65..         XRL     A,?V0 + 2
   \   000038   6006         JZ      ??ZDMatchSendState_1
   \   00003A   7402         MOV     A,#0x2
   \   00003C   65..         XRL     A,?V0 + 2
   \   00003E   7010         JNZ     ??ZDMatchSendState_2
   2303            {
   2304              if ( TransSeq != matchED->transSeq )
   \                     ??ZDMatchSendState_1:
   \   000040   E0           MOVX    A,@DPTR
   \   000041   C8           XCH     A,R0
   \   000042   2430         ADD     A,#0x30
   \   000044   12....       LCALL   ?Subroutine108 & 0xFFFF
   \                     ??CrossCallReturnLabel_352:
   \   000047   65..         XRL     A,?V0 + 7
   \   000049   6005         JZ      ??ZDMatchSendState_2
   2305              {
   2306                return( FALSE ); // ignore the message
   \                     ??ZDMatchSendState_0:
   \   00004B   7900         MOV     R1,#0x0
   \   00004D   02....       LJMP    ??ZDMatchSendState_3 & 0xFFFF
   2307              }
   2308            }
   2309          
   2310            // turn off timer
   2311            APS_SetEndDeviceBindTimeout( 0, ZDO_EndDeviceBindMatchTimeoutCB );
   \                     ??ZDMatchSendState_2:
   \   000050                ; Setup parameters for call to function APS_SetEndDeviceBindTimeout
   \   000050   7C..         MOV     R4,#??ZDO_EndDeviceBindMatchTimeoutCB?relay & 0xff
   \   000052   7D..         MOV     R5,#(??ZDO_EndDeviceBindMatchTimeoutCB?relay >> 8) & 0xff
   \   000054   7A00         MOV     R2,#0x0
   \   000056   7B00         MOV     R3,#0x0
   \   000058   12....       LCALL   ??APS_SetEndDeviceBindTimeout?relay
   2312          
   2313            if ( reason == ZDMATCH_REASON_TIMEOUT )
   \   00005B   7401         MOV     A,#0x1
   \   00005D   65..         XRL     A,?V0 + 2
   \   00005F   700A         JNZ     ??ZDMatchSendState_4
   2314            {
   2315              rspStatus = ZDP_TIMEOUT;    // The process will stop
   \   000061   85..82       MOV     DPL,?XSP + 0
   \   000064   85..83       MOV     DPH,?XSP + 1
   \   000067   7485         MOV     A,#-0x7b
   \   000069   8042         SJMP    ??ZDMatchSendState_5
   2316            }
   2317          
   2318            if ( reason == ZDMATCH_REASON_START || reason == ZDMATCH_REASON_BIND_RSP )
   \                     ??ZDMatchSendState_4:
   \   00006B   E5..         MOV     A,?V0 + 2
   \   00006D   6006         JZ      ??ZDMatchSendState_6
   \   00006F   7403         MOV     A,#0x3
   \   000071   65..         XRL     A,?V0 + 2
   \   000073   7019         JNZ     ??ZDMatchSendState_7
   2319            {
   2320              matchED->sending = ZDMATCH_SENDING_UNBIND;
   \                     ??ZDMatchSendState_6:
   \   000075   90....       MOV     DPTR,#matchED
   \   000078   12....       LCALL   ?Subroutine70 & 0xFFFF
   \                     ??CrossCallReturnLabel_117:
   \   00007B   F0           MOVX    @DPTR,A
   2321          
   2322              if ( reason == ZDMATCH_REASON_BIND_RSP && status != ZDP_SUCCESS )
   \   00007C   7403         MOV     A,#0x3
   \   00007E   65..         XRL     A,?V0 + 2
   \   000080   702E         JNZ     ??ZDMatchSendState_8
   \   000082   E5..         MOV     A,?V0 + 6
   \   000084   602E         JZ      ??ZDMatchSendState_9
   2323              {
   2324                rspStatus = status;
   \   000086   85..82       MOV     DPL,?XSP + 0
   \   000089   85..83       MOV     DPH,?XSP + 1
   \   00008C   801F         SJMP    ??ZDMatchSendState_5
   2325              }
   2326            }
   2327            else if ( reason == ZDMATCH_REASON_UNBIND_RSP )
   \                     ??ZDMatchSendState_7:
   \   00008E   7402         MOV     A,#0x2
   \   000090   65..         XRL     A,?V0 + 2
   \   000092   7020         JNZ     ??ZDMatchSendState_9
   2328            {
   2329              if ( status == ZDP_SUCCESS )
   \   000094   E5..         MOV     A,?V0 + 6
   \   000096   90....       MOV     DPTR,#matchED
   \   000099   7005         JNZ     ??ZDMatchSendState_10
   2330              {
   2331                matchED->sending = ZDMATCH_SENDING_UNBIND;
   \   00009B   12....       LCALL   ?Subroutine70 & 0xFFFF
   2332              }
   \                     ??CrossCallReturnLabel_118:
   \   00009E   800D         SJMP    ??ZDMatchSendState_5
   2333              else
   2334              {
   2335                matchED->sending = ZDMATCH_SENDING_BIND;
   \                     ??ZDMatchSendState_10:
   \   0000A0   12....       LCALL   ??Subroutine211_0 & 0xFFFF
   2336              }
   2337            }
   \                     ??CrossCallReturnLabel_454:
   \   0000A3   242F         ADD     A,#0x2f
   \   0000A5   F582         MOV     DPL,A
   \   0000A7   E8           MOV     A,R0
   \   0000A8   12....       LCALL   ??Subroutine217_0 & 0xFFFF
   \                     ??CrossCallReturnLabel_501:
   \   0000AB   7402         MOV     A,#0x2
   \                     ??ZDMatchSendState_5:
   \   0000AD   F0           MOVX    @DPTR,A
   \   0000AE   8004         SJMP    ??ZDMatchSendState_9
   2338          
   2339            if ( reason != ZDMATCH_REASON_START && matchED->sending == ZDMATCH_SENDING_UNBIND )
   \                     ??ZDMatchSendState_8:
   \   0000B0   E5..         MOV     A,?V0 + 2
   \   0000B2   601D         JZ      ??ZDMatchSendState_11
   \                     ??ZDMatchSendState_9:
   \   0000B4   12....       LCALL   ?Subroutine69 & 0xFFFF
   \                     ??CrossCallReturnLabel_115:
   \   0000B7   7018         JNZ     ??ZDMatchSendState_11
   2340            {
   2341              // Move to the next cluster ID
   2342              if ( matchED->ed1numMatched )
   \   0000B9   90....       MOV     DPTR,#matchED
   \   0000BC   E0           MOVX    A,@DPTR
   \   0000BD   2431         ADD     A,#0x31
   \   0000BF   12....       LCALL   ?Subroutine95 & 0xFFFF
   \                     ??CrossCallReturnLabel_160:
   \   0000C2   700B         JNZ     ??ZDMatchSendState_12
   2343              {
   2344                matchED->ed1numMatched--;
   2345              }
   2346              else if ( matchED->ed2numMatched )
   \   0000C4   90....       MOV     DPTR,#matchED
   \   0000C7   E0           MOVX    A,@DPTR
   \   0000C8   2434         ADD     A,#0x34
   \   0000CA   12....       LCALL   ?Subroutine95 & 0xFFFF
   \                     ??CrossCallReturnLabel_161:
   \   0000CD   6002         JZ      ??ZDMatchSendState_11
   2347              {
   2348                matchED->ed2numMatched--;
   \                     ??ZDMatchSendState_12:
   \   0000CF   14           DEC     A
   \   0000D0   F0           MOVX    @DPTR,A
   2349              }
   2350            }
   2351          
   2352            // What message do we send now
   2353            if ( matchED->ed1numMatched )
   \                     ??ZDMatchSendState_11:
   \   0000D1   12....       LCALL   ?Subroutine57 & 0xFFFF
   \                     ??CrossCallReturnLabel_98:
   \   0000D4   F8           MOV     R0,A
   \   0000D5   90....       MOV     DPTR,#matchED
   \   0000D8   601E         JZ      ??ZDMatchSendState_13
   2354            {
   2355              ed = &(matchED->ed1);
   \   0000DA   12....       LCALL   ?Subroutine91 & 0xFFFF
   \                     ??CrossCallReturnLabel_152:
   \   0000DD   F5..         MOV     ?V0 + 1,A
   2356              clusterID = matchED->ed1Matched[matchED->ed1numMatched-1];
   \   0000DF   12....       LCALL   ?Subroutine168 & 0xFFFF
   \                     ??CrossCallReturnLabel_566:
   \   0000E2   CA           XCH     A,R2
   \   0000E3   2432         ADD     A,#0x32
   \   0000E5   12....       LCALL   ?Subroutine56 & 0xFFFF
   2357              dstIEEEAddr = matchED->ed2.ieeeAddr;
   \                     ??CrossCallReturnLabel_94:
   \   0000E8   241D         ADD     A,#0x1d
   \   0000EA   F5..         MOV     ?V0 + 4,A
   \   0000EC   A3           INC     DPTR
   \   0000ED   E0           MOVX    A,@DPTR
   \   0000EE   12....       LCALL   ??Subroutine228_0 & 0xFFFF
   2358              dstEP = matchED->ed2.endpoint;
   \                     ??CrossCallReturnLabel_585:
   \   0000F1   12....       LCALL   ??Subroutine210_0 & 0xFFFF
   2359            }
   \                     ??CrossCallReturnLabel_470:
   \   0000F4   2425         ADD     A,#0x25
   \   0000F6   802A         SJMP    ??ZDMatchSendState_14
   2360            else if ( matchED->ed2numMatched )
   \                     ??ZDMatchSendState_13:
   \   0000F8   12....       LCALL   ??Subroutine196_0 & 0xFFFF
   \                     ??CrossCallReturnLabel_392:
   \   0000FB   F8           MOV     R0,A
   \   0000FC   6029         JZ      ??ZDMatchSendState_15
   2361            {
   2362              ed = &(matchED->ed2);
   \   0000FE   90....       MOV     DPTR,#matchED
   \   000101   E0           MOVX    A,@DPTR
   \   000102   2417         ADD     A,#0x17
   \   000104   F5..         MOV     ?V0 + 0,A
   \   000106   A3           INC     DPTR
   \   000107   E0           MOVX    A,@DPTR
   \   000108   12....       LCALL   ??Subroutine222_0 & 0xFFFF
   2363              clusterID = matchED->ed2Matched[matchED->ed2numMatched-1];
   \                     ??CrossCallReturnLabel_556:
   \   00010B   12....       LCALL   ?Subroutine168 & 0xFFFF
   \                     ??CrossCallReturnLabel_567:
   \   00010E   CA           XCH     A,R2
   \   00010F   2435         ADD     A,#0x35
   \   000111   12....       LCALL   ?Subroutine56 & 0xFFFF
   2364              dstIEEEAddr = matchED->ed1.ieeeAddr;
   \                     ??CrossCallReturnLabel_95:
   \   000114   2406         ADD     A,#0x6
   \   000116   F5..         MOV     ?V0 + 4,A
   \   000118   A3           INC     DPTR
   \   000119   E0           MOVX    A,@DPTR
   \   00011A   12....       LCALL   ??Subroutine228_0 & 0xFFFF
   2365              dstEP = matchED->ed1.endpoint;
   \                     ??CrossCallReturnLabel_586:
   \   00011D   12....       LCALL   ??Subroutine210_0 & 0xFFFF
   2366            }
   \                     ??CrossCallReturnLabel_471:
   \   000120   240E         ADD     A,#0xe
   \                     ??ZDMatchSendState_14:
   \   000122   12....       LCALL   ?Subroutine108 & 0xFFFF
   \                     ??CrossCallReturnLabel_353:
   \   000125   F5..         MOV     ?V0 + 3,A
   2367          
   2368            dstAddr.addrMode = Addr16Bit;
   \                     ??ZDMatchSendState_15:
   \   000127   7409         MOV     A,#0x9
   \   000129   12....       LCALL   ?XSTACK_DISP0_8
   \   00012C   7402         MOV     A,#0x2
   \   00012E   12....       LCALL   ?Subroutine32 & 0xFFFF
   2369          
   2370            // Send the next message
   2371            if ( (rspStatus == ZDP_SUCCESS) && ed )
   \                     ??CrossCallReturnLabel_34:
   \   000131   6003         JZ      $+5
   \   000133   02....       LJMP    ??ZDMatchSendState_16 & 0xFFFF
   \   000136   E5..         MOV     A,?V0 + 0
   \   000138   45..         ORL     A,?V0 + 1
   \   00013A   7003         JNZ     $+5
   \   00013C   02....       LJMP    ??ZDMatchSendState_16 & 0xFFFF
   2372            {
   2373              // Send unbind/bind message to source
   2374              if ( matchED->sending == ZDMATCH_SENDING_UNBIND )
   \   00013F   12....       LCALL   ?Subroutine69 & 0xFFFF
   \                     ??CrossCallReturnLabel_116:
   \   000142   7004         JNZ     ??ZDMatchSendState_17
   2375              {
   2376                msgType = Unbind_req;
   \   000144   7E22         MOV     R6,#0x22
   \   000146   8002         SJMP    ??ZDMatchSendState_18
   2377              }
   2378              else
   2379              {
   2380                msgType = Bind_req;
   \                     ??ZDMatchSendState_17:
   \   000148   7E21         MOV     R6,#0x21
   2381              }
   2382          
   2383              dstAddr.addr.shortAddr = ed->srcAddr;
   \                     ??ZDMatchSendState_18:
   \   00014A   85..82       MOV     DPL,?V0 + 0
   \   00014D   85..83       MOV     DPH,?V0 + 1
   \   000150   12....       LCALL   ??Subroutine203_0 & 0xFFFF
   \                     ??CrossCallReturnLabel_426:
   \   000153   12....       LCALL   ?XSTACK_DISP0_8
   \   000156   12....       LCALL   ??Subroutine183_0 & 0xFFFF
   2384          
   2385              // Save off the transaction sequence number
   2386              matchED->transSeq = ZDP_TransID;
   \                     ??CrossCallReturnLabel_305:
   \   000159   90....       MOV     DPTR,#ZDP_TransID
   \   00015C   E0           MOVX    A,@DPTR
   \   00015D   C0E0         PUSH    A
   \   00015F   12....       LCALL   ??Subroutine210_0 & 0xFFFF
   \                     ??CrossCallReturnLabel_472:
   \   000162   2430         ADD     A,#0x30
   \   000164   F582         MOV     DPL,A
   \   000166   E8           MOV     A,R0
   \   000167   12....       LCALL   ??Subroutine217_0 & 0xFFFF
   \                     ??CrossCallReturnLabel_502:
   \   00016A   D0E0         POP     A
   \   00016C   F0           MOVX    @DPTR,A
   2387          
   2388              destinationAddr.addrMode = Addr64Bit;
   \   00016D   7412         MOV     A,#0x12
   \   00016F   12....       LCALL   ?XSTACK_DISP0_8
   \   000172   7403         MOV     A,#0x3
   \   000174   F0           MOVX    @DPTR,A
   2389              osal_cpyExtAddr( destinationAddr.addr.extAddr, dstIEEEAddr );
   \   000175                ; Setup parameters for call to function sAddrExtCpy
   \   000175   AC..         MOV     R4,?V0 + 4
   \   000177   AD..         MOV     R5,?V0 + 5
   \   000179   740A         MOV     A,#0xa
   \   00017B   12....       LCALL   ?XSTACK_DISP0_8
   \   00017E   AA82         MOV     R2,DPL
   \   000180   AB83         MOV     R3,DPH
   \   000182   12....       LCALL   ??sAddrExtCpy?relay
   2390          
   2391              ZDP_BindUnbindReq( msgType, &dstAddr, ed->ieeeAddr, ed->endpoint, clusterID,
   2392                  &destinationAddr, dstEP, ed->SecurityUse );
   \   000185                ; Setup parameters for call to function ZDP_BindUnbindReq
   \   000185   85..82       MOV     DPL,?V0 + 0
   \   000188   85..83       MOV     DPH,?V0 + 1
   \   00018B   A3           INC     DPTR
   \   00018C   E0           MOVX    A,@DPTR
   \   00018D   F5..         MOV     ?V0 + 4,A
   \   00018F   78..         MOV     R0,#?V0 + 4
   \   000191   12....       LCALL   ?PUSH_XSTACK_I_ONE
   \   000194   78..         MOV     R0,#?V0 + 3
   \   000196   12....       LCALL   ?PUSH_XSTACK_I_ONE
   \   000199   740C         MOV     A,#0xc
   \   00019B   12....       LCALL   ?XSTACK_DISP0_8
   \   00019E   8582..       MOV     ?V0 + 4,DPL
   \   0001A1   8583..       MOV     ?V0 + 5,DPH
   \   0001A4   78..         MOV     R0,#?V0 + 4
   \   0001A6   12....       LCALL   ?PUSH_XSTACK_I_TWO
   \   0001A9   78..         MOV     R0,#?V0 + 8
   \   0001AB   12....       LCALL   ?PUSH_XSTACK_I_TWO
   \   0001AE   E5..         MOV     A,?V0 + 0
   \   0001B0   2406         ADD     A,#0x6
   \   0001B2   12....       LCALL   ?Subroutine120 & 0xFFFF
   \                     ??CrossCallReturnLabel_590:
   \   0001B5   78..         MOV     R0,#?V0 + 4
   \   0001B7   12....       LCALL   ?PUSH_XSTACK_I_TWO
   \   0001BA   E5..         MOV     A,?V0 + 0
   \   0001BC   12....       LCALL   ??Subroutine201_0 & 0xFFFF
   \                     ??CrossCallReturnLabel_418:
   \   0001BF   E5..         MOV     A,?V0 + 1
   \   0001C1   12....       LCALL   ??Subroutine193_0 & 0xFFFF
   \                     ??CrossCallReturnLabel_365:
   \   0001C4   7409         MOV     A,#0x9
   \   0001C6   12....       LCALL   ?XSTACK_DISP0_8
   \   0001C9   AC82         MOV     R4,DPL
   \   0001CB   AD83         MOV     R5,DPH
   \   0001CD   EE           MOV     A,R6
   \   0001CE   FA           MOV     R2,A
   \   0001CF   7B00         MOV     R3,#0x0
   \   0001D1   12....       LCALL   ??ZDP_BindUnbindReq?relay
   \   0001D4   7408         MOV     A,#0x8
   \   0001D6   12....       LCALL   ?DEALLOC_XSTACK8
   2393          
   2394              // Set timeout for response
   2395              APS_SetEndDeviceBindTimeout( AIB_MaxBindingTime, ZDO_EndDeviceBindMatchTimeoutCB );
   \   0001D9                ; Setup parameters for call to function APS_SetEndDeviceBindTimeout
   \   0001D9   7C..         MOV     R4,#??ZDO_EndDeviceBindMatchTimeoutCB?relay & 0xff
   \   0001DB   7D..         MOV     R5,#(??ZDO_EndDeviceBindMatchTimeoutCB?relay >> 8) & 0xff
   \   0001DD   90....       MOV     DPTR,#AIB_MaxBindingTime
   \   0001E0   12....       LCALL   ??Subroutine195_0 & 0xFFFF
   2396            }
   \                     ??CrossCallReturnLabel_385:
   \   0001E3   12....       LCALL   ??APS_SetEndDeviceBindTimeout?relay
   \   0001E6   02....       LJMP    ??ZDMatchSendState_19 & 0xFFFF
   2397            else
   2398            {
   2399              // Send the response messages to requesting devices
   2400              // send response to first requester
   2401              dstAddr.addr.shortAddr = matchED->ed1.srcAddr;
   \                     ??ZDMatchSendState_16:
   \   0001E9   12....       LCALL   ?Subroutine167 & 0xFFFF
   \                     ??CrossCallReturnLabel_482:
   \   0001EC   12....       LCALL   ?Subroutine65 & 0xFFFF
   \                     ??CrossCallReturnLabel_428:
   \   0001EF   12....       LCALL   ?XSTACK_DISP0_8
   \   0001F2   12....       LCALL   ?Subroutine18 & 0xFFFF
   2402              ZDP_EndDeviceBindRsp( matchED->ed1.TransSeq, &dstAddr, rspStatus, matchED->ed1.SecurityUse );
   \                     ??CrossCallReturnLabel_9:
   \   0001F5   12....       LCALL   ?PUSH_XSTACK_I_ONE
   \   0001F8   7401         MOV     A,#0x1
   \   0001FA   12....       LCALL   ?XSTACK_DISP0_8
   \   0001FD   8582..       MOV     ?V0 + 0,DPL
   \   000200   8583..       MOV     ?V0 + 1,DPH
   \   000203   78..         MOV     R0,#?V0 + 0
   \   000205   12....       LCALL   ?PUSH_XSTACK_I_TWO
   \   000208   75..20       MOV     ?V0 + 0,#0x20
   \   00020B   75..80       MOV     ?V0 + 1,#-0x80
   \   00020E   78..         MOV     R0,#?V0 + 0
   \   000210   12....       LCALL   ?PUSH_XSTACK_I_TWO
   \   000213   7901         MOV     R1,#0x1
   \   000215   7406         MOV     A,#0x6
   \   000217   12....       LCALL   ?XSTACK_DISP0_8
   \   00021A   AC82         MOV     R4,DPL
   \   00021C   AD83         MOV     R5,DPH
   \   00021E   90....       MOV     DPTR,#matchED
   \   000221   12....       LCALL   ??Subroutine195_0 & 0xFFFF
   \                     ??CrossCallReturnLabel_386:
   \   000224   12....       LCALL   ??ZDP_SendData?relay
   \   000227   7405         MOV     A,#0x5
   \   000229   12....       LCALL   ?DEALLOC_XSTACK8
   2403          
   2404              // send response to second requester
   2405              if ( matchED->state == ZDMATCH_SENDING_BINDS )
   \   00022C   12....       LCALL   ?Subroutine68 & 0xFFFF
   \                     ??CrossCallReturnLabel_114:
   \   00022F   7050         JNZ     ??ZDMatchSendState_20
   2406              {
   2407                dstAddr.addr.shortAddr = matchED->ed2.srcAddr;
   \   000231   12....       LCALL   ??Subroutine210_0 & 0xFFFF
   2408                ZDP_EndDeviceBindRsp( matchED->ed2.TransSeq, &dstAddr, rspStatus, matchED->ed2.SecurityUse );
   2409              }
   \                     ??CrossCallReturnLabel_473:
   \   000234   2419         ADD     A,#0x19
   \   000236   F582         MOV     DPL,A
   \   000238   E8           MOV     A,R0
   \   000239   12....       LCALL   ??Subroutine217_0 & 0xFFFF
   \                     ??CrossCallReturnLabel_503:
   \   00023C   12....       LCALL   ??Subroutine204_0 & 0xFFFF
   \                     ??CrossCallReturnLabel_425:
   \   00023F   12....       LCALL   ?XSTACK_DISP0_8
   \   000242   E8           MOV     A,R0
   \   000243   F0           MOVX    @DPTR,A
   \   000244   A3           INC     DPTR
   \   000245   12....       LCALL   ??Subroutine198_0 & 0xFFFF
   \                     ??CrossCallReturnLabel_412:
   \   000248   2418         ADD     A,#0x18
   \   00024A   12....       LCALL   ?Subroutine93 & 0xFFFF
   \                     ??CrossCallReturnLabel_281:
   \   00024D   12....       LCALL   ?PUSH_XSTACK_I_ONE
   \   000250   7401         MOV     A,#0x1
   \   000252   12....       LCALL   ?XSTACK_DISP0_8
   \   000255   8582..       MOV     ?V0 + 0,DPL
   \   000258   8583..       MOV     ?V0 + 1,DPH
   \   00025B   78..         MOV     R0,#?V0 + 0
   \   00025D   12....       LCALL   ?PUSH_XSTACK_I_TWO
   \   000260   75..20       MOV     ?V0 + 0,#0x20
   \   000263   75..80       MOV     ?V0 + 1,#-0x80
   \   000266   78..         MOV     R0,#?V0 + 0
   \   000268   12....       LCALL   ?PUSH_XSTACK_I_TWO
   \   00026B   7901         MOV     R1,#0x1
   \   00026D   7406         MOV     A,#0x6
   \   00026F   12....       LCALL   ?XSTACK_DISP0_8
   \   000272   AC82         MOV     R4,DPL
   \   000274   AD83         MOV     R5,DPH
   \   000276   12....       LCALL   ?Subroutine96 & 0xFFFF
   \                     ??CrossCallReturnLabel_163:
   \   000279   12....       LCALL   ??ZDP_SendData?relay
   \   00027C   7405         MOV     A,#0x5
   \   00027E   12....       LCALL   ?DEALLOC_XSTACK8
   2410          
   2411              // Process ended - release memory used
   2412              ZDO_RemoveMatchMemory();
   \                     ??ZDMatchSendState_20:
   \   000281                ; Setup parameters for call to function ZDO_RemoveMatchMemory
   \   000281   12....       LCALL   ??ZDO_RemoveMatchMemory?relay
   2413            }
   2414          
   2415            return ( TRUE );
   \                     ??ZDMatchSendState_19:
   \   000284   7901         MOV     R1,#0x1
   \                     ??ZDMatchSendState_3:
   \   000286   7413         MOV     A,#0x13
   \   000288   12....       LCALL   ?DEALLOC_XSTACK8
   \   00028B                REQUIRE ?Subroutine9
   \   00028B                ; // Fall through to label ?Subroutine9
   2416          }

   \                                 In  segment BANKED_CODE, align 1, keep-with-next
   \                     ?Subroutine9:
   \   000000   7F0A         MOV     R7,#0xa
   \   000002   02....       LJMP    ?BANKED_LEAVE_XDATA

   \                                 In  segment BANKED_CODE, align 1, keep-with-next
   \                     ?Subroutine95:
   \   000000   12....       LCALL   ?Subroutine150 & 0xFFFF
   \                     ??CrossCallReturnLabel_242:
   \   000003   E0           MOVX    A,@DPTR
   \   000004   22           RET

   \                                 In  segment BANKED_CODE, align 1, keep-with-next
   \                     ?Subroutine70:
   \   000000   12....       LCALL   ?Subroutine138 & 0xFFFF
   \                     ??CrossCallReturnLabel_224:
   \   000003   7401         MOV     A,#0x1
   \   000005   22           RET

   \                                 In  segment BANKED_CODE, align 1, keep-with-next
   \                     ?Subroutine69:
   \   000000   90....       MOV     DPTR,#matchED
   \   000003   12....       LCALL   ?Subroutine138 & 0xFFFF
   \                     ??CrossCallReturnLabel_223:
   \   000006   E0           MOVX    A,@DPTR
   \   000007   6401         XRL     A,#0x1
   \   000009   22           RET

   \                                 In  segment BANKED_CODE, align 1, keep-with-next
   \                     ?Subroutine138:
   \   000000   12....       LCALL   ??Subroutine200_0 & 0xFFFF
   \                     ??CrossCallReturnLabel_481:
   \   000003   C8           XCH     A,R0
   \   000004   242F         ADD     A,#0x2f
   \   000006   F582         MOV     DPL,A
   \   000008   E8           MOV     A,R0
   \   000009   12....       LCALL   ??Subroutine213_0 & 0xFFFF
   \                     ??CrossCallReturnLabel_601:
   \   00000C   22           RET

   \                                 In  segment BANKED_CODE, align 1, keep-with-next
   \                     ?Subroutine56:
   \   000000   F582         MOV     DPL,A
   \   000002   EA           MOV     A,R2
   \   000003   12....       LCALL   ??Subroutine205_0 & 0xFFFF
   \                     ??CrossCallReturnLabel_434:
   \   000006   28           ADD     A,R0
   \   000007   F8           MOV     R0,A
   \   000008   A3           INC     DPTR
   \   000009   E0           MOVX    A,@DPTR
   \   00000A   39           ADDC    A,R1
   \   00000B   F9           MOV     R1,A
   \   00000C   E8           MOV     A,R0
   \   00000D   24FE         ADD     A,#-0x2
   \   00000F   F582         MOV     DPL,A
   \   000011   E9           MOV     A,R1
   \   000012   34FF         ADDC    A,#-0x1
   \   000014   F583         MOV     DPH,A
   \   000016   E0           MOVX    A,@DPTR
   \   000017   F5..         MOV     ?V0 + 8,A
   \   000019   A3           INC     DPTR
   \   00001A   E0           MOVX    A,@DPTR
   \   00001B   F5..         MOV     ?V0 + 9,A
   \   00001D   90....       MOV     DPTR,#matchED
   \   000020   E0           MOVX    A,@DPTR
   \   000021   22           RET

   \                                 In  segment BANKED_CODE, align 1, keep-with-next
   \                     ?Subroutine168:
   \   000000   E8           MOV     A,R0
   \   000001   C3           CLR     C
   \   000002   33           RLC     A
   \   000003   F8           MOV     R0,A
   \   000004   E4           CLR     A
   \   000005   33           RLC     A
   \   000006   F9           MOV     R1,A
   \   000007   90....       MOV     DPTR,#matchED
   \   00000A                REQUIRE ??Subroutine223_0
   \   00000A                ; // Fall through to label ??Subroutine223_0
   2417          
   2418          /*********************************************************************
   2419           * @fn      ZDO_EndDeviceBindMatchTimeoutCB()
   2420           *
   2421           * @brief   End device bind timeout.
   2422           *
   2423           * @param  none
   2424           *
   2425           * @return  none
   2426           */

   \                                 In  segment BANKED_CODE, align 1, keep-with-next
   2427          static void ZDO_EndDeviceBindMatchTimeoutCB( void )
   \                     ZDO_EndDeviceBindMatchTimeoutCB:
   2428          {
   \   000000   C082         PUSH    DPL
   \   000002   C083         PUSH    DPH
   \   000004                ; Saved register size: 2
   \   000004                ; Auto size: 0
   2429            ZDMatchSendState( ZDMATCH_REASON_TIMEOUT, ZDP_TIMEOUT, 0 );
   \   000004                ; Setup parameters for call to function ZDMatchSendState
   \   000004   7B00         MOV     R3,#0x0
   \   000006   7A85         MOV     R2,#-0x7b
   \   000008   7901         MOV     R1,#0x1
   \   00000A   12....       LCALL   ??ZDMatchSendState?relay
   2430          }
   \   00000D   02....       LJMP    ?Subroutine0 & 0xFFFF
   2431          
   2432          /*********************************************************************
   2433           * ZDO MESSAGE PARSING API FUNCTIONS
   2434           */
   2435          
   2436          /*********************************************************************
   2437           * @fn          ZDO_ParseEndDeviceBindReq
   2438           *
   2439           * @brief       This function parses the End_Device_Bind_req message.
   2440           *
   2441           *     NOTE:  The clusters lists in bindReq are allocated in this
   2442           *            function and must be freed by that calling function.
   2443           *
   2444           * @param       inMsg  - incoming message (request)
   2445           * @param       bindReq - pointer to place to parse message to
   2446           *
   2447           * @return      none
   2448           */

   \                                 In  segment BANKED_CODE, align 1, keep-with-next
   2449          void ZDO_ParseEndDeviceBindReq( zdoIncomingMsg_t *inMsg, ZDEndDeviceBind_t *bindReq )
   \                     ZDO_ParseEndDeviceBindReq:
   2450          {
   \   000000   74EE         MOV     A,#-0x12
   \   000002   12....       LCALL   ?BANKED_ENTER_XDATA
   \   000005                ; Saved register size: 18
   \   000005                ; Auto size: 0
   \   000005   EC           MOV     A,R4
   \   000006   FE           MOV     R6,A
   \   000007   ED           MOV     A,R5
   \   000008   FF           MOV     R7,A
   2451            uint8 *msg;
   2452          
   2453            // Parse the message
   2454            bindReq->TransSeq = inMsg->TransSeq;
   \   000009   EA           MOV     A,R2
   \   00000A   240F         ADD     A,#0xf
   \   00000C   12....       LCALL   ?Subroutine97 & 0xFFFF
   \                     ??CrossCallReturnLabel_579:
   \   00000F   12....       LCALL   ?Subroutine42 & 0xFFFF
   2455            bindReq->srcAddr = inMsg->srcAddr.addr.shortAddr;
   \                     ??CrossCallReturnLabel_67:
   \   000012   12....       LCALL   ??Subroutine186_0 & 0xFFFF
   \                     ??CrossCallReturnLabel_320:
   \   000015   8E82         MOV     DPL,R6
   \   000017   8F83         MOV     DPH,R7
   \   000019   A3           INC     DPTR
   \   00001A   A3           INC     DPTR
   \   00001B   12....       LCALL   ??Subroutine183_0 & 0xFFFF
   2456            bindReq->SecurityUse = inMsg->SecurityUse;
   \                     ??CrossCallReturnLabel_306:
   \   00001E   EA           MOV     A,R2
   \   00001F   240E         ADD     A,#0xe
   \   000021   12....       LCALL   ?Subroutine97 & 0xFFFF
   \                     ??CrossCallReturnLabel_580:
   \   000024   12....       LCALL   ?Subroutine15 & 0xFFFF
   2457            msg = inMsg->asdu;
   2458          
   2459            bindReq->localCoordinator = BUILD_UINT16( msg[0], msg[1] );
   \                     ??CrossCallReturnLabel_3:
   \   000027   8E82         MOV     DPL,R6
   \   000029   8F83         MOV     DPH,R7
   \   00002B   12....       LCALL   ?Subroutine12 & 0xFFFF
   2460            msg += 2;
   2461          
   2462            osal_cpyExtAddr( bindReq->ieeeAddr, msg );
   \                     ??CrossCallReturnLabel_581:
   \   00002E                ; Setup parameters for call to function sAddrExtCpy
   \   00002E   AC..         MOV     R4,?V0 + 2
   \   000030   FD           MOV     R5,A
   \   000031   EE           MOV     A,R6
   \   000032   2406         ADD     A,#0x6
   \   000034   FA           MOV     R2,A
   \   000035   EF           MOV     A,R7
   \   000036   3400         ADDC    A,#0x0
   \   000038   FB           MOV     R3,A
   \   000039   12....       LCALL   ??sAddrExtCpy?relay
   2463            msg += Z_EXTADDR_LEN;
   \   00003C   12....       LCALL   ?Subroutine109 & 0xFFFF
   2464          
   2465            bindReq->endpoint = *msg++;
   \                     ??CrossCallReturnLabel_441:
   \   00003F   C0E0         PUSH    A
   \   000041   12....       LCALL   ?Subroutine121 & 0xFFFF
   \                     ??CrossCallReturnLabel_192:
   \   000044   12....       LCALL   ??Subroutine217_0 & 0xFFFF
   \                     ??CrossCallReturnLabel_504:
   \   000047   D0E0         POP     A
   \   000049   12....       LCALL   ?Subroutine21 & 0xFFFF
   2466            bindReq->profileID = BUILD_UINT16( msg[0], msg[1] );
   \                     ??CrossCallReturnLabel_15:
   \   00004C   F8           MOV     R0,A
   \   00004D   EE           MOV     A,R6
   \   00004E   12....       LCALL   ?Subroutine123 & 0xFFFF
   \                     ??CrossCallReturnLabel_200:
   \   000051   EF           MOV     A,R7
   \   000052   12....       LCALL   ??Subroutine217_0 & 0xFFFF
   \                     ??CrossCallReturnLabel_505:
   \   000055   E8           MOV     A,R0
   \   000056   12....       LCALL   ??Subroutine227_0 & 0xFFFF
   2467            msg += 2;
   2468          
   2469            bindReq->inClusters = NULL;
   \                     ??CrossCallReturnLabel_583:
   \   000059   EE           MOV     A,R6
   \   00005A   2412         ADD     A,#0x12
   \   00005C   F5..         MOV     ?V0 + 4,A
   \   00005E   EF           MOV     A,R7
   \   00005F   12....       LCALL   ??Subroutine228_0 & 0xFFFF
   \                     ??CrossCallReturnLabel_587:
   \   000062   85..82       MOV     DPL,?V0 + 4
   \   000065   F583         MOV     DPH,A
   \   000067   E4           CLR     A
   \   000068   F0           MOVX    @DPTR,A
   \   000069   A3           INC     DPTR
   \   00006A   F0           MOVX    @DPTR,A
   2470            bindReq->outClusters = NULL;
   \   00006B   EE           MOV     A,R6
   \   00006C   2415         ADD     A,#0x15
   \   00006E   12....       LCALL   ?Subroutine113 & 0xFFFF
   \                     ??CrossCallReturnLabel_182:
   \   000071   12....       LCALL   ?Subroutine53 & 0xFFFF
   2471          
   2472            if ((bindReq->numInClusters = *msg++) &&
   2473                (bindReq->inClusters = (uint16*)osal_mem_alloc( (bindReq->numInClusters * sizeof( uint16 )))))
   \                     ??CrossCallReturnLabel_92:
   \   000074   F8           MOV     R0,A
   \   000075   A3           INC     DPTR
   \   000076   8582..       MOV     ?V0 + 2,DPL
   \   000079   8583..       MOV     ?V0 + 3,DPH
   \   00007C   EE           MOV     A,R6
   \   00007D   2411         ADD     A,#0x11
   \   00007F   F5..         MOV     ?V0 + 0,A
   \   000081   EF           MOV     A,R7
   \   000082   12....       LCALL   ??Subroutine222_0 & 0xFFFF
   \                     ??CrossCallReturnLabel_557:
   \   000085   85..82       MOV     DPL,?V0 + 0
   \   000088   F583         MOV     DPH,A
   \   00008A   E8           MOV     A,R0
   \   00008B   F0           MOVX    @DPTR,A
   \   00008C   6034         JZ      ??ZDO_ParseEndDeviceBindReq_0
   \   00008E                ; Setup parameters for call to function osal_mem_alloc
   \   00008E   C3           CLR     C
   \   00008F   33           RLC     A
   \   000090   FA           MOV     R2,A
   \   000091   E4           CLR     A
   \   000092   33           RLC     A
   \   000093   FB           MOV     R3,A
   \   000094   12....       LCALL   ??osal_mem_alloc?relay
   \   000097   85..82       MOV     DPL,?V0 + 4
   \   00009A   85..83       MOV     DPH,?V0 + 5
   \   00009D   12....       LCALL   ?Subroutine40 & 0xFFFF
   \                     ??CrossCallReturnLabel_62:
   \   0000A0   85..82       MOV     DPL,?V0 + 4
   \   0000A3   85..83       MOV     DPH,?V0 + 5
   \   0000A6   12....       LCALL   ?Subroutine146 & 0xFFFF
   \                     ??CrossCallReturnLabel_239:
   \   0000A9   EC           MOV     A,R4
   \   0000AA   4D           ORL     A,R5
   \   0000AB   6015         JZ      ??ZDO_ParseEndDeviceBindReq_0
   2474            {
   2475              msg = ZDO_ConvertOTAClusters( bindReq->numInClusters, msg, bindReq->inClusters );
   \   0000AD                ; Setup parameters for call to function ZDO_ConvertOTAClusters
   \   0000AD   AA..         MOV     R2,?V0 + 2
   \   0000AF   AB..         MOV     R3,?V0 + 3
   \   0000B1   85..82       MOV     DPL,?V0 + 0
   \   0000B4   85..83       MOV     DPH,?V0 + 1
   \   0000B7   E0           MOVX    A,@DPTR
   \   0000B8   F9           MOV     R1,A
   \   0000B9   12....       LCALL   ??ZDO_ConvertOTAClusters?relay
   \   0000BC   8A..         MOV     ?V0 + 2,R2
   \   0000BE   8B..         MOV     ?V0 + 3,R3
   \   0000C0   8008         SJMP    ??ZDO_ParseEndDeviceBindReq_1
   2476            }
   2477            else
   2478            {
   2479              bindReq->numInClusters = 0;
   \                     ??ZDO_ParseEndDeviceBindReq_0:
   \   0000C2   85..82       MOV     DPL,?V0 + 0
   \   0000C5   85..83       MOV     DPH,?V0 + 1
   \   0000C8   E4           CLR     A
   \   0000C9   F0           MOVX    @DPTR,A
   2480            }
   2481          
   2482            if ((bindReq->numOutClusters = *msg++) &&
   2483                (bindReq->outClusters = (uint16*)osal_mem_alloc((bindReq->numOutClusters * sizeof(uint16)))))
   \                     ??ZDO_ParseEndDeviceBindReq_1:
   \   0000CA   12....       LCALL   ?Subroutine73 & 0xFFFF
   \                     ??CrossCallReturnLabel_123:
   \   0000CD   EE           MOV     A,R6
   \   0000CE   2414         ADD     A,#0x14
   \   0000D0   12....       LCALL   ??Subroutine208_0 & 0xFFFF
   \                     ??CrossCallReturnLabel_449:
   \   0000D3   E8           MOV     A,R0
   \   0000D4   F0           MOVX    @DPTR,A
   \   0000D5   6023         JZ      ??ZDO_ParseEndDeviceBindReq_2
   \   0000D7                ; Setup parameters for call to function osal_mem_alloc
   \   0000D7   C3           CLR     C
   \   0000D8   33           RLC     A
   \   0000D9   FA           MOV     R2,A
   \   0000DA   E4           CLR     A
   \   0000DB   33           RLC     A
   \   0000DC   FB           MOV     R3,A
   \   0000DD   12....       LCALL   ??osal_mem_alloc?relay
   \   0000E0   12....       LCALL   ?Subroutine39 & 0xFFFF
   \                     ??CrossCallReturnLabel_53:
   \   0000E3   FC           MOV     R4,A
   \   0000E4   A3           INC     DPTR
   \   0000E5   E0           MOVX    A,@DPTR
   \   0000E6   FD           MOV     R5,A
   \   0000E7   EC           MOV     A,R4
   \   0000E8   4D           ORL     A,R5
   \   0000E9   600F         JZ      ??ZDO_ParseEndDeviceBindReq_2
   2484            {
   2485              msg = ZDO_ConvertOTAClusters( bindReq->numOutClusters, msg, bindReq->outClusters );
   \   0000EB                ; Setup parameters for call to function ZDO_ConvertOTAClusters
   \   0000EB   AA..         MOV     R2,?V0 + 2
   \   0000ED   AB..         MOV     R3,?V0 + 3
   \   0000EF   8E82         MOV     DPL,R6
   \   0000F1   8F83         MOV     DPH,R7
   \   0000F3   E0           MOVX    A,@DPTR
   \   0000F4   F9           MOV     R1,A
   \   0000F5   12....       LCALL   ??ZDO_ConvertOTAClusters?relay
   \   0000F8   8006         SJMP    ??ZDO_ParseEndDeviceBindReq_3
   2486            }
   2487            else
   2488            {
   2489              bindReq->numOutClusters = 0;
   \                     ??ZDO_ParseEndDeviceBindReq_2:
   \   0000FA   8E82         MOV     DPL,R6
   \   0000FC   8F83         MOV     DPH,R7
   \   0000FE   E4           CLR     A
   \   0000FF   F0           MOVX    @DPTR,A
   2490            }
   2491          }
   \                     ??ZDO_ParseEndDeviceBindReq_3:
   \   000100   02....       LJMP    ?Subroutine9 & 0xFFFF

   \                                 In  segment BANKED_CODE, align 1, keep-with-next
   \                     ?Subroutine109:
   \   000000   E5..         MOV     A,?V0 + 2
   \   000002   2408         ADD     A,#0x8
   \   000004                REQUIRE ??Subroutine206_0
   \   000004                ; // Fall through to label ??Subroutine206_0

   \                                 In  segment BANKED_CODE, align 1, keep-with-next
   \                     ??Subroutine206_0:
   \   000000   F5..         MOV     ?V0 + 2,A
   \   000002   E5..         MOV     A,?V0 + 3
   \   000004                REQUIRE ??Subroutine207_0
   \   000004                ; // Fall through to label ??Subroutine207_0

   \                                 In  segment BANKED_CODE, align 1, keep-with-next
   \                     ?Subroutine53:
   \   000000   12....       LCALL   ?Subroutine161 & 0xFFFF
   \                     ??CrossCallReturnLabel_257:
   \   000003   E0           MOVX    A,@DPTR
   \   000004   22           RET

   \                                 In  segment BANKED_CODE, align 1, keep-with-next
   \                     ?Subroutine42:
   \   000000   12....       LCALL   ?Subroutine136 & 0xFFFF
   \                     ??CrossCallReturnLabel_218:
   \   000003   A3           INC     DPTR
   \   000004   22           RET

   \                                 In  segment BANKED_CODE, align 1, keep-with-next
   \                     ?Subroutine136:
   \   000000   12....       LCALL   ?Subroutine160 & 0xFFFF
   \                     ??CrossCallReturnLabel_255:
   \   000003   A3           INC     DPTR
   \   000004   22           RET

   \                                 In  segment BANKED_CODE, align 1, keep-with-next
   \                     ?Subroutine97:
   \   000000   F582         MOV     DPL,A
   \   000002   EB           MOV     A,R3
   \   000003   3400         ADDC    A,#0x0
   \   000005                REQUIRE ??Subroutine225_0
   \   000005                ; // Fall through to label ??Subroutine225_0

   \                                 In  segment BANKED_CODE, align 1, keep-with-next
   \                     ??Subroutine225_0:
   \   000000   F583         MOV     DPH,A
   \   000002                REQUIRE ??Subroutine226_0
   \   000002                ; // Fall through to label ??Subroutine226_0

   \                                 In  segment BANKED_CODE, align 1, keep-with-next
   \                     ??Subroutine226_0:
   \   000000   E0           MOVX    A,@DPTR
   \   000001   8E82         MOV     DPL,R6
   \   000003   8F83         MOV     DPH,R7
   \   000005   22           RET

   \                                 In  segment BANKED_CODE, align 1, keep-with-next
   \                     ?Subroutine128:
   \   000000   12....       LCALL   ?Subroutine161 & 0xFFFF
   \                     ??CrossCallReturnLabel_259:
   \   000003   A3           INC     DPTR
   \   000004   8582..       MOV     ?V0 + 2,DPL
   \   000007   8583..       MOV     ?V0 + 3,DPH
   \   00000A   22           RET

   \                                 In  segment BANKED_CODE, align 1, keep-with-next
   \                     ?Subroutine161:
   \   000000   F0           MOVX    @DPTR,A
   \   000001   85..82       MOV     DPL,?V0 + 2
   \   000004   85..83       MOV     DPH,?V0 + 3
   \   000007   22           RET

   \                                 In  segment BANKED_CODE, align 1, keep-with-next
   \                     ?Subroutine21:
   \   000000   12....       LCALL   ?Subroutine128 & 0xFFFF
   \                     ??CrossCallReturnLabel_209:
   \   000003   12....       LCALL   ?Subroutine140 & 0xFFFF
   \                     ??CrossCallReturnLabel_229:
   \   000006   22           RET

   \                                 In  segment BANKED_CODE, align 1, keep-with-next
   \                     ?Subroutine12:
   \   000000   A3           INC     DPTR
   \   000001   A3           INC     DPTR
   \   000002   A3           INC     DPTR
   \   000003   A3           INC     DPTR
   \   000004                REQUIRE ??Subroutine227_0
   \   000004                ; // Fall through to label ??Subroutine227_0

   \                                 In  segment BANKED_CODE, align 1, keep-with-next
   \                     ??Subroutine227_0:
   \   000000   F0           MOVX    @DPTR,A
   \   000001   A3           INC     DPTR
   \   000002   E9           MOV     A,R1
   \   000003   F0           MOVX    @DPTR,A
   \   000004   E5..         MOV     A,?V0 + 2
   \   000006   2402         ADD     A,#0x2
   \   000008   F5..         MOV     ?V0 + 2,A
   \   00000A   E5..         MOV     A,?V0 + 3
   \   00000C   3400         ADDC    A,#0x0
   \   00000E   F5..         MOV     ?V0 + 3,A
   \   000010   22           RET
   2492          
   2493          /*********************************************************************
   2494           * @fn          ZDO_ParseBindUnbindReq
   2495           *
   2496           * @brief       This function parses the Bind_req or Unbind_req message.
   2497           *
   2498           * @param       inMsg  - incoming message (request)
   2499           * @param       pReq - place to put parsed information
   2500           *
   2501           * @return      none
   2502           */

   \                                 In  segment BANKED_CODE, align 1, keep-with-next
   2503          void ZDO_ParseBindUnbindReq( zdoIncomingMsg_t *inMsg, ZDO_BindUnbindReq_t *pReq )
   \                     ZDO_ParseBindUnbindReq:
   2504          {
   \   000000   74F6         MOV     A,#-0xa
   \   000002   12....       LCALL   ?BANKED_ENTER_XDATA
   \   000005                ; Saved register size: 10
   \   000005                ; Auto size: 0
   \   000005   8C..         MOV     ?V0 + 0,R4
   \   000007   8D..         MOV     ?V0 + 1,R5
   2505            uint8 *msg;
   2506          
   2507            msg = inMsg->asdu;
   \   000009   12....       LCALL   ?Subroutine102 & 0xFFFF
   2508            osal_cpyExtAddr( pReq->srcAddress, msg );
   \                     ??CrossCallReturnLabel_171:
   \   00000C   FC           MOV     R4,A
   \   00000D   EF           MOV     A,R7
   \   00000E   FD           MOV     R5,A
   \   00000F   AA..         MOV     R2,?V0 + 0
   \   000011   AB..         MOV     R3,?V0 + 1
   \   000013   12....       LCALL   ??sAddrExtCpy?relay
   2509            msg += Z_EXTADDR_LEN;
   \   000016   12....       LCALL   ?Subroutine112 & 0xFFFF
   2510            pReq->srcEndpoint = *msg++;
   \                     ??CrossCallReturnLabel_445:
   \   000019   12....       LCALL   ?Subroutine74 & 0xFFFF
   \                     ??CrossCallReturnLabel_124:
   \   00001C   12....       LCALL   ?Subroutine29 & 0xFFFF
   2511            pReq->clusterID = BUILD_UINT16( msg[0], msg[1] );
   \                     ??CrossCallReturnLabel_29:
   \   00001F   85..82       MOV     DPL,?V0 + 0
   \   000022   85..83       MOV     DPH,?V0 + 1
   \   000025   A3           INC     DPTR
   \   000026   A3           INC     DPTR
   \   000027   A3           INC     DPTR
   \   000028   A3           INC     DPTR
   \   000029   A3           INC     DPTR
   \   00002A   A3           INC     DPTR
   \   00002B   12....       LCALL   ?Subroutine13 & 0xFFFF
   2512            msg += 2;
   2513            pReq->dstAddress.addrMode = *msg++;
   \                     ??CrossCallReturnLabel_612:
   \   00002E   F8           MOV     R0,A
   \   00002F   E5..         MOV     A,?V0 + 0
   \   000031   12....       LCALL   ??Subroutine220_0 & 0xFFFF
   \                     ??CrossCallReturnLabel_535:
   \   000034   12....       LCALL   ??Subroutine216_0 & 0xFFFF
   \                     ??CrossCallReturnLabel_511:
   \   000037   E8           MOV     A,R0
   \   000038   12....       LCALL   ?Subroutine44 & 0xFFFF
   2514            if ( pReq->dstAddress.addrMode == Addr64Bit )
   \                     ??CrossCallReturnLabel_73:
   \   00003B   240B         ADD     A,#0xb
   \   00003D   FA           MOV     R2,A
   \   00003E   E5..         MOV     A,?V0 + 1
   \   000040   3400         ADDC    A,#0x0
   \   000042   FB           MOV     R3,A
   \   000043   7403         MOV     A,#0x3
   \   000045   68           XRL     A,R0
   \   000046   7021         JNZ     ??ZDO_ParseBindUnbindReq_0
   2515            {
   2516              osal_cpyExtAddr( pReq->dstAddress.addr.extAddr, msg );
   \   000048                ; Setup parameters for call to function sAddrExtCpy
   \   000048   EE           MOV     A,R6
   \   000049   FC           MOV     R4,A
   \   00004A   EF           MOV     A,R7
   \   00004B   FD           MOV     R5,A
   \   00004C   12....       LCALL   ??sAddrExtCpy?relay
   2517              msg += Z_EXTADDR_LEN;
   2518              pReq->dstEndpoint = *msg;
   \   00004F   8E82         MOV     DPL,R6
   \   000051   8F83         MOV     DPH,R7
   \   000053   A3           INC     DPTR
   \   000054   A3           INC     DPTR
   \   000055   A3           INC     DPTR
   \   000056   A3           INC     DPTR
   \   000057   A3           INC     DPTR
   \   000058   A3           INC     DPTR
   \   000059   A3           INC     DPTR
   \   00005A   A3           INC     DPTR
   \   00005B   E0           MOVX    A,@DPTR
   \   00005C   C0E0         PUSH    A
   \   00005E   E5..         MOV     A,?V0 + 0
   \   000060   2414         ADD     A,#0x14
   \   000062   12....       LCALL   ??Subroutine215_0 & 0xFFFF
   2519            }
   \                     ??CrossCallReturnLabel_512:
   \   000065   D0E0         POP     A
   \   000067   8006         SJMP    ??ZDO_ParseBindUnbindReq_1
   2520            else
   2521            {
   2522              // copy group address
   2523              pReq->dstAddress.addr.shortAddr = BUILD_UINT16( msg[0], msg[1] );
   \                     ??ZDO_ParseBindUnbindReq_0:
   \   000069   12....       LCALL   ?Subroutine84 & 0xFFFF
   2524            }
   \                     ??CrossCallReturnLabel_137:
   \   00006C   F0           MOVX    @DPTR,A
   \   00006D   A3           INC     DPTR
   \   00006E   E9           MOV     A,R1
   \                     ??ZDO_ParseBindUnbindReq_1:
   \   00006F   F0           MOVX    @DPTR,A
   2525          }
   \   000070   02....       LJMP    ??Subroutine176_0 & 0xFFFF

   \                                 In  segment BANKED_CODE, align 1, keep-with-next
   \                     ?Subroutine112:
   \   000000   EE           MOV     A,R6
   \   000001   2408         ADD     A,#0x8
   \   000003                REQUIRE ??Subroutine208_0
   \   000003                ; // Fall through to label ??Subroutine208_0

   \                                 In  segment BANKED_CODE, align 1, keep-with-next
   \                     ??Subroutine215_0:
   \   000000   F582         MOV     DPL,A
   \   000002                REQUIRE ??Subroutine216_0
   \   000002                ; // Fall through to label ??Subroutine216_0

   \                                 In  segment BANKED_CODE, align 1, keep-with-next
   \                     ??Subroutine216_0:
   \   000000   E5..         MOV     A,?V0 + 1
   \   000002                REQUIRE ??Subroutine217_0
   \   000002                ; // Fall through to label ??Subroutine217_0

   \                                 In  segment BANKED_CODE, align 1, keep-with-next
   \                     ?Subroutine44:
   \   000000   12....       LCALL   ?Subroutine127 & 0xFFFF
   \                     ??CrossCallReturnLabel_207:
   \   000003   E5..         MOV     A,?V0 + 0
   \   000005   22           RET

   \                                 In  segment BANKED_CODE, align 1, keep-with-next
   \                     ?Subroutine131:
   \   000000   12....       LCALL   ?Subroutine163 & 0xFFFF
   \                     ??CrossCallReturnLabel_554:
   \   000003   AE82         MOV     R6,DPL
   \   000005   AF83         MOV     R7,DPH
   \   000007   E0           MOVX    A,@DPTR
   \   000008   22           RET

   \                                 In  segment BANKED_CODE, align 1, keep-with-next
   \                     ?Subroutine84:
   \   000000   E0           MOVX    A,@DPTR
   \   000001   FC           MOV     R4,A
   \   000002   A3           INC     DPTR
   \   000003   E0           MOVX    A,@DPTR
   \   000004   F9           MOV     R1,A
   \   000005   EC           MOV     A,R4
   \   000006   8A82         MOV     DPL,R2
   \   000008   8B83         MOV     DPH,R3
   \   00000A   22           RET

   \                                 In  segment BANKED_CODE, align 1, keep-with-next
   \                     ?Subroutine29:
   \   000000   12....       LCALL   ?Subroutine131 & 0xFFFF
   \                     ??CrossCallReturnLabel_212:
   \   000003   FA           MOV     R2,A
   \   000004   A3           INC     DPTR
   \   000005   E0           MOVX    A,@DPTR
   \   000006   F9           MOV     R1,A
   \   000007   EA           MOV     A,R2
   \   000008   22           RET

   \                                 In  segment BANKED_CODE, align 1, keep-with-next
   \                     ?Subroutine13:
   \   000000   A3           INC     DPTR
   \   000001   A3           INC     DPTR
   \   000002                REQUIRE ??Subroutine231_0
   \   000002                ; // Fall through to label ??Subroutine231_0

   \                                 In  segment BANKED_CODE, align 1, keep-with-next
   \                     ??Subroutine231_0:
   \   000000   A3           INC     DPTR
   \   000001   F0           MOVX    @DPTR,A
   \   000002   A3           INC     DPTR
   \   000003   E9           MOV     A,R1
   \   000004                REQUIRE ??Subroutine232_0
   \   000004                ; // Fall through to label ??Subroutine232_0

   \                                 In  segment BANKED_CODE, align 1, keep-with-next
   \                     ??Subroutine232_0:
   \   000000   12....       LCALL   ?Subroutine125 & 0xFFFF
   \                     ??CrossCallReturnLabel_618:
   \   000003   8E82         MOV     DPL,R6
   \   000005   8F83         MOV     DPH,R7
   \   000007   E0           MOVX    A,@DPTR
   \   000008   22           RET

   \                                 In  segment BANKED_CODE, align 1, keep-with-next
   \                     ?Subroutine74:
   \   000000   12....       LCALL   ?Subroutine142 & 0xFFFF
   \                     ??CrossCallReturnLabel_233:
   \   000003   A3           INC     DPTR
   \   000004   A3           INC     DPTR
   \   000005   A3           INC     DPTR
   \   000006   22           RET

   \                                 In  segment BANKED_CODE, align 1, keep-with-next
   \                     ?Subroutine125:
   \   000000   F0           MOVX    @DPTR,A
   \   000001   12....       LCALL   ?Subroutine169 & 0xFFFF
   \                     ??CrossCallReturnLabel_622:
   \   000004   22           RET

   \                                 In  segment BANKED_CODE, align 1, keep-with-next
   \                     ?Subroutine142:
   \   000000   E0           MOVX    A,@DPTR
   \   000001   85..82       MOV     DPL,?V0 + 0
   \   000004   85..83       MOV     DPH,?V0 + 1
   \   000007   A3           INC     DPTR
   \   000008   A3           INC     DPTR
   \   000009   A3           INC     DPTR
   \   00000A   A3           INC     DPTR
   \   00000B   A3           INC     DPTR
   \   00000C   22           RET

   \                                 In  segment BANKED_CODE, align 1, keep-with-next
   \                     ?Subroutine127:
   \   000000   12....       LCALL   ?Subroutine163 & 0xFFFF
   \                     ??CrossCallReturnLabel_553:
   \   000003   0E           INC     R6
   \   000004   AF83         MOV     R7,DPH
   \   000006   22           RET
   2526          
   2527          /*********************************************************************
   2528           * @fn      ZDO_ParseAddrRsp
   2529           *
   2530           * @brief   Turns the inMsg (incoming message) into the out parsed
   2531           *          structure.
   2532           *
   2533           * @param   inMsg - incoming message
   2534           *
   2535           * @return  pointer to parsed structures.  This structure was
   2536           *          allocated using osal_mem_alloc, so it must be freed
   2537           *          by the calling function [osal_mem_free()].
   2538           */

   \                                 In  segment BANKED_CODE, align 1, keep-with-next
   2539          ZDO_NwkIEEEAddrResp_t *ZDO_ParseAddrRsp( zdoIncomingMsg_t *inMsg )
   \                     ZDO_ParseAddrRsp:
   2540          {
   \   000000   74F2         MOV     A,#-0xe
   \   000002   12....       LCALL   ?BANKED_ENTER_XDATA
   \   000005                ; Saved register size: 14
   \   000005                ; Auto size: 0
   2541            ZDO_NwkIEEEAddrResp_t *rsp;
   2542            uint8 *msg;
   2543            byte cnt = 0;
   \   000005   75..00       MOV     ?V0 + 2,#0x0
   2544          
   2545            // Calculate the number of items in the list
   2546            if ( inMsg->asduLen > (1 + Z_EXTADDR_LEN + 2) )
   \   000008   EA           MOV     A,R2
   \   000009   2413         ADD     A,#0x13
   \   00000B   F8           MOV     R0,A
   \   00000C   EB           MOV     A,R3
   \   00000D   3400         ADDC    A,#0x0
   \   00000F   F9           MOV     R1,A
   \   000010   E8           MOV     A,R0
   \   000011   FE           MOV     R6,A
   \   000012   E9           MOV     A,R1
   \   000013   FF           MOV     R7,A
   \   000014   EA           MOV     A,R2
   \   000015   2410         ADD     A,#0x10
   \   000017   F582         MOV     DPL,A
   \   000019   EB           MOV     A,R3
   \   00001A   12....       LCALL   ??Subroutine189_0 & 0xFFFF
   \                     ??CrossCallReturnLabel_346:
   \   00001D   C3           CLR     C
   \   00001E   940C         SUBB    A,#0xc
   \   000020   400E         JC      ??ZDO_ParseAddrRsp_0
   2547            {
   2548              cnt = inMsg->asdu[1 + Z_EXTADDR_LEN + 2];
   \   000022   8E82         MOV     DPL,R6
   \   000024   8F83         MOV     DPH,R7
   \   000026   12....       LCALL   ??Subroutine211_0 & 0xFFFF
   2549            }
   \                     ??CrossCallReturnLabel_455:
   \   000029   240B         ADD     A,#0xb
   \   00002B   12....       LCALL   ?Subroutine108 & 0xFFFF
   \                     ??CrossCallReturnLabel_354:
   \   00002E   F5..         MOV     ?V0 + 2,A
   2550            else
   2551            {
   2552              cnt = 0;
   2553            }
   2554          
   2555            // Make buffer
   2556            rsp = (ZDO_NwkIEEEAddrResp_t *)osal_mem_alloc( sizeof(ZDO_NwkIEEEAddrResp_t) + (cnt * sizeof ( uint16 )) );
   \                     ??ZDO_ParseAddrRsp_0:
   \   000030                ; Setup parameters for call to function osal_mem_alloc
   \   000030   E5..         MOV     A,?V0 + 2
   \   000032   C3           CLR     C
   \   000033   33           RLC     A
   \   000034   F8           MOV     R0,A
   \   000035   E4           CLR     A
   \   000036   33           RLC     A
   \   000037   F9           MOV     R1,A
   \   000038   E8           MOV     A,R0
   \   000039   240D         ADD     A,#0xd
   \   00003B   FA           MOV     R2,A
   \   00003C   E9           MOV     A,R1
   \   00003D   3400         ADDC    A,#0x0
   \   00003F   FB           MOV     R3,A
   \   000040   12....       LCALL   ??osal_mem_alloc?relay
   \   000043   8A..         MOV     ?V0 + 0,R2
   \   000045   8B..         MOV     ?V0 + 1,R3
   2557          
   2558            if ( rsp )
   \   000047   EA           MOV     A,R2
   \   000048   45..         ORL     A,?V0 + 1
   \   00004A   607E         JZ      ??ZDO_ParseAddrRsp_1
   2559            {
   2560              msg = inMsg->asdu;
   \   00004C   8E82         MOV     DPL,R6
   \   00004E   8F83         MOV     DPH,R7
   \   000050   12....       LCALL   ??Subroutine224_0 & 0xFFFF
   2561          
   2562              rsp->status = *msg++;
   \                     ??CrossCallReturnLabel_572:
   \   000053   8A82         MOV     DPL,R2
   \   000055   8B83         MOV     DPH,R3
   \   000057   12....       LCALL   ?Subroutine47 & 0xFFFF
   2563              if ( rsp->status == ZDO_SUCCESS )
   \                     ??CrossCallReturnLabel_79:
   \   00005A   706E         JNZ     ??ZDO_ParseAddrRsp_1
   2564              {
   2565                osal_cpyExtAddr( rsp->extAddr, msg );
   \   00005C                ; Setup parameters for call to function sAddrExtCpy
   \   00005C   EE           MOV     A,R6
   \   00005D   FC           MOV     R4,A
   \   00005E   EF           MOV     A,R7
   \   00005F   FD           MOV     R5,A
   \   000060   EA           MOV     A,R2
   \   000061   2403         ADD     A,#0x3
   \   000063   FA           MOV     R2,A
   \   000064   EB           MOV     A,R3
   \   000065   3400         ADDC    A,#0x0
   \   000067   FB           MOV     R3,A
   \   000068   12....       LCALL   ??sAddrExtCpy?relay
   2566                msg += Z_EXTADDR_LEN;
   \   00006B   12....       LCALL   ?Subroutine112 & 0xFFFF
   2567                rsp->nwkAddr = BUILD_UINT16( msg[0], msg[1] );
   \                     ??CrossCallReturnLabel_446:
   \   00006E   12....       LCALL   ?Subroutine77 & 0xFFFF
   \                     ??CrossCallReturnLabel_129:
   \   000071   A3           INC     DPTR
   \   000072   12....       LCALL   ?Subroutine34 & 0xFFFF
   2568          
   2569                msg += 2;
   2570                rsp->numAssocDevs = 0;
   \                     ??CrossCallReturnLabel_38:
   \   000075   E5..         MOV     A,?V0 + 0
   \   000077   240B         ADD     A,#0xb
   \   000079   F8           MOV     R0,A
   \   00007A   E5..         MOV     A,?V0 + 1
   \   00007C   3400         ADDC    A,#0x0
   \   00007E   F9           MOV     R1,A
   \   00007F   E8           MOV     A,R0
   \   000080   FA           MOV     R2,A
   \   000081   E9           MOV     A,R1
   \   000082   FB           MOV     R3,A
   \   000083   8A82         MOV     DPL,R2
   \   000085   8B83         MOV     DPH,R3
   \   000087   E4           CLR     A
   \   000088   F0           MOVX    @DPTR,A
   2571          
   2572                // StartIndex field is only present if NumAssocDev field is non-zero.
   2573                if ( cnt > 0 )
   \   000089   E5..         MOV     A,?V0 + 2
   \   00008B   603D         JZ      ??ZDO_ParseAddrRsp_1
   2574                {
   2575                  uint16 *pList = &(rsp->devList[0]);
   \   00008D   E5..         MOV     A,?V0 + 0
   \   00008F   240D         ADD     A,#0xd
   \   000091   F8           MOV     R0,A
   \   000092   E5..         MOV     A,?V0 + 1
   \   000094   3400         ADDC    A,#0x0
   \   000096   F9           MOV     R1,A
   2576                  byte n = cnt;
   2577          
   2578                  rsp->numAssocDevs = *msg++;
   \   000097   8E82         MOV     DPL,R6
   \   000099   8F83         MOV     DPH,R7
   \   00009B   E0           MOVX    A,@DPTR
   \   00009C   8A82         MOV     DPL,R2
   \   00009E   8B83         MOV     DPH,R3
   \   0000A0   12....       LCALL   ?Subroutine27 & 0xFFFF
   2579                  rsp->startIndex = *msg++;
   \                     ??CrossCallReturnLabel_24:
   \   0000A3   C0E0         PUSH    A
   \   0000A5   12....       LCALL   ?Subroutine119 & 0xFFFF
   \                     ??CrossCallReturnLabel_518:
   \   0000A8   D0E0         POP     A
   \   0000AA   12....       LCALL   ?Subroutine48 & 0xFFFF
   \                     ??CrossCallReturnLabel_81:
   \   0000AD   85....       MOV     ?V0 + 3,?V0 + 2
   2580          
   2581                  while ( n != 0 )
   2582                  {
   2583                    *pList++ = BUILD_UINT16( msg[0], msg[1] );
   \                     ??ZDO_ParseAddrRsp_2:
   \   0000B0   8E82         MOV     DPL,R6
   \   0000B2   8F83         MOV     DPH,R7
   \   0000B4   E0           MOVX    A,@DPTR
   \   0000B5   FC           MOV     R4,A
   \   0000B6   A3           INC     DPTR
   \   0000B7   E0           MOVX    A,@DPTR
   \   0000B8   FB           MOV     R3,A
   \   0000B9   EC           MOV     A,R4
   \   0000BA   8882         MOV     DPL,R0
   \   0000BC   8983         MOV     DPH,R1
   \   0000BE   12....       LCALL   ?Subroutine33 & 0xFFFF
   2584                    msg += sizeof( uint16 );
   \                     ??CrossCallReturnLabel_37:
   \   0000C1   12....       LCALL   ?Subroutine169 & 0xFFFF
   2585                    n--;
   2586                  }
   \                     ??CrossCallReturnLabel_620:
   \   0000C4   15..         DEC     ?V0 + 3
   \   0000C6   E5..         MOV     A,?V0 + 3
   \   0000C8   70E6         JNZ     ??ZDO_ParseAddrRsp_2
   2587                }
   2588              }
   2589            }
   2590          
   2591            return ( rsp );
   \                     ??ZDO_ParseAddrRsp_1:
   \   0000CA   AA..         MOV     R2,?V0 + 0
   \   0000CC   AB..         MOV     R3,?V0 + 1
   \   0000CE                REQUIRE ?Subroutine5
   \   0000CE                ; // Fall through to label ?Subroutine5
   2592          }

   \                                 In  segment BANKED_CODE, align 1, keep-with-next
   \                     ?Subroutine119:
   \   000000   E5..         MOV     A,?V0 + 0
   \   000002   240C         ADD     A,#0xc
   \   000004                REQUIRE ??Subroutine215_0
   \   000004                ; // Fall through to label ??Subroutine215_0

   \                                 In  segment BANKED_CODE, align 1, keep-with-next
   \                     ?Subroutine33:
   \   000000   F0           MOVX    @DPTR,A
   \   000001   A3           INC     DPTR
   \   000002   EB           MOV     A,R3
   \   000003   F0           MOVX    @DPTR,A
   \   000004   E8           MOV     A,R0
   \   000005   2402         ADD     A,#0x2
   \   000007   F8           MOV     R0,A
   \   000008   E9           MOV     A,R1
   \   000009   3400         ADDC    A,#0x0
   \   00000B   F9           MOV     R1,A
   \   00000C   22           RET

   \                                 In  segment BANKED_CODE, align 1, keep-with-next
   \                     ?Subroutine77:
   \   000000   12....       LCALL   ?Subroutine139 & 0xFFFF
   \                     ??CrossCallReturnLabel_226:
   \   000003   22           RET

   \                                 In  segment BANKED_CODE, align 1, keep-with-next
   \                     ?Subroutine139:
   \   000000   12....       LCALL   ??Subroutine223_0 & 0xFFFF
   \                     ??CrossCallReturnLabel_564:
   \   000003   F9           MOV     R1,A
   \   000004   EA           MOV     A,R2
   \   000005   85..82       MOV     DPL,?V0 + 0
   \   000008   85..83       MOV     DPH,?V0 + 1
   \   00000B   22           RET

   \                                 In  segment BANKED_CODE, align 1, keep-with-next
   \                     ?Subroutine27:
   \   000000   12....       LCALL   ?Subroutine127 & 0xFFFF
   \                     ??CrossCallReturnLabel_206:
   \   000003   E0           MOVX    A,@DPTR
   \   000004   22           RET

   \                                 In  segment BANKED_CODE, align 1, keep-with-next
   \                     ??Subroutine224_0:
   \   000000   12....       LCALL   ??Subroutine209_0 & 0xFFFF
   \                     ??CrossCallReturnLabel_576:
   \   000003   8E82         MOV     DPL,R6
   \   000005   8F83         MOV     DPH,R7
   \   000007   E0           MOVX    A,@DPTR
   \   000008   22           RET

   \                                 In  segment BANKED_CODE, align 1, keep-with-next
   \                     ?Subroutine34:
   \   000000   F0           MOVX    @DPTR,A
   \   000001   A3           INC     DPTR
   \   000002   E9           MOV     A,R1
   \   000003   12....       LCALL   ?Subroutine125 & 0xFFFF
   \                     ??CrossCallReturnLabel_619:
   \   000006   22           RET

   \                                 In  segment BANKED_CODE, align 1, keep-with-next
   \                     ?Subroutine48:
   \   000000   12....       LCALL   ?Subroutine127 & 0xFFFF
   \                     ??CrossCallReturnLabel_208:
   \   000003   22           RET

   \                                 In  segment BANKED_CODE, align 1, keep-with-next
   \                     ?Subroutine47:
   \   000000   12....       LCALL   ?Subroutine132 & 0xFFFF
   \                     ??CrossCallReturnLabel_551:
   \   000003   AE82         MOV     R6,DPL
   \   000005   AF83         MOV     R7,DPH
   \   000007   22           RET
   2593          
   2594          /*********************************************************************
   2595           * @fn          ZDO_ParseNodeDescRsp
   2596           *
   2597           * @brief       This function parses the Node_Desc_rsp message.
   2598           *
   2599           * @param       inMsg - incoming message
   2600           * @param       pNDRsp - place to parse the message into
   2601           *
   2602           * @return      none
   2603           */

   \                                 In  segment BANKED_CODE, align 1, keep-with-next
   2604          void ZDO_ParseNodeDescRsp( zdoIncomingMsg_t *inMsg, ZDO_NodeDescRsp_t *pNDRsp )
   \                     ZDO_ParseNodeDescRsp:
   2605          {
   \   000000   74F5         MOV     A,#-0xb
   \   000002   12....       LCALL   ?BANKED_ENTER_XDATA
   \   000005                ; Saved register size: 11
   \   000005                ; Auto size: 0
   2606            uint8 *msg;
   2607          
   2608            msg = inMsg->asdu;
   \   000005   12....       LCALL   ?Subroutine14 & 0xFFFF
   2609          
   2610            pNDRsp->status = *msg++;
   2611            pNDRsp->nwkAddr = BUILD_UINT16( msg[0], msg[1] );
   2612          
   2613            if ( pNDRsp->status == ZDP_SUCCESS )
   \                     ??CrossCallReturnLabel_0:
   \   000008   6003         JZ      $+5
   \   00000A   02....       LJMP    ??ZDO_ParseNodeDescRsp_0 & 0xFFFF
   2614            {
   2615              msg += 2;
   \   00000D   E8           MOV     A,R0
   \   00000E   2402         ADD     A,#0x2
   \   000010   F8           MOV     R0,A
   \   000011   E9           MOV     A,R1
   \   000012   3400         ADDC    A,#0x0
   \   000014   F9           MOV     R1,A
   2616              pNDRsp->nodeDesc.LogicalType = *msg & 0x07;
   \   000015   EC           MOV     A,R4
   \   000016   2403         ADD     A,#0x3
   \   000018   FA           MOV     R2,A
   \   000019   ED           MOV     A,R5
   \   00001A   3400         ADDC    A,#0x0
   \   00001C   FB           MOV     R3,A
   \   00001D   8882         MOV     DPL,R0
   \   00001F   8983         MOV     DPH,R1
   \   000021   E0           MOVX    A,@DPTR
   \   000022   5407         ANL     A,#0x7
   \   000024   FE           MOV     R6,A
   \   000025   8A82         MOV     DPL,R2
   \   000027   8B83         MOV     DPH,R3
   \   000029   E0           MOVX    A,@DPTR
   \   00002A   54F8         ANL     A,#0xf8
   \   00002C   4E           ORL     A,R6
   \   00002D   12....       LCALL   ?Subroutine38 & 0xFFFF
   2617          
   2618              pNDRsp->nodeDesc.ComplexDescAvail = ( *msg & 0x08 ) >> 3;
   \                     ??CrossCallReturnLabel_47:
   \   000030   A2E3         MOV     C,0xE0 /* A   */.3
   \   000032   8A82         MOV     DPL,R2
   \   000034   8B83         MOV     DPH,R3
   \   000036   A2E3         MOV     C,0xE0 /* A   */.3
   \   000038   E0           MOVX    A,@DPTR
   \   000039   92E3         MOV     0xE0 /* A   */.3,C
   \   00003B   12....       LCALL   ?Subroutine38 & 0xFFFF
   2619              pNDRsp->nodeDesc.UserDescAvail = ( *msg & 0x10 ) >> 4;
   \                     ??CrossCallReturnLabel_48:
   \   00003E   A2E4         MOV     C,0xE0 /* A   */.4
   \   000040   8A82         MOV     DPL,R2
   \   000042   8B83         MOV     DPH,R3
   \   000044   A2E4         MOV     C,0xE0 /* A   */.4
   \   000046   E0           MOVX    A,@DPTR
   \   000047   92E4         MOV     0xE0 /* A   */.4,C
   \   000049   12....       LCALL   ?Subroutine50 & 0xFFFF
   2620          
   2621              msg++;  // Reserved bits.
   \                     ??CrossCallReturnLabel_86:
   \   00004C   08           INC     R0
   \   00004D   A983         MOV     R1,DPH
   2622              pNDRsp->nodeDesc.FrequencyBand = (*msg >> 3) & 0x1f;
   \   00004F   EC           MOV     A,R4
   \   000050   2404         ADD     A,#0x4
   \   000052   0A           INC     R2
   \   000053   ED           MOV     A,R5
   \   000054   3400         ADDC    A,#0x0
   \   000056   FB           MOV     R3,A
   \   000057   E0           MOVX    A,@DPTR
   \   000058   54F8         ANL     A,#0xf8
   \   00005A   F5..         MOV     ?V0 + 0,A
   \   00005C   8A82         MOV     DPL,R2
   \   00005E   8B83         MOV     DPH,R3
   \   000060   E0           MOVX    A,@DPTR
   \   000061   5407         ANL     A,#0x7
   \   000063   45..         ORL     A,?V0 + 0
   \   000065   F5..         MOV     ?V0 + 0,A
   \   000067   12....       LCALL   ?Subroutine38 & 0xFFFF
   2623              pNDRsp->nodeDesc.APSFlags = *msg++ & 0x07;
   \                     ??CrossCallReturnLabel_49:
   \   00006A   5407         ANL     A,#0x7
   \   00006C   F5..         MOV     ?V0 + 1,A
   \   00006E   A3           INC     DPTR
   \   00006F   08           INC     R0
   \   000070   A983         MOV     R1,DPH
   \   000072   74F8         MOV     A,#-0x8
   \   000074   55..         ANL     A,?V0 + 0
   \   000076   45..         ORL     A,?V0 + 1
   \   000078   8A82         MOV     DPL,R2
   \   00007A   8B83         MOV     DPH,R3
   \   00007C   12....       LCALL   ?Subroutine38 & 0xFFFF
   2624              pNDRsp->nodeDesc.CapabilityFlags = *msg++;
   \                     ??CrossCallReturnLabel_50:
   \   00007F   8C82         MOV     DPL,R4
   \   000081   8D83         MOV     DPH,R5
   \   000083   A3           INC     DPTR
   \   000084   A3           INC     DPTR
   \   000085   A3           INC     DPTR
   \   000086   A3           INC     DPTR
   \   000087   12....       LCALL   ?Subroutine26 & 0xFFFF
   2625              pNDRsp->nodeDesc.ManufacturerCode[0] = *msg++;
   \                     ??CrossCallReturnLabel_521:
   \   00008A   8C82         MOV     DPL,R4
   \   00008C   8D83         MOV     DPH,R5
   \   00008E   A3           INC     DPTR
   \   00008F   A3           INC     DPTR
   \   000090   A3           INC     DPTR
   \   000091   A3           INC     DPTR
   \   000092   A3           INC     DPTR
   \   000093   A3           INC     DPTR
   \   000094   12....       LCALL   ?Subroutine20 & 0xFFFF
   2626              pNDRsp->nodeDesc.ManufacturerCode[1] = *msg++;
   \                     ??CrossCallReturnLabel_13:
   \   000097   12....       LCALL   ?Subroutine20 & 0xFFFF
   2627              pNDRsp->nodeDesc.MaxBufferSize = *msg++;
   \                     ??CrossCallReturnLabel_14:
   \   00009A   A3           INC     DPTR
   \   00009B   12....       LCALL   ?Subroutine17 & 0xFFFF
   2628              pNDRsp->nodeDesc.MaxInTransferSize[0] = *msg++;
   \                     ??CrossCallReturnLabel_6:
   \   00009E   12....       LCALL   ?Subroutine17 & 0xFFFF
   2629              pNDRsp->nodeDesc.MaxInTransferSize[1] = *msg++;
   \                     ??CrossCallReturnLabel_7:
   \   0000A1   12....       LCALL   ?Subroutine26 & 0xFFFF
   2630              pNDRsp->nodeDesc.ServerMask = BUILD_UINT16( msg[0], msg[1] );
   \                     ??CrossCallReturnLabel_522:
   \   0000A4   F5..         MOV     ?V0 + 0,A
   \   0000A6   A3           INC     DPTR
   \   0000A7   E0           MOVX    A,@DPTR
   \   0000A8   FB           MOV     R3,A
   \   0000A9   EC           MOV     A,R4
   \   0000AA   240B         ADD     A,#0xb
   \   0000AC   F582         MOV     DPL,A
   \   0000AE   ED           MOV     A,R5
   \   0000AF   12....       LCALL   ??Subroutine217_0 & 0xFFFF
   \                     ??CrossCallReturnLabel_506:
   \   0000B2   E5..         MOV     A,?V0 + 0
   \   0000B4   12....       LCALL   ?Subroutine33 & 0xFFFF
   2631              msg += 2;
   2632              pNDRsp->nodeDesc.MaxOutTransferSize[0] = *msg++;
   \                     ??CrossCallReturnLabel_36:
   \   0000B7   8882         MOV     DPL,R0
   \   0000B9   8983         MOV     DPH,R1
   \   0000BB   E0           MOVX    A,@DPTR
   \   0000BC   C0E0         PUSH    A
   \   0000BE   EC           MOV     A,R4
   \   0000BF   240D         ADD     A,#0xd
   \   0000C1   F582         MOV     DPL,A
   \   0000C3   ED           MOV     A,R5
   \   0000C4   12....       LCALL   ??Subroutine217_0 & 0xFFFF
   \                     ??CrossCallReturnLabel_507:
   \   0000C7   D0E0         POP     A
   \   0000C9   12....       LCALL   ??Subroutine218_0 & 0xFFFF
   2633              pNDRsp->nodeDesc.MaxOutTransferSize[1] = *msg++;
   \                     ??CrossCallReturnLabel_523:
   \   0000CC   C0E0         PUSH    A
   \   0000CE   EC           MOV     A,R4
   \   0000CF   12....       LCALL   ??Subroutine201_0 & 0xFFFF
   \                     ??CrossCallReturnLabel_419:
   \   0000D2   ED           MOV     A,R5
   \   0000D3   12....       LCALL   ??Subroutine217_0 & 0xFFFF
   \                     ??CrossCallReturnLabel_508:
   \   0000D6   D0E0         POP     A
   \   0000D8   12....       LCALL   ?Subroutine50 & 0xFFFF
   2634              pNDRsp->nodeDesc.DescriptorCapability = *msg;
   \                     ??CrossCallReturnLabel_87:
   \   0000DB   E0           MOVX    A,@DPTR
   \   0000DC   C0E0         PUSH    A
   \   0000DE   EC           MOV     A,R4
   \   0000DF   12....       LCALL   ?Subroutine123 & 0xFFFF
   2635            }
   \                     ??CrossCallReturnLabel_201:
   \   0000E2   ED           MOV     A,R5
   \   0000E3   12....       LCALL   ??Subroutine217_0 & 0xFFFF
   \                     ??CrossCallReturnLabel_509:
   \   0000E6   D0E0         POP     A
   \   0000E8   F0           MOVX    @DPTR,A
   2636          }
   \                     ??ZDO_ParseNodeDescRsp_0:
   \   0000E9                REQUIRE ?Subroutine1
   \   0000E9                ; // Fall through to label ?Subroutine1

   \                                 In  segment BANKED_CODE, align 1, keep-with-next
   \                     ?Subroutine26:
   \   000000   A3           INC     DPTR
   \   000001                REQUIRE ??Subroutine218_0
   \   000001                ; // Fall through to label ??Subroutine218_0

   \                                 In  segment BANKED_CODE, align 1, keep-with-next
   \                     ??Subroutine218_0:
   \   000000   12....       LCALL   ?Subroutine134 & 0xFFFF
   \                     ??CrossCallReturnLabel_526:
   \   000003   08           INC     R0
   \   000004   A983         MOV     R1,DPH
   \   000006   E0           MOVX    A,@DPTR
   \   000007   22           RET

   \                                 In  segment BANKED_CODE, align 1, keep-with-next
   \                     ?Subroutine20:
   \   000000   12....       LCALL   ?Subroutine126 & 0xFFFF
   \                     ??CrossCallReturnLabel_204:
   \   000003   22           RET

   \                                 In  segment BANKED_CODE, align 1, keep-with-next
   \                     ?Subroutine126:
   \   000000   12....       LCALL   ?Subroutine162 & 0xFFFF
   \                     ??CrossCallReturnLabel_530:
   \   000003   A3           INC     DPTR
   \   000004   08           INC     R0
   \   000005   A983         MOV     R1,DPH
   \   000007   12....       LCALL   ?Subroutine165 & 0xFFFF
   \                     ??CrossCallReturnLabel_265:
   \   00000A   A3           INC     DPTR
   \   00000B   A3           INC     DPTR
   \   00000C   A3           INC     DPTR
   \   00000D   A3           INC     DPTR
   \   00000E   A3           INC     DPTR
   \   00000F   A3           INC     DPTR
   \   000010   A3           INC     DPTR
   \   000011   22           RET

   \                                 In  segment BANKED_CODE, align 1, keep-with-next
   \                     ?Subroutine17:
   \   000000   12....       LCALL   ?Subroutine126 & 0xFFFF
   \                     ??CrossCallReturnLabel_205:
   \   000003   A3           INC     DPTR
   \   000004   A3           INC     DPTR
   \   000005   22           RET

   \                                 In  segment BANKED_CODE, align 1, keep-with-next
   \                     ?Subroutine14:
   \   000000   12....       LCALL   ?Subroutine172 & 0xFFFF
   \                     ??CrossCallReturnLabel_540:
   \   000003   EB           MOV     A,R3
   \   000004   12....       LCALL   ?Subroutine143 & 0xFFFF
   \                     ??CrossCallReturnLabel_236:
   \   000007   8C82         MOV     DPL,R4
   \   000009   8D83         MOV     DPH,R5
   \   00000B   12....       LCALL   ?Subroutine134 & 0xFFFF
   \                     ??CrossCallReturnLabel_525:
   \   00000E   A882         MOV     R0,DPL
   \   000010   A983         MOV     R1,DPH
   \   000012   E0           MOVX    A,@DPTR
   \   000013   FE           MOV     R6,A
   \   000014   A3           INC     DPTR
   \   000015   E0           MOVX    A,@DPTR
   \   000016   FB           MOV     R3,A
   \   000017   EE           MOV     A,R6
   \   000018   8C82         MOV     DPL,R4
   \   00001A   8D83         MOV     DPH,R5
   \   00001C   A3           INC     DPTR
   \   00001D   F0           MOVX    @DPTR,A
   \   00001E   A3           INC     DPTR
   \   00001F   EB           MOV     A,R3
   \   000020   F0           MOVX    @DPTR,A
   \   000021   8C82         MOV     DPL,R4
   \   000023   8D83         MOV     DPH,R5
   \   000025   E0           MOVX    A,@DPTR
   \   000026   22           RET

   \                                 In  segment BANKED_CODE, align 1, keep-with-next
   \                     ?Subroutine165:
   \   000000   E0           MOVX    A,@DPTR
   \   000001   8C82         MOV     DPL,R4
   \   000003   8D83         MOV     DPH,R5
   \   000005   22           RET
   2637          
   2638          /*********************************************************************
   2639           * @fn          ZDO_ParesPowerDescRsp
   2640           *
   2641           * @brief       This function parses the Power_Desc_rsp message.
   2642           *
   2643           * @param       inMsg  - incoming message
   2644           * @param       pNPRsp - place to parse the message into
   2645           *
   2646           * @return      none
   2647           */

   \                                 In  segment BANKED_CODE, align 1, keep-with-next
   \                     ?Subroutine35:
   \   000000   F9           MOV     R1,A
   \   000001   8C82         MOV     DPL,R4
   \   000003   8D83         MOV     DPH,R5
   \   000005                REQUIRE ??Subroutine183_0
   \   000005                ; // Fall through to label ??Subroutine183_0

   \                                 In  segment BANKED_CODE, align 1, keep-with-next
   2648          void ZDO_ParsePowerDescRsp( zdoIncomingMsg_t *inMsg, ZDO_PowerRsp_t *pNPRsp )
   \                     ZDO_ParsePowerDescRsp:
   2649          {
   \   000000   74F6         MOV     A,#-0xa
   \   000002   12....       LCALL   ?BANKED_ENTER_XDATA
   \   000005                ; Saved register size: 10
   \   000005                ; Auto size: 0
   2650            uint8 *msg;
   2651          
   2652            msg = inMsg->asdu;
   \   000005   EA           MOV     A,R2
   \   000006   12....       LCALL   ??Subroutine220_0 & 0xFFFF
   \                     ??CrossCallReturnLabel_536:
   \   000009   EB           MOV     A,R3
   \   00000A   12....       LCALL   ?Subroutine87 & 0xFFFF
   2653            pNPRsp->status = *msg++;
   \                     ??CrossCallReturnLabel_144:
   \   00000D   12....       LCALL   ?Subroutine165 & 0xFFFF
   \                     ??CrossCallReturnLabel_262:
   \   000010   12....       LCALL   ?Subroutine136 & 0xFFFF
   \                     ??CrossCallReturnLabel_220:
   \   000013   AA82         MOV     R2,DPL
   \   000015   AB83         MOV     R3,DPH
   2654            pNPRsp->nwkAddr = BUILD_UINT16( msg[0], msg[1] );
   \   000017   E0           MOVX    A,@DPTR
   \   000018   FE           MOV     R6,A
   \   000019   A3           INC     DPTR
   \   00001A   E0           MOVX    A,@DPTR
   \   00001B   F9           MOV     R1,A
   \   00001C   EE           MOV     A,R6
   \   00001D   8C82         MOV     DPL,R4
   \   00001F   8D83         MOV     DPH,R5
   \   000021   A3           INC     DPTR
   \   000022   12....       LCALL   ??Subroutine184_0 & 0xFFFF
   2655          
   2656            if ( pNPRsp->status == ZDP_SUCCESS )
   \                     ??CrossCallReturnLabel_293:
   \   000025   8C82         MOV     DPL,R4
   \   000027   8D83         MOV     DPH,R5
   \   000029   E0           MOVX    A,@DPTR
   \   00002A   7079         JNZ     ??CrossCallReturnLabel_308
   2657            {
   2658              msg += 2;
   \   00002C   EA           MOV     A,R2
   \   00002D   2402         ADD     A,#0x2
   \   00002F   FA           MOV     R2,A
   \   000030   EB           MOV     A,R3
   \   000031   3400         ADDC    A,#0x0
   \   000033   FB           MOV     R3,A
   2659              pNPRsp->pwrDesc.AvailablePowerSources = *msg >> 4;
   \   000034   EC           MOV     A,R4
   \   000035   2403         ADD     A,#0x3
   \   000037   ED           MOV     A,R5
   \   000038   3400         ADDC    A,#0x0
   \   00003A   0C           INC     R4
   \   00003B   0C           INC     R4
   \   00003C   0C           INC     R4
   \   00003D   FD           MOV     R5,A
   \   00003E   8C82         MOV     DPL,R4
   \   000040   8D83         MOV     DPH,R5
   \   000042   E0           MOVX    A,@DPTR
   \   000043   540F         ANL     A,#0xf
   \   000045   FE           MOV     R6,A
   \   000046   A3           INC     DPTR
   \   000047   E0           MOVX    A,@DPTR
   \   000048   FF           MOV     R7,A
   \   000049   8A82         MOV     DPL,R2
   \   00004B   8B83         MOV     DPH,R3
   \   00004D   E0           MOVX    A,@DPTR
   \   00004E   C4           SWAP    A
   \   00004F   540F         ANL     A,#0xf
   \   000051   F5..         MOV     ?V0 + 0,A
   \   000053   75..00       MOV     ?V0 + 1,#0x0
   \   000056   7404         MOV     A,#0x4
   \   000058   78..         MOV     R0,#?V0 + 0
   \   00005A   12....       LCALL   ?S_SHL
   \   00005D   EE           MOV     A,R6
   \   00005E   45..         ORL     A,?V0 + 0
   \   000060   FE           MOV     R6,A
   \   000061   8C82         MOV     DPL,R4
   \   000063   8D83         MOV     DPH,R5
   \   000065   12....       LCALL   ?Subroutine36 & 0xFFFF
   2660              pNPRsp->pwrDesc.PowerMode = *msg++ & 0x0F;
   \                     ??CrossCallReturnLabel_40:
   \   000068   A3           INC     DPTR
   \   000069   0A           INC     R2
   \   00006A   AB83         MOV     R3,DPH
   \   00006C   EE           MOV     A,R6
   \   00006D   54F0         ANL     A,#0xf0
   \   00006F   48           ORL     A,R0
   \   000070   F8           MOV     R0,A
   \   000071   EF           MOV     A,R7
   \   000072   12....       LCALL   ?Subroutine35 & 0xFFFF
   2661              pNPRsp->pwrDesc.CurrentPowerSourceLevel = *msg >> 4;
   \                     ??CrossCallReturnLabel_307:
   \   000075   E8           MOV     A,R0
   \   000076   FE           MOV     R6,A
   \   000077   E9           MOV     A,R1
   \   000078   540F         ANL     A,#0xf
   \   00007A   FF           MOV     R7,A
   \   00007B   8A82         MOV     DPL,R2
   \   00007D   8B83         MOV     DPH,R3
   \   00007F   E0           MOVX    A,@DPTR
   \   000080   C4           SWAP    A
   \   000081   540F         ANL     A,#0xf
   \   000083   F5..         MOV     ?V0 + 0,A
   \   000085   740C         MOV     A,#0xc
   \   000087   78..         MOV     R0,#?V0 + 0
   \   000089   12....       LCALL   ?S_SHL
   \   00008C   EF           MOV     A,R7
   \   00008D   45..         ORL     A,?V0 + 1
   \   00008F   FF           MOV     R7,A
   \   000090   8C82         MOV     DPL,R4
   \   000092   8D83         MOV     DPH,R5
   \   000094   EE           MOV     A,R6
   \   000095   12....       LCALL   ?Subroutine36 & 0xFFFF
   2662              pNPRsp->pwrDesc.CurrentPowerSource = *msg++ & 0x0F;
   2663            }
   \                     ??CrossCallReturnLabel_41:
   \   000098   EF           MOV     A,R7
   \   000099   54F0         ANL     A,#0xf0
   \   00009B   FF           MOV     R7,A
   \   00009C   E8           MOV     A,R0
   \   00009D   F9           MOV     R1,A
   \   00009E   EE           MOV     A,R6
   \   00009F   F8           MOV     R0,A
   \   0000A0   EF           MOV     A,R7
   \   0000A1   49           ORL     A,R1
   \   0000A2   12....       LCALL   ?Subroutine35 & 0xFFFF
   2664          }
   \                     ??CrossCallReturnLabel_308:
   \   0000A5   02....       LJMP    ??Subroutine176_0 & 0xFFFF

   \                                 In  segment BANKED_CODE, align 1, keep-with-next
   \                     ?Subroutine36:
   \   000000   F0           MOVX    @DPTR,A
   \   000001   A3           INC     DPTR
   \   000002   EF           MOV     A,R7
   \   000003   12....       LCALL   ?Subroutine160 & 0xFFFF
   \                     ??CrossCallReturnLabel_254:
   \   000006   E0           MOVX    A,@DPTR
   \   000007   540F         ANL     A,#0xf
   \   000009   F8           MOV     R0,A
   \   00000A   22           RET
   2665          
   2666          /*********************************************************************
   2667           * @fn          ZDO_ParseSimpleDescRsp
   2668           *
   2669           * @brief       This function parse the Simple_Desc_rsp message.
   2670           *
   2671           *   NOTE: The pAppInClusterList and pAppOutClusterList fields
   2672           *         in the SimpleDescriptionFormat_t structure are allocated
   2673           *         and the calling function needs to free [osal_msg_free()]
   2674           *         these buffers.
   2675           *
   2676           * @param       inMsg  - incoming message
   2677           * @param       pSimpleDescRsp - place to parse the message into
   2678           *
   2679           * @return      none
   2680           */

   \                                 In  segment BANKED_CODE, align 1, keep-with-next
   2681          void ZDO_ParseSimpleDescRsp( zdoIncomingMsg_t *inMsg, ZDO_SimpleDescRsp_t *pSimpleDescRsp )
   \                     ZDO_ParseSimpleDescRsp:
   2682          {
   \   000000   74F7         MOV     A,#-0x9
   \   000002   12....       LCALL   ?BANKED_ENTER_XDATA
   \   000005                ; Saved register size: 9
   \   000005                ; Auto size: 0
   2683            uint8 *msg;
   2684          
   2685            msg = inMsg->asdu;
   \   000005   12....       LCALL   ?Subroutine14 & 0xFFFF
   2686            pSimpleDescRsp->status = *msg++;
   2687            pSimpleDescRsp->nwkAddr = BUILD_UINT16( msg[0], msg[1] );
   2688            msg += sizeof ( uint16 );
   2689            msg++; // Skip past the length field.
   2690          
   2691            if ( pSimpleDescRsp->status == ZDP_SUCCESS )
   \                     ??CrossCallReturnLabel_1:
   \   000008   7013         JNZ     ??ZDO_ParseSimpleDescRsp_0
   2692            {
   2693              ZDO_ParseSimpleDescBuf( msg, &(pSimpleDescRsp->simpleDesc) );
   \   00000A                ; Setup parameters for call to function ZDO_ParseSimpleDescBuf
   \   00000A   EC           MOV     A,R4
   \   00000B   2403         ADD     A,#0x3
   \   00000D   FC           MOV     R4,A
   \   00000E   ED           MOV     A,R5
   \   00000F   3400         ADDC    A,#0x0
   \   000011   FD           MOV     R5,A
   \   000012   E8           MOV     A,R0
   \   000013   2403         ADD     A,#0x3
   \   000015   FA           MOV     R2,A
   \   000016   E9           MOV     A,R1
   \   000017   3400         ADDC    A,#0x0
   \   000019   FB           MOV     R3,A
   \   00001A   12....       LCALL   ??ZDO_ParseSimpleDescBuf?relay
   2694            }
   2695          }
   \                     ??ZDO_ParseSimpleDescRsp_0:
   \   00001D                REQUIRE ?Subroutine10
   \   00001D                ; // Fall through to label ?Subroutine10

   \                                 In  segment BANKED_CODE, align 1, keep-with-next
   \                     ?Subroutine10:
   \   000000   7F01         MOV     R7,#0x1
   \   000002   02....       LJMP    ?BANKED_LEAVE_XDATA
   2696          
   2697          /*********************************************************************
   2698           * @fn          ZDO_ParseEPListRsp
   2699           *
   2700           * @brief       This parse the Active_EP_rsp or Match_Desc_rsp message.
   2701           *
   2702           * @param       inMsg  - incoming message
   2703           *
   2704           * @return      none
   2705           */

   \                                 In  segment BANKED_CODE, align 1, keep-with-next
   \                     ?Subroutine8:
   \   000000   EE           MOV     A,R6
   \   000001   FA           MOV     R2,A
   \   000002   EF           MOV     A,R7
   \   000003   FB           MOV     R3,A
   \   000004                REQUIRE ??Subroutine190_0
   \   000004                ; // Fall through to label ??Subroutine190_0

   \                                 In  segment BANKED_CODE, align 1, keep-with-next
   2706          ZDO_ActiveEndpointRsp_t *ZDO_ParseEPListRsp( zdoIncomingMsg_t *inMsg )
   \                     ZDO_ParseEPListRsp:
   2707          {
   \   000000   74F0         MOV     A,#-0x10
   \   000002   12....       LCALL   ?BANKED_ENTER_XDATA
   \   000005                ; Saved register size: 16
   \   000005                ; Auto size: 0
   2708            ZDO_ActiveEndpointRsp_t *pRsp;
   2709            uint8 *msg;
   2710            uint8 Status;
   2711            uint8 cnt;
   2712          
   2713            msg = inMsg->asdu;
   \   000005   12....       LCALL   ?Subroutine103 & 0xFFFF
   \                     ??CrossCallReturnLabel_172:
   \   000008   12....       LCALL   ?Subroutine94 & 0xFFFF
   2714            Status = *msg++;
   \                     ??CrossCallReturnLabel_158:
   \   00000B   85..82       MOV     DPL,?V0 + 2
   \   00000E   F583         MOV     DPH,A
   \   000010   E0           MOVX    A,@DPTR
   \   000011   F5..         MOV     ?V0 + 5,A
   \   000013   A3           INC     DPTR
   \   000014   8582..       MOV     ?V0 + 2,DPL
   \   000017   8583..       MOV     ?V0 + 3,DPH
   2715            cnt = msg[2];
   \   00001A   A3           INC     DPTR
   \   00001B   A3           INC     DPTR
   \   00001C   E0           MOVX    A,@DPTR
   \   00001D   F5..         MOV     ?V0 + 4,A
   2716          
   2717            pRsp = (ZDO_ActiveEndpointRsp_t *)osal_mem_alloc( sizeof(  ZDO_ActiveEndpointRsp_t ) + cnt );
   \   00001F   F582         MOV     DPL,A
   \   000021   8582..       MOV     ?V0 + 0,DPL
   \   000024                ; Setup parameters for call to function osal_mem_alloc
   \   000024   2404         ADD     A,#0x4
   \   000026   FA           MOV     R2,A
   \   000027   E4           CLR     A
   \   000028   3400         ADDC    A,#0x0
   \   00002A   FB           MOV     R3,A
   \   00002B   12....       LCALL   ??osal_mem_alloc?relay
   \   00002E   8A..         MOV     ?V0 + 6,R2
   \   000030   8B..         MOV     ?V0 + 7,R3
   \   000032   AE..         MOV     R6,?V0 + 6
   \   000034   AF..         MOV     R7,?V0 + 7
   2718            if ( pRsp )
   \   000036   EE           MOV     A,R6
   \   000037   4F           ORL     A,R7
   \   000038   6039         JZ      ??ZDO_ParseEPListRsp_0
   2719            {
   2720              pRsp->status = Status;
   \   00003A   8E82         MOV     DPL,R6
   \   00003C   8F83         MOV     DPH,R7
   \   00003E   E5..         MOV     A,?V0 + 5
   \   000040   12....       LCALL   ?Subroutine53 & 0xFFFF
   2721              pRsp->nwkAddr = BUILD_UINT16( msg[0], msg[1] );
   \                     ??CrossCallReturnLabel_93:
   \   000043   FA           MOV     R2,A
   \   000044   12....       LCALL   ?Subroutine24 & 0xFFFF
   2722              msg += sizeof( uint16 );
   2723              pRsp->cnt = cnt;
   2724              msg++; // pass cnt
   2725              osal_memcpy( pRsp->epList, msg, cnt );
   \                     ??CrossCallReturnLabel_544:
   \   000047                ; Setup parameters for call to function osal_memcpy
   \   000047   85..82       MOV     DPL,?V0 + 2
   \   00004A   85..83       MOV     DPH,?V0 + 3
   \   00004D   A3           INC     DPTR
   \   00004E   A3           INC     DPTR
   \   00004F   A3           INC     DPTR
   \   000050   A982         MOV     R1,DPL
   \   000052   AA83         MOV     R2,DPH
   \   000054   89..         MOV     ?V0 + 4,R1
   \   000056   8A..         MOV     ?V0 + 5,R2
   \   000058   88..         MOV     ?V0 + 6,R0
   \   00005A   78..         MOV     R0,#?V0 + 4
   \   00005C   12....       LCALL   ?PUSH_XSTACK_I_THREE
   \   00005F   AC..         MOV     R4,?V0 + 0
   \   000061   7D00         MOV     R5,#0x0
   \   000063   EE           MOV     A,R6
   \   000064   2404         ADD     A,#0x4
   \   000066   FA           MOV     R2,A
   \   000067   EF           MOV     A,R7
   \   000068   3400         ADDC    A,#0x0
   \   00006A   FB           MOV     R3,A
   \   00006B   12....       LCALL   ??osal_memcpy?relay
   \   00006E   7403         MOV     A,#0x3
   \   000070   12....       LCALL   ?DEALLOC_XSTACK8
   2726            }
   2727          
   2728            return ( pRsp );
   \                     ??ZDO_ParseEPListRsp_0:
   \   000073   02....       LJMP    ?Subroutine8 & 0xFFFF
   2729          }

   \                                 In  segment BANKED_CODE, align 1, keep-with-next
   \                     ?Subroutine24:
   \   000000   A3           INC     DPTR
   \   000001   E0           MOVX    A,@DPTR
   \   000002   F8           MOV     R0,A
   \   000003   E4           CLR     A
   \   000004   C8           XCH     A,R0
   \   000005   F9           MOV     R1,A
   \   000006   EA           MOV     A,R2
   \   000007   8E82         MOV     DPL,R6
   \   000009   8F83         MOV     DPH,R7
   \   00000B   A3           INC     DPTR
   \   00000C   F0           MOVX    @DPTR,A
   \   00000D   A3           INC     DPTR
   \   00000E   E9           MOV     A,R1
   \   00000F                REQUIRE ??Subroutine221_0
   \   00000F                ; // Fall through to label ??Subroutine221_0

   \                                 In  segment BANKED_CODE, align 1, keep-with-next
   \                     ??Subroutine221_0:
   \   000000   12....       LCALL   ?Subroutine132 & 0xFFFF
   \                     ??CrossCallReturnLabel_548:
   \   000003   A3           INC     DPTR
   \   000004   A3           INC     DPTR
   \   000005   E5..         MOV     A,?V0 + 4
   \   000007   F0           MOVX    @DPTR,A
   \   000008   22           RET

   \                                 In  segment BANKED_CODE, align 1, keep-with-next
   \                     ?Subroutine103:
   \   000000   12....       LCALL   ?Subroutine158 & 0xFFFF
   \                     ??CrossCallReturnLabel_597:
   \   000003   22           RET
   2730          
   2731          /*********************************************************************
   2732           * @fn          ZDO_ParseServerDiscRsp
   2733           *
   2734           * @brief       Parse the Server_Discovery_rsp message.
   2735           *
   2736           * @param       inMsg - incoming message.
   2737           * @param       pRsp - place to put the parsed information.
   2738           *
   2739           * @return      none
   2740           */

   \                                 In  segment BANKED_CODE, align 1, keep-with-next
   2741          void ZDO_ParseServerDiscRsp( zdoIncomingMsg_t *inMsg, ZDO_ServerDiscRsp_t *pRsp )
   \                     ZDO_ParseServerDiscRsp:
   2742          {
   \   000000   74F7         MOV     A,#-0x9
   \   000002   12....       LCALL   ?BANKED_ENTER_XDATA
   \   000005                ; Saved register size: 9
   \   000005                ; Auto size: 0
   2743            pRsp->status = inMsg->asdu[0];
   \   000005   EA           MOV     A,R2
   \   000006   2413         ADD     A,#0x13
   \   000008   F8           MOV     R0,A
   \   000009   EB           MOV     A,R3
   \   00000A   12....       LCALL   ?Subroutine170 & 0xFFFF
   \                     ??CrossCallReturnLabel_267:
   \   00000D   12....       LCALL   ??Subroutine223_0 & 0xFFFF
   \                     ??CrossCallReturnLabel_563:
   \   000010   F583         MOV     DPH,A
   \   000012   8A82         MOV     DPL,R2
   \   000014   12....       LCALL   ?Subroutine165 & 0xFFFF
   \                     ??CrossCallReturnLabel_263:
   \   000017   12....       LCALL   ?Subroutine38 & 0xFFFF
   2744            pRsp->serverMask = BUILD_UINT16( inMsg->asdu[1], inMsg->asdu[2] );
   \                     ??CrossCallReturnLabel_51:
   \   00001A   12....       LCALL   ??Subroutine174_0 & 0xFFFF
   \                     ??CrossCallReturnLabel_269:
   \   00001D   A3           INC     DPTR
   \   00001E   E0           MOVX    A,@DPTR
   \   00001F   FA           MOV     R2,A
   \   000020   8882         MOV     DPL,R0
   \   000022   8983         MOV     DPH,R1
   \   000024   A3           INC     DPTR
   \   000025   12....       LCALL   ??Subroutine230_0 & 0xFFFF
   \                     ??CrossCallReturnLabel_609:
   \   000028   A3           INC     DPTR
   \   000029   12....       LCALL   ??Subroutine184_0 & 0xFFFF
   2745          }
   \                     ??CrossCallReturnLabel_294:
   \   00002C   02....       LJMP    ?Subroutine10 & 0xFFFF

   \                                 In  segment BANKED_CODE, align 1, keep-with-next
   \                     ??Subroutine230_0:
   \   000000   A3           INC     DPTR
   \   000001   E0           MOVX    A,@DPTR
   \   000002   F9           MOV     R1,A
   \   000003   EA           MOV     A,R2
   \   000004   8C82         MOV     DPL,R4
   \   000006   8D83         MOV     DPH,R5
   \   000008   22           RET
   2746          
   2747          /*********************************************************************
   2748           * @fn          ZDO_ParseMgmtLqiRsp
   2749           *
   2750           * @brief       This function parses the incoming Management
   2751           *              LQI response
   2752           *
   2753           * @param       inMsg - incoming message
   2754           *
   2755           * @return      a pointer to parsed response structure (NULL if not allocated).
   2756           *          This structure was allocated using osal_mem_alloc, so it must be freed
   2757           *          by the calling function [osal_mem_free()].
   2758           */

   \                                 In  segment BANKED_CODE, align 1, keep-with-next
   2759          ZDO_MgmtLqiRsp_t *ZDO_ParseMgmtLqiRsp( zdoIncomingMsg_t *inMsg )
   \                     ZDO_ParseMgmtLqiRsp:
   2760          {
   \   000000   74F0         MOV     A,#-0x10
   \   000002   12....       LCALL   ?BANKED_ENTER_XDATA
   \   000005                ; Saved register size: 16
   \   000005                ; Auto size: 0
   2761            ZDO_MgmtLqiRsp_t *pRsp;
   2762            uint8 status;
   2763            uint8 startIndex = 0;
   \   000005   75..00       MOV     ?V0 + 5,#0x0
   2764            uint8 neighborLqiCount = 0;
   \   000008   75..00       MOV     ?V0 + 4,#0x0
   2765            uint8 neighborLqiEntries = 0;
   \   00000B   75..00       MOV     ?V0 + 6,#0x0
   2766            uint8 *msg;
   2767          
   2768            msg = inMsg->asdu;
   \   00000E   12....       LCALL   ?Subroutine63 & 0xFFFF
   2769          
   2770            status = *msg++;
   2771            if ( status == ZSuccess )
   \                     ??CrossCallReturnLabel_105:
   \   000011   7003         JNZ     ??CrossCallReturnLabel_109
   2772            {
   2773              neighborLqiEntries = *msg++;
   \   000013   12....       LCALL   ?Subroutine66 & 0xFFFF
   2774              startIndex = *msg++;
   2775              neighborLqiCount = *msg++;
   2776            }
   2777          
   2778            // Allocate a buffer big enough to handle the list.
   2779            pRsp = (ZDO_MgmtLqiRsp_t *)osal_mem_alloc(
   2780                      sizeof( ZDO_MgmtLqiRsp_t ) + (neighborLqiCount * sizeof( neighborLqiItem_t )) );
   \                     ??CrossCallReturnLabel_109:
   \   000016                ; Setup parameters for call to function osal_mem_alloc
   \   000016   E5..         MOV     A,?V0 + 4
   \   000018   75F00E       MOV     B,#0xe
   \   00001B   12....       LCALL   ?Subroutine122 & 0xFFFF
   \                     ??CrossCallReturnLabel_193:
   \   00001E   12....       LCALL   ??osal_mem_alloc?relay
   \   000021   8A..         MOV     ?V0 + 0,R2
   \   000023   8B..         MOV     ?V0 + 1,R3
   \   000025   AE..         MOV     R6,?V0 + 0
   \   000027   AF..         MOV     R7,?V0 + 1
   2781            if ( pRsp )
   \   000029   EE           MOV     A,R6
   \   00002A   4F           ORL     A,R7
   \   00002B   6066         JZ      ??ZDO_ParseMgmtLqiRsp_0
   2782            {
   2783              uint8 x;
   2784              neighborLqiItem_t *pList = pRsp->list;
   \   00002D   EE           MOV     A,R6
   \   00002E   2404         ADD     A,#0x4
   \   000030   F5..         MOV     ?V0 + 0,A
   \   000032   EF           MOV     A,R7
   \   000033   12....       LCALL   ??Subroutine222_0 & 0xFFFF
   2785              pRsp->status = status;
   \                     ??CrossCallReturnLabel_558:
   \   000036   8E82         MOV     DPL,R6
   \   000038   8F83         MOV     DPH,R7
   \   00003A   E5..         MOV     A,?V0 + 7
   \   00003C   F0           MOVX    @DPTR,A
   2786              pRsp->neighborLqiEntries = neighborLqiEntries;
   \   00003D   A3           INC     DPTR
   \   00003E   E5..         MOV     A,?V0 + 6
   \   000040   12....       LCALL   ?Subroutine43 & 0xFFFF
   2787              pRsp->startIndex = startIndex;
   \                     ??CrossCallReturnLabel_72:
   \   000043   E5..         MOV     A,?V0 + 5
   \   000045   12....       LCALL   ??Subroutine221_0 & 0xFFFF
   2788              pRsp->neighborLqiCount = neighborLqiCount;
   2789          
   2790              for ( x = 0; x < neighborLqiCount; x++ )
   \                     ??CrossCallReturnLabel_546:
   \   000048   75..00       MOV     ?V0 + 5,#0x0
   \   00004B   803F         SJMP    ??ZDO_ParseMgmtLqiRsp_1
   2791              {
   2792                osal_cpyExtAddr(pList->extPANId, msg);   //Copy extended PAN ID
   \                     ??ZDO_ParseMgmtLqiRsp_2:
   \   00004D                ; Setup parameters for call to function sAddrExtCpy
   \   00004D   AC..         MOV     R4,?V0 + 2
   \   00004F   AD..         MOV     R5,?V0 + 3
   \   000051   12....       LCALL   ?Subroutine124 & 0xFFFF
   \                     ??CrossCallReturnLabel_202:
   \   000054   12....       LCALL   ??sAddrExtCpy?relay
   2793                msg += Z_EXTADDR_LEN;
   2794          
   2795                msg += Z_EXTADDR_LEN;  // Throwing away IEEE.
   \   000057   E5..         MOV     A,?V0 + 2
   \   000059   2410         ADD     A,#0x10
   \   00005B   12....       LCALL   ?Subroutine117 & 0xFFFF
   2796                pList->nwkAddr = BUILD_UINT16( msg[0], msg[1] );
   \                     ??CrossCallReturnLabel_337:
   \   00005E   85..82       MOV     DPL,?V0 + 2
   \   000061   F583         MOV     DPH,A
   \   000063   12....       LCALL   ?Subroutine77 & 0xFFFF
   \                     ??CrossCallReturnLabel_130:
   \   000066   12....       LCALL   ??Subroutine184_0 & 0xFFFF
   2797                msg += 2 + 1 + 1 + 1;      // Skip DeviceType, RxOnIdle, Rlationship, PermitJoining and Depth
   \                     ??CrossCallReturnLabel_295:
   \   000069   E5..         MOV     A,?V0 + 2
   \   00006B   2405         ADD     A,#0x5
   \   00006D   12....       LCALL   ??Subroutine206_0 & 0xFFFF
   2798                pList->rxLqi = *msg++;
   \                     ??CrossCallReturnLabel_443:
   \   000070   C0E0         PUSH    A
   \   000072   E5..         MOV     A,?V0 + 0
   \   000074   240D         ADD     A,#0xd
   \   000076   12....       LCALL   ??Subroutine215_0 & 0xFFFF
   \                     ??CrossCallReturnLabel_513:
   \   000079   D0E0         POP     A
   \   00007B   12....       LCALL   ?Subroutine22 & 0xFFFF
   2799                pList->txQuality = 0;  // This is not specified OTA by ZigBee 1.1.
   \                     ??CrossCallReturnLabel_17:
   \   00007E   12....       LCALL   ?Subroutine119 & 0xFFFF
   \                     ??CrossCallReturnLabel_519:
   \   000081   E4           CLR     A
   \   000082   F0           MOVX    @DPTR,A
   2800                pList++;
   \   000083   E5..         MOV     A,?V0 + 0
   \   000085   240E         ADD     A,#0xe
   \   000087   12....       LCALL   ?Subroutine116 & 0xFFFF
   2801              }
   \                     ??CrossCallReturnLabel_561:
   \   00008A   05..         INC     ?V0 + 5
   \                     ??ZDO_ParseMgmtLqiRsp_1:
   \   00008C   E5..         MOV     A,?V0 + 5
   \   00008E   C3           CLR     C
   \   00008F   95..         SUBB    A,?V0 + 4
   \   000091   40BA         JC      ??ZDO_ParseMgmtLqiRsp_2
   2802            }
   2803          
   2804            return ( pRsp );
   \                     ??ZDO_ParseMgmtLqiRsp_0:
   \   000093   02....       LJMP    ?Subroutine8 & 0xFFFF
   2805          }

   \                                 In  segment BANKED_CODE, align 1, keep-with-next
   \                     ?Subroutine124:
   \   000000   E5..         MOV     A,?V0 + 0
   \   000002   2404         ADD     A,#0x4
   \   000004   FA           MOV     R2,A
   \   000005   E5..         MOV     A,?V0 + 1
   \   000007   3400         ADDC    A,#0x0
   \   000009   FB           MOV     R3,A
   \   00000A   22           RET

   \                                 In  segment BANKED_CODE, align 1, keep-with-next
   \                     ?Subroutine122:
   \   000000   A4           MUL     AB
   \   000001   2404         ADD     A,#0x4
   \   000003   FA           MOV     R2,A
   \   000004   E5F0         MOV     A,B
   \   000006   3400         ADDC    A,#0x0
   \   000008   FB           MOV     R3,A
   \   000009   22           RET

   \                                 In  segment BANKED_CODE, align 1, keep-with-next
   \                     ?Subroutine66:
   \   000000   12....       LCALL   ?Subroutine141 & 0xFFFF
   \                     ??CrossCallReturnLabel_232:
   \   000003   8582..       MOV     ?V0 + 2,DPL
   \   000006   8583..       MOV     ?V0 + 3,DPH
   \   000009   22           RET

   \                                 In  segment BANKED_CODE, align 1, keep-with-next
   \                     ?Subroutine141:
   \   000000   E0           MOVX    A,@DPTR
   \   000001   F5..         MOV     ?V0 + 6,A
   \   000003   A3           INC     DPTR
   \   000004   E0           MOVX    A,@DPTR
   \   000005   F5..         MOV     ?V0 + 5,A
   \   000007   A3           INC     DPTR
   \   000008   E0           MOVX    A,@DPTR
   \   000009   F5..         MOV     ?V0 + 4,A
   \   00000B   A3           INC     DPTR
   \   00000C   22           RET

   \                                 In  segment BANKED_CODE, align 1, keep-with-next
   \                     ?Subroutine63:
   \   000000   12....       LCALL   ?Subroutine154 & 0xFFFF
   \                     ??CrossCallReturnLabel_244:
   \   000003   85..82       MOV     DPL,?V0 + 2
   \   000006   F583         MOV     DPH,A
   \   000008   E0           MOVX    A,@DPTR
   \   000009   F5..         MOV     ?V0 + 7,A
   \   00000B   A3           INC     DPTR
   \   00000C   8582..       MOV     ?V0 + 2,DPL
   \   00000F   8583..       MOV     ?V0 + 3,DPH
   \   000012   22           RET

   \                                 In  segment BANKED_CODE, align 1, keep-with-next
   \                     ?Subroutine22:
   \   000000   12....       LCALL   ?Subroutine128 & 0xFFFF
   \                     ??CrossCallReturnLabel_210:
   \   000003   22           RET
   2806          
   2807          /*********************************************************************
   2808           * @fn          ZDO_ParseMgmNwkDiscRsp
   2809           *
   2810           * @brief       This function parses the incoming Management
   2811           *              Network Discover response.
   2812           *
   2813           * @param       inMsg - incoming message
   2814           *
   2815           * @return      pointer to parsed response.  This structure was
   2816           *          allocated using osal_mem_alloc, so it must be freed
   2817           *          by the calling function [osal_mem_free()].
   2818           */

   \                                 In  segment BANKED_CODE, align 1, keep-with-next
   2819          ZDO_MgmNwkDiscRsp_t *ZDO_ParseMgmNwkDiscRsp( zdoIncomingMsg_t *inMsg )
   \                     ZDO_ParseMgmNwkDiscRsp:
   2820          {
   \   000000   74F0         MOV     A,#-0x10
   \   000002   12....       LCALL   ?BANKED_ENTER_XDATA
   \   000005                ; Saved register size: 16
   \   000005                ; Auto size: 0
   2821            ZDO_MgmNwkDiscRsp_t *pRsp;
   2822            uint8 status;
   2823            uint8 networkCount = 0;
   \   000005   75..00       MOV     ?V0 + 6,#0x0
   2824            uint8 startIndex = 0;
   \   000008   75..00       MOV     ?V0 + 5,#0x0
   2825            uint8 networkListCount = 0;
   \   00000B   75..00       MOV     ?V0 + 4,#0x0
   2826            uint8 *msg;
   2827          
   2828            msg = inMsg->asdu;
   \   00000E   12....       LCALL   ?Subroutine61 & 0xFFFF
   2829            status = *msg++;
   \                     ??CrossCallReturnLabel_569:
   \   000011   F5..         MOV     ?V0 + 7,A
   \   000013   A3           INC     DPTR
   \   000014   AE82         MOV     R6,DPL
   \   000016   AF83         MOV     R7,DPH
   2830          
   2831            if ( status == ZSuccess )
   \   000018   7008         JNZ     ??ZDO_ParseMgmNwkDiscRsp_0
   2832            {
   2833              networkCount = *msg++;
   \   00001A   12....       LCALL   ?Subroutine141 & 0xFFFF
   2834              startIndex = *msg++;
   2835              networkListCount = *msg++;
   2836            }
   \                     ??CrossCallReturnLabel_231:
   \   00001D   0E           INC     R6
   \   00001E   0E           INC     R6
   \   00001F   0E           INC     R6
   \   000020   AF83         MOV     R7,DPH
   2837          
   2838            // Allocate a buffer big enough to handle the list.
   2839            pRsp = (ZDO_MgmNwkDiscRsp_t *)osal_mem_alloc( sizeof( ZDO_MgmNwkDiscRsp_t )
   2840                                            + (networkListCount * sizeof( mgmtNwkDiscItem_t )) );
   \                     ??ZDO_ParseMgmNwkDiscRsp_0:
   \   000022                ; Setup parameters for call to function osal_mem_alloc
   \   000022   85....       MOV     ?V0 + 0,?V0 + 4
   \   000025   75..00       MOV     ?V0 + 1,#0x0
   \   000028   7404         MOV     A,#0x4
   \   00002A   78..         MOV     R0,#?V0 + 0
   \   00002C   12....       LCALL   ?S_SHL
   \   00002F   12....       LCALL   ?Subroutine124 & 0xFFFF
   \                     ??CrossCallReturnLabel_203:
   \   000032   12....       LCALL   ??osal_mem_alloc?relay
   \   000035   8A..         MOV     ?V0 + 2,R2
   \   000037   8B..         MOV     ?V0 + 3,R3
   2841            if ( pRsp )
   \   000039   EA           MOV     A,R2
   \   00003A   45..         ORL     A,?V0 + 3
   \   00003C   7003         JNZ     $+5
   \   00003E   02....       LJMP    ??ZDO_ParseMgmNwkDiscRsp_1 & 0xFFFF
   2842            {
   2843              uint8 x;
   2844              mgmtNwkDiscItem_t *pList;
   2845          
   2846              pRsp->status = status;
   \   000041   12....       LCALL   ?Subroutine16 & 0xFFFF
   2847              pRsp->networkCount = networkCount;
   2848              pRsp->startIndex = startIndex;
   2849              pRsp->networkListCount = networkListCount;
   2850              pList = pRsp->list;
   \                     ??CrossCallReturnLabel_4:
   \   000044   EA           MOV     A,R2
   \   000045   2404         ADD     A,#0x4
   \   000047   F5..         MOV     ?V0 + 0,A
   \   000049   EB           MOV     A,R3
   \   00004A   12....       LCALL   ??Subroutine222_0 & 0xFFFF
   2851          
   2852              for ( x = 0; x < networkListCount; x++ )
   \                     ??CrossCallReturnLabel_559:
   \   00004D   75..00       MOV     ?V0 + 5,#0x0
   \   000050   8068         SJMP    ??ZDO_ParseMgmNwkDiscRsp_2
   2853              {
   2854                osal_cpyExtAddr(pList->extendedPANID, msg);   //Copy extended PAN ID
   \                     ??ZDO_ParseMgmNwkDiscRsp_3:
   \   000052                ; Setup parameters for call to function sAddrExtCpy
   \   000052   EE           MOV     A,R6
   \   000053   FC           MOV     R4,A
   \   000054   EF           MOV     A,R7
   \   000055   FD           MOV     R5,A
   \   000056   AA..         MOV     R2,?V0 + 0
   \   000058   AB..         MOV     R3,?V0 + 1
   \   00005A   12....       LCALL   ??sAddrExtCpy?relay
   2855                pList->PANId = BUILD_UINT16( msg[0], msg[1] );
   \   00005D   12....       LCALL   ?Subroutine64 & 0xFFFF
   \                     ??CrossCallReturnLabel_107:
   \   000060   A3           INC     DPTR
   \   000061   12....       LCALL   ??Subroutine184_0 & 0xFFFF
   2856                msg += Z_EXTADDR_LEN;
   \                     ??CrossCallReturnLabel_296:
   \   000064   12....       LCALL   ?Subroutine112 & 0xFFFF
   2857          
   2858                pList->logicalChannel = *msg++;
   2859                pList->stackProfile = (*msg) & 0x0F;
   2860                pList->version = (*msg++ >> 4) & 0x0F;
   2861                pList->beaconOrder = (*msg) & 0x0F;
   2862                pList->superFrameOrder = (*msg++ >> 4) & 0x0F;
   2863                pList->permitJoining = *msg++;
   2864                pList++;
   2865              }
   \                     ??CrossCallReturnLabel_447:
   \   000067   12....       LCALL   ?Subroutine75 & 0xFFFF
   \                     ??CrossCallReturnLabel_126:
   \   00006A   12....       LCALL   ?Subroutine45 & 0xFFFF
   \                     ??CrossCallReturnLabel_75:
   \   00006D   540F         ANL     A,#0xf
   \   00006F   C0E0         PUSH    A
   \   000071   E5..         MOV     A,?V0 + 0
   \   000073   240B         ADD     A,#0xb
   \   000075   12....       LCALL   ??Subroutine215_0 & 0xFFFF
   \                     ??CrossCallReturnLabel_514:
   \   000078   D0E0         POP     A
   \   00007A   12....       LCALL   ?Subroutine49 & 0xFFFF
   \                     ??CrossCallReturnLabel_83:
   \   00007D   C0E0         PUSH    A
   \   00007F   12....       LCALL   ?Subroutine119 & 0xFFFF
   \                     ??CrossCallReturnLabel_520:
   \   000082   D0E0         POP     A
   \   000084   12....       LCALL   ?Subroutine27 & 0xFFFF
   \                     ??CrossCallReturnLabel_25:
   \   000087   540F         ANL     A,#0xf
   \   000089   C0E0         PUSH    A
   \   00008B   E5..         MOV     A,?V0 + 0
   \   00008D   240D         ADD     A,#0xd
   \   00008F   12....       LCALL   ??Subroutine215_0 & 0xFFFF
   \                     ??CrossCallReturnLabel_515:
   \   000092   D0E0         POP     A
   \   000094   12....       LCALL   ?Subroutine49 & 0xFFFF
   \                     ??CrossCallReturnLabel_84:
   \   000097   C0E0         PUSH    A
   \   000099   E5..         MOV     A,?V0 + 0
   \   00009B   240E         ADD     A,#0xe
   \   00009D   12....       LCALL   ??Subroutine215_0 & 0xFFFF
   \                     ??CrossCallReturnLabel_516:
   \   0000A0   D0E0         POP     A
   \   0000A2   12....       LCALL   ?Subroutine27 & 0xFFFF
   \                     ??CrossCallReturnLabel_26:
   \   0000A5   C0E0         PUSH    A
   \   0000A7   E5..         MOV     A,?V0 + 0
   \   0000A9   240F         ADD     A,#0xf
   \   0000AB   12....       LCALL   ??Subroutine215_0 & 0xFFFF
   \                     ??CrossCallReturnLabel_517:
   \   0000AE   D0E0         POP     A
   \   0000B0   12....       LCALL   ?Subroutine44 & 0xFFFF
   \                     ??CrossCallReturnLabel_74:
   \   0000B3   2410         ADD     A,#0x10
   \   0000B5   12....       LCALL   ?Subroutine116 & 0xFFFF
   \                     ??CrossCallReturnLabel_562:
   \   0000B8   05..         INC     ?V0 + 5
   \                     ??ZDO_ParseMgmNwkDiscRsp_2:
   \   0000BA   E5..         MOV     A,?V0 + 5
   \   0000BC   C3           CLR     C
   \   0000BD   95..         SUBB    A,?V0 + 4
   \   0000BF   4091         JC      ??ZDO_ParseMgmNwkDiscRsp_3
   2866            }
   2867          
   2868            return ( pRsp );
   \                     ??ZDO_ParseMgmNwkDiscRsp_1:
   \   0000C1   AA..         MOV     R2,?V0 + 2
   \   0000C3   AB..         MOV     R3,?V0 + 3
   \   0000C5   02....       LJMP    ??Subroutine190_0 & 0xFFFF
   2869          }

   \                                 In  segment BANKED_CODE, align 1, keep-with-next
   \                     ?Subroutine49:
   \   000000   F0           MOVX    @DPTR,A
   \   000001   8E82         MOV     DPL,R6
   \   000003   8F83         MOV     DPH,R7
   \   000005   E0           MOVX    A,@DPTR
   \   000006   C4           SWAP    A
   \   000007   540F         ANL     A,#0xf
   \   000009   22           RET

   \                                 In  segment BANKED_CODE, align 1, keep-with-next
   \                     ?Subroutine61:
   \   000000   12....       LCALL   ?Subroutine158 & 0xFFFF
   \                     ??CrossCallReturnLabel_596:
   \   000003                REQUIRE ??Subroutine224_0
   \   000003                ; // Fall through to label ??Subroutine224_0

   \                                 In  segment BANKED_CODE, align 1, keep-with-next
   \                     ?Subroutine45:
   \   000000   A3           INC     DPTR
   \   000001   A3           INC     DPTR
   \   000002   A3           INC     DPTR
   \   000003   A3           INC     DPTR
   \   000004   A3           INC     DPTR
   \   000005   12....       LCALL   ?Subroutine131 & 0xFFFF
   \                     ??CrossCallReturnLabel_211:
   \   000008   22           RET

   \                                 In  segment BANKED_CODE, align 1, keep-with-next
   \                     ?Subroutine16:
   \   000000   8A82         MOV     DPL,R2
   \   000002   8B83         MOV     DPH,R3
   \   000004   E5..         MOV     A,?V0 + 7
   \   000006   F0           MOVX    @DPTR,A
   \   000007   A3           INC     DPTR
   \   000008   E5..         MOV     A,?V0 + 6
   \   00000A   12....       LCALL   ?Subroutine136 & 0xFFFF
   \                     ??CrossCallReturnLabel_219:
   \   00000D   A3           INC     DPTR
   \   00000E   E5..         MOV     A,?V0 + 5
   \   000010   12....       LCALL   ?Subroutine135 & 0xFFFF
   \                     ??CrossCallReturnLabel_216:
   \   000013   E5..         MOV     A,?V0 + 4
   \   000015   F0           MOVX    @DPTR,A
   \   000016   22           RET

   \                                 In  segment BANKED_CODE, align 1, keep-with-next
   \                     ?Subroutine75:
   \   000000   12....       LCALL   ?Subroutine142 & 0xFFFF
   \                     ??CrossCallReturnLabel_234:
   \   000003   22           RET

   \                                 In  segment BANKED_CODE, align 1, keep-with-next
   \                     ?Subroutine64:
   \   000000   8E82         MOV     DPL,R6
   \   000002   8F83         MOV     DPH,R7
   \   000004   12....       LCALL   ?Subroutine139 & 0xFFFF
   \                     ??CrossCallReturnLabel_225:
   \   000007   A3           INC     DPTR
   \   000008   A3           INC     DPTR
   \   000009   A3           INC     DPTR
   \   00000A   A3           INC     DPTR
   \   00000B   A3           INC     DPTR
   \   00000C   A3           INC     DPTR
   \   00000D   A3           INC     DPTR
   \   00000E   22           RET
   2870          
   2871          /*********************************************************************
   2872           * @fn          ZDO_ParseMgmtRtgRsp
   2873           *
   2874           * @brief       This function parses the incoming Management
   2875           *              Routing response.
   2876           *
   2877           * @param       inMsg - incoming message
   2878           *
   2879           * @return      a pointer to parsed response structure (NULL if not allocated).
   2880           *          This structure was allocated using osal_mem_alloc, so it must be freed
   2881           *          by the calling function [osal_mem_free()].
   2882           */

   \                                 In  segment BANKED_CODE, align 1, keep-with-next
   2883          ZDO_MgmtRtgRsp_t *ZDO_ParseMgmtRtgRsp( zdoIncomingMsg_t *inMsg )
   \                     ZDO_ParseMgmtRtgRsp:
   2884          {
   \   000000   74F2         MOV     A,#-0xe
   \   000002   12....       LCALL   ?BANKED_ENTER_XDATA
   \   000005                ; Saved register size: 14
   \   000005                ; Auto size: 0
   2885            ZDO_MgmtRtgRsp_t *pRsp;
   2886            uint8 status;
   2887            uint8 rtgCount = 0;
   \   000005   75..00       MOV     ?V0 + 2,#0x0
   2888            uint8 startIndex = 0;
   \   000008   75..00       MOV     ?V0 + 1,#0x0
   2889            uint8 rtgListCount = 0;
   \   00000B   75..00       MOV     ?V0 + 0,#0x0
   2890            uint8 *msg;
   2891          
   2892            msg = inMsg->asdu;
   \   00000E   12....       LCALL   ?Subroutine61 & 0xFFFF
   2893          
   2894            status = *msg++;
   \                     ??CrossCallReturnLabel_570:
   \   000011   F5..         MOV     ?V0 + 3,A
   \   000013   A3           INC     DPTR
   \   000014   AE82         MOV     R6,DPL
   \   000016   AF83         MOV     R7,DPH
   2895            if ( status == ZSuccess )
   \   000018   700F         JNZ     ??ZDO_ParseMgmtRtgRsp_0
   2896            {
   2897              rtgCount = *msg++;
   \   00001A   12....       LCALL   ?Subroutine94 & 0xFFFF
   2898              startIndex = *msg++;
   \                     ??CrossCallReturnLabel_156:
   \   00001D   F5..         MOV     ?V0 + 1,A
   \   00001F   A3           INC     DPTR
   2899              rtgListCount = *msg++;
   \   000020   E0           MOVX    A,@DPTR
   \   000021   F5..         MOV     ?V0 + 0,A
   \   000023   A3           INC     DPTR
   \   000024   0E           INC     R6
   \   000025   0E           INC     R6
   \   000026   0E           INC     R6
   \   000027   AF83         MOV     R7,DPH
   2900            }
   2901          
   2902            // Allocate a buffer big enough to handle the list
   2903            pRsp = (ZDO_MgmtRtgRsp_t *)osal_mem_alloc(
   2904                    sizeof( ZDO_MgmtRtgRsp_t ) + (rtgListCount * sizeof( rtgItem_t )) );
   \                     ??ZDO_ParseMgmtRtgRsp_0:
   \   000029                ; Setup parameters for call to function osal_mem_alloc
   \   000029   E5..         MOV     A,?V0 + 0
   \   00002B   75F007       MOV     B,#0x7
   \   00002E   12....       LCALL   ?Subroutine122 & 0xFFFF
   \                     ??CrossCallReturnLabel_194:
   \   000031   12....       LCALL   ??osal_mem_alloc?relay
   2905            if ( pRsp )
   \   000034   EA           MOV     A,R2
   \   000035   4B           ORL     A,R3
   \   000036   6062         JZ      ??ZDO_ParseMgmtRtgRsp_1
   2906            {
   2907              uint8 x;
   2908              rtgItem_t *pList = pRsp->list;
   \   000038   EA           MOV     A,R2
   \   000039   2404         ADD     A,#0x4
   \   00003B   F8           MOV     R0,A
   \   00003C   EB           MOV     A,R3
   \   00003D   3400         ADDC    A,#0x0
   \   00003F   F9           MOV     R1,A
   2909              pRsp->status = status;
   \   000040   8A82         MOV     DPL,R2
   \   000042   8B83         MOV     DPH,R3
   \   000044   E5..         MOV     A,?V0 + 3
   \   000046   F0           MOVX    @DPTR,A
   2910              pRsp->rtgCount = rtgCount;
   \   000047   A3           INC     DPTR
   \   000048   E5..         MOV     A,?V0 + 2
   \   00004A   12....       LCALL   ?Subroutine42 & 0xFFFF
   2911              pRsp->startIndex = startIndex;
   \                     ??CrossCallReturnLabel_68:
   \   00004D   E5..         MOV     A,?V0 + 1
   \   00004F   12....       LCALL   ?Subroutine42 & 0xFFFF
   2912              pRsp->rtgListCount = rtgListCount;
   \                     ??CrossCallReturnLabel_69:
   \   000052   A3           INC     DPTR
   \   000053   E5..         MOV     A,?V0 + 0
   \   000055   F0           MOVX    @DPTR,A
   2913          
   2914              for ( x = 0; x < rtgListCount; x++ )
   \   000056   75..00       MOV     ?V0 + 1,#0x0
   \   000059   8038         SJMP    ??ZDO_ParseMgmtRtgRsp_2
   2915              {
   2916                pList->dstAddress = BUILD_UINT16( msg[0], msg[1] );
   \                     ??ZDO_ParseMgmtRtgRsp_3:
   \   00005B   8E82         MOV     DPL,R6
   \   00005D   8F83         MOV     DPH,R7
   \   00005F   12....       LCALL   ?Subroutine94 & 0xFFFF
   \                     ??CrossCallReturnLabel_159:
   \   000062   FD           MOV     R5,A
   \   000063   E5..         MOV     A,?V0 + 2
   \   000065   8882         MOV     DPL,R0
   \   000067   8983         MOV     DPH,R1
   \   000069   F0           MOVX    @DPTR,A
   \   00006A   A3           INC     DPTR
   \   00006B   ED           MOV     A,R5
   \   00006C   12....       LCALL   ??Subroutine232_0 & 0xFFFF
   2917                msg += 2;
   2918                pList->status = *msg++;
   \                     ??CrossCallReturnLabel_615:
   \   00006F   8882         MOV     DPL,R0
   \   000071   8983         MOV     DPH,R1
   \   000073   12....       LCALL   ?Subroutine45 & 0xFFFF
   2919                pList->nextHopAddress = BUILD_UINT16( msg[0], msg[1] );
   \                     ??CrossCallReturnLabel_76:
   \   000076   F5..         MOV     ?V0 + 2,A
   \   000078   A3           INC     DPTR
   \   000079   E0           MOVX    A,@DPTR
   \   00007A   FD           MOV     R5,A
   \   00007B   E5..         MOV     A,?V0 + 2
   \   00007D   8882         MOV     DPL,R0
   \   00007F   8983         MOV     DPH,R1
   \   000081   A3           INC     DPTR
   \   000082   A3           INC     DPTR
   \   000083   F0           MOVX    @DPTR,A
   \   000084   A3           INC     DPTR
   \   000085   ED           MOV     A,R5
   \   000086   12....       LCALL   ?Subroutine125 & 0xFFFF
   2920                msg += 2;
   2921                pList++;
   \                     ??CrossCallReturnLabel_616:
   \   000089   E8           MOV     A,R0
   \   00008A   2407         ADD     A,#0x7
   \   00008C   F8           MOV     R0,A
   \   00008D   E9           MOV     A,R1
   \   00008E   3400         ADDC    A,#0x0
   \   000090   F9           MOV     R1,A
   2922              }
   \   000091   05..         INC     ?V0 + 1
   \                     ??ZDO_ParseMgmtRtgRsp_2:
   \   000093   E5..         MOV     A,?V0 + 1
   \   000095   C3           CLR     C
   \   000096   95..         SUBB    A,?V0 + 0
   \   000098   40C1         JC      ??ZDO_ParseMgmtRtgRsp_3
   2923            }
   2924          
   2925            return ( pRsp );
   \                     ??ZDO_ParseMgmtRtgRsp_1:
   \   00009A   02....       LJMP    ?Subroutine5 & 0xFFFF
   2926          }
   2927          
   2928          /*********************************************************************
   2929           * @fn          ZDO_ParseMgmtBindRsp
   2930           *
   2931           * @brief       This function parses the incoming Management
   2932           *              Binding response.
   2933           *
   2934           * @param       inMsg - pointer to message to parse
   2935           *
   2936           * @return      a pointer to parsed response structure (NULL if not allocated).
   2937           *          This structure was allocated using osal_mem_alloc, so it must be freed
   2938           *          by the calling function [osal_mem_free()].
   2939           */

   \                                 In  segment BANKED_CODE, align 1, keep-with-next
   2940          ZDO_MgmtBindRsp_t *ZDO_ParseMgmtBindRsp( zdoIncomingMsg_t *inMsg )
   \                     ZDO_ParseMgmtBindRsp:
   2941          {
   \   000000   74EE         MOV     A,#-0x12
   \   000002   12....       LCALL   ?BANKED_ENTER_XDATA
   \   000005                ; Saved register size: 18
   \   000005                ; Auto size: 0
   2942            ZDO_MgmtBindRsp_t *pRsp;
   2943            uint8 status;
   2944            uint8 bindingCount = 0;
   \   000005   75..00       MOV     ?V0 + 6,#0x0
   2945            uint8 startIndex = 0;
   \   000008   75..00       MOV     ?V0 + 5,#0x0
   2946            uint8 bindingListCount = 0;
   \   00000B   75..00       MOV     ?V0 + 4,#0x0
   2947            uint8 *msg;
   2948          
   2949            msg = inMsg->asdu;
   \   00000E   12....       LCALL   ?Subroutine63 & 0xFFFF
   2950          
   2951            status = *msg++;
   2952            if ( status == ZSuccess )
   \                     ??CrossCallReturnLabel_106:
   \   000011   7003         JNZ     ??CrossCallReturnLabel_110
   2953            {
   2954              bindingCount = *msg++;
   \   000013   12....       LCALL   ?Subroutine66 & 0xFFFF
   2955              startIndex = *msg++;
   2956              bindingListCount = *msg++;
   2957            }
   2958          
   2959            // Allocate a buffer big enough to handle the list
   2960            pRsp = (ZDO_MgmtBindRsp_t *)osal_mem_alloc(
   2961                    (sizeof ( ZDO_MgmtBindRsp_t ) + (bindingListCount * sizeof( apsBindingItem_t ))) );
   \                     ??CrossCallReturnLabel_110:
   \   000016                ; Setup parameters for call to function osal_mem_alloc
   \   000016   E5..         MOV     A,?V0 + 4
   \   000018   75F015       MOV     B,#0x15
   \   00001B   12....       LCALL   ?Subroutine122 & 0xFFFF
   \                     ??CrossCallReturnLabel_195:
   \   00001E   12....       LCALL   ??osal_mem_alloc?relay
   \   000021   8A..         MOV     ?V0 + 0,R2
   \   000023   8B..         MOV     ?V0 + 1,R3
   2962            if ( pRsp )
   \   000025   EA           MOV     A,R2
   \   000026   45..         ORL     A,?V0 + 1
   \   000028   7003         JNZ     $+5
   \   00002A   02....       LJMP    ??ZDO_ParseMgmtBindRsp_0 & 0xFFFF
   2963            {
   2964              uint8 x;
   2965              apsBindingItem_t *pList = pRsp->list;
   \   00002D   EA           MOV     A,R2
   \   00002E   2404         ADD     A,#0x4
   \   000030   FE           MOV     R6,A
   \   000031   EB           MOV     A,R3
   \   000032   3400         ADDC    A,#0x0
   \   000034   FF           MOV     R7,A
   2966              pRsp->status = status;
   \   000035   12....       LCALL   ?Subroutine16 & 0xFFFF
   2967              pRsp->bindingCount = bindingCount;
   2968              pRsp->startIndex = startIndex;
   2969              pRsp->bindingListCount = bindingListCount;
   2970          
   2971              for ( x = 0; x < bindingListCount; x++ )
   \                     ??CrossCallReturnLabel_5:
   \   000038   75..00       MOV     ?V0 + 5,#0x0
   \   00003B   8010         SJMP    ??ZDO_ParseMgmtBindRsp_1
   2972              {
   2973                osal_cpyExtAddr( pList->srcAddr, msg );
   2974                msg += Z_EXTADDR_LEN;
   2975                pList->srcEP = *msg++;
   2976          
   2977                // Get the Cluster ID
   2978          
   2979                pList->clusterID = BUILD_UINT16( msg[0], msg[1] );
   2980                msg += 2;
   2981                pList->dstAddr.addrMode = *msg++;
   2982                if ( pList->dstAddr.addrMode == Addr64Bit )
   2983                {
   2984                  osal_cpyExtAddr( pList->dstAddr.addr.extAddr, msg );
   2985                  msg += Z_EXTADDR_LEN;
   2986                  pList->dstEP = *msg++;
   2987                }
   2988                else
   2989                {
   2990                  pList->dstAddr.addr.shortAddr = BUILD_UINT16( msg[0], msg[1] );
   \                     ??ZDO_ParseMgmtBindRsp_2:
   \   00003D   12....       LCALL   ?Subroutine84 & 0xFFFF
   2991                  msg += 2;
   2992                }
   \                     ??CrossCallReturnLabel_138:
   \   000040   12....       LCALL   ??Subroutine227_0 & 0xFFFF
   2993          
   2994                pList++;
   \                     ??CrossCallReturnLabel_584:
   \   000043   EE           MOV     A,R6
   \   000044   2415         ADD     A,#0x15
   \   000046   FE           MOV     R6,A
   \   000047   EF           MOV     A,R7
   \   000048   3400         ADDC    A,#0x0
   \   00004A   FF           MOV     R7,A
   \   00004B   05..         INC     ?V0 + 5
   \                     ??ZDO_ParseMgmtBindRsp_1:
   \   00004D   E5..         MOV     A,?V0 + 5
   \   00004F   C3           CLR     C
   \   000050   95..         SUBB    A,?V0 + 4
   \   000052   5066         JNC     ??ZDO_ParseMgmtBindRsp_0
   \   000054                ; Setup parameters for call to function sAddrExtCpy
   \   000054   AC..         MOV     R4,?V0 + 2
   \   000056   AD..         MOV     R5,?V0 + 3
   \   000058   EE           MOV     A,R6
   \   000059   FA           MOV     R2,A
   \   00005A   EF           MOV     A,R7
   \   00005B   FB           MOV     R3,A
   \   00005C   12....       LCALL   ??sAddrExtCpy?relay
   \   00005F   E5..         MOV     A,?V0 + 2
   \   000061   2408         ADD     A,#0x8
   \   000063   12....       LCALL   ?Subroutine117 & 0xFFFF
   \                     ??CrossCallReturnLabel_338:
   \   000066   85..82       MOV     DPL,?V0 + 2
   \   000069   12....       LCALL   ??Subroutine225_0 & 0xFFFF
   \                     ??CrossCallReturnLabel_578:
   \   00006C   A3           INC     DPTR
   \   00006D   A3           INC     DPTR
   \   00006E   A3           INC     DPTR
   \   00006F   A3           INC     DPTR
   \   000070   A3           INC     DPTR
   \   000071   A3           INC     DPTR
   \   000072   A3           INC     DPTR
   \   000073   A3           INC     DPTR
   \   000074   12....       LCALL   ?Subroutine21 & 0xFFFF
   \                     ??CrossCallReturnLabel_16:
   \   000077   8E82         MOV     DPL,R6
   \   000079   8F83         MOV     DPH,R7
   \   00007B   A3           INC     DPTR
   \   00007C   A3           INC     DPTR
   \   00007D   A3           INC     DPTR
   \   00007E   A3           INC     DPTR
   \   00007F   A3           INC     DPTR
   \   000080   12....       LCALL   ?Subroutine12 & 0xFFFF
   \                     ??CrossCallReturnLabel_582:
   \   000083   85..82       MOV     DPL,?V0 + 2
   \   000086   F583         MOV     DPH,A
   \   000088   E0           MOVX    A,@DPTR
   \   000089   F8           MOV     R0,A
   \   00008A   12....       LCALL   ?Subroutine104 & 0xFFFF
   \                     ??CrossCallReturnLabel_176:
   \   00008D   E8           MOV     A,R0
   \   00008E   12....       LCALL   ?Subroutine22 & 0xFFFF
   \                     ??CrossCallReturnLabel_18:
   \   000091   EE           MOV     A,R6
   \   000092   240B         ADD     A,#0xb
   \   000094   FA           MOV     R2,A
   \   000095   EF           MOV     A,R7
   \   000096   3400         ADDC    A,#0x0
   \   000098   FB           MOV     R3,A
   \   000099   7403         MOV     A,#0x3
   \   00009B   68           XRL     A,R0
   \   00009C   709F         JNZ     ??ZDO_ParseMgmtBindRsp_2
   \   00009E                ; Setup parameters for call to function sAddrExtCpy
   \   00009E   AC..         MOV     R4,?V0 + 2
   \   0000A0   AD..         MOV     R5,?V0 + 3
   \   0000A2   12....       LCALL   ??sAddrExtCpy?relay
   \   0000A5   12....       LCALL   ?Subroutine109 & 0xFFFF
   2995              }
   2996            }
   \                     ??CrossCallReturnLabel_442:
   \   0000A8   C0E0         PUSH    A
   \   0000AA   EE           MOV     A,R6
   \   0000AB   2414         ADD     A,#0x14
   \   0000AD   F582         MOV     DPL,A
   \   0000AF   EF           MOV     A,R7
   \   0000B0   12....       LCALL   ??Subroutine217_0 & 0xFFFF
   \                     ??CrossCallReturnLabel_510:
   \   0000B3   D0E0         POP     A
   \   0000B5   12....       LCALL   ?Subroutine22 & 0xFFFF
   \                     ??CrossCallReturnLabel_19:
   \   0000B8   8089         SJMP    ??CrossCallReturnLabel_584
   2997          
   2998            return ( pRsp );
   \                     ??ZDO_ParseMgmtBindRsp_0:
   \   0000BA   AA..         MOV     R2,?V0 + 0
   \   0000BC   AB..         MOV     R3,?V0 + 1
   \   0000BE   02....       LJMP    ?Subroutine9 & 0xFFFF
   2999          }
   3000          
   3001          /*********************************************************************
   3002           * @fn          ZDO_ParseUserDescRsp
   3003           *
   3004           * @brief       This function parses the incoming User
   3005           *              Descriptor Response.
   3006           *
   3007           * @param       inMsg - incoming response message
   3008           *
   3009           * @return      a pointer to parsed response structure (NULL if not allocated).
   3010           *          This structure was allocated using osal_mem_alloc, so it must be freed
   3011           *          by the calling function [osal_mem_free()].
   3012           */

   \                                 In  segment BANKED_CODE, align 1, keep-with-next
   3013          ZDO_UserDescRsp_t *ZDO_ParseUserDescRsp( zdoIncomingMsg_t *inMsg )
   \                     ZDO_ParseUserDescRsp:
   3014          {
   \   000000   74F0         MOV     A,#-0x10
   \   000002   12....       LCALL   ?BANKED_ENTER_XDATA
   \   000005                ; Saved register size: 16
   \   000005                ; Auto size: 0
   3015            ZDO_UserDescRsp_t *pRsp;
   3016            uint8 *msg;
   3017            uint8 descLen = 0;
   \   000005   75..00       MOV     ?V0 + 4,#0x0
   3018          
   3019            msg = inMsg->asdu;
   \   000008   12....       LCALL   ?Subroutine103 & 0xFFFF
   \                     ??CrossCallReturnLabel_173:
   \   00000B   12....       LCALL   ??Subroutine186_0 & 0xFFFF
   \                     ??CrossCallReturnLabel_321:
   \   00000E   88..         MOV     ?V0 + 2,R0
   \   000010   89..         MOV     ?V0 + 3,R1
   3020          
   3021            if ( msg[0] == ZSuccess )
   \   000012   8882         MOV     DPL,R0
   \   000014   F583         MOV     DPH,A
   \   000016   E0           MOVX    A,@DPTR
   \   000017   7006         JNZ     ??ZDO_ParseUserDescRsp_0
   3022            {
   3023              descLen = msg[3];
   \   000019   A3           INC     DPTR
   \   00001A   A3           INC     DPTR
   \   00001B   A3           INC     DPTR
   \   00001C   E0           MOVX    A,@DPTR
   \   00001D   F5..         MOV     ?V0 + 4,A
   3024            }
   3025          
   3026            pRsp = (ZDO_UserDescRsp_t *)osal_mem_alloc( sizeof ( ZDO_UserDescRsp_t ) + descLen );
   \                     ??ZDO_ParseUserDescRsp_0:
   \   00001F   85..82       MOV     DPL,?V0 + 4
   \   000022   8582..       MOV     ?V0 + 0,DPL
   \   000025                ; Setup parameters for call to function osal_mem_alloc
   \   000025   E5..         MOV     A,?V0 + 0
   \   000027   2404         ADD     A,#0x4
   \   000029   FA           MOV     R2,A
   \   00002A   E4           CLR     A
   \   00002B   3400         ADDC    A,#0x0
   \   00002D   FB           MOV     R3,A
   \   00002E   12....       LCALL   ??osal_mem_alloc?relay
   \   000031   8A..         MOV     ?V0 + 6,R2
   \   000033   8B..         MOV     ?V0 + 7,R3
   \   000035   AE..         MOV     R6,?V0 + 6
   \   000037   AF..         MOV     R7,?V0 + 7
   3027            if ( pRsp )
   \   000039   EE           MOV     A,R6
   \   00003A   4F           ORL     A,R7
   \   00003B   603A         JZ      ??ZDO_ParseUserDescRsp_1
   3028            {
   3029              pRsp->status = msg[0];
   \   00003D   85..82       MOV     DPL,?V0 + 2
   \   000040   85..83       MOV     DPH,?V0 + 3
   \   000043   12....       LCALL   ??Subroutine226_0 & 0xFFFF
   \                     ??CrossCallReturnLabel_577:
   \   000046   12....       LCALL   ?Subroutine161 & 0xFFFF
   3030              pRsp->nwkAddr = BUILD_UINT16( msg[1], msg[2] );
   \                     ??CrossCallReturnLabel_258:
   \   000049   12....       LCALL   ?Subroutine92 & 0xFFFF
   \                     ??CrossCallReturnLabel_155:
   \   00004C   12....       LCALL   ?Subroutine24 & 0xFFFF
   3031              pRsp->length = descLen;
   3032              if ( descLen )
   \                     ??CrossCallReturnLabel_545:
   \   00004F   6026         JZ      ??ZDO_ParseUserDescRsp_1
   3033              {
   3034                osal_memcpy( pRsp->desc, &msg[4], descLen );
   \   000051                ; Setup parameters for call to function osal_memcpy
   \   000051   E5..         MOV     A,?V0 + 2
   \   000053   2404         ADD     A,#0x4
   \   000055   F5..         MOV     ?V0 + 4,A
   \   000057   E5..         MOV     A,?V0 + 3
   \   000059   12....       LCALL   ??Subroutine228_0 & 0xFFFF
   3035              }
   3036            }
   \                     ??CrossCallReturnLabel_588:
   \   00005C   88..         MOV     ?V0 + 6,R0
   \   00005E   78..         MOV     R0,#?V0 + 4
   \   000060   12....       LCALL   ?PUSH_XSTACK_I_THREE
   \   000063   AC..         MOV     R4,?V0 + 0
   \   000065   7D00         MOV     R5,#0x0
   \   000067   EE           MOV     A,R6
   \   000068   2404         ADD     A,#0x4
   \   00006A   FA           MOV     R2,A
   \   00006B   EF           MOV     A,R7
   \   00006C   3400         ADDC    A,#0x0
   \   00006E   FB           MOV     R3,A
   \   00006F   12....       LCALL   ??osal_memcpy?relay
   \   000072   7403         MOV     A,#0x3
   \   000074   12....       LCALL   ?DEALLOC_XSTACK8
   3037          
   3038            return ( pRsp );
   \                     ??ZDO_ParseUserDescRsp_1:
   \   000077   02....       LJMP    ?Subroutine8 & 0xFFFF
   3039          }
   3040          
   3041          /*********************************************************************
   3042           * @fn          ZDO_ParseSimpleDescBuf
   3043           *
   3044           * @brief       Parse a byte sequence representation of a Simple Descriptor.
   3045           *
   3046           * @param       buf  - pointer to a byte array representing a Simple Desc.
   3047           * @param       desc - SimpleDescriptionFormat_t *
   3048           *
   3049           *              This routine allocates storage for the cluster IDs because
   3050           *              they are 16-bit and need to be aligned to be properly processed.
   3051           *              This routine returns non-zero if an allocation fails.
   3052           *
   3053           *              NOTE: This means that the caller or user of the input structure
   3054           *                    is responsible for freeing the memory
   3055           *
   3056           * @return      0: success
   3057           *              1: failure due to malloc failure.
   3058           */

   \                                 In  segment BANKED_CODE, align 1, keep-with-next
   3059          uint8 ZDO_ParseSimpleDescBuf( uint8 *buf, SimpleDescriptionFormat_t *desc )
   \                     ZDO_ParseSimpleDescBuf:
   3060          {
   \   000000   74F0         MOV     A,#-0x10
   \   000002   12....       LCALL   ?BANKED_ENTER_XDATA
   \   000005                ; Saved register size: 16
   \   000005                ; Auto size: 0
   \   000005   EA           MOV     A,R2
   \   000006   FE           MOV     R6,A
   \   000007   EB           MOV     A,R3
   \   000008   FF           MOV     R7,A
   \   000009   8C..         MOV     ?V0 + 0,R4
   \   00000B   8D..         MOV     ?V0 + 1,R5
   3061            uint8 num, i;
   3062          
   3063            desc->EndPoint = *buf++;
   \   00000D   8E82         MOV     DPL,R6
   \   00000F   8F83         MOV     DPH,R7
   \   000011   12....       LCALL   ?Subroutine165 & 0xFFFF
   \                     ??CrossCallReturnLabel_264:
   \   000014   12....       LCALL   ?Subroutine29 & 0xFFFF
   3064            desc->AppProfId = BUILD_UINT16( buf[0], buf[1] );
   \                     ??CrossCallReturnLabel_30:
   \   000017   8C82         MOV     DPL,R4
   \   000019   8D83         MOV     DPH,R5
   \   00001B   12....       LCALL   ??Subroutine231_0 & 0xFFFF
   3065            buf += 2;
   3066            desc->AppDeviceId = BUILD_UINT16( buf[0], buf[1] );
   \                     ??CrossCallReturnLabel_614:
   \   00001E   12....       LCALL   ?Subroutine80 & 0xFFFF
   \                     ??CrossCallReturnLabel_610:
   \   000021   12....       LCALL   ?Subroutine13 & 0xFFFF
   3067            buf += 2;
   3068            desc->AppDevVer = *buf >> 4;
   \                     ??CrossCallReturnLabel_613:
   \   000024   C4           SWAP    A
   \   000025   540F         ANL     A,#0xf
   3069          
   3070            desc->Reserved = 0;
   \   000027   8C82         MOV     DPL,R4
   \   000029   8D83         MOV     DPH,R5
   \   00002B   A3           INC     DPTR
   \   00002C   A3           INC     DPTR
   \   00002D   A3           INC     DPTR
   \   00002E   A3           INC     DPTR
   \   00002F   A3           INC     DPTR
   \   000030   12....       LCALL   ?Subroutine132 & 0xFFFF
   3071            buf++;
   3072          
   3073            // move in input cluster list (if any). allocate aligned memory.
   3074            num = desc->AppNumInClusters = *buf++;
   \                     ??CrossCallReturnLabel_549:
   \   000033   E0           MOVX    A,@DPTR
   \   000034   F5..         MOV     ?V0 + 4,A
   \   000036   A3           INC     DPTR
   \   000037   0E           INC     R6
   \   000038   0E           INC     R6
   \   000039   AF83         MOV     R7,DPH
   \   00003B   8C82         MOV     DPL,R4
   \   00003D   8D83         MOV     DPH,R5
   \   00003F   A3           INC     DPTR
   \   000040   A3           INC     DPTR
   \   000041   A3           INC     DPTR
   \   000042   A3           INC     DPTR
   \   000043   A3           INC     DPTR
   \   000044   A3           INC     DPTR
   \   000045   F0           MOVX    @DPTR,A
   3075            if ( num )
   \   000046   EC           MOV     A,R4
   \   000047   2407         ADD     A,#0x7
   \   000049   F5..         MOV     ?V0 + 2,A
   \   00004B   ED           MOV     A,R5
   \   00004C   12....       LCALL   ??Subroutine188_0 & 0xFFFF
   \                     ??CrossCallReturnLabel_334:
   \   00004F   E5..         MOV     A,?V0 + 4
   \   000051   6053         JZ      ??ZDO_ParseSimpleDescBuf_0
   3076            {
   3077              if (!(desc->pAppInClusterList = (uint16 *)osal_mem_alloc(num*sizeof(uint16))))
   \   000053                ; Setup parameters for call to function osal_mem_alloc
   \   000053   C3           CLR     C
   \   000054   33           RLC     A
   \   000055   FA           MOV     R2,A
   \   000056   E4           CLR     A
   \   000057   33           RLC     A
   \   000058   FB           MOV     R3,A
   \   000059   12....       LCALL   ??osal_mem_alloc?relay
   \   00005C   85..82       MOV     DPL,?V0 + 2
   \   00005F   85..83       MOV     DPH,?V0 + 3
   \   000062   12....       LCALL   ?Subroutine40 & 0xFFFF
   \                     ??CrossCallReturnLabel_63:
   \   000065   85..82       MOV     DPL,?V0 + 2
   \   000068   85..83       MOV     DPH,?V0 + 3
   \   00006B   12....       LCALL   ??Subroutine197_0 & 0xFFFF
   \                     ??CrossCallReturnLabel_406:
   \   00006E   7003         JNZ     $+5
   \   000070   02....       LJMP    ??ZDO_ParseSimpleDescBuf_1 & 0xFFFF
   3078              {
   3079                // malloc failed. we're done.
   3080                return 1;
   3081              }
   3082              for (i=0; i<num; ++i)
   \   000073   7C00         MOV     R4,#0x0
   \   000075   8029         SJMP    ??CrossCallReturnLabel_77
   3083              {
   3084                desc->pAppInClusterList[i] = BUILD_UINT16( buf[0], buf[1] );
   \                     ??ZDO_ParseSimpleDescBuf_2:
   \   000077   8E82         MOV     DPL,R6
   \   000079   8F83         MOV     DPH,R7
   \   00007B   E0           MOVX    A,@DPTR
   \   00007C   F5..         MOV     ?V0 + 6,A
   \   00007E   A3           INC     DPTR
   \   00007F   E0           MOVX    A,@DPTR
   \   000080   FB           MOV     R3,A
   \   000081   E5..         MOV     A,?V0 + 6
   \   000083   2400         ADD     A,#0x0
   \   000085   E4           CLR     A
   \   000086   3B           ADDC    A,R3
   \   000087   F5..         MOV     ?V0 + 7,A
   \   000089   EC           MOV     A,R4
   \   00008A   33           RLC     A
   \   00008B   FA           MOV     R2,A
   \   00008C   E4           CLR     A
   \   00008D   33           RLC     A
   \   00008E   FB           MOV     R3,A
   \   00008F   E8           MOV     A,R0
   \   000090   2A           ADD     A,R2
   \   000091   F582         MOV     DPL,A
   \   000093   E9           MOV     A,R1
   \   000094   3B           ADDC    A,R3
   \   000095   F583         MOV     DPH,A
   \   000097   E5..         MOV     A,?V0 + 6
   \   000099   F0           MOVX    @DPTR,A
   \   00009A   A3           INC     DPTR
   \   00009B   E5..         MOV     A,?V0 + 7
   \   00009D   12....       LCALL   ?Subroutine46 & 0xFFFF
   3085                buf += 2;
   3086              }
   \                     ??CrossCallReturnLabel_77:
   \   0000A0   EC           MOV     A,R4
   \   0000A1   C3           CLR     C
   \   0000A2   95..         SUBB    A,?V0 + 4
   \   0000A4   40D1         JC      ??ZDO_ParseSimpleDescBuf_2
   3087            }
   3088          
   3089            // move in output cluster list (if any). allocate aligned memory.
   3090            num = desc->AppNumOutClusters = *buf++;
   \                     ??ZDO_ParseSimpleDescBuf_0:
   \   0000A6   8E82         MOV     DPL,R6
   \   0000A8   8F83         MOV     DPH,R7
   \   0000AA   E0           MOVX    A,@DPTR
   \   0000AB   F5..         MOV     ?V0 + 4,A
   \   0000AD   A3           INC     DPTR
   \   0000AE   AE82         MOV     R6,DPL
   \   0000B0   AF83         MOV     R7,DPH
   \   0000B2   85..82       MOV     DPL,?V0 + 0
   \   0000B5   85..83       MOV     DPH,?V0 + 1
   \   0000B8   A3           INC     DPTR
   \   0000B9   A3           INC     DPTR
   \   0000BA   A3           INC     DPTR
   \   0000BB   A3           INC     DPTR
   \   0000BC   A3           INC     DPTR
   \   0000BD   A3           INC     DPTR
   \   0000BE   A3           INC     DPTR
   \   0000BF   A3           INC     DPTR
   \   0000C0   A3           INC     DPTR
   \   0000C1   F0           MOVX    @DPTR,A
   3091            if (num)
   \   0000C2   607A         JZ      ??ZDO_ParseSimpleDescBuf_3
   3092            {
   3093              if (!(desc->pAppOutClusterList = (uint16 *)osal_mem_alloc(num*sizeof(uint16))))
   \   0000C4   E5..         MOV     A,?V0 + 0
   \   0000C6   240A         ADD     A,#0xa
   \   0000C8   F8           MOV     R0,A
   \   0000C9   E5..         MOV     A,?V0 + 1
   \   0000CB   3400         ADDC    A,#0x0
   \   0000CD   F9           MOV     R1,A
   \   0000CE   88..         MOV     ?V0 + 0,R0
   \   0000D0   89..         MOV     ?V0 + 1,R1
   \   0000D2                ; Setup parameters for call to function osal_mem_alloc
   \   0000D2   E5..         MOV     A,?V0 + 4
   \   0000D4   C3           CLR     C
   \   0000D5   33           RLC     A
   \   0000D6   FA           MOV     R2,A
   \   0000D7   E4           CLR     A
   \   0000D8   33           RLC     A
   \   0000D9   FB           MOV     R3,A
   \   0000DA   12....       LCALL   ??osal_mem_alloc?relay
   \   0000DD   85..82       MOV     DPL,?V0 + 0
   \   0000E0   85..83       MOV     DPH,?V0 + 1
   \   0000E3   12....       LCALL   ?Subroutine40 & 0xFFFF
   \                     ??CrossCallReturnLabel_64:
   \   0000E6   85..82       MOV     DPL,?V0 + 0
   \   0000E9   85..83       MOV     DPH,?V0 + 1
   \   0000EC   12....       LCALL   ??Subroutine197_0 & 0xFFFF
   \                     ??CrossCallReturnLabel_407:
   \   0000EF   701C         JNZ     ??ZDO_ParseSimpleDescBuf_4
   3094              {
   3095                // malloc failed. free input cluster list memory if there is any
   3096                if ( desc->pAppInClusterList != NULL )
   \   0000F1   85..82       MOV     DPL,?V0 + 2
   \   0000F4   85..83       MOV     DPH,?V0 + 3
   \   0000F7   12....       LCALL   ??Subroutine182_0 & 0xFFFF
   \                     ??CrossCallReturnLabel_284:
   \   0000FA   600D         JZ      ??ZDO_ParseSimpleDescBuf_1
   3097                {
   3098                  osal_mem_free(desc->pAppInClusterList);
   \   0000FC                ; Setup parameters for call to function osal_mem_free
   \   0000FC   12....       LCALL   ??osal_mem_free?relay
   3099          
   3100                  desc->pAppInClusterList = NULL;
   \   0000FF   85..82       MOV     DPL,?V0 + 2
   \   000102   85..83       MOV     DPH,?V0 + 3
   \   000105   E4           CLR     A
   \   000106   F0           MOVX    @DPTR,A
   \   000107   A3           INC     DPTR
   \   000108   F0           MOVX    @DPTR,A
   3101                }
   3102                return 1;
   \                     ??ZDO_ParseSimpleDescBuf_1:
   \   000109   7901         MOV     R1,#0x1
   \   00010B   8033         SJMP    ??ZDO_ParseSimpleDescBuf_5
   3103              }
   3104              for (i=0; i<num; ++i)
   \                     ??ZDO_ParseSimpleDescBuf_4:
   \   00010D   7C00         MOV     R4,#0x0
   \   00010F   8027         SJMP    ??CrossCallReturnLabel_78
   3105              {
   3106                desc->pAppOutClusterList[i] = BUILD_UINT16( buf[0], buf[1] );
   \                     ??ZDO_ParseSimpleDescBuf_6:
   \   000111   8E82         MOV     DPL,R6
   \   000113   8F83         MOV     DPH,R7
   \   000115   12....       LCALL   ?Subroutine91 & 0xFFFF
   3107                buf += 2;
   3108              }
   \                     ??CrossCallReturnLabel_153:
   \   000118   FB           MOV     R3,A
   \   000119   E5..         MOV     A,?V0 + 0
   \   00011B   2400         ADD     A,#0x0
   \   00011D   E4           CLR     A
   \   00011E   3B           ADDC    A,R3
   \   00011F   F5..         MOV     ?V0 + 1,A
   \   000121   EC           MOV     A,R4
   \   000122   33           RLC     A
   \   000123   FA           MOV     R2,A
   \   000124   E4           CLR     A
   \   000125   33           RLC     A
   \   000126   FB           MOV     R3,A
   \   000127   E8           MOV     A,R0
   \   000128   2A           ADD     A,R2
   \   000129   F582         MOV     DPL,A
   \   00012B   E9           MOV     A,R1
   \   00012C   3B           ADDC    A,R3
   \   00012D   F583         MOV     DPH,A
   \   00012F   E5..         MOV     A,?V0 + 0
   \   000131   F0           MOVX    @DPTR,A
   \   000132   A3           INC     DPTR
   \   000133   E5..         MOV     A,?V0 + 1
   \   000135   12....       LCALL   ?Subroutine46 & 0xFFFF
   \                     ??CrossCallReturnLabel_78:
   \   000138   EC           MOV     A,R4
   \   000139   C3           CLR     C
   \   00013A   95..         SUBB    A,?V0 + 4
   \   00013C   40D3         JC      ??ZDO_ParseSimpleDescBuf_6
   3109            }
   3110            return 0;
   \                     ??ZDO_ParseSimpleDescBuf_3:
   \   00013E   7900         MOV     R1,#0x0
   \                     ??ZDO_ParseSimpleDescBuf_5:
   \   000140   02....       LJMP    ??Subroutine190_0 & 0xFFFF
   3111          }

   \                                 In  segment BANKED_CODE, align 1, keep-with-next
   \                     ?Subroutine80:
   \   000000   FA           MOV     R2,A
   \   000001                REQUIRE ??Subroutine230_0
   \   000001                ; // Fall through to label ??Subroutine230_0

   \                                 In  segment BANKED_CODE, align 1, keep-with-next
   \                     ?Subroutine46:
   \   000000   12....       LCALL   ?Subroutine125 & 0xFFFF
   \                     ??CrossCallReturnLabel_617:
   \   000003   0C           INC     R4
   \   000004   22           RET
   3112          
   3113          /*********************************************************************
   3114           * @fn          ZDO_ParseDeviceAnnce
   3115           *
   3116           * @brief       Parse a Device Announce message.
   3117           *
   3118           * @param       inMsg - Incoming message
   3119           * @param       pAnnce - place to put the parsed information
   3120           *
   3121           * @return      none
   3122           */

   \                                 In  segment BANKED_CODE, align 1, keep-with-next
   3123          void ZDO_ParseDeviceAnnce( zdoIncomingMsg_t *inMsg, ZDO_DeviceAnnce_t *pAnnce )
   \                     ZDO_ParseDeviceAnnce:
   3124          {
   \   000000   74F6         MOV     A,#-0xa
   \   000002   12....       LCALL   ?BANKED_ENTER_XDATA
   \   000005                ; Saved register size: 10
   \   000005                ; Auto size: 0
   \   000005   8C..         MOV     ?V0 + 0,R4
   \   000007   8D..         MOV     ?V0 + 1,R5
   3125            uint8 *msg;
   3126          
   3127            // Parse incoming message
   3128            msg = inMsg->asdu;
   \   000009   12....       LCALL   ?Subroutine103 & 0xFFFF
   \                     ??CrossCallReturnLabel_174:
   \   00000C   12....       LCALL   ?Subroutine99 & 0xFFFF
   \                     ??CrossCallReturnLabel_167:
   \   00000F   FF           MOV     R7,A
   3129            pAnnce->nwkAddr = BUILD_UINT16( msg[0], msg[1] );
   \   000010   8E82         MOV     DPL,R6
   \   000012   8F83         MOV     DPH,R7
   \   000014   E0           MOVX    A,@DPTR
   \   000015   12....       LCALL   ?Subroutine80 & 0xFFFF
   \                     ??CrossCallReturnLabel_611:
   \   000018   12....       LCALL   ?Subroutine34 & 0xFFFF
   3130            msg += 2;
   3131            osal_cpyExtAddr( pAnnce->extAddr, msg );
   \                     ??CrossCallReturnLabel_39:
   \   00001B                ; Setup parameters for call to function sAddrExtCpy
   \   00001B   EE           MOV     A,R6
   \   00001C   FC           MOV     R4,A
   \   00001D   EF           MOV     A,R7
   \   00001E   FD           MOV     R5,A
   \   00001F   E5..         MOV     A,?V0 + 0
   \   000021   2402         ADD     A,#0x2
   \   000023   FA           MOV     R2,A
   \   000024   E5..         MOV     A,?V0 + 1
   \   000026   3400         ADDC    A,#0x0
   \   000028   FB           MOV     R3,A
   \   000029   12....       LCALL   ??sAddrExtCpy?relay
   3132            msg += Z_EXTADDR_LEN;
   3133            pAnnce->capabilities = *msg;
   \   00002C   8E82         MOV     DPL,R6
   \   00002E   8F83         MOV     DPH,R7
   \   000030   A3           INC     DPTR
   \   000031   A3           INC     DPTR
   \   000032   A3           INC     DPTR
   \   000033   A3           INC     DPTR
   \   000034   A3           INC     DPTR
   \   000035   A3           INC     DPTR
   \   000036   A3           INC     DPTR
   \   000037   A3           INC     DPTR
   \   000038   12....       LCALL   ?Subroutine74 & 0xFFFF
   \                     ??CrossCallReturnLabel_125:
   \   00003B   A3           INC     DPTR
   \   00003C   A3           INC     DPTR
   \   00003D   F0           MOVX    @DPTR,A
   3134          }
   \   00003E   02....       LJMP    ??Subroutine176_0 & 0xFFFF
   3135          
   3136          /*********************************************************************
   3137           * @fn          ZDO_ParseMgmtNwkUpdateNotify
   3138           *
   3139           * @brief       This function handles parsing of the incoming Management
   3140           *              Network Update notify.
   3141           *
   3142           * @param       inMsg - incoming message (request)
   3143           *
   3144           * @return      a pointer to parsed response structure (NULL if not allocated).
   3145           *          This structure was allocated using osal_mem_alloc, so it must be freed
   3146           *          by the calling function [osal_mem_free()].
   3147           */

   \                                 In  segment BANKED_CODE, align 1, keep-with-next
   3148          ZDO_MgmtNwkUpdateNotify_t *ZDO_ParseMgmtNwkUpdateNotify( zdoIncomingMsg_t *inMsg )
   \                     ZDO_ParseMgmtNwkUpdateNotify:
   3149          {
   \   000000   74E8         MOV     A,#-0x18
   \   000002   12....       LCALL   ?BANKED_ENTER_XDATA
   \   000005                ; Saved register size: 24
   \   000005                ; Auto size: 0
   3150            uint8 status;
   3151            uint32 scannedChannels = 0;
   \   000005   75..00       MOV     ?V0 + 4,#0x0
   \   000008   75..00       MOV     ?V0 + 5,#0x0
   \   00000B   75..00       MOV     ?V0 + 6,#0x0
   \   00000E   75..00       MOV     ?V0 + 7,#0x0
   3152            uint16 totalTransmissions = 0;
   \   000011   75..00       MOV     ?V0 + 0,#0x0
   \   000014   75..00       MOV     ?V0 + 1,#0x0
   3153            uint16 transmissionFailures = 0;
   \   000017   75..00       MOV     ?V0 + 2,#0x0
   \   00001A   75..00       MOV     ?V0 + 3,#0x0
   3154            uint8 listCount = 0;
   \   00001D   75..00       MOV     ?V0 + 10,#0x0
   3155            uint8 *msg = inMsg->asdu;
   \   000020   12....       LCALL   ?Subroutine61 & 0xFFFF
   3156            ZDO_MgmtNwkUpdateNotify_t *pRsp;
   3157          
   3158            status = *msg++;
   \                     ??CrossCallReturnLabel_571:
   \   000023   F5..         MOV     ?V0 + 11,A
   \   000025   A3           INC     DPTR
   \   000026   AE82         MOV     R6,DPL
   \   000028   AF83         MOV     R7,DPH
   3159            if ( status == ZSuccess )
   \   00002A   7035         JNZ     ??ZDO_ParseMgmtNwkUpdateNotify_0
   3160            {
   3161              scannedChannels = osal_build_uint32( msg, 4 );
   \   00002C                ; Setup parameters for call to function osal_build_uint32
   \   00002C   7904         MOV     R1,#0x4
   \   00002E   EE           MOV     A,R6
   \   00002F   FA           MOV     R2,A
   \   000030   EF           MOV     A,R7
   \   000031   FB           MOV     R3,A
   \   000032   12....       LCALL   ??osal_build_uint32?relay
   \   000035   8A..         MOV     ?V0 + 4,R2
   \   000037   8B..         MOV     ?V0 + 5,R3
   \   000039   8C..         MOV     ?V0 + 6,R4
   \   00003B   8D..         MOV     ?V0 + 7,R5
   3162              msg += 4;
   \   00003D   EE           MOV     A,R6
   \   00003E   2404         ADD     A,#0x4
   \   000040   12....       LCALL   ?Subroutine101 & 0xFFFF
   3163              totalTransmissions = BUILD_UINT16( msg[0], msg[1] );
   \                     ??CrossCallReturnLabel_168:
   \   000043   F5..         MOV     ?V0 + 0,A
   \   000045   E4           CLR     A
   \   000046   39           ADDC    A,R1
   \   000047   F5..         MOV     ?V0 + 1,A
   3164              msg += 2;
   \   000049   EE           MOV     A,R6
   \   00004A   2402         ADD     A,#0x2
   \   00004C   12....       LCALL   ?Subroutine101 & 0xFFFF
   3165              transmissionFailures = BUILD_UINT16( msg[0], msg[1] );
   \                     ??CrossCallReturnLabel_169:
   \   00004F   F5..         MOV     ?V0 + 2,A
   \   000051   E4           CLR     A
   \   000052   39           ADDC    A,R1
   \   000053   F5..         MOV     ?V0 + 3,A
   3166              msg += 2;
   \   000055   EE           MOV     A,R6
   \   000056   2402         ADD     A,#0x2
   \   000058   12....       LCALL   ??Subroutine185_0 & 0xFFFF
   3167              listCount = *msg++;
   3168            }
   \                     ??CrossCallReturnLabel_311:
   \   00005B   F5..         MOV     ?V0 + 10,A
   \   00005D   A3           INC     DPTR
   \   00005E   0E           INC     R6
   \   00005F   AF83         MOV     R7,DPH
   3169          
   3170            pRsp = (ZDO_MgmtNwkUpdateNotify_t *)osal_mem_alloc( sizeof ( ZDO_MgmtNwkUpdateNotify_t ) + listCount );
   \                     ??ZDO_ParseMgmtNwkUpdateNotify_0:
   \   000061   85..82       MOV     DPL,?V0 + 10
   \   000064   8582..       MOV     ?V0 + 8,DPL
   \   000067                ; Setup parameters for call to function osal_mem_alloc
   \   000067   E5..         MOV     A,?V0 + 8
   \   000069   240A         ADD     A,#0xa
   \   00006B   FA           MOV     R2,A
   \   00006C   E4           CLR     A
   \   00006D   3400         ADDC    A,#0x0
   \   00006F   FB           MOV     R3,A
   \   000070   12....       LCALL   ??osal_mem_alloc?relay
   \   000073   8A..         MOV     ?V0 + 14,R2
   \   000075   8B..         MOV     ?V0 + 15,R3
   3171          
   3172            if ( pRsp )
   \   000077   EA           MOV     A,R2
   \   000078   45..         ORL     A,?V0 + 15
   \   00007A   604F         JZ      ??ZDO_ParseMgmtNwkUpdateNotify_1
   3173            {
   3174              pRsp->status = status;
   \   00007C   8A82         MOV     DPL,R2
   \   00007E   8B83         MOV     DPH,R3
   \   000080   E5..         MOV     A,?V0 + 11
   \   000082   F0           MOVX    @DPTR,A
   3175              pRsp->scannedChannels = scannedChannels;
   \   000083   A3           INC     DPTR
   \   000084   78..         MOV     R0,#?V0 + 4
   \   000086   12....       LCALL   ?L_MOV_TO_X
   3176              pRsp->totalTransmissions = totalTransmissions;
   \   000089   8A82         MOV     DPL,R2
   \   00008B   8B83         MOV     DPH,R3
   \   00008D   A3           INC     DPTR
   \   00008E   A3           INC     DPTR
   \   00008F   A3           INC     DPTR
   \   000090   A3           INC     DPTR
   \   000091   A3           INC     DPTR
   \   000092   E5..         MOV     A,?V0 + 0
   \   000094   F0           MOVX    @DPTR,A
   \   000095   A3           INC     DPTR
   \   000096   E5..         MOV     A,?V0 + 1
   \   000098   12....       LCALL   ?Subroutine19 & 0xFFFF
   3177              pRsp->transmissionFailures = transmissionFailures;
   \                     ??CrossCallReturnLabel_11:
   \   00009B   E5..         MOV     A,?V0 + 2
   \   00009D   F0           MOVX    @DPTR,A
   \   00009E   A3           INC     DPTR
   \   00009F   E5..         MOV     A,?V0 + 3
   \   0000A1   12....       LCALL   ?Subroutine19 & 0xFFFF
   3178              pRsp->listCount = listCount;
   \                     ??CrossCallReturnLabel_12:
   \   0000A4   A3           INC     DPTR
   \   0000A5   A3           INC     DPTR
   \   0000A6   E5..         MOV     A,?V0 + 10
   \   0000A8   F0           MOVX    @DPTR,A
   3179          
   3180              // Allocate a buffer big enough to handle the list.
   3181              if ( listCount > 0 )
   \   0000A9   6020         JZ      ??ZDO_ParseMgmtNwkUpdateNotify_1
   3182              {
   3183                osal_memcpy( pRsp->energyValues, msg, listCount );
   \   0000AB                ; Setup parameters for call to function osal_memcpy
   \   0000AB   8E..         MOV     ?V0 + 0,R6
   \   0000AD   8F..         MOV     ?V0 + 1,R7
   \   0000AF   75..00       MOV     ?V0 + 2,#0x0
   \   0000B2   78..         MOV     R0,#?V0 + 0
   \   0000B4   12....       LCALL   ?PUSH_XSTACK_I_THREE
   \   0000B7   AC..         MOV     R4,?V0 + 8
   \   0000B9   7D00         MOV     R5,#0x0
   \   0000BB   EA           MOV     A,R2
   \   0000BC   240A         ADD     A,#0xa
   \   0000BE   FA           MOV     R2,A
   \   0000BF   EB           MOV     A,R3
   \   0000C0   3400         ADDC    A,#0x0
   \   0000C2   FB           MOV     R3,A
   \   0000C3   12....       LCALL   ??osal_memcpy?relay
   \   0000C6   7403         MOV     A,#0x3
   \   0000C8   12....       LCALL   ?DEALLOC_XSTACK8
   3184              }
   3185            }
   3186          
   3187            return ( pRsp );
   \                     ??ZDO_ParseMgmtNwkUpdateNotify_1:
   \   0000CB   AA..         MOV     R2,?V0 + 14
   \   0000CD   AB..         MOV     R3,?V0 + 15
   \   0000CF   02....       LJMP    ??Subroutine177_0 & 0xFFFF
   3188          }

   \                                 In  segment BANKED_CODE, align 1, keep-with-next
   \                     ?Subroutine101:
   \   000000   12....       LCALL   ?Subroutine152 & 0xFFFF
   \                     ??CrossCallReturnLabel_452:
   \   000003   12....       LCALL   ?Subroutine140 & 0xFFFF
   \                     ??CrossCallReturnLabel_230:
   \   000006   2400         ADD     A,#0x0
   \   000008   22           RET
   3189          
   3190          /*********************************************************************
   3191           * @fn          ZDO_ParseMgmtNwkUpdateReq
   3192           *
   3193           * @brief       This function handles parsing the incoming Management
   3194           *              Network Update request and starts the request (if needed).
   3195           *
   3196           * @param       inMsg - incoming message (request)
   3197           * @param       pReq - pointer to place to parse message to
   3198           *
   3199           * @return      none
   3200           */

   \                                 In  segment BANKED_CODE, align 1, keep-with-next
   3201          void ZDO_ParseMgmtNwkUpdateReq( zdoIncomingMsg_t *inMsg, ZDO_MgmtNwkUpdateReq_t *pReq )
   \                     ZDO_ParseMgmtNwkUpdateReq:
   3202          {
   \   000000   74F6         MOV     A,#-0xa
   \   000002   12....       LCALL   ?BANKED_ENTER_XDATA
   \   000005                ; Saved register size: 10
   \   000005                ; Auto size: 0
   \   000005   8C..         MOV     ?V0 + 0,R4
   \   000007   8D..         MOV     ?V0 + 1,R5
   3203            uint8 *msg = inMsg->asdu;
   \   000009   12....       LCALL   ?Subroutine81 & 0xFFFF
   3204          
   3205            pReq->channelMask = osal_build_uint32( msg, 4 );
   \                     ??CrossCallReturnLabel_134:
   \   00000C   12....       LCALL   ??osal_build_uint32?relay
   \   00000F   85..82       MOV     DPL,?V0 + 0
   \   000012   85..83       MOV     DPH,?V0 + 1
   \   000015   12....       LCALL   ?XSTORE_R2345
   3206            msg += 4;
   \   000018   12....       LCALL   ?Subroutine111 & 0xFFFF
   3207            pReq->scanDuration = *msg++;
   \                     ??CrossCallReturnLabel_310:
   \   00001B   FA           MOV     R2,A
   \   00001C   E5..         MOV     A,?V0 + 0
   \   00001E   2404         ADD     A,#0x4
   \   000020   F8           MOV     R0,A
   \   000021   E5..         MOV     A,?V0 + 1
   \   000023   3400         ADDC    A,#0x0
   \   000025   F9           MOV     R1,A
   \   000026   EA           MOV     A,R2
   \   000027   8882         MOV     DPL,R0
   \   000029   8983         MOV     DPH,R1
   \   00002B   12....       LCALL   ?Subroutine47 & 0xFFFF
   3208          
   3209            if ( pReq->scanDuration <= 0x05 )
   \                     ??CrossCallReturnLabel_80:
   \   00002E   C3           CLR     C
   \   00002F   9406         SUBB    A,#0x6
   \   000031   5005         JNC     ??ZDO_ParseMgmtNwkUpdateReq_0
   3210            {
   3211              // Request is to scan over channelMask
   3212              pReq->scanCount = *msg;
   \   000033   12....       LCALL   ?Subroutine75 & 0xFFFF
   3213            }
   \                     ??CrossCallReturnLabel_127:
   \   000036   801F         SJMP    ??ZDO_ParseMgmtNwkUpdateReq_1
   3214            else if ( ( pReq->scanDuration == 0xFE ) || ( pReq->scanDuration == 0xFF ) )
   \                     ??ZDO_ParseMgmtNwkUpdateReq_0:
   \   000038   74FE         MOV     A,#-0x2
   \   00003A   6A           XRL     A,R2
   \   00003B   6005         JZ      ??ZDO_ParseMgmtNwkUpdateReq_2
   \   00003D   74FF         MOV     A,#-0x1
   \   00003F   6A           XRL     A,R2
   \   000040   7016         JNZ     ??ZDO_ParseMgmtNwkUpdateReq_3
   3215            {
   3216              // Request is to change Channel (0xFE) or apsChannelMask and NwkManagerAddr (0xFF)
   3217              pReq->nwkUpdateId = *msg++;
   \                     ??ZDO_ParseMgmtNwkUpdateReq_2:
   \   000042   12....       LCALL   ?Subroutine75 & 0xFFFF
   \                     ??CrossCallReturnLabel_128:
   \   000045   A3           INC     DPTR
   \   000046   12....       LCALL   ?Subroutine48 & 0xFFFF
   3218          
   3219              if ( pReq->scanDuration == 0xFF )
   \                     ??CrossCallReturnLabel_82:
   \   000049   8882         MOV     DPL,R0
   \   00004B   8983         MOV     DPH,R1
   \   00004D   E0           MOVX    A,@DPTR
   \   00004E   F4           CPL     A
   \   00004F   7007         JNZ     ??ZDO_ParseMgmtNwkUpdateReq_3
   3220              {
   3221                pReq->nwkManagerAddr = BUILD_UINT16( msg[0], msg[1] );
   \   000051   12....       LCALL   ?Subroutine64 & 0xFFFF
   3222              }
   3223            }
   \                     ??CrossCallReturnLabel_108:
   \   000054   F0           MOVX    @DPTR,A
   \   000055   A3           INC     DPTR
   \   000056   E9           MOV     A,R1
   \                     ??ZDO_ParseMgmtNwkUpdateReq_1:
   \   000057   F0           MOVX    @DPTR,A
   3224          }
   \                     ??ZDO_ParseMgmtNwkUpdateReq_3:
   \   000058   02....       LJMP    ??Subroutine176_0 & 0xFFFF

   \                                 In  segment BANK_RELAYS, align 1
   \                     ??ZDO_Init?relay:
   \   000000   12....       LCALL   ?BDISPATCH
   \   000003   ......       DC24    ZDO_Init

   \                                 In  segment BANK_RELAYS, align 1
   \                     ??ZDO_StartDevice?relay:
   \   000000   12....       LCALL   ?BDISPATCH
   \   000003   ......       DC24    ZDO_StartDevice

   \                                 In  segment BANK_RELAYS, align 1
   \                     ??ZDO_UpdateNwkStatus?relay:
   \   000000   12....       LCALL   ?BDISPATCH
   \   000003   ......       DC24    ZDO_UpdateNwkStatus

   \                                 In  segment BANK_RELAYS, align 1
   \                     ??ZDO_CompareClusterLists?relay:
   \   000000   12....       LCALL   ?BDISPATCH
   \   000003   ......       DC24    ZDO_CompareClusterLists

   \                                 In  segment BANK_RELAYS, align 1
   \                     ??ZDO_AnyClusterMatches?relay:
   \   000000   12....       LCALL   ?BDISPATCH
   \   000003   ......       DC24    ZDO_AnyClusterMatches

   \                                 In  segment BANK_RELAYS, align 1
   \                     ??ZDO_ProcessNodeDescReq?relay:
   \   000000   12....       LCALL   ?BDISPATCH
   \   000003   ......       DC24    ZDO_ProcessNodeDescReq

   \                                 In  segment BANK_RELAYS, align 1
   \                     ??ZDO_ProcessPowerDescReq?relay:
   \   000000   12....       LCALL   ?BDISPATCH
   \   000003   ......       DC24    ZDO_ProcessPowerDescReq

   \                                 In  segment BANK_RELAYS, align 1
   \                     ??ZDO_ProcessSimpleDescReq?relay:
   \   000000   12....       LCALL   ?BDISPATCH
   \   000003   ......       DC24    ZDO_ProcessSimpleDescReq

   \                                 In  segment BANK_RELAYS, align 1
   \                     ??ZDO_ProcessActiveEPReq?relay:
   \   000000   12....       LCALL   ?BDISPATCH
   \   000003   ......       DC24    ZDO_ProcessActiveEPReq

   \                                 In  segment BANK_RELAYS, align 1
   \                     ??ZDO_ConvertOTAClusters?relay:
   \   000000   12....       LCALL   ?BDISPATCH
   \   000003   ......       DC24    ZDO_ConvertOTAClusters

   \                                 In  segment BANK_RELAYS, align 1
   \                     ??ZDO_ProcessMatchDescReq?relay:
   \   000000   12....       LCALL   ?BDISPATCH
   \   000003   ......       DC24    ZDO_ProcessMatchDescReq

   \                                 In  segment BANK_RELAYS, align 1
   \                     ??ZDO_ProcessBindUnbindReq?relay:
   \   000000   12....       LCALL   ?BDISPATCH
   \   000003   ......       DC24    ZDO_ProcessBindUnbindReq

   \                                 In  segment BANK_RELAYS, align 1
   \                     ??ZDO_UpdateAddrManager?relay:
   \   000000   12....       LCALL   ?BDISPATCH
   \   000003   ......       DC24    ZDO_UpdateAddrManager

   \                                 In  segment BANK_RELAYS, align 1
   \                     ??ZDO_ProcessServerDiscReq?relay:
   \   000000   12....       LCALL   ?BDISPATCH
   \   000003   ......       DC24    ZDO_ProcessServerDiscReq

   \                                 In  segment BANK_RELAYS, align 1
   \                     ??ZDO_EndDeviceTimeoutCB?relay:
   \   000000   12....       LCALL   ?BDISPATCH
   \   000003   ......       DC24    ZDO_EndDeviceTimeoutCB

   \                                 In  segment BANK_RELAYS, align 1
   \                     ??ZDO_ProcessMgmtLqiReq?relay:
   \   000000   12....       LCALL   ?BDISPATCH
   \   000003   ......       DC24    ZDO_ProcessMgmtLqiReq

   \                                 In  segment BANK_RELAYS, align 1
   \                     ??ZDO_ProcessMgmtNwkDiscReq?relay:
   \   000000   12....       LCALL   ?BDISPATCH
   \   000003   ......       DC24    ZDO_ProcessMgmtNwkDiscReq

   \                                 In  segment BANK_RELAYS, align 1
   \                     ??ZDO_ProcessMgmtRtgReq?relay:
   \   000000   12....       LCALL   ?BDISPATCH
   \   000003   ......       DC24    ZDO_ProcessMgmtRtgReq

   \                                 In  segment BANK_RELAYS, align 1
   \                     ??ZDO_ProcessMgmtBindReq?relay:
   \   000000   12....       LCALL   ?BDISPATCH
   \   000003   ......       DC24    ZDO_ProcessMgmtBindReq

   \                                 In  segment BANK_RELAYS, align 1
   \                     ??ZDO_ProcessMgmtDirectJoinReq?relay:
   \   000000   12....       LCALL   ?BDISPATCH
   \   000003   ......       DC24    ZDO_ProcessMgmtDirectJoinReq

   \                                 In  segment BANK_RELAYS, align 1
   \                     ??ZDO_ProcessMgmtLeaveReq?relay:
   \   000000   12....       LCALL   ?BDISPATCH
   \   000003   ......       DC24    ZDO_ProcessMgmtLeaveReq

   \                                 In  segment BANK_RELAYS, align 1
   \                     ??ZDO_ProcessMgmtPermitJoinReq?relay:
   \   000000   12....       LCALL   ?BDISPATCH
   \   000003   ......       DC24    ZDO_ProcessMgmtPermitJoinReq

   \                                 In  segment BANK_RELAYS, align 1
   \                     ??NLME_PermitJoiningTimeout?relay:
   \   000000   12....       LCALL   ?BDISPATCH
   \   000003   ......       DC24    NLME_PermitJoiningTimeout

   \                                 In  segment BANK_RELAYS, align 1
   \                     ??ZDO_ProcessUserDescReq?relay:
   \   000000   12....       LCALL   ?BDISPATCH
   \   000003   ......       DC24    ZDO_ProcessUserDescReq

   \                                 In  segment BANK_RELAYS, align 1
   \                     ??ZDO_ProcessUserDescSet?relay:
   \   000000   12....       LCALL   ?BDISPATCH
   \   000003   ......       DC24    ZDO_ProcessUserDescSet

   \                                 In  segment BANK_RELAYS, align 1
   \                     ??ZDO_ProcessDeviceAnnce?relay:
   \   000000   12....       LCALL   ?BDISPATCH
   \   000003   ......       DC24    ZDO_ProcessDeviceAnnce

   \                                 In  segment BANK_RELAYS, align 1
   \                     ??ZDO_BuildSimpleDescBuf?relay:
   \   000000   12....       LCALL   ?BDISPATCH
   \   000003   ......       DC24    ZDO_BuildSimpleDescBuf

   \                                 In  segment BANK_RELAYS, align 1
   \                     ??ZDO_MatchEndDeviceBind?relay:
   \   000000   12....       LCALL   ?BDISPATCH
   \   000003   ......       DC24    ZDO_MatchEndDeviceBind

   \                                 In  segment BANK_RELAYS, align 1
   \                     ??ZDO_RemoveMatchMemory?relay:
   \   000000   12....       LCALL   ?BDISPATCH
   \   000003   ......       DC24    ZDO_RemoveMatchMemory

   \                                 In  segment BANK_RELAYS, align 1
   \                     ??ZDO_CopyMatchInfo?relay:
   \   000000   12....       LCALL   ?BDISPATCH
   \   000003   ......       DC24    ZDO_CopyMatchInfo

   \                                 In  segment BANK_RELAYS, align 1
   \                     ??ZDMatchSendState?relay:
   \   000000   12....       LCALL   ?BDISPATCH
   \   000003   ......       DC24    ZDMatchSendState

   \                                 In  segment BANK_RELAYS, align 1
   \                     ??ZDO_EndDeviceBindMatchTimeoutCB?relay:
   \   000000   12....       LCALL   ?BDISPATCH
   \   000003   ......       DC24    ZDO_EndDeviceBindMatchTimeoutCB

   \                                 In  segment BANK_RELAYS, align 1
   \                     ??ZDO_ParseEndDeviceBindReq?relay:
   \   000000   12....       LCALL   ?BDISPATCH
   \   000003   ......       DC24    ZDO_ParseEndDeviceBindReq

   \                                 In  segment BANK_RELAYS, align 1
   \                     ??ZDO_ParseBindUnbindReq?relay:
   \   000000   12....       LCALL   ?BDISPATCH
   \   000003   ......       DC24    ZDO_ParseBindUnbindReq

   \                                 In  segment BANK_RELAYS, align 1
   \                     ??ZDO_ParseAddrRsp?relay:
   \   000000   12....       LCALL   ?BDISPATCH
   \   000003   ......       DC24    ZDO_ParseAddrRsp

   \                                 In  segment BANK_RELAYS, align 1
   \                     ??ZDO_ParseNodeDescRsp?relay:
   \   000000   12....       LCALL   ?BDISPATCH
   \   000003   ......       DC24    ZDO_ParseNodeDescRsp

   \                                 In  segment BANK_RELAYS, align 1
   \                     ??ZDO_ParsePowerDescRsp?relay:
   \   000000   12....       LCALL   ?BDISPATCH
   \   000003   ......       DC24    ZDO_ParsePowerDescRsp

   \                                 In  segment BANK_RELAYS, align 1
   \                     ??ZDO_ParseSimpleDescRsp?relay:
   \   000000   12....       LCALL   ?BDISPATCH
   \   000003   ......       DC24    ZDO_ParseSimpleDescRsp

   \                                 In  segment BANK_RELAYS, align 1
   \                     ??ZDO_ParseEPListRsp?relay:
   \   000000   12....       LCALL   ?BDISPATCH
   \   000003   ......       DC24    ZDO_ParseEPListRsp

   \                                 In  segment BANK_RELAYS, align 1
   \                     ??ZDO_ParseServerDiscRsp?relay:
   \   000000   12....       LCALL   ?BDISPATCH
   \   000003   ......       DC24    ZDO_ParseServerDiscRsp

   \                                 In  segment BANK_RELAYS, align 1
   \                     ??ZDO_ParseMgmtLqiRsp?relay:
   \   000000   12....       LCALL   ?BDISPATCH
   \   000003   ......       DC24    ZDO_ParseMgmtLqiRsp

   \                                 In  segment BANK_RELAYS, align 1
   \                     ??ZDO_ParseMgmNwkDiscRsp?relay:
   \   000000   12....       LCALL   ?BDISPATCH
   \   000003   ......       DC24    ZDO_ParseMgmNwkDiscRsp

   \                                 In  segment BANK_RELAYS, align 1
   \                     ??ZDO_ParseMgmtRtgRsp?relay:
   \   000000   12....       LCALL   ?BDISPATCH
   \   000003   ......       DC24    ZDO_ParseMgmtRtgRsp

   \                                 In  segment BANK_RELAYS, align 1
   \                     ??ZDO_ParseMgmtBindRsp?relay:
   \   000000   12....       LCALL   ?BDISPATCH
   \   000003   ......       DC24    ZDO_ParseMgmtBindRsp

   \                                 In  segment BANK_RELAYS, align 1
   \                     ??ZDO_ParseUserDescRsp?relay:
   \   000000   12....       LCALL   ?BDISPATCH
   \   000003   ......       DC24    ZDO_ParseUserDescRsp

   \                                 In  segment BANK_RELAYS, align 1
   \                     ??ZDO_ParseSimpleDescBuf?relay:
   \   000000   12....       LCALL   ?BDISPATCH
   \   000003   ......       DC24    ZDO_ParseSimpleDescBuf

   \                                 In  segment BANK_RELAYS, align 1
   \                     ??ZDO_ParseDeviceAnnce?relay:
   \   000000   12....       LCALL   ?BDISPATCH
   \   000003   ......       DC24    ZDO_ParseDeviceAnnce

   \                                 In  segment BANK_RELAYS, align 1
   \                     ??ZDO_ParseMgmtNwkUpdateNotify?relay:
   \   000000   12....       LCALL   ?BDISPATCH
   \   000003   ......       DC24    ZDO_ParseMgmtNwkUpdateNotify

   \                                 In  segment BANK_RELAYS, align 1
   \                     ??ZDO_ParseMgmtNwkUpdateReq?relay:
   \   000000   12....       LCALL   ?BDISPATCH
   \   000003   ......       DC24    ZDO_ParseMgmtNwkUpdateReq

   \                                 In  segment XDATA_ROM_C, align 1
   \                     `?<Constant "StartDevice ERR">`:
   \   000000   53746172     DB "StartDevice ERR"
   \            74446576
   \            69636520
   \            45525200

   \                                 In  segment XDATA_ROM_C, align 1
   \                     `?<Constant "MODE unknown">`:
   \   000000   4D4F4445     DB "MODE unknown"
   \            20756E6B
   \            6E6F776E
   \            00      

   \                                 In  segment XDATA_ROM_C, align 1
   \                     `?<Constant "End Device Bind">`:
   \   000000   456E6420     DB "End Device Bind"
   \            44657669
   \            63652042
   \            696E6400

   \                                 In  segment XDATA_ROM_C, align 1
   \                     `?<Constant "Success Sent">`:
   \   000000   53756363     DB "Success Sent"
   \            65737320
   \            53656E74
   \            00      

   \                                 In  segment XDATA_ROM_C, align 1
   \                     `?<Constant "Timeout">`:
   \   000000   54696D65     DB "Timeout"
   \            6F757400

   \                                 In  segment XDATA_ROM_C, align 1
   \                     `?<Constant "Match Desc Req">`:
   \   000000   4D617463     DB "Match Desc Req"
   \            68204465
   \            73632052
   \            657100  

   \                                 In  segment XDATA_ROM_C, align 1
   \                     `?<Constant "Rsp Sent">`:
   \   000000   52737020     DB "Rsp Sent"
   \            53656E74
   \            00      

   \                                 In  segment XDATA_ROM_C, align 1
   \                     `?<Constant "Rsp Non Matched">`:
   \   000000   52737020     DB "Rsp Non Matched"
   \            4E6F6E20
   \            4D617463
   \            68656400

   \                                 In  segment XDATA_ROM_C, align 1
   \                     `?<Constant "Non Matched">`:
   \   000000   4E6F6E20     DB "Non Matched"
   \            4D617463
   \            68656400
   3225          
   3226          /*********************************************************************
   3227          *********************************************************************/

   Maximum stack usage in bytes:

   ISTACK PSTACK XSTACK Function
   ------ ------ ------ --------
       0      0      0  NLME_PermitJoiningTimeout
       1      0     70  ZDMatchSendState
                          0 0 37 -> APS_SetEndDeviceBindTimeout
                          0 0 37 -> ZDO_RemoveMatchMemory
                          0 0 45 -> ZDP_BindUnbindReq
                          0 0 42 -> ZDP_SendData
                          0 0 37 -> sAddrExtCpy
       0      0     43  ZDO_AnyClusterMatches
       1      0     14  ZDO_BuildSimpleDescBuf
       0      0     44  ZDO_CompareClusterLists
       0      0     39  ZDO_ConvertOTAClusters
       0      0     48  ZDO_CopyMatchInfo
                          0 0 20 -> osal_mem_alloc
                          0 0 20 -> osal_mem_free
                          0 0 23 -> osal_memcpy
       2      0      0  ZDO_EndDeviceBindMatchTimeoutCB
                          2 0  0 -> ZDMatchSendState
       1      0     17  ZDO_EndDeviceTimeoutCB
                          0 0 12 -> HalLcdWriteString
                          0 0 17 -> ZDP_SendData
                          0 0 12 -> osal_mem_free
       2      0      0  ZDO_Init
                          2 0  0 -> APS_ReflectorInit
                          2 0  0 -> NLME_CoordinatorInit
                          2 0  0 -> sAddrExtCpy
       1      0     30  ZDO_MatchEndDeviceBind
                          0 0 25 -> APS_SetEndDeviceBindTimeout
                          0 0 25 -> ZDMatchSendState
                          0 0 29 -> ZDO_CompareClusterLists
                          0 0 25 -> ZDO_CopyMatchInfo
                          0 0 25 -> ZDO_RemoveMatchMemory
                          0 0 30 -> ZDP_SendData
                          0 0 25 -> osal_mem_alloc
                          0 0 28 -> osal_memcpy
                          0 0 25 -> osal_memset
       1      0     14  ZDO_ParseAddrRsp
                          0 0 14 -> osal_mem_alloc
                          0 0 14 -> sAddrExtCpy
       1      0     10  ZDO_ParseBindUnbindReq
                          0 0 10 -> sAddrExtCpy
       1      0     52  ZDO_ParseDeviceAnnce
                          0 0 10 -> sAddrExtCpy
       1      0     19  ZDO_ParseEPListRsp
                          0 0 16 -> osal_mem_alloc
                          0 0 19 -> osal_memcpy
       1      0     18  ZDO_ParseEndDeviceBindReq
                          0 0 18 -> ZDO_ConvertOTAClusters
                          0 0 18 -> osal_mem_alloc
                          0 0 18 -> sAddrExtCpy
       1      0     16  ZDO_ParseMgmNwkDiscRsp
                          0 0 16 -> osal_mem_alloc
                          0 0 16 -> sAddrExtCpy
       1      0     18  ZDO_ParseMgmtBindRsp
                          0 0 18 -> osal_mem_alloc
                          0 0 18 -> sAddrExtCpy
       1      0     16  ZDO_ParseMgmtLqiRsp
                          0 0 16 -> osal_mem_alloc
                          0 0 16 -> sAddrExtCpy
       1      0     27  ZDO_ParseMgmtNwkUpdateNotify
                          0 0 24 -> osal_build_uint32
                          0 0 24 -> osal_mem_alloc
                          0 0 27 -> osal_memcpy
       1      0     10  ZDO_ParseMgmtNwkUpdateReq
                          0 0 10 -> osal_build_uint32
       1      0     14  ZDO_ParseMgmtRtgRsp
                          0 0 14 -> osal_mem_alloc
       2      0     11  ZDO_ParseNodeDescRsp
       1      0     10  ZDO_ParsePowerDescRsp
       1      0      9  ZDO_ParseServerDiscRsp
       1      0     25  ZDO_ParseSimpleDescBuf
                          0 0 16 -> osal_mem_alloc
                          0 0 16 -> osal_mem_free
       1      0      9  ZDO_ParseSimpleDescRsp
                          0 0  9 -> ZDO_ParseSimpleDescBuf
       1      0     19  ZDO_ParseUserDescRsp
                          0 0 16 -> osal_mem_alloc
                          0 0 19 -> osal_memcpy
       0      0     21  ZDO_ProcessActiveEPReq
                          0 0 14 -> NLME_GetShortAddr
                          0 0 21 -> ZDP_EPRsp
                          0 0 14 -> afEndPoints
                          0 0 14 -> afNumEndPoints
       0      0     34  ZDO_ProcessBindUnbindReq
                          0 0 30 -> APSME_BindRequest
                          0 0 29 -> APSME_LookupNwkAddr
                          0 0 30 -> APSME_UnBindRequest
                          0 0 29 -> NLME_GetExtAddr
                          0 0 29 -> ZDApp_NVUpdate
                          0 0 29 -> ZDP_NwkAddrReq
                          0 0 34 -> ZDP_SendData
                          0 0 29 -> sAddrExtCmp
                          0 0 29 -> sAddrExtCpy
       2      0     42  ZDO_ProcessDeviceAnnce
                          0 0 42 -> AddrMgrEntryLookupExt
                          0 0 42 -> AddrMgrEntryLookupNwk
                          0 0 42 -> AddrMgrEntryUpdate
                          0 0 42 -> AddrMgrExtAddrSet
                          0 0 42 -> AssocChangeNwkAddr
                          0 0 42 -> AssocGetWithExt
                          0 0 42 -> AssocRemove
                          0 0 42 -> NLME_CheckNewAddrSet
                          0 0 42 -> NLME_GetCoordExtAddr
                          0 0 42 -> NLME_GetCoordShortAddr
                          0 0 42 -> NLME_GetShortAddr
                          2 0 42 -> NLME_GetShortAddr
                          0 0 42 -> RTG_RemoveRtgEntry
                          0 0 42 -> ZDApp_NVUpdate
                          0 0 42 -> ZDO_ParseDeviceAnnce
                          0 0 42 -> ZMacSetReq
                          0 0 42 -> nwkNeighborRemoveAllStranded
                          0 0 42 -> nwkNeighborUpdateNwkAddr
                          0 0 42 -> osal_memset
                          0 0 42 -> sAddrExtCmp
       1      0     36  ZDO_ProcessMatchDescReq
                          0 0 29 -> HalLcdWriteScreen
                          0 0 29 -> NLME_IsAddressBroadcast
                          0 0 31 -> ZDO_AnyClusterMatches
                          0 0 29 -> ZDO_ConvertOTAClusters
                          0 0 36 -> ZDP_EPRsp
                          0 0 29 -> osal_mem_alloc
                          0 0 29 -> osal_mem_free
                          0 0 32 -> osal_memcpy
                          0 0 29 -> osal_msg_allocate
                          0 0 29 -> osal_msg_send
       0      0     29  ZDO_ProcessMgmtBindReq
                          0 0 24 -> APSME_GetRequest
                          0 0 29 -> ZDP_MgmtBindRsp
                          0 0 24 -> osal_mem_alloc
                          0 0 24 -> osal_mem_free
       1      0     16  ZDO_ProcessMgmtDirectJoinReq
                          0 0 11 -> NLME_DirectJoinRequest
                          0 0 16 -> ZDP_SendData
       1      0     23  ZDO_ProcessMgmtLeaveReq
                          0 0 18 -> AddrMgrExtAddrValid
                          0 0 18 -> NLME_GetExtAddr
                          0 0 18 -> NLME_LeaveReq
                          0 0 23 -> ZDP_SendData
                          0 0 18 -> sAddrExtCmp
       1      0     66  ZDO_ProcessMgmtLqiReq
                          0 0 61 -> AddrMgrEntryLookupNwk
                          0 0 61 -> AssocCount
                          0 0 61 -> AssocFindDevice
                          0 0 61 -> NLME_GetRequest
                          0 0 66 -> ZDP_MgmtLqiRsp
                          0 0 61 -> osal_mem_alloc
                          0 0 61 -> osal_mem_free
                          0 0 61 -> osal_memset
                          0 0 61 -> sAddrExtCpy
       1      0     17  ZDO_ProcessMgmtNwkDiscReq
                          0 0 17 -> NLME_NwkDiscReq2
                          0 0 17 -> NLME_NwkDiscTerm
                          0 0 17 -> osal_build_uint32
       1      0     16  ZDO_ProcessMgmtPermitJoinReq
                          0 0 11 -> NLME_PermitJoiningRequest
                          0 0 16 -> ZDP_SendData
       0      0     26  ZDO_ProcessMgmtRtgReq
                          0 0 21 -> NLME_GetRequest
                          0 0 26 -> ZDP_MgmtRtgRsp
                          0 0 21 -> osal_mem_alloc
                          0 0 21 -> osal_mem_free
       0      0     14  ZDO_ProcessNodeDescReq
                          0 0 14 -> ZDP_GenericRsp
                          0 0 12 -> ZDP_NodeDescMsg
       0      0     14  ZDO_ProcessPowerDescReq
                          0 0 14 -> ZDP_GenericRsp
                          0 0 12 -> ZDP_PowerDescMsg
       0      0     14  ZDO_ProcessServerDiscReq
                          0 0 14 -> ZDP_ServerDiscRsp
       0      0     12  ZDO_ProcessSimpleDescReq
                          0 0 12 -> ZDP_SimpleDescMsg
                          0 0 12 -> afFindSimpleDesc
                          0 0 12 -> osal_mem_free
       0      0     37  ZDO_ProcessUserDescReq
                          0 0 37 -> ZDP_GenericRsp
                          0 0 36 -> ZDP_UserDescRsp
                          0 0 37 -> osal_nv_read
       1      0     41  ZDO_ProcessUserDescSet
                          0 0 41 -> ZDP_SendData
                          0 0 39 -> osal_memcpy
                          0 0 40 -> osal_nv_write
       2      0     37  ZDO_RemoveMatchMemory
                          2 0  0 -> osal_mem_free
       0      0     18  ZDO_StartDevice
                          0 0 11 -> HalLcdWriteScreen
                          0 0 18 -> NLME_NetworkFormationRequest
                          0 0 11 -> NLME_StartRouterRequest
                          0 0 11 -> osal_start_timerEx
       2      0     13  ZDO_UpdateAddrManager
                          2 0 13 -> AddrMgrEntryUpdate
                          2 0 13 -> AddrMgrExtAddrSet
       1      0     12  ZDO_UpdateNwkStatus
                          0 0 12 -> NLME_GetExtAddr
                          0 0 12 -> NLME_GetShortAddr
                          0 0 12 -> osal_msg_allocate
                          0 0 12 -> osal_msg_find
                          0 0 12 -> osal_msg_send
                          0 0 12 -> osal_set_event


   Segment part sizes:

   Bytes  Function/Label
   -----  --------------
      16  ?<Constant "End Device Bind">
      13  ?<Constant "MODE unknown">
      15  ?<Constant "Match Desc Req">
      12  ?<Constant "Non Matched">
      16  ?<Constant "Rsp Non Matched">
       9  ?<Constant "Rsp Sent">
      16  ?<Constant "StartDevice ERR">
      13  ?<Constant "Success Sent">
       8  ?<Constant "Timeout">
       6  ??NLME_PermitJoiningTimeout?relay
       1  ??Subroutine173_0
       9  ??Subroutine174_0
       3  ??Subroutine175_0
       5  ??Subroutine176_0
       5  ??Subroutine177_0
       3  ??Subroutine178_0
       6  ??Subroutine179_0
       3  ??Subroutine180_0
       6  ??Subroutine181_0
       6  ??Subroutine182_0
       1  ??Subroutine183_0
       5  ??Subroutine184_0
       5  ??Subroutine185_0
       4  ??Subroutine186_0
       4  ??Subroutine187_0
       5  ??Subroutine188_0
       4  ??Subroutine189_0
       5  ??Subroutine190_0
       5  ??Subroutine191_0
      10  ??Subroutine192_0
       4  ??Subroutine193_0
       6  ??Subroutine194_0
       4  ??Subroutine195_0
       9  ??Subroutine196_0
       6  ??Subroutine197_0
       5  ??Subroutine198_0
       5  ??Subroutine199_0
       5  ??Subroutine200_0
       5  ??Subroutine201_0
       5  ??Subroutine202_0
       2  ??Subroutine203_0
       6  ??Subroutine204_0
       5  ??Subroutine205_0
       4  ??Subroutine206_0
      11  ??Subroutine207_0
       4  ??Subroutine208_0
       6  ??Subroutine209_0
       3  ??Subroutine210_0
       4  ??Subroutine211_0
       5  ??Subroutine212_0
       5  ??Subroutine213_0
       5  ??Subroutine214_0
       2  ??Subroutine215_0
       2  ??Subroutine216_0
       4  ??Subroutine217_0
       8  ??Subroutine218_0
       1  ??Subroutine219_0
       4  ??Subroutine220_0
       9  ??Subroutine221_0
       5  ??Subroutine222_0
       5  ??Subroutine223_0
       9  ??Subroutine224_0
       2  ??Subroutine225_0
       6  ??Subroutine226_0
      17  ??Subroutine227_0
       5  ??Subroutine228_0
       4  ??Subroutine229_0
       9  ??Subroutine230_0
       4  ??Subroutine231_0
       9  ??Subroutine232_0
       6  ??ZDMatchSendState?relay
       6  ??ZDO_AnyClusterMatches?relay
       6  ??ZDO_BuildSimpleDescBuf?relay
       6  ??ZDO_CompareClusterLists?relay
       6  ??ZDO_ConvertOTAClusters?relay
       6  ??ZDO_CopyMatchInfo?relay
       6  ??ZDO_EndDeviceBindMatchTimeoutCB?relay
       6  ??ZDO_EndDeviceTimeoutCB?relay
       6  ??ZDO_Init?relay
       6  ??ZDO_MatchEndDeviceBind?relay
       6  ??ZDO_ParseAddrRsp?relay
       6  ??ZDO_ParseBindUnbindReq?relay
       6  ??ZDO_ParseDeviceAnnce?relay
       6  ??ZDO_ParseEPListRsp?relay
       6  ??ZDO_ParseEndDeviceBindReq?relay
       6  ??ZDO_ParseMgmNwkDiscRsp?relay
       6  ??ZDO_ParseMgmtBindRsp?relay
       6  ??ZDO_ParseMgmtLqiRsp?relay
       6  ??ZDO_ParseMgmtNwkUpdateNotify?relay
       6  ??ZDO_ParseMgmtNwkUpdateReq?relay
       6  ??ZDO_ParseMgmtRtgRsp?relay
       6  ??ZDO_ParseNodeDescRsp?relay
       6  ??ZDO_ParsePowerDescRsp?relay
       6  ??ZDO_ParseServerDiscRsp?relay
       6  ??ZDO_ParseSimpleDescBuf?relay
       6  ??ZDO_ParseSimpleDescRsp?relay
       6  ??ZDO_ParseUserDescRsp?relay
       6  ??ZDO_ProcessActiveEPReq?relay
       6  ??ZDO_ProcessBindUnbindReq?relay
       6  ??ZDO_ProcessDeviceAnnce?relay
       6  ??ZDO_ProcessMatchDescReq?relay
       6  ??ZDO_ProcessMgmtBindReq?relay
       6  ??ZDO_ProcessMgmtDirectJoinReq?relay
       6  ??ZDO_ProcessMgmtLeaveReq?relay
       6  ??ZDO_ProcessMgmtLqiReq?relay
       6  ??ZDO_ProcessMgmtNwkDiscReq?relay
       6  ??ZDO_ProcessMgmtPermitJoinReq?relay
       6  ??ZDO_ProcessMgmtRtgReq?relay
       6  ??ZDO_ProcessNodeDescReq?relay
       6  ??ZDO_ProcessPowerDescReq?relay
       6  ??ZDO_ProcessServerDiscReq?relay
       6  ??ZDO_ProcessSimpleDescReq?relay
       6  ??ZDO_ProcessUserDescReq?relay
       6  ??ZDO_ProcessUserDescSet?relay
       6  ??ZDO_RemoveMatchMemory?relay
       6  ??ZDO_StartDevice?relay
       6  ??ZDO_UpdateAddrManager?relay
       6  ??ZDO_UpdateNwkStatus?relay
       7  ?Subroutine0
       5  ?Subroutine1
       5  ?Subroutine10
       6  ?Subroutine100
       9  ?Subroutine101
       5  ?Subroutine102
       4  ?Subroutine103
       9  ?Subroutine104
       4  ?Subroutine105
      16  ?Subroutine106
       6  ?Subroutine107
       3  ?Subroutine108
       4  ?Subroutine109
       5  ?Subroutine11
      23  ?Subroutine110
       3  ?Subroutine111
       3  ?Subroutine112
       7  ?Subroutine113
      19  ?Subroutine114
      15  ?Subroutine115
       4  ?Subroutine116
       4  ?Subroutine117
       4  ?Subroutine118
       4  ?Subroutine119
       4  ?Subroutine12
       4  ?Subroutine120
       6  ?Subroutine121
      10  ?Subroutine122
       5  ?Subroutine123
      11  ?Subroutine124
       5  ?Subroutine125
      18  ?Subroutine126
       7  ?Subroutine127
      11  ?Subroutine128
       1  ?Subroutine129
       2  ?Subroutine13
       1  ?Subroutine130
       9  ?Subroutine131
       4  ?Subroutine132
       8  ?Subroutine133
       5  ?Subroutine134
       7  ?Subroutine135
       5  ?Subroutine136
      16  ?Subroutine137
      13  ?Subroutine138
      12  ?Subroutine139
      39  ?Subroutine14
       6  ?Subroutine140
      13  ?Subroutine141
      13  ?Subroutine142
       4  ?Subroutine143
       5  ?Subroutine144
       3  ?Subroutine145
       6  ?Subroutine146
       5  ?Subroutine147
       3  ?Subroutine148
       3  ?Subroutine149
      16  ?Subroutine15
       7  ?Subroutine150
       2  ?Subroutine151
      10  ?Subroutine152
       6  ?Subroutine153
       9  ?Subroutine154
       3  ?Subroutine155
      13  ?Subroutine156
       8  ?Subroutine157
       4  ?Subroutine158
       9  ?Subroutine159
      23  ?Subroutine16
       6  ?Subroutine160
       8  ?Subroutine161
       6  ?Subroutine162
       7  ?Subroutine163
      15  ?Subroutine164
       6  ?Subroutine165
       9  ?Subroutine166
       3  ?Subroutine167
      10  ?Subroutine168
       9  ?Subroutine169
       6  ?Subroutine17
       8  ?Subroutine170
       4  ?Subroutine171
       1  ?Subroutine172
      17  ?Subroutine18
       8  ?Subroutine19
       5  ?Subroutine2
       4  ?Subroutine20
       7  ?Subroutine21
       4  ?Subroutine22
      12  ?Subroutine23
      15  ?Subroutine24
      13  ?Subroutine25
       1  ?Subroutine26
       5  ?Subroutine27
      20  ?Subroutine28
       9  ?Subroutine29
       3  ?Subroutine3
      13  ?Subroutine30
       6  ?Subroutine31
       5  ?Subroutine32
      13  ?Subroutine33
       7  ?Subroutine34
       5  ?Subroutine35
      11  ?Subroutine36
      14  ?Subroutine37
       5  ?Subroutine38
      19  ?Subroutine39
       2  ?Subroutine4
       6  ?Subroutine40
      12  ?Subroutine41
       5  ?Subroutine42
       5  ?Subroutine43
       6  ?Subroutine44
       9  ?Subroutine45
       5  ?Subroutine46
       8  ?Subroutine47
       4  ?Subroutine48
      10  ?Subroutine49
       5  ?Subroutine5
       4  ?Subroutine50
       8  ?Subroutine51
       4  ?Subroutine52
       5  ?Subroutine53
       6  ?Subroutine54
       6  ?Subroutine55
      34  ?Subroutine56
       9  ?Subroutine57
       3  ?Subroutine58
      17  ?Subroutine59
       3  ?Subroutine6
      23  ?Subroutine60
       3  ?Subroutine61
      24  ?Subroutine62
      19  ?Subroutine63
      15  ?Subroutine64
       4  ?Subroutine65
      10  ?Subroutine66
       4  ?Subroutine67
      11  ?Subroutine68
      10  ?Subroutine69
       5  ?Subroutine7
       6  ?Subroutine70
       6  ?Subroutine71
       9  ?Subroutine72
      16  ?Subroutine73
       7  ?Subroutine74
       4  ?Subroutine75
       2  ?Subroutine76
       4  ?Subroutine77
       3  ?Subroutine78
      13  ?Subroutine79
       4  ?Subroutine8
       1  ?Subroutine80
      10  ?Subroutine81
       5  ?Subroutine82
      12  ?Subroutine83
      11  ?Subroutine84
      11  ?Subroutine85
      26  ?Subroutine86
       8  ?Subroutine87
       4  ?Subroutine88
       8  ?Subroutine89
       5  ?Subroutine9
      16  ?Subroutine90
       6  ?Subroutine91
      11  ?Subroutine92
       3  ?Subroutine93
       6  ?Subroutine94
       5  ?Subroutine95
      13  ?Subroutine96
       5  ?Subroutine97
      14  ?Subroutine98
       7  ?Subroutine99
       3  NLME_PermitJoiningTimeout
     651  ZDMatchSendState
      52  ZDOBuildBuf
      83  ZDO_AnyClusterMatches
     174  ZDO_BuildSimpleDescBuf
     124  ZDO_CompareClusterLists
      65  ZDO_ConvertOTAClusters
     225  ZDO_CopyMatchInfo
       2  ZDO_EDBind
      16  ZDO_EndDeviceBindMatchTimeoutCB
     209  ZDO_EndDeviceTimeoutCB
      33  ZDO_Init
     606  ZDO_MatchEndDeviceBind
     206  ZDO_ParseAddrRsp
     115  ZDO_ParseBindUnbindReq
      65  ZDO_ParseDeviceAnnce
     118  ZDO_ParseEPListRsp
     259  ZDO_ParseEndDeviceBindReq
     200  ZDO_ParseMgmNwkDiscRsp
     193  ZDO_ParseMgmtBindRsp
     150  ZDO_ParseMgmtLqiRsp
     210  ZDO_ParseMgmtNwkUpdateNotify
      91  ZDO_ParseMgmtNwkUpdateReq
     157  ZDO_ParseMgmtRtgRsp
     233  ZDO_ParseNodeDescRsp
     168  ZDO_ParsePowerDescRsp
      47  ZDO_ParseServerDiscRsp
     323  ZDO_ParseSimpleDescBuf
      29  ZDO_ParseSimpleDescRsp
     122  ZDO_ParseUserDescRsp
     127  ZDO_ProcessActiveEPReq
     422  ZDO_ProcessBindUnbindReq
     474  ZDO_ProcessDeviceAnnce
    1016  ZDO_ProcessMatchDescReq
     259  ZDO_ProcessMgmtBindReq
      84  ZDO_ProcessMgmtDirectJoinReq
     180  ZDO_ProcessMgmtLeaveReq
     736  ZDO_ProcessMgmtLqiReq
     127  ZDO_ProcessMgmtNwkDiscReq
      89  ZDO_ProcessMgmtPermitJoinReq
     261  ZDO_ProcessMgmtRtgReq
      71  ZDO_ProcessNodeDescReq
      71  ZDO_ProcessPowerDescReq
      74  ZDO_ProcessServerDiscReq
     135  ZDO_ProcessSimpleDescReq
     204  ZDO_ProcessUserDescReq
     294  ZDO_ProcessUserDescSet
     105  ZDO_RemoveMatchMemory
     136  ZDO_StartDevice
      57  ZDO_UpdateAddrManager
     119  ZDO_UpdateNwkStatus
       4  apsChannelMask
       2  matchED

 
 11 662 bytes in segment BANKED_CODE
    294 bytes in segment BANK_RELAYS
    118 bytes in segment XDATA_ROM_C
     60 bytes in segment XDATA_Z
 
 11 956 bytes of CODE  memory
    118 bytes of CONST memory
     60 bytes of XDATA memory

Errors: none
Warnings: none
