///////////////////////////////////////////////////////////////////////////////
//                                                                            /
// IAR C/C++ Compiler V8.10.1.40194/W32 for 8051        25/Dec/2013  17:56:29 /
// Copyright 2004-2011 IAR Systems AB.                                        /
//                                                                            /
//    Core               =  plain                                             /
//    Code model         =  banked                                            /
//    Data model         =  large                                             /
//    Calling convention =  xdata reentrant                                   /
//    Constant location  =  data_rom                                          /
//    Dptr setup         =  1,16                                              /
//    Source file        =  E:\wise-house\Components\osal\common\OSAL.c       /
//    Command line       =  -f E:\wise-house\Projects\zstack\Samples\WSN_sens /
//                          ors\CC2530DB\..\..\..\Tools\CC2530DB\f8wCoord.cfg /
//                           (-DCPU32MHZ -DROOT=__near_func                   /
//                          -DMAC_CFG_APP_PENDING_QUEUE=TRUE                  /
//                          -DMAC_CFG_TX_DATA_MAX=5 -DMAC_CFG_TX_MAX=8        /
//                          -DMAC_CFG_RX_MAX=5 -DZDO_COORDINATOR -DRTR_NWK)   /
//                          -f E:\wise-house\Projects\zstack\Samples\WSN_sens /
//                          ors\CC2530DB\..\..\..\Tools\CC2530DB\f8wConfig.cf /
//                          g (-DZIGBEEPRO -DSECURE=0 -DZG_SECURE_DYNAMIC=0   /
//                          -DREFLECTOR -DDEFAULT_CHANLIST=0x00000800         /
//                          -DZDAPP_CONFIG_PAN_ID=0xFFFF                      /
//                          -DNWK_START_DELAY=100 -DEXTENDED_JOINING_RANDOM_M /
//                          ASK=0x007F -DBEACON_REQUEST_DELAY=100             /
//                          -DBEACON_REQ_DELAY_MASK=0x00FF                    /
//                          -DLINK_STATUS_JITTER_MASK=0x007F                  /
//                          -DROUTE_EXPIRY_TIME=30 -DAPSC_ACK_WAIT_DURATION_P /
//                          OLLED=3000 -DNWK_INDIRECT_MSG_TIMEOUT=7           /
//                          -DMAX_RREQ_ENTRIES=8 -DAPSC_MAX_FRAME_RETRIES=3   /
//                          -DNWK_MAX_DATA_RETRIES=2                          /
//                          -DMAX_POLL_FAILURE_RETRIES=2 -DMAX_BCAST=9        /
//                          -DAPS_MAX_GROUPS=16 -DMAX_RTG_ENTRIES=40          /
//                          -DNWK_MAX_BINDING_ENTRIES=4                       /
//                          -DMAX_BINDING_CLUSTER_IDS=4                       /
//                          "-DDEFAULT_KEY={0x01, 0x03, 0x05, 0x07, 0x09,     /
//                          0x0B, 0x0D, 0x0F, 0x00, 0x02, 0x04, 0x06, 0x08,   /
//                          0x0A, 0x0C, 0x0D}" -DMAC_MAX_FRAME_SIZE=116       /
//                          -DZDNWKMGR_MIN_TRANSMISSIONS=20 "-DCONST=const    /
//                          __code" -DGENERIC=__generic                       /
//                          -DRFD_RCVC_ALWAYS_ON=FALSE -DPOLL_RATE=1000       /
//                          -DQUEUED_POLL_RATE=100 -DRESPONSE_POLL_RATE=100)  /
//                          -DREJOIN_POLL_RATE=440 E:\wise-house\Components\o /
//                          sal\common\OSAL.c -D ZTOOL_P1 -D MT_TASK -D       /
//                          MT_SYS_FUNC -D MT_ZDO_FUNC -D                     /
//                          LCD_SUPPORTED=DEBUG -D HAL_UART=TRUE -D           /
//                          xSERIAL_APP_PORT=0 -lC E:\wise-house\Projects\zst /
//                          ack\Samples\WSN_sensors\CC2530DB\CoordinatorEB\Li /
//                          st\ -lA E:\wise-house\Projects\zstack\Samples\WSN /
//                          _sensors\CC2530DB\CoordinatorEB\List\             /
//                          --diag_suppress Pe001,Pa010 -o                    /
//                          E:\wise-house\Projects\zstack\Samples\WSN_sensors /
//                          \CC2530DB\CoordinatorEB\Obj\ -e --debug           /
//                          --core=plain --dptr=16,1 --data_model=large       /
//                          --code_model=banked --calling_convention=xdata_re /
//                          entrant --place_constants=data_rom                /
//                          --nr_virtual_regs 8 -I E:\wise-house\Projects\zst /
//                          ack\Samples\WSN_sensors\CC2530DB\ -I              /
//                          E:\wise-house\Projects\zstack\Samples\WSN_sensors /
//                          \CC2530DB\..\SOURCE\ -I                           /
//                          E:\wise-house\Projects\zstack\Samples\WSN_sensors /
//                          \CC2530DB\..\..\..\ZMAIN\TI2530DB\ -I             /
//                          E:\wise-house\Projects\zstack\Samples\WSN_sensors /
//                          \CC2530DB\..\..\..\..\..\COMPONENTS\MT\ -I        /
//                          E:\wise-house\Projects\zstack\Samples\WSN_sensors /
//                          \CC2530DB\..\..\..\..\..\COMPONENTS\HAL\INCLUDE\  /
//                          -I E:\wise-house\Projects\zstack\Samples\WSN_sens /
//                          ors\CC2530DB\..\..\..\..\..\COMPONENTS\HAL\TARGET /
//                          \CC2530EB\ -I E:\wise-house\Projects\zstack\Sampl /
//                          es\WSN_sensors\CC2530DB\..\..\..\..\..\COMPONENTS /
//                          \OSAL\MCU\CCSOC\ -I E:\wise-house\Projects\zstack /
//                          \Samples\WSN_sensors\CC2530DB\..\..\..\..\..\COMP /
//                          ONENTS\OSAL\INCLUDE\ -I                           /
//                          E:\wise-house\Projects\zstack\Samples\WSN_sensors /
//                          \CC2530DB\..\..\..\..\..\COMPONENTS\STACK\AF\ -I  /
//                          E:\wise-house\Projects\zstack\Samples\WSN_sensors /
//                          \CC2530DB\..\..\..\..\..\COMPONENTS\STACK\NWK\    /
//                          -I E:\wise-house\Projects\zstack\Samples\WSN_sens /
//                          ors\CC2530DB\..\..\..\..\..\COMPONENTS\STACK\SEC\ /
//                           -I E:\wise-house\Projects\zstack\Samples\WSN_sen /
//                          sors\CC2530DB\..\..\..\..\..\COMPONENTS\STACK\SAP /
//                          I\ -I E:\wise-house\Projects\zstack\Samples\WSN_s /
//                          ensors\CC2530DB\..\..\..\..\..\COMPONENTS\STACK\S /
//                          YS\ -I E:\wise-house\Projects\zstack\Samples\WSN_ /
//                          sensors\CC2530DB\..\..\..\..\..\COMPONENTS\STACK\ /
//                          ZDO\ -I E:\wise-house\Projects\zstack\Samples\WSN /
//                          _sensors\CC2530DB\..\..\..\..\..\COMPONENTS\ZMAC\ /
//                          F8W\ -I E:\wise-house\Projects\zstack\Samples\WSN /
//                          _sensors\CC2530DB\..\..\..\..\..\COMPONENTS\ZMAC\ /
//                           -I E:\wise-house\Projects\zstack\Samples\WSN_sen /
//                          sors\CC2530DB\..\..\..\..\..\COMPONENTS\SERVICES\ /
//                          SADDR\ -I E:\wise-house\Projects\zstack\Samples\W /
//                          SN_sensors\CC2530DB\..\..\..\..\..\COMPONENTS\SER /
//                          VICES\SDATA\ -I E:\wise-house\Projects\zstack\Sam /
//                          ples\WSN_sensors\CC2530DB\..\..\..\..\..\COMPONEN /
//                          TS\MAC\INCLUDE\ -I E:\wise-house\Projects\zstack\ /
//                          Samples\WSN_sensors\CC2530DB\..\..\..\..\..\COMPO /
//                          NENTS\MAC\HIGH_LEVEL\ -I                          /
//                          E:\wise-house\Projects\zstack\Samples\WSN_sensors /
//                          \CC2530DB\..\..\..\..\..\COMPONENTS\MAC\LOW_LEVEL /
//                          \srf04\ -I E:\wise-house\Projects\zstack\Samples\ /
//                          WSN_sensors\CC2530DB\..\..\..\..\..\COMPONENTS\MA /
//                          C\LOW_LEVEL\srf04\SINGLE_CHIP\ -Ohz               /
//                          --require_prototypes                              /
//    List file          =  E:\wise-house\Projects\zstack\Samples\WSN_sensors /
//                          \CC2530DB\CoordinatorEB\List\OSAL.s51             /
//                                                                            /
//                                                                            /
///////////////////////////////////////////////////////////////////////////////

        NAME OSAL

        RTMODEL "__SystemLibrary", "CLib"
        RTMODEL "__calling_convention", "xdata_reentrant"
        RTMODEL "__code_model", "banked"
        RTMODEL "__core", "plain"
        RTMODEL "__data_model", "large"
        RTMODEL "__dptr_size", "16"
        RTMODEL "__extended_stack", "disabled"
        RTMODEL "__location_for_constants", "data"
        RTMODEL "__number_of_dptrs", "1"
        RTMODEL "__rt_version", "1"

        RSEG DOVERLAY:DATA:NOROOT(0)
        RSEG IOVERLAY:IDATA:NOROOT(0)
        RSEG ISTACK:IDATA:NOROOT(0)
        RSEG PSTACK:XDATA:NOROOT(0)
        RSEG XSTACK:XDATA:NOROOT(0)

        EXTERN ?ALLOC_XSTACK8
        EXTERN ?BANKED_ENTER_XDATA
        EXTERN ?BANKED_LEAVE_XDATA
        EXTERN ?BDISPATCH
        EXTERN ?BRET
        EXTERN ?CALL_IND
        EXTERN ?C_GPTR_LOAD
        EXTERN ?DEALLOC_XSTACK8
        EXTERN ?L_ADD
        EXTERN ?L_MOV_X
        EXTERN ?L_SHL
        EXTERN ?MOVE_LONG8_XDATA_XDATA
        EXTERN ?PUSH_XSTACK_I_THREE
        EXTERN ?PUSH_XSTACK_I_TWO
        EXTERN ?UL_DIV_MOD
        EXTERN ?UL_SHR
        EXTERN ?V0
        EXTERN ?XSP
        EXTERN ?XSTACK_DISP0_8
        EXTERN __INIT_XDATA_I
        EXTERN __INIT_XDATA_Z

        PUBLIC ??_ltoa?relay
        FUNCTION ??_ltoa?relay,0203H
        PUBLIC ??osal_buffer_uint24?relay
        FUNCTION ??osal_buffer_uint24?relay,0203H
        PUBLIC ??osal_buffer_uint32?relay
        FUNCTION ??osal_buffer_uint32?relay,0203H
        PUBLIC ??osal_build_uint16?relay
        FUNCTION ??osal_build_uint16?relay,0203H
        PUBLIC ??osal_build_uint32?relay
        FUNCTION ??osal_build_uint32?relay,0203H
        PUBLIC ??osal_clear_event?relay
        FUNCTION ??osal_clear_event?relay,0203H
        PUBLIC ??osal_init_system?relay
        FUNCTION ??osal_init_system?relay,0203H
        PUBLIC ??osal_int_disable?relay
        FUNCTION ??osal_int_disable?relay,0203H
        PUBLIC ??osal_int_enable?relay
        FUNCTION ??osal_int_enable?relay,0203H
        PUBLIC ??osal_isbufset?relay
        FUNCTION ??osal_isbufset?relay,0203H
        PUBLIC ??osal_isr_register?relay
        FUNCTION ??osal_isr_register?relay,0203H
        PUBLIC ??osal_memcmp?relay
        FUNCTION ??osal_memcmp?relay,0203H
        PUBLIC ??osal_memcpy?relay
        FUNCTION ??osal_memcpy?relay,0203H
        PUBLIC ??osal_memdup?relay
        FUNCTION ??osal_memdup?relay,0203H
        PUBLIC ??osal_memset?relay
        FUNCTION ??osal_memset?relay,0203H
        PUBLIC ??osal_msg_allocate?relay
        FUNCTION ??osal_msg_allocate?relay,0203H
        PUBLIC ??osal_msg_deallocate?relay
        FUNCTION ??osal_msg_deallocate?relay,0203H
        PUBLIC ??osal_msg_dequeue?relay
        FUNCTION ??osal_msg_dequeue?relay,0203H
        PUBLIC ??osal_msg_enqueue?relay
        FUNCTION ??osal_msg_enqueue?relay,0203H
        PUBLIC ??osal_msg_enqueue_max?relay
        FUNCTION ??osal_msg_enqueue_max?relay,0203H
        PUBLIC ??osal_msg_extract?relay
        FUNCTION ??osal_msg_extract?relay,0203H
        PUBLIC ??osal_msg_find?relay
        FUNCTION ??osal_msg_find?relay,0203H
        PUBLIC ??osal_msg_push?relay
        FUNCTION ??osal_msg_push?relay,0203H
        PUBLIC ??osal_msg_receive?relay
        FUNCTION ??osal_msg_receive?relay,0203H
        PUBLIC ??osal_msg_send?relay
        FUNCTION ??osal_msg_send?relay,0203H
        PUBLIC ??osal_rand?relay
        FUNCTION ??osal_rand?relay,0203H
        PUBLIC ??osal_revmemcpy?relay
        FUNCTION ??osal_revmemcpy?relay,0203H
        PUBLIC ??osal_run_system?relay
        FUNCTION ??osal_run_system?relay,0203H
        PUBLIC ??osal_self?relay
        FUNCTION ??osal_self?relay,0203H
        PUBLIC ??osal_set_event?relay
        FUNCTION ??osal_set_event?relay,0203H
        PUBLIC ??osal_start_system?relay
        FUNCTION ??osal_start_system?relay,0203H
        PUBLIC ??osal_strlen?relay
        FUNCTION ??osal_strlen?relay,0203H
        PUBWEAK _A_IEN0
        PUBWEAK __Constant_2710
        PUBWEAK __Constant_5f5e100
        PUBLIC _ltoa
        FUNCTION _ltoa,021203H
        ARGFRAME XSTACK, 2, STACK
        LOCFRAME ISTACK, 2, STACK
        LOCFRAME XSTACK, 55, STACK
        PUBLIC osal_buffer_uint24
        FUNCTION osal_buffer_uint24,0203H
        ARGFRAME XSTACK, 4, STACK
        LOCFRAME ISTACK, 1, STACK
        LOCFRAME XSTACK, 16, STACK
        PUBLIC osal_buffer_uint32
        FUNCTION osal_buffer_uint32,0203H
        ARGFRAME XSTACK, 4, STACK
        LOCFRAME ISTACK, 1, STACK
        LOCFRAME XSTACK, 16, STACK
        PUBLIC osal_build_uint16
        FUNCTION osal_build_uint16,0203H
        ARGFRAME XSTACK, 0, STACK
        LOCFRAME ISTACK, 2, STACK
        PUBLIC osal_build_uint32
        FUNCTION osal_build_uint32,0203H
        ARGFRAME XSTACK, 0, STACK
        LOCFRAME XSTACK, 16, STACK
        PUBLIC osal_clear_event
        FUNCTION osal_clear_event,0203H
        ARGFRAME XSTACK, 12, STACK
        ARGFRAME IOVERLAY, 0, STATIC
        ARGFRAME DOVERLAY, 0, STATIC
        LOCFRAME XSTACK, 9, STACK
        PUBLIC osal_init_system
        FUNCTION osal_init_system,021203H
        ARGFRAME XSTACK, 0, STACK
        LOCFRAME ISTACK, 2, STACK
        PUBLIC osal_int_disable
        FUNCTION osal_int_disable,0203H
        ARGFRAME XSTACK, 0, STACK
        PUBLIC osal_int_enable
        FUNCTION osal_int_enable,0203H
        ARGFRAME XSTACK, 0, STACK
        PUBLIC osal_isbufset
        FUNCTION osal_isbufset,0203H
        ARGFRAME XSTACK, 0, STACK
        LOCFRAME XSTACK, 10, STACK
        PUBLIC osal_isr_register
        FUNCTION osal_isr_register,0203H
        ARGFRAME XSTACK, 0, STACK
        PUBLIC osal_memcmp
        FUNCTION osal_memcmp,0203H
        ARGFRAME XSTACK, 3, STACK
        LOCFRAME XSTACK, 18, STACK
        PUBLIC osal_memcpy
        FUNCTION osal_memcpy,0203H
        ARGFRAME XSTACK, 19, STACK
        ARGFRAME IOVERLAY, 0, STATIC
        ARGFRAME DOVERLAY, 0, STATIC
        LOCFRAME ISTACK, 1, STACK
        LOCFRAME XSTACK, 11, STACK
        PUBLIC osal_memdup
        FUNCTION osal_memdup,021203H
        ARGFRAME XSTACK, 0, STACK
        LOCFRAME XSTACK, 19, STACK
        PUBLIC osal_memset
        FUNCTION osal_memset,021203H
        ARGFRAME XSTACK, 0, STACK
        LOCFRAME XSTACK, 12, STACK
        PUBLIC osal_msg_allocate
        FUNCTION osal_msg_allocate,021203H
        ARGFRAME XSTACK, 0, STACK
        LOCFRAME XSTACK, 10, STACK
        PUBLIC osal_msg_deallocate
        FUNCTION osal_msg_deallocate,021203H
        ARGFRAME XSTACK, 9, STACK
        ARGFRAME IOVERLAY, 0, STATIC
        ARGFRAME DOVERLAY, 0, STATIC
        LOCFRAME ISTACK, 2, STACK
        PUBLIC osal_msg_dequeue
        FUNCTION osal_msg_dequeue,0203H
        ARGFRAME XSTACK, 0, STACK
        LOCFRAME XSTACK, 10, STACK
        PUBLIC osal_msg_enqueue
        FUNCTION osal_msg_enqueue,0203H
        ARGFRAME XSTACK, 9, STACK
        ARGFRAME IOVERLAY, 0, STATIC
        ARGFRAME DOVERLAY, 0, STATIC
        LOCFRAME XSTACK, 9, STACK
        PUBLIC osal_msg_enqueue_max
        FUNCTION osal_msg_enqueue_max,0203H
        ARGFRAME XSTACK, 0, STACK
        LOCFRAME XSTACK, 9, STACK
        PUBLIC osal_msg_extract
        FUNCTION osal_msg_extract,0203H
        ARGFRAME XSTACK, 14, STACK
        ARGFRAME IOVERLAY, 0, STATIC
        ARGFRAME DOVERLAY, 0, STATIC
        LOCFRAME XSTACK, 11, STACK
        PUBLIC osal_msg_find
        FUNCTION osal_msg_find,0203H
        ARGFRAME XSTACK, 0, STACK
        LOCFRAME ISTACK, 2, STACK
        PUBLIC osal_msg_push
        FUNCTION osal_msg_push,0203H
        ARGFRAME XSTACK, 0, STACK
        LOCFRAME XSTACK, 9, STACK
        PUBLIC osal_msg_receive
        FUNCTION osal_msg_receive,021203H
        ARGFRAME XSTACK, 0, STACK
        LOCFRAME XSTACK, 14, STACK
        PUBLIC osal_msg_send
        FUNCTION osal_msg_send,021203H
        ARGFRAME XSTACK, 0, STACK
        LOCFRAME ISTACK, 1, STACK
        LOCFRAME XSTACK, 9, STACK
        PUBLIC osal_qHead
        PUBLIC osal_rand
        FUNCTION osal_rand,021203H
        ARGFRAME XSTACK, 0, STACK
        LOCFRAME ISTACK, 2, STACK
        PUBLIC osal_revmemcpy
        FUNCTION osal_revmemcpy,0203H
        ARGFRAME XSTACK, 3, STACK
        LOCFRAME ISTACK, 1, STACK
        LOCFRAME XSTACK, 9, STACK
        PUBLIC osal_run_system
        FUNCTION osal_run_system,021203H
        ARGFRAME XSTACK, 0, STACK
        ARGFRAME IOVERLAY, 0, STATIC
        ARGFRAME DOVERLAY, 0, STATIC
        LOCFRAME XSTACK, 10, STACK
        PUBLIC osal_self
        FUNCTION osal_self,0203H
        ARGFRAME XSTACK, 0, STACK
        LOCFRAME ISTACK, 2, STACK
        PUBLIC osal_set_event
        FUNCTION osal_set_event,0203H
        ARGFRAME XSTACK, 12, STACK
        ARGFRAME IOVERLAY, 0, STATIC
        ARGFRAME DOVERLAY, 0, STATIC
        LOCFRAME XSTACK, 9, STACK
        PUBLIC osal_start_system
        FUNCTION osal_start_system,021203H
        ARGFRAME XSTACK, 0, STACK
        LOCFRAME ISTACK, 2, STACK
        PUBLIC osal_strlen
        FUNCTION osal_strlen,021203H
        ARGFRAME XSTACK, 0, STACK
        LOCFRAME ISTACK, 2, STACK
        
        CFI Names cfiNames0
        CFI StackFrame CFA_SP SP IDATA
        CFI StackFrame CFA_PSP16 PSP16 XDATA
        CFI StackFrame CFA_XSP16 XSP16 XDATA
        CFI StaticOverlayFrame CFA_IOVERLAY IOVERLAY
        CFI StaticOverlayFrame CFA_DOVERLAY DOVERLAY
        CFI Resource `PSW.CY`:1, `B.BR0`:1, `B.BR1`:1, `B.BR2`:1, `B.BR3`:1
        CFI Resource `B.BR4`:1, `B.BR5`:1, `B.BR6`:1, `B.BR7`:1, `VB.BR8`:1
        CFI Resource `VB.BR9`:1, `VB.BR10`:1, `VB.BR11`:1, `VB.BR12`:1
        CFI Resource `VB.BR13`:1, `VB.BR14`:1, `VB.BR15`:1, VB:8, B:8, A:8
        CFI Resource PSW:8, DPL0:8, DPH0:8, R0:8, R1:8, R2:8, R3:8, R4:8, R5:8
        CFI Resource R6:8, R7:8, V0:8, V1:8, V2:8, V3:8, V4:8, V5:8, V6:8, V7:8
        CFI Resource SP:8, PSPH:8, PSPL:8, PSP16:16, XSPH:8, XSPL:8, XSP16:16
        CFI VirtualResource ?RET:24
        CFI Resource ?BRET_EXT:8
        CFI VirtualResource ?RET_HIGH:8, ?RET_LOW:8
        CFI ResourceParts PSP16 PSPH, PSPL
        CFI ResourceParts XSP16 XSPH, XSPL
        CFI ResourceParts ?RET ?BRET_EXT, ?RET_HIGH, ?RET_LOW
        CFI EndNames cfiNames0
        
        CFI Common cfiCommon0 Using cfiNames0
        CFI CodeAlign 1
        CFI DataAlign -1
        CFI ReturnAddress ?RET CODE
        CFI CFA_DOVERLAY Used
        CFI CFA_IOVERLAY Used
        CFI CFA_SP SP+-3
        CFI CFA_PSP16 PSP16+0
        CFI CFA_XSP16 XSP16+0
        CFI `PSW.CY` SameValue
        CFI `B.BR0` SameValue
        CFI `B.BR1` SameValue
        CFI `B.BR2` SameValue
        CFI `B.BR3` SameValue
        CFI `B.BR4` SameValue
        CFI `B.BR5` SameValue
        CFI `B.BR6` SameValue
        CFI `B.BR7` SameValue
        CFI `VB.BR8` SameValue
        CFI `VB.BR9` SameValue
        CFI `VB.BR10` SameValue
        CFI `VB.BR11` SameValue
        CFI `VB.BR12` SameValue
        CFI `VB.BR13` SameValue
        CFI `VB.BR14` SameValue
        CFI `VB.BR15` SameValue
        CFI VB SameValue
        CFI B Undefined
        CFI A Undefined
        CFI PSW SameValue
        CFI DPL0 SameValue
        CFI DPH0 SameValue
        CFI R0 Undefined
        CFI R1 Undefined
        CFI R2 Undefined
        CFI R3 Undefined
        CFI R4 Undefined
        CFI R5 Undefined
        CFI R6 SameValue
        CFI R7 SameValue
        CFI V0 SameValue
        CFI V1 SameValue
        CFI V2 SameValue
        CFI V3 SameValue
        CFI V4 SameValue
        CFI V5 SameValue
        CFI V6 SameValue
        CFI V7 SameValue
        CFI PSPH Undefined
        CFI PSPL Undefined
        CFI XSPH Undefined
        CFI XSPL Undefined
        CFI ?RET Concat
        CFI ?BRET_EXT Frame(CFA_SP, 3)
        CFI ?RET_HIGH Frame(CFA_SP, 2)
        CFI ?RET_LOW Frame(CFA_SP, 1)
        CFI EndCommon cfiCommon0
        
        
        CFI Common cfiCommon1 Using cfiNames0
        CFI CodeAlign 1
        CFI DataAlign -1
        CFI ReturnAddress ?RET CODE
        CFI CFA_DOVERLAY Used
        CFI CFA_IOVERLAY Used
        CFI CFA_SP SP+-2
        CFI CFA_PSP16 PSP16+0
        CFI CFA_XSP16 XSP16+0
        CFI `PSW.CY` SameValue
        CFI `B.BR0` SameValue
        CFI `B.BR1` SameValue
        CFI `B.BR2` SameValue
        CFI `B.BR3` SameValue
        CFI `B.BR4` SameValue
        CFI `B.BR5` SameValue
        CFI `B.BR6` SameValue
        CFI `B.BR7` SameValue
        CFI `VB.BR8` SameValue
        CFI `VB.BR9` SameValue
        CFI `VB.BR10` SameValue
        CFI `VB.BR11` SameValue
        CFI `VB.BR12` SameValue
        CFI `VB.BR13` SameValue
        CFI `VB.BR14` SameValue
        CFI `VB.BR15` SameValue
        CFI VB SameValue
        CFI B SameValue
        CFI A SameValue
        CFI PSW SameValue
        CFI DPL0 SameValue
        CFI DPH0 SameValue
        CFI R0 SameValue
        CFI R1 SameValue
        CFI R2 SameValue
        CFI R3 SameValue
        CFI R4 SameValue
        CFI R5 SameValue
        CFI R6 SameValue
        CFI R7 SameValue
        CFI V0 SameValue
        CFI V1 SameValue
        CFI V2 SameValue
        CFI V3 SameValue
        CFI V4 SameValue
        CFI V5 SameValue
        CFI V6 SameValue
        CFI V7 SameValue
        CFI PSPH Undefined
        CFI PSPL Undefined
        CFI XSPH Undefined
        CFI XSPL Undefined
        CFI ?RET Concat
        CFI ?BRET_EXT SameValue
        CFI ?RET_HIGH Frame(CFA_SP, 2)
        CFI ?RET_LOW Frame(CFA_SP, 1)
        CFI EndCommon cfiCommon1
        
strlen              SYMBOL "strlen"
osal_mem_alloc      SYMBOL "osal_mem_alloc"
memset              SYMBOL "memset"
_itoa               SYMBOL "_itoa"
strcpy              SYMBOL "strcpy"
strcat              SYMBOL "strcat"
Onboard_rand        SYMBOL "Onboard_rand"
osal_mem_free       SYMBOL "osal_mem_free"
osal_mem_init       SYMBOL "osal_mem_init"
osalTimerInit       SYMBOL "osalTimerInit"
osal_pwrmgr_init    SYMBOL "osal_pwrmgr_init"
osalInitTasks       SYMBOL "osalInitTasks"
osal_mem_kick       SYMBOL "osal_mem_kick"
osalTimeUpdate      SYMBOL "osalTimeUpdate"
Hal_ProcessPoll     SYMBOL "Hal_ProcessPoll"
??Hal_ProcessPoll?relay SYMBOL "?relay", Hal_ProcessPoll
??Onboard_rand?relay SYMBOL "?relay", Onboard_rand
??_itoa?relay       SYMBOL "?relay", _itoa
??memset?relay      SYMBOL "?relay", memset
??osalInitTasks?relay SYMBOL "?relay", osalInitTasks
??osalTimeUpdate?relay SYMBOL "?relay", osalTimeUpdate
??osalTimerInit?relay SYMBOL "?relay", osalTimerInit
??osal_mem_alloc?relay SYMBOL "?relay", osal_mem_alloc
??osal_mem_free?relay SYMBOL "?relay", osal_mem_free
??osal_mem_init?relay SYMBOL "?relay", osal_mem_init
??osal_mem_kick?relay SYMBOL "?relay", osal_mem_kick
??osal_pwrmgr_init?relay SYMBOL "?relay", osal_pwrmgr_init
??strcat?relay      SYMBOL "?relay", strcat
??strcpy?relay      SYMBOL "?relay", strcpy
??strlen?relay      SYMBOL "?relay", strlen
_ltoa               SYMBOL "_ltoa"
??_ltoa?relay       SYMBOL "?relay", _ltoa
osal_buffer_uint24  SYMBOL "osal_buffer_uint24"
??osal_buffer_uint24?relay SYMBOL "?relay", osal_buffer_uint24
osal_buffer_uint32  SYMBOL "osal_buffer_uint32"
??osal_buffer_uint32?relay SYMBOL "?relay", osal_buffer_uint32
osal_build_uint16   SYMBOL "osal_build_uint16"
??osal_build_uint16?relay SYMBOL "?relay", osal_build_uint16
osal_build_uint32   SYMBOL "osal_build_uint32"
??osal_build_uint32?relay SYMBOL "?relay", osal_build_uint32
osal_clear_event    SYMBOL "osal_clear_event"
??osal_clear_event?relay SYMBOL "?relay", osal_clear_event
osal_init_system    SYMBOL "osal_init_system"
??osal_init_system?relay SYMBOL "?relay", osal_init_system
osal_int_disable    SYMBOL "osal_int_disable"
??osal_int_disable?relay SYMBOL "?relay", osal_int_disable
osal_int_enable     SYMBOL "osal_int_enable"
??osal_int_enable?relay SYMBOL "?relay", osal_int_enable
osal_isbufset       SYMBOL "osal_isbufset"
??osal_isbufset?relay SYMBOL "?relay", osal_isbufset
osal_isr_register   SYMBOL "osal_isr_register"
??osal_isr_register?relay SYMBOL "?relay", osal_isr_register
osal_memcmp         SYMBOL "osal_memcmp"
??osal_memcmp?relay SYMBOL "?relay", osal_memcmp
osal_memcpy         SYMBOL "osal_memcpy"
??osal_memcpy?relay SYMBOL "?relay", osal_memcpy
osal_memdup         SYMBOL "osal_memdup"
??osal_memdup?relay SYMBOL "?relay", osal_memdup
osal_memset         SYMBOL "osal_memset"
??osal_memset?relay SYMBOL "?relay", osal_memset
osal_msg_allocate   SYMBOL "osal_msg_allocate"
??osal_msg_allocate?relay SYMBOL "?relay", osal_msg_allocate
osal_msg_deallocate SYMBOL "osal_msg_deallocate"
??osal_msg_deallocate?relay SYMBOL "?relay", osal_msg_deallocate
osal_msg_dequeue    SYMBOL "osal_msg_dequeue"
??osal_msg_dequeue?relay SYMBOL "?relay", osal_msg_dequeue
osal_msg_enqueue    SYMBOL "osal_msg_enqueue"
??osal_msg_enqueue?relay SYMBOL "?relay", osal_msg_enqueue
osal_msg_enqueue_max SYMBOL "osal_msg_enqueue_max"
??osal_msg_enqueue_max?relay SYMBOL "?relay", osal_msg_enqueue_max
osal_msg_extract    SYMBOL "osal_msg_extract"
??osal_msg_extract?relay SYMBOL "?relay", osal_msg_extract
osal_msg_find       SYMBOL "osal_msg_find"
??osal_msg_find?relay SYMBOL "?relay", osal_msg_find
osal_msg_push       SYMBOL "osal_msg_push"
??osal_msg_push?relay SYMBOL "?relay", osal_msg_push
osal_msg_receive    SYMBOL "osal_msg_receive"
??osal_msg_receive?relay SYMBOL "?relay", osal_msg_receive
osal_msg_send       SYMBOL "osal_msg_send"
??osal_msg_send?relay SYMBOL "?relay", osal_msg_send
osal_rand           SYMBOL "osal_rand"
??osal_rand?relay   SYMBOL "?relay", osal_rand
osal_revmemcpy      SYMBOL "osal_revmemcpy"
??osal_revmemcpy?relay SYMBOL "?relay", osal_revmemcpy
osal_run_system     SYMBOL "osal_run_system"
??osal_run_system?relay SYMBOL "?relay", osal_run_system
osal_self           SYMBOL "osal_self"
??osal_self?relay   SYMBOL "?relay", osal_self
osal_set_event      SYMBOL "osal_set_event"
??osal_set_event?relay SYMBOL "?relay", osal_set_event
osal_start_system   SYMBOL "osal_start_system"
??osal_start_system?relay SYMBOL "?relay", osal_start_system
osal_strlen         SYMBOL "osal_strlen"
??osal_strlen?relay SYMBOL "?relay", osal_strlen

        EXTERN strlen
        FUNCTION strlen,010202H
        ARGFRAME ISTACK, 2, STACK
        ARGFRAME PSTACK, 0, STACK
        ARGFRAME XSTACK, 55, STACK
        ARGFRAME IOVERLAY, 0, STATIC
        ARGFRAME DOVERLAY, 0, STATIC
        EXTERN osal_mem_alloc
        FUNCTION osal_mem_alloc,0202H
        ARGFRAME ISTACK, 0, STACK
        ARGFRAME PSTACK, 0, STACK
        ARGFRAME XSTACK, 16, STACK
        ARGFRAME IOVERLAY, 0, STATIC
        ARGFRAME DOVERLAY, 0, STATIC
        EXTERN memset
        FUNCTION memset,010202H
        ARGFRAME ISTACK, 0, STACK
        ARGFRAME PSTACK, 0, STACK
        ARGFRAME XSTACK, 12, STACK
        ARGFRAME IOVERLAY, 0, STATIC
        ARGFRAME DOVERLAY, 0, STATIC
        EXTERN _itoa
        FUNCTION _itoa,0202H
        ARGFRAME ISTACK, 0, STACK
        ARGFRAME PSTACK, 0, STACK
        ARGFRAME XSTACK, 55, STACK
        ARGFRAME IOVERLAY, 0, STATIC
        ARGFRAME DOVERLAY, 0, STATIC
        EXTERN strcpy
        FUNCTION strcpy,010202H
        ARGFRAME ISTACK, 0, STACK
        ARGFRAME PSTACK, 0, STACK
        ARGFRAME XSTACK, 55, STACK
        ARGFRAME IOVERLAY, 0, STATIC
        ARGFRAME DOVERLAY, 0, STATIC
        EXTERN strcat
        FUNCTION strcat,010202H
        ARGFRAME ISTACK, 0, STACK
        ARGFRAME PSTACK, 0, STACK
        ARGFRAME XSTACK, 55, STACK
        ARGFRAME IOVERLAY, 0, STATIC
        ARGFRAME DOVERLAY, 0, STATIC
        EXTERN Onboard_rand
        FUNCTION Onboard_rand,0202H
        ARGFRAME ISTACK, 2, STACK
        ARGFRAME PSTACK, 0, STACK
        ARGFRAME XSTACK, 0, STACK
        ARGFRAME IOVERLAY, 0, STATIC
        ARGFRAME DOVERLAY, 0, STATIC
        EXTERN osal_mem_free
        FUNCTION osal_mem_free,0202H
        ARGFRAME ISTACK, 2, STACK
        ARGFRAME PSTACK, 0, STACK
        ARGFRAME XSTACK, 0, STACK
        ARGFRAME IOVERLAY, 0, STATIC
        ARGFRAME DOVERLAY, 0, STATIC
        EXTERN osal_mem_init
        FUNCTION osal_mem_init,0202H
        ARGFRAME ISTACK, 2, STACK
        ARGFRAME PSTACK, 0, STACK
        ARGFRAME XSTACK, 0, STACK
        ARGFRAME IOVERLAY, 0, STATIC
        ARGFRAME DOVERLAY, 0, STATIC
        EXTERN osalTimerInit
        FUNCTION osalTimerInit,0202H
        ARGFRAME ISTACK, 2, STACK
        ARGFRAME PSTACK, 0, STACK
        ARGFRAME XSTACK, 0, STACK
        ARGFRAME IOVERLAY, 0, STATIC
        ARGFRAME DOVERLAY, 0, STATIC
        EXTERN osal_pwrmgr_init
        FUNCTION osal_pwrmgr_init,0202H
        ARGFRAME ISTACK, 2, STACK
        ARGFRAME PSTACK, 0, STACK
        ARGFRAME XSTACK, 0, STACK
        ARGFRAME IOVERLAY, 0, STATIC
        ARGFRAME DOVERLAY, 0, STATIC
        EXTERN osalInitTasks
        FUNCTION osalInitTasks,0202H
        ARGFRAME ISTACK, 2, STACK
        ARGFRAME PSTACK, 0, STACK
        ARGFRAME XSTACK, 0, STACK
        ARGFRAME IOVERLAY, 0, STATIC
        ARGFRAME DOVERLAY, 0, STATIC
        EXTERN osal_mem_kick
        FUNCTION osal_mem_kick,0202H
        ARGFRAME ISTACK, 2, STACK
        ARGFRAME PSTACK, 0, STACK
        ARGFRAME XSTACK, 0, STACK
        ARGFRAME IOVERLAY, 0, STATIC
        ARGFRAME DOVERLAY, 0, STATIC
        EXTERN osalTimeUpdate
        FUNCTION osalTimeUpdate,0202H
        ARGFRAME ISTACK, 0, STACK
        ARGFRAME PSTACK, 0, STACK
        ARGFRAME XSTACK, 10, STACK
        ARGFRAME IOVERLAY, 0, STATIC
        ARGFRAME DOVERLAY, 0, STATIC
        EXTERN Hal_ProcessPoll
        FUNCTION Hal_ProcessPoll,0202H
        ARGFRAME ISTACK, 0, STACK
        ARGFRAME PSTACK, 0, STACK
        ARGFRAME XSTACK, 10, STACK
        ARGFRAME IOVERLAY, 0, STATIC
        ARGFRAME DOVERLAY, 0, STATIC
        EXTERN ??Hal_ProcessPoll?relay
        FUNCTION ??Hal_ProcessPoll?relay,00H
        EXTERN ??Onboard_rand?relay
        FUNCTION ??Onboard_rand?relay,00H
        EXTERN ??_itoa?relay
        FUNCTION ??_itoa?relay,00H
        EXTERN ??memset?relay
        FUNCTION ??memset?relay,00H
        EXTERN ??osalInitTasks?relay
        FUNCTION ??osalInitTasks?relay,00H
        EXTERN ??osalTimeUpdate?relay
        FUNCTION ??osalTimeUpdate?relay,00H
        EXTERN ??osalTimerInit?relay
        FUNCTION ??osalTimerInit?relay,00H
        EXTERN ??osal_mem_alloc?relay
        FUNCTION ??osal_mem_alloc?relay,00H
        EXTERN ??osal_mem_free?relay
        FUNCTION ??osal_mem_free?relay,00H
        EXTERN ??osal_mem_init?relay
        FUNCTION ??osal_mem_init?relay,00H
        EXTERN ??osal_mem_kick?relay
        FUNCTION ??osal_mem_kick?relay,00H
        EXTERN ??osal_pwrmgr_init?relay
        FUNCTION ??osal_pwrmgr_init?relay,00H
        EXTERN ??strcat?relay
        FUNCTION ??strcat?relay,00H
        EXTERN ??strcpy?relay
        FUNCTION ??strcpy?relay,00H
        EXTERN ??strlen?relay
        FUNCTION ??strlen?relay,00H
        EXTERN tasksArr
        EXTERN tasksCnt
        EXTERN tasksEvents

// E:\wise-house\Components\osal\common\OSAL.c
//    1 /**************************************************************************************************
//    2   Filename:       OSAL.c
//    3   Revised:        $Date: 2011-05-27 09:03:48 -0700 (Fri, 27 May 2011) $
//    4   Revision:       $Revision: 26134 $
//    5 
//    6   Description:    This API allows the software components in the Z-stack to be written
//    7                   independently of the specifics of the operating system, kernel or tasking
//    8                   environment (including control loops or connect-to-interrupt systems).
//    9 
//   10 
//   11   Copyright 2004-2011 Texas Instruments Incorporated. All rights reserved.
//   12 
//   13   IMPORTANT: Your use of this Software is limited to those specific rights
//   14   granted under the terms of a software license agreement between the user
//   15   who downloaded the software, his/her employer (which must be your employer)
//   16   and Texas Instruments Incorporated (the "License"). You may not use this
//   17   Software unless you agree to abide by the terms of the License. The License
//   18   limits your use, and you acknowledge, that the Software may not be modified,
//   19   copied or distributed unless embedded on a Texas Instruments microcontroller
//   20   or used solely and exclusively in conjunction with a Texas Instruments radio
//   21   frequency transceiver, which is integrated into your product. Other than for
//   22   the foregoing purpose, you may not use, reproduce, copy, prepare derivative
//   23   works of, modify, distribute, perform, display or sell this Software and/or
//   24   its documentation for any purpose.
//   25 
//   26   YOU FURTHER ACKNOWLEDGE AND AGREE THAT THE SOFTWARE AND DOCUMENTATION ARE
//   27   PROVIDED “AS IS” WITHOUT WARRANTY OF ANY KIND, EITHER EXPRESS OR IMPLIED,
//   28   INCLUDING WITHOUT LIMITATION, ANY WARRANTY OF MERCHANTABILITY, TITLE,
//   29   NON-INFRINGEMENT AND FITNESS FOR A PARTICULAR PURPOSE. IN NO EVENT SHALL
//   30   TEXAS INSTRUMENTS OR ITS LICENSORS BE LIABLE OR OBLIGATED UNDER CONTRACT,
//   31   NEGLIGENCE, STRICT LIABILITY, CONTRIBUTION, BREACH OF WARRANTY, OR OTHER
//   32   LEGAL EQUITABLE THEORY ANY DIRECT OR INDIRECT DAMAGES OR EXPENSES
//   33   INCLUDING BUT NOT LIMITED TO ANY INCIDENTAL, SPECIAL, INDIRECT, PUNITIVE
//   34   OR CONSEQUENTIAL DAMAGES, LOST PROFITS OR LOST DATA, COST OF PROCUREMENT
//   35   OF SUBSTITUTE GOODS, TECHNOLOGY, SERVICES, OR ANY CLAIMS BY THIRD PARTIES
//   36   (INCLUDING BUT NOT LIMITED TO ANY DEFENSE THEREOF), OR OTHER SIMILAR COSTS.
//   37 
//   38   Should you have any questions regarding your right to use this Software,
//   39   contact Texas Instruments Incorporated at www.TI.com.
//   40 **************************************************************************************************/
//   41 
//   42 /*********************************************************************
//   43  * INCLUDES
//   44  */
//   45 
//   46 #include <string.h>
//   47 
//   48 #include "comdef.h"
//   49 #include "OSAL.h"
//   50 #include "OSAL_Tasks.h"
//   51 #include "OSAL_Memory.h"
//   52 #include "OSAL_PwrMgr.h"
//   53 #include "OSAL_Clock.h"
//   54 
//   55 #include "OnBoard.h"

        ASEGN SFR_AN:DATA:NOROOT,0a8H
// union <unnamed> volatile __sfr _A_IEN0
_A_IEN0:
        DATA8
        DS 1
//   56 
//   57 /* HAL */
//   58 #include "hal_drivers.h"
//   59 
//   60 #ifdef IAR_ARMCM3_LM
//   61   #include "FreeRTOSConfig.h"
//   62   #include "osal_task.h"
//   63 #endif
//   64 
//   65 /*********************************************************************
//   66  * MACROS
//   67  */
//   68 
//   69 /*********************************************************************
//   70  * CONSTANTS
//   71  */
//   72 
//   73 /*********************************************************************
//   74  * TYPEDEFS
//   75  */
//   76 
//   77 /*********************************************************************
//   78  * GLOBAL VARIABLES
//   79  */
//   80 
//   81 // Message Pool Definitions

        RSEG XDATA_Z:XDATA:NOROOT(0)
        DATA16
//   82 osal_msg_q_t osal_qHead;
osal_qHead:
        DS 2
        REQUIRE __INIT_XDATA_Z
//   83 
//   84 /*********************************************************************
//   85  * EXTERNAL VARIABLES
//   86  */
//   87 
//   88 /*********************************************************************
//   89  * EXTERNAL FUNCTIONS
//   90  */
//   91 
//   92 /*********************************************************************
//   93  * LOCAL VARIABLES
//   94  */
//   95 
//   96 // Index of active task

        RSEG XDATA_I:XDATA:NOROOT(0)
//   97 static uint8 activeTaskID = TASK_NO_TASK;
activeTaskID:
        DATA8
        DS 1
        REQUIRE `?<Initializer for activeTaskID>`
        REQUIRE __INIT_XDATA_I
//   98 
//   99 /*********************************************************************
//  100  * LOCAL FUNCTION PROTOTYPES
//  101  */
//  102 
//  103 /*********************************************************************
//  104  * HELPER FUNCTIONS
//  105  */
//  106 /* very ugly stub so Keil can compile */
//  107 #ifdef __KEIL__
//  108 char *  itoa ( int value, char * buffer, int radix )
//  109 {
//  110   return(buffer);
//  111 }
//  112 #endif
//  113 
//  114 /*********************************************************************
//  115  * @fn      osal_strlen
//  116  *
//  117  * @brief
//  118  *
//  119  *   Calculates the length of a string.  The string must be null
//  120  *   terminated.
//  121  *
//  122  * @param   char *pString - pointer to text string
//  123  *
//  124  * @return  int - number of characters
//  125  */

        RSEG BANKED_CODE:CODE:NOROOT(0)
//  126 int osal_strlen( char *pString )
osal_strlen:
        CFI Block cfiBlock0 Using cfiCommon0
        CFI Function osal_strlen
        CODE
//  127 {
        FUNCALL osal_strlen, strlen
        LOCFRAME ISTACK, 2, STACK
        LOCFRAME PSTACK, 0, STACK
        LOCFRAME XSTACK, 0, STACK
        LOCFRAME IOVERLAY, 0, STATIC
        LOCFRAME DOVERLAY, 0, STATIC
        ARGFRAME ISTACK, 2, STACK
        ARGFRAME PSTACK, 0, STACK
        ARGFRAME XSTACK, 0, STACK
        ARGFRAME IOVERLAY, 0, STATIC
        ARGFRAME DOVERLAY, 0, STATIC
        PUSH    DPL
        CFI DPL0 Frame(CFA_SP, 4)
        CFI CFA_SP SP+-4
        PUSH    DPH
        CFI DPH0 Frame(CFA_SP, 5)
        CFI CFA_SP SP+-5
        ; Saved register size: 2
        ; Auto size: 0
//  128   return (int)( strlen( pString ) );
        ; Setup parameters for call to function strlen
        LCALL   ??strlen?relay
        LJMP    ?Subroutine0 & 0xFFFF
        CFI EndBlock cfiBlock0
//  129 }
//  130 
//  131 /*********************************************************************
//  132  * @fn      osal_memcpy
//  133  *
//  134  * @brief
//  135  *
//  136  *   Generic memory copy.
//  137  *
//  138  *   Note: This function differs from the standard memcpy(), since
//  139  *         it returns the pointer to the next destination uint8. The
//  140  *         standard memcpy() returns the original destination address.
//  141  *
//  142  * @param   dst - destination address
//  143  * @param   src - source address
//  144  * @param   len - number of bytes to copy
//  145  *
//  146  * @return  pointer to end of destination buffer
//  147  */

        RSEG BANKED_CODE:CODE:NOROOT(0)
//  148 void *osal_memcpy( void *dst, const void GENERIC *src, unsigned int len )
osal_memcpy:
        CFI Block cfiBlock1 Using cfiCommon0
        CFI Function osal_memcpy
        CODE
//  149 {
        MOV     A,#-0xb
        LCALL   ?BANKED_ENTER_XDATA
        CFI DPH0 load(1, XDATA, add(CFA_XSP16, literal(-1)))
        CFI DPL0 load(1, XDATA, add(CFA_XSP16, literal(-2)))
        CFI ?BRET_EXT load(1, XDATA, add(CFA_XSP16, literal(-3)))
        CFI ?RET_HIGH load(1, XDATA, add(CFA_XSP16, literal(-4)))
        CFI ?RET_LOW load(1, XDATA, add(CFA_XSP16, literal(-5)))
        CFI R7 load(1, XDATA, add(CFA_XSP16, literal(-6)))
        CFI V2 load(1, XDATA, add(CFA_XSP16, literal(-7)))
        CFI V1 load(1, XDATA, add(CFA_XSP16, literal(-8)))
        CFI V0 load(1, XDATA, add(CFA_XSP16, literal(-9)))
        CFI VB load(1, XDATA, add(CFA_XSP16, literal(-10)))
        CFI R6 load(1, XDATA, add(CFA_XSP16, literal(-11)))
        CFI CFA_SP SP+0
        CFI CFA_XSP16 add(XSP16, 11)
        ; Saved register size: 11
        ; Auto size: 0
        MOV     A,R2
        MOV     R6,A
        MOV     A,R3
        MOV     R7,A
        MOV     A,#0xb
        LCALL   ?XSTACK_DISP0_8
        LCALL   ?Subroutine12 & 0xFFFF
??CrossCallReturnLabel_17:
        INC     DPTR
        MOVX    A,@DPTR
//  150   uint8 *pDst;
//  151   const uint8 GENERIC *pSrc;
//  152 
//  153   pSrc = src;
        MOV     R1,?V0 + 0
        MOV     R2,?V0 + 1
        MOV     R3,A
//  154   pDst = dst;
        MOV     DPL,R6
        MOV     DPH,R7
        SJMP    ??osal_memcpy_0
//  155 
//  156   while ( len-- )
//  157     *pDst++ = *pSrc++;
??osal_memcpy_1:
        LCALL   ?C_GPTR_LOAD
        MOVX    @DPTR,A
        MOV     A,R1
        ADD     A,#0x1
        INC     R1
        MOV     A,R2
        ADDC    A,#0x0
        MOV     R2,A
        INC     DPTR
??osal_memcpy_0:
        LCALL   ?Subroutine22 & 0xFFFF
??CrossCallReturnLabel_39:
        JNZ     ??osal_memcpy_1
//  158 
//  159   return ( pDst );
        MOV     R2,DPL
        MOV     R3,DPH
        CFI EndBlock cfiBlock1
        REQUIRE ?Subroutine1
        ; // Fall through to label ?Subroutine1
//  160 }

        RSEG BANKED_CODE:CODE:NOROOT(0)
?Subroutine1:
        CFI Block cfiBlock2 Using cfiCommon0
        CFI NoFunction
        CFI CFA_SP SP+0
        CFI CFA_XSP16 add(XSP16, 11)
        CFI VB load(1, XDATA, add(CFA_XSP16, literal(-10)))
        CFI DPL0 load(1, XDATA, add(CFA_XSP16, literal(-2)))
        CFI DPH0 load(1, XDATA, add(CFA_XSP16, literal(-1)))
        CFI R6 load(1, XDATA, add(CFA_XSP16, literal(-11)))
        CFI R7 load(1, XDATA, add(CFA_XSP16, literal(-6)))
        CFI V0 load(1, XDATA, add(CFA_XSP16, literal(-9)))
        CFI V1 load(1, XDATA, add(CFA_XSP16, literal(-8)))
        CFI V2 load(1, XDATA, add(CFA_XSP16, literal(-7)))
        CFI ?BRET_EXT load(1, XDATA, add(CFA_XSP16, literal(-3)))
        CFI ?RET_HIGH load(1, XDATA, add(CFA_XSP16, literal(-4)))
        CFI ?RET_LOW load(1, XDATA, add(CFA_XSP16, literal(-5)))
        MOV     R7,#0x3
        LJMP    ?BANKED_LEAVE_XDATA
        CFI EndBlock cfiBlock2
//  161 
//  162 /*********************************************************************
//  163  * @fn      osal_revmemcpy
//  164  *
//  165  * @brief   Generic reverse memory copy.  Starts at the end of the
//  166  *   source buffer, by taking the source address pointer and moving
//  167  *   pointer ahead "len" bytes, then decrementing the pointer.
//  168  *
//  169  *   Note: This function differs from the standard memcpy(), since
//  170  *         it returns the pointer to the next destination uint8. The
//  171  *         standard memcpy() returns the original destination address.
//  172  *
//  173  * @param   dst - destination address
//  174  * @param   src - source address
//  175  * @param   len - number of bytes to copy
//  176  *
//  177  * @return  pointer to end of destination buffer
//  178  */

        RSEG BANKED_CODE:CODE:NOROOT(0)
//  179 void *osal_revmemcpy( void *dst, const void GENERIC *src, unsigned int len )
osal_revmemcpy:
        CFI Block cfiBlock3 Using cfiCommon0
        CFI Function osal_revmemcpy
        CODE
//  180 {
        MOV     A,#-0x9
        LCALL   ?BANKED_ENTER_XDATA
        CFI DPH0 load(1, XDATA, add(CFA_XSP16, literal(-1)))
        CFI DPL0 load(1, XDATA, add(CFA_XSP16, literal(-2)))
        CFI ?BRET_EXT load(1, XDATA, add(CFA_XSP16, literal(-3)))
        CFI ?RET_HIGH load(1, XDATA, add(CFA_XSP16, literal(-4)))
        CFI ?RET_LOW load(1, XDATA, add(CFA_XSP16, literal(-5)))
        CFI R7 load(1, XDATA, add(CFA_XSP16, literal(-6)))
        CFI V0 load(1, XDATA, add(CFA_XSP16, literal(-7)))
        CFI VB load(1, XDATA, add(CFA_XSP16, literal(-8)))
        CFI R6 load(1, XDATA, add(CFA_XSP16, literal(-9)))
        CFI CFA_SP SP+0
        CFI CFA_XSP16 add(XSP16, 9)
        ; Saved register size: 9
        ; Auto size: 0
        MOV     A,R2
        MOV     R6,A
        MOV     A,R3
        MOV     R7,A
        MOV     A,#0x9
        LCALL   ?XSTACK_DISP0_8
        LCALL   ?Subroutine10 & 0xFFFF
//  181   uint8 *pDst;
//  182   const uint8 GENERIC *pSrc;
//  183 
//  184   pSrc = src;
//  185   pSrc += (len-1);
??CrossCallReturnLabel_12:
        MOV     A,R1
        ADD     A,R4
        MOV     R1,A
        MOV     A,R2
        ADDC    A,R5
        MOV     R2,A
        MOV     A,R1
        ADD     A,#-0x1
        DEC     R1
        MOV     A,R2
        ADDC    A,#-0x1
        MOV     R2,A
//  186   pDst = dst;
        MOV     DPL,R6
        MOV     DPH,R7
        SJMP    ??osal_revmemcpy_0
//  187 
//  188   while ( len-- )
//  189     *pDst++ = *pSrc--;
??osal_revmemcpy_1:
        LCALL   ?C_GPTR_LOAD
        MOVX    @DPTR,A
        MOV     A,R1
        ADD     A,#-0x1
        DEC     R1
        MOV     A,R2
        ADDC    A,#-0x1
        MOV     R2,A
        INC     DPTR
??osal_revmemcpy_0:
        LCALL   ?Subroutine22 & 0xFFFF
??CrossCallReturnLabel_40:
        JNZ     ??osal_revmemcpy_1
//  190 
//  191   return ( pDst );
        MOV     R2,DPL
        MOV     R3,DPH
        LJMP    ??Subroutine30_0 & 0xFFFF
        CFI EndBlock cfiBlock3
//  192 }

        RSEG BANKED_CODE:CODE:NOROOT(0)
?Subroutine22:
        CFI Block cfiCond4 Using cfiCommon0
        CFI NoFunction
        CFI Conditional ??CrossCallReturnLabel_39
        CFI R6 load(1, XDATA, add(CFA_XSP16, literal(-11)))
        CFI VB load(1, XDATA, add(CFA_XSP16, literal(-10)))
        CFI V0 load(1, XDATA, add(CFA_XSP16, literal(-9)))
        CFI V1 load(1, XDATA, add(CFA_XSP16, literal(-8)))
        CFI V2 load(1, XDATA, add(CFA_XSP16, literal(-7)))
        CFI R7 load(1, XDATA, add(CFA_XSP16, literal(-6)))
        CFI ?RET_LOW load(1, XDATA, add(CFA_XSP16, literal(-5)))
        CFI ?RET_HIGH load(1, XDATA, add(CFA_XSP16, literal(-4)))
        CFI ?BRET_EXT load(1, XDATA, add(CFA_XSP16, literal(-3)))
        CFI DPL0 load(1, XDATA, add(CFA_XSP16, literal(-2)))
        CFI DPH0 load(1, XDATA, add(CFA_XSP16, literal(-1)))
        CFI CFA_SP SP+0
        CFI CFA_XSP16 add(XSP16, 11)
        CFI Block cfiCond5 Using cfiCommon0
        CFI (cfiCond5) NoFunction
        CFI (cfiCond5) Conditional ??CrossCallReturnLabel_40
        CFI (cfiCond5) R6 load(1, XDATA, add(CFA_XSP16, literal(-9)))
        CFI (cfiCond5) VB load(1, XDATA, add(CFA_XSP16, literal(-8)))
        CFI (cfiCond5) V0 load(1, XDATA, add(CFA_XSP16, literal(-7)))
        CFI (cfiCond5) R7 load(1, XDATA, add(CFA_XSP16, literal(-6)))
        CFI (cfiCond5) ?RET_LOW load(1, XDATA, add(CFA_XSP16, literal(-5)))
        CFI (cfiCond5) ?RET_HIGH load(1, XDATA, add(CFA_XSP16, literal(-4)))
        CFI (cfiCond5) ?BRET_EXT load(1, XDATA, add(CFA_XSP16, literal(-3)))
        CFI (cfiCond5) DPL0 load(1, XDATA, add(CFA_XSP16, literal(-2)))
        CFI (cfiCond5) DPH0 load(1, XDATA, add(CFA_XSP16, literal(-1)))
        CFI (cfiCond5) CFA_SP SP+0
        CFI (cfiCond5) CFA_XSP16 add(XSP16, 9)
        CFI Block cfiPicker6 Using cfiCommon1
        CFI (cfiPicker6) NoFunction
        CFI (cfiPicker6) Picker
        MOV     A,R4
        MOV     R6,A
        MOV     A,R5
        MOV     R7,A
        MOV     A,R6
        ADD     A,#-0x1
        DEC     R4
        MOV     A,R7
        ADDC    A,#-0x1
        MOV     R5,A
        MOV     A,R6
        ORL     A,R7
        RET
        CFI EndBlock cfiCond4
        CFI EndBlock cfiCond5
        CFI EndBlock cfiPicker6
//  193 
//  194 /*********************************************************************
//  195  * @fn      osal_memdup
//  196  *
//  197  * @brief   Allocates a buffer [with osal_mem_alloc()] and copies
//  198  *          the src buffer into the newly allocated space.
//  199  *
//  200  * @param   src - source address
//  201  * @param   len - number of bytes to copy
//  202  *
//  203  * @return  pointer to the new allocated buffer, or NULL if
//  204  *          allocation problem.
//  205  */

        RSEG BANKED_CODE:CODE:NOROOT(0)
//  206 void *osal_memdup( const void GENERIC *src, unsigned int len )
osal_memdup:
        CFI Block cfiBlock7 Using cfiCommon0
        CFI Function osal_memdup
        CODE
//  207 {
        FUNCALL osal_memdup, osal_mem_alloc
        LOCFRAME ISTACK, 0, STACK
        LOCFRAME PSTACK, 0, STACK
        LOCFRAME XSTACK, 16, STACK
        LOCFRAME IOVERLAY, 0, STATIC
        LOCFRAME DOVERLAY, 0, STATIC
        ARGFRAME ISTACK, 0, STACK
        ARGFRAME PSTACK, 0, STACK
        ARGFRAME XSTACK, 16, STACK
        ARGFRAME IOVERLAY, 0, STATIC
        ARGFRAME DOVERLAY, 0, STATIC
        FUNCALL osal_memdup, osal_memcpy
        LOCFRAME ISTACK, 0, STACK
        LOCFRAME PSTACK, 0, STACK
        LOCFRAME XSTACK, 19, STACK
        LOCFRAME IOVERLAY, 0, STATIC
        LOCFRAME DOVERLAY, 0, STATIC
        ARGFRAME ISTACK, 0, STACK
        ARGFRAME PSTACK, 0, STACK
        ARGFRAME XSTACK, 19, STACK
        ARGFRAME IOVERLAY, 0, STATIC
        ARGFRAME DOVERLAY, 0, STATIC
        MOV     A,#-0x10
        LCALL   ?BANKED_ENTER_XDATA
        CFI DPH0 load(1, XDATA, add(CFA_XSP16, literal(-1)))
        CFI DPL0 load(1, XDATA, add(CFA_XSP16, literal(-2)))
        CFI ?BRET_EXT load(1, XDATA, add(CFA_XSP16, literal(-3)))
        CFI ?RET_HIGH load(1, XDATA, add(CFA_XSP16, literal(-4)))
        CFI ?RET_LOW load(1, XDATA, add(CFA_XSP16, literal(-5)))
        CFI R7 load(1, XDATA, add(CFA_XSP16, literal(-6)))
        CFI V7 load(1, XDATA, add(CFA_XSP16, literal(-7)))
        CFI V6 load(1, XDATA, add(CFA_XSP16, literal(-8)))
        CFI V5 load(1, XDATA, add(CFA_XSP16, literal(-9)))
        CFI V4 load(1, XDATA, add(CFA_XSP16, literal(-10)))
        CFI V3 load(1, XDATA, add(CFA_XSP16, literal(-11)))
        CFI V2 load(1, XDATA, add(CFA_XSP16, literal(-12)))
        CFI V1 load(1, XDATA, add(CFA_XSP16, literal(-13)))
        CFI V0 load(1, XDATA, add(CFA_XSP16, literal(-14)))
        CFI VB load(1, XDATA, add(CFA_XSP16, literal(-15)))
        CFI R6 load(1, XDATA, add(CFA_XSP16, literal(-16)))
        CFI CFA_SP SP+0
        CFI CFA_XSP16 add(XSP16, 16)
        ; Saved register size: 16
        ; Auto size: 0
        MOV     ?V0 + 0,R1
        MOV     ?V0 + 1,R2
        MOV     ?V0 + 2,R3
        MOV     A,R4
        MOV     R6,A
        MOV     A,R5
        MOV     R7,A
//  208   uint8 *pDst;
//  209 
//  210   pDst = osal_mem_alloc( len );
        ; Setup parameters for call to function osal_mem_alloc
        MOV     A,R6
        MOV     R2,A
        MOV     A,R7
        MOV     R3,A
        LCALL   ??osal_mem_alloc?relay
        MOV     ?V0 + 6,R2
        MOV     ?V0 + 7,R3
//  211   if ( pDst )
        MOV     A,R2
        ORL     A,?V0 + 7
        JZ      ??osal_memdup_0
//  212   {
//  213     VOID osal_memcpy( pDst, src, len );
        ; Setup parameters for call to function osal_memcpy
        MOV     R0,#?V0 + 0
        LCALL   ?PUSH_XSTACK_I_THREE
        CFI CFA_XSP16 add(XSP16, 19)
        MOV     A,R6
        MOV     R4,A
        MOV     A,R7
        MOV     R5,A
        LCALL   ??osal_memcpy?relay
        MOV     A,#0x3
        LCALL   ?DEALLOC_XSTACK8
        CFI CFA_XSP16 add(XSP16, 16)
//  214   }
//  215 
//  216   return ( (void *)pDst );
??osal_memdup_0:
        MOV     R2,?V0 + 6
        MOV     R3,?V0 + 7
        SJMP    ??Subroutine29_0
        CFI EndBlock cfiBlock7
//  217 }

        RSEG BANKED_CODE:CODE:NOROOT(0)
?Subroutine3:
        CFI Block cfiBlock8 Using cfiCommon0
        CFI NoFunction
        CFI CFA_SP SP+0
        CFI CFA_XSP16 add(XSP16, 16)
        CFI VB load(1, XDATA, add(CFA_XSP16, literal(-15)))
        CFI DPL0 load(1, XDATA, add(CFA_XSP16, literal(-2)))
        CFI DPH0 load(1, XDATA, add(CFA_XSP16, literal(-1)))
        CFI R6 load(1, XDATA, add(CFA_XSP16, literal(-16)))
        CFI R7 load(1, XDATA, add(CFA_XSP16, literal(-6)))
        CFI V0 load(1, XDATA, add(CFA_XSP16, literal(-14)))
        CFI V1 load(1, XDATA, add(CFA_XSP16, literal(-13)))
        CFI V2 load(1, XDATA, add(CFA_XSP16, literal(-12)))
        CFI V3 load(1, XDATA, add(CFA_XSP16, literal(-11)))
        CFI V4 load(1, XDATA, add(CFA_XSP16, literal(-10)))
        CFI V5 load(1, XDATA, add(CFA_XSP16, literal(-9)))
        CFI V6 load(1, XDATA, add(CFA_XSP16, literal(-8)))
        CFI V7 load(1, XDATA, add(CFA_XSP16, literal(-7)))
        CFI ?BRET_EXT load(1, XDATA, add(CFA_XSP16, literal(-3)))
        CFI ?RET_HIGH load(1, XDATA, add(CFA_XSP16, literal(-4)))
        CFI ?RET_LOW load(1, XDATA, add(CFA_XSP16, literal(-5)))
        MOV     R0,#?V0 + 4
        LCALL   ?UL_SHR
        MOV     A,?V0 + 4
        MOVX    @DPTR,A
        INC     DPTR
        MOV     R2,DPL
        MOV     R3,DPH
        CFI EndBlock cfiBlock8
        REQUIRE ??Subroutine29_0
        ; // Fall through to label ??Subroutine29_0

        RSEG BANKED_CODE:CODE:NOROOT(0)
??Subroutine29_0:
        CFI Block cfiBlock9 Using cfiCommon0
        CFI NoFunction
        CFI CFA_SP SP+0
        CFI CFA_XSP16 add(XSP16, 16)
        CFI VB load(1, XDATA, add(CFA_XSP16, literal(-15)))
        CFI DPL0 load(1, XDATA, add(CFA_XSP16, literal(-2)))
        CFI DPH0 load(1, XDATA, add(CFA_XSP16, literal(-1)))
        CFI R6 load(1, XDATA, add(CFA_XSP16, literal(-16)))
        CFI R7 load(1, XDATA, add(CFA_XSP16, literal(-6)))
        CFI V0 load(1, XDATA, add(CFA_XSP16, literal(-14)))
        CFI V1 load(1, XDATA, add(CFA_XSP16, literal(-13)))
        CFI V2 load(1, XDATA, add(CFA_XSP16, literal(-12)))
        CFI V3 load(1, XDATA, add(CFA_XSP16, literal(-11)))
        CFI V4 load(1, XDATA, add(CFA_XSP16, literal(-10)))
        CFI V5 load(1, XDATA, add(CFA_XSP16, literal(-9)))
        CFI V6 load(1, XDATA, add(CFA_XSP16, literal(-8)))
        CFI V7 load(1, XDATA, add(CFA_XSP16, literal(-7)))
        CFI ?BRET_EXT load(1, XDATA, add(CFA_XSP16, literal(-3)))
        CFI ?RET_HIGH load(1, XDATA, add(CFA_XSP16, literal(-4)))
        CFI ?RET_LOW load(1, XDATA, add(CFA_XSP16, literal(-5)))
        MOV     R7,#0x8
        LJMP    ?BANKED_LEAVE_XDATA
        CFI EndBlock cfiBlock9
//  218 
//  219 /*********************************************************************
//  220  * @fn      osal_memcmp
//  221  *
//  222  * @brief
//  223  *
//  224  *   Generic memory compare.
//  225  *
//  226  * @param   src1 - source 1 addrexx
//  227  * @param   src2 - source 2 address
//  228  * @param   len - number of bytes to compare
//  229  *
//  230  * @return  TRUE - same, FALSE - different
//  231  */

        RSEG BANKED_CODE:CODE:NOROOT(0)
//  232 uint8 osal_memcmp( const void GENERIC *src1, const void GENERIC *src2, unsigned int len )
osal_memcmp:
        CFI Block cfiBlock10 Using cfiCommon0
        CFI Function osal_memcmp
        CODE
//  233 {
        MOV     A,#-0xf
        LCALL   ?BANKED_ENTER_XDATA
        CFI DPH0 load(1, XDATA, add(CFA_XSP16, literal(-1)))
        CFI DPL0 load(1, XDATA, add(CFA_XSP16, literal(-2)))
        CFI ?BRET_EXT load(1, XDATA, add(CFA_XSP16, literal(-3)))
        CFI ?RET_HIGH load(1, XDATA, add(CFA_XSP16, literal(-4)))
        CFI ?RET_LOW load(1, XDATA, add(CFA_XSP16, literal(-5)))
        CFI R7 load(1, XDATA, add(CFA_XSP16, literal(-6)))
        CFI V6 load(1, XDATA, add(CFA_XSP16, literal(-7)))
        CFI V5 load(1, XDATA, add(CFA_XSP16, literal(-8)))
        CFI V4 load(1, XDATA, add(CFA_XSP16, literal(-9)))
        CFI V3 load(1, XDATA, add(CFA_XSP16, literal(-10)))
        CFI V2 load(1, XDATA, add(CFA_XSP16, literal(-11)))
        CFI V1 load(1, XDATA, add(CFA_XSP16, literal(-12)))
        CFI V0 load(1, XDATA, add(CFA_XSP16, literal(-13)))
        CFI VB load(1, XDATA, add(CFA_XSP16, literal(-14)))
        CFI R6 load(1, XDATA, add(CFA_XSP16, literal(-15)))
        CFI CFA_SP SP+0
        CFI CFA_XSP16 add(XSP16, 15)
        ; Saved register size: 15
        ; Auto size: 3
        MOV     A,#-0x3
        LCALL   ?ALLOC_XSTACK8
        CFI CFA_XSP16 add(XSP16, 18)
        MOV     DPL,?XSP + 0
        MOV     DPH,?XSP + 1
        MOV     A,R1
        MOVX    @DPTR,A
        INC     DPTR
        MOV     A,R2
        MOVX    @DPTR,A
        INC     DPTR
        MOV     A,R3
        MOVX    @DPTR,A
        MOV     ?V0 + 0,R4
        MOV     ?V0 + 1,R5
        MOV     A,#0x12
        LCALL   ?XSTACK_DISP0_8
        LCALL   ?Subroutine10 & 0xFFFF
//  234   const uint8 GENERIC *pSrc1;
//  235   const uint8 GENERIC *pSrc2;
//  236 
//  237   pSrc1 = src1;
??CrossCallReturnLabel_13:
        MOV     DPL,?XSP + 0
        MOV     DPH,?XSP + 1
        MOVX    A,@DPTR
        MOV     ?V0 + 4,A
        INC     DPTR
        MOVX    A,@DPTR
        MOV     ?V0 + 5,A
        INC     DPTR
        MOVX    A,@DPTR
        MOV     ?V0 + 6,A
//  238   pSrc2 = src2;
        MOV     A,R1
        MOV     R4,A
        MOV     A,R2
        MOV     R5,A
        MOV     A,R3
        MOV     R6,A
//  239 
//  240   while ( len-- )
??osal_memcmp_0:
        MOV     R0,?V0 + 0
        MOV     R1,?V0 + 1
        MOV     A,R0
        ADD     A,#-0x1
        MOV     ?V0 + 0,A
        MOV     A,R1
        ADDC    A,#-0x1
        MOV     ?V0 + 1,A
        MOV     A,R0
        ORL     A,R1
        JZ      ??osal_memcmp_1
//  241   {
//  242     if( *pSrc1++ != *pSrc2++ )
        MOV     R1,?V0 + 4
        MOV     R2,?V0 + 5
        MOV     R3,?V0 + 6
        MOV     A,R1
        ADD     A,#0x1
        MOV     ?V0 + 4,A
        MOV     A,R2
        ADDC    A,#0x0
        MOV     ?V0 + 5,A
        MOV     DPL,?XSP + 0
        MOV     DPH,?XSP + 1
        MOV     A,R4
        MOVX    @DPTR,A
        INC     DPTR
        MOV     A,R5
        MOVX    @DPTR,A
        INC     DPTR
        MOV     A,R6
        MOVX    @DPTR,A
        MOV     DPL,?XSP + 0
        MOV     DPH,?XSP + 1
        MOVX    A,@DPTR
        MOV     R4,A
        INC     DPTR
        MOVX    A,@DPTR
        MOV     R5,A
        MOV     A,R4
        ADD     A,#0x1
        INC     R4
        MOV     A,R5
        ADDC    A,#0x0
        MOV     R5,A
        LCALL   ?C_GPTR_LOAD
        MOV     R0,A
        MOV     DPL,?XSP + 0
        MOV     DPH,?XSP + 1
        LCALL   ?Subroutine10 & 0xFFFF
??CrossCallReturnLabel_14:
        LCALL   ?C_GPTR_LOAD
        XRL     A,R0
        JZ      ??osal_memcmp_0
//  243       return FALSE;
        MOV     R1,#0x0
        SJMP    ??osal_memcmp_2
//  244   }
//  245   return TRUE;
??osal_memcmp_1:
        MOV     R1,#0x1
??osal_memcmp_2:
        MOV     A,#0x3
        LCALL   ?DEALLOC_XSTACK8
        CFI CFA_XSP16 add(XSP16, 15)
        MOV     R7,#0x7
        LJMP    ?BANKED_LEAVE_XDATA
        CFI EndBlock cfiBlock10
//  246 }

        RSEG BANKED_CODE:CODE:NOROOT(0)
?Subroutine10:
        CFI Block cfiCond11 Using cfiCommon0
        CFI NoFunction
        CFI Conditional ??CrossCallReturnLabel_12
        CFI R6 load(1, XDATA, add(CFA_XSP16, literal(-9)))
        CFI VB load(1, XDATA, add(CFA_XSP16, literal(-8)))
        CFI V0 load(1, XDATA, add(CFA_XSP16, literal(-7)))
        CFI R7 load(1, XDATA, add(CFA_XSP16, literal(-6)))
        CFI ?RET_LOW load(1, XDATA, add(CFA_XSP16, literal(-5)))
        CFI ?RET_HIGH load(1, XDATA, add(CFA_XSP16, literal(-4)))
        CFI ?BRET_EXT load(1, XDATA, add(CFA_XSP16, literal(-3)))
        CFI DPL0 load(1, XDATA, add(CFA_XSP16, literal(-2)))
        CFI DPH0 load(1, XDATA, add(CFA_XSP16, literal(-1)))
        CFI CFA_SP SP+0
        CFI CFA_XSP16 add(XSP16, 9)
        CFI Block cfiCond12 Using cfiCommon0
        CFI (cfiCond12) NoFunction
        CFI (cfiCond12) Conditional ??CrossCallReturnLabel_13
        CFI (cfiCond12) R6 load(1, XDATA, add(CFA_XSP16, literal(-15)))
        CFI (cfiCond12) VB load(1, XDATA, add(CFA_XSP16, literal(-14)))
        CFI (cfiCond12) V0 load(1, XDATA, add(CFA_XSP16, literal(-13)))
        CFI (cfiCond12) V1 load(1, XDATA, add(CFA_XSP16, literal(-12)))
        CFI (cfiCond12) V2 load(1, XDATA, add(CFA_XSP16, literal(-11)))
        CFI (cfiCond12) V3 load(1, XDATA, add(CFA_XSP16, literal(-10)))
        CFI (cfiCond12) V4 load(1, XDATA, add(CFA_XSP16, literal(-9)))
        CFI (cfiCond12) V5 load(1, XDATA, add(CFA_XSP16, literal(-8)))
        CFI (cfiCond12) V6 load(1, XDATA, add(CFA_XSP16, literal(-7)))
        CFI (cfiCond12) R7 load(1, XDATA, add(CFA_XSP16, literal(-6)))
        CFI (cfiCond12) ?RET_LOW load(1, XDATA, add(CFA_XSP16, literal(-5)))
        CFI (cfiCond12) ?RET_HIGH load(1, XDATA, add(CFA_XSP16, literal(-4)))
        CFI (cfiCond12) ?BRET_EXT load(1, XDATA, add(CFA_XSP16, literal(-3)))
        CFI (cfiCond12) DPL0 load(1, XDATA, add(CFA_XSP16, literal(-2)))
        CFI (cfiCond12) DPH0 load(1, XDATA, add(CFA_XSP16, literal(-1)))
        CFI (cfiCond12) CFA_SP SP+0
        CFI (cfiCond12) CFA_XSP16 add(XSP16, 18)
        CFI Block cfiCond13 Using cfiCommon0
        CFI (cfiCond13) NoFunction
        CFI (cfiCond13) Conditional ??CrossCallReturnLabel_14
        CFI (cfiCond13) R6 load(1, XDATA, add(CFA_XSP16, literal(-15)))
        CFI (cfiCond13) VB load(1, XDATA, add(CFA_XSP16, literal(-14)))
        CFI (cfiCond13) V0 load(1, XDATA, add(CFA_XSP16, literal(-13)))
        CFI (cfiCond13) V1 load(1, XDATA, add(CFA_XSP16, literal(-12)))
        CFI (cfiCond13) V2 load(1, XDATA, add(CFA_XSP16, literal(-11)))
        CFI (cfiCond13) V3 load(1, XDATA, add(CFA_XSP16, literal(-10)))
        CFI (cfiCond13) V4 load(1, XDATA, add(CFA_XSP16, literal(-9)))
        CFI (cfiCond13) V5 load(1, XDATA, add(CFA_XSP16, literal(-8)))
        CFI (cfiCond13) V6 load(1, XDATA, add(CFA_XSP16, literal(-7)))
        CFI (cfiCond13) R7 load(1, XDATA, add(CFA_XSP16, literal(-6)))
        CFI (cfiCond13) ?RET_LOW load(1, XDATA, add(CFA_XSP16, literal(-5)))
        CFI (cfiCond13) ?RET_HIGH load(1, XDATA, add(CFA_XSP16, literal(-4)))
        CFI (cfiCond13) ?BRET_EXT load(1, XDATA, add(CFA_XSP16, literal(-3)))
        CFI (cfiCond13) DPL0 load(1, XDATA, add(CFA_XSP16, literal(-2)))
        CFI (cfiCond13) DPH0 load(1, XDATA, add(CFA_XSP16, literal(-1)))
        CFI (cfiCond13) CFA_SP SP+0
        CFI (cfiCond13) CFA_XSP16 add(XSP16, 18)
        CFI Block cfiPicker14 Using cfiCommon1
        CFI (cfiPicker14) NoFunction
        CFI (cfiPicker14) Picker
        MOVX    A,@DPTR
        MOV     R1,A
        INC     DPTR
        LCALL   ?Subroutine27 & 0xFFFF
??CrossCallReturnLabel_73:
        RET
        CFI EndBlock cfiCond11
        CFI EndBlock cfiCond12
        CFI EndBlock cfiCond13
        CFI EndBlock cfiPicker14
//  247 
//  248 
//  249 /*********************************************************************
//  250  * @fn      osal_memset
//  251  *
//  252  * @brief
//  253  *
//  254  *   Set memory buffer to value.
//  255  *
//  256  * @param   dest - pointer to buffer
//  257  * @param   value - what to set each uint8 of the message
//  258  * @param   size - how big
//  259  *
//  260  * @return  pointer to destination buffer
//  261  */

        RSEG BANKED_CODE:CODE:NOROOT(0)
//  262 void *osal_memset( void *dest, uint8 value, int len )
osal_memset:
        CFI Block cfiBlock15 Using cfiCommon0
        CFI Function osal_memset
        CODE
//  263 {
        FUNCALL osal_memset, memset
        LOCFRAME ISTACK, 0, STACK
        LOCFRAME PSTACK, 0, STACK
        LOCFRAME XSTACK, 12, STACK
        LOCFRAME IOVERLAY, 0, STATIC
        LOCFRAME DOVERLAY, 0, STATIC
        ARGFRAME ISTACK, 0, STACK
        ARGFRAME PSTACK, 0, STACK
        ARGFRAME XSTACK, 12, STACK
        ARGFRAME IOVERLAY, 0, STATIC
        ARGFRAME DOVERLAY, 0, STATIC
        MOV     A,#-0xa
        LCALL   ?BANKED_ENTER_XDATA
        CFI DPH0 load(1, XDATA, add(CFA_XSP16, literal(-1)))
        CFI DPL0 load(1, XDATA, add(CFA_XSP16, literal(-2)))
        CFI ?BRET_EXT load(1, XDATA, add(CFA_XSP16, literal(-3)))
        CFI ?RET_HIGH load(1, XDATA, add(CFA_XSP16, literal(-4)))
        CFI ?RET_LOW load(1, XDATA, add(CFA_XSP16, literal(-5)))
        CFI R7 load(1, XDATA, add(CFA_XSP16, literal(-6)))
        CFI V1 load(1, XDATA, add(CFA_XSP16, literal(-7)))
        CFI V0 load(1, XDATA, add(CFA_XSP16, literal(-8)))
        CFI VB load(1, XDATA, add(CFA_XSP16, literal(-9)))
        CFI R6 load(1, XDATA, add(CFA_XSP16, literal(-10)))
        CFI CFA_SP SP+0
        CFI CFA_XSP16 add(XSP16, 10)
        ; Saved register size: 10
        ; Auto size: 0
        MOV     A,R1
        MOV     R6,A
//  264   return memset( dest, value, len );
        ; Setup parameters for call to function memset
        MOV     ?V0 + 0,R4
        MOV     ?V0 + 1,R5
        MOV     R0,#?V0 + 0
        LCALL   ?PUSH_XSTACK_I_TWO
        CFI CFA_XSP16 add(XSP16, 12)
        MOV     ?V0 + 0,R6
        MOV     R4,?V0 + 0
        MOV     R5,#0x0
        LCALL   ??memset?relay
        MOV     A,#0x2
        LCALL   ?DEALLOC_XSTACK8
        CFI CFA_XSP16 add(XSP16, 10)
        LJMP    ?Subroutine4 & 0xFFFF
        CFI EndBlock cfiBlock15
//  265 }
//  266 
//  267 /*********************************************************************
//  268  * @fn      osal_build_uint16
//  269  *
//  270  * @brief
//  271  *
//  272  *   Build a uint16 out of 2 bytes (0 then 1).
//  273  *
//  274  * @param   swapped - 0 then 1
//  275  *
//  276  * @return  uint16
//  277  */

        RSEG BANKED_CODE:CODE:NOROOT(0)
//  278 uint16 osal_build_uint16( uint8 *swapped )
osal_build_uint16:
        CFI Block cfiBlock16 Using cfiCommon0
        CFI Function osal_build_uint16
        CODE
//  279 {
        PUSH    DPL
        CFI DPL0 Frame(CFA_SP, 4)
        CFI CFA_SP SP+-4
        PUSH    DPH
        CFI DPH0 Frame(CFA_SP, 5)
        CFI CFA_SP SP+-5
        ; Saved register size: 2
        ; Auto size: 0
//  280   return ( BUILD_UINT16( swapped[0], swapped[1] ) );
        MOV     DPL,R2
        MOV     DPH,R3
        MOVX    A,@DPTR
        MOV     R4,A
        INC     DPTR
        MOVX    A,@DPTR
        MOV     R1,A
        MOV     A,R4
        ADD     A,#0x0
        MOV     R2,A
        CLR     A
        ADDC    A,R1
        MOV     R3,A
        LJMP    ?Subroutine0 & 0xFFFF
        CFI EndBlock cfiBlock16
//  281 }
//  282 
//  283 /*********************************************************************
//  284  * @fn      osal_build_uint32
//  285  *
//  286  * @brief
//  287  *
//  288  *   Build a uint32 out of sequential bytes.
//  289  *
//  290  * @param   swapped - sequential bytes
//  291  * @param   len - number of bytes in the uint8 array
//  292  *
//  293  * @return  uint32
//  294  */

        RSEG BANKED_CODE:CODE:NOROOT(0)
//  295 uint32 osal_build_uint32( uint8 *swapped, uint8 len )
osal_build_uint32:
        CFI Block cfiBlock17 Using cfiCommon0
        CFI Function osal_build_uint32
        CODE
//  296 {
        MOV     A,#-0x10
        LCALL   ?BANKED_ENTER_XDATA
        CFI DPH0 load(1, XDATA, add(CFA_XSP16, literal(-1)))
        CFI DPL0 load(1, XDATA, add(CFA_XSP16, literal(-2)))
        CFI ?BRET_EXT load(1, XDATA, add(CFA_XSP16, literal(-3)))
        CFI ?RET_HIGH load(1, XDATA, add(CFA_XSP16, literal(-4)))
        CFI ?RET_LOW load(1, XDATA, add(CFA_XSP16, literal(-5)))
        CFI R7 load(1, XDATA, add(CFA_XSP16, literal(-6)))
        CFI V7 load(1, XDATA, add(CFA_XSP16, literal(-7)))
        CFI V6 load(1, XDATA, add(CFA_XSP16, literal(-8)))
        CFI V5 load(1, XDATA, add(CFA_XSP16, literal(-9)))
        CFI V4 load(1, XDATA, add(CFA_XSP16, literal(-10)))
        CFI V3 load(1, XDATA, add(CFA_XSP16, literal(-11)))
        CFI V2 load(1, XDATA, add(CFA_XSP16, literal(-12)))
        CFI V1 load(1, XDATA, add(CFA_XSP16, literal(-13)))
        CFI V0 load(1, XDATA, add(CFA_XSP16, literal(-14)))
        CFI VB load(1, XDATA, add(CFA_XSP16, literal(-15)))
        CFI R6 load(1, XDATA, add(CFA_XSP16, literal(-16)))
        CFI CFA_SP SP+0
        CFI CFA_XSP16 add(XSP16, 16)
        ; Saved register size: 16
        ; Auto size: 0
        MOV     A,R1
        MOV     R6,A
//  297   if ( len == 2 )
        MOV     DPL,R2
        MOV     DPH,R3
        MOVX    A,@DPTR
        MOV     ?V0 + 0,A
        CLR     A
        MOV     ?V0 + 1,A
        MOV     ?V0 + 2,A
        MOV     ?V0 + 3,A
        MOV     A,#0x2
        XRL     A,R6
        JNZ     ??osal_build_uint32_0
//  298     return ( BUILD_UINT32( swapped[0], swapped[1], 0L, 0L ) );
        LCALL   ?Subroutine25 & 0xFFFF
??CrossCallReturnLabel_43:
        SJMP    ??osal_build_uint32_1
//  299   else if ( len == 3 )
??osal_build_uint32_0:
        MOV     A,#0x3
        XRL     A,R6
        JNZ     ??osal_build_uint32_2
//  300     return ( BUILD_UINT32( swapped[0], swapped[1], swapped[2], 0L ) );
        LCALL   ?Subroutine9 & 0xFFFF
??CrossCallReturnLabel_10:
        LCALL   ?L_SHL
        MOV     R0,#?V0 + 0
        MOV     R1,#?V0 + 4
        LCALL   ?L_ADD
        LCALL   ?Subroutine18 & 0xFFFF
??CrossCallReturnLabel_31:
        SJMP    ??osal_build_uint32_1
//  301   else if ( len == 4 )
??osal_build_uint32_2:
        MOV     A,#0x4
        XRL     A,R6
        JNZ     ??osal_build_uint32_3
//  302     return ( BUILD_UINT32( swapped[0], swapped[1], swapped[2], swapped[3] ) );
        LCALL   ?Subroutine9 & 0xFFFF
??CrossCallReturnLabel_11:
        LCALL   ?L_SHL
        MOV     R0,#?V0 + 0
        MOV     R1,#?V0 + 4
        LCALL   ?L_ADD
        LCALL   ?Subroutine18 & 0xFFFF
??CrossCallReturnLabel_32:
        MOV     R0,#?V0 + 4
        LCALL   ?L_SHL
        MOV     R0,#?V0 + 0
        MOV     R1,#?V0 + 4
        LCALL   ?L_ADD
        MOV     DPL,R2
        MOV     DPH,R3
        INC     DPTR
        INC     DPTR
        INC     DPTR
        MOVX    A,@DPTR
        MOV     ?V0 + 4,A
        CLR     A
        MOV     ?V0 + 6,A
        MOV     A,#0x18
??osal_build_uint32_1:
        MOV     R0,#?V0 + 4
        LCALL   ?L_SHL
        MOV     R0,#?V0 + 0
        MOV     R1,#?V0 + 4
        LCALL   ?L_ADD
//  303   else
//  304     return ( (uint32)swapped[0] );
??osal_build_uint32_3:
        MOV     R2,?V0 + 0
        MOV     R3,?V0 + 1
        MOV     R4,?V0 + 2
        MOV     R5,?V0 + 3
        LJMP    ??Subroutine29_0 & 0xFFFF
        CFI EndBlock cfiBlock17
//  305 }

        RSEG BANKED_CODE:CODE:NOROOT(0)
?Subroutine18:
        CFI Block cfiCond18 Using cfiCommon0
        CFI NoFunction
        CFI Conditional ??CrossCallReturnLabel_31
        CFI R6 load(1, XDATA, add(CFA_XSP16, literal(-16)))
        CFI VB load(1, XDATA, add(CFA_XSP16, literal(-15)))
        CFI V0 load(1, XDATA, add(CFA_XSP16, literal(-14)))
        CFI V1 load(1, XDATA, add(CFA_XSP16, literal(-13)))
        CFI V2 load(1, XDATA, add(CFA_XSP16, literal(-12)))
        CFI V3 load(1, XDATA, add(CFA_XSP16, literal(-11)))
        CFI V4 load(1, XDATA, add(CFA_XSP16, literal(-10)))
        CFI V5 load(1, XDATA, add(CFA_XSP16, literal(-9)))
        CFI V6 load(1, XDATA, add(CFA_XSP16, literal(-8)))
        CFI V7 load(1, XDATA, add(CFA_XSP16, literal(-7)))
        CFI R7 load(1, XDATA, add(CFA_XSP16, literal(-6)))
        CFI ?RET_LOW load(1, XDATA, add(CFA_XSP16, literal(-5)))
        CFI ?RET_HIGH load(1, XDATA, add(CFA_XSP16, literal(-4)))
        CFI ?BRET_EXT load(1, XDATA, add(CFA_XSP16, literal(-3)))
        CFI DPL0 load(1, XDATA, add(CFA_XSP16, literal(-2)))
        CFI DPH0 load(1, XDATA, add(CFA_XSP16, literal(-1)))
        CFI CFA_SP SP+0
        CFI CFA_XSP16 add(XSP16, 16)
        CFI Block cfiCond19 Using cfiCommon0
        CFI (cfiCond19) NoFunction
        CFI (cfiCond19) Conditional ??CrossCallReturnLabel_32
        CFI (cfiCond19) R6 load(1, XDATA, add(CFA_XSP16, literal(-16)))
        CFI (cfiCond19) VB load(1, XDATA, add(CFA_XSP16, literal(-15)))
        CFI (cfiCond19) V0 load(1, XDATA, add(CFA_XSP16, literal(-14)))
        CFI (cfiCond19) V1 load(1, XDATA, add(CFA_XSP16, literal(-13)))
        CFI (cfiCond19) V2 load(1, XDATA, add(CFA_XSP16, literal(-12)))
        CFI (cfiCond19) V3 load(1, XDATA, add(CFA_XSP16, literal(-11)))
        CFI (cfiCond19) V4 load(1, XDATA, add(CFA_XSP16, literal(-10)))
        CFI (cfiCond19) V5 load(1, XDATA, add(CFA_XSP16, literal(-9)))
        CFI (cfiCond19) V6 load(1, XDATA, add(CFA_XSP16, literal(-8)))
        CFI (cfiCond19) V7 load(1, XDATA, add(CFA_XSP16, literal(-7)))
        CFI (cfiCond19) R7 load(1, XDATA, add(CFA_XSP16, literal(-6)))
        CFI (cfiCond19) ?RET_LOW load(1, XDATA, add(CFA_XSP16, literal(-5)))
        CFI (cfiCond19) ?RET_HIGH load(1, XDATA, add(CFA_XSP16, literal(-4)))
        CFI (cfiCond19) ?BRET_EXT load(1, XDATA, add(CFA_XSP16, literal(-3)))
        CFI (cfiCond19) DPL0 load(1, XDATA, add(CFA_XSP16, literal(-2)))
        CFI (cfiCond19) DPH0 load(1, XDATA, add(CFA_XSP16, literal(-1)))
        CFI (cfiCond19) CFA_SP SP+0
        CFI (cfiCond19) CFA_XSP16 add(XSP16, 16)
        CFI Block cfiPicker20 Using cfiCommon1
        CFI (cfiPicker20) NoFunction
        CFI (cfiPicker20) Picker
        MOV     DPL,R2
        MOV     DPH,R3
        INC     DPTR
        INC     DPTR
        MOVX    A,@DPTR
        MOV     ?V0 + 4,A
        CLR     A
        MOV     ?V0 + 5,A
        MOV     A,#0x10
        RET
        CFI EndBlock cfiCond18
        CFI EndBlock cfiCond19
        CFI EndBlock cfiPicker20

        RSEG BANKED_CODE:CODE:NOROOT(0)
?Subroutine9:
        CFI Block cfiCond21 Using cfiCommon0
        CFI NoFunction
        CFI Conditional ??CrossCallReturnLabel_10
        CFI R6 load(1, XDATA, add(CFA_XSP16, literal(-16)))
        CFI VB load(1, XDATA, add(CFA_XSP16, literal(-15)))
        CFI V0 load(1, XDATA, add(CFA_XSP16, literal(-14)))
        CFI V1 load(1, XDATA, add(CFA_XSP16, literal(-13)))
        CFI V2 load(1, XDATA, add(CFA_XSP16, literal(-12)))
        CFI V3 load(1, XDATA, add(CFA_XSP16, literal(-11)))
        CFI V4 load(1, XDATA, add(CFA_XSP16, literal(-10)))
        CFI V5 load(1, XDATA, add(CFA_XSP16, literal(-9)))
        CFI V6 load(1, XDATA, add(CFA_XSP16, literal(-8)))
        CFI V7 load(1, XDATA, add(CFA_XSP16, literal(-7)))
        CFI R7 load(1, XDATA, add(CFA_XSP16, literal(-6)))
        CFI ?RET_LOW load(1, XDATA, add(CFA_XSP16, literal(-5)))
        CFI ?RET_HIGH load(1, XDATA, add(CFA_XSP16, literal(-4)))
        CFI ?BRET_EXT load(1, XDATA, add(CFA_XSP16, literal(-3)))
        CFI DPL0 load(1, XDATA, add(CFA_XSP16, literal(-2)))
        CFI DPH0 load(1, XDATA, add(CFA_XSP16, literal(-1)))
        CFI CFA_SP SP+0
        CFI CFA_XSP16 add(XSP16, 16)
        CFI Block cfiCond22 Using cfiCommon0
        CFI (cfiCond22) NoFunction
        CFI (cfiCond22) Conditional ??CrossCallReturnLabel_11
        CFI (cfiCond22) R6 load(1, XDATA, add(CFA_XSP16, literal(-16)))
        CFI (cfiCond22) VB load(1, XDATA, add(CFA_XSP16, literal(-15)))
        CFI (cfiCond22) V0 load(1, XDATA, add(CFA_XSP16, literal(-14)))
        CFI (cfiCond22) V1 load(1, XDATA, add(CFA_XSP16, literal(-13)))
        CFI (cfiCond22) V2 load(1, XDATA, add(CFA_XSP16, literal(-12)))
        CFI (cfiCond22) V3 load(1, XDATA, add(CFA_XSP16, literal(-11)))
        CFI (cfiCond22) V4 load(1, XDATA, add(CFA_XSP16, literal(-10)))
        CFI (cfiCond22) V5 load(1, XDATA, add(CFA_XSP16, literal(-9)))
        CFI (cfiCond22) V6 load(1, XDATA, add(CFA_XSP16, literal(-8)))
        CFI (cfiCond22) V7 load(1, XDATA, add(CFA_XSP16, literal(-7)))
        CFI (cfiCond22) R7 load(1, XDATA, add(CFA_XSP16, literal(-6)))
        CFI (cfiCond22) ?RET_LOW load(1, XDATA, add(CFA_XSP16, literal(-5)))
        CFI (cfiCond22) ?RET_HIGH load(1, XDATA, add(CFA_XSP16, literal(-4)))
        CFI (cfiCond22) ?BRET_EXT load(1, XDATA, add(CFA_XSP16, literal(-3)))
        CFI (cfiCond22) DPL0 load(1, XDATA, add(CFA_XSP16, literal(-2)))
        CFI (cfiCond22) DPH0 load(1, XDATA, add(CFA_XSP16, literal(-1)))
        CFI (cfiCond22) CFA_SP SP+0
        CFI (cfiCond22) CFA_XSP16 add(XSP16, 16)
        CFI Block cfiPicker23 Using cfiCommon1
        CFI (cfiPicker23) NoFunction
        CFI (cfiPicker23) Picker
        LCALL   ?Subroutine25 & 0xFFFF
??CrossCallReturnLabel_44:
        MOV     R0,#?V0 + 4
        RET
        CFI EndBlock cfiCond21
        CFI EndBlock cfiCond22
        CFI EndBlock cfiPicker23

        RSEG BANKED_CODE:CODE:NOROOT(0)
?Subroutine25:
        CFI Block cfiCond24 Using cfiCommon0
        CFI NoFunction
        CFI Conditional ??CrossCallReturnLabel_43
        CFI R6 load(1, XDATA, add(CFA_XSP16, literal(-16)))
        CFI VB load(1, XDATA, add(CFA_XSP16, literal(-15)))
        CFI V0 load(1, XDATA, add(CFA_XSP16, literal(-14)))
        CFI V1 load(1, XDATA, add(CFA_XSP16, literal(-13)))
        CFI V2 load(1, XDATA, add(CFA_XSP16, literal(-12)))
        CFI V3 load(1, XDATA, add(CFA_XSP16, literal(-11)))
        CFI V4 load(1, XDATA, add(CFA_XSP16, literal(-10)))
        CFI V5 load(1, XDATA, add(CFA_XSP16, literal(-9)))
        CFI V6 load(1, XDATA, add(CFA_XSP16, literal(-8)))
        CFI V7 load(1, XDATA, add(CFA_XSP16, literal(-7)))
        CFI R7 load(1, XDATA, add(CFA_XSP16, literal(-6)))
        CFI ?RET_LOW load(1, XDATA, add(CFA_XSP16, literal(-5)))
        CFI ?RET_HIGH load(1, XDATA, add(CFA_XSP16, literal(-4)))
        CFI ?BRET_EXT load(1, XDATA, add(CFA_XSP16, literal(-3)))
        CFI DPL0 load(1, XDATA, add(CFA_XSP16, literal(-2)))
        CFI DPH0 load(1, XDATA, add(CFA_XSP16, literal(-1)))
        CFI CFA_SP SP+0
        CFI CFA_XSP16 add(XSP16, 16)
        CFI Block cfiCond25 Using cfiCommon0
        CFI (cfiCond25) NoFunction
        CFI (cfiCond25) Conditional ??CrossCallReturnLabel_44, ??CrossCallReturnLabel_10
        CFI (cfiCond25) R6 load(1, XDATA, add(CFA_XSP16, literal(-16)))
        CFI (cfiCond25) VB load(1, XDATA, add(CFA_XSP16, literal(-15)))
        CFI (cfiCond25) V0 load(1, XDATA, add(CFA_XSP16, literal(-14)))
        CFI (cfiCond25) V1 load(1, XDATA, add(CFA_XSP16, literal(-13)))
        CFI (cfiCond25) V2 load(1, XDATA, add(CFA_XSP16, literal(-12)))
        CFI (cfiCond25) V3 load(1, XDATA, add(CFA_XSP16, literal(-11)))
        CFI (cfiCond25) V4 load(1, XDATA, add(CFA_XSP16, literal(-10)))
        CFI (cfiCond25) V5 load(1, XDATA, add(CFA_XSP16, literal(-9)))
        CFI (cfiCond25) V6 load(1, XDATA, add(CFA_XSP16, literal(-8)))
        CFI (cfiCond25) V7 load(1, XDATA, add(CFA_XSP16, literal(-7)))
        CFI (cfiCond25) R7 load(1, XDATA, add(CFA_XSP16, literal(-6)))
        CFI (cfiCond25) ?RET_LOW load(1, XDATA, add(CFA_XSP16, literal(-5)))
        CFI (cfiCond25) ?RET_HIGH load(1, XDATA, add(CFA_XSP16, literal(-4)))
        CFI (cfiCond25) ?BRET_EXT load(1, XDATA, add(CFA_XSP16, literal(-3)))
        CFI (cfiCond25) DPL0 load(1, XDATA, add(CFA_XSP16, literal(-2)))
        CFI (cfiCond25) DPH0 load(1, XDATA, add(CFA_XSP16, literal(-1)))
        CFI (cfiCond25) CFA_SP SP+0
        CFI (cfiCond25) CFA_XSP16 add(XSP16, 16)
        CFI Block cfiCond26 Using cfiCommon0
        CFI (cfiCond26) NoFunction
        CFI (cfiCond26) Conditional ??CrossCallReturnLabel_44, ??CrossCallReturnLabel_11
        CFI (cfiCond26) R6 load(1, XDATA, add(CFA_XSP16, literal(-16)))
        CFI (cfiCond26) VB load(1, XDATA, add(CFA_XSP16, literal(-15)))
        CFI (cfiCond26) V0 load(1, XDATA, add(CFA_XSP16, literal(-14)))
        CFI (cfiCond26) V1 load(1, XDATA, add(CFA_XSP16, literal(-13)))
        CFI (cfiCond26) V2 load(1, XDATA, add(CFA_XSP16, literal(-12)))
        CFI (cfiCond26) V3 load(1, XDATA, add(CFA_XSP16, literal(-11)))
        CFI (cfiCond26) V4 load(1, XDATA, add(CFA_XSP16, literal(-10)))
        CFI (cfiCond26) V5 load(1, XDATA, add(CFA_XSP16, literal(-9)))
        CFI (cfiCond26) V6 load(1, XDATA, add(CFA_XSP16, literal(-8)))
        CFI (cfiCond26) V7 load(1, XDATA, add(CFA_XSP16, literal(-7)))
        CFI (cfiCond26) R7 load(1, XDATA, add(CFA_XSP16, literal(-6)))
        CFI (cfiCond26) ?RET_LOW load(1, XDATA, add(CFA_XSP16, literal(-5)))
        CFI (cfiCond26) ?RET_HIGH load(1, XDATA, add(CFA_XSP16, literal(-4)))
        CFI (cfiCond26) ?BRET_EXT load(1, XDATA, add(CFA_XSP16, literal(-3)))
        CFI (cfiCond26) DPL0 load(1, XDATA, add(CFA_XSP16, literal(-2)))
        CFI (cfiCond26) DPH0 load(1, XDATA, add(CFA_XSP16, literal(-1)))
        CFI (cfiCond26) CFA_SP SP+0
        CFI (cfiCond26) CFA_XSP16 add(XSP16, 16)
        CFI Block cfiPicker27 Using cfiCommon1
        CFI (cfiPicker27) NoFunction
        CFI (cfiPicker27) Picker
        INC     DPTR
        MOVX    A,@DPTR
        MOV     ?V0 + 4,A
        CLR     A
        MOV     ?V0 + 5,A
        MOV     ?V0 + 6,A
        MOV     ?V0 + 7,A
        MOV     A,#0x8
        RET
        CFI EndBlock cfiCond24
        CFI EndBlock cfiCond25
        CFI EndBlock cfiCond26
        CFI EndBlock cfiPicker27
//  306 
//  307 #if !defined ( ZBIT ) && !defined ( ZBIT2 ) && !defined (UBIT)
//  308 /*********************************************************************
//  309  * @fn      _ltoa
//  310  *
//  311  * @brief
//  312  *
//  313  *   convert a long unsigned int to a string.
//  314  *
//  315  * @param  l - long to convert
//  316  * @param  buf - buffer to convert to
//  317  * @param  radix - 10 dec, 16 hex
//  318  *
//  319  * @return  pointer to buffer
//  320  */

        RSEG BANKED_CODE:CODE:NOROOT(0)
//  321 unsigned char * _ltoa(unsigned long l, unsigned char *buf, unsigned char radix)
_ltoa:
        CFI Block cfiBlock28 Using cfiCommon0
        CFI Function _ltoa
        CODE
//  322 {
        FUNCALL _ltoa, _itoa
        LOCFRAME ISTACK, 0, STACK
        LOCFRAME PSTACK, 0, STACK
        LOCFRAME XSTACK, 55, STACK
        LOCFRAME IOVERLAY, 0, STATIC
        LOCFRAME DOVERLAY, 0, STATIC
        ARGFRAME ISTACK, 0, STACK
        ARGFRAME PSTACK, 0, STACK
        ARGFRAME XSTACK, 55, STACK
        ARGFRAME IOVERLAY, 0, STATIC
        ARGFRAME DOVERLAY, 0, STATIC
        FUNCALL _ltoa, _itoa
        LOCFRAME ISTACK, 0, STACK
        LOCFRAME PSTACK, 0, STACK
        LOCFRAME XSTACK, 55, STACK
        LOCFRAME IOVERLAY, 0, STATIC
        LOCFRAME DOVERLAY, 0, STATIC
        ARGFRAME ISTACK, 0, STACK
        ARGFRAME PSTACK, 0, STACK
        ARGFRAME XSTACK, 55, STACK
        ARGFRAME IOVERLAY, 0, STATIC
        ARGFRAME DOVERLAY, 0, STATIC
        FUNCALL _ltoa, _itoa
        LOCFRAME ISTACK, 0, STACK
        LOCFRAME PSTACK, 0, STACK
        LOCFRAME XSTACK, 55, STACK
        LOCFRAME IOVERLAY, 0, STATIC
        LOCFRAME DOVERLAY, 0, STATIC
        ARGFRAME ISTACK, 0, STACK
        ARGFRAME PSTACK, 0, STACK
        ARGFRAME XSTACK, 55, STACK
        ARGFRAME IOVERLAY, 0, STATIC
        ARGFRAME DOVERLAY, 0, STATIC
        FUNCALL _ltoa, strcpy
        LOCFRAME ISTACK, 0, STACK
        LOCFRAME PSTACK, 0, STACK
        LOCFRAME XSTACK, 55, STACK
        LOCFRAME IOVERLAY, 0, STATIC
        LOCFRAME DOVERLAY, 0, STATIC
        ARGFRAME ISTACK, 0, STACK
        ARGFRAME PSTACK, 0, STACK
        ARGFRAME XSTACK, 55, STACK
        ARGFRAME IOVERLAY, 0, STATIC
        ARGFRAME DOVERLAY, 0, STATIC
        FUNCALL _ltoa, strcat
        LOCFRAME ISTACK, 0, STACK
        LOCFRAME PSTACK, 0, STACK
        LOCFRAME XSTACK, 55, STACK
        LOCFRAME IOVERLAY, 0, STATIC
        LOCFRAME DOVERLAY, 0, STATIC
        ARGFRAME ISTACK, 0, STACK
        ARGFRAME PSTACK, 0, STACK
        ARGFRAME XSTACK, 55, STACK
        ARGFRAME IOVERLAY, 0, STATIC
        ARGFRAME DOVERLAY, 0, STATIC
        FUNCALL _ltoa, strlen
        LOCFRAME ISTACK, 0, STACK
        LOCFRAME PSTACK, 0, STACK
        LOCFRAME XSTACK, 55, STACK
        LOCFRAME IOVERLAY, 0, STATIC
        LOCFRAME DOVERLAY, 0, STATIC
        ARGFRAME ISTACK, 0, STACK
        ARGFRAME PSTACK, 0, STACK
        ARGFRAME XSTACK, 55, STACK
        ARGFRAME IOVERLAY, 0, STATIC
        ARGFRAME DOVERLAY, 0, STATIC
        FUNCALL _ltoa, strcat
        LOCFRAME ISTACK, 0, STACK
        LOCFRAME PSTACK, 0, STACK
        LOCFRAME XSTACK, 55, STACK
        LOCFRAME IOVERLAY, 0, STATIC
        LOCFRAME DOVERLAY, 0, STATIC
        ARGFRAME ISTACK, 0, STACK
        ARGFRAME PSTACK, 0, STACK
        ARGFRAME XSTACK, 55, STACK
        ARGFRAME IOVERLAY, 0, STATIC
        ARGFRAME DOVERLAY, 0, STATIC
        FUNCALL _ltoa, strcat
        LOCFRAME ISTACK, 0, STACK
        LOCFRAME PSTACK, 0, STACK
        LOCFRAME XSTACK, 55, STACK
        LOCFRAME IOVERLAY, 0, STATIC
        LOCFRAME DOVERLAY, 0, STATIC
        ARGFRAME ISTACK, 0, STACK
        ARGFRAME PSTACK, 0, STACK
        ARGFRAME XSTACK, 55, STACK
        ARGFRAME IOVERLAY, 0, STATIC
        ARGFRAME DOVERLAY, 0, STATIC
        FUNCALL _ltoa, strlen
        LOCFRAME ISTACK, 0, STACK
        LOCFRAME PSTACK, 0, STACK
        LOCFRAME XSTACK, 55, STACK
        LOCFRAME IOVERLAY, 0, STATIC
        LOCFRAME DOVERLAY, 0, STATIC
        ARGFRAME ISTACK, 0, STACK
        ARGFRAME PSTACK, 0, STACK
        ARGFRAME XSTACK, 55, STACK
        ARGFRAME IOVERLAY, 0, STATIC
        ARGFRAME DOVERLAY, 0, STATIC
        FUNCALL _ltoa, strcat
        LOCFRAME ISTACK, 0, STACK
        LOCFRAME PSTACK, 0, STACK
        LOCFRAME XSTACK, 55, STACK
        LOCFRAME IOVERLAY, 0, STATIC
        LOCFRAME DOVERLAY, 0, STATIC
        ARGFRAME ISTACK, 0, STACK
        ARGFRAME PSTACK, 0, STACK
        ARGFRAME XSTACK, 55, STACK
        ARGFRAME IOVERLAY, 0, STATIC
        ARGFRAME DOVERLAY, 0, STATIC
        FUNCALL _ltoa, strcpy
        LOCFRAME ISTACK, 0, STACK
        LOCFRAME PSTACK, 0, STACK
        LOCFRAME XSTACK, 55, STACK
        LOCFRAME IOVERLAY, 0, STATIC
        LOCFRAME DOVERLAY, 0, STATIC
        ARGFRAME ISTACK, 0, STACK
        ARGFRAME PSTACK, 0, STACK
        ARGFRAME XSTACK, 55, STACK
        ARGFRAME IOVERLAY, 0, STATIC
        ARGFRAME DOVERLAY, 0, STATIC
        FUNCALL _ltoa, _itoa
        LOCFRAME ISTACK, 0, STACK
        LOCFRAME PSTACK, 0, STACK
        LOCFRAME XSTACK, 55, STACK
        LOCFRAME IOVERLAY, 0, STATIC
        LOCFRAME DOVERLAY, 0, STATIC
        ARGFRAME ISTACK, 0, STACK
        ARGFRAME PSTACK, 0, STACK
        ARGFRAME XSTACK, 55, STACK
        ARGFRAME IOVERLAY, 0, STATIC
        ARGFRAME DOVERLAY, 0, STATIC
        FUNCALL _ltoa, _itoa
        LOCFRAME ISTACK, 0, STACK
        LOCFRAME PSTACK, 0, STACK
        LOCFRAME XSTACK, 55, STACK
        LOCFRAME IOVERLAY, 0, STATIC
        LOCFRAME DOVERLAY, 0, STATIC
        ARGFRAME ISTACK, 0, STACK
        ARGFRAME PSTACK, 0, STACK
        ARGFRAME XSTACK, 55, STACK
        ARGFRAME IOVERLAY, 0, STATIC
        ARGFRAME DOVERLAY, 0, STATIC
        FUNCALL _ltoa, strcpy
        LOCFRAME ISTACK, 0, STACK
        LOCFRAME PSTACK, 0, STACK
        LOCFRAME XSTACK, 55, STACK
        LOCFRAME IOVERLAY, 0, STATIC
        LOCFRAME DOVERLAY, 0, STATIC
        ARGFRAME ISTACK, 0, STACK
        ARGFRAME PSTACK, 0, STACK
        ARGFRAME XSTACK, 55, STACK
        ARGFRAME IOVERLAY, 0, STATIC
        ARGFRAME DOVERLAY, 0, STATIC
        FUNCALL _ltoa, strcat
        LOCFRAME ISTACK, 0, STACK
        LOCFRAME PSTACK, 0, STACK
        LOCFRAME XSTACK, 55, STACK
        LOCFRAME IOVERLAY, 0, STATIC
        LOCFRAME DOVERLAY, 0, STATIC
        ARGFRAME ISTACK, 0, STACK
        ARGFRAME PSTACK, 0, STACK
        ARGFRAME XSTACK, 55, STACK
        ARGFRAME IOVERLAY, 0, STATIC
        ARGFRAME DOVERLAY, 0, STATIC
        FUNCALL _ltoa, strlen
        LOCFRAME ISTACK, 0, STACK
        LOCFRAME PSTACK, 0, STACK
        LOCFRAME XSTACK, 55, STACK
        LOCFRAME IOVERLAY, 0, STATIC
        LOCFRAME DOVERLAY, 0, STATIC
        ARGFRAME ISTACK, 0, STACK
        ARGFRAME PSTACK, 0, STACK
        ARGFRAME XSTACK, 55, STACK
        ARGFRAME IOVERLAY, 0, STATIC
        ARGFRAME DOVERLAY, 0, STATIC
        FUNCALL _ltoa, strcat
        LOCFRAME ISTACK, 0, STACK
        LOCFRAME PSTACK, 0, STACK
        LOCFRAME XSTACK, 55, STACK
        LOCFRAME IOVERLAY, 0, STATIC
        LOCFRAME DOVERLAY, 0, STATIC
        ARGFRAME ISTACK, 0, STACK
        ARGFRAME PSTACK, 0, STACK
        ARGFRAME XSTACK, 55, STACK
        ARGFRAME IOVERLAY, 0, STATIC
        ARGFRAME DOVERLAY, 0, STATIC
        MOV     A,#-0x10
        LCALL   ?BANKED_ENTER_XDATA
        CFI DPH0 load(1, XDATA, add(CFA_XSP16, literal(-1)))
        CFI DPL0 load(1, XDATA, add(CFA_XSP16, literal(-2)))
        CFI ?BRET_EXT load(1, XDATA, add(CFA_XSP16, literal(-3)))
        CFI ?RET_HIGH load(1, XDATA, add(CFA_XSP16, literal(-4)))
        CFI ?RET_LOW load(1, XDATA, add(CFA_XSP16, literal(-5)))
        CFI R7 load(1, XDATA, add(CFA_XSP16, literal(-6)))
        CFI V7 load(1, XDATA, add(CFA_XSP16, literal(-7)))
        CFI V6 load(1, XDATA, add(CFA_XSP16, literal(-8)))
        CFI V5 load(1, XDATA, add(CFA_XSP16, literal(-9)))
        CFI V4 load(1, XDATA, add(CFA_XSP16, literal(-10)))
        CFI V3 load(1, XDATA, add(CFA_XSP16, literal(-11)))
        CFI V2 load(1, XDATA, add(CFA_XSP16, literal(-12)))
        CFI V1 load(1, XDATA, add(CFA_XSP16, literal(-13)))
        CFI V0 load(1, XDATA, add(CFA_XSP16, literal(-14)))
        CFI VB load(1, XDATA, add(CFA_XSP16, literal(-15)))
        CFI R6 load(1, XDATA, add(CFA_XSP16, literal(-16)))
        CFI CFA_SP SP+0
        CFI CFA_XSP16 add(XSP16, 16)
        ; Saved register size: 16
        ; Auto size: 39
        MOV     A,#-0x27
        LCALL   ?ALLOC_XSTACK8
        CFI CFA_XSP16 add(XSP16, 55)
        MOV     A,#0x5
        LCALL   ?XSTACK_DISP0_8
        MOV     A,R2
        MOVX    @DPTR,A
        INC     DPTR
        MOV     A,R3
        MOVX    @DPTR,A
        INC     DPTR
        MOV     A,R4
        MOVX    @DPTR,A
        INC     DPTR
        MOV     A,R5
        MOVX    @DPTR,A
        MOV     A,#0x2
        LCALL   ?XSTACK_DISP0_8
        MOV     A,R1
        MOVX    @DPTR,A
//  323 #if defined( __GNUC__ )
//  324   return ( (char*)ltoa( l, buf, radix ) );
//  325 #else
//  326   unsigned char tmp1[10] = "", tmp2[10] = "", tmp3[10] = "";
        MOV     A,#0x9
        LCALL   ?XSTACK_DISP0_8
        MOV     R4,DPL
        MOV     R5,DPH
        MOV     DPH,#(`?<Constant "">` >> 8) & 0xff
        MOV     DPL,#`?<Constant "">` & 0xff
        MOV     A,#0xa
        LCALL   ?MOVE_LONG8_XDATA_XDATA
        MOV     DPH,#(`?<Constant "">_1` >> 8) & 0xff
        MOV     DPL,#`?<Constant "">_1` & 0xff
        MOV     A,#0xa
        LCALL   ?MOVE_LONG8_XDATA_XDATA
        MOV     DPH,#(`?<Constant "">_2` >> 8) & 0xff
        MOV     DPL,#`?<Constant "">_2` & 0xff
        MOV     A,#0xa
        LCALL   ?MOVE_LONG8_XDATA_XDATA
//  327   unsigned short num1, num2, num3;
//  328   unsigned char i;
//  329 
//  330   buf[0] = '\0';
        MOV     A,#0x37
        LCALL   ?XSTACK_DISP0_8
        LCALL   ?Subroutine19 & 0xFFFF
??CrossCallReturnLabel_33:
        CLR     A
        MOVX    @DPTR,A
//  331 
//  332   if ( radix == 10 )
        MOV     A,#0x3
        LCALL   ?XSTACK_DISP0_8
        MOV     A,#`?<Constant "0">` & 0xff
        MOVX    @DPTR,A
        INC     DPTR
        MOV     A,#(`?<Constant "0">` >> 8) & 0xff
        MOVX    @DPTR,A
        MOV     A,#0x2
        LCALL   ?XSTACK_DISP0_8
        MOVX    A,@DPTR
        XRL     A,#0xa
        JZ      $+5
        LJMP    ??_ltoa_0 & 0xFFFF
//  333   {
//  334     num1 = l % 10000;
        MOV     A,#0x5
        LCALL   ?XSTACK_DISP0_8
        MOV     R0,#?V0 + 4
        LCALL   ?L_MOV_X
        MOV     DPTR,#__Constant_2710
        MOV     R0,#?V0 + 0
        LCALL   ?L_MOV_X
        MOV     R0,#?V0 + 4
        MOV     R1,#?V0 + 0
        LCALL   ?UL_DIV_MOD
        MOV     DPL,?XSP + 0
        MOV     DPH,?XSP + 1
        MOV     A,?V0 + 0
        MOVX    @DPTR,A
        INC     DPTR
        MOV     A,?V0 + 1
        MOVX    @DPTR,A
//  335     num2 = (l / 10000) % 10000;
        MOV     A,#0x5
        LCALL   ?XSTACK_DISP0_8
        MOV     R0,#?V0 + 4
        LCALL   ?L_MOV_X
        MOV     DPTR,#__Constant_2710
        MOV     R0,#?V0 + 0
        LCALL   ?L_MOV_X
        MOV     R0,#?V0 + 4
        MOV     R1,#?V0 + 0
        LCALL   ?UL_DIV_MOD
        MOV     DPTR,#__Constant_2710
        MOV     R0,#?V0 + 0
        LCALL   ?L_MOV_X
        MOV     R0,#?V0 + 4
        MOV     R1,#?V0 + 0
        LCALL   ?UL_DIV_MOD
        MOV     R6,?V0 + 0
        MOV     R7,?V0 + 1
//  336     num3 = (unsigned short)(l / 100000000);
        MOV     A,#0x5
        LCALL   ?XSTACK_DISP0_8
        MOV     R0,#?V0 + 4
        LCALL   ?L_MOV_X
        MOV     DPTR,#__Constant_5f5e100
        MOV     R0,#?V0 + 0
        LCALL   ?L_MOV_X
        MOV     R0,#?V0 + 4
        MOV     R1,#?V0 + 0
        LCALL   ?UL_DIV_MOD
        MOV     ?V0 + 6,?V0 + 4
        MOV     ?V0 + 7,?V0 + 5
//  337 
//  338     if (num3) _itoa(num3, tmp3, 10);
        MOV     A,?V0 + 6
        ORL     A,?V0 + 7
        JZ      ??_ltoa_1
        ; Setup parameters for call to function _itoa
        MOV     R1,#0xa
        MOV     A,#0x1d
        LCALL   ?XSTACK_DISP0_8
        MOV     R4,DPL
        MOV     R5,DPH
        MOV     R2,?V0 + 6
        MOV     R3,?V0 + 7
        LCALL   ??_itoa?relay
//  339     if (num2) _itoa(num2, tmp2, 10);
??_ltoa_1:
        MOV     A,R6
        ORL     A,R7
        JZ      ??_ltoa_2
        ; Setup parameters for call to function _itoa
        MOV     R1,#0xa
        MOV     A,#0x13
        LCALL   ?XSTACK_DISP0_8
        MOV     R4,DPL
        MOV     R5,DPH
        MOV     A,R6
        MOV     R2,A
        MOV     A,R7
        MOV     R3,A
        LCALL   ??_itoa?relay
//  340     if (num1) _itoa(num1, tmp1, 10);
??_ltoa_2:
        LCALL   ?Subroutine6 & 0xFFFF
??CrossCallReturnLabel_55:
        JZ      ??CrossCallReturnLabel_29
        ; Setup parameters for call to function _itoa
        MOV     R1,#0xa
        MOV     A,#0x9
        LCALL   ?XSTACK_DISP0_8
        LCALL   ?Subroutine16 & 0xFFFF
//  341 
//  342     if (num3)
??CrossCallReturnLabel_29:
        MOV     A,?V0 + 6
        ORL     A,?V0 + 7
        JZ      ??_ltoa_3
//  343     {
//  344       strcpy((char*)buf, (char const*)tmp3);
        ; Setup parameters for call to function strcpy
        MOV     A,#0x1d
        LCALL   ?XSTACK_DISP0_8
        MOV     R4,DPL
        MOV     R5,DPH
        MOV     A,#0x37
        LCALL   ?XSTACK_DISP0_8
        LCALL   ?Subroutine14 & 0xFFFF
//  345       for (i = 0; i < 4 - strlen((char const*)tmp2); i++)
??CrossCallReturnLabel_25:
        SJMP    ??CrossCallReturnLabel_3
//  346         strcat((char*)buf, "0");
??_ltoa_4:
        ; Setup parameters for call to function strcat
        MOV     A,#0x3
        LCALL   ?XSTACK_DISP0_8
        LCALL   ?Subroutine8 & 0xFFFF
??CrossCallReturnLabel_6:
        LCALL   ?XSTACK_DISP0_8
        LCALL   ?Subroutine7 & 0xFFFF
??CrossCallReturnLabel_3:
        MOV     ?V0 + 2,?V0 + 0
        ; Setup parameters for call to function strlen
        MOV     A,#0x13
        LCALL   ?XSTACK_DISP0_8
        LCALL   ?Subroutine5 & 0xFFFF
//  347     }
??CrossCallReturnLabel_0:
        JC      ??_ltoa_4
//  348     strcat((char*)buf, (char const*)tmp2);
??_ltoa_3:
        ; Setup parameters for call to function strcat
        MOV     A,#0x13
        LCALL   ?XSTACK_DISP0_8
        MOV     R4,DPL
        MOV     R5,DPH
        MOV     A,#0x37
        LCALL   ?XSTACK_DISP0_8
        LCALL   ?Subroutine11 & 0xFFFF
//  349     if (num3 || num2)
??CrossCallReturnLabel_15:
        JNZ     ??_ltoa_5
        MOV     A,R6
        ORL     A,R7
        JZ      ??_ltoa_6
//  350     {
//  351       for (i = 0; i < 4 - strlen((char const*)tmp1); i++)
??_ltoa_5:
        MOV     ?V0 + 0,#0x0
        SJMP    ??CrossCallReturnLabel_4
//  352         strcat((char*)buf, "0");
??_ltoa_7:
        ; Setup parameters for call to function strcat
        MOV     A,#0x3
        LCALL   ?XSTACK_DISP0_8
        LCALL   ?Subroutine8 & 0xFFFF
??CrossCallReturnLabel_7:
        LCALL   ?XSTACK_DISP0_8
        LCALL   ?Subroutine7 & 0xFFFF
??CrossCallReturnLabel_4:
        MOV     ?V0 + 2,?V0 + 0
        ; Setup parameters for call to function strlen
        MOV     A,#0x9
        LCALL   ?XSTACK_DISP0_8
        LCALL   ?Subroutine5 & 0xFFFF
//  353     }
??CrossCallReturnLabel_1:
        JC      ??_ltoa_7
//  354     strcat((char*)buf, (char const*)tmp1);
??_ltoa_6:
        ; Setup parameters for call to function strcat
        MOV     A,#0x9
        LCALL   ?XSTACK_DISP0_8
        MOV     R4,DPL
        MOV     R5,DPH
        MOV     A,#0x37
        LCALL   ?XSTACK_DISP0_8
        LCALL   ?Subroutine11 & 0xFFFF
//  355     if (!num3 && !num2 && !num1)
??CrossCallReturnLabel_16:
        JNZ     ??_ltoa_8
        MOV     A,R6
        ORL     A,R7
        JNZ     ??_ltoa_8
??_ltoa_9:
        LCALL   ?Subroutine6 & 0xFFFF
??CrossCallReturnLabel_56:
        JNZ     ??_ltoa_8
//  356       strcpy((char*)buf, "0");
        ; Setup parameters for call to function strcpy
        MOV     A,#0x3
        LCALL   ?XSTACK_DISP0_8
        LCALL   ?Subroutine8 & 0xFFFF
//  357   }
??CrossCallReturnLabel_8:
        LCALL   ?XSTACK_DISP0_8
        LCALL   ??Subroutine34_0 & 0xFFFF
??CrossCallReturnLabel_66:
        LCALL   ??strcpy?relay
//  358   else if ( radix == 16 )
//  359   {
//  360     num1 = l & 0x0000FFFF;
//  361     num2 = l >> 16;
//  362 
//  363     if (num2) _itoa(num2, tmp2, 16);
//  364     if (num1) _itoa(num1, tmp1, 16);
//  365 
//  366     if (num2)
//  367     {
//  368       strcpy((char*)buf,(char const*)tmp2);
//  369       for (i = 0; i < 4 - strlen((char const*)tmp1); i++)
//  370         strcat((char*)buf, "0");
//  371     }
//  372     strcat((char*)buf, (char const*)tmp1);
//  373     if (!num2 && !num1)
//  374       strcpy((char*)buf, "0");
//  375   }
//  376   else
//  377     return NULL;
//  378 
//  379   return buf;
??_ltoa_8:
        MOV     A,#0x37
        LCALL   ?XSTACK_DISP0_8
        LCALL   ??Subroutine34_0 & 0xFFFF
??CrossCallReturnLabel_67:
        MOV     A,#0x27
        LCALL   ?DEALLOC_XSTACK8
        CFI CFA_XSP16 add(XSP16, 16)
        LJMP    ??Subroutine29_0 & 0xFFFF
        CFI CFA_XSP16 add(XSP16, 55)
??_ltoa_0:
        MOVX    A,@DPTR
        XRL     A,#0x10
        JZ      $+5
        LJMP    ??_ltoa_10 & 0xFFFF
        MOV     A,#0x5
        LCALL   ?XSTACK_DISP0_8
        MOV     R0,#?V0 + 0
        LCALL   ?L_MOV_X
        MOV     DPL,?XSP + 0
        MOV     DPH,?XSP + 1
        MOV     A,?V0 + 0
        MOVX    @DPTR,A
        INC     DPTR
        MOV     A,?V0 + 1
        MOVX    @DPTR,A
        MOV     A,#0x5
        LCALL   ?XSTACK_DISP0_8
        MOV     R0,#?V0 + 0
        LCALL   ?L_MOV_X
        MOV     A,#0x10
        MOV     R0,#?V0 + 0
        LCALL   ?UL_SHR
        MOV     R6,?V0 + 0
        MOV     R7,?V0 + 1
        MOV     A,R6
        ORL     A,R7
        JZ      ??_ltoa_11
        ; Setup parameters for call to function _itoa
        MOV     R1,#0x10
        MOV     A,#0x13
        LCALL   ?XSTACK_DISP0_8
        MOV     R4,DPL
        MOV     R5,DPH
        MOV     A,R6
        MOV     R2,A
        MOV     A,R7
        MOV     R3,A
        LCALL   ??_itoa?relay
??_ltoa_11:
        LCALL   ?Subroutine6 & 0xFFFF
??CrossCallReturnLabel_57:
        JZ      ??CrossCallReturnLabel_30
        ; Setup parameters for call to function _itoa
        MOV     R1,#0x10
        MOV     A,#0x9
        LCALL   ?XSTACK_DISP0_8
        LCALL   ?Subroutine16 & 0xFFFF
??CrossCallReturnLabel_30:
        MOV     A,R6
        ORL     A,R7
        JZ      ??_ltoa_12
        ; Setup parameters for call to function strcpy
        MOV     A,#0x13
        LCALL   ?XSTACK_DISP0_8
        MOV     R4,DPL
        MOV     R5,DPH
        MOV     A,#0x37
        LCALL   ?XSTACK_DISP0_8
        LCALL   ?Subroutine14 & 0xFFFF
??CrossCallReturnLabel_26:
        SJMP    ??CrossCallReturnLabel_5
??_ltoa_13:
        ; Setup parameters for call to function strcat
        MOV     A,#0x3
        LCALL   ?XSTACK_DISP0_8
        LCALL   ?Subroutine8 & 0xFFFF
??CrossCallReturnLabel_9:
        LCALL   ?XSTACK_DISP0_8
        LCALL   ?Subroutine7 & 0xFFFF
??CrossCallReturnLabel_5:
        MOV     ?V0 + 2,?V0 + 0
        ; Setup parameters for call to function strlen
        MOV     A,#0x9
        LCALL   ?XSTACK_DISP0_8
        LCALL   ?Subroutine5 & 0xFFFF
??CrossCallReturnLabel_2:
        JC      ??_ltoa_13
??_ltoa_12:
        ; Setup parameters for call to function strcat
        MOV     A,#0x9
        LCALL   ?XSTACK_DISP0_8
        MOV     R4,DPL
        MOV     R5,DPH
        MOV     A,#0x37
        LCALL   ?XSTACK_DISP0_8
        LCALL   ??Subroutine34_0 & 0xFFFF
??CrossCallReturnLabel_68:
        LCALL   ??strcat?relay
        MOV     A,R6
        ORL     A,R7
        JZ      $+5
        LJMP    ??_ltoa_8 & 0xFFFF
        LJMP    ??_ltoa_9 & 0xFFFF
??_ltoa_10:
        MOV     R2,#0x0
        MOV     R3,#0x0
        LJMP    ??CrossCallReturnLabel_67 & 0xFFFF
        CFI EndBlock cfiBlock28
//  380 #endif
//  381 }

        RSEG BANKED_CODE:CODE:NOROOT(0)
?Subroutine16:
        CFI Block cfiCond29 Using cfiCommon0
        CFI NoFunction
        CFI Conditional ??CrossCallReturnLabel_29
        CFI R6 load(1, XDATA, add(CFA_XSP16, literal(-16)))
        CFI VB load(1, XDATA, add(CFA_XSP16, literal(-15)))
        CFI V0 load(1, XDATA, add(CFA_XSP16, literal(-14)))
        CFI V1 load(1, XDATA, add(CFA_XSP16, literal(-13)))
        CFI V2 load(1, XDATA, add(CFA_XSP16, literal(-12)))
        CFI V3 load(1, XDATA, add(CFA_XSP16, literal(-11)))
        CFI V4 load(1, XDATA, add(CFA_XSP16, literal(-10)))
        CFI V5 load(1, XDATA, add(CFA_XSP16, literal(-9)))
        CFI V6 load(1, XDATA, add(CFA_XSP16, literal(-8)))
        CFI V7 load(1, XDATA, add(CFA_XSP16, literal(-7)))
        CFI R7 load(1, XDATA, add(CFA_XSP16, literal(-6)))
        CFI ?RET_LOW load(1, XDATA, add(CFA_XSP16, literal(-5)))
        CFI ?RET_HIGH load(1, XDATA, add(CFA_XSP16, literal(-4)))
        CFI ?BRET_EXT load(1, XDATA, add(CFA_XSP16, literal(-3)))
        CFI DPL0 load(1, XDATA, add(CFA_XSP16, literal(-2)))
        CFI DPH0 load(1, XDATA, add(CFA_XSP16, literal(-1)))
        CFI CFA_SP SP+0
        CFI CFA_XSP16 add(XSP16, 55)
        CFI Block cfiCond30 Using cfiCommon0
        CFI (cfiCond30) NoFunction
        CFI (cfiCond30) Conditional ??CrossCallReturnLabel_30
        CFI (cfiCond30) R6 load(1, XDATA, add(CFA_XSP16, literal(-16)))
        CFI (cfiCond30) VB load(1, XDATA, add(CFA_XSP16, literal(-15)))
        CFI (cfiCond30) V0 load(1, XDATA, add(CFA_XSP16, literal(-14)))
        CFI (cfiCond30) V1 load(1, XDATA, add(CFA_XSP16, literal(-13)))
        CFI (cfiCond30) V2 load(1, XDATA, add(CFA_XSP16, literal(-12)))
        CFI (cfiCond30) V3 load(1, XDATA, add(CFA_XSP16, literal(-11)))
        CFI (cfiCond30) V4 load(1, XDATA, add(CFA_XSP16, literal(-10)))
        CFI (cfiCond30) V5 load(1, XDATA, add(CFA_XSP16, literal(-9)))
        CFI (cfiCond30) V6 load(1, XDATA, add(CFA_XSP16, literal(-8)))
        CFI (cfiCond30) V7 load(1, XDATA, add(CFA_XSP16, literal(-7)))
        CFI (cfiCond30) R7 load(1, XDATA, add(CFA_XSP16, literal(-6)))
        CFI (cfiCond30) ?RET_LOW load(1, XDATA, add(CFA_XSP16, literal(-5)))
        CFI (cfiCond30) ?RET_HIGH load(1, XDATA, add(CFA_XSP16, literal(-4)))
        CFI (cfiCond30) ?BRET_EXT load(1, XDATA, add(CFA_XSP16, literal(-3)))
        CFI (cfiCond30) DPL0 load(1, XDATA, add(CFA_XSP16, literal(-2)))
        CFI (cfiCond30) DPH0 load(1, XDATA, add(CFA_XSP16, literal(-1)))
        CFI (cfiCond30) CFA_SP SP+0
        CFI (cfiCond30) CFA_XSP16 add(XSP16, 55)
        CFI Block cfiPicker31 Using cfiCommon1
        CFI (cfiPicker31) NoFunction
        CFI (cfiPicker31) Picker
        MOV     R4,DPL
        MOV     R5,DPH
        MOV     DPL,?XSP + 0
        MOV     DPH,?XSP + 1
        LCALL   ?Subroutine27 & 0xFFFF
??CrossCallReturnLabel_75:
        LCALL   ??_itoa?relay
        RET
        CFI EndBlock cfiCond29
        CFI EndBlock cfiCond30
        CFI EndBlock cfiPicker31

        RSEG BANKED_CODE:CODE:NOROOT(0)
?Subroutine14:
        CFI Block cfiCond32 Using cfiCommon0
        CFI NoFunction
        CFI Conditional ??CrossCallReturnLabel_25
        CFI R6 load(1, XDATA, add(CFA_XSP16, literal(-16)))
        CFI VB load(1, XDATA, add(CFA_XSP16, literal(-15)))
        CFI V0 load(1, XDATA, add(CFA_XSP16, literal(-14)))
        CFI V1 load(1, XDATA, add(CFA_XSP16, literal(-13)))
        CFI V2 load(1, XDATA, add(CFA_XSP16, literal(-12)))
        CFI V3 load(1, XDATA, add(CFA_XSP16, literal(-11)))
        CFI V4 load(1, XDATA, add(CFA_XSP16, literal(-10)))
        CFI V5 load(1, XDATA, add(CFA_XSP16, literal(-9)))
        CFI V6 load(1, XDATA, add(CFA_XSP16, literal(-8)))
        CFI V7 load(1, XDATA, add(CFA_XSP16, literal(-7)))
        CFI R7 load(1, XDATA, add(CFA_XSP16, literal(-6)))
        CFI ?RET_LOW load(1, XDATA, add(CFA_XSP16, literal(-5)))
        CFI ?RET_HIGH load(1, XDATA, add(CFA_XSP16, literal(-4)))
        CFI ?BRET_EXT load(1, XDATA, add(CFA_XSP16, literal(-3)))
        CFI DPL0 load(1, XDATA, add(CFA_XSP16, literal(-2)))
        CFI DPH0 load(1, XDATA, add(CFA_XSP16, literal(-1)))
        CFI CFA_SP SP+0
        CFI CFA_XSP16 add(XSP16, 55)
        CFI Block cfiCond33 Using cfiCommon0
        CFI (cfiCond33) NoFunction
        CFI (cfiCond33) Conditional ??CrossCallReturnLabel_26
        CFI (cfiCond33) R6 load(1, XDATA, add(CFA_XSP16, literal(-16)))
        CFI (cfiCond33) VB load(1, XDATA, add(CFA_XSP16, literal(-15)))
        CFI (cfiCond33) V0 load(1, XDATA, add(CFA_XSP16, literal(-14)))
        CFI (cfiCond33) V1 load(1, XDATA, add(CFA_XSP16, literal(-13)))
        CFI (cfiCond33) V2 load(1, XDATA, add(CFA_XSP16, literal(-12)))
        CFI (cfiCond33) V3 load(1, XDATA, add(CFA_XSP16, literal(-11)))
        CFI (cfiCond33) V4 load(1, XDATA, add(CFA_XSP16, literal(-10)))
        CFI (cfiCond33) V5 load(1, XDATA, add(CFA_XSP16, literal(-9)))
        CFI (cfiCond33) V6 load(1, XDATA, add(CFA_XSP16, literal(-8)))
        CFI (cfiCond33) V7 load(1, XDATA, add(CFA_XSP16, literal(-7)))
        CFI (cfiCond33) R7 load(1, XDATA, add(CFA_XSP16, literal(-6)))
        CFI (cfiCond33) ?RET_LOW load(1, XDATA, add(CFA_XSP16, literal(-5)))
        CFI (cfiCond33) ?RET_HIGH load(1, XDATA, add(CFA_XSP16, literal(-4)))
        CFI (cfiCond33) ?BRET_EXT load(1, XDATA, add(CFA_XSP16, literal(-3)))
        CFI (cfiCond33) DPL0 load(1, XDATA, add(CFA_XSP16, literal(-2)))
        CFI (cfiCond33) DPH0 load(1, XDATA, add(CFA_XSP16, literal(-1)))
        CFI (cfiCond33) CFA_SP SP+0
        CFI (cfiCond33) CFA_XSP16 add(XSP16, 55)
        CFI Block cfiPicker34 Using cfiCommon1
        CFI (cfiPicker34) NoFunction
        CFI (cfiPicker34) Picker
        LCALL   ?Subroutine27 & 0xFFFF
??CrossCallReturnLabel_74:
        LCALL   ??strcpy?relay
        MOV     ?V0 + 0,#0x0
        RET
        CFI EndBlock cfiCond32
        CFI EndBlock cfiCond33
        CFI EndBlock cfiPicker34

        RSEG BANKED_CODE:CODE:NOROOT(0)
?Subroutine11:
        CFI Block cfiCond35 Using cfiCommon0
        CFI NoFunction
        CFI Conditional ??CrossCallReturnLabel_15
        CFI R6 load(1, XDATA, add(CFA_XSP16, literal(-16)))
        CFI VB load(1, XDATA, add(CFA_XSP16, literal(-15)))
        CFI V0 load(1, XDATA, add(CFA_XSP16, literal(-14)))
        CFI V1 load(1, XDATA, add(CFA_XSP16, literal(-13)))
        CFI V2 load(1, XDATA, add(CFA_XSP16, literal(-12)))
        CFI V3 load(1, XDATA, add(CFA_XSP16, literal(-11)))
        CFI V4 load(1, XDATA, add(CFA_XSP16, literal(-10)))
        CFI V5 load(1, XDATA, add(CFA_XSP16, literal(-9)))
        CFI V6 load(1, XDATA, add(CFA_XSP16, literal(-8)))
        CFI V7 load(1, XDATA, add(CFA_XSP16, literal(-7)))
        CFI R7 load(1, XDATA, add(CFA_XSP16, literal(-6)))
        CFI ?RET_LOW load(1, XDATA, add(CFA_XSP16, literal(-5)))
        CFI ?RET_HIGH load(1, XDATA, add(CFA_XSP16, literal(-4)))
        CFI ?BRET_EXT load(1, XDATA, add(CFA_XSP16, literal(-3)))
        CFI DPL0 load(1, XDATA, add(CFA_XSP16, literal(-2)))
        CFI DPH0 load(1, XDATA, add(CFA_XSP16, literal(-1)))
        CFI CFA_SP SP+0
        CFI CFA_XSP16 add(XSP16, 55)
        CFI Block cfiCond36 Using cfiCommon0
        CFI (cfiCond36) NoFunction
        CFI (cfiCond36) Conditional ??CrossCallReturnLabel_16
        CFI (cfiCond36) R6 load(1, XDATA, add(CFA_XSP16, literal(-16)))
        CFI (cfiCond36) VB load(1, XDATA, add(CFA_XSP16, literal(-15)))
        CFI (cfiCond36) V0 load(1, XDATA, add(CFA_XSP16, literal(-14)))
        CFI (cfiCond36) V1 load(1, XDATA, add(CFA_XSP16, literal(-13)))
        CFI (cfiCond36) V2 load(1, XDATA, add(CFA_XSP16, literal(-12)))
        CFI (cfiCond36) V3 load(1, XDATA, add(CFA_XSP16, literal(-11)))
        CFI (cfiCond36) V4 load(1, XDATA, add(CFA_XSP16, literal(-10)))
        CFI (cfiCond36) V5 load(1, XDATA, add(CFA_XSP16, literal(-9)))
        CFI (cfiCond36) V6 load(1, XDATA, add(CFA_XSP16, literal(-8)))
        CFI (cfiCond36) V7 load(1, XDATA, add(CFA_XSP16, literal(-7)))
        CFI (cfiCond36) R7 load(1, XDATA, add(CFA_XSP16, literal(-6)))
        CFI (cfiCond36) ?RET_LOW load(1, XDATA, add(CFA_XSP16, literal(-5)))
        CFI (cfiCond36) ?RET_HIGH load(1, XDATA, add(CFA_XSP16, literal(-4)))
        CFI (cfiCond36) ?BRET_EXT load(1, XDATA, add(CFA_XSP16, literal(-3)))
        CFI (cfiCond36) DPL0 load(1, XDATA, add(CFA_XSP16, literal(-2)))
        CFI (cfiCond36) DPH0 load(1, XDATA, add(CFA_XSP16, literal(-1)))
        CFI (cfiCond36) CFA_SP SP+0
        CFI (cfiCond36) CFA_XSP16 add(XSP16, 55)
        CFI Block cfiPicker37 Using cfiCommon1
        CFI (cfiPicker37) NoFunction
        CFI (cfiPicker37) Picker
        LCALL   ?Subroutine26 & 0xFFFF
??CrossCallReturnLabel_45:
        MOV     A,?V0 + 6
        ORL     A,?V0 + 7
        RET
        CFI EndBlock cfiCond35
        CFI EndBlock cfiCond36
        CFI EndBlock cfiPicker37

        RSEG BANKED_CODE:CODE:NOROOT(0)
?Subroutine8:
        CFI Block cfiCond38 Using cfiCommon0
        CFI NoFunction
        CFI Conditional ??CrossCallReturnLabel_6
        CFI R6 load(1, XDATA, add(CFA_XSP16, literal(-16)))
        CFI VB load(1, XDATA, add(CFA_XSP16, literal(-15)))
        CFI V0 load(1, XDATA, add(CFA_XSP16, literal(-14)))
        CFI V1 load(1, XDATA, add(CFA_XSP16, literal(-13)))
        CFI V2 load(1, XDATA, add(CFA_XSP16, literal(-12)))
        CFI V3 load(1, XDATA, add(CFA_XSP16, literal(-11)))
        CFI V4 load(1, XDATA, add(CFA_XSP16, literal(-10)))
        CFI V5 load(1, XDATA, add(CFA_XSP16, literal(-9)))
        CFI V6 load(1, XDATA, add(CFA_XSP16, literal(-8)))
        CFI V7 load(1, XDATA, add(CFA_XSP16, literal(-7)))
        CFI R7 load(1, XDATA, add(CFA_XSP16, literal(-6)))
        CFI ?RET_LOW load(1, XDATA, add(CFA_XSP16, literal(-5)))
        CFI ?RET_HIGH load(1, XDATA, add(CFA_XSP16, literal(-4)))
        CFI ?BRET_EXT load(1, XDATA, add(CFA_XSP16, literal(-3)))
        CFI DPL0 load(1, XDATA, add(CFA_XSP16, literal(-2)))
        CFI DPH0 load(1, XDATA, add(CFA_XSP16, literal(-1)))
        CFI CFA_SP SP+0
        CFI CFA_XSP16 add(XSP16, 55)
        CFI Block cfiCond39 Using cfiCommon0
        CFI (cfiCond39) NoFunction
        CFI (cfiCond39) Conditional ??CrossCallReturnLabel_7
        CFI (cfiCond39) R6 load(1, XDATA, add(CFA_XSP16, literal(-16)))
        CFI (cfiCond39) VB load(1, XDATA, add(CFA_XSP16, literal(-15)))
        CFI (cfiCond39) V0 load(1, XDATA, add(CFA_XSP16, literal(-14)))
        CFI (cfiCond39) V1 load(1, XDATA, add(CFA_XSP16, literal(-13)))
        CFI (cfiCond39) V2 load(1, XDATA, add(CFA_XSP16, literal(-12)))
        CFI (cfiCond39) V3 load(1, XDATA, add(CFA_XSP16, literal(-11)))
        CFI (cfiCond39) V4 load(1, XDATA, add(CFA_XSP16, literal(-10)))
        CFI (cfiCond39) V5 load(1, XDATA, add(CFA_XSP16, literal(-9)))
        CFI (cfiCond39) V6 load(1, XDATA, add(CFA_XSP16, literal(-8)))
        CFI (cfiCond39) V7 load(1, XDATA, add(CFA_XSP16, literal(-7)))
        CFI (cfiCond39) R7 load(1, XDATA, add(CFA_XSP16, literal(-6)))
        CFI (cfiCond39) ?RET_LOW load(1, XDATA, add(CFA_XSP16, literal(-5)))
        CFI (cfiCond39) ?RET_HIGH load(1, XDATA, add(CFA_XSP16, literal(-4)))
        CFI (cfiCond39) ?BRET_EXT load(1, XDATA, add(CFA_XSP16, literal(-3)))
        CFI (cfiCond39) DPL0 load(1, XDATA, add(CFA_XSP16, literal(-2)))
        CFI (cfiCond39) DPH0 load(1, XDATA, add(CFA_XSP16, literal(-1)))
        CFI (cfiCond39) CFA_SP SP+0
        CFI (cfiCond39) CFA_XSP16 add(XSP16, 55)
        CFI Block cfiCond40 Using cfiCommon0
        CFI (cfiCond40) NoFunction
        CFI (cfiCond40) Conditional ??CrossCallReturnLabel_8
        CFI (cfiCond40) R6 load(1, XDATA, add(CFA_XSP16, literal(-16)))
        CFI (cfiCond40) VB load(1, XDATA, add(CFA_XSP16, literal(-15)))
        CFI (cfiCond40) V0 load(1, XDATA, add(CFA_XSP16, literal(-14)))
        CFI (cfiCond40) V1 load(1, XDATA, add(CFA_XSP16, literal(-13)))
        CFI (cfiCond40) V2 load(1, XDATA, add(CFA_XSP16, literal(-12)))
        CFI (cfiCond40) V3 load(1, XDATA, add(CFA_XSP16, literal(-11)))
        CFI (cfiCond40) V4 load(1, XDATA, add(CFA_XSP16, literal(-10)))
        CFI (cfiCond40) V5 load(1, XDATA, add(CFA_XSP16, literal(-9)))
        CFI (cfiCond40) V6 load(1, XDATA, add(CFA_XSP16, literal(-8)))
        CFI (cfiCond40) V7 load(1, XDATA, add(CFA_XSP16, literal(-7)))
        CFI (cfiCond40) R7 load(1, XDATA, add(CFA_XSP16, literal(-6)))
        CFI (cfiCond40) ?RET_LOW load(1, XDATA, add(CFA_XSP16, literal(-5)))
        CFI (cfiCond40) ?RET_HIGH load(1, XDATA, add(CFA_XSP16, literal(-4)))
        CFI (cfiCond40) ?BRET_EXT load(1, XDATA, add(CFA_XSP16, literal(-3)))
        CFI (cfiCond40) DPL0 load(1, XDATA, add(CFA_XSP16, literal(-2)))
        CFI (cfiCond40) DPH0 load(1, XDATA, add(CFA_XSP16, literal(-1)))
        CFI (cfiCond40) CFA_SP SP+0
        CFI (cfiCond40) CFA_XSP16 add(XSP16, 55)
        CFI Block cfiCond41 Using cfiCommon0
        CFI (cfiCond41) NoFunction
        CFI (cfiCond41) Conditional ??CrossCallReturnLabel_9
        CFI (cfiCond41) R6 load(1, XDATA, add(CFA_XSP16, literal(-16)))
        CFI (cfiCond41) VB load(1, XDATA, add(CFA_XSP16, literal(-15)))
        CFI (cfiCond41) V0 load(1, XDATA, add(CFA_XSP16, literal(-14)))
        CFI (cfiCond41) V1 load(1, XDATA, add(CFA_XSP16, literal(-13)))
        CFI (cfiCond41) V2 load(1, XDATA, add(CFA_XSP16, literal(-12)))
        CFI (cfiCond41) V3 load(1, XDATA, add(CFA_XSP16, literal(-11)))
        CFI (cfiCond41) V4 load(1, XDATA, add(CFA_XSP16, literal(-10)))
        CFI (cfiCond41) V5 load(1, XDATA, add(CFA_XSP16, literal(-9)))
        CFI (cfiCond41) V6 load(1, XDATA, add(CFA_XSP16, literal(-8)))
        CFI (cfiCond41) V7 load(1, XDATA, add(CFA_XSP16, literal(-7)))
        CFI (cfiCond41) R7 load(1, XDATA, add(CFA_XSP16, literal(-6)))
        CFI (cfiCond41) ?RET_LOW load(1, XDATA, add(CFA_XSP16, literal(-5)))
        CFI (cfiCond41) ?RET_HIGH load(1, XDATA, add(CFA_XSP16, literal(-4)))
        CFI (cfiCond41) ?BRET_EXT load(1, XDATA, add(CFA_XSP16, literal(-3)))
        CFI (cfiCond41) DPL0 load(1, XDATA, add(CFA_XSP16, literal(-2)))
        CFI (cfiCond41) DPH0 load(1, XDATA, add(CFA_XSP16, literal(-1)))
        CFI (cfiCond41) CFA_SP SP+0
        CFI (cfiCond41) CFA_XSP16 add(XSP16, 55)
        CFI Block cfiPicker42 Using cfiCommon1
        CFI (cfiPicker42) NoFunction
        CFI (cfiPicker42) Picker
        MOVX    A,@DPTR
        MOV     R4,A
        INC     DPTR
        MOVX    A,@DPTR
        MOV     R5,A
        MOV     A,#0x37
        RET
        CFI EndBlock cfiCond38
        CFI EndBlock cfiCond39
        CFI EndBlock cfiCond40
        CFI EndBlock cfiCond41
        CFI EndBlock cfiPicker42

        RSEG BANKED_CODE:CODE:NOROOT(0)
?Subroutine7:
        CFI Block cfiCond43 Using cfiCommon0
        CFI NoFunction
        CFI Conditional ??CrossCallReturnLabel_3
        CFI R6 load(1, XDATA, add(CFA_XSP16, literal(-16)))
        CFI VB load(1, XDATA, add(CFA_XSP16, literal(-15)))
        CFI V0 load(1, XDATA, add(CFA_XSP16, literal(-14)))
        CFI V1 load(1, XDATA, add(CFA_XSP16, literal(-13)))
        CFI V2 load(1, XDATA, add(CFA_XSP16, literal(-12)))
        CFI V3 load(1, XDATA, add(CFA_XSP16, literal(-11)))
        CFI V4 load(1, XDATA, add(CFA_XSP16, literal(-10)))
        CFI V5 load(1, XDATA, add(CFA_XSP16, literal(-9)))
        CFI V6 load(1, XDATA, add(CFA_XSP16, literal(-8)))
        CFI V7 load(1, XDATA, add(CFA_XSP16, literal(-7)))
        CFI R7 load(1, XDATA, add(CFA_XSP16, literal(-6)))
        CFI ?RET_LOW load(1, XDATA, add(CFA_XSP16, literal(-5)))
        CFI ?RET_HIGH load(1, XDATA, add(CFA_XSP16, literal(-4)))
        CFI ?BRET_EXT load(1, XDATA, add(CFA_XSP16, literal(-3)))
        CFI DPL0 load(1, XDATA, add(CFA_XSP16, literal(-2)))
        CFI DPH0 load(1, XDATA, add(CFA_XSP16, literal(-1)))
        CFI CFA_SP SP+0
        CFI CFA_XSP16 add(XSP16, 55)
        CFI Block cfiCond44 Using cfiCommon0
        CFI (cfiCond44) NoFunction
        CFI (cfiCond44) Conditional ??CrossCallReturnLabel_4
        CFI (cfiCond44) R6 load(1, XDATA, add(CFA_XSP16, literal(-16)))
        CFI (cfiCond44) VB load(1, XDATA, add(CFA_XSP16, literal(-15)))
        CFI (cfiCond44) V0 load(1, XDATA, add(CFA_XSP16, literal(-14)))
        CFI (cfiCond44) V1 load(1, XDATA, add(CFA_XSP16, literal(-13)))
        CFI (cfiCond44) V2 load(1, XDATA, add(CFA_XSP16, literal(-12)))
        CFI (cfiCond44) V3 load(1, XDATA, add(CFA_XSP16, literal(-11)))
        CFI (cfiCond44) V4 load(1, XDATA, add(CFA_XSP16, literal(-10)))
        CFI (cfiCond44) V5 load(1, XDATA, add(CFA_XSP16, literal(-9)))
        CFI (cfiCond44) V6 load(1, XDATA, add(CFA_XSP16, literal(-8)))
        CFI (cfiCond44) V7 load(1, XDATA, add(CFA_XSP16, literal(-7)))
        CFI (cfiCond44) R7 load(1, XDATA, add(CFA_XSP16, literal(-6)))
        CFI (cfiCond44) ?RET_LOW load(1, XDATA, add(CFA_XSP16, literal(-5)))
        CFI (cfiCond44) ?RET_HIGH load(1, XDATA, add(CFA_XSP16, literal(-4)))
        CFI (cfiCond44) ?BRET_EXT load(1, XDATA, add(CFA_XSP16, literal(-3)))
        CFI (cfiCond44) DPL0 load(1, XDATA, add(CFA_XSP16, literal(-2)))
        CFI (cfiCond44) DPH0 load(1, XDATA, add(CFA_XSP16, literal(-1)))
        CFI (cfiCond44) CFA_SP SP+0
        CFI (cfiCond44) CFA_XSP16 add(XSP16, 55)
        CFI Block cfiCond45 Using cfiCommon0
        CFI (cfiCond45) NoFunction
        CFI (cfiCond45) Conditional ??CrossCallReturnLabel_5
        CFI (cfiCond45) R6 load(1, XDATA, add(CFA_XSP16, literal(-16)))
        CFI (cfiCond45) VB load(1, XDATA, add(CFA_XSP16, literal(-15)))
        CFI (cfiCond45) V0 load(1, XDATA, add(CFA_XSP16, literal(-14)))
        CFI (cfiCond45) V1 load(1, XDATA, add(CFA_XSP16, literal(-13)))
        CFI (cfiCond45) V2 load(1, XDATA, add(CFA_XSP16, literal(-12)))
        CFI (cfiCond45) V3 load(1, XDATA, add(CFA_XSP16, literal(-11)))
        CFI (cfiCond45) V4 load(1, XDATA, add(CFA_XSP16, literal(-10)))
        CFI (cfiCond45) V5 load(1, XDATA, add(CFA_XSP16, literal(-9)))
        CFI (cfiCond45) V6 load(1, XDATA, add(CFA_XSP16, literal(-8)))
        CFI (cfiCond45) V7 load(1, XDATA, add(CFA_XSP16, literal(-7)))
        CFI (cfiCond45) R7 load(1, XDATA, add(CFA_XSP16, literal(-6)))
        CFI (cfiCond45) ?RET_LOW load(1, XDATA, add(CFA_XSP16, literal(-5)))
        CFI (cfiCond45) ?RET_HIGH load(1, XDATA, add(CFA_XSP16, literal(-4)))
        CFI (cfiCond45) ?BRET_EXT load(1, XDATA, add(CFA_XSP16, literal(-3)))
        CFI (cfiCond45) DPL0 load(1, XDATA, add(CFA_XSP16, literal(-2)))
        CFI (cfiCond45) DPH0 load(1, XDATA, add(CFA_XSP16, literal(-1)))
        CFI (cfiCond45) CFA_SP SP+0
        CFI (cfiCond45) CFA_XSP16 add(XSP16, 55)
        CFI Block cfiPicker46 Using cfiCommon1
        CFI (cfiPicker46) NoFunction
        CFI (cfiPicker46) Picker
        LCALL   ?Subroutine26 & 0xFFFF
??CrossCallReturnLabel_46:
        INC     ?V0 + 0
        RET
        CFI EndBlock cfiCond43
        CFI EndBlock cfiCond44
        CFI EndBlock cfiCond45
        CFI EndBlock cfiPicker46

        RSEG BANKED_CODE:CODE:NOROOT(0)
?Subroutine26:
        CFI Block cfiCond47 Using cfiCommon0
        CFI NoFunction
        CFI Conditional ??CrossCallReturnLabel_45, ??CrossCallReturnLabel_15
        CFI R6 load(1, XDATA, add(CFA_XSP16, literal(-16)))
        CFI VB load(1, XDATA, add(CFA_XSP16, literal(-15)))
        CFI V0 load(1, XDATA, add(CFA_XSP16, literal(-14)))
        CFI V1 load(1, XDATA, add(CFA_XSP16, literal(-13)))
        CFI V2 load(1, XDATA, add(CFA_XSP16, literal(-12)))
        CFI V3 load(1, XDATA, add(CFA_XSP16, literal(-11)))
        CFI V4 load(1, XDATA, add(CFA_XSP16, literal(-10)))
        CFI V5 load(1, XDATA, add(CFA_XSP16, literal(-9)))
        CFI V6 load(1, XDATA, add(CFA_XSP16, literal(-8)))
        CFI V7 load(1, XDATA, add(CFA_XSP16, literal(-7)))
        CFI R7 load(1, XDATA, add(CFA_XSP16, literal(-6)))
        CFI ?RET_LOW load(1, XDATA, add(CFA_XSP16, literal(-5)))
        CFI ?RET_HIGH load(1, XDATA, add(CFA_XSP16, literal(-4)))
        CFI ?BRET_EXT load(1, XDATA, add(CFA_XSP16, literal(-3)))
        CFI DPL0 load(1, XDATA, add(CFA_XSP16, literal(-2)))
        CFI DPH0 load(1, XDATA, add(CFA_XSP16, literal(-1)))
        CFI CFA_SP SP+0
        CFI CFA_XSP16 add(XSP16, 55)
        CFI Block cfiCond48 Using cfiCommon0
        CFI (cfiCond48) NoFunction
        CFI (cfiCond48) Conditional ??CrossCallReturnLabel_45, ??CrossCallReturnLabel_16
        CFI (cfiCond48) R6 load(1, XDATA, add(CFA_XSP16, literal(-16)))
        CFI (cfiCond48) VB load(1, XDATA, add(CFA_XSP16, literal(-15)))
        CFI (cfiCond48) V0 load(1, XDATA, add(CFA_XSP16, literal(-14)))
        CFI (cfiCond48) V1 load(1, XDATA, add(CFA_XSP16, literal(-13)))
        CFI (cfiCond48) V2 load(1, XDATA, add(CFA_XSP16, literal(-12)))
        CFI (cfiCond48) V3 load(1, XDATA, add(CFA_XSP16, literal(-11)))
        CFI (cfiCond48) V4 load(1, XDATA, add(CFA_XSP16, literal(-10)))
        CFI (cfiCond48) V5 load(1, XDATA, add(CFA_XSP16, literal(-9)))
        CFI (cfiCond48) V6 load(1, XDATA, add(CFA_XSP16, literal(-8)))
        CFI (cfiCond48) V7 load(1, XDATA, add(CFA_XSP16, literal(-7)))
        CFI (cfiCond48) R7 load(1, XDATA, add(CFA_XSP16, literal(-6)))
        CFI (cfiCond48) ?RET_LOW load(1, XDATA, add(CFA_XSP16, literal(-5)))
        CFI (cfiCond48) ?RET_HIGH load(1, XDATA, add(CFA_XSP16, literal(-4)))
        CFI (cfiCond48) ?BRET_EXT load(1, XDATA, add(CFA_XSP16, literal(-3)))
        CFI (cfiCond48) DPL0 load(1, XDATA, add(CFA_XSP16, literal(-2)))
        CFI (cfiCond48) DPH0 load(1, XDATA, add(CFA_XSP16, literal(-1)))
        CFI (cfiCond48) CFA_SP SP+0
        CFI (cfiCond48) CFA_XSP16 add(XSP16, 55)
        CFI Block cfiCond49 Using cfiCommon0
        CFI (cfiCond49) NoFunction
        CFI (cfiCond49) Conditional ??CrossCallReturnLabel_46, ??CrossCallReturnLabel_3
        CFI (cfiCond49) R6 load(1, XDATA, add(CFA_XSP16, literal(-16)))
        CFI (cfiCond49) VB load(1, XDATA, add(CFA_XSP16, literal(-15)))
        CFI (cfiCond49) V0 load(1, XDATA, add(CFA_XSP16, literal(-14)))
        CFI (cfiCond49) V1 load(1, XDATA, add(CFA_XSP16, literal(-13)))
        CFI (cfiCond49) V2 load(1, XDATA, add(CFA_XSP16, literal(-12)))
        CFI (cfiCond49) V3 load(1, XDATA, add(CFA_XSP16, literal(-11)))
        CFI (cfiCond49) V4 load(1, XDATA, add(CFA_XSP16, literal(-10)))
        CFI (cfiCond49) V5 load(1, XDATA, add(CFA_XSP16, literal(-9)))
        CFI (cfiCond49) V6 load(1, XDATA, add(CFA_XSP16, literal(-8)))
        CFI (cfiCond49) V7 load(1, XDATA, add(CFA_XSP16, literal(-7)))
        CFI (cfiCond49) R7 load(1, XDATA, add(CFA_XSP16, literal(-6)))
        CFI (cfiCond49) ?RET_LOW load(1, XDATA, add(CFA_XSP16, literal(-5)))
        CFI (cfiCond49) ?RET_HIGH load(1, XDATA, add(CFA_XSP16, literal(-4)))
        CFI (cfiCond49) ?BRET_EXT load(1, XDATA, add(CFA_XSP16, literal(-3)))
        CFI (cfiCond49) DPL0 load(1, XDATA, add(CFA_XSP16, literal(-2)))
        CFI (cfiCond49) DPH0 load(1, XDATA, add(CFA_XSP16, literal(-1)))
        CFI (cfiCond49) CFA_SP SP+0
        CFI (cfiCond49) CFA_XSP16 add(XSP16, 55)
        CFI Block cfiCond50 Using cfiCommon0
        CFI (cfiCond50) NoFunction
        CFI (cfiCond50) Conditional ??CrossCallReturnLabel_46, ??CrossCallReturnLabel_4
        CFI (cfiCond50) R6 load(1, XDATA, add(CFA_XSP16, literal(-16)))
        CFI (cfiCond50) VB load(1, XDATA, add(CFA_XSP16, literal(-15)))
        CFI (cfiCond50) V0 load(1, XDATA, add(CFA_XSP16, literal(-14)))
        CFI (cfiCond50) V1 load(1, XDATA, add(CFA_XSP16, literal(-13)))
        CFI (cfiCond50) V2 load(1, XDATA, add(CFA_XSP16, literal(-12)))
        CFI (cfiCond50) V3 load(1, XDATA, add(CFA_XSP16, literal(-11)))
        CFI (cfiCond50) V4 load(1, XDATA, add(CFA_XSP16, literal(-10)))
        CFI (cfiCond50) V5 load(1, XDATA, add(CFA_XSP16, literal(-9)))
        CFI (cfiCond50) V6 load(1, XDATA, add(CFA_XSP16, literal(-8)))
        CFI (cfiCond50) V7 load(1, XDATA, add(CFA_XSP16, literal(-7)))
        CFI (cfiCond50) R7 load(1, XDATA, add(CFA_XSP16, literal(-6)))
        CFI (cfiCond50) ?RET_LOW load(1, XDATA, add(CFA_XSP16, literal(-5)))
        CFI (cfiCond50) ?RET_HIGH load(1, XDATA, add(CFA_XSP16, literal(-4)))
        CFI (cfiCond50) ?BRET_EXT load(1, XDATA, add(CFA_XSP16, literal(-3)))
        CFI (cfiCond50) DPL0 load(1, XDATA, add(CFA_XSP16, literal(-2)))
        CFI (cfiCond50) DPH0 load(1, XDATA, add(CFA_XSP16, literal(-1)))
        CFI (cfiCond50) CFA_SP SP+0
        CFI (cfiCond50) CFA_XSP16 add(XSP16, 55)
        CFI Block cfiCond51 Using cfiCommon0
        CFI (cfiCond51) NoFunction
        CFI (cfiCond51) Conditional ??CrossCallReturnLabel_46, ??CrossCallReturnLabel_5
        CFI (cfiCond51) R6 load(1, XDATA, add(CFA_XSP16, literal(-16)))
        CFI (cfiCond51) VB load(1, XDATA, add(CFA_XSP16, literal(-15)))
        CFI (cfiCond51) V0 load(1, XDATA, add(CFA_XSP16, literal(-14)))
        CFI (cfiCond51) V1 load(1, XDATA, add(CFA_XSP16, literal(-13)))
        CFI (cfiCond51) V2 load(1, XDATA, add(CFA_XSP16, literal(-12)))
        CFI (cfiCond51) V3 load(1, XDATA, add(CFA_XSP16, literal(-11)))
        CFI (cfiCond51) V4 load(1, XDATA, add(CFA_XSP16, literal(-10)))
        CFI (cfiCond51) V5 load(1, XDATA, add(CFA_XSP16, literal(-9)))
        CFI (cfiCond51) V6 load(1, XDATA, add(CFA_XSP16, literal(-8)))
        CFI (cfiCond51) V7 load(1, XDATA, add(CFA_XSP16, literal(-7)))
        CFI (cfiCond51) R7 load(1, XDATA, add(CFA_XSP16, literal(-6)))
        CFI (cfiCond51) ?RET_LOW load(1, XDATA, add(CFA_XSP16, literal(-5)))
        CFI (cfiCond51) ?RET_HIGH load(1, XDATA, add(CFA_XSP16, literal(-4)))
        CFI (cfiCond51) ?BRET_EXT load(1, XDATA, add(CFA_XSP16, literal(-3)))
        CFI (cfiCond51) DPL0 load(1, XDATA, add(CFA_XSP16, literal(-2)))
        CFI (cfiCond51) DPH0 load(1, XDATA, add(CFA_XSP16, literal(-1)))
        CFI (cfiCond51) CFA_SP SP+0
        CFI (cfiCond51) CFA_XSP16 add(XSP16, 55)
        CFI Block cfiPicker52 Using cfiCommon1
        CFI (cfiPicker52) NoFunction
        CFI (cfiPicker52) Picker
        MOVX    A,@DPTR
        MOV     R2,A
        INC     DPTR
        MOVX    A,@DPTR
        MOV     R3,A
        LCALL   ??strcat?relay
        RET
        CFI EndBlock cfiCond47
        CFI EndBlock cfiCond48
        CFI EndBlock cfiCond49
        CFI EndBlock cfiCond50
        CFI EndBlock cfiCond51
        CFI EndBlock cfiPicker52

        RSEG BANKED_CODE:CODE:NOROOT(0)
?Subroutine5:
        CFI Block cfiCond53 Using cfiCommon0
        CFI NoFunction
        CFI Conditional ??CrossCallReturnLabel_0
        CFI R6 load(1, XDATA, add(CFA_XSP16, literal(-16)))
        CFI VB load(1, XDATA, add(CFA_XSP16, literal(-15)))
        CFI V0 load(1, XDATA, add(CFA_XSP16, literal(-14)))
        CFI V1 load(1, XDATA, add(CFA_XSP16, literal(-13)))
        CFI V2 load(1, XDATA, add(CFA_XSP16, literal(-12)))
        CFI V3 load(1, XDATA, add(CFA_XSP16, literal(-11)))
        CFI V4 load(1, XDATA, add(CFA_XSP16, literal(-10)))
        CFI V5 load(1, XDATA, add(CFA_XSP16, literal(-9)))
        CFI V6 load(1, XDATA, add(CFA_XSP16, literal(-8)))
        CFI V7 load(1, XDATA, add(CFA_XSP16, literal(-7)))
        CFI R7 load(1, XDATA, add(CFA_XSP16, literal(-6)))
        CFI ?RET_LOW load(1, XDATA, add(CFA_XSP16, literal(-5)))
        CFI ?RET_HIGH load(1, XDATA, add(CFA_XSP16, literal(-4)))
        CFI ?BRET_EXT load(1, XDATA, add(CFA_XSP16, literal(-3)))
        CFI DPL0 load(1, XDATA, add(CFA_XSP16, literal(-2)))
        CFI DPH0 load(1, XDATA, add(CFA_XSP16, literal(-1)))
        CFI CFA_SP SP+0
        CFI CFA_XSP16 add(XSP16, 55)
        CFI Block cfiCond54 Using cfiCommon0
        CFI (cfiCond54) NoFunction
        CFI (cfiCond54) Conditional ??CrossCallReturnLabel_1
        CFI (cfiCond54) R6 load(1, XDATA, add(CFA_XSP16, literal(-16)))
        CFI (cfiCond54) VB load(1, XDATA, add(CFA_XSP16, literal(-15)))
        CFI (cfiCond54) V0 load(1, XDATA, add(CFA_XSP16, literal(-14)))
        CFI (cfiCond54) V1 load(1, XDATA, add(CFA_XSP16, literal(-13)))
        CFI (cfiCond54) V2 load(1, XDATA, add(CFA_XSP16, literal(-12)))
        CFI (cfiCond54) V3 load(1, XDATA, add(CFA_XSP16, literal(-11)))
        CFI (cfiCond54) V4 load(1, XDATA, add(CFA_XSP16, literal(-10)))
        CFI (cfiCond54) V5 load(1, XDATA, add(CFA_XSP16, literal(-9)))
        CFI (cfiCond54) V6 load(1, XDATA, add(CFA_XSP16, literal(-8)))
        CFI (cfiCond54) V7 load(1, XDATA, add(CFA_XSP16, literal(-7)))
        CFI (cfiCond54) R7 load(1, XDATA, add(CFA_XSP16, literal(-6)))
        CFI (cfiCond54) ?RET_LOW load(1, XDATA, add(CFA_XSP16, literal(-5)))
        CFI (cfiCond54) ?RET_HIGH load(1, XDATA, add(CFA_XSP16, literal(-4)))
        CFI (cfiCond54) ?BRET_EXT load(1, XDATA, add(CFA_XSP16, literal(-3)))
        CFI (cfiCond54) DPL0 load(1, XDATA, add(CFA_XSP16, literal(-2)))
        CFI (cfiCond54) DPH0 load(1, XDATA, add(CFA_XSP16, literal(-1)))
        CFI (cfiCond54) CFA_SP SP+0
        CFI (cfiCond54) CFA_XSP16 add(XSP16, 55)
        CFI Block cfiCond55 Using cfiCommon0
        CFI (cfiCond55) NoFunction
        CFI (cfiCond55) Conditional ??CrossCallReturnLabel_2
        CFI (cfiCond55) R6 load(1, XDATA, add(CFA_XSP16, literal(-16)))
        CFI (cfiCond55) VB load(1, XDATA, add(CFA_XSP16, literal(-15)))
        CFI (cfiCond55) V0 load(1, XDATA, add(CFA_XSP16, literal(-14)))
        CFI (cfiCond55) V1 load(1, XDATA, add(CFA_XSP16, literal(-13)))
        CFI (cfiCond55) V2 load(1, XDATA, add(CFA_XSP16, literal(-12)))
        CFI (cfiCond55) V3 load(1, XDATA, add(CFA_XSP16, literal(-11)))
        CFI (cfiCond55) V4 load(1, XDATA, add(CFA_XSP16, literal(-10)))
        CFI (cfiCond55) V5 load(1, XDATA, add(CFA_XSP16, literal(-9)))
        CFI (cfiCond55) V6 load(1, XDATA, add(CFA_XSP16, literal(-8)))
        CFI (cfiCond55) V7 load(1, XDATA, add(CFA_XSP16, literal(-7)))
        CFI (cfiCond55) R7 load(1, XDATA, add(CFA_XSP16, literal(-6)))
        CFI (cfiCond55) ?RET_LOW load(1, XDATA, add(CFA_XSP16, literal(-5)))
        CFI (cfiCond55) ?RET_HIGH load(1, XDATA, add(CFA_XSP16, literal(-4)))
        CFI (cfiCond55) ?BRET_EXT load(1, XDATA, add(CFA_XSP16, literal(-3)))
        CFI (cfiCond55) DPL0 load(1, XDATA, add(CFA_XSP16, literal(-2)))
        CFI (cfiCond55) DPH0 load(1, XDATA, add(CFA_XSP16, literal(-1)))
        CFI (cfiCond55) CFA_SP SP+0
        CFI (cfiCond55) CFA_XSP16 add(XSP16, 55)
        CFI Block cfiPicker56 Using cfiCommon1
        CFI (cfiPicker56) NoFunction
        CFI (cfiPicker56) Picker
        MOV     R2,DPL
        MOV     R3,DPH
        LCALL   ??strlen?relay
        MOV     ?V0 + 4,R2
        MOV     ?V0 + 5,R3
        MOV     A,#0x4
        CLR     C
        SUBB    A,?V0 + 4
        MOV     R0,A
        CLR     A
        SUBB    A,?V0 + 5
        MOV     R1,A
        CLR     C
        MOV     A,?V0 + 2
        SUBB    A,R0
        CLR     A
        SUBB    A,R1
        RET
        CFI EndBlock cfiCond53
        CFI EndBlock cfiCond54
        CFI EndBlock cfiCond55
        CFI EndBlock cfiPicker56
//  382 #endif // !defined(ZBIT) && !defined(ZBIT2)
//  383 
//  384 /*********************************************************************
//  385  * @fn        osal_rand
//  386  *
//  387  * @brief    Random number generator
//  388  *
//  389  * @param   none
//  390  *
//  391  * @return  uint16 - new random number
//  392  */

        RSEG BANKED_CODE:CODE:NOROOT(0)
//  393 uint16 osal_rand( void )
osal_rand:
        CFI Block cfiBlock57 Using cfiCommon0
        CFI Function osal_rand
        CODE
//  394 {
        FUNCALL osal_rand, Onboard_rand
        LOCFRAME ISTACK, 2, STACK
        LOCFRAME PSTACK, 0, STACK
        LOCFRAME XSTACK, 0, STACK
        LOCFRAME IOVERLAY, 0, STATIC
        LOCFRAME DOVERLAY, 0, STATIC
        ARGFRAME ISTACK, 2, STACK
        ARGFRAME PSTACK, 0, STACK
        ARGFRAME XSTACK, 0, STACK
        ARGFRAME IOVERLAY, 0, STATIC
        ARGFRAME DOVERLAY, 0, STATIC
        PUSH    DPL
        CFI DPL0 Frame(CFA_SP, 4)
        CFI CFA_SP SP+-4
        PUSH    DPH
        CFI DPH0 Frame(CFA_SP, 5)
        CFI CFA_SP SP+-5
        ; Saved register size: 2
        ; Auto size: 0
//  395   return ( Onboard_rand() );
        ; Setup parameters for call to function Onboard_rand
        LCALL   ??Onboard_rand?relay
        SJMP    ?Subroutine0
        CFI EndBlock cfiBlock57
//  396 }
//  397 
//  398 /*********************************************************************
//  399  * API FUNCTIONS
//  400  *********************************************************************/
//  401 
//  402 /*********************************************************************
//  403  * @fn      osal_msg_allocate
//  404  *
//  405  * @brief
//  406  *
//  407  *    This function is called by a task to allocate a message buffer
//  408  *    into which the task will encode the particular message it wishes
//  409  *    to send.  This common buffer scheme is used to strictly limit the
//  410  *    creation of message buffers within the system due to RAM size
//  411  *    limitations on the microprocessor.   Note that all message buffers
//  412  *    are a fixed size (at least initially).  The parameter len is kept
//  413  *    in case a message pool with varying fixed message sizes is later
//  414  *    created (for example, a pool of message buffers of size LARGE,
//  415  *    MEDIUM and SMALL could be maintained and allocated based on request
//  416  *    from the tasks).
//  417  *
//  418  *
//  419  * @param   uint8 len  - wanted buffer length
//  420  *
//  421  *
//  422  * @return  pointer to allocated buffer or NULL if allocation failed.
//  423  */

        RSEG BANKED_CODE:CODE:NOROOT(0)
//  424 uint8 * osal_msg_allocate( uint16 len )
osal_msg_allocate:
        CFI Block cfiBlock58 Using cfiCommon0
        CFI Function osal_msg_allocate
        CODE
//  425 {
        FUNCALL osal_msg_allocate, osal_mem_alloc
        LOCFRAME ISTACK, 0, STACK
        LOCFRAME PSTACK, 0, STACK
        LOCFRAME XSTACK, 10, STACK
        LOCFRAME IOVERLAY, 0, STATIC
        LOCFRAME DOVERLAY, 0, STATIC
        ARGFRAME ISTACK, 0, STACK
        ARGFRAME PSTACK, 0, STACK
        ARGFRAME XSTACK, 10, STACK
        ARGFRAME IOVERLAY, 0, STATIC
        ARGFRAME DOVERLAY, 0, STATIC
        MOV     A,#-0xa
        LCALL   ?BANKED_ENTER_XDATA
        CFI DPH0 load(1, XDATA, add(CFA_XSP16, literal(-1)))
        CFI DPL0 load(1, XDATA, add(CFA_XSP16, literal(-2)))
        CFI ?BRET_EXT load(1, XDATA, add(CFA_XSP16, literal(-3)))
        CFI ?RET_HIGH load(1, XDATA, add(CFA_XSP16, literal(-4)))
        CFI ?RET_LOW load(1, XDATA, add(CFA_XSP16, literal(-5)))
        CFI R7 load(1, XDATA, add(CFA_XSP16, literal(-6)))
        CFI V1 load(1, XDATA, add(CFA_XSP16, literal(-7)))
        CFI V0 load(1, XDATA, add(CFA_XSP16, literal(-8)))
        CFI VB load(1, XDATA, add(CFA_XSP16, literal(-9)))
        CFI R6 load(1, XDATA, add(CFA_XSP16, literal(-10)))
        CFI CFA_SP SP+0
        CFI CFA_XSP16 add(XSP16, 10)
        ; Saved register size: 10
        ; Auto size: 0
        MOV     A,R2
        MOV     R6,A
        MOV     A,R3
        MOV     R7,A
//  426   osal_msg_hdr_t *hdr;
//  427 
//  428   if ( len == 0 )
        MOV     A,R6
        ORL     A,R7
        JNZ     ??osal_msg_allocate_0
//  429     return ( NULL );
??osal_msg_allocate_1:
        MOV     R2,#0x0
        MOV     R3,#0x0
        SJMP    ??osal_msg_allocate_2
//  430 
//  431   hdr = (osal_msg_hdr_t *) osal_mem_alloc( (short)(len + sizeof( osal_msg_hdr_t )) );
??osal_msg_allocate_0:
        ; Setup parameters for call to function osal_mem_alloc
        MOV     A,R6
        ADD     A,#0x5
        MOV     R2,A
        MOV     A,R7
        ADDC    A,#0x0
        MOV     R3,A
        LCALL   ??osal_mem_alloc?relay
        MOV     ?V0 + 0,R2
        MOV     ?V0 + 1,R3
        MOV     R0,?V0 + 0
        MOV     R1,?V0 + 1
//  432   if ( hdr )
        MOV     A,R0
        ORL     A,R1
        JZ      ??osal_msg_allocate_1
//  433   {
//  434     hdr->next = NULL;
        MOV     DPL,R0
        MOV     DPH,R1
        CLR     A
        MOVX    @DPTR,A
        INC     DPTR
        MOVX    @DPTR,A
//  435     hdr->len = len;
        MOV     DPL,R0
        MOV     DPH,R1
        INC     DPTR
        INC     DPTR
        MOV     A,R6
        MOVX    @DPTR,A
        INC     DPTR
        MOV     A,R7
        MOVX    @DPTR,A
//  436     hdr->dest_id = TASK_NO_TASK;
        MOV     DPL,R0
        MOV     DPH,R1
        INC     DPTR
        INC     DPTR
        INC     DPTR
        INC     DPTR
        MOV     A,#-0x1
        MOVX    @DPTR,A
//  437     return ( (uint8 *) (hdr + 1) );
        MOV     A,R0
        ADD     A,#0x5
        MOV     R2,A
        MOV     A,R1
        ADDC    A,#0x0
        MOV     R3,A
//  438   }
??osal_msg_allocate_2:
        LJMP    ?Subroutine4 & 0xFFFF
        CFI EndBlock cfiBlock58
//  439   else
//  440     return ( NULL );
//  441 }
//  442 
//  443 /*********************************************************************
//  444  * @fn      osal_msg_deallocate
//  445  *
//  446  * @brief
//  447  *
//  448  *    This function is used to deallocate a message buffer. This function
//  449  *    is called by a task (or processing element) after it has finished
//  450  *    processing a received message.
//  451  *
//  452  *
//  453  * @param   uint8 *msg_ptr - pointer to new message buffer
//  454  *
//  455  * @return  SUCCESS, INVALID_MSG_POINTER
//  456  */

        RSEG BANKED_CODE:CODE:NOROOT(0)
//  457 uint8 osal_msg_deallocate( uint8 *msg_ptr )
osal_msg_deallocate:
        CFI Block cfiBlock59 Using cfiCommon0
        CFI Function osal_msg_deallocate
        CODE
//  458 {
        FUNCALL osal_msg_deallocate, osal_mem_free
        LOCFRAME ISTACK, 2, STACK
        LOCFRAME PSTACK, 0, STACK
        LOCFRAME XSTACK, 0, STACK
        LOCFRAME IOVERLAY, 0, STATIC
        LOCFRAME DOVERLAY, 0, STATIC
        ARGFRAME ISTACK, 2, STACK
        ARGFRAME PSTACK, 0, STACK
        ARGFRAME XSTACK, 0, STACK
        ARGFRAME IOVERLAY, 0, STATIC
        ARGFRAME DOVERLAY, 0, STATIC
        PUSH    DPL
        CFI DPL0 Frame(CFA_SP, 4)
        CFI CFA_SP SP+-4
        PUSH    DPH
        CFI DPH0 Frame(CFA_SP, 5)
        CFI CFA_SP SP+-5
        ; Saved register size: 2
        ; Auto size: 0
//  459   uint8 *x;
//  460 
//  461   if ( msg_ptr == NULL )
        MOV     A,R2
        ORL     A,R3
        JNZ     ??osal_msg_deallocate_0
//  462     return ( INVALID_MSG_POINTER );
        MOV     R1,#0x5
        SJMP    ??osal_msg_deallocate_1
//  463 
//  464   // don't deallocate queued buffer
//  465   if ( OSAL_MSG_ID( msg_ptr ) != TASK_NO_TASK )
??osal_msg_deallocate_0:
        LCALL   ?Subroutine20 & 0xFFFF
??CrossCallReturnLabel_35:
        JZ      ??osal_msg_deallocate_2
//  466     return ( MSG_BUFFER_NOT_AVAIL );
        MOV     R1,#0x4
        SJMP    ??osal_msg_deallocate_1
//  467 
//  468   x = (uint8 *)((uint8 *)msg_ptr - sizeof( osal_msg_hdr_t ));
//  469 
//  470   osal_mem_free( (void *)x );
??osal_msg_deallocate_2:
        ; Setup parameters for call to function osal_mem_free
        MOV     A,R2
        ADD     A,#-0x5
        MOV     R2,A
        MOV     A,R3
        ADDC    A,#-0x1
        MOV     R3,A
        LCALL   ??osal_mem_free?relay
//  471 
//  472   return ( SUCCESS );
        MOV     R1,#0x0
        CFI EndBlock cfiBlock59
??osal_msg_deallocate_1:
        REQUIRE ?Subroutine0
        ; // Fall through to label ?Subroutine0
//  473 }

        RSEG BANKED_CODE:CODE:NOROOT(0)
?Subroutine0:
        CFI Block cfiBlock60 Using cfiCommon0
        CFI NoFunction
        CFI CFA_SP SP+-5
        CFI DPL0 Frame(CFA_SP, 4)
        CFI DPH0 Frame(CFA_SP, 5)
        POP     DPH
        CFI CFA_SP SP+-4
        CFI DPH0 SameValue
        POP     DPL
        CFI CFA_SP SP+-3
        CFI DPL0 SameValue
        LJMP    ?BRET
        CFI EndBlock cfiBlock60
//  474 
//  475 /*********************************************************************
//  476  * @fn      osal_msg_send
//  477  *
//  478  * @brief
//  479  *
//  480  *    This function is called by a task to send a command message to
//  481  *    another task or processing element.  The sending_task field must
//  482  *    refer to a valid task, since the task ID will be used
//  483  *    for the response message.  This function will also set a message
//  484  *    ready event in the destination tasks event list.
//  485  *
//  486  *
//  487  * @param   uint8 destination task - Send msg to?  Task ID
//  488  * @param   uint8 *msg_ptr - pointer to new message buffer
//  489  * @param   uint8 len - length of data in message
//  490  *
//  491  * @return  SUCCESS, INVALID_TASK, INVALID_MSG_POINTER
//  492  */

        RSEG BANKED_CODE:CODE:NOROOT(0)
//  493 uint8 osal_msg_send( uint8 destination_task, uint8 *msg_ptr )
osal_msg_send:
        CFI Block cfiBlock61 Using cfiCommon0
        CFI Function osal_msg_send
        CODE
//  494 {
        FUNCALL osal_msg_send, osal_msg_deallocate
        LOCFRAME ISTACK, 0, STACK
        LOCFRAME PSTACK, 0, STACK
        LOCFRAME XSTACK, 9, STACK
        LOCFRAME IOVERLAY, 0, STATIC
        LOCFRAME DOVERLAY, 0, STATIC
        ARGFRAME ISTACK, 0, STACK
        ARGFRAME PSTACK, 0, STACK
        ARGFRAME XSTACK, 9, STACK
        ARGFRAME IOVERLAY, 0, STATIC
        ARGFRAME DOVERLAY, 0, STATIC
        FUNCALL osal_msg_send, osal_msg_deallocate
        LOCFRAME ISTACK, 0, STACK
        LOCFRAME PSTACK, 0, STACK
        LOCFRAME XSTACK, 9, STACK
        LOCFRAME IOVERLAY, 0, STATIC
        LOCFRAME DOVERLAY, 0, STATIC
        ARGFRAME ISTACK, 0, STACK
        ARGFRAME PSTACK, 0, STACK
        ARGFRAME XSTACK, 9, STACK
        ARGFRAME IOVERLAY, 0, STATIC
        ARGFRAME DOVERLAY, 0, STATIC
        FUNCALL osal_msg_send, osal_msg_enqueue
        LOCFRAME ISTACK, 0, STACK
        LOCFRAME PSTACK, 0, STACK
        LOCFRAME XSTACK, 9, STACK
        LOCFRAME IOVERLAY, 0, STATIC
        LOCFRAME DOVERLAY, 0, STATIC
        ARGFRAME ISTACK, 0, STACK
        ARGFRAME PSTACK, 0, STACK
        ARGFRAME XSTACK, 9, STACK
        ARGFRAME IOVERLAY, 0, STATIC
        ARGFRAME DOVERLAY, 0, STATIC
        FUNCALL osal_msg_send, osal_set_event
        LOCFRAME ISTACK, 0, STACK
        LOCFRAME PSTACK, 0, STACK
        LOCFRAME XSTACK, 9, STACK
        LOCFRAME IOVERLAY, 0, STATIC
        LOCFRAME DOVERLAY, 0, STATIC
        ARGFRAME ISTACK, 0, STACK
        ARGFRAME PSTACK, 0, STACK
        ARGFRAME XSTACK, 9, STACK
        ARGFRAME IOVERLAY, 0, STATIC
        ARGFRAME DOVERLAY, 0, STATIC
        MOV     A,#-0x9
        LCALL   ?BANKED_ENTER_XDATA
        CFI DPH0 load(1, XDATA, add(CFA_XSP16, literal(-1)))
        CFI DPL0 load(1, XDATA, add(CFA_XSP16, literal(-2)))
        CFI ?BRET_EXT load(1, XDATA, add(CFA_XSP16, literal(-3)))
        CFI ?RET_HIGH load(1, XDATA, add(CFA_XSP16, literal(-4)))
        CFI ?RET_LOW load(1, XDATA, add(CFA_XSP16, literal(-5)))
        CFI R7 load(1, XDATA, add(CFA_XSP16, literal(-6)))
        CFI V0 load(1, XDATA, add(CFA_XSP16, literal(-7)))
        CFI VB load(1, XDATA, add(CFA_XSP16, literal(-8)))
        CFI R6 load(1, XDATA, add(CFA_XSP16, literal(-9)))
        CFI CFA_SP SP+0
        CFI CFA_XSP16 add(XSP16, 9)
        ; Saved register size: 9
        ; Auto size: 0
        MOV     A,R1
        MOV     R6,A
//  495   if ( msg_ptr == NULL )
        MOV     A,R2
        ORL     A,R3
        JNZ     ??osal_msg_send_0
//  496     return ( INVALID_MSG_POINTER );
??osal_msg_send_1:
        MOV     R1,#0x5
        SJMP    ??osal_msg_send_2
//  497 
//  498   if ( destination_task >= tasksCnt )
??osal_msg_send_0:
        MOV     DPTR,#tasksCnt
        MOVX    A,@DPTR
        MOV     R0,A
        MOV     A,R6
        CLR     C
        SUBB    A,R0
        JC      ??osal_msg_send_3
//  499   {
//  500     osal_msg_deallocate( msg_ptr );
        ; Setup parameters for call to function osal_msg_deallocate
        LCALL   ??osal_msg_deallocate?relay
//  501     return ( INVALID_TASK );
        MOV     R1,#0x3
        SJMP    ??osal_msg_send_2
//  502   }
//  503 
//  504   // Check the message header
//  505   if ( OSAL_MSG_NEXT( msg_ptr ) != NULL ||
//  506        OSAL_MSG_ID( msg_ptr ) != TASK_NO_TASK )
??osal_msg_send_3:
        MOV     A,R2
        ADD     A,#-0x5
        MOV     DPL,A
        MOV     A,R3
        LCALL   ??Subroutine33_0 & 0xFFFF
??CrossCallReturnLabel_58:
        LCALL   ??Subroutine31_0 & 0xFFFF
??CrossCallReturnLabel_50:
        JNZ     ??osal_msg_send_4
        LCALL   ?Subroutine20 & 0xFFFF
??CrossCallReturnLabel_36:
        JZ      ??osal_msg_send_5
//  507   {
//  508     osal_msg_deallocate( msg_ptr );
??osal_msg_send_4:
        ; Setup parameters for call to function osal_msg_deallocate
        LCALL   ??osal_msg_deallocate?relay
//  509     return ( INVALID_MSG_POINTER );
        SJMP    ??osal_msg_send_1
//  510   }
//  511 
//  512   OSAL_MSG_ID( msg_ptr ) = destination_task;
??osal_msg_send_5:
        MOV     A,R6
        MOVX    @DPTR,A
//  513 
//  514   // queue message
//  515   osal_msg_enqueue( &osal_qHead, msg_ptr );
        ; Setup parameters for call to function osal_msg_enqueue
        MOV     A,R2
        MOV     R4,A
        MOV     A,R3
        MOV     R5,A
        MOV     R2,#osal_qHead & 0xff
        MOV     R3,#(osal_qHead >> 8) & 0xff
        LCALL   ??osal_msg_enqueue?relay
//  516 
//  517   // Signal the task that a message is waiting
//  518   osal_set_event( destination_task, SYS_EVENT_MSG );
        ; Setup parameters for call to function osal_set_event
        MOV     R2,#0x0
        MOV     R3,#-0x80
        MOV     A,R6
        MOV     R1,A
        LCALL   ??osal_set_event?relay
//  519 
//  520   return ( SUCCESS );
        MOV     R1,#0x0
??osal_msg_send_2:
        SJMP    ??Subroutine30_0
        CFI EndBlock cfiBlock61
//  521 }

        RSEG BANKED_CODE:CODE:NOROOT(0)
?Subroutine20:
        CFI Block cfiCond62 Using cfiCommon0
        CFI NoFunction
        CFI Conditional ??CrossCallReturnLabel_35
        CFI DPL0 Frame(CFA_SP, 4)
        CFI DPH0 Frame(CFA_SP, 5)
        CFI CFA_SP SP+-5
        CFI Block cfiCond63 Using cfiCommon0
        CFI (cfiCond63) NoFunction
        CFI (cfiCond63) Conditional ??CrossCallReturnLabel_36
        CFI (cfiCond63) R6 load(1, XDATA, add(CFA_XSP16, literal(-9)))
        CFI (cfiCond63) VB load(1, XDATA, add(CFA_XSP16, literal(-8)))
        CFI (cfiCond63) V0 load(1, XDATA, add(CFA_XSP16, literal(-7)))
        CFI (cfiCond63) R7 load(1, XDATA, add(CFA_XSP16, literal(-6)))
        CFI (cfiCond63) ?RET_LOW load(1, XDATA, add(CFA_XSP16, literal(-5)))
        CFI (cfiCond63) ?RET_HIGH load(1, XDATA, add(CFA_XSP16, literal(-4)))
        CFI (cfiCond63) ?BRET_EXT load(1, XDATA, add(CFA_XSP16, literal(-3)))
        CFI (cfiCond63) DPL0 load(1, XDATA, add(CFA_XSP16, literal(-2)))
        CFI (cfiCond63) DPH0 load(1, XDATA, add(CFA_XSP16, literal(-1)))
        CFI (cfiCond63) CFA_SP SP+0
        CFI (cfiCond63) CFA_XSP16 add(XSP16, 9)
        CFI Block cfiPicker64 Using cfiCommon1
        CFI (cfiPicker64) NoFunction
        CFI (cfiPicker64) Picker
        LCALL   ?Subroutine28 & 0xFFFF
??CrossCallReturnLabel_47:
        MOVX    A,@DPTR
        CPL     A
        RET
        CFI EndBlock cfiCond62
        CFI EndBlock cfiCond63
        CFI EndBlock cfiPicker64

        RSEG BANKED_CODE:CODE:NOROOT(0)
?Subroutine2:
        CFI Block cfiBlock65 Using cfiCommon0
        CFI NoFunction
        CFI CFA_SP SP+0
        CFI CFA_XSP16 add(XSP16, 9)
        CFI VB load(1, XDATA, add(CFA_XSP16, literal(-8)))
        CFI DPL0 load(1, XDATA, add(CFA_XSP16, literal(-2)))
        CFI DPH0 load(1, XDATA, add(CFA_XSP16, literal(-1)))
        CFI R6 load(1, XDATA, add(CFA_XSP16, literal(-9)))
        CFI R7 load(1, XDATA, add(CFA_XSP16, literal(-6)))
        CFI V0 load(1, XDATA, add(CFA_XSP16, literal(-7)))
        CFI ?BRET_EXT load(1, XDATA, add(CFA_XSP16, literal(-3)))
        CFI ?RET_HIGH load(1, XDATA, add(CFA_XSP16, literal(-4)))
        CFI ?RET_LOW load(1, XDATA, add(CFA_XSP16, literal(-5)))
        MOV     0xa8.7,C
        CFI EndBlock cfiBlock65
        REQUIRE ??Subroutine30_0
        ; // Fall through to label ??Subroutine30_0

        RSEG BANKED_CODE:CODE:NOROOT(0)
??Subroutine30_0:
        CFI Block cfiBlock66 Using cfiCommon0
        CFI NoFunction
        CFI CFA_SP SP+0
        CFI CFA_XSP16 add(XSP16, 9)
        CFI VB load(1, XDATA, add(CFA_XSP16, literal(-8)))
        CFI DPL0 load(1, XDATA, add(CFA_XSP16, literal(-2)))
        CFI DPH0 load(1, XDATA, add(CFA_XSP16, literal(-1)))
        CFI R6 load(1, XDATA, add(CFA_XSP16, literal(-9)))
        CFI R7 load(1, XDATA, add(CFA_XSP16, literal(-6)))
        CFI V0 load(1, XDATA, add(CFA_XSP16, literal(-7)))
        CFI ?BRET_EXT load(1, XDATA, add(CFA_XSP16, literal(-3)))
        CFI ?RET_HIGH load(1, XDATA, add(CFA_XSP16, literal(-4)))
        CFI ?RET_LOW load(1, XDATA, add(CFA_XSP16, literal(-5)))
        MOV     R7,#0x1
        LJMP    ?BANKED_LEAVE_XDATA
        CFI EndBlock cfiBlock66
//  522 
//  523 /*********************************************************************
//  524  * @fn      osal_msg_receive
//  525  *
//  526  * @brief
//  527  *
//  528  *    This function is called by a task to retrieve a received command
//  529  *    message. The calling task must deallocate the message buffer after
//  530  *    processing the message using the osal_msg_deallocate() call.
//  531  *
//  532  * @param   uint8 task_id - receiving tasks ID
//  533  *
//  534  * @return  *uint8 - message information or NULL if no message
//  535  */

        RSEG BANKED_CODE:CODE:NOROOT(0)
//  536 uint8 *osal_msg_receive( uint8 task_id )
osal_msg_receive:
        CFI Block cfiBlock67 Using cfiCommon0
        CFI Function osal_msg_receive
        CODE
//  537 {
        FUNCALL osal_msg_receive, osal_set_event
        LOCFRAME ISTACK, 0, STACK
        LOCFRAME PSTACK, 0, STACK
        LOCFRAME XSTACK, 12, STACK
        LOCFRAME IOVERLAY, 0, STATIC
        LOCFRAME DOVERLAY, 0, STATIC
        ARGFRAME ISTACK, 0, STACK
        ARGFRAME PSTACK, 0, STACK
        ARGFRAME XSTACK, 12, STACK
        ARGFRAME IOVERLAY, 0, STATIC
        ARGFRAME DOVERLAY, 0, STATIC
        FUNCALL osal_msg_receive, osal_clear_event
        LOCFRAME ISTACK, 0, STACK
        LOCFRAME PSTACK, 0, STACK
        LOCFRAME XSTACK, 12, STACK
        LOCFRAME IOVERLAY, 0, STATIC
        LOCFRAME DOVERLAY, 0, STATIC
        ARGFRAME ISTACK, 0, STACK
        ARGFRAME PSTACK, 0, STACK
        ARGFRAME XSTACK, 12, STACK
        ARGFRAME IOVERLAY, 0, STATIC
        ARGFRAME DOVERLAY, 0, STATIC
        FUNCALL osal_msg_receive, osal_msg_extract
        LOCFRAME ISTACK, 0, STACK
        LOCFRAME PSTACK, 0, STACK
        LOCFRAME XSTACK, 14, STACK
        LOCFRAME IOVERLAY, 0, STATIC
        LOCFRAME DOVERLAY, 0, STATIC
        ARGFRAME ISTACK, 0, STACK
        ARGFRAME PSTACK, 0, STACK
        ARGFRAME XSTACK, 14, STACK
        ARGFRAME IOVERLAY, 0, STATIC
        ARGFRAME DOVERLAY, 0, STATIC
        MOV     A,#-0xc
        LCALL   ?BANKED_ENTER_XDATA
        CFI DPH0 load(1, XDATA, add(CFA_XSP16, literal(-1)))
        CFI DPL0 load(1, XDATA, add(CFA_XSP16, literal(-2)))
        CFI ?BRET_EXT load(1, XDATA, add(CFA_XSP16, literal(-3)))
        CFI ?RET_HIGH load(1, XDATA, add(CFA_XSP16, literal(-4)))
        CFI ?RET_LOW load(1, XDATA, add(CFA_XSP16, literal(-5)))
        CFI R7 load(1, XDATA, add(CFA_XSP16, literal(-6)))
        CFI V3 load(1, XDATA, add(CFA_XSP16, literal(-7)))
        CFI V2 load(1, XDATA, add(CFA_XSP16, literal(-8)))
        CFI V1 load(1, XDATA, add(CFA_XSP16, literal(-9)))
        CFI V0 load(1, XDATA, add(CFA_XSP16, literal(-10)))
        CFI VB load(1, XDATA, add(CFA_XSP16, literal(-11)))
        CFI R6 load(1, XDATA, add(CFA_XSP16, literal(-12)))
        CFI CFA_SP SP+0
        CFI CFA_XSP16 add(XSP16, 12)
        ; Saved register size: 12
        ; Auto size: 0
        MOV     ?V0 + 0,R1
//  538   osal_msg_hdr_t *listHdr;
//  539   osal_msg_hdr_t *prevHdr = NULL;
        MOV     ?V0 + 2,#0x0
        MOV     ?V0 + 3,#0x0
//  540   osal_msg_hdr_t *foundHdr = NULL;
        MOV     R6,#0x0
        MOV     R7,#0x0
//  541   halIntState_t   intState;
//  542 
//  543   // Hold off interrupts
//  544   HAL_ENTER_CRITICAL_SECTION(intState);
        MOV     C,0xa8.7
        CLR     A
        RLC     A
        MOV     ?V0 + 1,A
        CLR     0xa8.7
//  545 
//  546   // Point to the top of the queue
//  547   listHdr = osal_qHead;
        MOV     DPTR,#osal_qHead
        SJMP    ??CrossCallReturnLabel_64
//  548 
//  549   // Look through the queue for a message that belongs to the asking task
//  550   while ( listHdr != NULL )
//  551   {
//  552     if ( (listHdr - 1)->dest_id == task_id )
//  553     {
//  554       if ( foundHdr == NULL )
//  555       {
//  556         // Save the first one
//  557         foundHdr = listHdr;
//  558       }
//  559       else
//  560       {
//  561         // Second msg found, stop looking
//  562         break;
//  563       }
//  564     }
//  565     if ( foundHdr == NULL )
??osal_msg_receive_0:
        MOV     A,R6
        ORL     A,R7
        JNZ     ??osal_msg_receive_1
//  566     {
//  567       prevHdr = listHdr;
        MOV     ?V0 + 2,R0
        MOV     ?V0 + 3,R1
//  568     }
//  569     listHdr = OSAL_MSG_NEXT( listHdr );
??osal_msg_receive_1:
        LCALL   ?Subroutine24 & 0xFFFF
??CrossCallReturnLabel_64:
        LCALL   ??Subroutine31_0 & 0xFFFF
??CrossCallReturnLabel_49:
        JZ      ??osal_msg_receive_2
        MOV     A,R0
        ADD     A,#-0x1
        LCALL   ??Subroutine32_0 & 0xFFFF
??CrossCallReturnLabel_63:
        MOVX    A,@DPTR
        XRL     A,?V0 + 0
        JNZ     ??osal_msg_receive_0
        MOV     A,R6
        ORL     A,R7
        JNZ     ??osal_msg_receive_3
        MOV     A,R0
        MOV     R6,A
        MOV     A,R1
        MOV     R7,A
        SJMP    ??osal_msg_receive_1
//  570   }
//  571 
//  572   // Is there more than one?
//  573   if ( listHdr != NULL )
//  574   {
//  575     // Yes, Signal the task that a message is waiting
//  576     osal_set_event( task_id, SYS_EVENT_MSG );
??osal_msg_receive_3:
        ; Setup parameters for call to function osal_set_event
        MOV     R2,#0x0
        MOV     R3,#-0x80
        MOV     R1,?V0 + 0
        LCALL   ??osal_set_event?relay
        SJMP    ??osal_msg_receive_4
//  577   }
//  578   else
//  579   {
//  580     // No more
//  581     osal_clear_event( task_id, SYS_EVENT_MSG );
??osal_msg_receive_2:
        ; Setup parameters for call to function osal_clear_event
        MOV     R2,#0x0
        MOV     R3,#-0x80
        MOV     R1,?V0 + 0
        LCALL   ??osal_clear_event?relay
//  582   }
//  583 
//  584   // Did we find a message?
//  585   if ( foundHdr != NULL )
        MOV     A,R6
        ORL     A,R7
        JZ      ??osal_msg_receive_5
//  586   {
//  587     // Take out of the link list
//  588     osal_msg_extract( &osal_qHead, foundHdr, prevHdr );
??osal_msg_receive_4:
        ; Setup parameters for call to function osal_msg_extract
        MOV     R0,#?V0 + 2
        LCALL   ?PUSH_XSTACK_I_TWO
        CFI CFA_XSP16 add(XSP16, 14)
        MOV     A,R6
        MOV     R4,A
        MOV     A,R7
        MOV     R5,A
        MOV     R2,#osal_qHead & 0xff
        MOV     R3,#(osal_qHead >> 8) & 0xff
        LCALL   ??osal_msg_extract?relay
        MOV     A,#0x2
        LCALL   ?DEALLOC_XSTACK8
        CFI CFA_XSP16 add(XSP16, 12)
//  589   }
//  590 
//  591   // Release interrupts
//  592   HAL_EXIT_CRITICAL_SECTION(intState);
??osal_msg_receive_5:
        MOV     A,?V0 + 1
        MOV     C,0xE0 /* A   */.0
        MOV     0xa8.7,C
//  593 
//  594   return ( (uint8*) foundHdr );
        MOV     A,R6
        MOV     R2,A
        MOV     A,R7
        MOV     R3,A
        MOV     R7,#0x4
        LJMP    ?BANKED_LEAVE_XDATA
        CFI EndBlock cfiBlock67
        REQUIRE _A_IEN0
//  595 }
//  596 
//  597 /**************************************************************************************************
//  598  * @fn          osal_msg_find
//  599  *
//  600  * @brief       This function finds in place an OSAL message matching the task_id and event
//  601  *              parameters.
//  602  *
//  603  * input parameters
//  604  *
//  605  * @param       task_id - The OSAL task id that the enqueued OSAL message must match.
//  606  * @param       event - The OSAL event id that the enqueued OSAL message must match.
//  607  *
//  608  * output parameters
//  609  *
//  610  * None.
//  611  *
//  612  * @return      NULL if no match, otherwise an in place pointer to the matching OSAL message.
//  613  **************************************************************************************************
//  614  */

        RSEG BANKED_CODE:CODE:NOROOT(0)
//  615 osal_event_hdr_t *osal_msg_find(uint8 task_id, uint8 event)
osal_msg_find:
        CFI Block cfiBlock68 Using cfiCommon0
        CFI Function osal_msg_find
        CODE
//  616 {
        PUSH    DPL
        CFI DPL0 Frame(CFA_SP, 4)
        CFI CFA_SP SP+-4
        PUSH    DPH
        CFI DPH0 Frame(CFA_SP, 5)
        CFI CFA_SP SP+-5
        ; Saved register size: 2
        ; Auto size: 0
        MOV     A,R2
        MOV     R0,A
//  617   osal_msg_hdr_t *pHdr;
//  618   halIntState_t intState;
//  619 
//  620   HAL_ENTER_CRITICAL_SECTION(intState);  // Hold off interrupts.
        MOV     C,0xa8.7
        CLR     A
        RLC     A
        MOV     R4,A
        CLR     0xa8.7
//  621 
//  622   pHdr = osal_qHead;  // Point to the top of the queue.
        MOV     DPTR,#osal_qHead
        SJMP    ??CrossCallReturnLabel_59
//  623 
//  624   // Look through the queue for a message that matches the task_id and event parameters.
//  625   while (pHdr != NULL)
//  626   {
//  627     if (((pHdr-1)->dest_id == task_id) && (((osal_event_hdr_t *)pHdr)->event == event))
//  628     {
//  629       break;
//  630     }
//  631 
//  632     pHdr = OSAL_MSG_NEXT(pHdr);
??osal_msg_find_0:
        MOV     A,R2
        ADD     A,#-0x5
        MOV     DPL,A
        MOV     A,R3
        LCALL   ??Subroutine33_0 & 0xFFFF
??CrossCallReturnLabel_59:
        LCALL   ??Subroutine34_0 & 0xFFFF
??CrossCallReturnLabel_69:
        MOV     A,R2
        ORL     A,R3
        JZ      ??osal_msg_find_1
        LCALL   ?Subroutine23 & 0xFFFF
//  633   }
??CrossCallReturnLabel_41:
        MOVX    A,@DPTR
        XRL     A,R1
        JNZ     ??osal_msg_find_0
        MOV     DPL,R2
        MOV     DPH,R3
        MOVX    A,@DPTR
        XRL     A,R0
        JNZ     ??osal_msg_find_0
//  634 
//  635   HAL_EXIT_CRITICAL_SECTION(intState);  // Release interrupts.
??osal_msg_find_1:
        MOV     A,R4
        MOV     C,0xE0 /* A   */.0
        MOV     0xa8.7,C
//  636 
//  637   return (osal_event_hdr_t *)pHdr;
        LJMP    ?Subroutine0 & 0xFFFF
        CFI EndBlock cfiBlock68
        REQUIRE _A_IEN0
//  638 }
//  639 
//  640 /*********************************************************************
//  641  * @fn      osal_msg_enqueue
//  642  *
//  643  * @brief
//  644  *
//  645  *    This function enqueues an OSAL message into an OSAL queue.
//  646  *
//  647  * @param   osal_msg_q_t *q_ptr - OSAL queue
//  648  * @param   void *msg_ptr  - OSAL message
//  649  *
//  650  * @return  none
//  651  */

        RSEG BANKED_CODE:CODE:NOROOT(0)
//  652 void osal_msg_enqueue( osal_msg_q_t *q_ptr, void *msg_ptr )
osal_msg_enqueue:
        CFI Block cfiBlock69 Using cfiCommon0
        CFI Function osal_msg_enqueue
        CODE
//  653 {
        MOV     A,#-0x9
        LCALL   ?BANKED_ENTER_XDATA
        CFI DPH0 load(1, XDATA, add(CFA_XSP16, literal(-1)))
        CFI DPL0 load(1, XDATA, add(CFA_XSP16, literal(-2)))
        CFI ?BRET_EXT load(1, XDATA, add(CFA_XSP16, literal(-3)))
        CFI ?RET_HIGH load(1, XDATA, add(CFA_XSP16, literal(-4)))
        CFI ?RET_LOW load(1, XDATA, add(CFA_XSP16, literal(-5)))
        CFI R7 load(1, XDATA, add(CFA_XSP16, literal(-6)))
        CFI V0 load(1, XDATA, add(CFA_XSP16, literal(-7)))
        CFI VB load(1, XDATA, add(CFA_XSP16, literal(-8)))
        CFI R6 load(1, XDATA, add(CFA_XSP16, literal(-9)))
        CFI CFA_SP SP+0
        CFI CFA_XSP16 add(XSP16, 9)
        ; Saved register size: 9
        ; Auto size: 0
        MOV     A,R2
        MOV     R6,A
        MOV     A,R3
        MOV     R7,A
//  654   void *list;
//  655   halIntState_t intState;
//  656 
//  657   // Hold off interrupts
//  658   HAL_ENTER_CRITICAL_SECTION(intState);
        MOV     C,0xa8.7
        CLR     A
        RLC     A
        MOV     R2,A
        CLR     0xa8.7
//  659 
//  660   OSAL_MSG_NEXT( msg_ptr ) = NULL;
        MOV     A,R4
        ADD     A,#-0x5
        MOV     DPL,A
        MOV     A,R5
        LCALL   ??Subroutine33_0 & 0xFFFF
??CrossCallReturnLabel_60:
        CLR     A
        MOVX    @DPTR,A
        INC     DPTR
        MOVX    @DPTR,A
//  661   // If first message in queue
//  662   if ( *q_ptr == NULL )
        MOV     DPL,R6
        MOV     DPH,R7
        LCALL   ??Subroutine31_0 & 0xFFFF
??CrossCallReturnLabel_51:
        JNZ     ??CrossCallReturnLabel_20
//  663   {
//  664     *q_ptr = msg_ptr;
        MOV     DPL,R6
        MOV     DPH,R7
        SJMP    ??osal_msg_enqueue_0
//  665   }
//  666   else
//  667   {
//  668     // Find end of queue
//  669     for ( list = *q_ptr; OSAL_MSG_NEXT( list ) != NULL; list = OSAL_MSG_NEXT( list ) );
??osal_msg_enqueue_1:
        LCALL   ?Subroutine13 & 0xFFFF
??CrossCallReturnLabel_20:
        MOV     A,R0
        ADD     A,#-0x5
        MOV     R0,A
        MOV     A,R1
        ADDC    A,#-0x1
        MOV     R1,A
        MOV     DPL,R0
        MOV     DPH,R1
        MOVX    A,@DPTR
        MOV     R6,A
        INC     DPTR
        MOVX    A,@DPTR
        MOV     R7,A
        MOV     A,R6
        ORL     A,R7
        MOV     DPL,R0
        MOV     DPH,R1
        JNZ     ??osal_msg_enqueue_1
//  670 
//  671     // Add message to end of queue
//  672     OSAL_MSG_NEXT( list ) = msg_ptr;
??osal_msg_enqueue_0:
        MOV     A,R4
        MOVX    @DPTR,A
        INC     DPTR
        MOV     A,R5
        MOVX    @DPTR,A
//  673   }
//  674 
//  675   // Re-enable interrupts
//  676   HAL_EXIT_CRITICAL_SECTION(intState);
        MOV     A,R2
        MOV     C,0xE0 /* A   */.0
        LJMP    ?Subroutine2 & 0xFFFF
        CFI EndBlock cfiBlock69
        REQUIRE _A_IEN0
//  677 }
//  678 
//  679 /*********************************************************************
//  680  * @fn      osal_msg_dequeue
//  681  *
//  682  * @brief
//  683  *
//  684  *    This function dequeues an OSAL message from an OSAL queue.
//  685  *
//  686  * @param   osal_msg_q_t *q_ptr - OSAL queue
//  687  *
//  688  * @return  void * - pointer to OSAL message or NULL of queue is empty.
//  689  */

        RSEG BANKED_CODE:CODE:NOROOT(0)
//  690 void *osal_msg_dequeue( osal_msg_q_t *q_ptr )
osal_msg_dequeue:
        CFI Block cfiBlock70 Using cfiCommon0
        CFI Function osal_msg_dequeue
        CODE
//  691 {
        MOV     A,#-0xa
        LCALL   ?BANKED_ENTER_XDATA
        CFI DPH0 load(1, XDATA, add(CFA_XSP16, literal(-1)))
        CFI DPL0 load(1, XDATA, add(CFA_XSP16, literal(-2)))
        CFI ?BRET_EXT load(1, XDATA, add(CFA_XSP16, literal(-3)))
        CFI ?RET_HIGH load(1, XDATA, add(CFA_XSP16, literal(-4)))
        CFI ?RET_LOW load(1, XDATA, add(CFA_XSP16, literal(-5)))
        CFI R7 load(1, XDATA, add(CFA_XSP16, literal(-6)))
        CFI V1 load(1, XDATA, add(CFA_XSP16, literal(-7)))
        CFI V0 load(1, XDATA, add(CFA_XSP16, literal(-8)))
        CFI VB load(1, XDATA, add(CFA_XSP16, literal(-9)))
        CFI R6 load(1, XDATA, add(CFA_XSP16, literal(-10)))
        CFI CFA_SP SP+0
        CFI CFA_XSP16 add(XSP16, 10)
        ; Saved register size: 10
        ; Auto size: 0
        MOV     A,R2
        MOV     R4,A
        MOV     A,R3
        MOV     R5,A
//  692   void *msg_ptr = NULL;
        MOV     R2,#0x0
        MOV     R3,#0x0
//  693   halIntState_t intState;
//  694 
//  695   // Hold off interrupts
//  696   HAL_ENTER_CRITICAL_SECTION(intState);
        MOV     C,0xa8.7
        CLR     A
        RLC     A
        MOV     R6,A
        CLR     0xa8.7
//  697 
//  698   if ( *q_ptr != NULL )
        MOV     DPL,R4
        MOV     DPH,R5
        LCALL   ??Subroutine31_0 & 0xFFFF
??CrossCallReturnLabel_52:
        JZ      ??osal_msg_dequeue_0
//  699   {
//  700     // Dequeue message
//  701     msg_ptr = *q_ptr;
        MOV     A,R0
        MOV     R2,A
        MOV     A,R1
        MOV     R3,A
//  702     *q_ptr = OSAL_MSG_NEXT( msg_ptr );
        MOV     A,R2
        ADD     A,#-0x5
        MOV     R0,A
        MOV     A,R3
        ADDC    A,#-0x1
        MOV     R1,A
        MOV     DPL,R0
        MOV     DPH,R1
        LCALL   ?Subroutine12 & 0xFFFF
??CrossCallReturnLabel_18:
        MOV     DPL,R4
        MOV     DPH,R5
        MOV     A,?V0 + 0
        MOVX    @DPTR,A
        INC     DPTR
        MOV     A,?V0 + 1
        MOVX    @DPTR,A
//  703     OSAL_MSG_NEXT( msg_ptr ) = NULL;
        MOV     DPL,R0
        MOV     DPH,R1
        CLR     A
        MOVX    @DPTR,A
        INC     DPTR
        MOVX    @DPTR,A
//  704     OSAL_MSG_ID( msg_ptr ) = TASK_NO_TASK;
        LCALL   ?Subroutine23 & 0xFFFF
//  705   }
??CrossCallReturnLabel_42:
        MOV     A,#-0x1
        MOVX    @DPTR,A
//  706 
//  707   // Re-enable interrupts
//  708   HAL_EXIT_CRITICAL_SECTION(intState);
??osal_msg_dequeue_0:
        MOV     A,R6
        MOV     C,0xE0 /* A   */.0
        MOV     0xa8.7,C
        CFI EndBlock cfiBlock70
//  709 
//  710   return msg_ptr;
        REQUIRE ?Subroutine4
        REQUIRE _A_IEN0
        ; // Fall through to label ?Subroutine4
//  711 }

        RSEG BANKED_CODE:CODE:NOROOT(0)
?Subroutine4:
        CFI Block cfiBlock71 Using cfiCommon0
        CFI NoFunction
        CFI CFA_SP SP+0
        CFI CFA_XSP16 add(XSP16, 10)
        CFI VB load(1, XDATA, add(CFA_XSP16, literal(-9)))
        CFI DPL0 load(1, XDATA, add(CFA_XSP16, literal(-2)))
        CFI DPH0 load(1, XDATA, add(CFA_XSP16, literal(-1)))
        CFI R6 load(1, XDATA, add(CFA_XSP16, literal(-10)))
        CFI R7 load(1, XDATA, add(CFA_XSP16, literal(-6)))
        CFI V0 load(1, XDATA, add(CFA_XSP16, literal(-8)))
        CFI V1 load(1, XDATA, add(CFA_XSP16, literal(-7)))
        CFI ?BRET_EXT load(1, XDATA, add(CFA_XSP16, literal(-3)))
        CFI ?RET_HIGH load(1, XDATA, add(CFA_XSP16, literal(-4)))
        CFI ?RET_LOW load(1, XDATA, add(CFA_XSP16, literal(-5)))
        MOV     R7,#0x2
        LJMP    ?BANKED_LEAVE_XDATA
        CFI EndBlock cfiBlock71

        RSEG BANKED_CODE:CODE:NOROOT(0)
?Subroutine23:
        CFI Block cfiCond72 Using cfiCommon0
        CFI NoFunction
        CFI Conditional ??CrossCallReturnLabel_41
        CFI DPL0 Frame(CFA_SP, 4)
        CFI DPH0 Frame(CFA_SP, 5)
        CFI CFA_SP SP+-5
        CFI Block cfiCond73 Using cfiCommon0
        CFI (cfiCond73) NoFunction
        CFI (cfiCond73) Conditional ??CrossCallReturnLabel_42
        CFI (cfiCond73) R6 load(1, XDATA, add(CFA_XSP16, literal(-10)))
        CFI (cfiCond73) VB load(1, XDATA, add(CFA_XSP16, literal(-9)))
        CFI (cfiCond73) V0 load(1, XDATA, add(CFA_XSP16, literal(-8)))
        CFI (cfiCond73) V1 load(1, XDATA, add(CFA_XSP16, literal(-7)))
        CFI (cfiCond73) R7 load(1, XDATA, add(CFA_XSP16, literal(-6)))
        CFI (cfiCond73) ?RET_LOW load(1, XDATA, add(CFA_XSP16, literal(-5)))
        CFI (cfiCond73) ?RET_HIGH load(1, XDATA, add(CFA_XSP16, literal(-4)))
        CFI (cfiCond73) ?BRET_EXT load(1, XDATA, add(CFA_XSP16, literal(-3)))
        CFI (cfiCond73) DPL0 load(1, XDATA, add(CFA_XSP16, literal(-2)))
        CFI (cfiCond73) DPH0 load(1, XDATA, add(CFA_XSP16, literal(-1)))
        CFI (cfiCond73) CFA_SP SP+0
        CFI (cfiCond73) CFA_XSP16 add(XSP16, 10)
        CFI Block cfiPicker74 Using cfiCommon1
        CFI (cfiPicker74) NoFunction
        CFI (cfiPicker74) Picker
        LCALL   ?Subroutine28 & 0xFFFF
??CrossCallReturnLabel_48:
        RET
        CFI EndBlock cfiCond72
        CFI EndBlock cfiCond73
        CFI EndBlock cfiPicker74

        RSEG BANKED_CODE:CODE:NOROOT(0)
?Subroutine28:
        CFI Block cfiCond75 Using cfiCommon0
        CFI NoFunction
        CFI Conditional ??CrossCallReturnLabel_47, ??CrossCallReturnLabel_35
        CFI DPL0 Frame(CFA_SP, 4)
        CFI DPH0 Frame(CFA_SP, 5)
        CFI CFA_SP SP+-5
        CFI Block cfiCond76 Using cfiCommon0
        CFI (cfiCond76) NoFunction
        CFI (cfiCond76) Conditional ??CrossCallReturnLabel_47, ??CrossCallReturnLabel_36
        CFI (cfiCond76) R6 load(1, XDATA, add(CFA_XSP16, literal(-9)))
        CFI (cfiCond76) VB load(1, XDATA, add(CFA_XSP16, literal(-8)))
        CFI (cfiCond76) V0 load(1, XDATA, add(CFA_XSP16, literal(-7)))
        CFI (cfiCond76) R7 load(1, XDATA, add(CFA_XSP16, literal(-6)))
        CFI (cfiCond76) ?RET_LOW load(1, XDATA, add(CFA_XSP16, literal(-5)))
        CFI (cfiCond76) ?RET_HIGH load(1, XDATA, add(CFA_XSP16, literal(-4)))
        CFI (cfiCond76) ?BRET_EXT load(1, XDATA, add(CFA_XSP16, literal(-3)))
        CFI (cfiCond76) DPL0 load(1, XDATA, add(CFA_XSP16, literal(-2)))
        CFI (cfiCond76) DPH0 load(1, XDATA, add(CFA_XSP16, literal(-1)))
        CFI (cfiCond76) CFA_SP SP+0
        CFI (cfiCond76) CFA_XSP16 add(XSP16, 9)
        CFI Block cfiCond77 Using cfiCommon0
        CFI (cfiCond77) NoFunction
        CFI (cfiCond77) Conditional ??CrossCallReturnLabel_48, ??CrossCallReturnLabel_41
        CFI (cfiCond77) DPL0 Frame(CFA_SP, 4)
        CFI (cfiCond77) DPH0 Frame(CFA_SP, 5)
        CFI (cfiCond77) CFA_SP SP+-5
        CFI Block cfiCond78 Using cfiCommon0
        CFI (cfiCond78) NoFunction
        CFI (cfiCond78) Conditional ??CrossCallReturnLabel_48, ??CrossCallReturnLabel_42
        CFI (cfiCond78) R6 load(1, XDATA, add(CFA_XSP16, literal(-10)))
        CFI (cfiCond78) VB load(1, XDATA, add(CFA_XSP16, literal(-9)))
        CFI (cfiCond78) V0 load(1, XDATA, add(CFA_XSP16, literal(-8)))
        CFI (cfiCond78) V1 load(1, XDATA, add(CFA_XSP16, literal(-7)))
        CFI (cfiCond78) R7 load(1, XDATA, add(CFA_XSP16, literal(-6)))
        CFI (cfiCond78) ?RET_LOW load(1, XDATA, add(CFA_XSP16, literal(-5)))
        CFI (cfiCond78) ?RET_HIGH load(1, XDATA, add(CFA_XSP16, literal(-4)))
        CFI (cfiCond78) ?BRET_EXT load(1, XDATA, add(CFA_XSP16, literal(-3)))
        CFI (cfiCond78) DPL0 load(1, XDATA, add(CFA_XSP16, literal(-2)))
        CFI (cfiCond78) DPH0 load(1, XDATA, add(CFA_XSP16, literal(-1)))
        CFI (cfiCond78) CFA_SP SP+0
        CFI (cfiCond78) CFA_XSP16 add(XSP16, 10)
        CFI Block cfiPicker79 Using cfiCommon1
        CFI (cfiPicker79) NoFunction
        CFI (cfiPicker79) Picker
        MOV     A,R2
        ADD     A,#-0x1
        MOV     DPL,A
        MOV     A,R3
        ADDC    A,#-0x1
        MOV     DPH,A
        RET
        CFI EndBlock cfiCond75
        CFI EndBlock cfiCond76
        CFI EndBlock cfiCond77
        CFI EndBlock cfiCond78
        CFI EndBlock cfiPicker79

        RSEG BANKED_CODE:CODE:NOROOT(0)
?Subroutine12:
        CFI Block cfiCond80 Using cfiCommon0
        CFI NoFunction
        CFI Conditional ??CrossCallReturnLabel_17
        CFI R6 load(1, XDATA, add(CFA_XSP16, literal(-11)))
        CFI VB load(1, XDATA, add(CFA_XSP16, literal(-10)))
        CFI V0 load(1, XDATA, add(CFA_XSP16, literal(-9)))
        CFI V1 load(1, XDATA, add(CFA_XSP16, literal(-8)))
        CFI V2 load(1, XDATA, add(CFA_XSP16, literal(-7)))
        CFI R7 load(1, XDATA, add(CFA_XSP16, literal(-6)))
        CFI ?RET_LOW load(1, XDATA, add(CFA_XSP16, literal(-5)))
        CFI ?RET_HIGH load(1, XDATA, add(CFA_XSP16, literal(-4)))
        CFI ?BRET_EXT load(1, XDATA, add(CFA_XSP16, literal(-3)))
        CFI DPL0 load(1, XDATA, add(CFA_XSP16, literal(-2)))
        CFI DPH0 load(1, XDATA, add(CFA_XSP16, literal(-1)))
        CFI CFA_SP SP+0
        CFI CFA_XSP16 add(XSP16, 11)
        CFI Block cfiCond81 Using cfiCommon0
        CFI (cfiCond81) NoFunction
        CFI (cfiCond81) Conditional ??CrossCallReturnLabel_18
        CFI (cfiCond81) R6 load(1, XDATA, add(CFA_XSP16, literal(-10)))
        CFI (cfiCond81) VB load(1, XDATA, add(CFA_XSP16, literal(-9)))
        CFI (cfiCond81) V0 load(1, XDATA, add(CFA_XSP16, literal(-8)))
        CFI (cfiCond81) V1 load(1, XDATA, add(CFA_XSP16, literal(-7)))
        CFI (cfiCond81) R7 load(1, XDATA, add(CFA_XSP16, literal(-6)))
        CFI (cfiCond81) ?RET_LOW load(1, XDATA, add(CFA_XSP16, literal(-5)))
        CFI (cfiCond81) ?RET_HIGH load(1, XDATA, add(CFA_XSP16, literal(-4)))
        CFI (cfiCond81) ?BRET_EXT load(1, XDATA, add(CFA_XSP16, literal(-3)))
        CFI (cfiCond81) DPL0 load(1, XDATA, add(CFA_XSP16, literal(-2)))
        CFI (cfiCond81) DPH0 load(1, XDATA, add(CFA_XSP16, literal(-1)))
        CFI (cfiCond81) CFA_SP SP+0
        CFI (cfiCond81) CFA_XSP16 add(XSP16, 10)
        CFI Block cfiCond82 Using cfiCommon0
        CFI (cfiCond82) NoFunction
        CFI (cfiCond82) Conditional ??CrossCallReturnLabel_19
        CFI (cfiCond82) R6 load(1, XDATA, add(CFA_XSP16, literal(-11)))
        CFI (cfiCond82) VB load(1, XDATA, add(CFA_XSP16, literal(-10)))
        CFI (cfiCond82) V0 load(1, XDATA, add(CFA_XSP16, literal(-9)))
        CFI (cfiCond82) V1 load(1, XDATA, add(CFA_XSP16, literal(-8)))
        CFI (cfiCond82) V2 load(1, XDATA, add(CFA_XSP16, literal(-7)))
        CFI (cfiCond82) R7 load(1, XDATA, add(CFA_XSP16, literal(-6)))
        CFI (cfiCond82) ?RET_LOW load(1, XDATA, add(CFA_XSP16, literal(-5)))
        CFI (cfiCond82) ?RET_HIGH load(1, XDATA, add(CFA_XSP16, literal(-4)))
        CFI (cfiCond82) ?BRET_EXT load(1, XDATA, add(CFA_XSP16, literal(-3)))
        CFI (cfiCond82) DPL0 load(1, XDATA, add(CFA_XSP16, literal(-2)))
        CFI (cfiCond82) DPH0 load(1, XDATA, add(CFA_XSP16, literal(-1)))
        CFI (cfiCond82) CFA_SP SP+0
        CFI (cfiCond82) CFA_XSP16 add(XSP16, 11)
        CFI Block cfiPicker83 Using cfiCommon1
        CFI (cfiPicker83) NoFunction
        CFI (cfiPicker83) Picker
        MOVX    A,@DPTR
        MOV     ?V0 + 0,A
        INC     DPTR
        MOVX    A,@DPTR
        MOV     ?V0 + 1,A
        RET
        CFI EndBlock cfiCond80
        CFI EndBlock cfiCond81
        CFI EndBlock cfiCond82
        CFI EndBlock cfiPicker83

        RSEG BANKED_CODE:CODE:NOROOT(0)
?Subroutine6:
        CFI Block cfiCond84 Using cfiCommon0
        CFI NoFunction
        CFI Conditional ??CrossCallReturnLabel_55
        CFI R6 load(1, XDATA, add(CFA_XSP16, literal(-16)))
        CFI VB load(1, XDATA, add(CFA_XSP16, literal(-15)))
        CFI V0 load(1, XDATA, add(CFA_XSP16, literal(-14)))
        CFI V1 load(1, XDATA, add(CFA_XSP16, literal(-13)))
        CFI V2 load(1, XDATA, add(CFA_XSP16, literal(-12)))
        CFI V3 load(1, XDATA, add(CFA_XSP16, literal(-11)))
        CFI V4 load(1, XDATA, add(CFA_XSP16, literal(-10)))
        CFI V5 load(1, XDATA, add(CFA_XSP16, literal(-9)))
        CFI V6 load(1, XDATA, add(CFA_XSP16, literal(-8)))
        CFI V7 load(1, XDATA, add(CFA_XSP16, literal(-7)))
        CFI R7 load(1, XDATA, add(CFA_XSP16, literal(-6)))
        CFI ?RET_LOW load(1, XDATA, add(CFA_XSP16, literal(-5)))
        CFI ?RET_HIGH load(1, XDATA, add(CFA_XSP16, literal(-4)))
        CFI ?BRET_EXT load(1, XDATA, add(CFA_XSP16, literal(-3)))
        CFI DPL0 load(1, XDATA, add(CFA_XSP16, literal(-2)))
        CFI DPH0 load(1, XDATA, add(CFA_XSP16, literal(-1)))
        CFI CFA_SP SP+0
        CFI CFA_XSP16 add(XSP16, 55)
        CFI Block cfiCond85 Using cfiCommon0
        CFI (cfiCond85) NoFunction
        CFI (cfiCond85) Conditional ??CrossCallReturnLabel_56
        CFI (cfiCond85) R6 load(1, XDATA, add(CFA_XSP16, literal(-16)))
        CFI (cfiCond85) VB load(1, XDATA, add(CFA_XSP16, literal(-15)))
        CFI (cfiCond85) V0 load(1, XDATA, add(CFA_XSP16, literal(-14)))
        CFI (cfiCond85) V1 load(1, XDATA, add(CFA_XSP16, literal(-13)))
        CFI (cfiCond85) V2 load(1, XDATA, add(CFA_XSP16, literal(-12)))
        CFI (cfiCond85) V3 load(1, XDATA, add(CFA_XSP16, literal(-11)))
        CFI (cfiCond85) V4 load(1, XDATA, add(CFA_XSP16, literal(-10)))
        CFI (cfiCond85) V5 load(1, XDATA, add(CFA_XSP16, literal(-9)))
        CFI (cfiCond85) V6 load(1, XDATA, add(CFA_XSP16, literal(-8)))
        CFI (cfiCond85) V7 load(1, XDATA, add(CFA_XSP16, literal(-7)))
        CFI (cfiCond85) R7 load(1, XDATA, add(CFA_XSP16, literal(-6)))
        CFI (cfiCond85) ?RET_LOW load(1, XDATA, add(CFA_XSP16, literal(-5)))
        CFI (cfiCond85) ?RET_HIGH load(1, XDATA, add(CFA_XSP16, literal(-4)))
        CFI (cfiCond85) ?BRET_EXT load(1, XDATA, add(CFA_XSP16, literal(-3)))
        CFI (cfiCond85) DPL0 load(1, XDATA, add(CFA_XSP16, literal(-2)))
        CFI (cfiCond85) DPH0 load(1, XDATA, add(CFA_XSP16, literal(-1)))
        CFI (cfiCond85) CFA_SP SP+0
        CFI (cfiCond85) CFA_XSP16 add(XSP16, 55)
        CFI Block cfiCond86 Using cfiCommon0
        CFI (cfiCond86) NoFunction
        CFI (cfiCond86) Conditional ??CrossCallReturnLabel_57
        CFI (cfiCond86) R6 load(1, XDATA, add(CFA_XSP16, literal(-16)))
        CFI (cfiCond86) VB load(1, XDATA, add(CFA_XSP16, literal(-15)))
        CFI (cfiCond86) V0 load(1, XDATA, add(CFA_XSP16, literal(-14)))
        CFI (cfiCond86) V1 load(1, XDATA, add(CFA_XSP16, literal(-13)))
        CFI (cfiCond86) V2 load(1, XDATA, add(CFA_XSP16, literal(-12)))
        CFI (cfiCond86) V3 load(1, XDATA, add(CFA_XSP16, literal(-11)))
        CFI (cfiCond86) V4 load(1, XDATA, add(CFA_XSP16, literal(-10)))
        CFI (cfiCond86) V5 load(1, XDATA, add(CFA_XSP16, literal(-9)))
        CFI (cfiCond86) V6 load(1, XDATA, add(CFA_XSP16, literal(-8)))
        CFI (cfiCond86) V7 load(1, XDATA, add(CFA_XSP16, literal(-7)))
        CFI (cfiCond86) R7 load(1, XDATA, add(CFA_XSP16, literal(-6)))
        CFI (cfiCond86) ?RET_LOW load(1, XDATA, add(CFA_XSP16, literal(-5)))
        CFI (cfiCond86) ?RET_HIGH load(1, XDATA, add(CFA_XSP16, literal(-4)))
        CFI (cfiCond86) ?BRET_EXT load(1, XDATA, add(CFA_XSP16, literal(-3)))
        CFI (cfiCond86) DPL0 load(1, XDATA, add(CFA_XSP16, literal(-2)))
        CFI (cfiCond86) DPH0 load(1, XDATA, add(CFA_XSP16, literal(-1)))
        CFI (cfiCond86) CFA_SP SP+0
        CFI (cfiCond86) CFA_XSP16 add(XSP16, 55)
        CFI Block cfiPicker87 Using cfiCommon1
        CFI (cfiPicker87) NoFunction
        CFI (cfiPicker87) Picker
        MOV     DPL,?XSP + 0
        MOV     DPH,?XSP + 1
        CFI EndBlock cfiCond84
        CFI EndBlock cfiCond85
        CFI EndBlock cfiCond86
        CFI EndBlock cfiPicker87
        REQUIRE ??Subroutine31_0
        ; // Fall through to label ??Subroutine31_0

        RSEG BANKED_CODE:CODE:NOROOT(0)
??Subroutine31_0:
        CFI Block cfiCond88 Using cfiCommon0
        CFI NoFunction
        CFI Conditional ??CrossCallReturnLabel_50
        CFI R6 load(1, XDATA, add(CFA_XSP16, literal(-9)))
        CFI VB load(1, XDATA, add(CFA_XSP16, literal(-8)))
        CFI V0 load(1, XDATA, add(CFA_XSP16, literal(-7)))
        CFI R7 load(1, XDATA, add(CFA_XSP16, literal(-6)))
        CFI ?RET_LOW load(1, XDATA, add(CFA_XSP16, literal(-5)))
        CFI ?RET_HIGH load(1, XDATA, add(CFA_XSP16, literal(-4)))
        CFI ?BRET_EXT load(1, XDATA, add(CFA_XSP16, literal(-3)))
        CFI DPL0 load(1, XDATA, add(CFA_XSP16, literal(-2)))
        CFI DPH0 load(1, XDATA, add(CFA_XSP16, literal(-1)))
        CFI CFA_SP SP+0
        CFI CFA_XSP16 add(XSP16, 9)
        CFI Block cfiCond89 Using cfiCommon0
        CFI (cfiCond89) NoFunction
        CFI (cfiCond89) Conditional ??CrossCallReturnLabel_49
        CFI (cfiCond89) R6 load(1, XDATA, add(CFA_XSP16, literal(-12)))
        CFI (cfiCond89) VB load(1, XDATA, add(CFA_XSP16, literal(-11)))
        CFI (cfiCond89) V0 load(1, XDATA, add(CFA_XSP16, literal(-10)))
        CFI (cfiCond89) V1 load(1, XDATA, add(CFA_XSP16, literal(-9)))
        CFI (cfiCond89) V2 load(1, XDATA, add(CFA_XSP16, literal(-8)))
        CFI (cfiCond89) V3 load(1, XDATA, add(CFA_XSP16, literal(-7)))
        CFI (cfiCond89) R7 load(1, XDATA, add(CFA_XSP16, literal(-6)))
        CFI (cfiCond89) ?RET_LOW load(1, XDATA, add(CFA_XSP16, literal(-5)))
        CFI (cfiCond89) ?RET_HIGH load(1, XDATA, add(CFA_XSP16, literal(-4)))
        CFI (cfiCond89) ?BRET_EXT load(1, XDATA, add(CFA_XSP16, literal(-3)))
        CFI (cfiCond89) DPL0 load(1, XDATA, add(CFA_XSP16, literal(-2)))
        CFI (cfiCond89) DPH0 load(1, XDATA, add(CFA_XSP16, literal(-1)))
        CFI (cfiCond89) CFA_SP SP+0
        CFI (cfiCond89) CFA_XSP16 add(XSP16, 12)
        CFI Block cfiCond90 Using cfiCommon0
        CFI (cfiCond90) NoFunction
        CFI (cfiCond90) Conditional ??CrossCallReturnLabel_51
        CFI (cfiCond90) R6 load(1, XDATA, add(CFA_XSP16, literal(-9)))
        CFI (cfiCond90) VB load(1, XDATA, add(CFA_XSP16, literal(-8)))
        CFI (cfiCond90) V0 load(1, XDATA, add(CFA_XSP16, literal(-7)))
        CFI (cfiCond90) R7 load(1, XDATA, add(CFA_XSP16, literal(-6)))
        CFI (cfiCond90) ?RET_LOW load(1, XDATA, add(CFA_XSP16, literal(-5)))
        CFI (cfiCond90) ?RET_HIGH load(1, XDATA, add(CFA_XSP16, literal(-4)))
        CFI (cfiCond90) ?BRET_EXT load(1, XDATA, add(CFA_XSP16, literal(-3)))
        CFI (cfiCond90) DPL0 load(1, XDATA, add(CFA_XSP16, literal(-2)))
        CFI (cfiCond90) DPH0 load(1, XDATA, add(CFA_XSP16, literal(-1)))
        CFI (cfiCond90) CFA_SP SP+0
        CFI (cfiCond90) CFA_XSP16 add(XSP16, 9)
        CFI Block cfiCond91 Using cfiCommon0
        CFI (cfiCond91) NoFunction
        CFI (cfiCond91) Conditional ??CrossCallReturnLabel_52
        CFI (cfiCond91) R6 load(1, XDATA, add(CFA_XSP16, literal(-10)))
        CFI (cfiCond91) VB load(1, XDATA, add(CFA_XSP16, literal(-9)))
        CFI (cfiCond91) V0 load(1, XDATA, add(CFA_XSP16, literal(-8)))
        CFI (cfiCond91) V1 load(1, XDATA, add(CFA_XSP16, literal(-7)))
        CFI (cfiCond91) R7 load(1, XDATA, add(CFA_XSP16, literal(-6)))
        CFI (cfiCond91) ?RET_LOW load(1, XDATA, add(CFA_XSP16, literal(-5)))
        CFI (cfiCond91) ?RET_HIGH load(1, XDATA, add(CFA_XSP16, literal(-4)))
        CFI (cfiCond91) ?BRET_EXT load(1, XDATA, add(CFA_XSP16, literal(-3)))
        CFI (cfiCond91) DPL0 load(1, XDATA, add(CFA_XSP16, literal(-2)))
        CFI (cfiCond91) DPH0 load(1, XDATA, add(CFA_XSP16, literal(-1)))
        CFI (cfiCond91) CFA_SP SP+0
        CFI (cfiCond91) CFA_XSP16 add(XSP16, 10)
        CFI Block cfiCond92 Using cfiCommon0
        CFI (cfiCond92) NoFunction
        CFI (cfiCond92) Conditional ??CrossCallReturnLabel_53
        CFI (cfiCond92) R6 load(1, XDATA, add(CFA_XSP16, literal(-9)))
        CFI (cfiCond92) VB load(1, XDATA, add(CFA_XSP16, literal(-8)))
        CFI (cfiCond92) V0 load(1, XDATA, add(CFA_XSP16, literal(-7)))
        CFI (cfiCond92) R7 load(1, XDATA, add(CFA_XSP16, literal(-6)))
        CFI (cfiCond92) ?RET_LOW load(1, XDATA, add(CFA_XSP16, literal(-5)))
        CFI (cfiCond92) ?RET_HIGH load(1, XDATA, add(CFA_XSP16, literal(-4)))
        CFI (cfiCond92) ?BRET_EXT load(1, XDATA, add(CFA_XSP16, literal(-3)))
        CFI (cfiCond92) DPL0 load(1, XDATA, add(CFA_XSP16, literal(-2)))
        CFI (cfiCond92) DPH0 load(1, XDATA, add(CFA_XSP16, literal(-1)))
        CFI (cfiCond92) CFA_SP SP+0
        CFI (cfiCond92) CFA_XSP16 add(XSP16, 9)
        CFI Block cfiCond93 Using cfiCommon0
        CFI (cfiCond93) NoFunction
        CFI (cfiCond93) Conditional ??CrossCallReturnLabel_54
        CFI (cfiCond93) R6 load(1, XDATA, add(CFA_XSP16, literal(-10)))
        CFI (cfiCond93) VB load(1, XDATA, add(CFA_XSP16, literal(-9)))
        CFI (cfiCond93) V0 load(1, XDATA, add(CFA_XSP16, literal(-8)))
        CFI (cfiCond93) V1 load(1, XDATA, add(CFA_XSP16, literal(-7)))
        CFI (cfiCond93) R7 load(1, XDATA, add(CFA_XSP16, literal(-6)))
        CFI (cfiCond93) ?RET_LOW load(1, XDATA, add(CFA_XSP16, literal(-5)))
        CFI (cfiCond93) ?RET_HIGH load(1, XDATA, add(CFA_XSP16, literal(-4)))
        CFI (cfiCond93) ?BRET_EXT load(1, XDATA, add(CFA_XSP16, literal(-3)))
        CFI (cfiCond93) DPL0 load(1, XDATA, add(CFA_XSP16, literal(-2)))
        CFI (cfiCond93) DPH0 load(1, XDATA, add(CFA_XSP16, literal(-1)))
        CFI (cfiCond93) CFA_SP SP+0
        CFI (cfiCond93) CFA_XSP16 add(XSP16, 10)
        CFI Block cfiCond94 Using cfiCommon0
        CFI (cfiCond94) NoFunction
        CFI (cfiCond94) Conditional ??CrossCallReturnLabel_55
        CFI (cfiCond94) R6 load(1, XDATA, add(CFA_XSP16, literal(-16)))
        CFI (cfiCond94) VB load(1, XDATA, add(CFA_XSP16, literal(-15)))
        CFI (cfiCond94) V0 load(1, XDATA, add(CFA_XSP16, literal(-14)))
        CFI (cfiCond94) V1 load(1, XDATA, add(CFA_XSP16, literal(-13)))
        CFI (cfiCond94) V2 load(1, XDATA, add(CFA_XSP16, literal(-12)))
        CFI (cfiCond94) V3 load(1, XDATA, add(CFA_XSP16, literal(-11)))
        CFI (cfiCond94) V4 load(1, XDATA, add(CFA_XSP16, literal(-10)))
        CFI (cfiCond94) V5 load(1, XDATA, add(CFA_XSP16, literal(-9)))
        CFI (cfiCond94) V6 load(1, XDATA, add(CFA_XSP16, literal(-8)))
        CFI (cfiCond94) V7 load(1, XDATA, add(CFA_XSP16, literal(-7)))
        CFI (cfiCond94) R7 load(1, XDATA, add(CFA_XSP16, literal(-6)))
        CFI (cfiCond94) ?RET_LOW load(1, XDATA, add(CFA_XSP16, literal(-5)))
        CFI (cfiCond94) ?RET_HIGH load(1, XDATA, add(CFA_XSP16, literal(-4)))
        CFI (cfiCond94) ?BRET_EXT load(1, XDATA, add(CFA_XSP16, literal(-3)))
        CFI (cfiCond94) DPL0 load(1, XDATA, add(CFA_XSP16, literal(-2)))
        CFI (cfiCond94) DPH0 load(1, XDATA, add(CFA_XSP16, literal(-1)))
        CFI (cfiCond94) CFA_SP SP+0
        CFI (cfiCond94) CFA_XSP16 add(XSP16, 55)
        CFI Block cfiCond95 Using cfiCommon0
        CFI (cfiCond95) NoFunction
        CFI (cfiCond95) Conditional ??CrossCallReturnLabel_56
        CFI (cfiCond95) R6 load(1, XDATA, add(CFA_XSP16, literal(-16)))
        CFI (cfiCond95) VB load(1, XDATA, add(CFA_XSP16, literal(-15)))
        CFI (cfiCond95) V0 load(1, XDATA, add(CFA_XSP16, literal(-14)))
        CFI (cfiCond95) V1 load(1, XDATA, add(CFA_XSP16, literal(-13)))
        CFI (cfiCond95) V2 load(1, XDATA, add(CFA_XSP16, literal(-12)))
        CFI (cfiCond95) V3 load(1, XDATA, add(CFA_XSP16, literal(-11)))
        CFI (cfiCond95) V4 load(1, XDATA, add(CFA_XSP16, literal(-10)))
        CFI (cfiCond95) V5 load(1, XDATA, add(CFA_XSP16, literal(-9)))
        CFI (cfiCond95) V6 load(1, XDATA, add(CFA_XSP16, literal(-8)))
        CFI (cfiCond95) V7 load(1, XDATA, add(CFA_XSP16, literal(-7)))
        CFI (cfiCond95) R7 load(1, XDATA, add(CFA_XSP16, literal(-6)))
        CFI (cfiCond95) ?RET_LOW load(1, XDATA, add(CFA_XSP16, literal(-5)))
        CFI (cfiCond95) ?RET_HIGH load(1, XDATA, add(CFA_XSP16, literal(-4)))
        CFI (cfiCond95) ?BRET_EXT load(1, XDATA, add(CFA_XSP16, literal(-3)))
        CFI (cfiCond95) DPL0 load(1, XDATA, add(CFA_XSP16, literal(-2)))
        CFI (cfiCond95) DPH0 load(1, XDATA, add(CFA_XSP16, literal(-1)))
        CFI (cfiCond95) CFA_SP SP+0
        CFI (cfiCond95) CFA_XSP16 add(XSP16, 55)
        CFI Block cfiCond96 Using cfiCommon0
        CFI (cfiCond96) NoFunction
        CFI (cfiCond96) Conditional ??CrossCallReturnLabel_57
        CFI (cfiCond96) R6 load(1, XDATA, add(CFA_XSP16, literal(-16)))
        CFI (cfiCond96) VB load(1, XDATA, add(CFA_XSP16, literal(-15)))
        CFI (cfiCond96) V0 load(1, XDATA, add(CFA_XSP16, literal(-14)))
        CFI (cfiCond96) V1 load(1, XDATA, add(CFA_XSP16, literal(-13)))
        CFI (cfiCond96) V2 load(1, XDATA, add(CFA_XSP16, literal(-12)))
        CFI (cfiCond96) V3 load(1, XDATA, add(CFA_XSP16, literal(-11)))
        CFI (cfiCond96) V4 load(1, XDATA, add(CFA_XSP16, literal(-10)))
        CFI (cfiCond96) V5 load(1, XDATA, add(CFA_XSP16, literal(-9)))
        CFI (cfiCond96) V6 load(1, XDATA, add(CFA_XSP16, literal(-8)))
        CFI (cfiCond96) V7 load(1, XDATA, add(CFA_XSP16, literal(-7)))
        CFI (cfiCond96) R7 load(1, XDATA, add(CFA_XSP16, literal(-6)))
        CFI (cfiCond96) ?RET_LOW load(1, XDATA, add(CFA_XSP16, literal(-5)))
        CFI (cfiCond96) ?RET_HIGH load(1, XDATA, add(CFA_XSP16, literal(-4)))
        CFI (cfiCond96) ?BRET_EXT load(1, XDATA, add(CFA_XSP16, literal(-3)))
        CFI (cfiCond96) DPL0 load(1, XDATA, add(CFA_XSP16, literal(-2)))
        CFI (cfiCond96) DPH0 load(1, XDATA, add(CFA_XSP16, literal(-1)))
        CFI (cfiCond96) CFA_SP SP+0
        CFI (cfiCond96) CFA_XSP16 add(XSP16, 55)
        CFI Block cfiPicker97 Using cfiCommon1
        CFI (cfiPicker97) NoFunction
        CFI (cfiPicker97) Picker
        MOVX    A,@DPTR
        MOV     R0,A
        INC     DPTR
        MOVX    A,@DPTR
        MOV     R1,A
        MOV     A,R0
        ORL     A,R1
        RET
        CFI EndBlock cfiCond88
        CFI EndBlock cfiCond89
        CFI EndBlock cfiCond90
        CFI EndBlock cfiCond91
        CFI EndBlock cfiCond92
        CFI EndBlock cfiCond93
        CFI EndBlock cfiCond94
        CFI EndBlock cfiCond95
        CFI EndBlock cfiCond96
        CFI EndBlock cfiPicker97
//  712 
//  713 /*********************************************************************
//  714  * @fn      osal_msg_push
//  715  *
//  716  * @brief
//  717  *
//  718  *    This function pushes an OSAL message to the head of an OSAL
//  719  *    queue.
//  720  *
//  721  * @param   osal_msg_q_t *q_ptr - OSAL queue
//  722  * @param   void *msg_ptr  - OSAL message
//  723  *
//  724  * @return  none
//  725  */

        RSEG BANKED_CODE:CODE:NOROOT(0)
//  726 void osal_msg_push( osal_msg_q_t *q_ptr, void *msg_ptr )
osal_msg_push:
        CFI Block cfiBlock98 Using cfiCommon0
        CFI Function osal_msg_push
        CODE
//  727 {
        MOV     A,#-0x9
        LCALL   ?BANKED_ENTER_XDATA
        CFI DPH0 load(1, XDATA, add(CFA_XSP16, literal(-1)))
        CFI DPL0 load(1, XDATA, add(CFA_XSP16, literal(-2)))
        CFI ?BRET_EXT load(1, XDATA, add(CFA_XSP16, literal(-3)))
        CFI ?RET_HIGH load(1, XDATA, add(CFA_XSP16, literal(-4)))
        CFI ?RET_LOW load(1, XDATA, add(CFA_XSP16, literal(-5)))
        CFI R7 load(1, XDATA, add(CFA_XSP16, literal(-6)))
        CFI V0 load(1, XDATA, add(CFA_XSP16, literal(-7)))
        CFI VB load(1, XDATA, add(CFA_XSP16, literal(-8)))
        CFI R6 load(1, XDATA, add(CFA_XSP16, literal(-9)))
        CFI CFA_SP SP+0
        CFI CFA_XSP16 add(XSP16, 9)
        ; Saved register size: 9
        ; Auto size: 0
//  728   halIntState_t intState;
//  729 
//  730   // Hold off interrupts
//  731   HAL_ENTER_CRITICAL_SECTION(intState);
        MOV     A,0xa8
        MOV     R6,A
        CLR     0xa8.7
//  732 
//  733   // Push message to head of queue
//  734   OSAL_MSG_NEXT( msg_ptr ) = *q_ptr;
        MOV     DPL,R2
        MOV     DPH,R3
        LCALL   ?Subroutine13 & 0xFFFF
??CrossCallReturnLabel_21:
        MOV     A,R4
        ADD     A,#-0x5
        MOV     DPL,A
        MOV     A,R5
        LCALL   ??Subroutine33_0 & 0xFFFF
??CrossCallReturnLabel_61:
        MOV     A,R0
        MOVX    @DPTR,A
        INC     DPTR
        MOV     A,R1
        MOVX    @DPTR,A
//  735   *q_ptr = msg_ptr;
        MOV     DPL,R2
        MOV     DPH,R3
        MOV     A,R4
        MOVX    @DPTR,A
        INC     DPTR
        MOV     A,R5
        MOVX    @DPTR,A
//  736 
//  737   // Re-enable interrupts
//  738   HAL_EXIT_CRITICAL_SECTION(intState);
        MOV     A,R6
        MOV     C,0xE0 /* A   */.7
        LJMP    ?Subroutine2 & 0xFFFF
        CFI EndBlock cfiBlock98
        REQUIRE _A_IEN0
//  739 }

        RSEG BANKED_CODE:CODE:NOROOT(0)
?Subroutine24:
        CFI Block cfiCond99 Using cfiCommon0
        CFI NoFunction
        CFI Conditional ??CrossCallReturnLabel_64
        CFI R6 load(1, XDATA, add(CFA_XSP16, literal(-12)))
        CFI VB load(1, XDATA, add(CFA_XSP16, literal(-11)))
        CFI V0 load(1, XDATA, add(CFA_XSP16, literal(-10)))
        CFI V1 load(1, XDATA, add(CFA_XSP16, literal(-9)))
        CFI V2 load(1, XDATA, add(CFA_XSP16, literal(-8)))
        CFI V3 load(1, XDATA, add(CFA_XSP16, literal(-7)))
        CFI R7 load(1, XDATA, add(CFA_XSP16, literal(-6)))
        CFI ?RET_LOW load(1, XDATA, add(CFA_XSP16, literal(-5)))
        CFI ?RET_HIGH load(1, XDATA, add(CFA_XSP16, literal(-4)))
        CFI ?BRET_EXT load(1, XDATA, add(CFA_XSP16, literal(-3)))
        CFI DPL0 load(1, XDATA, add(CFA_XSP16, literal(-2)))
        CFI DPH0 load(1, XDATA, add(CFA_XSP16, literal(-1)))
        CFI CFA_SP SP+0
        CFI CFA_XSP16 add(XSP16, 12)
        CFI Block cfiCond100 Using cfiCommon0
        CFI (cfiCond100) NoFunction
        CFI (cfiCond100) Conditional ??CrossCallReturnLabel_65
        CFI (cfiCond100) R6 load(1, XDATA, add(CFA_XSP16, literal(-11)))
        CFI (cfiCond100) VB load(1, XDATA, add(CFA_XSP16, literal(-10)))
        CFI (cfiCond100) V0 load(1, XDATA, add(CFA_XSP16, literal(-9)))
        CFI (cfiCond100) V1 load(1, XDATA, add(CFA_XSP16, literal(-8)))
        CFI (cfiCond100) V2 load(1, XDATA, add(CFA_XSP16, literal(-7)))
        CFI (cfiCond100) R7 load(1, XDATA, add(CFA_XSP16, literal(-6)))
        CFI (cfiCond100) ?RET_LOW load(1, XDATA, add(CFA_XSP16, literal(-5)))
        CFI (cfiCond100) ?RET_HIGH load(1, XDATA, add(CFA_XSP16, literal(-4)))
        CFI (cfiCond100) ?BRET_EXT load(1, XDATA, add(CFA_XSP16, literal(-3)))
        CFI (cfiCond100) DPL0 load(1, XDATA, add(CFA_XSP16, literal(-2)))
        CFI (cfiCond100) DPH0 load(1, XDATA, add(CFA_XSP16, literal(-1)))
        CFI (cfiCond100) CFA_SP SP+0
        CFI (cfiCond100) CFA_XSP16 add(XSP16, 11)
        CFI Block cfiPicker101 Using cfiCommon1
        CFI (cfiPicker101) NoFunction
        CFI (cfiPicker101) Picker
        MOV     A,R0
        ADD     A,#-0x5
        CFI EndBlock cfiCond99
        CFI EndBlock cfiCond100
        CFI EndBlock cfiPicker101
        REQUIRE ??Subroutine32_0
        ; // Fall through to label ??Subroutine32_0

        RSEG BANKED_CODE:CODE:NOROOT(0)
??Subroutine32_0:
        CFI Block cfiCond102 Using cfiCommon0
        CFI NoFunction
        CFI Conditional ??CrossCallReturnLabel_63
        CFI R6 load(1, XDATA, add(CFA_XSP16, literal(-12)))
        CFI VB load(1, XDATA, add(CFA_XSP16, literal(-11)))
        CFI V0 load(1, XDATA, add(CFA_XSP16, literal(-10)))
        CFI V1 load(1, XDATA, add(CFA_XSP16, literal(-9)))
        CFI V2 load(1, XDATA, add(CFA_XSP16, literal(-8)))
        CFI V3 load(1, XDATA, add(CFA_XSP16, literal(-7)))
        CFI R7 load(1, XDATA, add(CFA_XSP16, literal(-6)))
        CFI ?RET_LOW load(1, XDATA, add(CFA_XSP16, literal(-5)))
        CFI ?RET_HIGH load(1, XDATA, add(CFA_XSP16, literal(-4)))
        CFI ?BRET_EXT load(1, XDATA, add(CFA_XSP16, literal(-3)))
        CFI DPL0 load(1, XDATA, add(CFA_XSP16, literal(-2)))
        CFI DPH0 load(1, XDATA, add(CFA_XSP16, literal(-1)))
        CFI CFA_SP SP+0
        CFI CFA_XSP16 add(XSP16, 12)
        CFI Block cfiCond103 Using cfiCommon0
        CFI (cfiCond103) NoFunction
        CFI (cfiCond103) Conditional ??CrossCallReturnLabel_64
        CFI (cfiCond103) R6 load(1, XDATA, add(CFA_XSP16, literal(-12)))
        CFI (cfiCond103) VB load(1, XDATA, add(CFA_XSP16, literal(-11)))
        CFI (cfiCond103) V0 load(1, XDATA, add(CFA_XSP16, literal(-10)))
        CFI (cfiCond103) V1 load(1, XDATA, add(CFA_XSP16, literal(-9)))
        CFI (cfiCond103) V2 load(1, XDATA, add(CFA_XSP16, literal(-8)))
        CFI (cfiCond103) V3 load(1, XDATA, add(CFA_XSP16, literal(-7)))
        CFI (cfiCond103) R7 load(1, XDATA, add(CFA_XSP16, literal(-6)))
        CFI (cfiCond103) ?RET_LOW load(1, XDATA, add(CFA_XSP16, literal(-5)))
        CFI (cfiCond103) ?RET_HIGH load(1, XDATA, add(CFA_XSP16, literal(-4)))
        CFI (cfiCond103) ?BRET_EXT load(1, XDATA, add(CFA_XSP16, literal(-3)))
        CFI (cfiCond103) DPL0 load(1, XDATA, add(CFA_XSP16, literal(-2)))
        CFI (cfiCond103) DPH0 load(1, XDATA, add(CFA_XSP16, literal(-1)))
        CFI (cfiCond103) CFA_SP SP+0
        CFI (cfiCond103) CFA_XSP16 add(XSP16, 12)
        CFI Block cfiCond104 Using cfiCommon0
        CFI (cfiCond104) NoFunction
        CFI (cfiCond104) Conditional ??CrossCallReturnLabel_65
        CFI (cfiCond104) R6 load(1, XDATA, add(CFA_XSP16, literal(-11)))
        CFI (cfiCond104) VB load(1, XDATA, add(CFA_XSP16, literal(-10)))
        CFI (cfiCond104) V0 load(1, XDATA, add(CFA_XSP16, literal(-9)))
        CFI (cfiCond104) V1 load(1, XDATA, add(CFA_XSP16, literal(-8)))
        CFI (cfiCond104) V2 load(1, XDATA, add(CFA_XSP16, literal(-7)))
        CFI (cfiCond104) R7 load(1, XDATA, add(CFA_XSP16, literal(-6)))
        CFI (cfiCond104) ?RET_LOW load(1, XDATA, add(CFA_XSP16, literal(-5)))
        CFI (cfiCond104) ?RET_HIGH load(1, XDATA, add(CFA_XSP16, literal(-4)))
        CFI (cfiCond104) ?BRET_EXT load(1, XDATA, add(CFA_XSP16, literal(-3)))
        CFI (cfiCond104) DPL0 load(1, XDATA, add(CFA_XSP16, literal(-2)))
        CFI (cfiCond104) DPH0 load(1, XDATA, add(CFA_XSP16, literal(-1)))
        CFI (cfiCond104) CFA_SP SP+0
        CFI (cfiCond104) CFA_XSP16 add(XSP16, 11)
        CFI Block cfiPicker105 Using cfiCommon1
        CFI (cfiPicker105) NoFunction
        CFI (cfiPicker105) Picker
        MOV     DPL,A
        MOV     A,R1
        CFI EndBlock cfiCond102
        CFI EndBlock cfiCond103
        CFI EndBlock cfiCond104
        CFI EndBlock cfiPicker105
        REQUIRE ??Subroutine33_0
        ; // Fall through to label ??Subroutine33_0

        RSEG BANKED_CODE:CODE:NOROOT(0)
??Subroutine33_0:
        CFI Block cfiCond106 Using cfiCommon0
        CFI NoFunction
        CFI Conditional ??CrossCallReturnLabel_58
        CFI R6 load(1, XDATA, add(CFA_XSP16, literal(-9)))
        CFI VB load(1, XDATA, add(CFA_XSP16, literal(-8)))
        CFI V0 load(1, XDATA, add(CFA_XSP16, literal(-7)))
        CFI R7 load(1, XDATA, add(CFA_XSP16, literal(-6)))
        CFI ?RET_LOW load(1, XDATA, add(CFA_XSP16, literal(-5)))
        CFI ?RET_HIGH load(1, XDATA, add(CFA_XSP16, literal(-4)))
        CFI ?BRET_EXT load(1, XDATA, add(CFA_XSP16, literal(-3)))
        CFI DPL0 load(1, XDATA, add(CFA_XSP16, literal(-2)))
        CFI DPH0 load(1, XDATA, add(CFA_XSP16, literal(-1)))
        CFI CFA_SP SP+0
        CFI CFA_XSP16 add(XSP16, 9)
        CFI Block cfiCond107 Using cfiCommon0
        CFI (cfiCond107) NoFunction
        CFI (cfiCond107) Conditional ??CrossCallReturnLabel_59
        CFI (cfiCond107) DPL0 Frame(CFA_SP, 4)
        CFI (cfiCond107) DPH0 Frame(CFA_SP, 5)
        CFI (cfiCond107) CFA_SP SP+-5
        CFI Block cfiCond108 Using cfiCommon0
        CFI (cfiCond108) NoFunction
        CFI (cfiCond108) Conditional ??CrossCallReturnLabel_60
        CFI (cfiCond108) R6 load(1, XDATA, add(CFA_XSP16, literal(-9)))
        CFI (cfiCond108) VB load(1, XDATA, add(CFA_XSP16, literal(-8)))
        CFI (cfiCond108) V0 load(1, XDATA, add(CFA_XSP16, literal(-7)))
        CFI (cfiCond108) R7 load(1, XDATA, add(CFA_XSP16, literal(-6)))
        CFI (cfiCond108) ?RET_LOW load(1, XDATA, add(CFA_XSP16, literal(-5)))
        CFI (cfiCond108) ?RET_HIGH load(1, XDATA, add(CFA_XSP16, literal(-4)))
        CFI (cfiCond108) ?BRET_EXT load(1, XDATA, add(CFA_XSP16, literal(-3)))
        CFI (cfiCond108) DPL0 load(1, XDATA, add(CFA_XSP16, literal(-2)))
        CFI (cfiCond108) DPH0 load(1, XDATA, add(CFA_XSP16, literal(-1)))
        CFI (cfiCond108) CFA_SP SP+0
        CFI (cfiCond108) CFA_XSP16 add(XSP16, 9)
        CFI Block cfiCond109 Using cfiCommon0
        CFI (cfiCond109) NoFunction
        CFI (cfiCond109) Conditional ??CrossCallReturnLabel_61
        CFI (cfiCond109) R6 load(1, XDATA, add(CFA_XSP16, literal(-9)))
        CFI (cfiCond109) VB load(1, XDATA, add(CFA_XSP16, literal(-8)))
        CFI (cfiCond109) V0 load(1, XDATA, add(CFA_XSP16, literal(-7)))
        CFI (cfiCond109) R7 load(1, XDATA, add(CFA_XSP16, literal(-6)))
        CFI (cfiCond109) ?RET_LOW load(1, XDATA, add(CFA_XSP16, literal(-5)))
        CFI (cfiCond109) ?RET_HIGH load(1, XDATA, add(CFA_XSP16, literal(-4)))
        CFI (cfiCond109) ?BRET_EXT load(1, XDATA, add(CFA_XSP16, literal(-3)))
        CFI (cfiCond109) DPL0 load(1, XDATA, add(CFA_XSP16, literal(-2)))
        CFI (cfiCond109) DPH0 load(1, XDATA, add(CFA_XSP16, literal(-1)))
        CFI (cfiCond109) CFA_SP SP+0
        CFI (cfiCond109) CFA_XSP16 add(XSP16, 9)
        CFI Block cfiCond110 Using cfiCommon0
        CFI (cfiCond110) NoFunction
        CFI (cfiCond110) Conditional ??CrossCallReturnLabel_62
        CFI (cfiCond110) R6 load(1, XDATA, add(CFA_XSP16, literal(-11)))
        CFI (cfiCond110) VB load(1, XDATA, add(CFA_XSP16, literal(-10)))
        CFI (cfiCond110) V0 load(1, XDATA, add(CFA_XSP16, literal(-9)))
        CFI (cfiCond110) V1 load(1, XDATA, add(CFA_XSP16, literal(-8)))
        CFI (cfiCond110) V2 load(1, XDATA, add(CFA_XSP16, literal(-7)))
        CFI (cfiCond110) R7 load(1, XDATA, add(CFA_XSP16, literal(-6)))
        CFI (cfiCond110) ?RET_LOW load(1, XDATA, add(CFA_XSP16, literal(-5)))
        CFI (cfiCond110) ?RET_HIGH load(1, XDATA, add(CFA_XSP16, literal(-4)))
        CFI (cfiCond110) ?BRET_EXT load(1, XDATA, add(CFA_XSP16, literal(-3)))
        CFI (cfiCond110) DPL0 load(1, XDATA, add(CFA_XSP16, literal(-2)))
        CFI (cfiCond110) DPH0 load(1, XDATA, add(CFA_XSP16, literal(-1)))
        CFI (cfiCond110) CFA_SP SP+0
        CFI (cfiCond110) CFA_XSP16 add(XSP16, 11)
        CFI Block cfiCond111 Using cfiCommon0
        CFI (cfiCond111) NoFunction
        CFI (cfiCond111) Conditional ??CrossCallReturnLabel_63
        CFI (cfiCond111) R6 load(1, XDATA, add(CFA_XSP16, literal(-12)))
        CFI (cfiCond111) VB load(1, XDATA, add(CFA_XSP16, literal(-11)))
        CFI (cfiCond111) V0 load(1, XDATA, add(CFA_XSP16, literal(-10)))
        CFI (cfiCond111) V1 load(1, XDATA, add(CFA_XSP16, literal(-9)))
        CFI (cfiCond111) V2 load(1, XDATA, add(CFA_XSP16, literal(-8)))
        CFI (cfiCond111) V3 load(1, XDATA, add(CFA_XSP16, literal(-7)))
        CFI (cfiCond111) R7 load(1, XDATA, add(CFA_XSP16, literal(-6)))
        CFI (cfiCond111) ?RET_LOW load(1, XDATA, add(CFA_XSP16, literal(-5)))
        CFI (cfiCond111) ?RET_HIGH load(1, XDATA, add(CFA_XSP16, literal(-4)))
        CFI (cfiCond111) ?BRET_EXT load(1, XDATA, add(CFA_XSP16, literal(-3)))
        CFI (cfiCond111) DPL0 load(1, XDATA, add(CFA_XSP16, literal(-2)))
        CFI (cfiCond111) DPH0 load(1, XDATA, add(CFA_XSP16, literal(-1)))
        CFI (cfiCond111) CFA_SP SP+0
        CFI (cfiCond111) CFA_XSP16 add(XSP16, 12)
        CFI Block cfiCond112 Using cfiCommon0
        CFI (cfiCond112) NoFunction
        CFI (cfiCond112) Conditional ??CrossCallReturnLabel_64
        CFI (cfiCond112) R6 load(1, XDATA, add(CFA_XSP16, literal(-12)))
        CFI (cfiCond112) VB load(1, XDATA, add(CFA_XSP16, literal(-11)))
        CFI (cfiCond112) V0 load(1, XDATA, add(CFA_XSP16, literal(-10)))
        CFI (cfiCond112) V1 load(1, XDATA, add(CFA_XSP16, literal(-9)))
        CFI (cfiCond112) V2 load(1, XDATA, add(CFA_XSP16, literal(-8)))
        CFI (cfiCond112) V3 load(1, XDATA, add(CFA_XSP16, literal(-7)))
        CFI (cfiCond112) R7 load(1, XDATA, add(CFA_XSP16, literal(-6)))
        CFI (cfiCond112) ?RET_LOW load(1, XDATA, add(CFA_XSP16, literal(-5)))
        CFI (cfiCond112) ?RET_HIGH load(1, XDATA, add(CFA_XSP16, literal(-4)))
        CFI (cfiCond112) ?BRET_EXT load(1, XDATA, add(CFA_XSP16, literal(-3)))
        CFI (cfiCond112) DPL0 load(1, XDATA, add(CFA_XSP16, literal(-2)))
        CFI (cfiCond112) DPH0 load(1, XDATA, add(CFA_XSP16, literal(-1)))
        CFI (cfiCond112) CFA_SP SP+0
        CFI (cfiCond112) CFA_XSP16 add(XSP16, 12)
        CFI Block cfiCond113 Using cfiCommon0
        CFI (cfiCond113) NoFunction
        CFI (cfiCond113) Conditional ??CrossCallReturnLabel_65
        CFI (cfiCond113) R6 load(1, XDATA, add(CFA_XSP16, literal(-11)))
        CFI (cfiCond113) VB load(1, XDATA, add(CFA_XSP16, literal(-10)))
        CFI (cfiCond113) V0 load(1, XDATA, add(CFA_XSP16, literal(-9)))
        CFI (cfiCond113) V1 load(1, XDATA, add(CFA_XSP16, literal(-8)))
        CFI (cfiCond113) V2 load(1, XDATA, add(CFA_XSP16, literal(-7)))
        CFI (cfiCond113) R7 load(1, XDATA, add(CFA_XSP16, literal(-6)))
        CFI (cfiCond113) ?RET_LOW load(1, XDATA, add(CFA_XSP16, literal(-5)))
        CFI (cfiCond113) ?RET_HIGH load(1, XDATA, add(CFA_XSP16, literal(-4)))
        CFI (cfiCond113) ?BRET_EXT load(1, XDATA, add(CFA_XSP16, literal(-3)))
        CFI (cfiCond113) DPL0 load(1, XDATA, add(CFA_XSP16, literal(-2)))
        CFI (cfiCond113) DPH0 load(1, XDATA, add(CFA_XSP16, literal(-1)))
        CFI (cfiCond113) CFA_SP SP+0
        CFI (cfiCond113) CFA_XSP16 add(XSP16, 11)
        CFI Block cfiPicker114 Using cfiCommon1
        CFI (cfiPicker114) NoFunction
        CFI (cfiPicker114) Picker
        ADDC    A,#-0x1
        MOV     DPH,A
        RET
        CFI EndBlock cfiCond106
        CFI EndBlock cfiCond107
        CFI EndBlock cfiCond108
        CFI EndBlock cfiCond109
        CFI EndBlock cfiCond110
        CFI EndBlock cfiCond111
        CFI EndBlock cfiCond112
        CFI EndBlock cfiCond113
        CFI EndBlock cfiPicker114
//  740 
//  741 /*********************************************************************
//  742  * @fn      osal_msg_extract
//  743  *
//  744  * @brief
//  745  *
//  746  *    This function extracts and removes an OSAL message from the
//  747  *    middle of an OSAL queue.
//  748  *
//  749  * @param   osal_msg_q_t *q_ptr - OSAL queue
//  750  * @param   void *msg_ptr  - OSAL message to be extracted
//  751  * @param   void *prev_ptr  - OSAL message before msg_ptr in queue
//  752  *
//  753  * @return  none
//  754  */

        RSEG BANKED_CODE:CODE:NOROOT(0)
//  755 void osal_msg_extract( osal_msg_q_t *q_ptr, void *msg_ptr, void *prev_ptr )
osal_msg_extract:
        CFI Block cfiBlock115 Using cfiCommon0
        CFI Function osal_msg_extract
        CODE
//  756 {
        MOV     A,#-0xb
        LCALL   ?BANKED_ENTER_XDATA
        CFI DPH0 load(1, XDATA, add(CFA_XSP16, literal(-1)))
        CFI DPL0 load(1, XDATA, add(CFA_XSP16, literal(-2)))
        CFI ?BRET_EXT load(1, XDATA, add(CFA_XSP16, literal(-3)))
        CFI ?RET_HIGH load(1, XDATA, add(CFA_XSP16, literal(-4)))
        CFI ?RET_LOW load(1, XDATA, add(CFA_XSP16, literal(-5)))
        CFI R7 load(1, XDATA, add(CFA_XSP16, literal(-6)))
        CFI V2 load(1, XDATA, add(CFA_XSP16, literal(-7)))
        CFI V1 load(1, XDATA, add(CFA_XSP16, literal(-8)))
        CFI V0 load(1, XDATA, add(CFA_XSP16, literal(-9)))
        CFI VB load(1, XDATA, add(CFA_XSP16, literal(-10)))
        CFI R6 load(1, XDATA, add(CFA_XSP16, literal(-11)))
        CFI CFA_SP SP+0
        CFI CFA_XSP16 add(XSP16, 11)
        ; Saved register size: 11
        ; Auto size: 0
        MOV     A,#0xb
        LCALL   ?XSTACK_DISP0_8
        LCALL   ?Subroutine13 & 0xFFFF
//  757   halIntState_t intState;
//  758 
//  759   // Hold off interrupts
//  760   HAL_ENTER_CRITICAL_SECTION(intState);
??CrossCallReturnLabel_22:
        MOV     C,0xa8.7
        CLR     A
        RLC     A
        MOV     ?V0 + 2,A
        CLR     0xa8.7
//  761 
//  762   if ( msg_ptr == *q_ptr )
        MOV     A,R4
        ADD     A,#-0x5
        MOV     R6,A
        MOV     A,R5
        ADDC    A,#-0x1
        MOV     R7,A
        MOV     DPL,R2
        MOV     DPH,R3
        LCALL   ?Subroutine12 & 0xFFFF
??CrossCallReturnLabel_19:
        MOV     A,R4
        XRL     A,?V0 + 0
        JNZ     ??osal_msg_extract_0
        MOV     A,R5
        XRL     A,?V0 + 1
??osal_msg_extract_0:
        MOV     DPL,R6
        MOV     DPH,R7
        JNZ     ??osal_msg_extract_1
//  763   {
//  764     // remove from first
//  765     *q_ptr = OSAL_MSG_NEXT( msg_ptr );
        LCALL   ?Subroutine13 & 0xFFFF
//  766   }
??CrossCallReturnLabel_23:
        MOV     DPL,R2
        MOV     DPH,R3
        MOV     A,R0
        MOVX    @DPTR,A
        INC     DPTR
        MOV     A,R1
        SJMP    ??osal_msg_extract_2
//  767   else
//  768   {
//  769     // remove from middle
//  770     OSAL_MSG_NEXT( prev_ptr ) = OSAL_MSG_NEXT( msg_ptr );
??osal_msg_extract_1:
        LCALL   ??Subroutine34_0 & 0xFFFF
//  771   }
??CrossCallReturnLabel_70:
        LCALL   ?Subroutine24 & 0xFFFF
??CrossCallReturnLabel_65:
        MOV     A,R2
        MOVX    @DPTR,A
        INC     DPTR
        MOV     A,R3
??osal_msg_extract_2:
        MOVX    @DPTR,A
//  772   OSAL_MSG_NEXT( msg_ptr ) = NULL;
        MOV     DPL,R6
        MOV     DPH,R7
        CLR     A
        MOVX    @DPTR,A
        INC     DPTR
        MOVX    @DPTR,A
//  773   OSAL_MSG_ID( msg_ptr ) = TASK_NO_TASK;
        MOV     A,R4
        ADD     A,#-0x1
        MOV     DPL,A
        MOV     A,R5
        LCALL   ??Subroutine33_0 & 0xFFFF
??CrossCallReturnLabel_62:
        MOV     A,#-0x1
        MOVX    @DPTR,A
//  774 
//  775   // Re-enable interrupts
//  776   HAL_EXIT_CRITICAL_SECTION(intState);
        MOV     A,?V0 + 2
        MOV     C,0xE0 /* A   */.0
        MOV     0xa8.7,C
//  777 }
        LJMP    ?Subroutine1 & 0xFFFF
        CFI EndBlock cfiBlock115
        REQUIRE _A_IEN0
//  778 
//  779 /*********************************************************************
//  780  * @fn      osal_msg_enqueue_max
//  781  *
//  782  * @brief
//  783  *
//  784  *    This function enqueues an OSAL message into an OSAL queue if
//  785  *    the length of the queue is less than max.
//  786  *
//  787  * @param   osal_msg_q_t *q_ptr - OSAL queue
//  788  * @param   void *msg_ptr  - OSAL message
//  789  * @param   uint8 max - maximum length of queue
//  790  *
//  791  * @return  TRUE if message was enqueued, FALSE otherwise
//  792  */

        RSEG BANKED_CODE:CODE:NOROOT(0)
?Subroutine17:
        CFI Block cfiCond116 Using cfiCommon0
        CFI NoFunction
        CFI Conditional ??CrossCallReturnLabel_71
        CFI R6 load(1, XDATA, add(CFA_XSP16, literal(-9)))
        CFI VB load(1, XDATA, add(CFA_XSP16, literal(-8)))
        CFI V0 load(1, XDATA, add(CFA_XSP16, literal(-7)))
        CFI R7 load(1, XDATA, add(CFA_XSP16, literal(-6)))
        CFI ?RET_LOW load(1, XDATA, add(CFA_XSP16, literal(-5)))
        CFI ?RET_HIGH load(1, XDATA, add(CFA_XSP16, literal(-4)))
        CFI ?BRET_EXT load(1, XDATA, add(CFA_XSP16, literal(-3)))
        CFI DPL0 load(1, XDATA, add(CFA_XSP16, literal(-2)))
        CFI DPH0 load(1, XDATA, add(CFA_XSP16, literal(-1)))
        CFI CFA_SP SP+0
        CFI CFA_XSP16 add(XSP16, 9)
        CFI Block cfiCond117 Using cfiCommon0
        CFI (cfiCond117) NoFunction
        CFI (cfiCond117) Conditional ??CrossCallReturnLabel_72
        CFI (cfiCond117) R6 load(1, XDATA, add(CFA_XSP16, literal(-10)))
        CFI (cfiCond117) VB load(1, XDATA, add(CFA_XSP16, literal(-9)))
        CFI (cfiCond117) V0 load(1, XDATA, add(CFA_XSP16, literal(-8)))
        CFI (cfiCond117) V1 load(1, XDATA, add(CFA_XSP16, literal(-7)))
        CFI (cfiCond117) R7 load(1, XDATA, add(CFA_XSP16, literal(-6)))
        CFI (cfiCond117) ?RET_LOW load(1, XDATA, add(CFA_XSP16, literal(-5)))
        CFI (cfiCond117) ?RET_HIGH load(1, XDATA, add(CFA_XSP16, literal(-4)))
        CFI (cfiCond117) ?BRET_EXT load(1, XDATA, add(CFA_XSP16, literal(-3)))
        CFI (cfiCond117) DPL0 load(1, XDATA, add(CFA_XSP16, literal(-2)))
        CFI (cfiCond117) DPH0 load(1, XDATA, add(CFA_XSP16, literal(-1)))
        CFI (cfiCond117) CFA_SP SP+0
        CFI (cfiCond117) CFA_XSP16 add(XSP16, 10)
        CFI Block cfiPicker118 Using cfiCommon1
        CFI (cfiPicker118) NoFunction
        CFI (cfiPicker118) Picker
        MOV     R1,A
        MOV     DPL,R0
        MOV     DPH,R1
        CFI EndBlock cfiCond116
        CFI EndBlock cfiCond117
        CFI EndBlock cfiPicker118
        REQUIRE ??Subroutine34_0
        ; // Fall through to label ??Subroutine34_0

        RSEG BANKED_CODE:CODE:NOROOT(0)
??Subroutine34_0:
        CFI Block cfiCond119 Using cfiCommon0
        CFI NoFunction
        CFI Conditional ??CrossCallReturnLabel_66
        CFI R6 load(1, XDATA, add(CFA_XSP16, literal(-16)))
        CFI VB load(1, XDATA, add(CFA_XSP16, literal(-15)))
        CFI V0 load(1, XDATA, add(CFA_XSP16, literal(-14)))
        CFI V1 load(1, XDATA, add(CFA_XSP16, literal(-13)))
        CFI V2 load(1, XDATA, add(CFA_XSP16, literal(-12)))
        CFI V3 load(1, XDATA, add(CFA_XSP16, literal(-11)))
        CFI V4 load(1, XDATA, add(CFA_XSP16, literal(-10)))
        CFI V5 load(1, XDATA, add(CFA_XSP16, literal(-9)))
        CFI V6 load(1, XDATA, add(CFA_XSP16, literal(-8)))
        CFI V7 load(1, XDATA, add(CFA_XSP16, literal(-7)))
        CFI R7 load(1, XDATA, add(CFA_XSP16, literal(-6)))
        CFI ?RET_LOW load(1, XDATA, add(CFA_XSP16, literal(-5)))
        CFI ?RET_HIGH load(1, XDATA, add(CFA_XSP16, literal(-4)))
        CFI ?BRET_EXT load(1, XDATA, add(CFA_XSP16, literal(-3)))
        CFI DPL0 load(1, XDATA, add(CFA_XSP16, literal(-2)))
        CFI DPH0 load(1, XDATA, add(CFA_XSP16, literal(-1)))
        CFI CFA_SP SP+0
        CFI CFA_XSP16 add(XSP16, 55)
        CFI Block cfiCond120 Using cfiCommon0
        CFI (cfiCond120) NoFunction
        CFI (cfiCond120) Conditional ??CrossCallReturnLabel_67
        CFI (cfiCond120) R6 load(1, XDATA, add(CFA_XSP16, literal(-16)))
        CFI (cfiCond120) VB load(1, XDATA, add(CFA_XSP16, literal(-15)))
        CFI (cfiCond120) V0 load(1, XDATA, add(CFA_XSP16, literal(-14)))
        CFI (cfiCond120) V1 load(1, XDATA, add(CFA_XSP16, literal(-13)))
        CFI (cfiCond120) V2 load(1, XDATA, add(CFA_XSP16, literal(-12)))
        CFI (cfiCond120) V3 load(1, XDATA, add(CFA_XSP16, literal(-11)))
        CFI (cfiCond120) V4 load(1, XDATA, add(CFA_XSP16, literal(-10)))
        CFI (cfiCond120) V5 load(1, XDATA, add(CFA_XSP16, literal(-9)))
        CFI (cfiCond120) V6 load(1, XDATA, add(CFA_XSP16, literal(-8)))
        CFI (cfiCond120) V7 load(1, XDATA, add(CFA_XSP16, literal(-7)))
        CFI (cfiCond120) R7 load(1, XDATA, add(CFA_XSP16, literal(-6)))
        CFI (cfiCond120) ?RET_LOW load(1, XDATA, add(CFA_XSP16, literal(-5)))
        CFI (cfiCond120) ?RET_HIGH load(1, XDATA, add(CFA_XSP16, literal(-4)))
        CFI (cfiCond120) ?BRET_EXT load(1, XDATA, add(CFA_XSP16, literal(-3)))
        CFI (cfiCond120) DPL0 load(1, XDATA, add(CFA_XSP16, literal(-2)))
        CFI (cfiCond120) DPH0 load(1, XDATA, add(CFA_XSP16, literal(-1)))
        CFI (cfiCond120) CFA_SP SP+0
        CFI (cfiCond120) CFA_XSP16 add(XSP16, 55)
        CFI Block cfiCond121 Using cfiCommon0
        CFI (cfiCond121) NoFunction
        CFI (cfiCond121) Conditional ??CrossCallReturnLabel_68
        CFI (cfiCond121) R6 load(1, XDATA, add(CFA_XSP16, literal(-16)))
        CFI (cfiCond121) VB load(1, XDATA, add(CFA_XSP16, literal(-15)))
        CFI (cfiCond121) V0 load(1, XDATA, add(CFA_XSP16, literal(-14)))
        CFI (cfiCond121) V1 load(1, XDATA, add(CFA_XSP16, literal(-13)))
        CFI (cfiCond121) V2 load(1, XDATA, add(CFA_XSP16, literal(-12)))
        CFI (cfiCond121) V3 load(1, XDATA, add(CFA_XSP16, literal(-11)))
        CFI (cfiCond121) V4 load(1, XDATA, add(CFA_XSP16, literal(-10)))
        CFI (cfiCond121) V5 load(1, XDATA, add(CFA_XSP16, literal(-9)))
        CFI (cfiCond121) V6 load(1, XDATA, add(CFA_XSP16, literal(-8)))
        CFI (cfiCond121) V7 load(1, XDATA, add(CFA_XSP16, literal(-7)))
        CFI (cfiCond121) R7 load(1, XDATA, add(CFA_XSP16, literal(-6)))
        CFI (cfiCond121) ?RET_LOW load(1, XDATA, add(CFA_XSP16, literal(-5)))
        CFI (cfiCond121) ?RET_HIGH load(1, XDATA, add(CFA_XSP16, literal(-4)))
        CFI (cfiCond121) ?BRET_EXT load(1, XDATA, add(CFA_XSP16, literal(-3)))
        CFI (cfiCond121) DPL0 load(1, XDATA, add(CFA_XSP16, literal(-2)))
        CFI (cfiCond121) DPH0 load(1, XDATA, add(CFA_XSP16, literal(-1)))
        CFI (cfiCond121) CFA_SP SP+0
        CFI (cfiCond121) CFA_XSP16 add(XSP16, 55)
        CFI Block cfiCond122 Using cfiCommon0
        CFI (cfiCond122) NoFunction
        CFI (cfiCond122) Conditional ??CrossCallReturnLabel_69
        CFI (cfiCond122) DPL0 Frame(CFA_SP, 4)
        CFI (cfiCond122) DPH0 Frame(CFA_SP, 5)
        CFI (cfiCond122) CFA_SP SP+-5
        CFI Block cfiCond123 Using cfiCommon0
        CFI (cfiCond123) NoFunction
        CFI (cfiCond123) Conditional ??CrossCallReturnLabel_70
        CFI (cfiCond123) R6 load(1, XDATA, add(CFA_XSP16, literal(-11)))
        CFI (cfiCond123) VB load(1, XDATA, add(CFA_XSP16, literal(-10)))
        CFI (cfiCond123) V0 load(1, XDATA, add(CFA_XSP16, literal(-9)))
        CFI (cfiCond123) V1 load(1, XDATA, add(CFA_XSP16, literal(-8)))
        CFI (cfiCond123) V2 load(1, XDATA, add(CFA_XSP16, literal(-7)))
        CFI (cfiCond123) R7 load(1, XDATA, add(CFA_XSP16, literal(-6)))
        CFI (cfiCond123) ?RET_LOW load(1, XDATA, add(CFA_XSP16, literal(-5)))
        CFI (cfiCond123) ?RET_HIGH load(1, XDATA, add(CFA_XSP16, literal(-4)))
        CFI (cfiCond123) ?BRET_EXT load(1, XDATA, add(CFA_XSP16, literal(-3)))
        CFI (cfiCond123) DPL0 load(1, XDATA, add(CFA_XSP16, literal(-2)))
        CFI (cfiCond123) DPH0 load(1, XDATA, add(CFA_XSP16, literal(-1)))
        CFI (cfiCond123) CFA_SP SP+0
        CFI (cfiCond123) CFA_XSP16 add(XSP16, 11)
        CFI Block cfiCond124 Using cfiCommon0
        CFI (cfiCond124) NoFunction
        CFI (cfiCond124) Conditional ??CrossCallReturnLabel_71
        CFI (cfiCond124) R6 load(1, XDATA, add(CFA_XSP16, literal(-9)))
        CFI (cfiCond124) VB load(1, XDATA, add(CFA_XSP16, literal(-8)))
        CFI (cfiCond124) V0 load(1, XDATA, add(CFA_XSP16, literal(-7)))
        CFI (cfiCond124) R7 load(1, XDATA, add(CFA_XSP16, literal(-6)))
        CFI (cfiCond124) ?RET_LOW load(1, XDATA, add(CFA_XSP16, literal(-5)))
        CFI (cfiCond124) ?RET_HIGH load(1, XDATA, add(CFA_XSP16, literal(-4)))
        CFI (cfiCond124) ?BRET_EXT load(1, XDATA, add(CFA_XSP16, literal(-3)))
        CFI (cfiCond124) DPL0 load(1, XDATA, add(CFA_XSP16, literal(-2)))
        CFI (cfiCond124) DPH0 load(1, XDATA, add(CFA_XSP16, literal(-1)))
        CFI (cfiCond124) CFA_SP SP+0
        CFI (cfiCond124) CFA_XSP16 add(XSP16, 9)
        CFI Block cfiCond125 Using cfiCommon0
        CFI (cfiCond125) NoFunction
        CFI (cfiCond125) Conditional ??CrossCallReturnLabel_72
        CFI (cfiCond125) R6 load(1, XDATA, add(CFA_XSP16, literal(-10)))
        CFI (cfiCond125) VB load(1, XDATA, add(CFA_XSP16, literal(-9)))
        CFI (cfiCond125) V0 load(1, XDATA, add(CFA_XSP16, literal(-8)))
        CFI (cfiCond125) V1 load(1, XDATA, add(CFA_XSP16, literal(-7)))
        CFI (cfiCond125) R7 load(1, XDATA, add(CFA_XSP16, literal(-6)))
        CFI (cfiCond125) ?RET_LOW load(1, XDATA, add(CFA_XSP16, literal(-5)))
        CFI (cfiCond125) ?RET_HIGH load(1, XDATA, add(CFA_XSP16, literal(-4)))
        CFI (cfiCond125) ?BRET_EXT load(1, XDATA, add(CFA_XSP16, literal(-3)))
        CFI (cfiCond125) DPL0 load(1, XDATA, add(CFA_XSP16, literal(-2)))
        CFI (cfiCond125) DPH0 load(1, XDATA, add(CFA_XSP16, literal(-1)))
        CFI (cfiCond125) CFA_SP SP+0
        CFI (cfiCond125) CFA_XSP16 add(XSP16, 10)
        CFI Block cfiPicker126 Using cfiCommon1
        CFI (cfiPicker126) NoFunction
        CFI (cfiPicker126) Picker
        LCALL   ?Subroutine27 & 0xFFFF
??CrossCallReturnLabel_76:
        RET
        CFI EndBlock cfiCond119
        CFI EndBlock cfiCond120
        CFI EndBlock cfiCond121
        CFI EndBlock cfiCond122
        CFI EndBlock cfiCond123
        CFI EndBlock cfiCond124
        CFI EndBlock cfiCond125
        CFI EndBlock cfiPicker126

        RSEG BANKED_CODE:CODE:NOROOT(0)
?Subroutine27:
        CFI Block cfiCond127 Using cfiCommon0
        CFI NoFunction
        CFI Conditional ??CrossCallReturnLabel_73, ??CrossCallReturnLabel_12
        CFI R6 load(1, XDATA, add(CFA_XSP16, literal(-9)))
        CFI VB load(1, XDATA, add(CFA_XSP16, literal(-8)))
        CFI V0 load(1, XDATA, add(CFA_XSP16, literal(-7)))
        CFI R7 load(1, XDATA, add(CFA_XSP16, literal(-6)))
        CFI ?RET_LOW load(1, XDATA, add(CFA_XSP16, literal(-5)))
        CFI ?RET_HIGH load(1, XDATA, add(CFA_XSP16, literal(-4)))
        CFI ?BRET_EXT load(1, XDATA, add(CFA_XSP16, literal(-3)))
        CFI DPL0 load(1, XDATA, add(CFA_XSP16, literal(-2)))
        CFI DPH0 load(1, XDATA, add(CFA_XSP16, literal(-1)))
        CFI CFA_SP SP+0
        CFI CFA_XSP16 add(XSP16, 9)
        CFI Block cfiCond128 Using cfiCommon0
        CFI (cfiCond128) NoFunction
        CFI (cfiCond128) Conditional ??CrossCallReturnLabel_73, ??CrossCallReturnLabel_13
        CFI (cfiCond128) R6 load(1, XDATA, add(CFA_XSP16, literal(-15)))
        CFI (cfiCond128) VB load(1, XDATA, add(CFA_XSP16, literal(-14)))
        CFI (cfiCond128) V0 load(1, XDATA, add(CFA_XSP16, literal(-13)))
        CFI (cfiCond128) V1 load(1, XDATA, add(CFA_XSP16, literal(-12)))
        CFI (cfiCond128) V2 load(1, XDATA, add(CFA_XSP16, literal(-11)))
        CFI (cfiCond128) V3 load(1, XDATA, add(CFA_XSP16, literal(-10)))
        CFI (cfiCond128) V4 load(1, XDATA, add(CFA_XSP16, literal(-9)))
        CFI (cfiCond128) V5 load(1, XDATA, add(CFA_XSP16, literal(-8)))
        CFI (cfiCond128) V6 load(1, XDATA, add(CFA_XSP16, literal(-7)))
        CFI (cfiCond128) R7 load(1, XDATA, add(CFA_XSP16, literal(-6)))
        CFI (cfiCond128) ?RET_LOW load(1, XDATA, add(CFA_XSP16, literal(-5)))
        CFI (cfiCond128) ?RET_HIGH load(1, XDATA, add(CFA_XSP16, literal(-4)))
        CFI (cfiCond128) ?BRET_EXT load(1, XDATA, add(CFA_XSP16, literal(-3)))
        CFI (cfiCond128) DPL0 load(1, XDATA, add(CFA_XSP16, literal(-2)))
        CFI (cfiCond128) DPH0 load(1, XDATA, add(CFA_XSP16, literal(-1)))
        CFI (cfiCond128) CFA_SP SP+0
        CFI (cfiCond128) CFA_XSP16 add(XSP16, 18)
        CFI Block cfiCond129 Using cfiCommon0
        CFI (cfiCond129) NoFunction
        CFI (cfiCond129) Conditional ??CrossCallReturnLabel_73, ??CrossCallReturnLabel_14
        CFI (cfiCond129) R6 load(1, XDATA, add(CFA_XSP16, literal(-15)))
        CFI (cfiCond129) VB load(1, XDATA, add(CFA_XSP16, literal(-14)))
        CFI (cfiCond129) V0 load(1, XDATA, add(CFA_XSP16, literal(-13)))
        CFI (cfiCond129) V1 load(1, XDATA, add(CFA_XSP16, literal(-12)))
        CFI (cfiCond129) V2 load(1, XDATA, add(CFA_XSP16, literal(-11)))
        CFI (cfiCond129) V3 load(1, XDATA, add(CFA_XSP16, literal(-10)))
        CFI (cfiCond129) V4 load(1, XDATA, add(CFA_XSP16, literal(-9)))
        CFI (cfiCond129) V5 load(1, XDATA, add(CFA_XSP16, literal(-8)))
        CFI (cfiCond129) V6 load(1, XDATA, add(CFA_XSP16, literal(-7)))
        CFI (cfiCond129) R7 load(1, XDATA, add(CFA_XSP16, literal(-6)))
        CFI (cfiCond129) ?RET_LOW load(1, XDATA, add(CFA_XSP16, literal(-5)))
        CFI (cfiCond129) ?RET_HIGH load(1, XDATA, add(CFA_XSP16, literal(-4)))
        CFI (cfiCond129) ?BRET_EXT load(1, XDATA, add(CFA_XSP16, literal(-3)))
        CFI (cfiCond129) DPL0 load(1, XDATA, add(CFA_XSP16, literal(-2)))
        CFI (cfiCond129) DPH0 load(1, XDATA, add(CFA_XSP16, literal(-1)))
        CFI (cfiCond129) CFA_SP SP+0
        CFI (cfiCond129) CFA_XSP16 add(XSP16, 18)
        CFI Block cfiCond130 Using cfiCommon0
        CFI (cfiCond130) NoFunction
        CFI (cfiCond130) Conditional ??CrossCallReturnLabel_75, ??CrossCallReturnLabel_29
        CFI (cfiCond130) R6 load(1, XDATA, add(CFA_XSP16, literal(-16)))
        CFI (cfiCond130) VB load(1, XDATA, add(CFA_XSP16, literal(-15)))
        CFI (cfiCond130) V0 load(1, XDATA, add(CFA_XSP16, literal(-14)))
        CFI (cfiCond130) V1 load(1, XDATA, add(CFA_XSP16, literal(-13)))
        CFI (cfiCond130) V2 load(1, XDATA, add(CFA_XSP16, literal(-12)))
        CFI (cfiCond130) V3 load(1, XDATA, add(CFA_XSP16, literal(-11)))
        CFI (cfiCond130) V4 load(1, XDATA, add(CFA_XSP16, literal(-10)))
        CFI (cfiCond130) V5 load(1, XDATA, add(CFA_XSP16, literal(-9)))
        CFI (cfiCond130) V6 load(1, XDATA, add(CFA_XSP16, literal(-8)))
        CFI (cfiCond130) V7 load(1, XDATA, add(CFA_XSP16, literal(-7)))
        CFI (cfiCond130) R7 load(1, XDATA, add(CFA_XSP16, literal(-6)))
        CFI (cfiCond130) ?RET_LOW load(1, XDATA, add(CFA_XSP16, literal(-5)))
        CFI (cfiCond130) ?RET_HIGH load(1, XDATA, add(CFA_XSP16, literal(-4)))
        CFI (cfiCond130) ?BRET_EXT load(1, XDATA, add(CFA_XSP16, literal(-3)))
        CFI (cfiCond130) DPL0 load(1, XDATA, add(CFA_XSP16, literal(-2)))
        CFI (cfiCond130) DPH0 load(1, XDATA, add(CFA_XSP16, literal(-1)))
        CFI (cfiCond130) CFA_SP SP+0
        CFI (cfiCond130) CFA_XSP16 add(XSP16, 55)
        CFI Block cfiCond131 Using cfiCommon0
        CFI (cfiCond131) NoFunction
        CFI (cfiCond131) Conditional ??CrossCallReturnLabel_75, ??CrossCallReturnLabel_30
        CFI (cfiCond131) R6 load(1, XDATA, add(CFA_XSP16, literal(-16)))
        CFI (cfiCond131) VB load(1, XDATA, add(CFA_XSP16, literal(-15)))
        CFI (cfiCond131) V0 load(1, XDATA, add(CFA_XSP16, literal(-14)))
        CFI (cfiCond131) V1 load(1, XDATA, add(CFA_XSP16, literal(-13)))
        CFI (cfiCond131) V2 load(1, XDATA, add(CFA_XSP16, literal(-12)))
        CFI (cfiCond131) V3 load(1, XDATA, add(CFA_XSP16, literal(-11)))
        CFI (cfiCond131) V4 load(1, XDATA, add(CFA_XSP16, literal(-10)))
        CFI (cfiCond131) V5 load(1, XDATA, add(CFA_XSP16, literal(-9)))
        CFI (cfiCond131) V6 load(1, XDATA, add(CFA_XSP16, literal(-8)))
        CFI (cfiCond131) V7 load(1, XDATA, add(CFA_XSP16, literal(-7)))
        CFI (cfiCond131) R7 load(1, XDATA, add(CFA_XSP16, literal(-6)))
        CFI (cfiCond131) ?RET_LOW load(1, XDATA, add(CFA_XSP16, literal(-5)))
        CFI (cfiCond131) ?RET_HIGH load(1, XDATA, add(CFA_XSP16, literal(-4)))
        CFI (cfiCond131) ?BRET_EXT load(1, XDATA, add(CFA_XSP16, literal(-3)))
        CFI (cfiCond131) DPL0 load(1, XDATA, add(CFA_XSP16, literal(-2)))
        CFI (cfiCond131) DPH0 load(1, XDATA, add(CFA_XSP16, literal(-1)))
        CFI (cfiCond131) CFA_SP SP+0
        CFI (cfiCond131) CFA_XSP16 add(XSP16, 55)
        CFI Block cfiCond132 Using cfiCommon0
        CFI (cfiCond132) NoFunction
        CFI (cfiCond132) Conditional ??CrossCallReturnLabel_74, ??CrossCallReturnLabel_25
        CFI (cfiCond132) R6 load(1, XDATA, add(CFA_XSP16, literal(-16)))
        CFI (cfiCond132) VB load(1, XDATA, add(CFA_XSP16, literal(-15)))
        CFI (cfiCond132) V0 load(1, XDATA, add(CFA_XSP16, literal(-14)))
        CFI (cfiCond132) V1 load(1, XDATA, add(CFA_XSP16, literal(-13)))
        CFI (cfiCond132) V2 load(1, XDATA, add(CFA_XSP16, literal(-12)))
        CFI (cfiCond132) V3 load(1, XDATA, add(CFA_XSP16, literal(-11)))
        CFI (cfiCond132) V4 load(1, XDATA, add(CFA_XSP16, literal(-10)))
        CFI (cfiCond132) V5 load(1, XDATA, add(CFA_XSP16, literal(-9)))
        CFI (cfiCond132) V6 load(1, XDATA, add(CFA_XSP16, literal(-8)))
        CFI (cfiCond132) V7 load(1, XDATA, add(CFA_XSP16, literal(-7)))
        CFI (cfiCond132) R7 load(1, XDATA, add(CFA_XSP16, literal(-6)))
        CFI (cfiCond132) ?RET_LOW load(1, XDATA, add(CFA_XSP16, literal(-5)))
        CFI (cfiCond132) ?RET_HIGH load(1, XDATA, add(CFA_XSP16, literal(-4)))
        CFI (cfiCond132) ?BRET_EXT load(1, XDATA, add(CFA_XSP16, literal(-3)))
        CFI (cfiCond132) DPL0 load(1, XDATA, add(CFA_XSP16, literal(-2)))
        CFI (cfiCond132) DPH0 load(1, XDATA, add(CFA_XSP16, literal(-1)))
        CFI (cfiCond132) CFA_SP SP+0
        CFI (cfiCond132) CFA_XSP16 add(XSP16, 55)
        CFI Block cfiCond133 Using cfiCommon0
        CFI (cfiCond133) NoFunction
        CFI (cfiCond133) Conditional ??CrossCallReturnLabel_74, ??CrossCallReturnLabel_26
        CFI (cfiCond133) R6 load(1, XDATA, add(CFA_XSP16, literal(-16)))
        CFI (cfiCond133) VB load(1, XDATA, add(CFA_XSP16, literal(-15)))
        CFI (cfiCond133) V0 load(1, XDATA, add(CFA_XSP16, literal(-14)))
        CFI (cfiCond133) V1 load(1, XDATA, add(CFA_XSP16, literal(-13)))
        CFI (cfiCond133) V2 load(1, XDATA, add(CFA_XSP16, literal(-12)))
        CFI (cfiCond133) V3 load(1, XDATA, add(CFA_XSP16, literal(-11)))
        CFI (cfiCond133) V4 load(1, XDATA, add(CFA_XSP16, literal(-10)))
        CFI (cfiCond133) V5 load(1, XDATA, add(CFA_XSP16, literal(-9)))
        CFI (cfiCond133) V6 load(1, XDATA, add(CFA_XSP16, literal(-8)))
        CFI (cfiCond133) V7 load(1, XDATA, add(CFA_XSP16, literal(-7)))
        CFI (cfiCond133) R7 load(1, XDATA, add(CFA_XSP16, literal(-6)))
        CFI (cfiCond133) ?RET_LOW load(1, XDATA, add(CFA_XSP16, literal(-5)))
        CFI (cfiCond133) ?RET_HIGH load(1, XDATA, add(CFA_XSP16, literal(-4)))
        CFI (cfiCond133) ?BRET_EXT load(1, XDATA, add(CFA_XSP16, literal(-3)))
        CFI (cfiCond133) DPL0 load(1, XDATA, add(CFA_XSP16, literal(-2)))
        CFI (cfiCond133) DPH0 load(1, XDATA, add(CFA_XSP16, literal(-1)))
        CFI (cfiCond133) CFA_SP SP+0
        CFI (cfiCond133) CFA_XSP16 add(XSP16, 55)
        CFI Block cfiCond134 Using cfiCommon0
        CFI (cfiCond134) NoFunction
        CFI (cfiCond134) Conditional ??CrossCallReturnLabel_76, ??CrossCallReturnLabel_71
        CFI (cfiCond134) R6 load(1, XDATA, add(CFA_XSP16, literal(-9)))
        CFI (cfiCond134) VB load(1, XDATA, add(CFA_XSP16, literal(-8)))
        CFI (cfiCond134) V0 load(1, XDATA, add(CFA_XSP16, literal(-7)))
        CFI (cfiCond134) R7 load(1, XDATA, add(CFA_XSP16, literal(-6)))
        CFI (cfiCond134) ?RET_LOW load(1, XDATA, add(CFA_XSP16, literal(-5)))
        CFI (cfiCond134) ?RET_HIGH load(1, XDATA, add(CFA_XSP16, literal(-4)))
        CFI (cfiCond134) ?BRET_EXT load(1, XDATA, add(CFA_XSP16, literal(-3)))
        CFI (cfiCond134) DPL0 load(1, XDATA, add(CFA_XSP16, literal(-2)))
        CFI (cfiCond134) DPH0 load(1, XDATA, add(CFA_XSP16, literal(-1)))
        CFI (cfiCond134) CFA_SP SP+0
        CFI (cfiCond134) CFA_XSP16 add(XSP16, 9)
        CFI Block cfiCond135 Using cfiCommon0
        CFI (cfiCond135) NoFunction
        CFI (cfiCond135) Conditional ??CrossCallReturnLabel_76, ??CrossCallReturnLabel_72
        CFI (cfiCond135) R6 load(1, XDATA, add(CFA_XSP16, literal(-10)))
        CFI (cfiCond135) VB load(1, XDATA, add(CFA_XSP16, literal(-9)))
        CFI (cfiCond135) V0 load(1, XDATA, add(CFA_XSP16, literal(-8)))
        CFI (cfiCond135) V1 load(1, XDATA, add(CFA_XSP16, literal(-7)))
        CFI (cfiCond135) R7 load(1, XDATA, add(CFA_XSP16, literal(-6)))
        CFI (cfiCond135) ?RET_LOW load(1, XDATA, add(CFA_XSP16, literal(-5)))
        CFI (cfiCond135) ?RET_HIGH load(1, XDATA, add(CFA_XSP16, literal(-4)))
        CFI (cfiCond135) ?BRET_EXT load(1, XDATA, add(CFA_XSP16, literal(-3)))
        CFI (cfiCond135) DPL0 load(1, XDATA, add(CFA_XSP16, literal(-2)))
        CFI (cfiCond135) DPH0 load(1, XDATA, add(CFA_XSP16, literal(-1)))
        CFI (cfiCond135) CFA_SP SP+0
        CFI (cfiCond135) CFA_XSP16 add(XSP16, 10)
        CFI Block cfiCond136 Using cfiCommon0
        CFI (cfiCond136) NoFunction
        CFI (cfiCond136) Conditional ??CrossCallReturnLabel_76, ??CrossCallReturnLabel_66
        CFI (cfiCond136) R6 load(1, XDATA, add(CFA_XSP16, literal(-16)))
        CFI (cfiCond136) VB load(1, XDATA, add(CFA_XSP16, literal(-15)))
        CFI (cfiCond136) V0 load(1, XDATA, add(CFA_XSP16, literal(-14)))
        CFI (cfiCond136) V1 load(1, XDATA, add(CFA_XSP16, literal(-13)))
        CFI (cfiCond136) V2 load(1, XDATA, add(CFA_XSP16, literal(-12)))
        CFI (cfiCond136) V3 load(1, XDATA, add(CFA_XSP16, literal(-11)))
        CFI (cfiCond136) V4 load(1, XDATA, add(CFA_XSP16, literal(-10)))
        CFI (cfiCond136) V5 load(1, XDATA, add(CFA_XSP16, literal(-9)))
        CFI (cfiCond136) V6 load(1, XDATA, add(CFA_XSP16, literal(-8)))
        CFI (cfiCond136) V7 load(1, XDATA, add(CFA_XSP16, literal(-7)))
        CFI (cfiCond136) R7 load(1, XDATA, add(CFA_XSP16, literal(-6)))
        CFI (cfiCond136) ?RET_LOW load(1, XDATA, add(CFA_XSP16, literal(-5)))
        CFI (cfiCond136) ?RET_HIGH load(1, XDATA, add(CFA_XSP16, literal(-4)))
        CFI (cfiCond136) ?BRET_EXT load(1, XDATA, add(CFA_XSP16, literal(-3)))
        CFI (cfiCond136) DPL0 load(1, XDATA, add(CFA_XSP16, literal(-2)))
        CFI (cfiCond136) DPH0 load(1, XDATA, add(CFA_XSP16, literal(-1)))
        CFI (cfiCond136) CFA_SP SP+0
        CFI (cfiCond136) CFA_XSP16 add(XSP16, 55)
        CFI Block cfiCond137 Using cfiCommon0
        CFI (cfiCond137) NoFunction
        CFI (cfiCond137) Conditional ??CrossCallReturnLabel_76, ??CrossCallReturnLabel_67
        CFI (cfiCond137) R6 load(1, XDATA, add(CFA_XSP16, literal(-16)))
        CFI (cfiCond137) VB load(1, XDATA, add(CFA_XSP16, literal(-15)))
        CFI (cfiCond137) V0 load(1, XDATA, add(CFA_XSP16, literal(-14)))
        CFI (cfiCond137) V1 load(1, XDATA, add(CFA_XSP16, literal(-13)))
        CFI (cfiCond137) V2 load(1, XDATA, add(CFA_XSP16, literal(-12)))
        CFI (cfiCond137) V3 load(1, XDATA, add(CFA_XSP16, literal(-11)))
        CFI (cfiCond137) V4 load(1, XDATA, add(CFA_XSP16, literal(-10)))
        CFI (cfiCond137) V5 load(1, XDATA, add(CFA_XSP16, literal(-9)))
        CFI (cfiCond137) V6 load(1, XDATA, add(CFA_XSP16, literal(-8)))
        CFI (cfiCond137) V7 load(1, XDATA, add(CFA_XSP16, literal(-7)))
        CFI (cfiCond137) R7 load(1, XDATA, add(CFA_XSP16, literal(-6)))
        CFI (cfiCond137) ?RET_LOW load(1, XDATA, add(CFA_XSP16, literal(-5)))
        CFI (cfiCond137) ?RET_HIGH load(1, XDATA, add(CFA_XSP16, literal(-4)))
        CFI (cfiCond137) ?BRET_EXT load(1, XDATA, add(CFA_XSP16, literal(-3)))
        CFI (cfiCond137) DPL0 load(1, XDATA, add(CFA_XSP16, literal(-2)))
        CFI (cfiCond137) DPH0 load(1, XDATA, add(CFA_XSP16, literal(-1)))
        CFI (cfiCond137) CFA_SP SP+0
        CFI (cfiCond137) CFA_XSP16 add(XSP16, 55)
        CFI Block cfiCond138 Using cfiCommon0
        CFI (cfiCond138) NoFunction
        CFI (cfiCond138) Conditional ??CrossCallReturnLabel_76, ??CrossCallReturnLabel_68
        CFI (cfiCond138) R6 load(1, XDATA, add(CFA_XSP16, literal(-16)))
        CFI (cfiCond138) VB load(1, XDATA, add(CFA_XSP16, literal(-15)))
        CFI (cfiCond138) V0 load(1, XDATA, add(CFA_XSP16, literal(-14)))
        CFI (cfiCond138) V1 load(1, XDATA, add(CFA_XSP16, literal(-13)))
        CFI (cfiCond138) V2 load(1, XDATA, add(CFA_XSP16, literal(-12)))
        CFI (cfiCond138) V3 load(1, XDATA, add(CFA_XSP16, literal(-11)))
        CFI (cfiCond138) V4 load(1, XDATA, add(CFA_XSP16, literal(-10)))
        CFI (cfiCond138) V5 load(1, XDATA, add(CFA_XSP16, literal(-9)))
        CFI (cfiCond138) V6 load(1, XDATA, add(CFA_XSP16, literal(-8)))
        CFI (cfiCond138) V7 load(1, XDATA, add(CFA_XSP16, literal(-7)))
        CFI (cfiCond138) R7 load(1, XDATA, add(CFA_XSP16, literal(-6)))
        CFI (cfiCond138) ?RET_LOW load(1, XDATA, add(CFA_XSP16, literal(-5)))
        CFI (cfiCond138) ?RET_HIGH load(1, XDATA, add(CFA_XSP16, literal(-4)))
        CFI (cfiCond138) ?BRET_EXT load(1, XDATA, add(CFA_XSP16, literal(-3)))
        CFI (cfiCond138) DPL0 load(1, XDATA, add(CFA_XSP16, literal(-2)))
        CFI (cfiCond138) DPH0 load(1, XDATA, add(CFA_XSP16, literal(-1)))
        CFI (cfiCond138) CFA_SP SP+0
        CFI (cfiCond138) CFA_XSP16 add(XSP16, 55)
        CFI Block cfiCond139 Using cfiCommon0
        CFI (cfiCond139) NoFunction
        CFI (cfiCond139) Conditional ??CrossCallReturnLabel_76, ??CrossCallReturnLabel_69
        CFI (cfiCond139) DPL0 Frame(CFA_SP, 4)
        CFI (cfiCond139) DPH0 Frame(CFA_SP, 5)
        CFI (cfiCond139) CFA_SP SP+-5
        CFI Block cfiCond140 Using cfiCommon0
        CFI (cfiCond140) NoFunction
        CFI (cfiCond140) Conditional ??CrossCallReturnLabel_76, ??CrossCallReturnLabel_70
        CFI (cfiCond140) R6 load(1, XDATA, add(CFA_XSP16, literal(-11)))
        CFI (cfiCond140) VB load(1, XDATA, add(CFA_XSP16, literal(-10)))
        CFI (cfiCond140) V0 load(1, XDATA, add(CFA_XSP16, literal(-9)))
        CFI (cfiCond140) V1 load(1, XDATA, add(CFA_XSP16, literal(-8)))
        CFI (cfiCond140) V2 load(1, XDATA, add(CFA_XSP16, literal(-7)))
        CFI (cfiCond140) R7 load(1, XDATA, add(CFA_XSP16, literal(-6)))
        CFI (cfiCond140) ?RET_LOW load(1, XDATA, add(CFA_XSP16, literal(-5)))
        CFI (cfiCond140) ?RET_HIGH load(1, XDATA, add(CFA_XSP16, literal(-4)))
        CFI (cfiCond140) ?BRET_EXT load(1, XDATA, add(CFA_XSP16, literal(-3)))
        CFI (cfiCond140) DPL0 load(1, XDATA, add(CFA_XSP16, literal(-2)))
        CFI (cfiCond140) DPH0 load(1, XDATA, add(CFA_XSP16, literal(-1)))
        CFI (cfiCond140) CFA_SP SP+0
        CFI (cfiCond140) CFA_XSP16 add(XSP16, 11)
        CFI Block cfiPicker141 Using cfiCommon1
        CFI (cfiPicker141) NoFunction
        CFI (cfiPicker141) Picker
        MOVX    A,@DPTR
        MOV     R2,A
        INC     DPTR
        MOVX    A,@DPTR
        MOV     R3,A
        RET
        CFI EndBlock cfiCond127
        CFI EndBlock cfiCond128
        CFI EndBlock cfiCond129
        CFI EndBlock cfiCond130
        CFI EndBlock cfiCond131
        CFI EndBlock cfiCond132
        CFI EndBlock cfiCond133
        CFI EndBlock cfiCond134
        CFI EndBlock cfiCond135
        CFI EndBlock cfiCond136
        CFI EndBlock cfiCond137
        CFI EndBlock cfiCond138
        CFI EndBlock cfiCond139
        CFI EndBlock cfiCond140
        CFI EndBlock cfiPicker141

        RSEG BANKED_CODE:CODE:NOROOT(0)
?Subroutine13:
        CFI Block cfiCond142 Using cfiCommon0
        CFI NoFunction
        CFI Conditional ??CrossCallReturnLabel_20
        CFI R6 load(1, XDATA, add(CFA_XSP16, literal(-9)))
        CFI VB load(1, XDATA, add(CFA_XSP16, literal(-8)))
        CFI V0 load(1, XDATA, add(CFA_XSP16, literal(-7)))
        CFI R7 load(1, XDATA, add(CFA_XSP16, literal(-6)))
        CFI ?RET_LOW load(1, XDATA, add(CFA_XSP16, literal(-5)))
        CFI ?RET_HIGH load(1, XDATA, add(CFA_XSP16, literal(-4)))
        CFI ?BRET_EXT load(1, XDATA, add(CFA_XSP16, literal(-3)))
        CFI DPL0 load(1, XDATA, add(CFA_XSP16, literal(-2)))
        CFI DPH0 load(1, XDATA, add(CFA_XSP16, literal(-1)))
        CFI CFA_SP SP+0
        CFI CFA_XSP16 add(XSP16, 9)
        CFI Block cfiCond143 Using cfiCommon0
        CFI (cfiCond143) NoFunction
        CFI (cfiCond143) Conditional ??CrossCallReturnLabel_21
        CFI (cfiCond143) R6 load(1, XDATA, add(CFA_XSP16, literal(-9)))
        CFI (cfiCond143) VB load(1, XDATA, add(CFA_XSP16, literal(-8)))
        CFI (cfiCond143) V0 load(1, XDATA, add(CFA_XSP16, literal(-7)))
        CFI (cfiCond143) R7 load(1, XDATA, add(CFA_XSP16, literal(-6)))
        CFI (cfiCond143) ?RET_LOW load(1, XDATA, add(CFA_XSP16, literal(-5)))
        CFI (cfiCond143) ?RET_HIGH load(1, XDATA, add(CFA_XSP16, literal(-4)))
        CFI (cfiCond143) ?BRET_EXT load(1, XDATA, add(CFA_XSP16, literal(-3)))
        CFI (cfiCond143) DPL0 load(1, XDATA, add(CFA_XSP16, literal(-2)))
        CFI (cfiCond143) DPH0 load(1, XDATA, add(CFA_XSP16, literal(-1)))
        CFI (cfiCond143) CFA_SP SP+0
        CFI (cfiCond143) CFA_XSP16 add(XSP16, 9)
        CFI Block cfiCond144 Using cfiCommon0
        CFI (cfiCond144) NoFunction
        CFI (cfiCond144) Conditional ??CrossCallReturnLabel_22
        CFI (cfiCond144) R6 load(1, XDATA, add(CFA_XSP16, literal(-11)))
        CFI (cfiCond144) VB load(1, XDATA, add(CFA_XSP16, literal(-10)))
        CFI (cfiCond144) V0 load(1, XDATA, add(CFA_XSP16, literal(-9)))
        CFI (cfiCond144) V1 load(1, XDATA, add(CFA_XSP16, literal(-8)))
        CFI (cfiCond144) V2 load(1, XDATA, add(CFA_XSP16, literal(-7)))
        CFI (cfiCond144) R7 load(1, XDATA, add(CFA_XSP16, literal(-6)))
        CFI (cfiCond144) ?RET_LOW load(1, XDATA, add(CFA_XSP16, literal(-5)))
        CFI (cfiCond144) ?RET_HIGH load(1, XDATA, add(CFA_XSP16, literal(-4)))
        CFI (cfiCond144) ?BRET_EXT load(1, XDATA, add(CFA_XSP16, literal(-3)))
        CFI (cfiCond144) DPL0 load(1, XDATA, add(CFA_XSP16, literal(-2)))
        CFI (cfiCond144) DPH0 load(1, XDATA, add(CFA_XSP16, literal(-1)))
        CFI (cfiCond144) CFA_SP SP+0
        CFI (cfiCond144) CFA_XSP16 add(XSP16, 11)
        CFI Block cfiCond145 Using cfiCommon0
        CFI (cfiCond145) NoFunction
        CFI (cfiCond145) Conditional ??CrossCallReturnLabel_23
        CFI (cfiCond145) R6 load(1, XDATA, add(CFA_XSP16, literal(-11)))
        CFI (cfiCond145) VB load(1, XDATA, add(CFA_XSP16, literal(-10)))
        CFI (cfiCond145) V0 load(1, XDATA, add(CFA_XSP16, literal(-9)))
        CFI (cfiCond145) V1 load(1, XDATA, add(CFA_XSP16, literal(-8)))
        CFI (cfiCond145) V2 load(1, XDATA, add(CFA_XSP16, literal(-7)))
        CFI (cfiCond145) R7 load(1, XDATA, add(CFA_XSP16, literal(-6)))
        CFI (cfiCond145) ?RET_LOW load(1, XDATA, add(CFA_XSP16, literal(-5)))
        CFI (cfiCond145) ?RET_HIGH load(1, XDATA, add(CFA_XSP16, literal(-4)))
        CFI (cfiCond145) ?BRET_EXT load(1, XDATA, add(CFA_XSP16, literal(-3)))
        CFI (cfiCond145) DPL0 load(1, XDATA, add(CFA_XSP16, literal(-2)))
        CFI (cfiCond145) DPH0 load(1, XDATA, add(CFA_XSP16, literal(-1)))
        CFI (cfiCond145) CFA_SP SP+0
        CFI (cfiCond145) CFA_XSP16 add(XSP16, 11)
        CFI Block cfiCond146 Using cfiCommon0
        CFI (cfiCond146) NoFunction
        CFI (cfiCond146) Conditional ??CrossCallReturnLabel_24
        CFI (cfiCond146) R6 load(1, XDATA, add(CFA_XSP16, literal(-9)))
        CFI (cfiCond146) VB load(1, XDATA, add(CFA_XSP16, literal(-8)))
        CFI (cfiCond146) V0 load(1, XDATA, add(CFA_XSP16, literal(-7)))
        CFI (cfiCond146) R7 load(1, XDATA, add(CFA_XSP16, literal(-6)))
        CFI (cfiCond146) ?RET_LOW load(1, XDATA, add(CFA_XSP16, literal(-5)))
        CFI (cfiCond146) ?RET_HIGH load(1, XDATA, add(CFA_XSP16, literal(-4)))
        CFI (cfiCond146) ?BRET_EXT load(1, XDATA, add(CFA_XSP16, literal(-3)))
        CFI (cfiCond146) DPL0 load(1, XDATA, add(CFA_XSP16, literal(-2)))
        CFI (cfiCond146) DPH0 load(1, XDATA, add(CFA_XSP16, literal(-1)))
        CFI (cfiCond146) CFA_SP SP+0
        CFI (cfiCond146) CFA_XSP16 add(XSP16, 9)
        CFI Block cfiPicker147 Using cfiCommon1
        CFI (cfiPicker147) NoFunction
        CFI (cfiPicker147) Picker
        MOVX    A,@DPTR
        MOV     R0,A
        INC     DPTR
        MOVX    A,@DPTR
        MOV     R1,A
        RET
        CFI EndBlock cfiCond142
        CFI EndBlock cfiCond143
        CFI EndBlock cfiCond144
        CFI EndBlock cfiCond145
        CFI EndBlock cfiCond146
        CFI EndBlock cfiPicker147

        RSEG BANKED_CODE:CODE:NOROOT(0)
//  793 uint8 osal_msg_enqueue_max( osal_msg_q_t *q_ptr, void *msg_ptr, uint8 max )
osal_msg_enqueue_max:
        CFI Block cfiBlock148 Using cfiCommon0
        CFI Function osal_msg_enqueue_max
        CODE
//  794 {
        MOV     A,#-0x9
        LCALL   ?BANKED_ENTER_XDATA
        CFI DPH0 load(1, XDATA, add(CFA_XSP16, literal(-1)))
        CFI DPL0 load(1, XDATA, add(CFA_XSP16, literal(-2)))
        CFI ?BRET_EXT load(1, XDATA, add(CFA_XSP16, literal(-3)))
        CFI ?RET_HIGH load(1, XDATA, add(CFA_XSP16, literal(-4)))
        CFI ?RET_LOW load(1, XDATA, add(CFA_XSP16, literal(-5)))
        CFI R7 load(1, XDATA, add(CFA_XSP16, literal(-6)))
        CFI V0 load(1, XDATA, add(CFA_XSP16, literal(-7)))
        CFI VB load(1, XDATA, add(CFA_XSP16, literal(-8)))
        CFI R6 load(1, XDATA, add(CFA_XSP16, literal(-9)))
        CFI CFA_SP SP+0
        CFI CFA_XSP16 add(XSP16, 9)
        ; Saved register size: 9
        ; Auto size: 0
        MOV     A,R1
        MOV     R6,A
//  795   void *list;
//  796   uint8 ret = FALSE;
        MOV     ?V0 + 0,#0x0
//  797   halIntState_t intState;
//  798 
//  799   // Hold off interrupts
//  800   HAL_ENTER_CRITICAL_SECTION(intState);
        MOV     C,0xa8.7
        CLR     A
        RLC     A
        MOV     R7,A
        CLR     0xa8.7
//  801 
//  802   // If first message in queue
//  803   if ( *q_ptr == NULL )
        MOV     DPL,R2
        MOV     DPH,R3
        LCALL   ??Subroutine31_0 & 0xFFFF
??CrossCallReturnLabel_53:
        JNZ     ??CrossCallReturnLabel_24
//  804   {
//  805     *q_ptr = msg_ptr;
        MOV     DPL,R2
        MOV     DPH,R3
        SJMP    ??osal_msg_enqueue_max_0
//  806     ret = TRUE;
//  807   }
//  808   else
//  809   {
//  810     // Find end of queue or max
//  811     list = *q_ptr;
//  812     max--;
//  813     while ( (OSAL_MSG_NEXT( list ) != NULL) && (max > 0) )
??osal_msg_enqueue_max_1:
        MOV     A,R6
        JZ      ??osal_msg_enqueue_max_2
//  814     {
//  815       list = OSAL_MSG_NEXT( list );
        MOV     DPL,R0
        MOV     DPH,R1
        LCALL   ?Subroutine13 & 0xFFFF
//  816       max--;
??CrossCallReturnLabel_24:
        DEC     R6
//  817     }
        MOV     A,R0
        ADD     A,#-0x5
        MOV     R0,A
        MOV     A,R1
        ADDC    A,#-0x1
        LCALL   ?Subroutine17 & 0xFFFF
??CrossCallReturnLabel_71:
        MOV     A,R2
        ORL     A,R3
        JNZ     ??osal_msg_enqueue_max_1
//  818 
//  819     // Add message to end of queue if max not reached
//  820     if ( max != 0 )
        MOV     A,R6
        JZ      ??osal_msg_enqueue_max_2
//  821     {
//  822       OSAL_MSG_NEXT( list ) = msg_ptr;
        MOV     DPL,R0
        MOV     DPH,R1
??osal_msg_enqueue_max_0:
        MOV     A,R4
        MOVX    @DPTR,A
        INC     DPTR
        MOV     A,R5
        MOVX    @DPTR,A
//  823       ret = TRUE;
        MOV     ?V0 + 0,#0x1
//  824     }
//  825   }
//  826 
//  827   // Re-enable interrupts
//  828   HAL_EXIT_CRITICAL_SECTION(intState);
??osal_msg_enqueue_max_2:
        MOV     A,R7
        MOV     C,0xE0 /* A   */.0
        MOV     0xa8.7,C
//  829 
//  830   return ret;
        MOV     R1,?V0 + 0
        LJMP    ??Subroutine30_0 & 0xFFFF
        CFI EndBlock cfiBlock148
        REQUIRE _A_IEN0
//  831 }
//  832 
//  833 /*********************************************************************
//  834  * @fn      osal_set_event
//  835  *
//  836  * @brief
//  837  *
//  838  *    This function is called to set the event flags for a task. The
//  839  *    event passed in is OR'd into the task's event variable.
//  840  *
//  841  * @param   uint8 task_id - receiving tasks ID
//  842  * @param   uint8 event_flag - what event to set
//  843  *
//  844  * @return  SUCCESS, INVALID_TASK
//  845  */

        RSEG BANKED_CODE:CODE:NOROOT(0)
//  846 uint8 osal_set_event( uint8 task_id, uint16 event_flag )
osal_set_event:
        CFI Block cfiBlock149 Using cfiCommon0
        CFI Function osal_set_event
        CODE
//  847 {
        MOV     A,#-0x9
        LCALL   ?BANKED_ENTER_XDATA
        CFI DPH0 load(1, XDATA, add(CFA_XSP16, literal(-1)))
        CFI DPL0 load(1, XDATA, add(CFA_XSP16, literal(-2)))
        CFI ?BRET_EXT load(1, XDATA, add(CFA_XSP16, literal(-3)))
        CFI ?RET_HIGH load(1, XDATA, add(CFA_XSP16, literal(-4)))
        CFI ?RET_LOW load(1, XDATA, add(CFA_XSP16, literal(-5)))
        CFI R7 load(1, XDATA, add(CFA_XSP16, literal(-6)))
        CFI V0 load(1, XDATA, add(CFA_XSP16, literal(-7)))
        CFI VB load(1, XDATA, add(CFA_XSP16, literal(-8)))
        CFI R6 load(1, XDATA, add(CFA_XSP16, literal(-9)))
        CFI CFA_SP SP+0
        CFI CFA_XSP16 add(XSP16, 9)
        ; Saved register size: 9
        ; Auto size: 0
        MOV     A,R1
        MOV     R5,A
//  848   if ( task_id < tasksCnt )
        MOV     DPTR,#tasksCnt
        MOVX    A,@DPTR
        MOV     R0,A
        MOV     A,R5
        CLR     C
        SUBB    A,R0
        JNC     ??osal_set_event_0
//  849   {
//  850     halIntState_t   intState;
//  851     HAL_ENTER_CRITICAL_SECTION(intState);    // Hold off interrupts
        MOV     A,0xa8
        MOV     R6,A
        CLR     0xa8.7
//  852     tasksEvents[task_id] |= event_flag;  // Stuff the event bit(s)
        MOV     A,R5
        CLR     C
        RLC     A
        MOV     R0,A
        CLR     A
        RLC     A
        MOV     R1,A
        MOV     DPTR,#tasksEvents
        MOVX    A,@DPTR
        ADD     A,R0
        MOV     R4,A
        INC     DPTR
        MOVX    A,@DPTR
        ADDC    A,R1
        MOV     DPL,R4
        MOV     DPH,A
        MOVX    A,@DPTR
        ORL     A,R2
        MOVX    @DPTR,A
        INC     DPTR
        MOVX    A,@DPTR
        ORL     A,R3
        MOVX    @DPTR,A
//  853     HAL_EXIT_CRITICAL_SECTION(intState);     // Release interrupts
        MOV     A,R6
        MOV     C,0xE0 /* A   */.7
        MOV     0xa8.7,C
//  854     return ( SUCCESS );
        MOV     R1,#0x0
        SJMP    ??osal_set_event_1
//  855   }
//  856    else
//  857   {
//  858     return ( INVALID_TASK );
??osal_set_event_0:
        MOV     R1,#0x3
//  859   }
??osal_set_event_1:
        LJMP    ??Subroutine30_0 & 0xFFFF
        CFI EndBlock cfiBlock149
        REQUIRE _A_IEN0
//  860 }
//  861 
//  862 /*********************************************************************
//  863  * @fn      osal_clear_event
//  864  *
//  865  * @brief
//  866  *
//  867  *    This function is called to clear the event flags for a task. The
//  868  *    event passed in is masked out of the task's event variable.
//  869  *
//  870  * @param   uint8 task_id - receiving tasks ID
//  871  * @param   uint8 event_flag - what event to clear
//  872  *
//  873  * @return  SUCCESS, INVALID_TASK
//  874  */

        RSEG BANKED_CODE:CODE:NOROOT(0)
//  875 uint8 osal_clear_event( uint8 task_id, uint16 event_flag )
osal_clear_event:
        CFI Block cfiBlock150 Using cfiCommon0
        CFI Function osal_clear_event
        CODE
//  876 {
        MOV     A,#-0x9
        LCALL   ?BANKED_ENTER_XDATA
        CFI DPH0 load(1, XDATA, add(CFA_XSP16, literal(-1)))
        CFI DPL0 load(1, XDATA, add(CFA_XSP16, literal(-2)))
        CFI ?BRET_EXT load(1, XDATA, add(CFA_XSP16, literal(-3)))
        CFI ?RET_HIGH load(1, XDATA, add(CFA_XSP16, literal(-4)))
        CFI ?RET_LOW load(1, XDATA, add(CFA_XSP16, literal(-5)))
        CFI R7 load(1, XDATA, add(CFA_XSP16, literal(-6)))
        CFI V0 load(1, XDATA, add(CFA_XSP16, literal(-7)))
        CFI VB load(1, XDATA, add(CFA_XSP16, literal(-8)))
        CFI R6 load(1, XDATA, add(CFA_XSP16, literal(-9)))
        CFI CFA_SP SP+0
        CFI CFA_XSP16 add(XSP16, 9)
        ; Saved register size: 9
        ; Auto size: 0
        MOV     A,R1
        MOV     R6,A
//  877   if ( task_id < tasksCnt )
        MOV     DPTR,#tasksCnt
        MOVX    A,@DPTR
        MOV     R0,A
        MOV     A,R6
        CLR     C
        SUBB    A,R0
        JNC     ??osal_clear_event_0
//  878   {
//  879     halIntState_t   intState;
//  880     HAL_ENTER_CRITICAL_SECTION(intState);    // Hold off interrupts
        MOV     A,0xa8
        MOV     R7,A
        CLR     0xa8.7
//  881     tasksEvents[task_id] &= ~(event_flag);   // Clear the event bit(s)
        MOV     A,R2
        CPL     A
        MOV     R4,A
        MOV     A,R3
        CPL     A
        MOV     R5,A
        MOV     A,R6
        LCALL   ?Subroutine15 & 0xFFFF
??CrossCallReturnLabel_27:
        MOVX    A,@DPTR
        ANL     A,R4
        MOVX    @DPTR,A
        INC     DPTR
        MOVX    A,@DPTR
        ANL     A,R5
        MOVX    @DPTR,A
//  882     HAL_EXIT_CRITICAL_SECTION(intState);     // Release interrupts
        MOV     A,R7
        MOV     C,0xE0 /* A   */.7
        MOV     0xa8.7,C
//  883     return ( SUCCESS );
        MOV     R1,#0x0
        SJMP    ??osal_clear_event_1
//  884   }
//  885    else
//  886   {
//  887     return ( INVALID_TASK );
??osal_clear_event_0:
        MOV     R1,#0x3
//  888   }
??osal_clear_event_1:
        LJMP    ??Subroutine30_0 & 0xFFFF
        CFI EndBlock cfiBlock150
        REQUIRE _A_IEN0
//  889 }
//  890 
//  891 /*********************************************************************
//  892  * @fn      osal_isr_register
//  893  *
//  894  * @brief
//  895  *
//  896  *   This function is called to register a service routine with an
//  897  *   interrupt. When the interrupt occurs, this service routine is called.
//  898  *
//  899  * @param   uint8 interrupt_id - Interrupt number
//  900  * @param   void (*isr_ptr)( uint8* ) - function pointer to ISR
//  901  *
//  902  * @return  SUCCESS, INVALID_INTERRUPT_ID,
//  903  */

        RSEG BANKED_CODE:CODE:NOROOT(0)
//  904 uint8 osal_isr_register( uint8 interrupt_id, void (*isr_ptr)( uint8* ) )
osal_isr_register:
        CFI Block cfiBlock151 Using cfiCommon0
        CFI Function osal_isr_register
        CODE
//  905 {
        ; Saved register size: 0
        ; Auto size: 0
//  906   // Remove these statements when functionality is complete
//  907   (void)interrupt_id;
//  908   (void)isr_ptr;
//  909   return ( SUCCESS );
        MOV     R1,#0x0
        LJMP    ?BRET
        CFI EndBlock cfiBlock151
//  910 }
//  911 
//  912 /*********************************************************************
//  913  * @fn      osal_int_enable
//  914  *
//  915  * @brief
//  916  *
//  917  *   This function is called to enable an interrupt. Once enabled,
//  918  *   occurrence of the interrupt causes the service routine associated
//  919  *   with that interrupt to be called.
//  920  *
//  921  *   If INTS_ALL is the interrupt_id, interrupts (in general) are enabled.
//  922  *   If a single interrupt is passed in, then interrupts still have
//  923  *   to be enabled with another call to INTS_ALL.
//  924  *
//  925  * @param   uint8 interrupt_id - Interrupt number
//  926  *
//  927  * @return  SUCCESS or INVALID_INTERRUPT_ID
//  928  */

        RSEG BANKED_CODE:CODE:NOROOT(0)
//  929 uint8 osal_int_enable( uint8 interrupt_id )
osal_int_enable:
        CFI Block cfiBlock152 Using cfiCommon0
        CFI Function osal_int_enable
        CODE
//  930 {
        ; Saved register size: 0
        ; Auto size: 0
        MOV     A,R1
        MOV     R0,A
//  931 
//  932   if ( interrupt_id == INTS_ALL )
        MOV     A,#-0x1
        XRL     A,R0
        JNZ     ??osal_int_enable_0
//  933   {
//  934     HAL_ENABLE_INTERRUPTS();
        SETB    0xa8.7
//  935     return ( SUCCESS );
        MOV     R1,#0x0
        SJMP    ??osal_int_enable_1
//  936   }
//  937   else
//  938   {
//  939     return ( INVALID_INTERRUPT_ID );
??osal_int_enable_0:
        MOV     R1,#0x7
??osal_int_enable_1:
        LJMP    ?BRET
        CFI EndBlock cfiBlock152
        REQUIRE _A_IEN0
//  940   }
//  941 }
//  942 
//  943 /*********************************************************************
//  944  * @fn      osal_int_disable
//  945  *
//  946  * @brief
//  947  *
//  948  *   This function is called to disable an interrupt. When a disabled
//  949  *   interrupt occurs, the service routine associated with that
//  950  *   interrupt is not called.
//  951  *
//  952  *   If INTS_ALL is the interrupt_id, interrupts (in general) are disabled.
//  953  *   If a single interrupt is passed in, then just that interrupt is disabled.
//  954  *
//  955  * @param   uint8 interrupt_id - Interrupt number
//  956  *
//  957  * @return  SUCCESS or INVALID_INTERRUPT_ID
//  958  */

        RSEG BANKED_CODE:CODE:NOROOT(0)
//  959 uint8 osal_int_disable( uint8 interrupt_id )
osal_int_disable:
        CFI Block cfiBlock153 Using cfiCommon0
        CFI Function osal_int_disable
        CODE
//  960 {
        ; Saved register size: 0
        ; Auto size: 0
        MOV     A,R1
        MOV     R0,A
//  961 
//  962   if ( interrupt_id == INTS_ALL )
        MOV     A,#-0x1
        XRL     A,R0
        JNZ     ??osal_int_disable_0
//  963   {
//  964     HAL_DISABLE_INTERRUPTS();
        CLR     0xa8.7
//  965     return ( SUCCESS );
        MOV     R1,#0x0
        SJMP    ??osal_int_disable_1
//  966   }
//  967   else
//  968   {
//  969     return ( INVALID_INTERRUPT_ID );
??osal_int_disable_0:
        MOV     R1,#0x7
??osal_int_disable_1:
        LJMP    ?BRET
        CFI EndBlock cfiBlock153
        REQUIRE _A_IEN0
//  970   }
//  971 }
//  972 
//  973 /*********************************************************************
//  974  * @fn      osal_init_system
//  975  *
//  976  * @brief
//  977  *
//  978  *   This function initializes the "task" system by creating the
//  979  *   tasks defined in the task table (OSAL_Tasks.h).
//  980  *
//  981  * @param   void
//  982  *
//  983  * @return  SUCCESS
//  984  */

        RSEG BANKED_CODE:CODE:NOROOT(0)
//  985 uint8 osal_init_system( void )
osal_init_system:
        CFI Block cfiBlock154 Using cfiCommon0
        CFI Function osal_init_system
        CODE
//  986 {
        FUNCALL osal_init_system, osal_mem_init
        LOCFRAME ISTACK, 2, STACK
        LOCFRAME PSTACK, 0, STACK
        LOCFRAME XSTACK, 0, STACK
        LOCFRAME IOVERLAY, 0, STATIC
        LOCFRAME DOVERLAY, 0, STATIC
        ARGFRAME ISTACK, 2, STACK
        ARGFRAME PSTACK, 0, STACK
        ARGFRAME XSTACK, 0, STACK
        ARGFRAME IOVERLAY, 0, STATIC
        ARGFRAME DOVERLAY, 0, STATIC
        FUNCALL osal_init_system, osalTimerInit
        LOCFRAME ISTACK, 2, STACK
        LOCFRAME PSTACK, 0, STACK
        LOCFRAME XSTACK, 0, STACK
        LOCFRAME IOVERLAY, 0, STATIC
        LOCFRAME DOVERLAY, 0, STATIC
        ARGFRAME ISTACK, 2, STACK
        ARGFRAME PSTACK, 0, STACK
        ARGFRAME XSTACK, 0, STACK
        ARGFRAME IOVERLAY, 0, STATIC
        ARGFRAME DOVERLAY, 0, STATIC
        FUNCALL osal_init_system, osal_pwrmgr_init
        LOCFRAME ISTACK, 2, STACK
        LOCFRAME PSTACK, 0, STACK
        LOCFRAME XSTACK, 0, STACK
        LOCFRAME IOVERLAY, 0, STATIC
        LOCFRAME DOVERLAY, 0, STATIC
        ARGFRAME ISTACK, 2, STACK
        ARGFRAME PSTACK, 0, STACK
        ARGFRAME XSTACK, 0, STACK
        ARGFRAME IOVERLAY, 0, STATIC
        ARGFRAME DOVERLAY, 0, STATIC
        FUNCALL osal_init_system, osalInitTasks
        LOCFRAME ISTACK, 2, STACK
        LOCFRAME PSTACK, 0, STACK
        LOCFRAME XSTACK, 0, STACK
        LOCFRAME IOVERLAY, 0, STATIC
        LOCFRAME DOVERLAY, 0, STATIC
        ARGFRAME ISTACK, 2, STACK
        ARGFRAME PSTACK, 0, STACK
        ARGFRAME XSTACK, 0, STACK
        ARGFRAME IOVERLAY, 0, STATIC
        ARGFRAME DOVERLAY, 0, STATIC
        FUNCALL osal_init_system, osal_mem_kick
        LOCFRAME ISTACK, 2, STACK
        LOCFRAME PSTACK, 0, STACK
        LOCFRAME XSTACK, 0, STACK
        LOCFRAME IOVERLAY, 0, STATIC
        LOCFRAME DOVERLAY, 0, STATIC
        ARGFRAME ISTACK, 2, STACK
        ARGFRAME PSTACK, 0, STACK
        ARGFRAME XSTACK, 0, STACK
        ARGFRAME IOVERLAY, 0, STATIC
        ARGFRAME DOVERLAY, 0, STATIC
        PUSH    DPL
        CFI DPL0 Frame(CFA_SP, 4)
        CFI CFA_SP SP+-4
        PUSH    DPH
        CFI DPH0 Frame(CFA_SP, 5)
        CFI CFA_SP SP+-5
        ; Saved register size: 2
        ; Auto size: 0
//  987   // Initialize the Memory Allocation System
//  988   osal_mem_init();
        ; Setup parameters for call to function osal_mem_init
        LCALL   ??osal_mem_init?relay
//  989 
//  990   // Initialize the message queue
//  991   osal_qHead = NULL;
        MOV     DPTR,#osal_qHead
        CLR     A
        MOVX    @DPTR,A
        INC     DPTR
        MOVX    @DPTR,A
//  992 
//  993   // Initialize the timers
//  994   osalTimerInit();
        ; Setup parameters for call to function osalTimerInit
        LCALL   ??osalTimerInit?relay
//  995 
//  996   // Initialize the Power Management System
//  997   osal_pwrmgr_init();
        ; Setup parameters for call to function osal_pwrmgr_init
        LCALL   ??osal_pwrmgr_init?relay
//  998 
//  999   // Initialize the system tasks.
// 1000   osalInitTasks();
        ; Setup parameters for call to function osalInitTasks
        LCALL   ??osalInitTasks?relay
// 1001 
// 1002   // Setup efficient search for the first free block of heap.
// 1003   osal_mem_kick();
        ; Setup parameters for call to function osal_mem_kick
        LCALL   ??osal_mem_kick?relay
// 1004 
// 1005   return ( SUCCESS );
        MOV     R1,#0x0
        LJMP    ?Subroutine0 & 0xFFFF
        CFI EndBlock cfiBlock154
// 1006 }
// 1007 
// 1008 /*********************************************************************
// 1009  * @fn      osal_start_system
// 1010  *
// 1011  * @brief
// 1012  *
// 1013  *   This function is the main loop function of the task system (if
// 1014  *   ZBIT and UBIT are not defined). This Function doesn't return.
// 1015  *
// 1016  * @param   void
// 1017  *
// 1018  * @return  none
// 1019  */

        RSEG BANKED_CODE:CODE:NOROOT(0)
// 1020 void osal_start_system( void )
osal_start_system:
        CFI Block cfiBlock155 Using cfiCommon0
        CFI Function osal_start_system
        CODE
// 1021 {
        FUNCALL osal_start_system, osal_run_system
        LOCFRAME ISTACK, 2, STACK
        LOCFRAME PSTACK, 0, STACK
        LOCFRAME XSTACK, 0, STACK
        LOCFRAME IOVERLAY, 0, STATIC
        LOCFRAME DOVERLAY, 0, STATIC
        ARGFRAME ISTACK, 2, STACK
        ARGFRAME PSTACK, 0, STACK
        ARGFRAME XSTACK, 0, STACK
        ARGFRAME IOVERLAY, 0, STATIC
        ARGFRAME DOVERLAY, 0, STATIC
        PUSH    DPL
        CFI DPL0 Frame(CFA_SP, 4)
        CFI CFA_SP SP+-4
        PUSH    DPH
        CFI DPH0 Frame(CFA_SP, 5)
        CFI CFA_SP SP+-5
        ; Saved register size: 2
        ; Auto size: 0
// 1022 #if !defined ( ZBIT ) && !defined ( UBIT )
// 1023   for(;;)  // Forever Loop
// 1024 #endif
// 1025   {
// 1026     osal_run_system();
??osal_start_system_0:
        ; Setup parameters for call to function osal_run_system
        LCALL   ??osal_run_system?relay
        SJMP    ??osal_start_system_0
        CFI EndBlock cfiBlock155
// 1027   }
// 1028 }
// 1029 
// 1030 /*********************************************************************
// 1031  * @fn      osal_run_system
// 1032  *
// 1033  * @brief
// 1034  *
// 1035  *   This function will make one pass through the OSAL taskEvents table
// 1036  *   and call the task_event_processor() function for the first task that
// 1037  *   is found with at least one event pending. If there are no pending
// 1038  *   events (all tasks), this function puts the processor into Sleep.
// 1039  *
// 1040  * @param   void
// 1041  *
// 1042  * @return  none
// 1043  */

        RSEG BANKED_CODE:CODE:NOROOT(0)
// 1044 void osal_run_system( void )
osal_run_system:
        CFI Block cfiBlock156 Using cfiCommon0
        CFI Function osal_run_system
        CODE
// 1045 {
        FUNCALL osal_run_system, osalTimeUpdate
        LOCFRAME ISTACK, 0, STACK
        LOCFRAME PSTACK, 0, STACK
        LOCFRAME XSTACK, 10, STACK
        LOCFRAME IOVERLAY, 0, STATIC
        LOCFRAME DOVERLAY, 0, STATIC
        ARGFRAME ISTACK, 0, STACK
        ARGFRAME PSTACK, 0, STACK
        ARGFRAME XSTACK, 10, STACK
        ARGFRAME IOVERLAY, 0, STATIC
        ARGFRAME DOVERLAY, 0, STATIC
        FUNCALL osal_run_system, Hal_ProcessPoll
        LOCFRAME ISTACK, 0, STACK
        LOCFRAME PSTACK, 0, STACK
        LOCFRAME XSTACK, 10, STACK
        LOCFRAME IOVERLAY, 0, STATIC
        LOCFRAME DOVERLAY, 0, STATIC
        ARGFRAME ISTACK, 0, STACK
        ARGFRAME PSTACK, 0, STACK
        ARGFRAME XSTACK, 10, STACK
        ARGFRAME IOVERLAY, 0, STATIC
        ARGFRAME DOVERLAY, 0, STATIC
        MOV     A,#-0xa
        LCALL   ?BANKED_ENTER_XDATA
        CFI DPH0 load(1, XDATA, add(CFA_XSP16, literal(-1)))
        CFI DPL0 load(1, XDATA, add(CFA_XSP16, literal(-2)))
        CFI ?BRET_EXT load(1, XDATA, add(CFA_XSP16, literal(-3)))
        CFI ?RET_HIGH load(1, XDATA, add(CFA_XSP16, literal(-4)))
        CFI ?RET_LOW load(1, XDATA, add(CFA_XSP16, literal(-5)))
        CFI R7 load(1, XDATA, add(CFA_XSP16, literal(-6)))
        CFI V1 load(1, XDATA, add(CFA_XSP16, literal(-7)))
        CFI V0 load(1, XDATA, add(CFA_XSP16, literal(-8)))
        CFI VB load(1, XDATA, add(CFA_XSP16, literal(-9)))
        CFI R6 load(1, XDATA, add(CFA_XSP16, literal(-10)))
        CFI CFA_SP SP+0
        CFI CFA_XSP16 add(XSP16, 10)
        ; Saved register size: 10
        ; Auto size: 0
// 1046   uint8 idx = 0;
        MOV     ?V0 + 0,#0x0
// 1047 
// 1048   osalTimeUpdate();
        ; Setup parameters for call to function osalTimeUpdate
        LCALL   ??osalTimeUpdate?relay
// 1049   Hal_ProcessPoll();
        ; Setup parameters for call to function Hal_ProcessPoll
        LCALL   ??Hal_ProcessPoll?relay
// 1050 
// 1051   do {
// 1052     if (tasksEvents[idx])  // Task is highest priority that is ready.
??osal_run_system_0:
        MOV     A,?V0 + 0
        LCALL   ?Subroutine15 & 0xFFFF
// 1053     {
// 1054       break;
// 1055     }
// 1056   } while (++idx < tasksCnt);
??CrossCallReturnLabel_28:
        LCALL   ??Subroutine31_0 & 0xFFFF
??CrossCallReturnLabel_54:
        JNZ     ??osal_run_system_1
        INC     ?V0 + 0
        MOV     DPTR,#tasksCnt
        MOVX    A,@DPTR
        MOV     R0,A
        MOV     A,?V0 + 0
        CLR     C
        SUBB    A,R0
        JC      ??osal_run_system_0
// 1057 
// 1058   if (idx < tasksCnt)
??osal_run_system_1:
        MOV     DPTR,#tasksCnt
        MOVX    A,@DPTR
        MOV     R0,A
        MOV     A,?V0 + 0
        CLR     C
        SUBB    A,R0
        JNC     ??osal_run_system_2
// 1059   {
// 1060     uint16 events;
// 1061     halIntState_t intState;
// 1062 
// 1063     HAL_ENTER_CRITICAL_SECTION(intState);
        MOV     A,0xa8
        MOV     R4,A
        CLR     0xa8.7
// 1064     events = tasksEvents[idx];
        MOV     A,?V0 + 0
        CLR     C
        RLC     A
        MOV     R6,A
        CLR     A
        RLC     A
        MOV     R7,A
        MOV     DPTR,#tasksEvents
        MOVX    A,@DPTR
        ADD     A,R6
        MOV     R0,A
        INC     DPTR
        MOVX    A,@DPTR
        ADDC    A,R7
        LCALL   ?Subroutine17 & 0xFFFF
// 1065     tasksEvents[idx] = 0;  // Clear the Events for this task.
??CrossCallReturnLabel_72:
        MOV     DPL,R0
        MOV     DPH,R1
        CLR     A
        MOVX    @DPTR,A
        INC     DPTR
        MOVX    @DPTR,A
// 1066     HAL_EXIT_CRITICAL_SECTION(intState);
        MOV     A,R4
        MOV     C,0xE0 /* A   */.7
        MOV     0xa8.7,C
// 1067 
// 1068     activeTaskID = idx;
        MOV     A,?V0 + 0
        MOV     DPTR,#activeTaskID
        MOVX    @DPTR,A
// 1069     events = (tasksArr[idx])( idx, events );
        ; Setup parameters for indirect call
        MOV     R1,A
        MOV     A,#tasksArr & 0xff
        ADD     A,R6
        MOV     DPL,A
        MOV     A,#(tasksArr >> 8) & 0xff
        ADDC    A,R7
        MOV     DPH,A
        LCALL   ?Subroutine19 & 0xFFFF
??CrossCallReturnLabel_34:
        LCALL   ?CALL_IND
// 1070     activeTaskID = TASK_NO_TASK;
        MOV     DPTR,#activeTaskID
        MOV     A,#-0x1
        MOVX    @DPTR,A
// 1071 
// 1072     HAL_ENTER_CRITICAL_SECTION(intState);
        MOV     A,0xa8
        MOV     R1,A
        CLR     0xa8.7
// 1073     tasksEvents[idx] |= events;  // Add back unprocessed events to the current task.
        MOV     DPTR,#tasksEvents
        MOVX    A,@DPTR
        ADD     A,R6
        MOV     R0,A
        INC     DPTR
        MOVX    A,@DPTR
        ADDC    A,R7
        MOV     DPL,R0
        MOV     DPH,A
        MOVX    A,@DPTR
        ORL     A,R2
        MOVX    @DPTR,A
        INC     DPTR
        MOVX    A,@DPTR
        ORL     A,R3
        MOVX    @DPTR,A
// 1074     HAL_EXIT_CRITICAL_SECTION(intState);
        MOV     A,R1
        MOV     C,0xE0 /* A   */.7
        MOV     0xa8.7,C
// 1075   }
// 1076 #if defined( POWER_SAVING )
// 1077   else  // Complete pass through all task events with no activity?
// 1078   {
// 1079     osal_pwrmgr_powerconserve();  // Put the processor/system into sleep
// 1080   }
// 1081 #endif
// 1082 
// 1083   /* Yield in case cooperative scheduling is being used. */
// 1084 #if defined (configUSE_PREEMPTION) && (configUSE_PREEMPTION == 0)
// 1085   {
// 1086     osal_task_yield();
// 1087   }
// 1088 #endif
// 1089 }
??osal_run_system_2:
        LJMP    ?Subroutine4 & 0xFFFF
        CFI EndBlock cfiBlock156
        REQUIRE _A_IEN0

        RSEG BANKED_CODE:CODE:NOROOT(0)
?Subroutine19:
        CFI Block cfiCond157 Using cfiCommon0
        CFI NoFunction
        CFI Conditional ??CrossCallReturnLabel_33
        CFI R6 load(1, XDATA, add(CFA_XSP16, literal(-16)))
        CFI VB load(1, XDATA, add(CFA_XSP16, literal(-15)))
        CFI V0 load(1, XDATA, add(CFA_XSP16, literal(-14)))
        CFI V1 load(1, XDATA, add(CFA_XSP16, literal(-13)))
        CFI V2 load(1, XDATA, add(CFA_XSP16, literal(-12)))
        CFI V3 load(1, XDATA, add(CFA_XSP16, literal(-11)))
        CFI V4 load(1, XDATA, add(CFA_XSP16, literal(-10)))
        CFI V5 load(1, XDATA, add(CFA_XSP16, literal(-9)))
        CFI V6 load(1, XDATA, add(CFA_XSP16, literal(-8)))
        CFI V7 load(1, XDATA, add(CFA_XSP16, literal(-7)))
        CFI R7 load(1, XDATA, add(CFA_XSP16, literal(-6)))
        CFI ?RET_LOW load(1, XDATA, add(CFA_XSP16, literal(-5)))
        CFI ?RET_HIGH load(1, XDATA, add(CFA_XSP16, literal(-4)))
        CFI ?BRET_EXT load(1, XDATA, add(CFA_XSP16, literal(-3)))
        CFI DPL0 load(1, XDATA, add(CFA_XSP16, literal(-2)))
        CFI DPH0 load(1, XDATA, add(CFA_XSP16, literal(-1)))
        CFI CFA_SP SP+0
        CFI CFA_XSP16 add(XSP16, 55)
        CFI Block cfiCond158 Using cfiCommon0
        CFI (cfiCond158) NoFunction
        CFI (cfiCond158) Conditional ??CrossCallReturnLabel_34
        CFI (cfiCond158) R6 load(1, XDATA, add(CFA_XSP16, literal(-10)))
        CFI (cfiCond158) VB load(1, XDATA, add(CFA_XSP16, literal(-9)))
        CFI (cfiCond158) V0 load(1, XDATA, add(CFA_XSP16, literal(-8)))
        CFI (cfiCond158) V1 load(1, XDATA, add(CFA_XSP16, literal(-7)))
        CFI (cfiCond158) R7 load(1, XDATA, add(CFA_XSP16, literal(-6)))
        CFI (cfiCond158) ?RET_LOW load(1, XDATA, add(CFA_XSP16, literal(-5)))
        CFI (cfiCond158) ?RET_HIGH load(1, XDATA, add(CFA_XSP16, literal(-4)))
        CFI (cfiCond158) ?BRET_EXT load(1, XDATA, add(CFA_XSP16, literal(-3)))
        CFI (cfiCond158) DPL0 load(1, XDATA, add(CFA_XSP16, literal(-2)))
        CFI (cfiCond158) DPH0 load(1, XDATA, add(CFA_XSP16, literal(-1)))
        CFI (cfiCond158) CFA_SP SP+0
        CFI (cfiCond158) CFA_XSP16 add(XSP16, 10)
        CFI Block cfiPicker159 Using cfiCommon1
        CFI (cfiPicker159) NoFunction
        CFI (cfiPicker159) Picker
        MOVX    A,@DPTR
        MOV     R0,A
        INC     DPTR
        MOVX    A,@DPTR
        MOV     DPH,A
        MOV     DPL,R0
        RET
        CFI EndBlock cfiCond157
        CFI EndBlock cfiCond158
        CFI EndBlock cfiPicker159

        RSEG BANKED_CODE:CODE:NOROOT(0)
?Subroutine15:
        CFI Block cfiCond160 Using cfiCommon0
        CFI NoFunction
        CFI Conditional ??CrossCallReturnLabel_27
        CFI R6 load(1, XDATA, add(CFA_XSP16, literal(-9)))
        CFI VB load(1, XDATA, add(CFA_XSP16, literal(-8)))
        CFI V0 load(1, XDATA, add(CFA_XSP16, literal(-7)))
        CFI R7 load(1, XDATA, add(CFA_XSP16, literal(-6)))
        CFI ?RET_LOW load(1, XDATA, add(CFA_XSP16, literal(-5)))
        CFI ?RET_HIGH load(1, XDATA, add(CFA_XSP16, literal(-4)))
        CFI ?BRET_EXT load(1, XDATA, add(CFA_XSP16, literal(-3)))
        CFI DPL0 load(1, XDATA, add(CFA_XSP16, literal(-2)))
        CFI DPH0 load(1, XDATA, add(CFA_XSP16, literal(-1)))
        CFI CFA_SP SP+0
        CFI CFA_XSP16 add(XSP16, 9)
        CFI Block cfiCond161 Using cfiCommon0
        CFI (cfiCond161) NoFunction
        CFI (cfiCond161) Conditional ??CrossCallReturnLabel_28
        CFI (cfiCond161) R6 load(1, XDATA, add(CFA_XSP16, literal(-10)))
        CFI (cfiCond161) VB load(1, XDATA, add(CFA_XSP16, literal(-9)))
        CFI (cfiCond161) V0 load(1, XDATA, add(CFA_XSP16, literal(-8)))
        CFI (cfiCond161) V1 load(1, XDATA, add(CFA_XSP16, literal(-7)))
        CFI (cfiCond161) R7 load(1, XDATA, add(CFA_XSP16, literal(-6)))
        CFI (cfiCond161) ?RET_LOW load(1, XDATA, add(CFA_XSP16, literal(-5)))
        CFI (cfiCond161) ?RET_HIGH load(1, XDATA, add(CFA_XSP16, literal(-4)))
        CFI (cfiCond161) ?BRET_EXT load(1, XDATA, add(CFA_XSP16, literal(-3)))
        CFI (cfiCond161) DPL0 load(1, XDATA, add(CFA_XSP16, literal(-2)))
        CFI (cfiCond161) DPH0 load(1, XDATA, add(CFA_XSP16, literal(-1)))
        CFI (cfiCond161) CFA_SP SP+0
        CFI (cfiCond161) CFA_XSP16 add(XSP16, 10)
        CFI Block cfiPicker162 Using cfiCommon1
        CFI (cfiPicker162) NoFunction
        CFI (cfiPicker162) Picker
        CLR     C
        RLC     A
        MOV     R0,A
        CLR     A
        RLC     A
        MOV     R1,A
        MOV     DPTR,#tasksEvents
        MOVX    A,@DPTR
        ADD     A,R0
        MOV     R2,A
        INC     DPTR
        MOVX    A,@DPTR
        ADDC    A,R1
        MOV     DPL,R2
        MOV     DPH,A
        RET
        CFI EndBlock cfiCond160
        CFI EndBlock cfiCond161
        CFI EndBlock cfiPicker162
// 1090 
// 1091 /*********************************************************************
// 1092  * @fn      osal_buffer_uint32
// 1093  *
// 1094  * @brief
// 1095  *
// 1096  *   Buffer an uint32 value - LSB first.
// 1097  *
// 1098  * @param   buf - buffer
// 1099  * @param   val - uint32 value
// 1100  *
// 1101  * @return  pointer to end of destination buffer
// 1102  */

        RSEG BANKED_CODE:CODE:NOROOT(0)
// 1103 uint8* osal_buffer_uint32( uint8 *buf, uint32 val )
osal_buffer_uint32:
        CFI Block cfiBlock163 Using cfiCommon0
        CFI Function osal_buffer_uint32
        CODE
// 1104 {
        MOV     A,#-0x10
        LCALL   ?BANKED_ENTER_XDATA
        CFI DPH0 load(1, XDATA, add(CFA_XSP16, literal(-1)))
        CFI DPL0 load(1, XDATA, add(CFA_XSP16, literal(-2)))
        CFI ?BRET_EXT load(1, XDATA, add(CFA_XSP16, literal(-3)))
        CFI ?RET_HIGH load(1, XDATA, add(CFA_XSP16, literal(-4)))
        CFI ?RET_LOW load(1, XDATA, add(CFA_XSP16, literal(-5)))
        CFI R7 load(1, XDATA, add(CFA_XSP16, literal(-6)))
        CFI V7 load(1, XDATA, add(CFA_XSP16, literal(-7)))
        CFI V6 load(1, XDATA, add(CFA_XSP16, literal(-8)))
        CFI V5 load(1, XDATA, add(CFA_XSP16, literal(-9)))
        CFI V4 load(1, XDATA, add(CFA_XSP16, literal(-10)))
        CFI V3 load(1, XDATA, add(CFA_XSP16, literal(-11)))
        CFI V2 load(1, XDATA, add(CFA_XSP16, literal(-12)))
        CFI V1 load(1, XDATA, add(CFA_XSP16, literal(-13)))
        CFI V0 load(1, XDATA, add(CFA_XSP16, literal(-14)))
        CFI VB load(1, XDATA, add(CFA_XSP16, literal(-15)))
        CFI R6 load(1, XDATA, add(CFA_XSP16, literal(-16)))
        CFI CFA_SP SP+0
        CFI CFA_XSP16 add(XSP16, 16)
        ; Saved register size: 16
        ; Auto size: 0
        MOV     A,#0x10
        LCALL   ?XSTACK_DISP0_8
        MOV     R0,#?V0 + 4
        LCALL   ?L_MOV_X
// 1105   *buf++ = BREAK_UINT32( val, 0 );
        LCALL   ?Subroutine21 & 0xFFFF
// 1106   *buf++ = BREAK_UINT32( val, 1 );
// 1107   *buf++ = BREAK_UINT32( val, 2 );
??CrossCallReturnLabel_37:
        MOV     ?V0 + 0,?V0 + 4
        MOV     ?V0 + 2,?V0 + 6
        MOV     ?V0 + 3,?V0 + 7
        MOV     A,#0x10
        MOV     R0,#?V0 + 0
        LCALL   ?UL_SHR
        MOV     A,?V0 + 0
        MOVX    @DPTR,A
        INC     DPTR
// 1108   *buf++ = BREAK_UINT32( val, 3 );
        MOV     A,#0x18
        LJMP    ?Subroutine3 & 0xFFFF
        CFI EndBlock cfiBlock163
// 1109 
// 1110   return buf;
// 1111 }
// 1112 
// 1113 /*********************************************************************
// 1114  * @fn      osal_buffer_uint24
// 1115  *
// 1116  * @brief
// 1117  *
// 1118  *   Buffer an uint24 value - LSB first. Note that type uint24 is
// 1119  *   typedef to uint32 in comdef.h
// 1120  *
// 1121  * @param   buf - buffer
// 1122  * @param   val - uint24 value
// 1123  *
// 1124  * @return  pointer to end of destination buffer
// 1125  */

        RSEG BANKED_CODE:CODE:NOROOT(0)
// 1126 uint8* osal_buffer_uint24( uint8 *buf, uint24 val )
osal_buffer_uint24:
        CFI Block cfiBlock164 Using cfiCommon0
        CFI Function osal_buffer_uint24
        CODE
// 1127 {
        MOV     A,#-0x10
        LCALL   ?BANKED_ENTER_XDATA
        CFI DPH0 load(1, XDATA, add(CFA_XSP16, literal(-1)))
        CFI DPL0 load(1, XDATA, add(CFA_XSP16, literal(-2)))
        CFI ?BRET_EXT load(1, XDATA, add(CFA_XSP16, literal(-3)))
        CFI ?RET_HIGH load(1, XDATA, add(CFA_XSP16, literal(-4)))
        CFI ?RET_LOW load(1, XDATA, add(CFA_XSP16, literal(-5)))
        CFI R7 load(1, XDATA, add(CFA_XSP16, literal(-6)))
        CFI V7 load(1, XDATA, add(CFA_XSP16, literal(-7)))
        CFI V6 load(1, XDATA, add(CFA_XSP16, literal(-8)))
        CFI V5 load(1, XDATA, add(CFA_XSP16, literal(-9)))
        CFI V4 load(1, XDATA, add(CFA_XSP16, literal(-10)))
        CFI V3 load(1, XDATA, add(CFA_XSP16, literal(-11)))
        CFI V2 load(1, XDATA, add(CFA_XSP16, literal(-12)))
        CFI V1 load(1, XDATA, add(CFA_XSP16, literal(-13)))
        CFI V0 load(1, XDATA, add(CFA_XSP16, literal(-14)))
        CFI VB load(1, XDATA, add(CFA_XSP16, literal(-15)))
        CFI R6 load(1, XDATA, add(CFA_XSP16, literal(-16)))
        CFI CFA_SP SP+0
        CFI CFA_XSP16 add(XSP16, 16)
        ; Saved register size: 16
        ; Auto size: 0
        MOV     A,#0x10
        LCALL   ?XSTACK_DISP0_8
        MOV     R0,#?V0 + 4
        LCALL   ?L_MOV_X
// 1128   *buf++ = BREAK_UINT32( val, 0 );
        LCALL   ?Subroutine21 & 0xFFFF
// 1129   *buf++ = BREAK_UINT32( val, 1 );
// 1130   *buf++ = BREAK_UINT32( val, 2 );
??CrossCallReturnLabel_38:
        MOV     A,#0x10
        LJMP    ?Subroutine3 & 0xFFFF
        CFI EndBlock cfiBlock164
// 1131 
// 1132   return buf;
// 1133 }

        RSEG BANKED_CODE:CODE:NOROOT(0)
?Subroutine21:
        CFI Block cfiCond165 Using cfiCommon0
        CFI NoFunction
        CFI Conditional ??CrossCallReturnLabel_37
        CFI R6 load(1, XDATA, add(CFA_XSP16, literal(-16)))
        CFI VB load(1, XDATA, add(CFA_XSP16, literal(-15)))
        CFI V0 load(1, XDATA, add(CFA_XSP16, literal(-14)))
        CFI V1 load(1, XDATA, add(CFA_XSP16, literal(-13)))
        CFI V2 load(1, XDATA, add(CFA_XSP16, literal(-12)))
        CFI V3 load(1, XDATA, add(CFA_XSP16, literal(-11)))
        CFI V4 load(1, XDATA, add(CFA_XSP16, literal(-10)))
        CFI V5 load(1, XDATA, add(CFA_XSP16, literal(-9)))
        CFI V6 load(1, XDATA, add(CFA_XSP16, literal(-8)))
        CFI V7 load(1, XDATA, add(CFA_XSP16, literal(-7)))
        CFI R7 load(1, XDATA, add(CFA_XSP16, literal(-6)))
        CFI ?RET_LOW load(1, XDATA, add(CFA_XSP16, literal(-5)))
        CFI ?RET_HIGH load(1, XDATA, add(CFA_XSP16, literal(-4)))
        CFI ?BRET_EXT load(1, XDATA, add(CFA_XSP16, literal(-3)))
        CFI DPL0 load(1, XDATA, add(CFA_XSP16, literal(-2)))
        CFI DPH0 load(1, XDATA, add(CFA_XSP16, literal(-1)))
        CFI CFA_SP SP+0
        CFI CFA_XSP16 add(XSP16, 16)
        CFI Block cfiCond166 Using cfiCommon0
        CFI (cfiCond166) NoFunction
        CFI (cfiCond166) Conditional ??CrossCallReturnLabel_38
        CFI (cfiCond166) R6 load(1, XDATA, add(CFA_XSP16, literal(-16)))
        CFI (cfiCond166) VB load(1, XDATA, add(CFA_XSP16, literal(-15)))
        CFI (cfiCond166) V0 load(1, XDATA, add(CFA_XSP16, literal(-14)))
        CFI (cfiCond166) V1 load(1, XDATA, add(CFA_XSP16, literal(-13)))
        CFI (cfiCond166) V2 load(1, XDATA, add(CFA_XSP16, literal(-12)))
        CFI (cfiCond166) V3 load(1, XDATA, add(CFA_XSP16, literal(-11)))
        CFI (cfiCond166) V4 load(1, XDATA, add(CFA_XSP16, literal(-10)))
        CFI (cfiCond166) V5 load(1, XDATA, add(CFA_XSP16, literal(-9)))
        CFI (cfiCond166) V6 load(1, XDATA, add(CFA_XSP16, literal(-8)))
        CFI (cfiCond166) V7 load(1, XDATA, add(CFA_XSP16, literal(-7)))
        CFI (cfiCond166) R7 load(1, XDATA, add(CFA_XSP16, literal(-6)))
        CFI (cfiCond166) ?RET_LOW load(1, XDATA, add(CFA_XSP16, literal(-5)))
        CFI (cfiCond166) ?RET_HIGH load(1, XDATA, add(CFA_XSP16, literal(-4)))
        CFI (cfiCond166) ?BRET_EXT load(1, XDATA, add(CFA_XSP16, literal(-3)))
        CFI (cfiCond166) DPL0 load(1, XDATA, add(CFA_XSP16, literal(-2)))
        CFI (cfiCond166) DPH0 load(1, XDATA, add(CFA_XSP16, literal(-1)))
        CFI (cfiCond166) CFA_SP SP+0
        CFI (cfiCond166) CFA_XSP16 add(XSP16, 16)
        CFI Block cfiPicker167 Using cfiCommon1
        CFI (cfiPicker167) NoFunction
        CFI (cfiPicker167) Picker
        MOV     DPL,R2
        MOV     DPH,R3
        MOV     A,?V0 + 4
        MOVX    @DPTR,A
        INC     DPTR
        MOV     ?V0 + 1,?V0 + 5
        MOV     A,?V0 + 1
        MOVX    @DPTR,A
        INC     DPTR
        RET
        CFI EndBlock cfiCond165
        CFI EndBlock cfiCond166
        CFI EndBlock cfiPicker167
// 1134 
// 1135 /*********************************************************************
// 1136  * @fn      osal_isbufset
// 1137  *
// 1138  * @brief
// 1139  *
// 1140  *   Is all of the array elements set to a value?
// 1141  *
// 1142  * @param   buf - buffer to check
// 1143  * @param   val - value to check each array element for
// 1144  * @param   len - length to check
// 1145  *
// 1146  * @return  TRUE if all "val"
// 1147  *          FALSE otherwise
// 1148  */

        RSEG BANKED_CODE:CODE:NOROOT(0)
// 1149 uint8 osal_isbufset( uint8 *buf, uint8 val, uint8 len )
osal_isbufset:
        CFI Block cfiBlock168 Using cfiCommon0
        CFI Function osal_isbufset
        CODE
// 1150 {
        MOV     A,#-0xa
        LCALL   ?BANKED_ENTER_XDATA
        CFI DPH0 load(1, XDATA, add(CFA_XSP16, literal(-1)))
        CFI DPL0 load(1, XDATA, add(CFA_XSP16, literal(-2)))
        CFI ?BRET_EXT load(1, XDATA, add(CFA_XSP16, literal(-3)))
        CFI ?RET_HIGH load(1, XDATA, add(CFA_XSP16, literal(-4)))
        CFI ?RET_LOW load(1, XDATA, add(CFA_XSP16, literal(-5)))
        CFI R7 load(1, XDATA, add(CFA_XSP16, literal(-6)))
        CFI V1 load(1, XDATA, add(CFA_XSP16, literal(-7)))
        CFI V0 load(1, XDATA, add(CFA_XSP16, literal(-8)))
        CFI VB load(1, XDATA, add(CFA_XSP16, literal(-9)))
        CFI R6 load(1, XDATA, add(CFA_XSP16, literal(-10)))
        CFI CFA_SP SP+0
        CFI CFA_XSP16 add(XSP16, 10)
        ; Saved register size: 10
        ; Auto size: 0
        MOV     A,R1
        MOV     R5,A
// 1151   uint8 x;
// 1152 
// 1153   if ( buf == NULL )
        MOV     A,R2
        ORL     A,R3
        JNZ     ??osal_isbufset_0
// 1154   {
// 1155     return ( FALSE );
??osal_isbufset_1:
        MOV     R1,#0x0
        SJMP    ??osal_isbufset_2
// 1156   }
// 1157 
// 1158   for ( x = 0; x < len; x++ )
??osal_isbufset_0:
        MOV     R0,#0x0
        SJMP    ??osal_isbufset_3
// 1159   {
// 1160     // Check for non-initialized value
// 1161     if ( buf[x] != val )
??osal_isbufset_4:
        MOV     ?V0 + 0,R0
        MOV     A,R2
        ADD     A,?V0 + 0
        MOV     DPL,A
        MOV     A,R3
        ADDC    A,#0x0
        MOV     DPH,A
        MOVX    A,@DPTR
        XRL     A,R5
        JNZ     ??osal_isbufset_1
// 1162     {
// 1163       return ( FALSE );
// 1164     }
// 1165   }
        INC     R0
??osal_isbufset_3:
        MOV     A,R0
        CLR     C
        SUBB    A,R4
        JC      ??osal_isbufset_4
// 1166   return ( TRUE );
        MOV     R1,#0x1
??osal_isbufset_2:
        LJMP    ?Subroutine4 & 0xFFFF
        CFI EndBlock cfiBlock168
// 1167 }
// 1168 
// 1169 /*********************************************************************
// 1170  * @fn      osal_self
// 1171  *
// 1172  * @brief
// 1173  *
// 1174  *   This function returns the task ID of the current (active) task.
// 1175  *
// 1176  * @param   void
// 1177  *
// 1178  * @return   active task ID or TASK_NO_TASK if no task is active
// 1179  */

        RSEG BANKED_CODE:CODE:NOROOT(0)
// 1180 uint8 osal_self( void )
osal_self:
        CFI Block cfiBlock169 Using cfiCommon0
        CFI Function osal_self
        CODE
// 1181 {
        PUSH    DPL
        CFI DPL0 Frame(CFA_SP, 4)
        CFI CFA_SP SP+-4
        PUSH    DPH
        CFI DPH0 Frame(CFA_SP, 5)
        CFI CFA_SP SP+-5
        ; Saved register size: 2
        ; Auto size: 0
// 1182   return ( activeTaskID );
        MOV     DPTR,#activeTaskID
        MOVX    A,@DPTR
        MOV     R1,A
        LJMP    ?Subroutine0 & 0xFFFF
        CFI EndBlock cfiBlock169
// 1183 }

        RSEG XDATA_ID:CODE:NOROOT(0)
`?<Initializer for activeTaskID>`:
        DATA8
        DB 255

        RSEG BANK_RELAYS:CODE:REORDER:NOROOT(0)
??osal_strlen?relay:
        LCALL   ?BDISPATCH
        DATA
        DC24    osal_strlen

        RSEG BANK_RELAYS:CODE:REORDER:NOROOT(0)
??osal_memcpy?relay:
        LCALL   ?BDISPATCH
        DATA
        DC24    osal_memcpy

        RSEG BANK_RELAYS:CODE:REORDER:NOROOT(0)
??osal_revmemcpy?relay:
        LCALL   ?BDISPATCH
        DATA
        DC24    osal_revmemcpy

        RSEG BANK_RELAYS:CODE:REORDER:NOROOT(0)
??osal_memdup?relay:
        LCALL   ?BDISPATCH
        DATA
        DC24    osal_memdup

        RSEG BANK_RELAYS:CODE:REORDER:NOROOT(0)
??osal_memcmp?relay:
        LCALL   ?BDISPATCH
        DATA
        DC24    osal_memcmp

        RSEG BANK_RELAYS:CODE:REORDER:NOROOT(0)
??osal_memset?relay:
        LCALL   ?BDISPATCH
        DATA
        DC24    osal_memset

        RSEG BANK_RELAYS:CODE:REORDER:NOROOT(0)
??osal_build_uint16?relay:
        LCALL   ?BDISPATCH
        DATA
        DC24    osal_build_uint16

        RSEG BANK_RELAYS:CODE:REORDER:NOROOT(0)
??osal_build_uint32?relay:
        LCALL   ?BDISPATCH
        DATA
        DC24    osal_build_uint32

        RSEG BANK_RELAYS:CODE:REORDER:NOROOT(0)
??_ltoa?relay:
        LCALL   ?BDISPATCH
        DATA
        DC24    _ltoa

        RSEG BANK_RELAYS:CODE:REORDER:NOROOT(0)
??osal_rand?relay:
        LCALL   ?BDISPATCH
        DATA
        DC24    osal_rand

        RSEG BANK_RELAYS:CODE:REORDER:NOROOT(0)
??osal_msg_allocate?relay:
        LCALL   ?BDISPATCH
        DATA
        DC24    osal_msg_allocate

        RSEG BANK_RELAYS:CODE:REORDER:NOROOT(0)
??osal_msg_deallocate?relay:
        LCALL   ?BDISPATCH
        DATA
        DC24    osal_msg_deallocate

        RSEG BANK_RELAYS:CODE:REORDER:NOROOT(0)
??osal_msg_send?relay:
        LCALL   ?BDISPATCH
        DATA
        DC24    osal_msg_send

        RSEG BANK_RELAYS:CODE:REORDER:NOROOT(0)
??osal_msg_receive?relay:
        LCALL   ?BDISPATCH
        DATA
        DC24    osal_msg_receive

        RSEG BANK_RELAYS:CODE:REORDER:NOROOT(0)
??osal_msg_find?relay:
        LCALL   ?BDISPATCH
        DATA
        DC24    osal_msg_find

        RSEG BANK_RELAYS:CODE:REORDER:NOROOT(0)
??osal_msg_enqueue?relay:
        LCALL   ?BDISPATCH
        DATA
        DC24    osal_msg_enqueue

        RSEG BANK_RELAYS:CODE:REORDER:NOROOT(0)
??osal_msg_dequeue?relay:
        LCALL   ?BDISPATCH
        DATA
        DC24    osal_msg_dequeue

        RSEG BANK_RELAYS:CODE:REORDER:NOROOT(0)
??osal_msg_push?relay:
        LCALL   ?BDISPATCH
        DATA
        DC24    osal_msg_push

        RSEG BANK_RELAYS:CODE:REORDER:NOROOT(0)
??osal_msg_extract?relay:
        LCALL   ?BDISPATCH
        DATA
        DC24    osal_msg_extract

        RSEG BANK_RELAYS:CODE:REORDER:NOROOT(0)
??osal_msg_enqueue_max?relay:
        LCALL   ?BDISPATCH
        DATA
        DC24    osal_msg_enqueue_max

        RSEG BANK_RELAYS:CODE:REORDER:NOROOT(0)
??osal_set_event?relay:
        LCALL   ?BDISPATCH
        DATA
        DC24    osal_set_event

        RSEG BANK_RELAYS:CODE:REORDER:NOROOT(0)
??osal_clear_event?relay:
        LCALL   ?BDISPATCH
        DATA
        DC24    osal_clear_event

        RSEG BANK_RELAYS:CODE:REORDER:NOROOT(0)
??osal_isr_register?relay:
        LCALL   ?BDISPATCH
        DATA
        DC24    osal_isr_register

        RSEG BANK_RELAYS:CODE:REORDER:NOROOT(0)
??osal_int_enable?relay:
        LCALL   ?BDISPATCH
        DATA
        DC24    osal_int_enable

        RSEG BANK_RELAYS:CODE:REORDER:NOROOT(0)
??osal_int_disable?relay:
        LCALL   ?BDISPATCH
        DATA
        DC24    osal_int_disable

        RSEG BANK_RELAYS:CODE:REORDER:NOROOT(0)
??osal_init_system?relay:
        LCALL   ?BDISPATCH
        DATA
        DC24    osal_init_system

        RSEG BANK_RELAYS:CODE:REORDER:NOROOT(0)
??osal_start_system?relay:
        LCALL   ?BDISPATCH
        DATA
        DC24    osal_start_system

        RSEG BANK_RELAYS:CODE:REORDER:NOROOT(0)
??osal_run_system?relay:
        LCALL   ?BDISPATCH
        DATA
        DC24    osal_run_system

        RSEG BANK_RELAYS:CODE:REORDER:NOROOT(0)
??osal_buffer_uint32?relay:
        LCALL   ?BDISPATCH
        DATA
        DC24    osal_buffer_uint32

        RSEG BANK_RELAYS:CODE:REORDER:NOROOT(0)
??osal_buffer_uint24?relay:
        LCALL   ?BDISPATCH
        DATA
        DC24    osal_buffer_uint24

        RSEG BANK_RELAYS:CODE:REORDER:NOROOT(0)
??osal_isbufset?relay:
        LCALL   ?BDISPATCH
        DATA
        DC24    osal_isbufset

        RSEG BANK_RELAYS:CODE:REORDER:NOROOT(0)
??osal_self?relay:
        LCALL   ?BDISPATCH
        DATA
        DC24    osal_self

        RSEG XDATA_ROM_C:CONST:REORDER:NOROOT(0)
        DATA8
`?<Constant "">`:
        DB ""
        DB 0, 0, 0, 0, 0, 0, 0, 0
        DB 0

        RSEG XDATA_ROM_C:CONST:REORDER:NOROOT(0)
        DATA8
`?<Constant "">_1`:
        DB ""
        DB 0, 0, 0, 0, 0, 0, 0, 0
        DB 0

        RSEG XDATA_ROM_C:CONST:REORDER:NOROOT(0)
        DATA8
`?<Constant "">_2`:
        DB ""
        DB 0, 0, 0, 0, 0, 0, 0, 0
        DB 0

        RSEG XDATA_ROM_C:CONST:REORDER:NOROOT(0)
        DATA16
`?<Constant "0">`:
        DB "0"

        RSEG XDATA_ROM_C:CONST:REORDER:NOROOT(0)
        DATA32
__Constant_2710:
        DD 10000

        RSEG XDATA_ROM_C:CONST:REORDER:NOROOT(0)
        DATA32
__Constant_5f5e100:
        DD 100000000

        END
// 1184 
// 1185 /*********************************************************************
// 1186  */
// 
// 2 706 bytes in segment BANKED_CODE
//   192 bytes in segment BANK_RELAYS
//     1 byte  in segment SFR_AN
//     1 byte  in segment XDATA_I
//     1 byte  in segment XDATA_ID
//    40 bytes in segment XDATA_ROM_C
//     2 bytes in segment XDATA_Z
// 
// 2 899 bytes of CODE  memory
//    32 bytes of CONST memory (+ 8 bytes shared)
//     0 bytes of DATA  memory (+ 1 byte  shared)
//     3 bytes of XDATA memory
//
//Errors: none
//Warnings: none
