###############################################################################
#                                                                             #
# IAR C/C++ Compiler V8.10.1.40194/W32 for 8051         25/Dec/2013  17:56:23 #
# Copyright 2004-2011 IAR Systems AB.                                         #
#                                                                             #
#    Core               =  plain                                              #
#    Code model         =  banked                                             #
#    Data model         =  large                                              #
#    Calling convention =  xdata reentrant                                    #
#    Constant location  =  data_rom                                           #
#    Dptr setup         =  1,16                                               #
#    Source file        =  E:\wise-house\Components\osal\common\OSAL_Clock.c  #
#    Command line       =  -f E:\wise-house\Projects\zstack\Samples\WSN_senso #
#                          rs\CC2530DB\..\..\..\Tools\CC2530DB\f8wCoord.cfg   #
#                          (-DCPU32MHZ -DROOT=__near_func                     #
#                          -DMAC_CFG_APP_PENDING_QUEUE=TRUE                   #
#                          -DMAC_CFG_TX_DATA_MAX=5 -DMAC_CFG_TX_MAX=8         #
#                          -DMAC_CFG_RX_MAX=5 -DZDO_COORDINATOR -DRTR_NWK)    #
#                          -f E:\wise-house\Projects\zstack\Samples\WSN_senso #
#                          rs\CC2530DB\..\..\..\Tools\CC2530DB\f8wConfig.cfg  #
#                          (-DZIGBEEPRO -DSECURE=0 -DZG_SECURE_DYNAMIC=0      #
#                          -DREFLECTOR -DDEFAULT_CHANLIST=0x00000800          #
#                          -DZDAPP_CONFIG_PAN_ID=0xFFFF                       #
#                          -DNWK_START_DELAY=100 -DEXTENDED_JOINING_RANDOM_MA #
#                          SK=0x007F -DBEACON_REQUEST_DELAY=100               #
#                          -DBEACON_REQ_DELAY_MASK=0x00FF                     #
#                          -DLINK_STATUS_JITTER_MASK=0x007F                   #
#                          -DROUTE_EXPIRY_TIME=30 -DAPSC_ACK_WAIT_DURATION_PO #
#                          LLED=3000 -DNWK_INDIRECT_MSG_TIMEOUT=7             #
#                          -DMAX_RREQ_ENTRIES=8 -DAPSC_MAX_FRAME_RETRIES=3    #
#                          -DNWK_MAX_DATA_RETRIES=2                           #
#                          -DMAX_POLL_FAILURE_RETRIES=2 -DMAX_BCAST=9         #
#                          -DAPS_MAX_GROUPS=16 -DMAX_RTG_ENTRIES=40           #
#                          -DNWK_MAX_BINDING_ENTRIES=4                        #
#                          -DMAX_BINDING_CLUSTER_IDS=4 "-DDEFAULT_KEY={0x01,  #
#                          0x03, 0x05, 0x07, 0x09, 0x0B, 0x0D, 0x0F, 0x00,    #
#                          0x02, 0x04, 0x06, 0x08, 0x0A, 0x0C, 0x0D}"         #
#                          -DMAC_MAX_FRAME_SIZE=116                           #
#                          -DZDNWKMGR_MIN_TRANSMISSIONS=20 "-DCONST=const     #
#                          __code" -DGENERIC=__generic                        #
#                          -DRFD_RCVC_ALWAYS_ON=FALSE -DPOLL_RATE=1000        #
#                          -DQUEUED_POLL_RATE=100 -DRESPONSE_POLL_RATE=100)   #
#                          -DREJOIN_POLL_RATE=440 E:\wise-house\Components\os #
#                          al\common\OSAL_Clock.c -D ZTOOL_P1 -D MT_TASK -D   #
#                          MT_SYS_FUNC -D MT_ZDO_FUNC -D LCD_SUPPORTED=DEBUG  #
#                          -D HAL_UART=TRUE -D xSERIAL_APP_PORT=0 -lC         #
#                          E:\wise-house\Projects\zstack\Samples\WSN_sensors\ #
#                          CC2530DB\CoordinatorEB\List\ -lA                   #
#                          E:\wise-house\Projects\zstack\Samples\WSN_sensors\ #
#                          CC2530DB\CoordinatorEB\List\ --diag_suppress       #
#                          Pe001,Pa010 -o E:\wise-house\Projects\zstack\Sampl #
#                          es\WSN_sensors\CC2530DB\CoordinatorEB\Obj\ -e      #
#                          --debug --core=plain --dptr=16,1                   #
#                          --data_model=large --code_model=banked             #
#                          --calling_convention=xdata_reentrant               #
#                          --place_constants=data_rom --nr_virtual_regs 8 -I  #
#                          E:\wise-house\Projects\zstack\Samples\WSN_sensors\ #
#                          CC2530DB\ -I E:\wise-house\Projects\zstack\Samples #
#                          \WSN_sensors\CC2530DB\..\SOURCE\ -I                #
#                          E:\wise-house\Projects\zstack\Samples\WSN_sensors\ #
#                          CC2530DB\..\..\..\ZMAIN\TI2530DB\ -I               #
#                          E:\wise-house\Projects\zstack\Samples\WSN_sensors\ #
#                          CC2530DB\..\..\..\..\..\COMPONENTS\MT\ -I          #
#                          E:\wise-house\Projects\zstack\Samples\WSN_sensors\ #
#                          CC2530DB\..\..\..\..\..\COMPONENTS\HAL\INCLUDE\    #
#                          -I E:\wise-house\Projects\zstack\Samples\WSN_senso #
#                          rs\CC2530DB\..\..\..\..\..\COMPONENTS\HAL\TARGET\C #
#                          C2530EB\ -I E:\wise-house\Projects\zstack\Samples\ #
#                          WSN_sensors\CC2530DB\..\..\..\..\..\COMPONENTS\OSA #
#                          L\MCU\CCSOC\ -I E:\wise-house\Projects\zstack\Samp #
#                          les\WSN_sensors\CC2530DB\..\..\..\..\..\COMPONENTS #
#                          \OSAL\INCLUDE\ -I E:\wise-house\Projects\zstack\Sa #
#                          mples\WSN_sensors\CC2530DB\..\..\..\..\..\COMPONEN #
#                          TS\STACK\AF\ -I E:\wise-house\Projects\zstack\Samp #
#                          les\WSN_sensors\CC2530DB\..\..\..\..\..\COMPONENTS #
#                          \STACK\NWK\ -I E:\wise-house\Projects\zstack\Sampl #
#                          es\WSN_sensors\CC2530DB\..\..\..\..\..\COMPONENTS\ #
#                          STACK\SEC\ -I E:\wise-house\Projects\zstack\Sample #
#                          s\WSN_sensors\CC2530DB\..\..\..\..\..\COMPONENTS\S #
#                          TACK\SAPI\ -I E:\wise-house\Projects\zstack\Sample #
#                          s\WSN_sensors\CC2530DB\..\..\..\..\..\COMPONENTS\S #
#                          TACK\SYS\ -I E:\wise-house\Projects\zstack\Samples #
#                          \WSN_sensors\CC2530DB\..\..\..\..\..\COMPONENTS\ST #
#                          ACK\ZDO\ -I E:\wise-house\Projects\zstack\Samples\ #
#                          WSN_sensors\CC2530DB\..\..\..\..\..\COMPONENTS\ZMA #
#                          C\F8W\ -I E:\wise-house\Projects\zstack\Samples\WS #
#                          N_sensors\CC2530DB\..\..\..\..\..\COMPONENTS\ZMAC\ #
#                           -I E:\wise-house\Projects\zstack\Samples\WSN_sens #
#                          ors\CC2530DB\..\..\..\..\..\COMPONENTS\SERVICES\SA #
#                          DDR\ -I E:\wise-house\Projects\zstack\Samples\WSN_ #
#                          sensors\CC2530DB\..\..\..\..\..\COMPONENTS\SERVICE #
#                          S\SDATA\ -I E:\wise-house\Projects\zstack\Samples\ #
#                          WSN_sensors\CC2530DB\..\..\..\..\..\COMPONENTS\MAC #
#                          \INCLUDE\ -I E:\wise-house\Projects\zstack\Samples #
#                          \WSN_sensors\CC2530DB\..\..\..\..\..\COMPONENTS\MA #
#                          C\HIGH_LEVEL\ -I E:\wise-house\Projects\zstack\Sam #
#                          ples\WSN_sensors\CC2530DB\..\..\..\..\..\COMPONENT #
#                          S\MAC\LOW_LEVEL\srf04\ -I                          #
#                          E:\wise-house\Projects\zstack\Samples\WSN_sensors\ #
#                          CC2530DB\..\..\..\..\..\COMPONENTS\MAC\LOW_LEVEL\s #
#                          rf04\SINGLE_CHIP\ -Ohz --require_prototypes        #
#    List file          =  E:\wise-house\Projects\zstack\Samples\WSN_sensors\ #
#                          CC2530DB\CoordinatorEB\List\OSAL_Clock.lst         #
#    Object file        =  E:\wise-house\Projects\zstack\Samples\WSN_sensors\ #
#                          CC2530DB\CoordinatorEB\Obj\OSAL_Clock.r51          #
#                                                                             #
#                                                                             #
###############################################################################

E:\wise-house\Components\osal\common\OSAL_Clock.c
      1          /******************************************************************************
      2            Filename:       OSAL_Clock.c
      3            Revised:        $Date: 2012-03-02 15:52:01 -0800 (Fri, 02 Mar 2012) $
      4            Revision:       $Revision: 29608 $
      5          
      6            Description:    OSAL Clock definition and manipulation functions.
      7          
      8            Copyright 2008-2012 Texas Instruments Incorporated. All rights reserved.
      9          
     10            IMPORTANT: Your use of this Software is limited to those specific rights
     11            granted under the terms of a software license agreement between the user
     12            who downloaded the software, his/her employer (which must be your employer)
     13            and Texas Instruments Incorporated (the "License"). You may not use this
     14            Software unless you agree to abide by the terms of the License. The License
     15            limits your use, and you acknowledge, that the Software may not be modified,
     16            copied or distributed unless embedded on a Texas Instruments microcontroller
     17            or used solely and exclusively in conjunction with a Texas Instruments radio
     18            frequency transceiver, which is integrated into your product. Other than for
     19            the foregoing purpose, you may not use, reproduce, copy, prepare derivative
     20            works of, modify, distribute, perform, display or sell this Software and/or
     21            its documentation for any purpose.
     22          
     23            YOU FURTHER ACKNOWLEDGE AND AGREE THAT THE SOFTWARE AND DOCUMENTATION ARE
     24            PROVIDED “AS IS” WITHOUT WARRANTY OF ANY KIND, EITHER EXPRESS OR IMPLIED,
     25            INCLUDING WITHOUT LIMITATION, ANY WARRANTY OF MERCHANTABILITY, TITLE,
     26            NON-INFRINGEMENT AND FITNESS FOR A PARTICULAR PURPOSE. IN NO EVENT SHALL
     27            TEXAS INSTRUMENTS OR ITS LICENSORS BE LIABLE OR OBLIGATED UNDER CONTRACT,
     28            NEGLIGENCE, STRICT LIABILITY, CONTRIBUTION, BREACH OF WARRANTY, OR OTHER
     29            LEGAL EQUITABLE THEORY ANY DIRECT OR INDIRECT DAMAGES OR EXPENSES
     30            INCLUDING BUT NOT LIMITED TO ANY INCIDENTAL, SPECIAL, INDIRECT, PUNITIVE
     31            OR CONSEQUENTIAL DAMAGES, LOST PROFITS OR LOST DATA, COST OF PROCUREMENT
     32            OF SUBSTITUTE GOODS, TECHNOLOGY, SERVICES, OR ANY CLAIMS BY THIRD PARTIES
     33            (INCLUDING BUT NOT LIMITED TO ANY DEFENSE THEREOF), OR OTHER SIMILAR COSTS.
     34          
     35            Should you have any questions regarding your right to use this Software,
     36            contact Texas Instruments Incorporated at www.TI.com.
     37          ******************************************************************************/
     38          
     39          /*********************************************************************
     40           * INCLUDES
     41           */
     42          
     43          #include "comdef.h"
     44          #include "OnBoard.h"

   \                                 In  segment SFR_AN, at 0xa8
   \   union <unnamed> volatile __sfr _A_IEN0
   \                     _A_IEN0:
   \   000000                DS 1
     45          #include "OSAL.h"
     46          #include "OSAL_Clock.h"
     47          
     48          /*********************************************************************
     49           * MACROS
     50           */
     51          
     52          #define	YearLength(yr)	((uint16)(IsLeapYear(yr) ? 366 : 365))
     53          
     54          /*********************************************************************
     55           * CONSTANTS
     56           */
     57          
     58          #define	BEGYEAR  2000     //  UTC started at 00:00:00 January 1, 2000
     59          
     60          #define	DAY      86400UL  // 24 hours * 60 minutes * 60 seconds
     61          
     62          /*********************************************************************
     63           * TYPEDEFS
     64           */
     65          
     66          /*********************************************************************
     67           * GLOBAL VARIABLES
     68           */
     69          
     70          /*********************************************************************
     71           * EXTERNAL VARIABLES
     72           */
     73          
     74          /*********************************************************************
     75           * EXTERNAL FUNCTIONS
     76           */
     77          extern uint32 macMcuPrecisionCount(void);
     78          
     79          #if (defined HAL_MCU_CC2430) || (defined HAL_MCU_CC2530) || (defined HAL_MCU_CC2533)
     80          
     81            /*  This function is used to divide a 31 bit dividend by a 16 bit
     82             *  divisor and return a packed 16 bit quotient and 16 bit
     83             *  remainder.
     84             *
     85             *  Note: This routine takes ~25.6us @32MHz. With C overhead, the
     86             *        time is ~32us.
     87             *
     88             *  dividend - 31 bit dividend.
     89             *  divisor - 16 bit divisor.
     90             *
     91             *  return - MSW divisor; LSW quotient
     92             */
     93            extern __near_func uint32 osalMcuDivide31By16To16( uint32 dividend, uint16 divisor );
     94          
     95            #define CONVERT_320US_TO_MS_ELAPSED_REMAINDER( x, y, z ) st( \
     96                                                                         \
     97              /* The 16 bit quotient is in MSW and */                    \
     98              /* the 16 bit remainder is in LSW. */                      \
     99              x = osalMcuDivide31By16To16( x, 25 );                      \
    100                                                                         \
    101              /* Add quotient to y */                                    \
    102              y += (x >> 16);                                            \
    103                                                                         \
    104              /* Copy remainder to z */                                  \
    105              z = (uint16)(x & 0x0FFFF);                                 \
    106            )
    107          
    108          #else /* (defined HAL_MCU_CC2430) || (defined HAL_MCU_CC2530) || (defined HAL_MCU_CC2533) */
    109          
    110            #define CONVERT_320US_TO_MS_ELAPSED_REMAINDER( x, y, z ) st( \
    111              y += x / 25;                                               \
    112              z = x % 25;                                                \
    113            )
    114          
    115          #endif /* (defined HAL_MCU_CC2430) || (defined HAL_MCU_CC2530) || (defined HAL_MCU_CC2533) */
    116          
    117          /*********************************************************************
    118           * LOCAL VARIABLES
    119           */

   \                                 In  segment XDATA_Z, align 1, keep-with-next
    120          static uint32 previousMacTimerTick = 0;
   \                     previousMacTimerTick:
   \   000000                DS 4
   \   000004                REQUIRE __INIT_XDATA_Z

   \                                 In  segment XDATA_Z, align 1, keep-with-next
    121          static uint16 remUsTicks = 0;
   \                     remUsTicks:
   \   000000                DS 2
   \   000002                REQUIRE __INIT_XDATA_Z

   \                                 In  segment XDATA_Z, align 1, keep-with-next
    122          static uint16 timeMSec = 0;
   \                     timeMSec:
   \   000000                DS 2
   \   000002                REQUIRE __INIT_XDATA_Z
    123          
    124          // number of seconds since 0 hrs, 0 minutes, 0 seconds, on the
    125          // 1st of January 2000 UTC

   \                                 In  segment XDATA_Z, align 1, keep-with-next
    126          UTCTime OSAL_timeSeconds = 0;
   \                     OSAL_timeSeconds:
   \   000000                DS 4
   \   000004                REQUIRE __INIT_XDATA_Z
    127          
    128          /*********************************************************************
    129           * LOCAL FUNCTION PROTOTYPES
    130           */
    131          static uint8 monthLength( uint8 lpyr, uint8 mon );
    132          
    133          static void osalClockUpdate( uint16 elapsedMSec );
    134          
    135          /*********************************************************************
    136           * FUNCTIONS
    137           *********************************************************************/
    138          
    139          /*********************************************************************
    140           * @fn      osalTimeUpdate
    141           *
    142           * @brief   Uses the free running rollover count of the MAC backoff timer;
    143           *          this timer runs freely with a constant 320 usec interval.  The
    144           *          count of 320-usec ticks is converted to msecs and used to update
    145           *          the OSAL clock and Timers by invoking osalClockUpdate() and
    146           *          osalTimerUpdate().  This function is intended to be invoked
    147           *          from the background, not interrupt level.
    148           *
    149           * @param   None.
    150           *
    151           * @return  None.
    152           */

   \                                 In  segment BANKED_CODE, align 1, keep-with-next
    153          void osalTimeUpdate( void )
   \                     osalTimeUpdate:
    154          {
   \   000000   74F0         MOV     A,#-0x10
   \   000002   12....       LCALL   ?BANKED_ENTER_XDATA
   \   000005                ; Saved register size: 16
   \   000005                ; Auto size: 0
    155            halIntState_t intState;
    156            uint32 tmp;
    157            uint32 ticks320us;
    158            uint16 elapsedMSec = 0;
    159          
    160            HAL_ENTER_CRITICAL_SECTION(intState);
   \   000005   E5A8         MOV     A,0xa8
   \   000007   FE           MOV     R6,A
   \   000008   C2AF         CLR     0xa8.7
    161            // Get the free-running count of 320us timer ticks
    162            tmp = macMcuPrecisionCount();
   \   00000A                ; Setup parameters for call to function macMcuPrecisionCount
   \   00000A   12....       LCALL   ??macMcuPrecisionCount?relay
   \   00000D   8A..         MOV     ?V0 + 0,R2
   \   00000F   8B..         MOV     ?V0 + 1,R3
   \   000011   8C..         MOV     ?V0 + 2,R4
   \   000013   8D..         MOV     ?V0 + 3,R5
    163            HAL_EXIT_CRITICAL_SECTION(intState);
   \   000015   EE           MOV     A,R6
   \   000016   A2E7         MOV     C,0xE0 /* A   */.7
   \   000018   92AF         MOV     0xa8.7,C
    164            
    165            if ( tmp != previousMacTimerTick )
   \   00001A   90....       MOV     DPTR,#previousMacTimerTick
   \   00001D   78..         MOV     R0,#?V0 + 0
   \   00001F   12....       LCALL   ?L_EQ_X
   \   000022   7003         JNZ     $+5
   \   000024   02....       LJMP    ??osalTimeUpdate_0 & 0xFFFF
    166            {
    167              // Calculate the elapsed ticks of the free-running timer.
    168              ticks320us = (tmp - previousMacTimerTick) & 0xffffffffu;
   \   000027   8A..         MOV     ?V0 + 4,R2
   \   000029   8B..         MOV     ?V0 + 5,R3
   \   00002B   8C..         MOV     ?V0 + 6,R4
   \   00002D   8D..         MOV     ?V0 + 7,R5
   \   00002F   90....       MOV     DPTR,#previousMacTimerTick
   \   000032   78..         MOV     R0,#?V0 + 4
   \   000034   12....       LCALL   ?L_SUB_X
    169          
    170              // Store the MAC Timer tick count for the next time through this function.
    171              previousMacTimerTick = tmp;
   \   000037   90....       MOV     DPTR,#previousMacTimerTick
   \   00003A   78..         MOV     R0,#?V0 + 0
   \   00003C   12....       LCALL   ?L_MOV_TO_X
    172              
    173              // update converted number with remaining ticks from loop and the
    174              // accumulated remainder from loop
    175              tmp = (ticks320us * 8) + remUsTicks;
    176          
    177              // Convert the 320 us ticks into milliseconds and a remainder
    178              CONVERT_320US_TO_MS_ELAPSED_REMAINDER( tmp, elapsedMSec, remUsTicks );
   \   00003F                ; Setup parameters for call to function osalMcuDivide31By16To16
   \   00003F   75..19       MOV     ?V0 + 0,#0x19
   \   000042   75..00       MOV     ?V0 + 1,#0x0
   \   000045   78..         MOV     R0,#?V0 + 0
   \   000047   12....       LCALL   ?PUSH_XSTACK_I_TWO
   \   00004A   7403         MOV     A,#0x3
   \   00004C   78..         MOV     R0,#?V0 + 4
   \   00004E   12....       LCALL   ?L_SHL
   \   000051   90....       MOV     DPTR,#remUsTicks
   \   000054   E0           MOVX    A,@DPTR
   \   000055   F5..         MOV     ?V0 + 0,A
   \   000057   A3           INC     DPTR
   \   000058   E0           MOVX    A,@DPTR
   \   000059   F5..         MOV     ?V0 + 1,A
   \   00005B   E4           CLR     A
   \   00005C   F5..         MOV     ?V0 + 2,A
   \   00005E   F5..         MOV     ?V0 + 3,A
   \   000060   78..         MOV     R0,#?V0 + 4
   \   000062   79..         MOV     R1,#?V0 + 0
   \   000064   12....       LCALL   ?L_ADD
   \   000067   AA..         MOV     R2,?V0 + 4
   \   000069   AB..         MOV     R3,?V0 + 5
   \   00006B   AC..         MOV     R4,?V0 + 6
   \   00006D   AD..         MOV     R5,?V0 + 7
   \   00006F   12....       LCALL   osalMcuDivide31By16To16 & 0xFFFF
   \   000072   7402         MOV     A,#0x2
   \   000074   12....       LCALL   ?DEALLOC_XSTACK8
   \   000077   90....       MOV     DPTR,#remUsTicks
   \   00007A   EA           MOV     A,R2
   \   00007B   F0           MOVX    @DPTR,A
   \   00007C   A3           INC     DPTR
   \   00007D   EB           MOV     A,R3
   \   00007E   F0           MOVX    @DPTR,A
    179          
    180              // Update OSAL Clock and Timers
    181              if ( elapsedMSec )
   \   00007F   EC           MOV     A,R4
   \   000080   4D           ORL     A,R5
   \   000081   603E         JZ      ??osalTimeUpdate_0
    182              {
    183                osalClockUpdate( elapsedMSec );
   \   000083   90....       MOV     DPTR,#timeMSec
   \   000086   E0           MOVX    A,@DPTR
   \   000087   2C           ADD     A,R4
   \   000088   F0           MOVX    @DPTR,A
   \   000089   A3           INC     DPTR
   \   00008A   E0           MOVX    A,@DPTR
   \   00008B   3D           ADDC    A,R5
   \   00008C   F0           MOVX    @DPTR,A
   \   00008D   90....       MOV     DPTR,#timeMSec
   \   000090   C3           CLR     C
   \   000091   E0           MOVX    A,@DPTR
   \   000092   94E8         SUBB    A,#-0x18
   \   000094   A3           INC     DPTR
   \   000095   E0           MOVX    A,@DPTR
   \   000096   9403         SUBB    A,#0x3
   \   000098   4020         JC      ??osalTimeUpdate_1
   \   00009A   12....       LCALL   ?Subroutine6 & 0xFFFF
   \                     ??CrossCallReturnLabel_7:
   \   00009D   12....       LCALL   ?US_DIV_MOD
   \   0000A0   88..         MOV     ?V0 + 0,R0
   \   0000A2   89..         MOV     ?V0 + 1,R1
   \   0000A4   90....       MOV     DPTR,#OSAL_timeSeconds
   \   0000A7   78..         MOV     R0,#?V0 + 0
   \   0000A9   12....       LCALL   ?L_ADD_TO_X
   \   0000AC   12....       LCALL   ?Subroutine6 & 0xFFFF
   \                     ??CrossCallReturnLabel_8:
   \   0000AF   12....       LCALL   ?US_DIV_MOD
   \   0000B2   90....       MOV     DPTR,#timeMSec
   \   0000B5   EA           MOV     A,R2
   \   0000B6   F0           MOVX    @DPTR,A
   \   0000B7   A3           INC     DPTR
   \   0000B8   EB           MOV     A,R3
   \   0000B9   F0           MOVX    @DPTR,A
    184                osalTimerUpdate( elapsedMSec );
   \                     ??osalTimeUpdate_1:
   \   0000BA                ; Setup parameters for call to function osalTimerUpdate
   \   0000BA   EC           MOV     A,R4
   \   0000BB   FA           MOV     R2,A
   \   0000BC   ED           MOV     A,R5
   \   0000BD   FB           MOV     R3,A
   \   0000BE   12....       LCALL   ??osalTimerUpdate?relay
    185              }
    186            }
    187          }
   \                     ??osalTimeUpdate_0:
   \   0000C1   02....       LJMP    ??Subroutine11_0 & 0xFFFF
   \   0000C4                REQUIRE _A_IEN0

   \                                 In  segment BANKED_CODE, align 1, keep-with-next
   \                     ??Subroutine11_0:
   \   000000   7F08         MOV     R7,#0x8
   \   000002   02....       LJMP    ?BANKED_LEAVE_XDATA
    188          
    189          /*********************************************************************
    190           * @fn      osalClockUpdate
    191           *
    192           * @brief   Updates the OSAL Clock time with elapsed milliseconds.
    193           *
    194           * @param   elapsedMSec - elapsed milliseconds
    195           *
    196           * @return  none
    197           */
    198          static void osalClockUpdate( uint16 elapsedMSec )
    199          {
    200            // Add elapsed milliseconds to the saved millisecond portion of time
    201            timeMSec += elapsedMSec;
    202          
    203            // Roll up milliseconds to the number of seconds
    204            if ( timeMSec >= 1000 )
    205            {
    206              OSAL_timeSeconds += timeMSec / 1000;
    207              timeMSec = timeMSec % 1000;
    208            }
    209          }
    210          
    211          /*********************************************************************
    212           * @fn      osal_setClock
    213           *
    214           * @brief   Set the new time.  This will only set the seconds portion
    215           *          of time and doesn't change the factional second counter.
    216           *
    217           * @param   newTime - number of seconds since 0 hrs, 0 minutes,
    218           *                    0 seconds, on the 1st of January 2000 UTC
    219           *
    220           * @return  none
    221           */

   \                                 In  segment BANKED_CODE, align 1, keep-with-next
    222          void osal_setClock( UTCTime newTime )
   \                     osal_setClock:
    223          {
   \   000000   74F4         MOV     A,#-0xc
   \   000002   12....       LCALL   ?BANKED_ENTER_XDATA
   \   000005                ; Saved register size: 12
   \   000005                ; Auto size: 0
   \   000005   8A..         MOV     ?V0 + 0,R2
   \   000007   8B..         MOV     ?V0 + 1,R3
   \   000009   8C..         MOV     ?V0 + 2,R4
   \   00000B   8D..         MOV     ?V0 + 3,R5
    224            OSAL_timeSeconds = newTime;
   \   00000D   90....       MOV     DPTR,#OSAL_timeSeconds
   \   000010   78..         MOV     R0,#?V0 + 0
   \   000012   12....       LCALL   ?L_MOV_TO_X
    225          }
   \   000015   7F04         MOV     R7,#0x4
   \   000017   02....       LJMP    ?BANKED_LEAVE_XDATA
    226          
    227          /*********************************************************************
    228           * @fn      osal_getClock
    229           *
    230           * @brief   Gets the current time.  This will only return the seconds
    231           *          portion of time and doesn't include the factional second
    232           *          counter.
    233           *
    234           * @param   none
    235           *
    236           * @return  number of seconds since 0 hrs, 0 minutes, 0 seconds,
    237           *          on the 1st of January 2000 UTC
    238           */

   \                                 In  segment BANKED_CODE, align 1, keep-with-next
    239          UTCTime osal_getClock( void )
   \                     osal_getClock:
    240          {
   \   000000   C082         PUSH    DPL
   \   000002   C083         PUSH    DPH
   \   000004                ; Saved register size: 2
   \   000004                ; Auto size: 0
    241            return ( OSAL_timeSeconds );
   \   000004   90....       MOV     DPTR,#OSAL_timeSeconds
   \   000007   12....       LCALL   ?XLOAD_R2345
   \   00000A   D083         POP     DPH
   \   00000C   D082         POP     DPL
   \   00000E   02....       LJMP    ?BRET
    242          }
    243          
    244          /*********************************************************************
    245           * @fn      osal_ConvertUTCTime
    246           *
    247           * @brief   Converts UTCTime to UTCTimeStruct
    248           *
    249           * @param   tm - pointer to breakdown struct
    250           *
    251           * @param   secTime - number of seconds since 0 hrs, 0 minutes,
    252           *          0 seconds, on the 1st of January 2000 UTC
    253           *
    254           * @return  none
    255           */

   \                                 In  segment BANKED_CODE, align 1, keep-with-next
    256          void osal_ConvertUTCTime( UTCTimeStruct *tm, UTCTime secTime )
   \                     osal_ConvertUTCTime:
    257          {
   \   000000   74F0         MOV     A,#-0x10
   \   000002   12....       LCALL   ?BANKED_ENTER_XDATA
   \   000005                ; Saved register size: 16
   \   000005                ; Auto size: 6
   \   000005   74FA         MOV     A,#-0x6
   \   000007   12....       LCALL   ?ALLOC_XSTACK8
   \   00000A   85..82       MOV     DPL,?XSP + 0
   \   00000D   85..83       MOV     DPH,?XSP + 1
   \   000010   EA           MOV     A,R2
   \   000011   F0           MOVX    @DPTR,A
   \   000012   A3           INC     DPTR
   \   000013   EB           MOV     A,R3
   \   000014   F0           MOVX    @DPTR,A
    258            // calculate the time less than a day - hours, minutes, seconds
    259            {
    260              uint32 day = secTime % DAY;
   \   000015   7416         MOV     A,#0x16
   \   000017   12....       LCALL   ?XSTACK_DISP0_8
   \   00001A   78..         MOV     R0,#?V0 + 0
   \   00001C   12....       LCALL   ?L_MOV_X
   \   00001F   90....       MOV     DPTR,#__Constant_15180
   \   000022   78..         MOV     R0,#?V0 + 4
   \   000024   12....       LCALL   ?L_MOV_X
   \   000027   78..         MOV     R0,#?V0 + 0
   \   000029   79..         MOV     R1,#?V0 + 4
   \   00002B   12....       LCALL   ?UL_DIV_MOD
   \   00002E   7402         MOV     A,#0x2
   \   000030   12....       LCALL   ?XSTACK_DISP0_8
   \   000033   78..         MOV     R0,#?V0 + 4
   \   000035   12....       LCALL   ?L_MOV_TO_X
    261              tm->seconds = day % 60UL;
   \   000038   7402         MOV     A,#0x2
   \   00003A   12....       LCALL   ?XSTACK_DISP0_8
   \   00003D   78..         MOV     R0,#?V0 + 4
   \   00003F   12....       LCALL   ?L_MOV_X
   \   000042   90....       MOV     DPTR,#__Constant_3c
   \   000045   78..         MOV     R0,#?V0 + 0
   \   000047   12....       LCALL   ?L_MOV_X
   \   00004A   78..         MOV     R0,#?V0 + 4
   \   00004C   79..         MOV     R1,#?V0 + 0
   \   00004E   12....       LCALL   ?UL_DIV_MOD
   \   000051   85..82       MOV     DPL,?XSP + 0
   \   000054   85..83       MOV     DPH,?XSP + 1
   \   000057   12....       LCALL   ?Subroutine8 & 0xFFFF
   \                     ??CrossCallReturnLabel_11:
   \   00005A   E5..         MOV     A,?V0 + 0
   \   00005C   F0           MOVX    @DPTR,A
    262              tm->minutes = (day % 3600UL) / 60UL;
   \   00005D   7402         MOV     A,#0x2
   \   00005F   12....       LCALL   ?XSTACK_DISP0_8
   \   000062   78..         MOV     R0,#?V0 + 4
   \   000064   12....       LCALL   ?L_MOV_X
   \   000067   90....       MOV     DPTR,#__Constant_e10
   \   00006A   78..         MOV     R0,#?V0 + 0
   \   00006C   12....       LCALL   ?L_MOV_X
   \   00006F   78..         MOV     R0,#?V0 + 4
   \   000071   79..         MOV     R1,#?V0 + 0
   \   000073   12....       LCALL   ?UL_DIV_MOD
   \   000076   90....       MOV     DPTR,#__Constant_3c
   \   000079   78..         MOV     R0,#?V0 + 4
   \   00007B   12....       LCALL   ?L_MOV_X
   \   00007E   78..         MOV     R0,#?V0 + 0
   \   000080   79..         MOV     R1,#?V0 + 4
   \   000082   12....       LCALL   ?UL_DIV_MOD
   \   000085   85..82       MOV     DPL,?XSP + 0
   \   000088   85..83       MOV     DPH,?XSP + 1
   \   00008B   12....       LCALL   ?Subroutine7 & 0xFFFF
   \                     ??CrossCallReturnLabel_9:
   \   00008E   E5..         MOV     A,?V0 + 0
   \   000090   F0           MOVX    @DPTR,A
    263              tm->hour = day / 3600UL;
   \   000091   7402         MOV     A,#0x2
   \   000093   12....       LCALL   ?XSTACK_DISP0_8
   \   000096   78..         MOV     R0,#?V0 + 0
   \   000098   12....       LCALL   ?L_MOV_X
   \   00009B   90....       MOV     DPTR,#__Constant_e10
   \   00009E   78..         MOV     R0,#?V0 + 4
   \   0000A0   12....       LCALL   ?L_MOV_X
   \   0000A3   78..         MOV     R0,#?V0 + 0
   \   0000A5   79..         MOV     R1,#?V0 + 4
   \   0000A7   12....       LCALL   ?UL_DIV_MOD
   \   0000AA   85..82       MOV     DPL,?XSP + 0
   \   0000AD   85..83       MOV     DPH,?XSP + 1
   \   0000B0   12....       LCALL   ?Subroutine4 & 0xFFFF
    264            }
   \                     ??CrossCallReturnLabel_18:
   \   0000B3   E5..         MOV     A,?V0 + 0
   \   0000B5   F0           MOVX    @DPTR,A
    265          
    266            // Fill in the calendar - day, month, year
    267            {
    268              uint16 numDays = secTime / DAY;
   \   0000B6   7416         MOV     A,#0x16
   \   0000B8   12....       LCALL   ?XSTACK_DISP0_8
   \   0000BB   78..         MOV     R0,#?V0 + 0
   \   0000BD   12....       LCALL   ?L_MOV_X
   \   0000C0   90....       MOV     DPTR,#__Constant_15180
   \   0000C3   78..         MOV     R0,#?V0 + 4
   \   0000C5   12....       LCALL   ?L_MOV_X
   \   0000C8   78..         MOV     R0,#?V0 + 0
   \   0000CA   79..         MOV     R1,#?V0 + 4
   \   0000CC   12....       LCALL   ?UL_DIV_MOD
   \   0000CF   AE..         MOV     R6,?V0 + 0
   \   0000D1   AF..         MOV     R7,?V0 + 1
    269              tm->year = BEGYEAR;
   \   0000D3   85..82       MOV     DPL,?XSP + 0
   \   0000D6   85..83       MOV     DPH,?XSP + 1
   \   0000D9   E0           MOVX    A,@DPTR
   \   0000DA   2405         ADD     A,#0x5
   \   0000DC   F5..         MOV     ?V0 + 0,A
   \   0000DE   A3           INC     DPTR
   \   0000DF   E0           MOVX    A,@DPTR
   \   0000E0   3400         ADDC    A,#0x0
   \   0000E2   F5..         MOV     ?V0 + 1,A
   \   0000E4   85..82       MOV     DPL,?V0 + 0
   \   0000E7   F583         MOV     DPH,A
   \   0000E9   74D0         MOV     A,#-0x30
   \   0000EB   F0           MOVX    @DPTR,A
   \   0000EC   A3           INC     DPTR
   \   0000ED   7407         MOV     A,#0x7
   \   0000EF   8018         SJMP    ??osal_ConvertUTCTime_0
    270              while ( numDays >= YearLength( tm->year ) )
    271              {
    272                numDays -= YearLength( tm->year );
   \                     ??osal_ConvertUTCTime_1:
   \   0000F1   786D         MOV     R0,#0x6d
   \                     ??osal_ConvertUTCTime_2:
   \   0000F3   C3           CLR     C
   \   0000F4   EE           MOV     A,R6
   \   0000F5   98           SUBB    A,R0
   \   0000F6   FE           MOV     R6,A
   \   0000F7   EF           MOV     A,R7
   \   0000F8   9401         SUBB    A,#0x1
   \   0000FA   FF           MOV     R7,A
    273                tm->year++;
   \   0000FB   85..82       MOV     DPL,?V0 + 0
   \   0000FE   85..83       MOV     DPH,?V0 + 1
   \   000101   E0           MOVX    A,@DPTR
   \   000102   2401         ADD     A,#0x1
   \   000104   F0           MOVX    @DPTR,A
   \   000105   A3           INC     DPTR
   \   000106   E0           MOVX    A,@DPTR
   \   000107   3400         ADDC    A,#0x0
   \                     ??osal_ConvertUTCTime_0:
   \   000109   12....       LCALL   ?Subroutine1 & 0xFFFF
   \                     ??CrossCallReturnLabel_20:
   \   00010C   12....       LCALL   ?US_DIV_MOD
   \   00010F   8A..         MOV     ?V0 + 4,R2
   \   000111   8B..         MOV     ?V0 + 5,R3
   \   000113   EA           MOV     A,R2
   \   000114   45..         ORL     A,?V0 + 5
   \   000116   6017         JZ      ??osal_ConvertUTCTime_3
   \   000118   EC           MOV     A,R4
   \   000119   F8           MOV     R0,A
   \   00011A   ED           MOV     A,R5
   \   00011B   F9           MOV     R1,A
   \   00011C   7A64         MOV     R2,#0x64
   \   00011E   7B00         MOV     R3,#0x0
   \   000120   12....       LCALL   ?US_DIV_MOD
   \   000123   8B..         MOV     ?V0 + 3,R3
   \   000125   EA           MOV     A,R2
   \   000126   45..         ORL     A,?V0 + 3
   \   000128   6009         JZ      ??osal_ConvertUTCTime_4
   \   00012A   EC           MOV     A,R4
   \   00012B   5403         ANL     A,#0x3
   \   00012D   7004         JNZ     ??osal_ConvertUTCTime_4
   \                     ??osal_ConvertUTCTime_3:
   \   00012F   786E         MOV     R0,#0x6e
   \   000131   8002         SJMP    ??osal_ConvertUTCTime_5
   \                     ??osal_ConvertUTCTime_4:
   \   000133   786D         MOV     R0,#0x6d
   \                     ??osal_ConvertUTCTime_5:
   \   000135   EE           MOV     A,R6
   \   000136   98           SUBB    A,R0
   \   000137   EF           MOV     A,R7
   \   000138   9401         SUBB    A,#0x1
   \   00013A   4021         JC      ??osal_ConvertUTCTime_6
   \   00013C   E5..         MOV     A,?V0 + 4
   \   00013E   45..         ORL     A,?V0 + 5
   \   000140   6017         JZ      ??osal_ConvertUTCTime_7
   \   000142   EC           MOV     A,R4
   \   000143   F8           MOV     R0,A
   \   000144   ED           MOV     A,R5
   \   000145   F9           MOV     R1,A
   \   000146   7A64         MOV     R2,#0x64
   \   000148   7B00         MOV     R3,#0x0
   \   00014A   12....       LCALL   ?US_DIV_MOD
   \   00014D   8B..         MOV     ?V0 + 3,R3
   \   00014F   EA           MOV     A,R2
   \   000150   45..         ORL     A,?V0 + 3
   \   000152   609D         JZ      ??osal_ConvertUTCTime_1
   \   000154   EC           MOV     A,R4
   \   000155   5403         ANL     A,#0x3
   \   000157   7098         JNZ     ??osal_ConvertUTCTime_1
   \                     ??osal_ConvertUTCTime_7:
   \   000159   786E         MOV     R0,#0x6e
   \   00015B   8096         SJMP    ??osal_ConvertUTCTime_2
    274              }
    275          
    276              tm->month = 0;
   \                     ??osal_ConvertUTCTime_6:
   \   00015D   85..82       MOV     DPL,?XSP + 0
   \   000160   85..83       MOV     DPH,?XSP + 1
   \   000163   E0           MOVX    A,@DPTR
   \   000164   2404         ADD     A,#0x4
   \   000166   F5..         MOV     ?V0 + 2,A
   \   000168   A3           INC     DPTR
   \   000169   E0           MOVX    A,@DPTR
   \   00016A   3400         ADDC    A,#0x0
   \   00016C   F5..         MOV     ?V0 + 3,A
   \   00016E   85..82       MOV     DPL,?V0 + 2
   \   000171   F583         MOV     DPH,A
   \   000173   E4           CLR     A
   \   000174   8012         SJMP    ??osal_ConvertUTCTime_8
    277              while ( numDays >= monthLength( IsLeapYear( tm->year ), tm->month ) )
    278              {
    279                numDays -= monthLength( IsLeapYear( tm->year ), tm->month );
   \                     ??osal_ConvertUTCTime_9:
   \   000176   7900         MOV     R1,#0x0
   \                     ??osal_ConvertUTCTime_10:
   \   000178                ; Setup parameters for call to function monthLength
   \   000178   12....       LCALL   ?Subroutine5 & 0xFFFF
   \                     ??CrossCallReturnLabel_5:
   \   00017B   FE           MOV     R6,A
   \   00017C   EF           MOV     A,R7
   \   00017D   9400         SUBB    A,#0x0
   \   00017F   FF           MOV     R7,A
    280                tm->month++;
   \   000180   85..82       MOV     DPL,?V0 + 2
   \   000183   85..83       MOV     DPH,?V0 + 3
   \   000186   E0           MOVX    A,@DPTR
   \   000187   04           INC     A
   \                     ??osal_ConvertUTCTime_8:
   \   000188   12....       LCALL   ?Subroutine1 & 0xFFFF
   \                     ??CrossCallReturnLabel_21:
   \   00018B   12....       LCALL   ?US_DIV_MOD
   \   00018E   8B..         MOV     ?V0 + 5,R3
   \   000190   EA           MOV     A,R2
   \   000191   45..         ORL     A,?V0 + 5
   \   000193   6017         JZ      ??osal_ConvertUTCTime_11
   \   000195   EC           MOV     A,R4
   \   000196   F8           MOV     R0,A
   \   000197   ED           MOV     A,R5
   \   000198   F9           MOV     R1,A
   \   000199   7A64         MOV     R2,#0x64
   \   00019B   7B00         MOV     R3,#0x0
   \   00019D   12....       LCALL   ?US_DIV_MOD
   \   0001A0   8B..         MOV     ?V0 + 5,R3
   \   0001A2   EA           MOV     A,R2
   \   0001A3   45..         ORL     A,?V0 + 5
   \   0001A5   6009         JZ      ??osal_ConvertUTCTime_12
   \   0001A7   EC           MOV     A,R4
   \   0001A8   5403         ANL     A,#0x3
   \   0001AA   7004         JNZ     ??osal_ConvertUTCTime_12
   \                     ??osal_ConvertUTCTime_11:
   \   0001AC   7901         MOV     R1,#0x1
   \   0001AE   8002         SJMP    ??osal_ConvertUTCTime_13
   \                     ??osal_ConvertUTCTime_12:
   \   0001B0   7900         MOV     R1,#0x0
   \                     ??osal_ConvertUTCTime_13:
   \   0001B2                ; Setup parameters for call to function monthLength
   \   0001B2   12....       LCALL   ?Subroutine5 & 0xFFFF
   \                     ??CrossCallReturnLabel_6:
   \   0001B5   EF           MOV     A,R7
   \   0001B6   9400         SUBB    A,#0x0
   \   0001B8   4028         JC      ??osal_ConvertUTCTime_14
   \   0001BA   12....       LCALL   ??Subroutine13_0 & 0xFFFF
    281              }
   \                     ??CrossCallReturnLabel_22:
   \   0001BD   12....       LCALL   ?US_DIV_MOD
   \   0001C0   8B..         MOV     ?V0 + 5,R3
   \   0001C2   EA           MOV     A,R2
   \   0001C3   45..         ORL     A,?V0 + 5
   \   0001C5   6017         JZ      ??osal_ConvertUTCTime_15
   \   0001C7   EC           MOV     A,R4
   \   0001C8   F8           MOV     R0,A
   \   0001C9   ED           MOV     A,R5
   \   0001CA   F9           MOV     R1,A
   \   0001CB   7A64         MOV     R2,#0x64
   \   0001CD   7B00         MOV     R3,#0x0
   \   0001CF   12....       LCALL   ?US_DIV_MOD
   \   0001D2   8B..         MOV     ?V0 + 5,R3
   \   0001D4   EA           MOV     A,R2
   \   0001D5   45..         ORL     A,?V0 + 5
   \   0001D7   609D         JZ      ??osal_ConvertUTCTime_9
   \   0001D9   EC           MOV     A,R4
   \   0001DA   5403         ANL     A,#0x3
   \   0001DC   7098         JNZ     ??osal_ConvertUTCTime_9
   \                     ??osal_ConvertUTCTime_15:
   \   0001DE   7901         MOV     R1,#0x1
   \   0001E0   8096         SJMP    ??osal_ConvertUTCTime_10
    282          
    283              tm->day = numDays;
   \                     ??osal_ConvertUTCTime_14:
   \   0001E2   85..82       MOV     DPL,?XSP + 0
   \   0001E5   85..83       MOV     DPH,?XSP + 1
   \   0001E8   12....       LCALL   ?Subroutine2 & 0xFFFF
    284            }
   \                     ??CrossCallReturnLabel_0:
   \   0001EB   EE           MOV     A,R6
   \   0001EC   F0           MOVX    @DPTR,A
    285          }
   \   0001ED   7406         MOV     A,#0x6
   \   0001EF                REQUIRE ?Subroutine0
   \   0001EF                ; // Fall through to label ?Subroutine0

   \                                 In  segment BANKED_CODE, align 1, keep-with-next
   \                     ?Subroutine0:
   \   000000   12....       LCALL   ?DEALLOC_XSTACK8
   \   000003                REQUIRE ??Subroutine11_0
   \   000003                ; // Fall through to label ??Subroutine11_0

   \                                 In  segment BANKED_CODE, align 1, keep-with-next
   \                     ?Subroutine5:
   \   000000   85..82       MOV     DPL,?V0 + 2
   \   000003   85..83       MOV     DPH,?V0 + 3
   \   000006   E0           MOVX    A,@DPTR
   \   000007   FA           MOV     R2,A
   \   000008   12....       LCALL   ??monthLength?relay
   \   00000B   E9           MOV     A,R1
   \   00000C   F8           MOV     R0,A
   \   00000D   C3           CLR     C
   \   00000E   EE           MOV     A,R6
   \   00000F   98           SUBB    A,R0
   \   000010   22           RET

   \                                 In  segment BANKED_CODE, align 1, keep-with-next
   \                     ?Subroutine4:
   \   000000   E0           MOVX    A,@DPTR
   \   000001   F8           MOV     R0,A
   \   000002                REQUIRE ??Subroutine12_0
   \   000002                ; // Fall through to label ??Subroutine12_0

   \                                 In  segment BANKED_CODE, align 1, keep-with-next
   \                     ??Subroutine12_0:
   \   000000   A3           INC     DPTR
   \   000001   E0           MOVX    A,@DPTR
   \   000002   F583         MOV     DPH,A
   \   000004   8882         MOV     DPL,R0
   \   000006   A3           INC     DPTR
   \   000007   A3           INC     DPTR
   \   000008   22           RET

   \                                 In  segment BANKED_CODE, align 1, keep-with-next
   \                     ?Subroutine1:
   \   000000   F0           MOVX    @DPTR,A
   \   000001                REQUIRE ??Subroutine13_0
   \   000001                ; // Fall through to label ??Subroutine13_0

   \                                 In  segment BANKED_CODE, align 1, keep-with-next
   \                     ??Subroutine13_0:
   \   000000   85..82       MOV     DPL,?V0 + 0
   \   000003   85..83       MOV     DPH,?V0 + 1
   \   000006   E0           MOVX    A,@DPTR
   \   000007   FC           MOV     R4,A
   \   000008   A3           INC     DPTR
   \   000009   E0           MOVX    A,@DPTR
   \   00000A   FD           MOV     R5,A
   \   00000B   EC           MOV     A,R4
   \   00000C   F8           MOV     R0,A
   \   00000D   ED           MOV     A,R5
   \   00000E   F9           MOV     R1,A
   \   00000F   7A90         MOV     R2,#-0x70
   \   000011   7B01         MOV     R3,#0x1
   \   000013   22           RET

   \                                 In  segment BANKED_CODE, align 1, keep-with-next
   \                     ?Subroutine8:
   \   000000   12....       LCALL   ?Subroutine10 & 0xFFFF
   \                     ??CrossCallReturnLabel_15:
   \   000003   22           RET

   \                                 In  segment BANKED_CODE, align 1, keep-with-next
   \                     ?Subroutine10:
   \   000000   E0           MOVX    A,@DPTR
   \   000001   F8           MOV     R0,A
   \   000002   A3           INC     DPTR
   \   000003   E0           MOVX    A,@DPTR
   \   000004   F583         MOV     DPH,A
   \   000006   8882         MOV     DPL,R0
   \   000008   22           RET

   \                                 In  segment BANKED_CODE, align 1, keep-with-next
   \                     ?Subroutine7:
   \   000000   12....       LCALL   ?Subroutine9 & 0xFFFF
   \                     ??CrossCallReturnLabel_14:
   \   000003   22           RET

   \                                 In  segment BANKED_CODE, align 1, keep-with-next
   \                     ?Subroutine9:
   \   000000   12....       LCALL   ?Subroutine10 & 0xFFFF
   \                     ??CrossCallReturnLabel_16:
   \   000003   A3           INC     DPTR
   \   000004   22           RET

   \                                 In  segment BANKED_CODE, align 1, keep-with-next
   \                     ?Subroutine2:
   \   000000   12....       LCALL   ?Subroutine9 & 0xFFFF
   \                     ??CrossCallReturnLabel_13:
   \   000003   A3           INC     DPTR
   \   000004   A3           INC     DPTR
   \   000005   22           RET
    286          
    287          /*********************************************************************
    288           * @fn      monthLength
    289           *
    290           * @param   lpyr - 1 for leap year, 0 if not
    291           *
    292           * @param   mon - 0 - 11 (jan - dec)
    293           *
    294           * @return  number of days in specified month
    295           */

   \                                 In  segment BANKED_CODE, align 1, keep-with-next
    296          static uint8 monthLength( uint8 lpyr, uint8 mon )
   \                     monthLength:
    297          {
   \   000000                ; Saved register size: 0
   \   000000                ; Auto size: 0
   \   000000   E9           MOV     A,R1
   \   000001   F8           MOV     R0,A
    298            uint8 days = 31;
   \   000002   791F         MOV     R1,#0x1f
    299          
    300          	if ( mon == 1 ) // feb
   \   000004   7401         MOV     A,#0x1
   \   000006   6A           XRL     A,R2
   \   000007   7006         JNZ     ??monthLength_0
    301            {
    302          		days = ( 28 + lpyr );
   \   000009   741C         MOV     A,#0x1c
   \   00000B   28           ADD     A,R0
   \   00000C   F9           MOV     R1,A
   \   00000D   800D         SJMP    ??monthLength_1
    303            }
    304            else
    305            {
    306              if ( mon > 6 ) // aug-dec
   \                     ??monthLength_0:
   \   00000F   EA           MOV     A,R2
   \   000010   C3           CLR     C
   \   000011   9407         SUBB    A,#0x7
   \   000013   4001         JC      ??monthLength_2
    307              {
    308                mon--;
   \   000015   1A           DEC     R2
    309              }
    310          
    311              if ( mon & 1 )
   \                     ??monthLength_2:
   \   000016   EA           MOV     A,R2
   \   000017   A2E0         MOV     C,0xE0 /* A   */.0
   \   000019   5001         JNC     ??monthLength_1
    312              {
    313                days = 30;
   \   00001B   19           DEC     R1
    314              }
    315            }
    316          
    317          	return ( days );
   \                     ??monthLength_1:
   \   00001C   02....       LJMP    ?BRET
    318          }
    319          
    320          /*********************************************************************
    321           * @fn      osal_ConvertUTCSecs
    322           *
    323           * @brief   Converts a UTCTimeStruct to UTCTime
    324           *
    325           * @param   tm - pointer to provided struct
    326           *
    327           * @return  number of seconds since 00:00:00 on 01/01/2000 (UTC)
    328           */

   \                                 In  segment BANKED_CODE, align 1, keep-with-next
    329          UTCTime osal_ConvertUTCSecs( UTCTimeStruct *tm )
   \                     osal_ConvertUTCSecs:
    330          {
   \   000000   74F0         MOV     A,#-0x10
   \   000002   12....       LCALL   ?BANKED_ENTER_XDATA
   \   000005                ; Saved register size: 16
   \   000005                ; Auto size: 3
   \   000005   74FD         MOV     A,#-0x3
   \   000007   12....       LCALL   ?ALLOC_XSTACK8
   \   00000A   7401         MOV     A,#0x1
   \   00000C   12....       LCALL   ?XSTACK_DISP0_8
   \   00000F   EA           MOV     A,R2
   \   000010   F0           MOVX    @DPTR,A
   \   000011   A3           INC     DPTR
   \   000012   EB           MOV     A,R3
   \   000013   F0           MOVX    @DPTR,A
    331            uint32 seconds;
    332          
    333            /* Seconds for the partial day */
    334            seconds = (((tm->hour * 60UL) + tm->minutes) * 60UL) + tm->seconds;
   \   000014   7401         MOV     A,#0x1
   \   000016   12....       LCALL   ?XSTACK_DISP0_8
   \   000019   12....       LCALL   ?Subroutine4 & 0xFFFF
   \                     ??CrossCallReturnLabel_19:
   \   00001C   E0           MOVX    A,@DPTR
   \   00001D   F5..         MOV     ?V0 + 0,A
   \   00001F   E4           CLR     A
   \   000020   F5..         MOV     ?V0 + 1,A
   \   000022   F5..         MOV     ?V0 + 2,A
   \   000024   F5..         MOV     ?V0 + 3,A
   \   000026   90....       MOV     DPTR,#__Constant_3c
   \   000029   78..         MOV     R0,#?V0 + 4
   \   00002B   12....       LCALL   ?L_MOV_X
   \   00002E   78..         MOV     R0,#?V0 + 0
   \   000030   79..         MOV     R1,#?V0 + 4
   \   000032   12....       LCALL   ?L_MUL
   \   000035   7401         MOV     A,#0x1
   \   000037   12....       LCALL   ?XSTACK_DISP0_8
   \   00003A   12....       LCALL   ?Subroutine7 & 0xFFFF
   \                     ??CrossCallReturnLabel_10:
   \   00003D   12....       LCALL   ?Subroutine3 & 0xFFFF
   \                     ??CrossCallReturnLabel_3:
   \   000040   12....       LCALL   ?L_ADD
   \   000043   90....       MOV     DPTR,#__Constant_3c
   \   000046   78..         MOV     R0,#?V0 + 4
   \   000048   12....       LCALL   ?L_MOV_X
   \   00004B   78..         MOV     R0,#?V0 + 0
   \   00004D   79..         MOV     R1,#?V0 + 4
   \   00004F   12....       LCALL   ?L_MUL
   \   000052   7401         MOV     A,#0x1
   \   000054   12....       LCALL   ?XSTACK_DISP0_8
   \   000057   12....       LCALL   ?Subroutine8 & 0xFFFF
   \                     ??CrossCallReturnLabel_12:
   \   00005A   12....       LCALL   ?Subroutine3 & 0xFFFF
   \                     ??CrossCallReturnLabel_4:
   \   00005D   12....       LCALL   ?L_ADD
    335          
    336            /* Account for previous complete days */
    337            {
    338              /* Start with complete days in current month */
    339              uint16 days = tm->day;
   \   000060   7401         MOV     A,#0x1
   \   000062   12....       LCALL   ?XSTACK_DISP0_8
   \   000065   12....       LCALL   ?Subroutine2 & 0xFFFF
   \                     ??CrossCallReturnLabel_1:
   \   000068   E0           MOVX    A,@DPTR
   \   000069   F5..         MOV     ?V0 + 6,A
    340          
    341              /* Next, complete months in current year */
    342              {
    343                int8 month = tm->month;
   \   00006B   7401         MOV     A,#0x1
   \   00006D   12....       LCALL   ?XSTACK_DISP0_8
   \   000070   12....       LCALL   ??Subroutine12_0 & 0xFFFF
   \                     ??CrossCallReturnLabel_17:
   \   000073   A3           INC     DPTR
   \   000074   A3           INC     DPTR
   \   000075   E0           MOVX    A,@DPTR
   \   000076   85..82       MOV     DPL,?XSP + 0
   \   000079   85..83       MOV     DPH,?XSP + 1
   \   00007C   F0           MOVX    @DPTR,A
   \   00007D   8014         SJMP    ??osal_ConvertUTCSecs_0
    344                while ( --month >= 0 )
    345                {
    346                  days += monthLength( IsLeapYear( tm->year ), month );
   \                     ??osal_ConvertUTCSecs_1:
   \   00007F   7900         MOV     R1,#0x0
   \                     ??osal_ConvertUTCSecs_2:
   \   000081                ; Setup parameters for call to function monthLength
   \   000081   E0           MOVX    A,@DPTR
   \   000082   FA           MOV     R2,A
   \   000083   12....       LCALL   ??monthLength?relay
   \   000086   E9           MOV     A,R1
   \   000087   F8           MOV     R0,A
   \   000088   E5..         MOV     A,?V0 + 6
   \   00008A   28           ADD     A,R0
   \   00008B   F5..         MOV     ?V0 + 6,A
   \   00008D   E5..         MOV     A,?V0 + 7
   \   00008F   3400         ADDC    A,#0x0
   \   000091   F5..         MOV     ?V0 + 7,A
   \                     ??osal_ConvertUTCSecs_0:
   \   000093   85..82       MOV     DPL,?XSP + 0
   \   000096   85..83       MOV     DPH,?XSP + 1
   \   000099   E0           MOVX    A,@DPTR
   \   00009A   14           DEC     A
   \   00009B   F0           MOVX    @DPTR,A
   \   00009C   7401         MOV     A,#0x1
   \   00009E   12....       LCALL   ?XSTACK_DISP0_8
   \   0000A1   12....       LCALL   ?Subroutine2 & 0xFFFF
   \                     ??CrossCallReturnLabel_2:
   \   0000A4   A3           INC     DPTR
   \   0000A5   A3           INC     DPTR
   \   0000A6   E0           MOVX    A,@DPTR
   \   0000A7   FE           MOV     R6,A
   \   0000A8   A3           INC     DPTR
   \   0000A9   E0           MOVX    A,@DPTR
   \   0000AA   FF           MOV     R7,A
   \   0000AB   85..82       MOV     DPL,?XSP + 0
   \   0000AE   85..83       MOV     DPH,?XSP + 1
   \   0000B1   E0           MOVX    A,@DPTR
   \   0000B2   C3           CLR     C
   \   0000B3   9400         SUBB    A,#0x0
   \   0000B5   A2D2         MOV     C,0xD0 /* PSW */.2
   \   0000B7   65D0         XRL     A,PSW
   \   0000B9   33           RLC     A
   \   0000BA   EE           MOV     A,R6
   \   0000BB   402C         JC      ??osal_ConvertUTCSecs_3
   \   0000BD   F8           MOV     R0,A
   \   0000BE   EF           MOV     A,R7
   \   0000BF   F9           MOV     R1,A
   \   0000C0   7A90         MOV     R2,#-0x70
   \   0000C2   7B01         MOV     R3,#0x1
   \   0000C4   12....       LCALL   ?US_DIV_MOD
   \   0000C7   8B..         MOV     ?V0 + 5,R3
   \   0000C9   EA           MOV     A,R2
   \   0000CA   45..         ORL     A,?V0 + 5
   \   0000CC   6017         JZ      ??osal_ConvertUTCSecs_4
   \   0000CE   EE           MOV     A,R6
   \   0000CF   F8           MOV     R0,A
   \   0000D0   EF           MOV     A,R7
   \   0000D1   F9           MOV     R1,A
   \   0000D2   7A64         MOV     R2,#0x64
   \   0000D4   7B00         MOV     R3,#0x0
   \   0000D6   12....       LCALL   ?US_DIV_MOD
   \   0000D9   8B..         MOV     ?V0 + 5,R3
   \   0000DB   EA           MOV     A,R2
   \   0000DC   45..         ORL     A,?V0 + 5
   \   0000DE   609F         JZ      ??osal_ConvertUTCSecs_1
   \   0000E0   EE           MOV     A,R6
   \   0000E1   5403         ANL     A,#0x3
   \   0000E3   709A         JNZ     ??osal_ConvertUTCSecs_1
   \                     ??osal_ConvertUTCSecs_4:
   \   0000E5   7901         MOV     R1,#0x1
   \   0000E7   8098         SJMP    ??osal_ConvertUTCSecs_2
    347                }
    348              }
    349          
    350              /* Next, complete years before current year */
    351              {
    352                uint16 year = tm->year;
   \                     ??osal_ConvertUTCSecs_3:
   \   0000E9   FC           MOV     R4,A
   \   0000EA   EF           MOV     A,R7
   \   0000EB   FD           MOV     R5,A
   \   0000EC   800D         SJMP    ??osal_ConvertUTCSecs_5
    353                while ( --year >= BEGYEAR )
    354                {
    355                  days += YearLength( year );
   \                     ??osal_ConvertUTCSecs_6:
   \   0000EE   786D         MOV     R0,#0x6d
   \                     ??osal_ConvertUTCSecs_7:
   \   0000F0   E5..         MOV     A,?V0 + 6
   \   0000F2   28           ADD     A,R0
   \   0000F3   F5..         MOV     ?V0 + 6,A
   \   0000F5   E5..         MOV     A,?V0 + 7
   \   0000F7   3401         ADDC    A,#0x1
   \   0000F9   F5..         MOV     ?V0 + 7,A
   \                     ??osal_ConvertUTCSecs_5:
   \   0000FB   EC           MOV     A,R4
   \   0000FC   24FF         ADD     A,#-0x1
   \   0000FE   1C           DEC     R4
   \   0000FF   ED           MOV     A,R5
   \   000100   34FF         ADDC    A,#-0x1
   \   000102   FD           MOV     R5,A
   \   000103   C3           CLR     C
   \   000104   EC           MOV     A,R4
   \   000105   94D0         SUBB    A,#-0x30
   \   000107   ED           MOV     A,R5
   \   000108   9407         SUBB    A,#0x7
   \   00010A   402D         JC      ??osal_ConvertUTCSecs_8
   \   00010C   EC           MOV     A,R4
   \   00010D   F8           MOV     R0,A
   \   00010E   ED           MOV     A,R5
   \   00010F   F9           MOV     R1,A
   \   000110   7A90         MOV     R2,#-0x70
   \   000112   7B01         MOV     R3,#0x1
   \   000114   12....       LCALL   ?US_DIV_MOD
   \   000117   8B..         MOV     ?V0 + 5,R3
   \   000119   EA           MOV     A,R2
   \   00011A   45..         ORL     A,?V0 + 5
   \   00011C   6017         JZ      ??osal_ConvertUTCSecs_9
   \   00011E   EC           MOV     A,R4
   \   00011F   F8           MOV     R0,A
   \   000120   ED           MOV     A,R5
   \   000121   F9           MOV     R1,A
   \   000122   7A64         MOV     R2,#0x64
   \   000124   7B00         MOV     R3,#0x0
   \   000126   12....       LCALL   ?US_DIV_MOD
   \   000129   8B..         MOV     ?V0 + 5,R3
   \   00012B   EA           MOV     A,R2
   \   00012C   45..         ORL     A,?V0 + 5
   \   00012E   60BE         JZ      ??osal_ConvertUTCSecs_6
   \   000130   EC           MOV     A,R4
   \   000131   5403         ANL     A,#0x3
   \   000133   70B9         JNZ     ??osal_ConvertUTCSecs_6
   \                     ??osal_ConvertUTCSecs_9:
   \   000135   786E         MOV     R0,#0x6e
   \   000137   80B7         SJMP    ??osal_ConvertUTCSecs_7
    356                }
    357              }
    358          
    359              /* Add total seconds before partial day */
    360              seconds += (days * DAY);
    361            }
    362          
    363            return ( seconds );
   \                     ??osal_ConvertUTCSecs_8:
   \   000139   C0..         PUSH    ?V0 + 0
   \   00013B   C0..         PUSH    ?V0 + 1
   \   00013D   C0..         PUSH    ?V0 + 2
   \   00013F   C0..         PUSH    ?V0 + 3
   \   000141   85....       MOV     ?V0 + 4,?V0 + 6
   \   000144   85....       MOV     ?V0 + 5,?V0 + 7
   \   000147   E4           CLR     A
   \   000148   F5..         MOV     ?V0 + 6,A
   \   00014A   F5..         MOV     ?V0 + 7,A
   \   00014C   90....       MOV     DPTR,#__Constant_15180
   \   00014F   78..         MOV     R0,#?V0 + 0
   \   000151   12....       LCALL   ?L_MOV_X
   \   000154   78..         MOV     R0,#?V0 + 4
   \   000156   79..         MOV     R1,#?V0 + 0
   \   000158   12....       LCALL   ?L_MUL
   \   00015B   D0..         POP     ?V0 + 3
   \   00015D   D0..         POP     ?V0 + 2
   \   00015F   D0..         POP     ?V0 + 1
   \   000161   D0..         POP     ?V0 + 0
   \   000163   78..         MOV     R0,#?V0 + 0
   \   000165   79..         MOV     R1,#?V0 + 4
   \   000167   12....       LCALL   ?L_ADD
   \   00016A   AA..         MOV     R2,?V0 + 0
   \   00016C   AB..         MOV     R3,?V0 + 1
   \   00016E   AC..         MOV     R4,?V0 + 2
   \   000170   AD..         MOV     R5,?V0 + 3
   \   000172   7403         MOV     A,#0x3
   \   000174   02....       LJMP    ?Subroutine0 & 0xFFFF
    364          }

   \                                 In  segment BANKED_CODE, align 1, keep-with-next
   \                     ?Subroutine3:
   \   000000   E0           MOVX    A,@DPTR
   \   000001   F5..         MOV     ?V0 + 4,A
   \   000003   E4           CLR     A
   \   000004   F5..         MOV     ?V0 + 5,A
   \   000006   F5..         MOV     ?V0 + 6,A
   \   000008   F5..         MOV     ?V0 + 7,A
   \   00000A   78..         MOV     R0,#?V0 + 0
   \   00000C   79..         MOV     R1,#?V0 + 4
   \   00000E   22           RET

   \                                 In  segment BANKED_CODE, align 1, keep-with-next
   \                     ?Subroutine6:
   \   000000   90....       MOV     DPTR,#timeMSec
   \   000003   E0           MOVX    A,@DPTR
   \   000004   F8           MOV     R0,A
   \   000005   A3           INC     DPTR
   \   000006   E0           MOVX    A,@DPTR
   \   000007   F9           MOV     R1,A
   \   000008   7AE8         MOV     R2,#-0x18
   \   00000A   7B03         MOV     R3,#0x3
   \   00000C   22           RET

   \                                 In  segment XDATA_ROM_C, align 1
   \                     __Constant_15180:
   \   000000   80510100     DD 86400

   \                                 In  segment XDATA_ROM_C, align 1
   \                     __Constant_3c:
   \   000000   3C000000     DD 60

   \                                 In  segment XDATA_ROM_C, align 1
   \                     __Constant_e10:
   \   000000   100E0000     DD 3600

   \                                 In  segment BANK_RELAYS, align 1
   \                     ??osalTimeUpdate?relay:
   \   000000   12....       LCALL   ?BDISPATCH
   \   000003   ......       DC24    osalTimeUpdate

   \                                 In  segment BANK_RELAYS, align 1
   \                     ??osal_setClock?relay:
   \   000000   12....       LCALL   ?BDISPATCH
   \   000003   ......       DC24    osal_setClock

   \                                 In  segment BANK_RELAYS, align 1
   \                     ??osal_getClock?relay:
   \   000000   12....       LCALL   ?BDISPATCH
   \   000003   ......       DC24    osal_getClock

   \                                 In  segment BANK_RELAYS, align 1
   \                     ??osal_ConvertUTCTime?relay:
   \   000000   12....       LCALL   ?BDISPATCH
   \   000003   ......       DC24    osal_ConvertUTCTime

   \                                 In  segment BANK_RELAYS, align 1
   \                     ??monthLength?relay:
   \   000000   12....       LCALL   ?BDISPATCH
   \   000003   ......       DC24    monthLength

   \                                 In  segment BANK_RELAYS, align 1
   \                     ??osal_ConvertUTCSecs?relay:
   \   000000   12....       LCALL   ?BDISPATCH
   \   000003   ......       DC24    osal_ConvertUTCSecs

   Maximum stack usage in bytes:

     Function                     ISTACK PSTACK XSTACK
     --------                     ------ ------ ------
     monthLength                      0      0     22
     osalTimeUpdate                   0      0     18
       -> macMcuPrecisionCount        0      0     32
       -> osalMcuDivide31By16To16     0      0     36
       -> osalTimerUpdate             0      0     32
     osal_ConvertUTCSecs              4      0     19
       -> monthLength                 0      0     38
     osal_ConvertUTCTime              1      0     26
       -> monthLength                 0      0     44
       -> monthLength                 0      0     44
     osal_getClock                    2      0      0
     osal_setClock                    0      0     12


   Segment part sizes:

     Function/Label              Bytes
     --------------              -----
     _A_IEN0                        1
     previousMacTimerTick           4
     remUsTicks                     2
     timeMSec                       2
     OSAL_timeSeconds               4
     osalTimeUpdate               196
     ??Subroutine11_0               5
     osal_setClock                 26
     osal_getClock                 17
     osal_ConvertUTCTime          495
     ?Subroutine0                   3
     ?Subroutine5                  17
     ?Subroutine4                   2
     ??Subroutine12_0               9
     ?Subroutine1                   1
     ??Subroutine13_0              20
     ?Subroutine8                   4
     ?Subroutine10                  9
     ?Subroutine7                   4
     ?Subroutine9                   5
     ?Subroutine2                   6
     monthLength                   31
     osal_ConvertUTCSecs          375
     ?Subroutine3                  15
     ?Subroutine6                  13
     __Constant_15180               4
     __Constant_3c                  4
     __Constant_e10                 4
     ??osalTimeUpdate?relay         6
     ??osal_setClock?relay          6
     ??osal_getClock?relay          6
     ??osal_ConvertUTCTime?relay    6
     ??monthLength?relay            6
     ??osal_ConvertUTCSecs?relay    6

 
 1 253 bytes in segment BANKED_CODE
    36 bytes in segment BANK_RELAYS
     1 byte  in segment SFR_AN
    12 bytes in segment XDATA_ROM_C
    12 bytes in segment XDATA_Z
 
 1 289 bytes of CODE  memory
     0 bytes of CONST memory (+ 12 bytes shared)
     0 bytes of DATA  memory (+  1 byte  shared)
    12 bytes of XDATA memory

Errors: none
Warnings: none
