###############################################################################
#                                                                             #
# IAR C/C++ Compiler V8.10.1.40194/W32 for 8051         25/Dec/2013  17:56:32 #
# Copyright 2004-2011 IAR Systems AB.                                         #
#                                                                             #
#    Core               =  plain                                              #
#    Code model         =  banked                                             #
#    Data model         =  large                                              #
#    Calling convention =  xdata reentrant                                    #
#    Constant location  =  data_rom                                           #
#    Dptr setup         =  1,16                                               #
#    Source file        =  E:\wise-house\Components\stack\zdo\ZDObject.c      #
#    Command line       =  -f E:\wise-house\Projects\zstack\Samples\WSN_senso #
#                          rs\CC2530DB\..\..\..\Tools\CC2530DB\f8wCoord.cfg   #
#                          (-DCPU32MHZ -DROOT=__near_func                     #
#                          -DMAC_CFG_APP_PENDING_QUEUE=TRUE                   #
#                          -DMAC_CFG_TX_DATA_MAX=5 -DMAC_CFG_TX_MAX=8         #
#                          -DMAC_CFG_RX_MAX=5 -DZDO_COORDINATOR -DRTR_NWK)    #
#                          -f E:\wise-house\Projects\zstack\Samples\WSN_senso #
#                          rs\CC2530DB\..\..\..\Tools\CC2530DB\f8wConfig.cfg  #
#                          (-DZIGBEEPRO -DSECURE=0 -DZG_SECURE_DYNAMIC=0      #
#                          -DREFLECTOR -DDEFAULT_CHANLIST=0x00000800          #
#                          -DZDAPP_CONFIG_PAN_ID=0xFFFF                       #
#                          -DNWK_START_DELAY=100 -DEXTENDED_JOINING_RANDOM_MA #
#                          SK=0x007F -DBEACON_REQUEST_DELAY=100               #
#                          -DBEACON_REQ_DELAY_MASK=0x00FF                     #
#                          -DLINK_STATUS_JITTER_MASK=0x007F                   #
#                          -DROUTE_EXPIRY_TIME=30 -DAPSC_ACK_WAIT_DURATION_PO #
#                          LLED=3000 -DNWK_INDIRECT_MSG_TIMEOUT=7             #
#                          -DMAX_RREQ_ENTRIES=8 -DAPSC_MAX_FRAME_RETRIES=3    #
#                          -DNWK_MAX_DATA_RETRIES=2                           #
#                          -DMAX_POLL_FAILURE_RETRIES=2 -DMAX_BCAST=9         #
#                          -DAPS_MAX_GROUPS=16 -DMAX_RTG_ENTRIES=40           #
#                          -DNWK_MAX_BINDING_ENTRIES=4                        #
#                          -DMAX_BINDING_CLUSTER_IDS=4 "-DDEFAULT_KEY={0x01,  #
#                          0x03, 0x05, 0x07, 0x09, 0x0B, 0x0D, 0x0F, 0x00,    #
#                          0x02, 0x04, 0x06, 0x08, 0x0A, 0x0C, 0x0D}"         #
#                          -DMAC_MAX_FRAME_SIZE=116                           #
#                          -DZDNWKMGR_MIN_TRANSMISSIONS=20 "-DCONST=const     #
#                          __code" -DGENERIC=__generic                        #
#                          -DRFD_RCVC_ALWAYS_ON=FALSE -DPOLL_RATE=1000        #
#                          -DQUEUED_POLL_RATE=100 -DRESPONSE_POLL_RATE=100)   #
#                          -DREJOIN_POLL_RATE=440 E:\wise-house\Components\st #
#                          ack\zdo\ZDObject.c -D ZTOOL_P1 -D MT_TASK -D       #
#                          MT_SYS_FUNC -D MT_ZDO_FUNC -D LCD_SUPPORTED=DEBUG  #
#                          -D HAL_UART=TRUE -D xSERIAL_APP_PORT=0 -lC         #
#                          E:\wise-house\Projects\zstack\Samples\WSN_sensors\ #
#                          CC2530DB\CoordinatorEB\List\ -lA                   #
#                          E:\wise-house\Projects\zstack\Samples\WSN_sensors\ #
#                          CC2530DB\CoordinatorEB\List\ --diag_suppress       #
#                          Pe001,Pa010 -o E:\wise-house\Projects\zstack\Sampl #
#                          es\WSN_sensors\CC2530DB\CoordinatorEB\Obj\ -e      #
#                          --debug --core=plain --dptr=16,1                   #
#                          --data_model=large --code_model=banked             #
#                          --calling_convention=xdata_reentrant               #
#                          --place_constants=data_rom --nr_virtual_regs 8 -I  #
#                          E:\wise-house\Projects\zstack\Samples\WSN_sensors\ #
#                          CC2530DB\ -I E:\wise-house\Projects\zstack\Samples #
#                          \WSN_sensors\CC2530DB\..\SOURCE\ -I                #
#                          E:\wise-house\Projects\zstack\Samples\WSN_sensors\ #
#                          CC2530DB\..\..\..\ZMAIN\TI2530DB\ -I               #
#                          E:\wise-house\Projects\zstack\Samples\WSN_sensors\ #
#                          CC2530DB\..\..\..\..\..\COMPONENTS\MT\ -I          #
#                          E:\wise-house\Projects\zstack\Samples\WSN_sensors\ #
#                          CC2530DB\..\..\..\..\..\COMPONENTS\HAL\INCLUDE\    #
#                          -I E:\wise-house\Projects\zstack\Samples\WSN_senso #
#                          rs\CC2530DB\..\..\..\..\..\COMPONENTS\HAL\TARGET\C #
#                          C2530EB\ -I E:\wise-house\Projects\zstack\Samples\ #
#                          WSN_sensors\CC2530DB\..\..\..\..\..\COMPONENTS\OSA #
#                          L\MCU\CCSOC\ -I E:\wise-house\Projects\zstack\Samp #
#                          les\WSN_sensors\CC2530DB\..\..\..\..\..\COMPONENTS #
#                          \OSAL\INCLUDE\ -I E:\wise-house\Projects\zstack\Sa #
#                          mples\WSN_sensors\CC2530DB\..\..\..\..\..\COMPONEN #
#                          TS\STACK\AF\ -I E:\wise-house\Projects\zstack\Samp #
#                          les\WSN_sensors\CC2530DB\..\..\..\..\..\COMPONENTS #
#                          \STACK\NWK\ -I E:\wise-house\Projects\zstack\Sampl #
#                          es\WSN_sensors\CC2530DB\..\..\..\..\..\COMPONENTS\ #
#                          STACK\SEC\ -I E:\wise-house\Projects\zstack\Sample #
#                          s\WSN_sensors\CC2530DB\..\..\..\..\..\COMPONENTS\S #
#                          TACK\SAPI\ -I E:\wise-house\Projects\zstack\Sample #
#                          s\WSN_sensors\CC2530DB\..\..\..\..\..\COMPONENTS\S #
#                          TACK\SYS\ -I E:\wise-house\Projects\zstack\Samples #
#                          \WSN_sensors\CC2530DB\..\..\..\..\..\COMPONENTS\ST #
#                          ACK\ZDO\ -I E:\wise-house\Projects\zstack\Samples\ #
#                          WSN_sensors\CC2530DB\..\..\..\..\..\COMPONENTS\ZMA #
#                          C\F8W\ -I E:\wise-house\Projects\zstack\Samples\WS #
#                          N_sensors\CC2530DB\..\..\..\..\..\COMPONENTS\ZMAC\ #
#                           -I E:\wise-house\Projects\zstack\Samples\WSN_sens #
#                          ors\CC2530DB\..\..\..\..\..\COMPONENTS\SERVICES\SA #
#                          DDR\ -I E:\wise-house\Projects\zstack\Samples\WSN_ #
#                          sensors\CC2530DB\..\..\..\..\..\COMPONENTS\SERVICE #
#                          S\SDATA\ -I E:\wise-house\Projects\zstack\Samples\ #
#                          WSN_sensors\CC2530DB\..\..\..\..\..\COMPONENTS\MAC #
#                          \INCLUDE\ -I E:\wise-house\Projects\zstack\Samples #
#                          \WSN_sensors\CC2530DB\..\..\..\..\..\COMPONENTS\MA #
#                          C\HIGH_LEVEL\ -I E:\wise-house\Projects\zstack\Sam #
#                          ples\WSN_sensors\CC2530DB\..\..\..\..\..\COMPONENT #
#                          S\MAC\LOW_LEVEL\srf04\ -I                          #
#                          E:\wise-house\Projects\zstack\Samples\WSN_sensors\ #
#                          CC2530DB\..\..\..\..\..\COMPONENTS\MAC\LOW_LEVEL\s #
#                          rf04\SINGLE_CHIP\ -Ohz --require_prototypes        #
#    List file          =  E:\wise-house\Projects\zstack\Samples\WSN_sensors\ #
#                          CC2530DB\CoordinatorEB\List\ZDObject.lst           #
#    Object file        =  E:\wise-house\Projects\zstack\Samples\WSN_sensors\ #
#                          CC2530DB\CoordinatorEB\Obj\ZDObject.r51            #
#                                                                             #
#                                                                             #
###############################################################################

E:\wise-house\Components\stack\zdo\ZDObject.c
      1          /**************************************************************************************************
      2            Filename:       ZDObject.c
      3            Revised:        $Date: 2011-07-13 10:55:53 -0700 (Wed, 13 Jul 2011) $
      4            Revision:       $Revision: 26766 $
      5          
      6            Description:    This is the Zigbee Device Object.
      7          
      8          
      9            Copyright 2004-2011 Texas Instruments Incorporated. All rights reserved.
     10          
     11            IMPORTANT: Your use of this Software is limited to those specific rights
     12            granted under the terms of a software license agreement between the user
     13            who downloaded the software, his/her employer (which must be your employer)
     14            and Texas Instruments Incorporated (the "License"). You may not use this
     15            Software unless you agree to abide by the terms of the License. The License
     16            limits your use, and you acknowledge, that the Software may not be modified,
     17            copied or distributed unless embedded on a Texas Instruments microcontroller
     18            or used solely and exclusively in conjunction with a Texas Instruments radio
     19            frequency transceiver, which is integrated into your product. Other than for
     20            the foregoing purpose, you may not use, reproduce, copy, prepare derivative
     21            works of, modify, distribute, perform, display or sell this Software and/or
     22            its documentation for any purpose.
     23          
     24            YOU FURTHER ACKNOWLEDGE AND AGREE THAT THE SOFTWARE AND DOCUMENTATION ARE
     25            PROVIDED “AS IS” WITHOUT WARRANTY OF ANY KIND, EITHER EXPRESS OR IMPLIED,
     26            INCLUDING WITHOUT LIMITATION, ANY WARRANTY OF MERCHANTABILITY, TITLE,
     27            NON-INFRINGEMENT AND FITNESS FOR A PARTICULAR PURPOSE. IN NO EVENT SHALL
     28            TEXAS INSTRUMENTS OR ITS LICENSORS BE LIABLE OR OBLIGATED UNDER CONTRACT,
     29            NEGLIGENCE, STRICT LIABILITY, CONTRIBUTION, BREACH OF WARRANTY, OR OTHER
     30            LEGAL EQUITABLE THEORY ANY DIRECT OR INDIRECT DAMAGES OR EXPENSES
     31            INCLUDING BUT NOT LIMITED TO ANY INCIDENTAL, SPECIAL, INDIRECT, PUNITIVE
     32            OR CONSEQUENTIAL DAMAGES, LOST PROFITS OR LOST DATA, COST OF PROCUREMENT
     33            OF SUBSTITUTE GOODS, TECHNOLOGY, SERVICES, OR ANY CLAIMS BY THIRD PARTIES
     34            (INCLUDING BUT NOT LIMITED TO ANY DEFENSE THEREOF), OR OTHER SIMILAR COSTS.
     35          
     36            Should you have any questions regarding your right to use this Software,
     37            contact Texas Instruments Incorporated at www.TI.com.
     38          **************************************************************************************************/
     39          
     40          /*********************************************************************
     41           * INCLUDES
     42           */
     43          #include "ZComdef.h"
     44          #include "OSAL.h"
     45          #include "OSAL_Nv.h"
     46          #include "rtg.h"
     47          #include "NLMEDE.h"
     48          #include "nwk_globals.h"
     49          #include "APS.h"
     50          #include "APSMEDE.h"
     51          #include "AssocList.h"
     52          #include "BindingTable.h"
     53          #include "AddrMgr.h"
     54          #include "AF.h"
     55          #include "ZDObject.h"
     56          #include "ZDProfile.h"
     57          #include "ZDConfig.h"
     58          #include "ZDSecMgr.h"
     59          #include "ZDApp.h"
     60          #include "nwk_util.h"   // NLME_IsAddressBroadcast()
     61          #include "ZGlobals.h"
     62          #if defined MT_ZDO_CB_FUNC
     63          #include "MT.h"
     64          #endif
     65          
     66          #if defined( LCD_SUPPORTED )
     67            #include "OnBoard.h"
     68          #endif
     69          
     70          /* HAL */
     71          #include "hal_lcd.h"
     72          
     73          /*********************************************************************
     74           * MACROS
     75           */
     76          
     77          /*********************************************************************
     78           * CONSTANTS
     79           */
     80          // NLME Stub Implementations
     81          #define ZDO_ProcessMgmtPermitJoinTimeout NLME_PermitJoiningTimeout
     82          
     83          // Status fields used by ZDO_ProcessMgmtRtgReq
     84          #define ZDO_MGMT_RTG_ENTRY_ACTIVE             0x00
     85          #define ZDO_MGMT_RTG_ENTRY_DISCOVERY_UNDERWAY 0x01
     86          #define ZDO_MGMT_RTG_ENTRY_DISCOVERY_FAILED   0x02
     87          #define ZDO_MGMT_RTG_ENTRY_INACTIVE           0x03
     88          
     89          /*********************************************************************
     90           * TYPEDEFS
     91           */
     92          #if defined ( REFLECTOR )
     93          typedef struct
     94          {
     95            byte SrcTransSeq;
     96            zAddrType_t SrcAddr;
     97            uint16 LocalCoordinator;
     98            byte epIntf;
     99            uint16 ProfileID;
    100            byte numInClusters;
    101            uint16 *inClusters;
    102            byte numOutClusters;
    103            uint16 *outClusters;
    104            byte SecurityUse;
    105            byte status;
    106          } ZDO_EDBind_t;
    107          #endif // defined ( REFLECTOR )
    108          
    109          enum
    110          {
    111            ZDMATCH_INIT,           // Initialized
    112            ZDMATCH_WAIT_REQ,       // Received first request, waiting for second
    113            ZDMATCH_SENDING_BINDS   // Received both requests, sending unbind/binds
    114          };
    115          
    116          enum
    117          {
    118            ZDMATCH_SENDING_NOT,
    119            ZDMATCH_SENDING_UNBIND,
    120            ZDMATCH_SENDING_BIND
    121          };
    122          
    123          /*********************************************************************
    124           * GLOBAL VARIABLES
    125           */
    126          
    127          /*********************************************************************
    128           * EXTERNAL VARIABLES
    129           */
    130          
    131          /*********************************************************************
    132           * EXTERNAL FUNCTIONS
    133           */
    134          
    135          /*********************************************************************
    136           * LOCAL VARIABLES
    137           */

   \                                 In  segment XDATA_Z, align 1, keep-with-next
    138          static uint16 ZDOBuildBuf[26];  // temp area to build data without allocation
   \                     ZDOBuildBuf:
   \   000000                DS 52
   \   000034                REQUIRE __INIT_XDATA_Z
    139          
    140          #if defined ( REFLECTOR )

   \                                 In  segment XDATA_Z, align 1, keep-with-next
    141          static ZDO_EDBind_t *ZDO_EDBind;     // Null when not used
   \                     ZDO_EDBind:
   \   000000                DS 2
   \   000002                REQUIRE __INIT_XDATA_Z
    142          #endif
    143          
    144          #if defined ( MANAGED_SCAN )
    145            uint32 managedScanNextChannel = 0;
    146            uint32 managedScanChannelMask = 0;
    147            uint8  managedScanTimesPerChannel = 0;
    148          #endif
    149          

   \                                 In  segment XDATA_Z, align 1, keep-with-next
    150          ZDMatchEndDeviceBind_t *matchED = (ZDMatchEndDeviceBind_t *)NULL;
   \                     matchED:
   \   000000                DS 2
   \   000002                REQUIRE __INIT_XDATA_Z
    151          

   \                                 In  segment XDATA_Z, align 1, keep-with-next
    152          uint32 apsChannelMask = 0;
   \                     apsChannelMask:
   \   000000                DS 4
   \   000004                REQUIRE __INIT_XDATA_Z
    153          
    154          /*********************************************************************
    155           * LOCAL FUNCTIONS
    156           */
    157          static void ZDODeviceSetup( void );
    158          #if defined ( MANAGED_SCAN )
    159            static void ZDOManagedScan_Next( void );
    160          #endif
    161          #if defined ( REFLECTOR )
    162            static void ZDO_RemoveEndDeviceBind( void );
    163            static void ZDO_SendEDBindRsp( byte TransSeq, zAddrType_t *dstAddr, byte Status, byte secUse );
    164          #endif
    165          static byte ZDO_CompareClusterLists( byte numList1, uint16 *list1,
    166                                          byte numList2, uint16 *list2, uint16 *pMatches );
    167          static void ZDO_RemoveMatchMemory( void );
    168          static uint8 ZDO_CopyMatchInfo( ZDEndDeviceBind_t *destReq, ZDEndDeviceBind_t *srcReq );
    169          static void ZDO_EndDeviceBindMatchTimeoutCB( void );
    170          uint8 *ZDO_ConvertOTAClusters( uint8 cnt, uint8 *inBuf, uint16 *outList );
    171          static void zdoSendStateChangeMsg(uint8 state, uint8 taskId);
    172          
    173          /*********************************************************************
    174           * @fn          ZDO_Init
    175           *
    176           * @brief       ZDObject and ZDProfile initialization.
    177           *
    178           * @param       none
    179           *
    180           * @return      none
    181           */

   \                                 In  segment BANKED_CODE, align 1, keep-with-next
    182          void ZDO_Init( void )
   \                     ZDO_Init:
    183          {
   \   000000   C082         PUSH    DPL
   \   000002   C083         PUSH    DPH
   \   000004                ; Saved register size: 2
   \   000004                ; Auto size: 0
    184            // Initialize ZD items
    185            #if defined ( REFLECTOR )
    186            ZDO_EDBind = NULL;
   \   000004   90....       MOV     DPTR,#ZDO_EDBind
   \   000007   E4           CLR     A
   \   000008   F0           MOVX    @DPTR,A
   \   000009   A3           INC     DPTR
   \   00000A   F0           MOVX    @DPTR,A
    187            #endif
    188          
    189            // Initialize default ZDO_UseExtendedPANID to the APS one.
    190            osal_cpyExtAddr( ZDO_UseExtendedPANID, AIB_apsUseExtendedPANID );
   \   00000B                ; Setup parameters for call to function sAddrExtCpy
   \   00000B   7C..         MOV     R4,#AIB_apsUseExtendedPANID & 0xff
   \   00000D   7D..         MOV     R5,#(AIB_apsUseExtendedPANID >> 8) & 0xff
   \   00000F   7A..         MOV     R2,#ZDO_UseExtendedPANID & 0xff
   \   000011   7B..         MOV     R3,#(ZDO_UseExtendedPANID >> 8) & 0xff
   \   000013   12....       LCALL   ??sAddrExtCpy?relay
    191          
    192            // Setup the device - type of device to create.
    193            ZDODeviceSetup();
   \   000016                ; Setup parameters for call to function NLME_CoordinatorInit
   \   000016   12....       LCALL   ??NLME_CoordinatorInit?relay
   \   000019                ; Setup parameters for call to function APS_ReflectorInit
   \   000019   7900         MOV     R1,#0x0
   \   00001B   12....       LCALL   ??APS_ReflectorInit?relay
    194          }
   \   00001E   02....       LJMP    ?Subroutine0 & 0xFFFF

   \                                 In  segment BANKED_CODE, align 1, keep-with-next
   \                     ?Subroutine0:
   \   000000   D083         POP     DPH
   \   000002   D082         POP     DPL
   \   000004   02....       LJMP    ?BRET
    195          
    196          #if defined ( MANAGED_SCAN )
    197          /*********************************************************************
    198           * @fn      ZDOManagedScan_Next()
    199           *
    200           * @brief   Setup a managed scan.
    201           *
    202           * @param   none
    203           *
    204           * @return  none
    205           */
    206          static void ZDOManagedScan_Next( void )
    207          {
    208            // Is it the first time
    209            if ( managedScanNextChannel == 0 && managedScanTimesPerChannel == 0 )
    210            {
    211              // Setup the defaults
    212              managedScanNextChannel  = 1;
    213          
    214              while( managedScanNextChannel && (zgDefaultChannelList & managedScanNextChannel) == 0 )
    215                managedScanNextChannel <<= 1;
    216          
    217              managedScanChannelMask = managedScanNextChannel;
    218              managedScanTimesPerChannel = MANAGEDSCAN_TIMES_PRE_CHANNEL;
    219            }
    220            else
    221            {
    222              // Do we need to go to the next channel
    223              if ( managedScanTimesPerChannel == 0 )
    224              {
    225                // Find next active channel
    226                managedScanChannelMask  = managedScanNextChannel;
    227                managedScanTimesPerChannel = MANAGEDSCAN_TIMES_PRE_CHANNEL;
    228              }
    229              else
    230              {
    231                managedScanTimesPerChannel--;
    232          
    233                if ( managedScanTimesPerChannel == 0 )
    234                {
    235                  managedScanNextChannel  <<= 1;
    236                  while( managedScanNextChannel && (zgDefaultChannelList & managedScanNextChannel) == 0 )
    237                    managedScanNextChannel <<= 1;
    238          
    239                  if ( managedScanNextChannel == 0 )
    240                    zdoDiscCounter  = NUM_DISC_ATTEMPTS + 1; // Stop
    241                }
    242              }
    243            }
    244          }
    245          #endif // MANAGED_SCAN
    246          
    247          /*********************************************************************
    248           * @fn      ZDODeviceSetup()
    249           *
    250           * @brief   Call set functions depending on the type of device compiled.
    251           *
    252           * @param   none
    253           *
    254           * @return  none
    255           */
    256          static void ZDODeviceSetup( void )
    257          {
    258            if ( ZG_BUILD_COORDINATOR_TYPE )
    259            {
    260              NLME_CoordinatorInit();
    261            }
    262          
    263          #if defined ( REFLECTOR )
    264            APS_ReflectorInit( (ZG_DEVICE_COORDINATOR_TYPE) ? APS_REFLECTOR_PUBLIC :  APS_REFLECTOR_PRIVATE );
    265          #endif
    266          
    267            if ( ZG_BUILD_JOINING_TYPE )
    268            {
    269              NLME_DeviceJoiningInit();
    270            }
    271          }
    272          
    273          /*********************************************************************
    274           * @fn          ZDO_StartDevice
    275           *
    276           * @brief       This function starts a device in a network.
    277           *
    278           * @param       logicalType     - Device type to start
    279           *              startMode       - indicates mode of device startup
    280           *              beaconOrder     - indicates time betwen beacons
    281           *              superframeOrder - indicates length of active superframe
    282           *
    283           * @return      none
    284           */

   \                                 In  segment BANKED_CODE, align 1, keep-with-next
    285          void ZDO_StartDevice( byte logicalType, devStartModes_t startMode, byte beaconOrder, byte superframeOrder )
   \                     ZDO_StartDevice:
    286          {
   \   000000   74F5         MOV     A,#-0xb
   \   000002   12....       LCALL   ?BANKED_ENTER_XDATA
   \   000005                ; Saved register size: 11
   \   000005                ; Auto size: 0
   \   000005   EA           MOV     A,R2
   \   000006   FF           MOV     R7,A
   \   000007   EB           MOV     A,R3
   \   000008   FE           MOV     R6,A
    287            ZStatus_t ret;
    288          #if defined ( ZIGBEE_FREQ_AGILITY )
    289            static uint8 discRetries = 0;
    290          #endif
    291          #if defined ( ZIGBEE_COMMISSIONING )
    292            static uint8 scanCnt = 0;
    293          #endif
    294          
    295            ret = ZUnsupportedMode;
    296          
    297            if ( ZG_BUILD_COORDINATOR_TYPE && logicalType == NODETYPE_COORDINATOR )
   \   000009   E9           MOV     A,R1
   \   00000A   7043         JNZ     ??ZDO_StartDevice_0
    298            {
    299              if ( startMode == MODE_HARD )
   \   00000C   7402         MOV     A,#0x2
   \   00000E   6F           XRL     A,R7
   \   00000F   7053         JNZ     ??ZDO_StartDevice_1
    300              {
    301                devState = DEV_COORD_STARTING;
   \   000011   90....       MOV     DPTR,#devState
   \   000014   7408         MOV     A,#0x8
   \   000016   F0           MOVX    @DPTR,A
    302                ret = NLME_NetworkFormationRequest( zgConfigPANID, zgApsUseExtendedPANID, zgDefaultChannelList,
    303                                                    zgDefaultStartingScanDuration, beaconOrder,
    304                                                    superframeOrder, false );
   \   000017                ; Setup parameters for call to function NLME_NetworkFormationRequest
   \   000017   75..00       MOV     ?V0 + 2,#0x0
   \   00001A   78..         MOV     R0,#?V0 + 2
   \   00001C   12....       LCALL   ?PUSH_XSTACK_I_ONE
   \   00001F   EC           MOV     A,R4
   \   000020   F5..         MOV     ?V0 + 2,A
   \   000022   78..         MOV     R0,#?V0 + 2
   \   000024   12....       LCALL   ?PUSH_XSTACK_I_ONE
   \   000027   EE           MOV     A,R6
   \   000028   F5..         MOV     ?V0 + 2,A
   \   00002A   78..         MOV     R0,#?V0 + 2
   \   00002C   12....       LCALL   ?PUSH_XSTACK_I_ONE
   \   00002F   90....       MOV     DPTR,#zgDefaultChannelList
   \   000032   12....       LCALL   ?PUSH_XSTACK8_X_FOUR
   \   000035   90....       MOV     DPTR,#zgDefaultStartingScanDuration
   \   000038   E0           MOVX    A,@DPTR
   \   000039   F9           MOV     R1,A
   \   00003A   7C..         MOV     R4,#zgApsUseExtendedPANID & 0xff
   \   00003C   7D..         MOV     R5,#(zgApsUseExtendedPANID >> 8) & 0xff
   \   00003E   90....       MOV     DPTR,#zgConfigPANID
   \   000041   12....       LCALL   ??Subroutine214_0 & 0xFFFF
    305              }
   \                     ??CrossCallReturnLabel_381:
   \   000044   12....       LCALL   ??NLME_NetworkFormationRequest?relay
   \   000047   7407         MOV     A,#0x7
   \   000049   12....       LCALL   ?DEALLOC_XSTACK8
   \                     ??ZDO_StartDevice_2:
   \   00004C   E9           MOV     A,R1
    306              else if ( startMode == MODE_RESUME )
    307              {
    308                // Just start the coordinator
    309                devState = DEV_COORD_STARTING;
    310                ret = NLME_StartRouterRequest( beaconOrder, beaconOrder, false );
    311              }
    312              else
    313              {
    314          #if defined( LCD_SUPPORTED )
    315                HalLcdWriteScreen( "StartDevice ERR", "MODE unknown" );
    316          #endif
    317              }
    318            }
    319          
    320            if ( ZG_BUILD_JOINING_TYPE && (logicalType == NODETYPE_ROUTER || logicalType == NODETYPE_DEVICE) )
    321            {
    322              if ( (startMode == MODE_JOIN) || (startMode == MODE_REJOIN) )
    323              {
    324                devState = DEV_NWK_DISC;
    325          
    326            #if defined( MANAGED_SCAN )
    327                ZDOManagedScan_Next();
    328                ret = NLME_NetworkDiscoveryRequest( managedScanChannelMask, BEACON_ORDER_15_MSEC );
    329            #else
    330                ret = NLME_NetworkDiscoveryRequest( zgDefaultChannelList, zgDefaultStartingScanDuration );
    331              #if defined ( ZIGBEE_FREQ_AGILITY )
    332                if ( !( ZDO_Config_Node_Descriptor.CapabilityFlags & CAPINFO_RCVR_ON_IDLE ) &&
    333                      ( ret == ZSuccess ) && ( ++discRetries == 4 ) )
    334                {
    335                  // For devices with RxOnWhenIdle equals to FALSE, any network channel
    336                  // change will not be recieved. On these devices or routers that have
    337                  // lost the network, an active scan shall be conducted on the Default
    338                  // Channel list using the extended PANID to find the network. If the
    339                  // extended PANID isn't found using the Default Channel list, an scan
    340                  // should be completed using all channels.
    341                  zgDefaultChannelList = MAX_CHANNELS_24GHZ;
    342                }
    343              #endif // ZIGBEE_FREQ_AGILITY
    344              #if defined ( ZIGBEE_COMMISSIONING )
    345                if (startMode == MODE_REJOIN && scanCnt++ >= 5 )
    346                {
    347                  // When ApsUseExtendedPanID is commissioned to a non zero value via
    348                  // application specific means, the device shall conduct an active scan
    349                  // on the Default Channel list and join the PAN with the same
    350                  // ExtendedPanID. If the PAN is not found, an scan should be completed
    351                  // on all channels.
    352                  // When devices rejoin the network and the PAN is not found from
    353                  zgDefaultChannelList = MAX_CHANNELS_24GHZ;
    354                }
    355              #endif // ZIGBEE_COMMISSIONING
    356            #endif
    357              }
    358              else if ( startMode == MODE_RESUME )
    359              {
    360                if ( logicalType == NODETYPE_ROUTER )
    361                {
    362                  ZMacScanCnf_t scanCnf;
    363                  devState = DEV_NWK_ORPHAN;
    364          
    365                  /* if router and nvram is available, fake successful orphan scan */
    366                  scanCnf.hdr.Status = ZSUCCESS;
    367                  scanCnf.ScanType = ZMAC_ORPHAN_SCAN;
    368                  scanCnf.UnscannedChannels = 0;
    369                  scanCnf.ResultListSize = 0;
    370                  nwk_ScanJoiningOrphan(&scanCnf);
    371          
    372                  ret = ZSuccess;
    373                }
    374                else
    375                {
    376                  devState = DEV_NWK_ORPHAN;
    377                  ret = NLME_OrphanJoinRequest( zgDefaultChannelList,
    378                                                zgDefaultStartingScanDuration );
    379                }
    380              }
    381              else
    382              {
    383          #if defined( LCD_SUPPORTED )
    384                HalLcdWriteScreen( "StartDevice ERR", "MODE unknown" );
    385          #endif
    386              }
    387            }
    388          
    389            if ( ret != ZSuccess )
   \   00004D   6010         JZ      ??ZDO_StartDevice_3
    390            {
    391              osal_start_timerEx(ZDAppTaskID, ZDO_NETWORK_INIT, NWK_RETRY_DELAY );
   \                     ??ZDO_StartDevice_0:
   \   00004F                ; Setup parameters for call to function osal_start_timerEx
   \   00004F   7CE8         MOV     R4,#-0x18
   \   000051   7D03         MOV     R5,#0x3
   \   000053   7A01         MOV     R2,#0x1
   \   000055   7B00         MOV     R3,#0x0
   \   000057   90....       MOV     DPTR,#ZDAppTaskID
   \   00005A   E0           MOVX    A,@DPTR
   \   00005B   F9           MOV     R1,A
   \   00005C   12....       LCALL   ??osal_start_timerEx?relay
    392            }
    393          }
   \                     ??ZDO_StartDevice_3:
   \   00005F   7F03         MOV     R7,#0x3
   \   000061   02....       LJMP    ?BANKED_LEAVE_XDATA
   \                     ??ZDO_StartDevice_1:
   \   000064   7401         MOV     A,#0x1
   \   000066   6F           XRL     A,R7
   \   000067   7010         JNZ     ??ZDO_StartDevice_4
   \   000069   90....       MOV     DPTR,#devState
   \   00006C   7408         MOV     A,#0x8
   \   00006E   F0           MOVX    @DPTR,A
   \   00006F                ; Setup parameters for call to function NLME_StartRouterRequest
   \   00006F   7B00         MOV     R3,#0x0
   \   000071   EE           MOV     A,R6
   \   000072   FA           MOV     R2,A
   \   000073   F9           MOV     R1,A
   \   000074   12....       LCALL   ??NLME_StartRouterRequest?relay
   \   000077   80D3         SJMP    ??ZDO_StartDevice_2
   \                     ??ZDO_StartDevice_4:
   \   000079                ; Setup parameters for call to function HalLcdWriteScreen
   \   000079   7C..         MOV     R4,#`?<Constant "MODE unknown">` & 0xff
   \   00007B   7D..         MOV     R5,#(`?<Constant "MODE unknown">` >> 8) & 0xff
   \   00007D   7A..         MOV     R2,#`?<Constant "StartDevice ERR">` & 0xff
   \   00007F   7B..         MOV     R3,#(`?<Constant "StartDevice ERR">` >> 8) & 0xff
   \   000081   12....       LCALL   ??HalLcdWriteScreen?relay
   \   000084   80C9         SJMP    ??ZDO_StartDevice_0

   \                                 In  segment BANKED_CODE, align 1, keep-with-next
   \                     ??Subroutine214_0:
   \   000000   12....       LCALL   ??Subroutine228_0 & 0xFFFF
   \                     ??CrossCallReturnLabel_475:
   \   000003   22           RET

   \                                 In  segment BANKED_CODE, align 1, keep-with-next
   \                     ??Subroutine228_0:
   \   000000   E0           MOVX    A,@DPTR
   \   000001   FA           MOV     R2,A
   \   000002   A3           INC     DPTR
   \   000003   E0           MOVX    A,@DPTR
   \   000004   FB           MOV     R3,A
   \   000005   22           RET
    394          
    395          /**************************************************************************************************
    396           * @fn          zdoSendStateChangeMsg
    397           *
    398           * @brief       Helper function for ZDO_UpdateNwkStatus.
    399           *
    400           * input parameters
    401           *
    402           * @param       taskId - The OSAL task identifier to which to send the ZDO_STATE_CHANGE_EVT.
    403           * @param       state - The current device state.
    404           *
    405           * output parameters
    406           *
    407           * None.
    408           *
    409           * @return      None.
    410           **************************************************************************************************
    411           */
    412          static void zdoSendStateChangeMsg(uint8 state, uint8 taskId)
    413          {
    414            osal_event_hdr_t *pMsg = (osal_event_hdr_t *)osal_msg_find(taskId, ZDO_STATE_CHANGE);
    415          
    416            if (NULL == pMsg)
    417            {
    418              if (NULL == (pMsg = (osal_event_hdr_t *)osal_msg_allocate(sizeof(osal_event_hdr_t))))
    419              {
    420                // Upon failure to notify any EndPoint of the state change, re-set the ZDO event to
    421                // try again later when more Heap may be available.
    422                osal_set_event(ZDAppTaskID, ZDO_STATE_CHANGE_EVT);
    423              }
    424              else
    425              {
    426                pMsg->event = ZDO_STATE_CHANGE;
    427                pMsg->status = state;
    428          
    429                (void)osal_msg_send(taskId, (uint8 *)pMsg);
    430              }
    431            }
    432            else
    433            {
    434              // Modify in place the status of an existing ZDO_STATE_CHANGE message to the EndPoint.
    435              pMsg->status = state;
    436            }
    437          }
    438          
    439          /**************************************************************************************************
    440           * @fn          ZDO_UpdateNwkStatus
    441           *
    442           * @brief       This function sends a ZDO_STATE_CHANGE message to the task of every EndPoint
    443           *              registered with AF (except, of course, the ZDO_EP). Even if a single task has more
    444           *              than one registered EndPoint, it will only receive one notification per state
    445           *              change. Although the device may go through a sequence of state changes, the
    446           *              Application task may only receive notification of the final, steady-state state
    447           *              because it has the lowest priority and never even runs to receive the intermediate
    448           *              state change notifications.
    449           *
    450           * input parameters
    451           *
    452           * @param       state - The current device state.
    453           *
    454           * output parameters
    455           *
    456           * None.
    457           *
    458           * @return      None.
    459           **************************************************************************************************
    460           */

   \                                 In  segment BANKED_CODE, align 1, keep-with-next
    461          void ZDO_UpdateNwkStatus(devStates_t state)
   \                     ZDO_UpdateNwkStatus:
    462          {
   \   000000   74F4         MOV     A,#-0xc
   \   000002   12....       LCALL   ?BANKED_ENTER_XDATA
   \   000005                ; Saved register size: 12
   \   000005                ; Auto size: 0
   \   000005   89..         MOV     ?V0 + 0,R1
    463            epList_t *pItem = epList;
   \   000007   90....       MOV     DPTR,#epList
   \   00000A   800C         SJMP    ??ZDO_UpdateNwkStatus_0
    464          
    465            while (pItem != NULL)
    466            {
    467              if (pItem->epDesc->endPoint != ZDO_EP)
    468              {
    469                zdoSendStateChangeMsg(state, *(pItem->epDesc->task_id));
   \                     ??ZDO_UpdateNwkStatus_1:
   \   00000C   8A82         MOV     DPL,R2
   \   00000E   8B83         MOV     DPH,R3
   \   000010   A3           INC     DPTR
   \   000011   E5..         MOV     A,?V0 + 0
   \   000013   F0           MOVX    @DPTR,A
    470              }
    471          
    472              pItem = pItem->nextDesc;
   \                     ??ZDO_UpdateNwkStatus_2:
   \   000014   8E82         MOV     DPL,R6
   \   000016   8F83         MOV     DPH,R7
   \                     ??ZDO_UpdateNwkStatus_0:
   \   000018   12....       LCALL   ??Subroutine205_0 & 0xFFFF
   \                     ??CrossCallReturnLabel_348:
   \   00001B   EE           MOV     A,R6
   \   00001C   4F           ORL     A,R7
   \   00001D   6045         JZ      ??ZDO_UpdateNwkStatus_3
   \   00001F   8E82         MOV     DPL,R6
   \   000021   8F83         MOV     DPH,R7
   \   000023   A3           INC     DPTR
   \   000024   A3           INC     DPTR
   \   000025   12....       LCALL   ?Subroutine101 & 0xFFFF
   \                     ??CrossCallReturnLabel_197:
   \   000028   60EA         JZ      ??ZDO_UpdateNwkStatus_2
   \   00002A   12....       LCALL   ?Subroutine73 & 0xFFFF
    473            }
   \                     ??CrossCallReturnLabel_399:
   \   00002D   F5..         MOV     ?V0 + 1,A
   \   00002F                ; Setup parameters for call to function osal_msg_find
   \   00002F   7AD1         MOV     R2,#-0x2f
   \   000031   F9           MOV     R1,A
   \   000032   12....       LCALL   ??osal_msg_find?relay
   \   000035   EA           MOV     A,R2
   \   000036   4B           ORL     A,R3
   \   000037   70D3         JNZ     ??ZDO_UpdateNwkStatus_1
   \   000039                ; Setup parameters for call to function osal_msg_allocate
   \   000039   7A02         MOV     R2,#0x2
   \   00003B   7B00         MOV     R3,#0x0
   \   00003D   12....       LCALL   ??osal_msg_allocate?relay
   \   000040   EA           MOV     A,R2
   \   000041   4B           ORL     A,R3
   \   000042   700E         JNZ     ??ZDO_UpdateNwkStatus_4
   \   000044                ; Setup parameters for call to function osal_set_event
   \   000044   7A10         MOV     R2,#0x10
   \   000046   7B00         MOV     R3,#0x0
   \   000048   90....       MOV     DPTR,#ZDAppTaskID
   \   00004B   E0           MOVX    A,@DPTR
   \   00004C   F9           MOV     R1,A
   \   00004D   12....       LCALL   ??osal_set_event?relay
   \   000050   80C2         SJMP    ??ZDO_UpdateNwkStatus_2
   \                     ??ZDO_UpdateNwkStatus_4:
   \   000052   8A82         MOV     DPL,R2
   \   000054   8B83         MOV     DPH,R3
   \   000056   74D1         MOV     A,#-0x2f
   \   000058   F0           MOVX    @DPTR,A
   \   000059   A3           INC     DPTR
   \   00005A   E5..         MOV     A,?V0 + 0
   \   00005C   F0           MOVX    @DPTR,A
   \   00005D                ; Setup parameters for call to function osal_msg_send
   \   00005D   A9..         MOV     R1,?V0 + 1
   \   00005F   12....       LCALL   ??osal_msg_send?relay
   \   000062   80B0         SJMP    ??ZDO_UpdateNwkStatus_2
    474          #if defined MT_ZDO_CB_FUNC
    475            zdoSendStateChangeMsg(state, MT_TaskID);
    476          #endif
    477          
    478            ZDAppNwkAddr.addr.shortAddr = NLME_GetShortAddr();
   \                     ??ZDO_UpdateNwkStatus_3:
   \   000064                ; Setup parameters for call to function NLME_GetShortAddr
   \   000064   12....       LCALL   ??NLME_GetShortAddr?relay
   \   000067   90....       MOV     DPTR,#ZDAppNwkAddr
   \   00006A   12....       LCALL   ?Subroutine39 & 0xFFFF
    479            (void)NLME_GetExtAddr();  // Load the saveExtAddr pointer.
   \                     ??CrossCallReturnLabel_55:
   \   00006D                ; Setup parameters for call to function NLME_GetExtAddr
   \   00006D   12....       LCALL   ??NLME_GetExtAddr?relay
    480          }
   \   000070                REQUIRE ?Subroutine1
   \   000070                ; // Fall through to label ?Subroutine1

   \                                 In  segment BANKED_CODE, align 1, keep-with-next
   \                     ?Subroutine1:
   \   000000   7F04         MOV     R7,#0x4
   \   000002   02....       LJMP    ?BANKED_LEAVE_XDATA

   \                                 In  segment BANKED_CODE, align 1, keep-with-next
   \                     ?Subroutine101:
   \   000000   12....       LCALL   ??Subroutine219_0 & 0xFFFF
   \                     ??CrossCallReturnLabel_416:
   \   000003   22           RET

   \                                 In  segment BANKED_CODE, align 1, keep-with-next
   \                     ??Subroutine205_0:
   \   000000   12....       LCALL   ??Subroutine230_0 & 0xFFFF
   \                     ??CrossCallReturnLabel_495:
   \   000003   22           RET

   \                                 In  segment BANKED_CODE, align 1, keep-with-next
   \                     ?Subroutine39:
   \   000000   EA           MOV     A,R2
   \   000001   F0           MOVX    @DPTR,A
   \   000002   A3           INC     DPTR
   \   000003   EB           MOV     A,R3
   \   000004   F0           MOVX    @DPTR,A
   \   000005   22           RET

   \                                 In  segment BANKED_CODE, align 1, keep-with-next
   \                     ?Subroutine73:
   \   000000   A3           INC     DPTR
   \   000001                REQUIRE ??Subroutine215_0
   \   000001                ; // Fall through to label ??Subroutine215_0

   \                                 In  segment BANKED_CODE, align 1, keep-with-next
   \                     ??Subroutine215_0:
   \   000000   12....       LCALL   ?Subroutine162 & 0xFFFF
   \                     ??CrossCallReturnLabel_403:
   \   000003   22           RET

   \                                 In  segment BANKED_CODE, align 1, keep-with-next
   \                     ?Subroutine162:
   \   000000   12....       LCALL   ?Subroutine193 & 0xFFFF
   \                     ??CrossCallReturnLabel_666:
   \   000003   E0           MOVX    A,@DPTR
   \   000004   22           RET

   \                                 In  segment BANKED_CODE, align 1, keep-with-next
   \                     ?Subroutine193:
   \   000000   E0           MOVX    A,@DPTR
   \   000001                REQUIRE ??Subroutine216_0
   \   000001                ; // Fall through to label ??Subroutine216_0

   \                                 In  segment BANKED_CODE, align 1, keep-with-next
   \                     ??Subroutine216_0:
   \   000000   F8           MOV     R0,A
   \   000001                REQUIRE ??Subroutine217_0
   \   000001                ; // Fall through to label ??Subroutine217_0

   \                                 In  segment BANKED_CODE, align 1, keep-with-next
   \                     ??Subroutine217_0:
   \   000000   A3           INC     DPTR
   \   000001   E0           MOVX    A,@DPTR
   \   000002   F583         MOV     DPH,A
   \   000004   8882         MOV     DPL,R0
   \   000006   22           RET

   \                                 In  segment BANKED_CODE, align 1, keep-with-next
   \                     ??Subroutine219_0:
   \   000000   E0           MOVX    A,@DPTR
   \   000001   F8           MOV     R0,A
   \   000002   A3           INC     DPTR
   \   000003   E0           MOVX    A,@DPTR
   \   000004   F9           MOV     R1,A
   \   000005   8882         MOV     DPL,R0
   \   000007   8983         MOV     DPH,R1
   \   000009   E0           MOVX    A,@DPTR
   \   00000A   22           RET

   \                                 In  segment BANKED_CODE, align 1, keep-with-next
   \                     ??Subroutine230_0:
   \   000000   E0           MOVX    A,@DPTR
   \   000001   FE           MOV     R6,A
   \   000002   A3           INC     DPTR
   \   000003   E0           MOVX    A,@DPTR
   \   000004   FF           MOV     R7,A
   \   000005   22           RET
    481          
    482          #if defined ( REFLECTOR )
    483          /*********************************************************************
    484           * @fn          ZDO_RemoveEndDeviceBind
    485           *
    486           * @brief       Remove the end device bind
    487           *
    488           * @param  none
    489           *
    490           * @return      none
    491           */
    492          static void ZDO_RemoveEndDeviceBind( void )
    493          {
    494            if ( ZDO_EDBind != NULL )
    495            {
    496              // Free the RAM
    497              if ( ZDO_EDBind->inClusters != NULL )
    498              {
    499                osal_mem_free( ZDO_EDBind->inClusters );
    500              }
    501              if ( ZDO_EDBind->outClusters != NULL )
    502              {
    503                osal_mem_free( ZDO_EDBind->outClusters );
    504              }
    505              osal_mem_free( ZDO_EDBind );
    506              ZDO_EDBind = NULL;
    507            }
    508          }
    509          #endif // REFLECTOR
    510          
    511          #if defined ( REFLECTOR )
    512          /*********************************************************************
    513           * @fn          ZDO_RemoveEndDeviceBind
    514           *
    515           * @brief       Remove the end device bind
    516           *
    517           * @param  none
    518           *
    519           * @return      none
    520           */
    521          static void ZDO_SendEDBindRsp( byte TransSeq, zAddrType_t *dstAddr, byte Status, byte secUse )
    522          {
    523            ZDP_EndDeviceBindRsp( TransSeq, dstAddr, Status, secUse );
    524          
    525          #if defined( LCD_SUPPORTED )
    526            HalLcdWriteString( "End Device Bind", HAL_LCD_LINE_1 );
    527            if ( Status == ZDP_SUCCESS )
    528            {
    529              HalLcdWriteString( "Success Sent", HAL_LCD_LINE_2 );
    530            }
    531            else
    532            {
    533              HalLcdWriteString( "Timeout", HAL_LCD_LINE_2 );
    534            }
    535          #endif
    536          
    537          }
    538          #endif // REFLECTOR
    539          
    540          /*********************************************************************
    541           * @fn          ZDO_CompareClusterLists
    542           *
    543           * @brief       Compare one list to another list
    544           *
    545           * @param       numList1 - number of items in list 1
    546           * @param       list1 - first list of cluster IDs
    547           * @param       numList2 - number of items in list 2
    548           * @param       list2 - second list of cluster IDs
    549           * @param       pMatches - buffer to put matches
    550           *
    551           * @return      number of matches
    552           */

   \                                 In  segment BANKED_CODE, align 1, keep-with-next
    553          static byte ZDO_CompareClusterLists( byte numList1, uint16 *list1,
   \                     ZDO_CompareClusterLists:
    554                                    byte numList2, uint16 *list2, uint16 *pMatches )
    555          {
   \   000000   74F0         MOV     A,#-0x10
   \   000002   12....       LCALL   ?BANKED_ENTER_XDATA
   \   000005                ; Saved register size: 16
   \   000005                ; Auto size: 0
   \   000005   E9           MOV     A,R1
   \   000006   FD           MOV     R5,A
   \   000007   8A..         MOV     ?V0 + 6,R2
   \   000009   8B..         MOV     ?V0 + 7,R3
   \   00000B   7410         MOV     A,#0x10
   \   00000D   12....       LCALL   ?XSTACK_DISP0_8
   \   000010   12....       LCALL   ??Subroutine205_0 & 0xFFFF
   \                     ??CrossCallReturnLabel_349:
   \   000013   7412         MOV     A,#0x12
   \   000015   12....       LCALL   ?XSTACK_DISP0_8
   \   000018   12....       LCALL   ??Subroutine199_0 & 0xFFFF
    556            byte x, y;
    557            uint16 z;
    558            byte numMatches = 0;
   \                     ??CrossCallReturnLabel_326:
   \   00001B   7A00         MOV     R2,#0x0
    559          
    560            // Check the first in against the seconds out
    561            for ( x = 0; x < numList1; x++ )
   \   00001D   7B00         MOV     R3,#0x0
   \   00001F   8055         SJMP    ??ZDO_CompareClusterLists_0
    562            {
    563              for ( y = 0; y < numList2; y++ )
    564              {
    565                z = list2[y];
   \                     ??ZDO_CompareClusterLists_1:
   \   000021   E5..         MOV     A,?V0 + 4
   \   000023   C3           CLR     C
   \   000024   33           RLC     A
   \   000025   F8           MOV     R0,A
   \   000026   E4           CLR     A
   \   000027   33           RLC     A
   \   000028   F9           MOV     R1,A
   \   000029   EE           MOV     A,R6
   \   00002A   28           ADD     A,R0
   \   00002B   F582         MOV     DPL,A
   \   00002D   EF           MOV     A,R7
   \   00002E   39           ADDC    A,R1
   \   00002F   F583         MOV     DPH,A
   \   000031   E0           MOVX    A,@DPTR
   \   000032   F5..         MOV     ?V0 + 2,A
   \   000034   A3           INC     DPTR
   \   000035   E0           MOVX    A,@DPTR
   \   000036   F5..         MOV     ?V0 + 3,A
    566                if ( list1[x] == z )
   \   000038   EB           MOV     A,R3
   \   000039   C3           CLR     C
   \   00003A   33           RLC     A
   \   00003B   F8           MOV     R0,A
   \   00003C   E4           CLR     A
   \   00003D   33           RLC     A
   \   00003E   F9           MOV     R1,A
   \   00003F   E5..         MOV     A,?V0 + 6
   \   000041   28           ADD     A,R0
   \   000042   F582         MOV     DPL,A
   \   000044   E5..         MOV     A,?V0 + 7
   \   000046   39           ADDC    A,R1
   \   000047   F583         MOV     DPH,A
   \   000049   E0           MOVX    A,@DPTR
   \   00004A   65..         XRL     A,?V0 + 2
   \   00004C   7004         JNZ     ??ZDO_CompareClusterLists_2
   \   00004E   A3           INC     DPTR
   \   00004F   E0           MOVX    A,@DPTR
   \   000050   65..         XRL     A,?V0 + 3
   \                     ??ZDO_CompareClusterLists_2:
   \   000052   7019         JNZ     ??ZDO_CompareClusterLists_3
    567                {
    568                  pMatches[numMatches++] = z;
   \   000054   EA           MOV     A,R2
   \   000055   C3           CLR     C
   \   000056   33           RLC     A
   \   000057   F8           MOV     R0,A
   \   000058   E4           CLR     A
   \   000059   33           RLC     A
   \   00005A   F9           MOV     R1,A
   \   00005B   E5..         MOV     A,?V0 + 0
   \   00005D   28           ADD     A,R0
   \   00005E   F582         MOV     DPL,A
   \   000060   E5..         MOV     A,?V0 + 1
   \   000062   39           ADDC    A,R1
   \   000063   F583         MOV     DPH,A
   \   000065   E5..         MOV     A,?V0 + 2
   \   000067   F0           MOVX    @DPTR,A
   \   000068   A3           INC     DPTR
   \   000069   E5..         MOV     A,?V0 + 3
   \   00006B   F0           MOVX    @DPTR,A
   \   00006C   0A           INC     R2
    569                }
    570              }
   \                     ??ZDO_CompareClusterLists_3:
   \   00006D   05..         INC     ?V0 + 4
   \                     ??ZDO_CompareClusterLists_4:
   \   00006F   E5..         MOV     A,?V0 + 4
   \   000071   C3           CLR     C
   \   000072   9C           SUBB    A,R4
   \   000073   40AC         JC      ??ZDO_CompareClusterLists_1
   \   000075   0B           INC     R3
   \                     ??ZDO_CompareClusterLists_0:
   \   000076   EB           MOV     A,R3
   \   000077   C3           CLR     C
   \   000078   9D           SUBB    A,R5
   \   000079   5005         JNC     ??ZDO_CompareClusterLists_5
   \   00007B   75..00       MOV     ?V0 + 4,#0x0
   \   00007E   80EF         SJMP    ??ZDO_CompareClusterLists_4
    571            }
    572          
    573            return ( numMatches );
   \                     ??ZDO_CompareClusterLists_5:
   \   000080   EA           MOV     A,R2
   \   000081   F9           MOV     R1,A
   \   000082   02....       LJMP    ??Subroutine211_0 & 0xFFFF
    574          }

   \                                 In  segment BANKED_CODE, align 1, keep-with-next
   \                     ??Subroutine199_0:
   \   000000   12....       LCALL   ?Subroutine166 & 0xFFFF
   \                     ??CrossCallReturnLabel_329:
   \   000003   22           RET

   \                                 In  segment BANKED_CODE, align 1, keep-with-next
   \                     ?Subroutine166:
   \   000000   E0           MOVX    A,@DPTR
   \   000001   F5..         MOV     ?V0 + 0,A
   \   000003   A3           INC     DPTR
   \   000004   E0           MOVX    A,@DPTR
   \   000005   F5..         MOV     ?V0 + 1,A
   \   000007   22           RET

   \                                 In  segment BANKED_CODE, align 1, keep-with-next
   \                     ??Subroutine211_0:
   \   000000   7F08         MOV     R7,#0x8
   \   000002   02....       LJMP    ?BANKED_LEAVE_XDATA
    575          
    576          /*********************************************************************
    577           * Utility functions
    578           */
    579          
    580          /*********************************************************************
    581           * @fn          ZDO_CompareByteLists
    582           *
    583           * @brief       Compares two lists for matches.
    584           *
    585           * @param       ACnt  - number of entries in list A
    586           * @param       AList  - List A
    587           * @param       BCnt  - number of entries in list B
    588           * @param       BList  - List B
    589           *
    590           * @return      true if a match is found
    591           */

   \                                 In  segment BANKED_CODE, align 1, keep-with-next
    592          byte ZDO_AnyClusterMatches( byte ACnt, uint16 *AList, byte BCnt, uint16 *BList )
   \                     ZDO_AnyClusterMatches:
    593          {
   \   000000   74F4         MOV     A,#-0xc
   \   000002   12....       LCALL   ?BANKED_ENTER_XDATA
   \   000005                ; Saved register size: 12
   \   000005                ; Auto size: 0
   \   000005   E9           MOV     A,R1
   \   000006   FE           MOV     R6,A
   \   000007   EC           MOV     A,R4
   \   000008   FF           MOV     R7,A
   \   000009   740C         MOV     A,#0xc
   \   00000B   12....       LCALL   ?XSTACK_DISP0_8
   \   00000E   12....       LCALL   ??Subroutine221_0 & 0xFFFF
    594            byte x, y;
    595          
    596            for ( x = 0; x < ACnt; x++ )
   \                     ??CrossCallReturnLabel_418:
   \   000011   75..00       MOV     ?V0 + 3,#0x0
   \   000014   8002         SJMP    ??ZDO_AnyClusterMatches_0
   \                     ??ZDO_AnyClusterMatches_1:
   \   000016   05..         INC     ?V0 + 3
   \                     ??ZDO_AnyClusterMatches_0:
   \   000018   E5..         MOV     A,?V0 + 3
   \   00001A   C3           CLR     C
   \   00001B   9E           SUBB    A,R6
   \   00001C   5033         JNC     ??ZDO_AnyClusterMatches_2
    597            {
    598              for ( y = 0; y < BCnt; y++ )
   \   00001E   75..00       MOV     ?V0 + 2,#0x0
   \   000021   8002         SJMP    ??ZDO_AnyClusterMatches_3
   \                     ??ZDO_AnyClusterMatches_4:
   \   000023   05..         INC     ?V0 + 2
   \                     ??ZDO_AnyClusterMatches_3:
   \   000025   E5..         MOV     A,?V0 + 2
   \   000027   C3           CLR     C
   \   000028   9F           SUBB    A,R7
   \   000029   50EB         JNC     ??ZDO_AnyClusterMatches_1
    599              {
    600                if ( AList[x] == BList[y] )
   \   00002B   E5..         MOV     A,?V0 + 3
   \   00002D   C3           CLR     C
   \   00002E   33           RLC     A
   \   00002F   FC           MOV     R4,A
   \   000030   E4           CLR     A
   \   000031   33           RLC     A
   \   000032   FD           MOV     R5,A
   \   000033   EA           MOV     A,R2
   \   000034   2C           ADD     A,R4
   \   000035   F582         MOV     DPL,A
   \   000037   EB           MOV     A,R3
   \   000038   3D           ADDC    A,R5
   \   000039   12....       LCALL   ?Subroutine109 & 0xFFFF
   \                     ??CrossCallReturnLabel_327:
   \   00003C   E5..         MOV     A,?V0 + 2
   \   00003E   C3           CLR     C
   \   00003F   12....       LCALL   ??Subroutine249_0 & 0xFFFF
   \                     ??CrossCallReturnLabel_634:
   \   000042   E0           MOVX    A,@DPTR
   \   000043   65..         XRL     A,?V0 + 0
   \   000045   7004         JNZ     ??ZDO_AnyClusterMatches_5
   \   000047   A3           INC     DPTR
   \   000048   E0           MOVX    A,@DPTR
   \   000049   65..         XRL     A,?V0 + 1
   \                     ??ZDO_AnyClusterMatches_5:
   \   00004B   70D6         JNZ     ??ZDO_AnyClusterMatches_4
    601                {
    602                  return true;
   \   00004D   7901         MOV     R1,#0x1
   \   00004F   8002         SJMP    ??ZDO_AnyClusterMatches_6
    603                }
    604              }
    605            }
    606          
    607            return false;
   \                     ??ZDO_AnyClusterMatches_2:
   \   000051   7900         MOV     R1,#0x0
   \                     ??ZDO_AnyClusterMatches_6:
   \   000053   02....       LJMP    ?Subroutine1 & 0xFFFF
    608          }

   \                                 In  segment BANKED_CODE, align 1, keep-with-next
   \                     ?Subroutine109:
   \   000000   F583         MOV     DPH,A
   \   000002                REQUIRE ??Subroutine199_0
   \   000002                ; // Fall through to label ??Subroutine199_0

   \                                 In  segment BANKED_CODE, align 1, keep-with-next
   \                     ??Subroutine221_0:
   \   000000   12....       LCALL   ?Subroutine167 & 0xFFFF
   \                     ??CrossCallReturnLabel_461:
   \   000003   22           RET

   \                                 In  segment BANKED_CODE, align 1, keep-with-next
   \                     ?Subroutine167:
   \   000000   E0           MOVX    A,@DPTR
   \   000001   F8           MOV     R0,A
   \   000002   A3           INC     DPTR
   \   000003   E0           MOVX    A,@DPTR
   \   000004   F9           MOV     R1,A
   \   000005   22           RET

   \                                 In  segment BANKED_CODE, align 1, keep-with-next
   \                     ??Subroutine249_0:
   \   000000   33           RLC     A
   \   000001   FC           MOV     R4,A
   \   000002   E4           CLR     A
   \   000003   33           RLC     A
   \   000004   FD           MOV     R5,A
   \   000005   E8           MOV     A,R0
   \   000006   2C           ADD     A,R4
   \   000007   F582         MOV     DPL,A
   \   000009   E9           MOV     A,R1
   \   00000A   3D           ADDC    A,R5
   \   00000B   F583         MOV     DPH,A
   \   00000D   22           RET
    609          
    610          /*********************************************************************
    611           * Callback functions from ZDProfile
    612           */
    613          
    614          /*********************************************************************
    615           * @fn          ZDO_ProcessNodeDescReq
    616           *
    617           * @brief       This function processes and responds to the
    618           *              Node_Desc_req message.
    619           *
    620           * @param       inMsg - incoming message
    621           *
    622           * @return      none
    623           */

   \                                 In  segment BANKED_CODE, align 1, keep-with-next
    624          void ZDO_ProcessNodeDescReq( zdoIncomingMsg_t *inMsg )
   \                     ZDO_ProcessNodeDescReq:
    625          {
   \   000000   74F6         MOV     A,#-0xa
   \   000002   12....       LCALL   ?BANKED_ENTER_XDATA
   \   000005                ; Saved register size: 10
   \   000005                ; Auto size: 0
   \   000005   12....       LCALL   ?Subroutine63 & 0xFFFF
    626            uint16 aoi = BUILD_UINT16( inMsg->asdu[0], inMsg->asdu[1] );
    627            NodeDescriptorFormat_t *desc = NULL;
    628          
    629            if ( aoi == ZDAppNwkAddr.addr.shortAddr )
   \                     ??CrossCallReturnLabel_134:
   \   000008   7003         JNZ     ??ZDO_ProcessNodeDescReq_0
   \   00000A   A3           INC     DPTR
   \   00000B   E0           MOVX    A,@DPTR
   \   00000C   6D           XRL     A,R5
   \                     ??ZDO_ProcessNodeDescReq_0:
   \   00000D   7017         JNZ     ??ZDO_ProcessNodeDescReq_1
    630            {
    631              desc = &ZDO_Config_Node_Descriptor;
    632            }
    633          
    634            if ( desc != NULL )
    635            {
    636              ZDP_NodeDescMsg( inMsg, aoi, desc );
   \   00000F                ; Setup parameters for call to function ZDP_NodeDescMsg
   \   00000F   75....       MOV     ?V0 + 0,#ZDO_Config_Node_Descriptor & 0xff
   \   000012   75....       MOV     ?V0 + 1,#(ZDO_Config_Node_Descriptor >> 8) & 0xff
   \   000015   78..         MOV     R0,#?V0 + 0
   \   000017   12....       LCALL   ?PUSH_XSTACK_I_TWO
   \   00001A   EE           MOV     A,R6
   \   00001B   FA           MOV     R2,A
   \   00001C   12....       LCALL   ??ZDP_NodeDescMsg?relay
   \   00001F   7402         MOV     A,#0x2
   \   000021   12....       LCALL   ?DEALLOC_XSTACK8
   \   000024   801A         SJMP    ??ZDO_ProcessNodeDescReq_2
    637            }
    638            else
    639            {
    640              ZDP_GenericRsp( inMsg->TransSeq, &(inMsg->srcAddr),
    641                        ZDP_INVALID_REQTYPE, aoi, Node_Desc_rsp, inMsg->SecurityUse );
   \                     ??ZDO_ProcessNodeDescReq_1:
   \   000026                ; Setup parameters for call to function ZDP_GenericRsp
   \   000026   75..02       MOV     ?V0 + 0,#0x2
   \   000029   75..80       MOV     ?V0 + 1,#-0x80
   \   00002C   78..         MOV     R0,#?V0 + 0
   \   00002E   12....       LCALL   ?PUSH_XSTACK_I_TWO
   \   000031   8C..         MOV     ?V0 + 0,R4
   \   000033   8D..         MOV     ?V0 + 1,R5
   \   000035   78..         MOV     R0,#?V0 + 0
   \   000037   12....       LCALL   ?PUSH_XSTACK_I_TWO
   \   00003A   12....       LCALL   ?Subroutine61 & 0xFFFF
    642            }
   \                     ??CrossCallReturnLabel_129:
   \   00003D   12....       LCALL   ?DEALLOC_XSTACK8
    643          }
   \                     ??ZDO_ProcessNodeDescReq_2:
   \   000040   80..         SJMP    ??Subroutine201_0

   \                                 In  segment BANKED_CODE, align 1, keep-with-next
   \                     ??Subroutine201_0:
   \   000000   7F02         MOV     R7,#0x2
   \   000002   02....       LJMP    ?BANKED_LEAVE_XDATA

   \                                 In  segment BANKED_CODE, align 1, keep-with-next
   \                     ?Subroutine63:
   \   000000   EA           MOV     A,R2
   \   000001   FE           MOV     R6,A
   \   000002   EB           MOV     A,R3
   \   000003   FF           MOV     R7,A
   \   000004   EE           MOV     A,R6
   \   000005   2413         ADD     A,#0x13
   \   000007   F582         MOV     DPL,A
   \   000009   EF           MOV     A,R7
   \   00000A   12....       LCALL   ?Subroutine159 & 0xFFFF
   \                     ??CrossCallReturnLabel_417:
   \   00000D   FA           MOV     R2,A
   \   00000E   A3           INC     DPTR
   \   00000F   E0           MOVX    A,@DPTR
   \   000010   F9           MOV     R1,A
   \   000011   EA           MOV     A,R2
   \   000012   2400         ADD     A,#0x0
   \   000014   FC           MOV     R4,A
   \   000015   E4           CLR     A
   \   000016   39           ADDC    A,R1
   \   000017   FD           MOV     R5,A
   \   000018   90....       MOV     DPTR,#ZDAppNwkAddr
   \   00001B   E0           MOVX    A,@DPTR
   \   00001C   6C           XRL     A,R4
   \   00001D   22           RET

   \                                 In  segment BANKED_CODE, align 1, keep-with-next
   \                     ?Subroutine61:
   \   000000   EE           MOV     A,R6
   \   000001   240E         ADD     A,#0xe
   \   000003   12....       LCALL   ?Subroutine179 & 0xFFFF
   \                     ??CrossCallReturnLabel_579:
   \   000006   FD           MOV     R5,A
   \   000007   7C80         MOV     R4,#-0x80
   \   000009   12....       LCALL   ?Subroutine181 & 0xFFFF
   \                     ??CrossCallReturnLabel_307:
   \   00000C   12....       LCALL   ?Subroutine179 & 0xFFFF
   \                     ??CrossCallReturnLabel_580:
   \   00000F   F9           MOV     R1,A
   \   000010   12....       LCALL   ??ZDP_GenericRsp?relay
   \   000013   7404         MOV     A,#0x4
   \   000015   22           RET

   \                                 In  segment BANKED_CODE, align 1, keep-with-next
   \                     ?Subroutine181:
   \   000000   EE           MOV     A,R6
   \   000001   2402         ADD     A,#0x2
   \   000003   FA           MOV     R2,A
   \   000004   EF           MOV     A,R7
   \   000005   3400         ADDC    A,#0x0
   \   000007   FB           MOV     R3,A
   \   000008   EE           MOV     A,R6
   \   000009   240F         ADD     A,#0xf
   \   00000B   22           RET

   \                                 In  segment BANKED_CODE, align 1, keep-with-next
   \                     ?Subroutine159:
   \   000000   3400         ADDC    A,#0x0
   \   000002   F583         MOV     DPH,A
   \   000004                REQUIRE ??Subroutine219_0
   \   000004                ; // Fall through to label ??Subroutine219_0

   \                                 In  segment BANKED_CODE, align 1, keep-with-next
   \                     ?Subroutine179:
   \   000000   F582         MOV     DPL,A
   \   000002   EF           MOV     A,R7
   \   000003                REQUIRE ??Subroutine239_0
   \   000003                ; // Fall through to label ??Subroutine239_0

   \                                 In  segment BANKED_CODE, align 1, keep-with-next
   \                     ??Subroutine239_0:
   \   000000   3400         ADDC    A,#0x0
   \   000002   F583         MOV     DPH,A
   \   000004   E0           MOVX    A,@DPTR
   \   000005   22           RET
    644          
    645          /*********************************************************************
    646           * @fn          ZDO_ProcessPowerDescReq
    647           *
    648           * @brief       This function processes and responds to the
    649           *              Node_Power_req message.
    650           *
    651           * @param       inMsg  - incoming request
    652           *
    653           * @return      none
    654           */

   \                                 In  segment BANKED_CODE, align 1, keep-with-next
    655          void ZDO_ProcessPowerDescReq( zdoIncomingMsg_t *inMsg )
   \                     ZDO_ProcessPowerDescReq:
    656          {
   \   000000   74F6         MOV     A,#-0xa
   \   000002   12....       LCALL   ?BANKED_ENTER_XDATA
   \   000005                ; Saved register size: 10
   \   000005                ; Auto size: 0
   \   000005   12....       LCALL   ?Subroutine63 & 0xFFFF
    657            uint16 aoi = BUILD_UINT16( inMsg->asdu[0], inMsg->asdu[1] );
    658            NodePowerDescriptorFormat_t *desc = NULL;
    659          
    660            if ( aoi == ZDAppNwkAddr.addr.shortAddr )
   \                     ??CrossCallReturnLabel_135:
   \   000008   7003         JNZ     ??ZDO_ProcessPowerDescReq_0
   \   00000A   A3           INC     DPTR
   \   00000B   E0           MOVX    A,@DPTR
   \   00000C   6D           XRL     A,R5
   \                     ??ZDO_ProcessPowerDescReq_0:
   \   00000D   7017         JNZ     ??ZDO_ProcessPowerDescReq_1
    661            {
    662              desc = &ZDO_Config_Power_Descriptor;
    663            }
    664          
    665            if ( desc != NULL )
    666            {
    667              ZDP_PowerDescMsg( inMsg, aoi, desc );
   \   00000F                ; Setup parameters for call to function ZDP_PowerDescMsg
   \   00000F   75....       MOV     ?V0 + 0,#ZDO_Config_Power_Descriptor & 0xff
   \   000012   75....       MOV     ?V0 + 1,#(ZDO_Config_Power_Descriptor >> 8) & 0xff
   \   000015   78..         MOV     R0,#?V0 + 0
   \   000017   12....       LCALL   ?PUSH_XSTACK_I_TWO
   \   00001A   EE           MOV     A,R6
   \   00001B   FA           MOV     R2,A
   \   00001C   12....       LCALL   ??ZDP_PowerDescMsg?relay
   \   00001F   7402         MOV     A,#0x2
   \   000021   12....       LCALL   ?DEALLOC_XSTACK8
   \   000024   801A         SJMP    ??ZDO_ProcessPowerDescReq_2
    668            }
    669            else
    670            {
    671              ZDP_GenericRsp( inMsg->TransSeq, &(inMsg->srcAddr),
    672                        ZDP_INVALID_REQTYPE, aoi, Power_Desc_rsp, inMsg->SecurityUse );
   \                     ??ZDO_ProcessPowerDescReq_1:
   \   000026                ; Setup parameters for call to function ZDP_GenericRsp
   \   000026   75..03       MOV     ?V0 + 0,#0x3
   \   000029   75..80       MOV     ?V0 + 1,#-0x80
   \   00002C   78..         MOV     R0,#?V0 + 0
   \   00002E   12....       LCALL   ?PUSH_XSTACK_I_TWO
   \   000031   8C..         MOV     ?V0 + 0,R4
   \   000033   8D..         MOV     ?V0 + 1,R5
   \   000035   78..         MOV     R0,#?V0 + 0
   \   000037   12....       LCALL   ?PUSH_XSTACK_I_TWO
   \   00003A   12....       LCALL   ?Subroutine61 & 0xFFFF
    673            }
   \                     ??CrossCallReturnLabel_130:
   \   00003D   12....       LCALL   ?DEALLOC_XSTACK8
    674          }
   \                     ??ZDO_ProcessPowerDescReq_2:
   \   000040   80..         SJMP    ??Subroutine201_0
    675          
    676          /*********************************************************************
    677           * @fn          ZDO_ProcessSimpleDescReq
    678           *
    679           * @brief       This function processes and responds to the
    680           *              Simple_Desc_req message.
    681           *
    682           * @param       inMsg - incoming message (request)
    683           *
    684           * @return      none
    685           */

   \                                 In  segment BANKED_CODE, align 1, keep-with-next
   \                     ?Subroutine3:
   \   000000   7402         MOV     A,#0x2
   \   000002                REQUIRE ??Subroutine200_0
   \   000002                ; // Fall through to label ??Subroutine200_0

   \                                 In  segment BANKED_CODE, align 1, keep-with-next
   \                     ??Subroutine200_0:
   \   000000   12....       LCALL   ?DEALLOC_XSTACK8
   \   000003                REQUIRE ??Subroutine201_0
   \   000003                ; // Fall through to label ??Subroutine201_0

   \                                 In  segment BANKED_CODE, align 1, keep-with-next
    686          void ZDO_ProcessSimpleDescReq( zdoIncomingMsg_t *inMsg )
   \                     ZDO_ProcessSimpleDescReq:
    687          {
   \   000000   74F6         MOV     A,#-0xa
   \   000002   12....       LCALL   ?BANKED_ENTER_XDATA
   \   000005                ; Saved register size: 10
   \   000005                ; Auto size: 2
   \   000005   74FE         MOV     A,#-0x2
   \   000007   12....       LCALL   ?ALLOC_XSTACK8
   \   00000A   EA           MOV     A,R2
   \   00000B   FE           MOV     R6,A
   \   00000C   EB           MOV     A,R3
   \   00000D   FF           MOV     R7,A
    688            SimpleDescriptionFormat_t *sDesc = NULL;
   \   00000E   85..82       MOV     DPL,?XSP + 0
   \   000011   85..83       MOV     DPH,?XSP + 1
   \   000014   E4           CLR     A
   \   000015   F0           MOVX    @DPTR,A
   \   000016   A3           INC     DPTR
   \   000017   F0           MOVX    @DPTR,A
    689            uint16 aoi = BUILD_UINT16( inMsg->asdu[0], inMsg->asdu[1] );
   \   000018   EE           MOV     A,R6
   \   000019   2413         ADD     A,#0x13
   \   00001B   F582         MOV     DPL,A
   \   00001D   EF           MOV     A,R7
   \   00001E   12....       LCALL   ?Subroutine84 & 0xFFFF
   \                     ??CrossCallReturnLabel_171:
   \   000021   FA           MOV     R2,A
    690            byte endPoint = inMsg->asdu[2];
   \   000022   8882         MOV     DPL,R0
   \   000024   8983         MOV     DPH,R1
   \   000026   A3           INC     DPTR
   \   000027   A3           INC     DPTR
   \   000028   E0           MOVX    A,@DPTR
   \   000029   F9           MOV     R1,A
    691            byte free = false;
   \   00002A   75..00       MOV     ?V0 + 0,#0x0
    692            byte stat = ZDP_SUCCESS;
   \   00002D   75..00       MOV     ?V0 + 1,#0x0
    693          
    694            if ( (endPoint == ZDO_EP) || (endPoint > MAX_ENDPOINTS) )
   \   000030   6005         JZ      ??ZDO_ProcessSimpleDescReq_0
   \   000032   C3           CLR     C
   \   000033   94F1         SUBB    A,#-0xf
   \   000035   4005         JC      ??ZDO_ProcessSimpleDescReq_1
    695            {
    696              stat = ZDP_INVALID_EP;
   \                     ??ZDO_ProcessSimpleDescReq_0:
   \   000037   75..82       MOV     ?V0 + 1,#-0x7e
   \   00003A   8029         SJMP    ??ZDO_ProcessSimpleDescReq_2
    697            }
    698            else if ( aoi == ZDAppNwkAddr.addr.shortAddr )
   \                     ??ZDO_ProcessSimpleDescReq_1:
   \   00003C   90....       MOV     DPTR,#ZDAppNwkAddr
   \   00003F   E0           MOVX    A,@DPTR
   \   000040   6A           XRL     A,R2
   \   000041   7003         JNZ     ??ZDO_ProcessSimpleDescReq_3
   \   000043   A3           INC     DPTR
   \   000044   E0           MOVX    A,@DPTR
   \   000045   6B           XRL     A,R3
   \                     ??ZDO_ProcessSimpleDescReq_3:
   \   000046   701A         JNZ     ??ZDO_ProcessSimpleDescReq_4
    699            {
    700              free = afFindSimpleDesc( &sDesc, endPoint );
   \   000048                ; Setup parameters for call to function afFindSimpleDesc
   \   000048   85..82       MOV     DPL,?XSP + 0
   \   00004B   85..83       MOV     DPH,?XSP + 1
   \   00004E   AA82         MOV     R2,DPL
   \   000050   AB83         MOV     R3,DPH
   \   000052   12....       LCALL   ??afFindSimpleDesc?relay
   \   000055   E9           MOV     A,R1
   \   000056   F5..         MOV     ?V0 + 0,A
    701              if ( sDesc == NULL )
   \   000058   12....       LCALL   ?Subroutine55 & 0xFFFF
   \                     ??CrossCallReturnLabel_456:
   \   00005B   7008         JNZ     ??ZDO_ProcessSimpleDescReq_2
    702              {
    703                stat = ZDP_NOT_ACTIVE;
   \   00005D   75..83       MOV     ?V0 + 1,#-0x7d
   \   000060   8003         SJMP    ??ZDO_ProcessSimpleDescReq_2
    704              }
    705            }
    706            else
    707            {
    708              if ( ZSTACK_ROUTER_BUILD )
    709              {
    710                stat = ZDP_DEVICE_NOT_FOUND;
   \                     ??ZDO_ProcessSimpleDescReq_4:
   \   000062   75..81       MOV     ?V0 + 1,#-0x7f
    711              }
    712              else if ( ZSTACK_END_DEVICE_BUILD )
    713              {
    714                stat = ZDP_INVALID_REQTYPE;
    715              }
    716            }
    717          
    718            ZDP_SimpleDescMsg( inMsg, stat, sDesc );
   \                     ??ZDO_ProcessSimpleDescReq_2:
   \   000065                ; Setup parameters for call to function ZDP_SimpleDescMsg
   \   000065   85..82       MOV     DPL,?XSP + 0
   \   000068   85..83       MOV     DPH,?XSP + 1
   \   00006B   12....       LCALL   ?Subroutine113 & 0xFFFF
   \                     ??CrossCallReturnLabel_213:
   \   00006E   A9..         MOV     R1,?V0 + 1
   \   000070   EE           MOV     A,R6
   \   000071   FA           MOV     R2,A
   \   000072   EF           MOV     A,R7
   \   000073   FB           MOV     R3,A
   \   000074   12....       LCALL   ??ZDP_SimpleDescMsg?relay
    719          
    720            if ( free && sDesc )
   \   000077   E5..         MOV     A,?V0 + 0
   \   000079   600E         JZ      ??CrossCallReturnLabel_120
   \   00007B   12....       LCALL   ?Subroutine55 & 0xFFFF
   \                     ??CrossCallReturnLabel_457:
   \   00007E   6009         JZ      ??CrossCallReturnLabel_120
    721            {
    722              osal_mem_free( sDesc );
   \   000080                ; Setup parameters for call to function osal_mem_free
   \   000080   85..82       MOV     DPL,?XSP + 0
   \   000083   85..83       MOV     DPH,?XSP + 1
   \   000086   12....       LCALL   ?Subroutine59 & 0xFFFF
    723            }
    724          }
   \                     ??CrossCallReturnLabel_120:
   \   000089   02....       LJMP    ?Subroutine3 & 0xFFFF

   \                                 In  segment BANKED_CODE, align 1, keep-with-next
   \                     ?Subroutine59:
   \   000000   12....       LCALL   ??Subroutine228_0 & 0xFFFF
   \                     ??CrossCallReturnLabel_470:
   \   000003   12....       LCALL   ??osal_mem_free?relay
   \   000006   22           RET

   \                                 In  segment BANKED_CODE, align 1, keep-with-next
   \                     ?Subroutine113:
   \   000000   E0           MOVX    A,@DPTR
   \   000001   FC           MOV     R4,A
   \   000002   A3           INC     DPTR
   \   000003   E0           MOVX    A,@DPTR
   \   000004   FD           MOV     R5,A
   \   000005   22           RET

   \                                 In  segment BANKED_CODE, align 1, keep-with-next
   \                     ?Subroutine84:
   \   000000   12....       LCALL   ?Subroutine159 & 0xFFFF
   \                     ??CrossCallReturnLabel_414:
   \   000003   FC           MOV     R4,A
   \   000004   A3           INC     DPTR
   \   000005   E0           MOVX    A,@DPTR
   \   000006   FB           MOV     R3,A
   \   000007   EC           MOV     A,R4
   \   000008   22           RET

   \                                 In  segment BANKED_CODE, align 1, keep-with-next
   \                     ?Subroutine55:
   \   000000   85..82       MOV     DPL,?XSP + 0
   \   000003   85..83       MOV     DPH,?XSP + 1
   \   000006                REQUIRE ??Subroutine225_0
   \   000006                ; // Fall through to label ??Subroutine225_0

   \                                 In  segment BANKED_CODE, align 1, keep-with-next
   \                     ??Subroutine225_0:
   \   000000   12....       LCALL   ?Subroutine167 & 0xFFFF
   \                     ??CrossCallReturnLabel_462:
   \   000003   E8           MOV     A,R0
   \   000004   49           ORL     A,R1
   \   000005   22           RET
    725          
    726          /*********************************************************************
    727           * @fn          ZDO_ProcessActiveEPReq
    728           *
    729           * @brief       This function processes and responds to the
    730           *              Active_EP_req message.
    731           *
    732           * @param       inMsg  - incoming message (request)
    733           *
    734           * @return      none
    735           */

   \                                 In  segment BANKED_CODE, align 1, keep-with-next
    736          void ZDO_ProcessActiveEPReq( zdoIncomingMsg_t *inMsg )
   \                     ZDO_ProcessActiveEPReq:
    737          {
   \   000000   74F2         MOV     A,#-0xe
   \   000002   12....       LCALL   ?BANKED_ENTER_XDATA
   \   000005                ; Saved register size: 14
   \   000005                ; Auto size: 0
   \   000005   8A..         MOV     ?V0 + 4,R2
   \   000007   8B..         MOV     ?V0 + 5,R3
    738            byte cnt = 0;
   \   000009   75..00       MOV     ?V0 + 0,#0x0
    739            uint16 aoi;
    740            byte stat = ZDP_SUCCESS;
   \   00000C   75..00       MOV     ?V0 + 1,#0x0
    741          
    742            aoi = BUILD_UINT16( inMsg->asdu[0], inMsg->asdu[1] );
   \   00000F   12....       LCALL   ?Subroutine66 & 0xFFFF
    743          
    744            if ( aoi == NLME_GetShortAddr() )
   \                     ??CrossCallReturnLabel_333:
   \   000012                ; Setup parameters for call to function NLME_GetShortAddr
   \   000012   12....       LCALL   ??NLME_GetShortAddr?relay
   \   000015   EA           MOV     A,R2
   \   000016   6E           XRL     A,R6
   \   000017   7002         JNZ     ??ZDO_ProcessActiveEPReq_0
   \   000019   EB           MOV     A,R3
   \   00001A   6F           XRL     A,R7
   \                     ??ZDO_ProcessActiveEPReq_0:
   \   00001B   7012         JNZ     ??ZDO_ProcessActiveEPReq_1
    745            {
    746              cnt = afNumEndPoints() - 1;  // -1 for ZDO endpoint descriptor
   \   00001D                ; Setup parameters for call to function afNumEndPoints
   \   00001D   12....       LCALL   ??afNumEndPoints?relay
   \   000020   E9           MOV     A,R1
   \   000021   14           DEC     A
   \   000022   F5..         MOV     ?V0 + 0,A
    747              afEndPoints( (uint8 *)ZDOBuildBuf, true );
   \   000024                ; Setup parameters for call to function afEndPoints
   \   000024   7901         MOV     R1,#0x1
   \   000026   7A..         MOV     R2,#ZDOBuildBuf & 0xff
   \   000028   7B..         MOV     R3,#(ZDOBuildBuf >> 8) & 0xff
   \   00002A   12....       LCALL   ??afEndPoints?relay
   \   00002D   8003         SJMP    ??ZDO_ProcessActiveEPReq_2
    748            }
    749            else
    750            {
    751              stat = ZDP_INVALID_REQTYPE;
   \                     ??ZDO_ProcessActiveEPReq_1:
   \   00002F   75..80       MOV     ?V0 + 1,#-0x80
    752            }
    753          
    754            ZDP_ActiveEPRsp( inMsg->TransSeq, &(inMsg->srcAddr), stat,
    755                            aoi, cnt, (uint8 *)ZDOBuildBuf, inMsg->SecurityUse );
   \                     ??ZDO_ProcessActiveEPReq_2:
   \   000032                ; Setup parameters for call to function ZDP_EPRsp
   \   000032   12....       LCALL   ?Subroutine140 & 0xFFFF
   \                     ??CrossCallReturnLabel_586:
   \   000035   E5..         MOV     A,?V0 + 5
   \   000037   12....       LCALL   ?Subroutine110 & 0xFFFF
   \                     ??CrossCallReturnLabel_346:
   \   00003A   12....       LCALL   ?PUSH_XSTACK_I_ONE
   \   00003D   75....       MOV     ?V0 + 2,#ZDOBuildBuf & 0xff
   \   000040   75....       MOV     ?V0 + 3,#(ZDOBuildBuf >> 8) & 0xff
   \   000043   78..         MOV     R0,#?V0 + 2
   \   000045   12....       LCALL   ?PUSH_XSTACK_I_TWO
   \   000048   78..         MOV     R0,#?V0 + 0
   \   00004A   12....       LCALL   ?PUSH_XSTACK_I_ONE
   \   00004D   8E..         MOV     ?V0 + 2,R6
   \   00004F   8F..         MOV     ?V0 + 3,R7
   \   000051   78..         MOV     R0,#?V0 + 2
   \   000053   12....       LCALL   ?PUSH_XSTACK_I_TWO
   \   000056   E5..         MOV     A,?V0 + 1
   \   000058   F5..         MOV     ?V0 + 0,A
   \   00005A   78..         MOV     R0,#?V0 + 0
   \   00005C   12....       LCALL   ?PUSH_XSTACK_I_ONE
   \   00005F   12....       LCALL   ?Subroutine138 & 0xFFFF
   \                     ??CrossCallReturnLabel_250:
   \   000062   F582         MOV     DPL,A
   \   000064   E5..         MOV     A,?V0 + 5
   \   000066   12....       LCALL   ?Subroutine132 & 0xFFFF
   \                     ??CrossCallReturnLabel_240:
   \   000069   7A05         MOV     R2,#0x5
   \   00006B   7B80         MOV     R3,#-0x80
   \   00006D   12....       LCALL   ??ZDP_EPRsp?relay
   \   000070   02....       LJMP    ?Subroutine4 & 0xFFFF
    756          }

   \                                 In  segment BANKED_CODE, align 1, keep-with-next
   \                     ?Subroutine66:
   \   000000   12....       LCALL   ?Subroutine177 & 0xFFFF
   \                     ??CrossCallReturnLabel_297:
   \   000003   12....       LCALL   ?Subroutine167 & 0xFFFF
   \                     ??CrossCallReturnLabel_459:
   \   000006   8882         MOV     DPL,R0
   \   000008   8983         MOV     DPH,R1
   \   00000A                REQUIRE ??Subroutine202_0
   \   00000A                ; // Fall through to label ??Subroutine202_0

   \                                 In  segment BANKED_CODE, align 1, keep-with-next
   \                     ??Subroutine202_0:
   \   000000   E0           MOVX    A,@DPTR
   \   000001   FA           MOV     R2,A
   \   000002   A3           INC     DPTR
   \   000003   E0           MOVX    A,@DPTR
   \   000004   F9           MOV     R1,A
   \   000005   EA           MOV     A,R2
   \   000006   2400         ADD     A,#0x0
   \   000008   FE           MOV     R6,A
   \   000009   E4           CLR     A
   \   00000A   39           ADDC    A,R1
   \   00000B   FF           MOV     R7,A
   \   00000C   22           RET

   \                                 In  segment BANKED_CODE, align 1, keep-with-next
   \                     ?Subroutine110:
   \   000000   12....       LCALL   ??Subroutine212_0 & 0xFFFF
   \                     ??CrossCallReturnLabel_542:
   \   000003                REQUIRE ??Subroutine204_0
   \   000003                ; // Fall through to label ??Subroutine204_0

   \                                 In  segment BANKED_CODE, align 1, keep-with-next
   \                     ??Subroutine204_0:
   \   000000   E0           MOVX    A,@DPTR
   \   000001   F5..         MOV     ?V0 + 2,A
   \   000003   78..         MOV     R0,#?V0 + 2
   \   000005   22           RET

   \                                 In  segment BANKED_CODE, align 1, keep-with-next
   \                     ?Subroutine132:
   \   000000   12....       LCALL   ??Subroutine239_0 & 0xFFFF
   \                     ??CrossCallReturnLabel_578:
   \   000003   F9           MOV     R1,A
   \   000004   22           RET

   \                                 In  segment BANKED_CODE, align 1, keep-with-next
   \                     ??Subroutine212_0:
   \   000000   3400         ADDC    A,#0x0
   \   000002   F583         MOV     DPH,A
   \   000004   22           RET

   \                                 In  segment BANKED_CODE, align 1, keep-with-next
   \                     ?Subroutine138:
   \   000000   E5..         MOV     A,?V0 + 4
   \   000002   2402         ADD     A,#0x2
   \   000004   FC           MOV     R4,A
   \   000005   E5..         MOV     A,?V0 + 5
   \   000007   3400         ADDC    A,#0x0
   \   000009   FD           MOV     R5,A
   \   00000A   E5..         MOV     A,?V0 + 4
   \   00000C   240F         ADD     A,#0xf
   \   00000E   22           RET

   \                                 In  segment BANKED_CODE, align 1, keep-with-next
   \                     ?Subroutine140:
   \   000000   E5..         MOV     A,?V0 + 4
   \   000002                REQUIRE ??Subroutine240_0
   \   000002                ; // Fall through to label ??Subroutine240_0

   \                                 In  segment BANKED_CODE, align 1, keep-with-next
   \                     ??Subroutine240_0:
   \   000000   240E         ADD     A,#0xe
   \   000002   F582         MOV     DPL,A
   \   000004   22           RET

   \                                 In  segment BANKED_CODE, align 1, keep-with-next
   \                     ?Subroutine177:
   \   000000   EA           MOV     A,R2
   \   000001   2413         ADD     A,#0x13
   \   000003   F582         MOV     DPL,A
   \   000005   EB           MOV     A,R3
   \   000006   3400         ADDC    A,#0x0
   \   000008   F583         MOV     DPH,A
   \   00000A   22           RET

   \                                 In  segment BANKED_CODE, align 1, keep-with-next
   \                     ?Subroutine4:
   \   000000   7407         MOV     A,#0x7
   \   000002                REQUIRE ??Subroutine255_0
   \   000002                ; // Fall through to label ??Subroutine255_0

   \                                 In  segment BANKED_CODE, align 1, keep-with-next
   \                     ??Subroutine255_0:
   \   000000   12....       LCALL   ?DEALLOC_XSTACK8
   \   000003                REQUIRE ??Subroutine256_0
   \   000003                ; // Fall through to label ??Subroutine256_0

   \                                 In  segment BANKED_CODE, align 1, keep-with-next
   \                     ??Subroutine256_0:
   \   000000   7F06         MOV     R7,#0x6
   \   000002   02....       LJMP    ?BANKED_LEAVE_XDATA
    757          
    758          /*********************************************************************
    759           * @fn          ZDO_ConvertOTAClusters
    760           *
    761           * @brief       This function will convert the over-the-air cluster list
    762           *              format to an internal format.
    763           *
    764           * @param       inMsg  - incoming message (request)
    765           *
    766           * @return      pointer to incremented inBuf
    767           */

   \                                 In  segment BANKED_CODE, align 1, keep-with-next
    768          uint8 *ZDO_ConvertOTAClusters( uint8 cnt, uint8 *inBuf, uint16 *outList )
   \                     ZDO_ConvertOTAClusters:
    769          {
   \   000000   74F6         MOV     A,#-0xa
   \   000002   12....       LCALL   ?BANKED_ENTER_XDATA
   \   000005                ; Saved register size: 10
   \   000005                ; Auto size: 0
   \   000005   E9           MOV     A,R1
   \   000006   FE           MOV     R6,A
    770            uint8 x;
    771          
    772            for ( x = 0; x < cnt; x++ )
   \   000007   7F00         MOV     R7,#0x0
   \   000009   8031         SJMP    ??ZDO_ConvertOTAClusters_0
    773            {
    774              // convert ota format to internal
    775              outList[x] = BUILD_UINT16( inBuf[0], inBuf[1] );
   \                     ??ZDO_ConvertOTAClusters_1:
   \   00000B   8A82         MOV     DPL,R2
   \   00000D   8B83         MOV     DPH,R3
   \   00000F   E0           MOVX    A,@DPTR
   \   000010   F5..         MOV     ?V0 + 0,A
   \   000012   A3           INC     DPTR
   \   000013   E0           MOVX    A,@DPTR
   \   000014   F9           MOV     R1,A
   \   000015   E5..         MOV     A,?V0 + 0
   \   000017   2400         ADD     A,#0x0
   \   000019   E4           CLR     A
   \   00001A   39           ADDC    A,R1
   \   00001B   F5..         MOV     ?V0 + 1,A
   \   00001D   EF           MOV     A,R7
   \   00001E   33           RLC     A
   \   00001F   F8           MOV     R0,A
   \   000020   E4           CLR     A
   \   000021   33           RLC     A
   \   000022   F9           MOV     R1,A
   \   000023   EC           MOV     A,R4
   \   000024   28           ADD     A,R0
   \   000025   F582         MOV     DPL,A
   \   000027   ED           MOV     A,R5
   \   000028   39           ADDC    A,R1
   \   000029   F583         MOV     DPH,A
   \   00002B   E5..         MOV     A,?V0 + 0
   \   00002D   F0           MOVX    @DPTR,A
   \   00002E   A3           INC     DPTR
   \   00002F   E5..         MOV     A,?V0 + 1
   \   000031   F0           MOVX    @DPTR,A
    776              inBuf += sizeof( uint16 );
   \   000032   EA           MOV     A,R2
   \   000033   2402         ADD     A,#0x2
   \   000035   0A           INC     R2
   \   000036   0A           INC     R2
   \   000037   EB           MOV     A,R3
   \   000038   3400         ADDC    A,#0x0
   \   00003A   FB           MOV     R3,A
    777            }
   \   00003B   0F           INC     R7
   \                     ??ZDO_ConvertOTAClusters_0:
   \   00003C   EF           MOV     A,R7
   \   00003D   C3           CLR     C
   \   00003E   9E           SUBB    A,R6
   \   00003F   40CA         JC      ??ZDO_ConvertOTAClusters_1
    778            return ( inBuf );
   \   000041   02....       LJMP    ??Subroutine201_0 & 0xFFFF
    779          }
    780          
    781          /*********************************************************************
    782           * @fn          ZDO_ProcessMatchDescReq
    783           *
    784           * @brief       This function processes and responds to the
    785           *              Match_Desc_req message.
    786           *
    787           * @param       inMsg  - incoming message (request)
    788           *
    789           * @return      none
    790           */

   \                                 In  segment BANKED_CODE, align 1, keep-with-next
    791          void ZDO_ProcessMatchDescReq( zdoIncomingMsg_t *inMsg )
   \                     ZDO_ProcessMatchDescReq:
    792          {
   \   000000   74F0         MOV     A,#-0x10
   \   000002   12....       LCALL   ?BANKED_ENTER_XDATA
   \   000005                ; Saved register size: 16
   \   000005                ; Auto size: 15
   \   000005   74F1         MOV     A,#-0xf
   \   000007   12....       LCALL   ?ALLOC_XSTACK8
   \   00000A   7402         MOV     A,#0x2
   \   00000C   12....       LCALL   ?XSTACK_DISP0_8
   \   00000F   12....       LCALL   ?Subroutine39 & 0xFFFF
    793            uint8 epCnt = 0;
   \                     ??CrossCallReturnLabel_56:
   \   000012   7406         MOV     A,#0x6
   \   000014   12....       LCALL   ?XSTACK_DISP0_8
   \   000017   E4           CLR     A
   \   000018   F0           MOVX    @DPTR,A
    794            uint8 numInClusters;
    795            uint16 *inClusters = NULL;
   \   000019   7409         MOV     A,#0x9
   \   00001B   12....       LCALL   ?XSTACK_DISP0_8
   \   00001E   E4           CLR     A
   \   00001F   F0           MOVX    @DPTR,A
   \   000020   A3           INC     DPTR
   \   000021   F0           MOVX    @DPTR,A
    796            uint8 numOutClusters;
    797            uint16 *outClusters = NULL;
   \   000022   7407         MOV     A,#0x7
   \   000024   12....       LCALL   ?XSTACK_DISP0_8
   \   000027   E4           CLR     A
   \   000028   F0           MOVX    @DPTR,A
   \   000029   A3           INC     DPTR
   \   00002A   F0           MOVX    @DPTR,A
    798            epList_t *epDesc;
    799            SimpleDescriptionFormat_t *sDesc = NULL;
    800            uint8 allocated;
    801            uint8 *msg;
    802            uint16 aoi;
    803            uint16 profileID;
    804          
    805            // Parse the incoming message
    806            msg = inMsg->asdu;
   \   00002B   7402         MOV     A,#0x2
   \   00002D   12....       LCALL   ?XSTACK_DISP0_8
   \   000030   E0           MOVX    A,@DPTR
   \   000031   2413         ADD     A,#0x13
   \   000033   12....       LCALL   ?Subroutine92 & 0xFFFF
   \                     ??CrossCallReturnLabel_337:
   \   000036   F5..         MOV     ?V0 + 0,A
   \   000038   A3           INC     DPTR
   \   000039   E0           MOVX    A,@DPTR
   \   00003A   F5..         MOV     ?V0 + 1,A
    807            aoi = BUILD_UINT16( msg[0], msg[1] );
   \   00003C   85..82       MOV     DPL,?V0 + 0
   \   00003F   F583         MOV     DPH,A
   \   000041   12....       LCALL   ??Subroutine202_0 & 0xFFFF
    808            profileID = BUILD_UINT16( msg[2], msg[3] );
   \                     ??CrossCallReturnLabel_332:
   \   000044   85..82       MOV     DPL,?V0 + 0
   \   000047   85..83       MOV     DPH,?V0 + 1
   \   00004A   A3           INC     DPTR
   \   00004B   12....       LCALL   ?Subroutine100 & 0xFFFF
   \                     ??CrossCallReturnLabel_195:
   \   00004E   A3           INC     DPTR
   \   00004F   E0           MOVX    A,@DPTR
   \   000050   F9           MOV     R1,A
   \   000051   EA           MOV     A,R2
   \   000052   F5..         MOV     ?V0 + 4,A
   \   000054   E4           CLR     A
   \   000055   39           ADDC    A,R1
   \   000056   F5..         MOV     ?V0 + 5,A
    809            msg += 4;
   \   000058   12....       LCALL   ?Subroutine141 & 0xFFFF
   \                     ??CrossCallReturnLabel_254:
   \   00005B                ; Setup parameters for call to function NLME_IsAddressBroadcast
   \   00005B   EE           MOV     A,R6
   \   00005C   FA           MOV     R2,A
   \   00005D   EF           MOV     A,R7
   \   00005E   FB           MOV     R3,A
    810          
    811            if ( ADDR_BCAST_NOT_ME == NLME_IsAddressBroadcast(aoi) )
   \   00005F   12....       LCALL   ??NLME_IsAddressBroadcast?relay
   \   000062   E9           MOV     A,R1
   \   000063   6401         XRL     A,#0x1
   \   000065   703F         JNZ     ??ZDO_ProcessMatchDescReq_0
    812            {
    813              ZDP_MatchDescRsp( inMsg->TransSeq, &(inMsg->srcAddr), ZDP_INVALID_REQTYPE,
    814                                    ZDAppNwkAddr.addr.shortAddr, 0, NULL, inMsg->SecurityUse );
   \                     ??ZDO_ProcessMatchDescReq_1:
   \   000067                ; Setup parameters for call to function ZDP_EPRsp
   \   000067   7402         MOV     A,#0x2
   \   000069   12....       LCALL   ?XSTACK_DISP0_8
   \   00006C   E0           MOVX    A,@DPTR
   \   00006D   240E         ADD     A,#0xe
   \   00006F   12....       LCALL   ?Subroutine91 & 0xFFFF
   \                     ??CrossCallReturnLabel_185:
   \   000072   12....       LCALL   ?PUSH_XSTACK_I_ONE
   \   000075   E4           CLR     A
   \   000076   F5..         MOV     ?V0 + 0,A
   \   000078   F5..         MOV     ?V0 + 1,A
   \   00007A   78..         MOV     R0,#?V0 + 0
   \   00007C   12....       LCALL   ?PUSH_XSTACK_I_TWO
   \   00007F   78..         MOV     R0,#?V0 + 0
   \   000081   12....       LCALL   ?PUSH_XSTACK_I_ONE
   \   000084   90....       MOV     DPTR,#ZDAppNwkAddr
   \   000087   12....       LCALL   ?PUSH_XSTACK8_X_TWO
   \   00008A   75..80       MOV     ?V0 + 0,#-0x80
   \   00008D   78..         MOV     R0,#?V0 + 0
   \   00008F   12....       LCALL   ?PUSH_XSTACK_I_ONE
   \   000092   7409         MOV     A,#0x9
   \   000094   12....       LCALL   ?XSTACK_DISP0_8
   \   000097   12....       LCALL   ?Subroutine71 & 0xFFFF
   \                     ??CrossCallReturnLabel_149:
   \   00009A   12....       LCALL   ?XSTACK_DISP0_8
   \   00009D   12....       LCALL   ?Subroutine56 & 0xFFFF
   \                     ??CrossCallReturnLabel_110:
   \   0000A0   12....       LCALL   ?DEALLOC_XSTACK8
    815              return;
   \   0000A3   02....       LJMP    ??CrossCallReturnLabel_123 & 0xFFFF
    816            }
    817            else if ( (ADDR_NOT_BCAST == NLME_IsAddressBroadcast(aoi)) && (aoi != ZDAppNwkAddr.addr.shortAddr) )
   \                     ??ZDO_ProcessMatchDescReq_0:
   \   0000A6                ; Setup parameters for call to function NLME_IsAddressBroadcast
   \   0000A6   EE           MOV     A,R6
   \   0000A7   FA           MOV     R2,A
   \   0000A8   EF           MOV     A,R7
   \   0000A9   FB           MOV     R3,A
   \   0000AA   12....       LCALL   ??NLME_IsAddressBroadcast?relay
   \   0000AD   E9           MOV     A,R1
   \   0000AE   700C         JNZ     ??ZDO_ProcessMatchDescReq_2
   \   0000B0   90....       MOV     DPTR,#ZDAppNwkAddr
   \   0000B3   E0           MOVX    A,@DPTR
   \   0000B4   6E           XRL     A,R6
   \   0000B5   7003         JNZ     ??ZDO_ProcessMatchDescReq_3
   \   0000B7   A3           INC     DPTR
   \   0000B8   E0           MOVX    A,@DPTR
   \   0000B9   6F           XRL     A,R7
   \                     ??ZDO_ProcessMatchDescReq_3:
   \   0000BA   70AB         JNZ     ??ZDO_ProcessMatchDescReq_1
    818            {
    819              ZDP_MatchDescRsp( inMsg->TransSeq, &(inMsg->srcAddr), ZDP_INVALID_REQTYPE,
    820                                       ZDAppNwkAddr.addr.shortAddr, 0, NULL, inMsg->SecurityUse );
    821              return;
    822            }
    823          
    824            if ((numInClusters = *msg++) &&
    825                (inClusters = (uint16*)osal_mem_alloc( numInClusters * sizeof( uint16 ) )))
   \                     ??ZDO_ProcessMatchDescReq_2:
   \   0000BC   12....       LCALL   ?Subroutine122 & 0xFFFF
   \                     ??CrossCallReturnLabel_233:
   \   0000BF   85..82       MOV     DPL,?XSP + 0
   \   0000C2   85..83       MOV     DPH,?XSP + 1
   \   0000C5   F0           MOVX    @DPTR,A
   \   0000C6   6032         JZ      ??ZDO_ProcessMatchDescReq_4
   \   0000C8                ; Setup parameters for call to function osal_mem_alloc
   \   0000C8   C3           CLR     C
   \   0000C9   33           RLC     A
   \   0000CA   FA           MOV     R2,A
   \   0000CB   E4           CLR     A
   \   0000CC   33           RLC     A
   \   0000CD   FB           MOV     R3,A
   \   0000CE   12....       LCALL   ??osal_mem_alloc?relay
   \   0000D1   7409         MOV     A,#0x9
   \   0000D3   12....       LCALL   ?XSTACK_DISP0_8
   \   0000D6   12....       LCALL   ?Subroutine39 & 0xFFFF
   \                     ??CrossCallReturnLabel_57:
   \   0000D9   7409         MOV     A,#0x9
   \   0000DB   12....       LCALL   ?XSTACK_DISP0_8
   \   0000DE   12....       LCALL   ??Subroutine225_0 & 0xFFFF
   \                     ??CrossCallReturnLabel_439:
   \   0000E1   6017         JZ      ??ZDO_ProcessMatchDescReq_4
    826            {
    827              msg = ZDO_ConvertOTAClusters( numInClusters, msg, inClusters );
   \   0000E3                ; Setup parameters for call to function ZDO_ConvertOTAClusters
   \   0000E3   7409         MOV     A,#0x9
   \   0000E5   12....       LCALL   ?XSTACK_DISP0_8
   \   0000E8   12....       LCALL   ?Subroutine112 & 0xFFFF
    828            }
   \                     ??CrossCallReturnLabel_211:
   \   0000EB   85..82       MOV     DPL,?XSP + 0
   \   0000EE   85..83       MOV     DPH,?XSP + 1
   \   0000F1   12....       LCALL   ??Subroutine235_0 & 0xFFFF
   \                     ??CrossCallReturnLabel_556:
   \   0000F4   8A..         MOV     ?V0 + 0,R2
   \   0000F6   8B..         MOV     ?V0 + 1,R3
   \   0000F8   8008         SJMP    ??ZDO_ProcessMatchDescReq_5
    829            else
    830            {
    831              numInClusters = 0;
   \                     ??ZDO_ProcessMatchDescReq_4:
   \   0000FA   85..82       MOV     DPL,?XSP + 0
   \   0000FD   85..83       MOV     DPH,?XSP + 1
   \   000100   E4           CLR     A
   \   000101   F0           MOVX    @DPTR,A
    832            }
    833          
    834            if ((numOutClusters = *msg++) &&
    835                (outClusters = (uint16 *)osal_mem_alloc( numOutClusters * sizeof( uint16 ) )))
   \                     ??ZDO_ProcessMatchDescReq_5:
   \   000102   12....       LCALL   ?Subroutine122 & 0xFFFF
   \                     ??CrossCallReturnLabel_234:
   \   000105   C0E0         PUSH    A
   \   000107   7401         MOV     A,#0x1
   \   000109   12....       LCALL   ?XSTACK_DISP0_8
   \   00010C   D0E0         POP     A
   \   00010E   F0           MOVX    @DPTR,A
   \   00010F   602D         JZ      ??ZDO_ProcessMatchDescReq_6
   \   000111                ; Setup parameters for call to function osal_mem_alloc
   \   000111   C3           CLR     C
   \   000112   33           RLC     A
   \   000113   FA           MOV     R2,A
   \   000114   E4           CLR     A
   \   000115   33           RLC     A
   \   000116   FB           MOV     R3,A
   \   000117   12....       LCALL   ??osal_mem_alloc?relay
   \   00011A   7407         MOV     A,#0x7
   \   00011C   12....       LCALL   ?XSTACK_DISP0_8
   \   00011F   12....       LCALL   ?Subroutine39 & 0xFFFF
   \                     ??CrossCallReturnLabel_58:
   \   000122   7407         MOV     A,#0x7
   \   000124   12....       LCALL   ?XSTACK_DISP0_8
   \   000127   12....       LCALL   ??Subroutine225_0 & 0xFFFF
   \                     ??CrossCallReturnLabel_440:
   \   00012A   6012         JZ      ??ZDO_ProcessMatchDescReq_6
    836            {
    837              msg = ZDO_ConvertOTAClusters( numOutClusters, msg, outClusters );
   \   00012C                ; Setup parameters for call to function ZDO_ConvertOTAClusters
   \   00012C   7407         MOV     A,#0x7
   \   00012E   12....       LCALL   ?XSTACK_DISP0_8
   \   000131   12....       LCALL   ?Subroutine112 & 0xFFFF
    838            }
   \                     ??CrossCallReturnLabel_212:
   \   000134   7401         MOV     A,#0x1
   \   000136   12....       LCALL   ?XSTACK_DISP0_8
   \   000139   12....       LCALL   ??Subroutine235_0 & 0xFFFF
   \                     ??CrossCallReturnLabel_557:
   \   00013C   8007         SJMP    ??ZDO_ProcessMatchDescReq_7
    839            else
    840            {
    841              numOutClusters = 0;
   \                     ??ZDO_ProcessMatchDescReq_6:
   \   00013E   7401         MOV     A,#0x1
   \   000140   12....       LCALL   ?XSTACK_DISP0_8
   \   000143   E4           CLR     A
   \   000144   F0           MOVX    @DPTR,A
    842            }
    843          
    844            // First count the number of endpoints that match.
    845            epDesc = epList;
   \                     ??ZDO_ProcessMatchDescReq_7:
   \   000145   90....       MOV     DPTR,#epList
   \   000148   805B         SJMP    ??CrossCallReturnLabel_180
    846            while ( epDesc )
    847            {
    848              // Don't search endpoint 0 and check if response is allowed
    849              if ( epDesc->epDesc->endPoint != ZDO_EP && (epDesc->flags&eEP_AllowMatch) )
    850              {
    851                if ( epDesc->pfnDescCB )
    852                {
    853                  sDesc = (SimpleDescriptionFormat_t *)epDesc->pfnDescCB( AF_DESCRIPTOR_SIMPLE, epDesc->epDesc->endPoint );
    854                  allocated = TRUE;
    855                }
    856                else
    857                {
    858                  sDesc = epDesc->epDesc->simpleDesc;
    859                  allocated = FALSE;
    860                }
    861          
    862                if ( sDesc && sDesc->AppProfId == profileID )
    863                {
    864                  uint8 *uint8Buf = (uint8 *)ZDOBuildBuf;
    865          
    866                  // Are there matching input clusters?
    867                  if ((ZDO_AnyClusterMatches( numInClusters, inClusters,
    868                             sDesc->AppNumInClusters, sDesc->pAppInClusterList )) ||
    869                      // Are there matching output clusters?
    870                      (ZDO_AnyClusterMatches( numOutClusters, outClusters,
    871                             sDesc->AppNumOutClusters, sDesc->pAppOutClusterList )))
    872                  {
    873                    // Notify the endpoint of the match.
    874                    uint8 bufLen = sizeof( ZDO_MatchDescRspSent_t ) + (numOutClusters + numInClusters) * sizeof(uint16);
    875                    ZDO_MatchDescRspSent_t *pRspSent = (ZDO_MatchDescRspSent_t *) osal_msg_allocate( bufLen );
    876          
    877                    if (pRspSent)
    878                    {
    879                      pRspSent->hdr.event = ZDO_MATCH_DESC_RSP_SENT;
    880                      pRspSent->nwkAddr = inMsg->srcAddr.addr.shortAddr;
    881                      pRspSent->numInClusters = numInClusters;
    882                      pRspSent->numOutClusters = numOutClusters;
    883          
    884                      if (numInClusters)
    885                      {
    886                        pRspSent->pInClusters = (uint16*) (pRspSent + 1);
    887                        osal_memcpy(pRspSent->pInClusters, inClusters, numInClusters * sizeof(uint16));
    888                      }
    889                      else
    890                      {
    891                        pRspSent->pInClusters = NULL;
    892                      }
    893          
    894                      if (numOutClusters)
    895                      {
    896                        pRspSent->pOutClusters = (uint16*)(pRspSent + 1) + numInClusters;
    897                        osal_memcpy(pRspSent->pOutClusters, outClusters, numOutClusters * sizeof(uint16));
    898                      }
    899                      else
    900                      {
    901                        pRspSent->pOutClusters = NULL;
   \                     ??ZDO_ProcessMatchDescReq_8:
   \   00014A   8A82         MOV     DPL,R2
   \   00014C   8B83         MOV     DPH,R3
   \   00014E   E4           CLR     A
   \   00014F   F0           MOVX    @DPTR,A
   \   000150   A3           INC     DPTR
   \   000151   F0           MOVX    @DPTR,A
    902                      }
    903          
    904                      osal_msg_send( *epDesc->epDesc->task_id, (uint8 *)pRspSent );
   \                     ??ZDO_ProcessMatchDescReq_9:
   \   000152                ; Setup parameters for call to function osal_msg_send
   \   000152   AA..         MOV     R2,?V0 + 6
   \   000154   AB..         MOV     R3,?V0 + 7
   \   000156   740D         MOV     A,#0xd
   \   000158   12....       LCALL   ?XSTACK_DISP0_8
   \   00015B   12....       LCALL   ??Subroutine215_0 & 0xFFFF
   \                     ??CrossCallReturnLabel_395:
   \   00015E   F8           MOV     R0,A
   \   00015F   12....       LCALL   ?Subroutine114 & 0xFFFF
   \                     ??CrossCallReturnLabel_217:
   \   000162   12....       LCALL   ?Subroutine73 & 0xFFFF
   \                     ??CrossCallReturnLabel_400:
   \   000165   F9           MOV     R1,A
   \   000166   12....       LCALL   ??osal_msg_send?relay
    905                    }
    906          
    907                    uint8Buf[epCnt++] = sDesc->EndPoint;
   \                     ??ZDO_ProcessMatchDescReq_10:
   \   000169   7404         MOV     A,#0x4
   \   00016B   12....       LCALL   ?XSTACK_DISP0_8
   \   00016E   12....       LCALL   ??Subroutine215_0 & 0xFFFF
   \                     ??CrossCallReturnLabel_396:
   \   000171   C0E0         PUSH    A
   \   000173   7406         MOV     A,#0x6
   \   000175   12....       LCALL   ?XSTACK_DISP0_8
   \   000178   E0           MOVX    A,@DPTR
   \   000179   F8           MOV     R0,A
   \   00017A   74..         MOV     A,#ZDOBuildBuf & 0xff
   \   00017C   28           ADD     A,R0
   \   00017D   F582         MOV     DPL,A
   \   00017F   74..         MOV     A,#(ZDOBuildBuf >> 8) & 0xff
   \   000181   12....       LCALL   ??Subroutine233_0 & 0xFFFF
   \                     ??CrossCallReturnLabel_510:
   \   000184   D0E0         POP     A
   \   000186   F0           MOVX    @DPTR,A
   \   000187   7406         MOV     A,#0x6
   \   000189   12....       LCALL   ?XSTACK_DISP0_8
   \   00018C   E0           MOVX    A,@DPTR
   \   00018D   04           INC     A
   \   00018E   F0           MOVX    @DPTR,A
    908                  }
    909                }
    910          
    911                if ( allocated )
   \                     ??ZDO_ProcessMatchDescReq_11:
   \   00018F   E5..         MOV     A,?V0 + 3
   \   000191   A2E0         MOV     C,0xE0 /* A   */.0
   \   000193   5008         JNC     ??CrossCallReturnLabel_121
    912                {
    913                  osal_mem_free( sDesc );
   \   000195                ; Setup parameters for call to function osal_mem_free
   \   000195   7404         MOV     A,#0x4
   \   000197   12....       LCALL   ?XSTACK_DISP0_8
   \   00019A   12....       LCALL   ?Subroutine59 & 0xFFFF
    914                }
    915              }
    916              epDesc = epDesc->nextDesc;
   \                     ??CrossCallReturnLabel_121:
   \   00019D   740B         MOV     A,#0xb
   \   00019F   12....       LCALL   ?XSTACK_DISP0_8
   \   0001A2   12....       LCALL   ?Subroutine89 & 0xFFFF
   \                     ??CrossCallReturnLabel_180:
   \   0001A5   12....       LCALL   ??Subroutine221_0 & 0xFFFF
   \                     ??CrossCallReturnLabel_419:
   \   0001A8   740B         MOV     A,#0xb
   \   0001AA   12....       LCALL   ?XSTACK_DISP0_8
   \   0001AD   12....       LCALL   ?Subroutine45 & 0xFFFF
   \                     ??CrossCallReturnLabel_85:
   \   0001B0   12....       LCALL   ?XSTACK_DISP0_8
   \   0001B3   12....       LCALL   ??Subroutine225_0 & 0xFFFF
   \                     ??CrossCallReturnLabel_441:
   \   0001B6   7003         JNZ     $+5
   \   0001B8   02....       LJMP    ??ZDO_ProcessMatchDescReq_12 & 0xFFFF
   \   0001BB   740B         MOV     A,#0xb
   \   0001BD   12....       LCALL   ?XSTACK_DISP0_8
   \   0001C0   12....       LCALL   ?Subroutine115 & 0xFFFF
   \                     ??CrossCallReturnLabel_221:
   \   0001C3   F9           MOV     R1,A
   \   0001C4   740D         MOV     A,#0xd
   \   0001C6   12....       LCALL   ?XSTACK_DISP0_8
   \   0001C9   12....       LCALL   ??Subroutine208_0 & 0xFFFF
   \                     ??CrossCallReturnLabel_365:
   \   0001CC   740D         MOV     A,#0xd
   \   0001CE   12....       LCALL   ?XSTACK_DISP0_8
   \   0001D1   12....       LCALL   ?Subroutine65 & 0xFFFF
   \                     ??CrossCallReturnLabel_136:
   \   0001D4   E8           MOV     A,R0
   \   0001D5   FA           MOV     R2,A
   \   0001D6   E9           MOV     A,R1
   \   0001D7   FB           MOV     R3,A
   \   0001D8   8A82         MOV     DPL,R2
   \   0001DA   8B83         MOV     DPH,R3
   \   0001DC   E0           MOVX    A,@DPTR
   \   0001DD   60BE         JZ      ??CrossCallReturnLabel_121
   \   0001DF   740B         MOV     A,#0xb
   \   0001E1   12....       LCALL   ?XSTACK_DISP0_8
   \   0001E4   12....       LCALL   ?Subroutine78 & 0xFFFF
   \                     ??CrossCallReturnLabel_657:
   \   0001E7   A3           INC     DPTR
   \   0001E8   E0           MOVX    A,@DPTR
   \   0001E9   A2E0         MOV     C,0xE0 /* A   */.0
   \   0001EB   50B0         JNC     ??CrossCallReturnLabel_121
   \   0001ED   740B         MOV     A,#0xb
   \   0001EF   12....       LCALL   ?XSTACK_DISP0_8
   \   0001F2   12....       LCALL   ?Subroutine114 & 0xFFFF
   \                     ??CrossCallReturnLabel_218:
   \   0001F5   A3           INC     DPTR
   \   0001F6   A3           INC     DPTR
   \   0001F7   12....       LCALL   ??Subroutine220_0 & 0xFFFF
   \                     ??CrossCallReturnLabel_425:
   \   0001FA   E8           MOV     A,R0
   \   0001FB   FC           MOV     R4,A
   \   0001FC   E9           MOV     A,R1
   \   0001FD   FD           MOV     R5,A
   \   0001FE   EC           MOV     A,R4
   \   0001FF   4D           ORL     A,R5
   \   000200   8A82         MOV     DPL,R2
   \   000202   8B83         MOV     DPH,R3
   \   000204   6018         JZ      ??ZDO_ProcessMatchDescReq_13
   \   000206                ; Setup parameters for indirect call
   \   000206   E0           MOVX    A,@DPTR
   \   000207   FA           MOV     R2,A
   \   000208   7901         MOV     R1,#0x1
   \   00020A   8C82         MOV     DPL,R4
   \   00020C   8D83         MOV     DPH,R5
   \   00020E   12....       LCALL   ?CALL_IND
   \   000211   7404         MOV     A,#0x4
   \   000213   12....       LCALL   ?XSTACK_DISP0_8
   \   000216   12....       LCALL   ?Subroutine39 & 0xFFFF
   \                     ??CrossCallReturnLabel_59:
   \   000219   75..01       MOV     ?V0 + 3,#0x1
   \   00021C   800F         SJMP    ??ZDO_ProcessMatchDescReq_14
   \                     ??ZDO_ProcessMatchDescReq_13:
   \   00021E   A3           INC     DPTR
   \   00021F   12....       LCALL   ??Subroutine220_0 & 0xFFFF
   \                     ??CrossCallReturnLabel_426:
   \   000222   7404         MOV     A,#0x4
   \   000224   12....       LCALL   ?XSTACK_DISP0_8
   \   000227   12....       LCALL   ??Subroutine208_0 & 0xFFFF
   \                     ??CrossCallReturnLabel_366:
   \   00022A   75..00       MOV     ?V0 + 3,#0x0
   \                     ??ZDO_ProcessMatchDescReq_14:
   \   00022D   7404         MOV     A,#0x4
   \   00022F   12....       LCALL   ?XSTACK_DISP0_8
   \   000232   12....       LCALL   ??Subroutine225_0 & 0xFFFF
   \                     ??CrossCallReturnLabel_442:
   \   000235   7003         JNZ     $+5
   \   000237   02....       LJMP    ??ZDO_ProcessMatchDescReq_11 & 0xFFFF
   \   00023A   7404         MOV     A,#0x4
   \   00023C   12....       LCALL   ?XSTACK_DISP0_8
   \   00023F   12....       LCALL   ?Subroutine114 & 0xFFFF
   \                     ??CrossCallReturnLabel_219:
   \   000242   A3           INC     DPTR
   \   000243   E0           MOVX    A,@DPTR
   \   000244   65..         XRL     A,?V0 + 4
   \   000246   7004         JNZ     ??ZDO_ProcessMatchDescReq_15
   \   000248   A3           INC     DPTR
   \   000249   E0           MOVX    A,@DPTR
   \   00024A   65..         XRL     A,?V0 + 5
   \                     ??ZDO_ProcessMatchDescReq_15:
   \   00024C   6003         JZ      $+5
   \   00024E   02....       LJMP    ??ZDO_ProcessMatchDescReq_11 & 0xFFFF
   \   000251                ; Setup parameters for call to function ZDO_AnyClusterMatches
   \   000251   7404         MOV     A,#0x4
   \   000253   12....       LCALL   ?XSTACK_DISP0_8
   \   000256   12....       LCALL   ??Subroutine254_0 & 0xFFFF
   \                     ??CrossCallReturnLabel_656:
   \   000259   12....       LCALL   ?PUSH_XSTACK8_X_TWO
   \   00025C   7406         MOV     A,#0x6
   \   00025E   12....       LCALL   ?XSTACK_DISP0_8
   \   000261   12....       LCALL   ?Subroutine88 & 0xFFFF
   \                     ??CrossCallReturnLabel_178:
   \   000264   A3           INC     DPTR
   \   000265   E0           MOVX    A,@DPTR
   \   000266   FC           MOV     R4,A
   \   000267   740B         MOV     A,#0xb
   \   000269   12....       LCALL   ?XSTACK_DISP0_8
   \   00026C   12....       LCALL   ??Subroutine214_0 & 0xFFFF
   \                     ??CrossCallReturnLabel_382:
   \   00026F   7402         MOV     A,#0x2
   \   000271   12....       LCALL   ?XSTACK_DISP0_8
   \   000274   E0           MOVX    A,@DPTR
   \   000275   F9           MOV     R1,A
   \   000276   12....       LCALL   ??ZDO_AnyClusterMatches?relay
   \   000279   7402         MOV     A,#0x2
   \   00027B   12....       LCALL   ?DEALLOC_XSTACK8
   \   00027E   E9           MOV     A,R1
   \   00027F   7032         JNZ     ??ZDO_ProcessMatchDescReq_16
   \   000281                ; Setup parameters for call to function ZDO_AnyClusterMatches
   \   000281   7404         MOV     A,#0x4
   \   000283   12....       LCALL   ?XSTACK_DISP0_8
   \   000286   12....       LCALL   ?Subroutine72 & 0xFFFF
   \                     ??CrossCallReturnLabel_152:
   \   000289   12....       LCALL   ?PUSH_XSTACK8_X_TWO
   \   00028C   7406         MOV     A,#0x6
   \   00028E   12....       LCALL   ?XSTACK_DISP0_8
   \   000291   12....       LCALL   ?Subroutine77 & 0xFFFF
   \                     ??CrossCallReturnLabel_158:
   \   000294   E0           MOVX    A,@DPTR
   \   000295   FC           MOV     R4,A
   \   000296   7409         MOV     A,#0x9
   \   000298   12....       LCALL   ?XSTACK_DISP0_8
   \   00029B   12....       LCALL   ??Subroutine214_0 & 0xFFFF
   \                     ??CrossCallReturnLabel_383:
   \   00029E   7403         MOV     A,#0x3
   \   0002A0   12....       LCALL   ?XSTACK_DISP0_8
   \   0002A3   E0           MOVX    A,@DPTR
   \   0002A4   F9           MOV     R1,A
   \   0002A5   12....       LCALL   ??ZDO_AnyClusterMatches?relay
   \   0002A8   7402         MOV     A,#0x2
   \   0002AA   12....       LCALL   ?DEALLOC_XSTACK8
   \   0002AD   E9           MOV     A,R1
   \   0002AE   7003         JNZ     $+5
   \   0002B0   02....       LJMP    ??ZDO_ProcessMatchDescReq_11 & 0xFFFF
   \                     ??ZDO_ProcessMatchDescReq_16:
   \   0002B3                ; Setup parameters for call to function osal_msg_allocate
   \   0002B3   85..82       MOV     DPL,?XSP + 0
   \   0002B6   85..83       MOV     DPH,?XSP + 1
   \   0002B9   C082         PUSH    DPL
   \   0002BB   C083         PUSH    DPH
   \   0002BD   7401         MOV     A,#0x1
   \   0002BF   12....       LCALL   ?XSTACK_DISP0_8
   \   0002C2   E0           MOVX    A,@DPTR
   \   0002C3   D083         POP     DPH
   \   0002C5   D082         POP     DPL
   \   0002C7   F8           MOV     R0,A
   \   0002C8   E0           MOVX    A,@DPTR
   \   0002C9   28           ADD     A,R0
   \   0002CA   C3           CLR     C
   \   0002CB   33           RLC     A
   \   0002CC   240A         ADD     A,#0xa
   \   0002CE   FA           MOV     R2,A
   \   0002CF   7B00         MOV     R3,#0x0
   \   0002D1   12....       LCALL   ??osal_msg_allocate?relay
   \   0002D4   8A..         MOV     ?V0 + 6,R2
   \   0002D6   8B..         MOV     ?V0 + 7,R3
   \   0002D8   EA           MOV     A,R2
   \   0002D9   45..         ORL     A,?V0 + 7
   \   0002DB   7003         JNZ     $+5
   \   0002DD   02....       LJMP    ??ZDO_ProcessMatchDescReq_10 & 0xFFFF
   \   0002E0   8A82         MOV     DPL,R2
   \   0002E2   8B83         MOV     DPH,R3
   \   0002E4   74D2         MOV     A,#-0x2e
   \   0002E6   F0           MOVX    @DPTR,A
   \   0002E7   7402         MOV     A,#0x2
   \   0002E9   12....       LCALL   ?XSTACK_DISP0_8
   \   0002EC   12....       LCALL   ?Subroutine85 & 0xFFFF
   \                     ??CrossCallReturnLabel_172:
   \   0002EF   8A82         MOV     DPL,R2
   \   0002F1   8B83         MOV     DPH,R3
   \   0002F3   A3           INC     DPTR
   \   0002F4   A3           INC     DPTR
   \   0002F5   E8           MOV     A,R0
   \   0002F6   F0           MOVX    @DPTR,A
   \   0002F7   A3           INC     DPTR
   \   0002F8   E9           MOV     A,R1
   \   0002F9   12....       LCALL   ?Subroutine32 & 0xFFFF
   \                     ??CrossCallReturnLabel_42:
   \   0002FC   8A82         MOV     DPL,R2
   \   0002FE   8B83         MOV     DPH,R3
   \   000300   A3           INC     DPTR
   \   000301   A3           INC     DPTR
   \   000302   A3           INC     DPTR
   \   000303   A3           INC     DPTR
   \   000304   F0           MOVX    @DPTR,A
   \   000305   7401         MOV     A,#0x1
   \   000307   12....       LCALL   ?XSTACK_DISP0_8
   \   00030A   12....       LCALL   ?Subroutine116 & 0xFFFF
   \                     ??CrossCallReturnLabel_223:
   \   00030D   A3           INC     DPTR
   \   00030E   A3           INC     DPTR
   \   00030F   A3           INC     DPTR
   \   000310   A3           INC     DPTR
   \   000311   A3           INC     DPTR
   \   000312   A3           INC     DPTR
   \   000313   A3           INC     DPTR
   \   000314   F0           MOVX    @DPTR,A
   \   000315   EA           MOV     A,R2
   \   000316   2405         ADD     A,#0x5
   \   000318   FA           MOV     R2,A
   \   000319   EB           MOV     A,R3
   \   00031A   3400         ADDC    A,#0x0
   \   00031C   FB           MOV     R3,A
   \   00031D   85..82       MOV     DPL,?XSP + 0
   \   000320   85..83       MOV     DPH,?XSP + 1
   \   000323   E0           MOVX    A,@DPTR
   \   000324   6022         JZ      ??ZDO_ProcessMatchDescReq_17
   \   000326   E5..         MOV     A,?V0 + 6
   \   000328   240A         ADD     A,#0xa
   \   00032A   F8           MOV     R0,A
   \   00032B   E5..         MOV     A,?V0 + 7
   \   00032D   12....       LCALL   ?Subroutine46 & 0xFFFF
   \                     ??CrossCallReturnLabel_376:
   \   000330                ; Setup parameters for call to function osal_memcpy
   \   000330   7409         MOV     A,#0x9
   \   000332   12....       LCALL   ?XSTACK_DISP0_8
   \   000335   12....       LCALL   ?Subroutine67 & 0xFFFF
   \                     ??CrossCallReturnLabel_139:
   \   000338   12....       LCALL   ?PUSH_XSTACK_I_THREE
   \   00033B   7403         MOV     A,#0x3
   \   00033D   12....       LCALL   ?XSTACK_DISP0_8
   \   000340   12....       LCALL   ?Subroutine68 & 0xFFFF
   \                     ??CrossCallReturnLabel_142:
   \   000343   12....       LCALL   ?DEALLOC_XSTACK8
   \   000346   8008         SJMP    ??ZDO_ProcessMatchDescReq_18
   \                     ??ZDO_ProcessMatchDescReq_17:
   \   000348   8A82         MOV     DPL,R2
   \   00034A   8B83         MOV     DPH,R3
   \   00034C   E4           CLR     A
   \   00034D   F0           MOVX    @DPTR,A
   \   00034E   A3           INC     DPTR
   \   00034F   F0           MOVX    @DPTR,A
   \                     ??ZDO_ProcessMatchDescReq_18:
   \   000350   E5..         MOV     A,?V0 + 6
   \   000352   2408         ADD     A,#0x8
   \   000354   FA           MOV     R2,A
   \   000355   E5..         MOV     A,?V0 + 7
   \   000357   3400         ADDC    A,#0x0
   \   000359   FB           MOV     R3,A
   \   00035A   7401         MOV     A,#0x1
   \   00035C   12....       LCALL   ?XSTACK_DISP0_8
   \   00035F   E0           MOVX    A,@DPTR
   \   000360   7003         JNZ     $+5
   \   000362   02....       LJMP    ??ZDO_ProcessMatchDescReq_8 & 0xFFFF
   \   000365   85..82       MOV     DPL,?XSP + 0
   \   000368   85..83       MOV     DPH,?XSP + 1
   \   00036B   E0           MOVX    A,@DPTR
   \   00036C   C3           CLR     C
   \   00036D   33           RLC     A
   \   00036E   F8           MOV     R0,A
   \   00036F   E4           CLR     A
   \   000370   33           RLC     A
   \   000371   F9           MOV     R1,A
   \   000372   E5..         MOV     A,?V0 + 6
   \   000374   28           ADD     A,R0
   \   000375   F8           MOV     R0,A
   \   000376   E5..         MOV     A,?V0 + 7
   \   000378   39           ADDC    A,R1
   \   000379   F9           MOV     R1,A
   \   00037A   E8           MOV     A,R0
   \   00037B   240A         ADD     A,#0xa
   \   00037D   F8           MOV     R0,A
   \   00037E   E9           MOV     A,R1
   \   00037F   12....       LCALL   ?Subroutine46 & 0xFFFF
   \                     ??CrossCallReturnLabel_377:
   \   000382                ; Setup parameters for call to function osal_memcpy
   \   000382   7407         MOV     A,#0x7
   \   000384   12....       LCALL   ?XSTACK_DISP0_8
   \   000387   12....       LCALL   ?Subroutine67 & 0xFFFF
    917            }
   \                     ??CrossCallReturnLabel_140:
   \   00038A   12....       LCALL   ?PUSH_XSTACK_I_THREE
   \   00038D   7404         MOV     A,#0x4
   \   00038F   12....       LCALL   ?XSTACK_DISP0_8
   \   000392   12....       LCALL   ?Subroutine68 & 0xFFFF
   \                     ??CrossCallReturnLabel_143:
   \   000395   12....       LCALL   ?DEALLOC_XSTACK8
   \   000398   02....       LJMP    ??ZDO_ProcessMatchDescReq_9 & 0xFFFF
    918          
    919            if ( epCnt )
   \                     ??ZDO_ProcessMatchDescReq_12:
   \   00039B   75....       MOV     ?V0 + 0,#`?<Constant "Match Desc Req">` & 0xff
   \   00039E   75....       MOV     ?V0 + 1,#(`?<Constant "Match Desc Req">` >> 8) & 0xff
   \   0003A1   7406         MOV     A,#0x6
   \   0003A3   12....       LCALL   ?XSTACK_DISP0_8
   \   0003A6   E0           MOVX    A,@DPTR
   \   0003A7   6049         JZ      ??ZDO_ProcessMatchDescReq_19
    920            {
    921              // Send the message if at least one match found.
    922              if ( ZSuccess == ZDP_MatchDescRsp( inMsg->TransSeq, &(inMsg->srcAddr), ZDP_SUCCESS,
    923                        ZDAppNwkAddr.addr.shortAddr, epCnt, (uint8 *)ZDOBuildBuf, inMsg->SecurityUse ) )
   \   0003A9                ; Setup parameters for call to function ZDP_EPRsp
   \   0003A9   7402         MOV     A,#0x2
   \   0003AB   12....       LCALL   ?XSTACK_DISP0_8
   \   0003AE   12....       LCALL   ?Subroutine74 & 0xFFFF
   \                     ??CrossCallReturnLabel_154:
   \   0003B1   12....       LCALL   ?PUSH_XSTACK_I_ONE
   \   0003B4   75....       MOV     ?V0 + 2,#ZDOBuildBuf & 0xff
   \   0003B7   75....       MOV     ?V0 + 3,#(ZDOBuildBuf >> 8) & 0xff
   \   0003BA   78..         MOV     R0,#?V0 + 2
   \   0003BC   12....       LCALL   ?PUSH_XSTACK_I_TWO
   \   0003BF   7409         MOV     A,#0x9
   \   0003C1   12....       LCALL   ?XSTACK_DISP0_8
   \   0003C4   12....       LCALL   ??Subroutine204_0 & 0xFFFF
   \                     ??CrossCallReturnLabel_344:
   \   0003C7   12....       LCALL   ?PUSH_XSTACK_I_ONE
   \   0003CA   90....       MOV     DPTR,#ZDAppNwkAddr
   \   0003CD   12....       LCALL   ?PUSH_XSTACK8_X_TWO
   \   0003D0   75..00       MOV     ?V0 + 2,#0x0
   \   0003D3   78..         MOV     R0,#?V0 + 2
   \   0003D5   12....       LCALL   ?PUSH_XSTACK_I_ONE
   \   0003D8   7409         MOV     A,#0x9
   \   0003DA   12....       LCALL   ?XSTACK_DISP0_8
   \   0003DD   12....       LCALL   ?Subroutine71 & 0xFFFF
   \                     ??CrossCallReturnLabel_150:
   \   0003E0   12....       LCALL   ?XSTACK_DISP0_8
   \   0003E3   12....       LCALL   ?Subroutine56 & 0xFFFF
   \                     ??CrossCallReturnLabel_111:
   \   0003E6   12....       LCALL   ?DEALLOC_XSTACK8
   \   0003E9   E9           MOV     A,R1
   \   0003EA   705B         JNZ     ??ZDO_ProcessMatchDescReq_20
    924              {
    925          #if defined( LCD_SUPPORTED )
    926                HalLcdWriteScreen( "Match Desc Req", "Rsp Sent" );
   \   0003EC                ; Setup parameters for call to function HalLcdWriteScreen
   \   0003EC   7C..         MOV     R4,#`?<Constant "Rsp Sent">` & 0xff
   \   0003EE   7D..         MOV     R5,#(`?<Constant "Rsp Sent">` >> 8) & 0xff
   \   0003F0   804E         SJMP    ??ZDO_ProcessMatchDescReq_21
    927          #endif
    928              }
    929            }
    930            else
    931            {
    932              // No match found
    933              if (ADDR_NOT_BCAST == NLME_IsAddressBroadcast(aoi))
   \                     ??ZDO_ProcessMatchDescReq_19:
   \   0003F2                ; Setup parameters for call to function NLME_IsAddressBroadcast
   \   0003F2   EE           MOV     A,R6
   \   0003F3   FA           MOV     R2,A
   \   0003F4   EF           MOV     A,R7
   \   0003F5   FB           MOV     R3,A
   \   0003F6   12....       LCALL   ??NLME_IsAddressBroadcast?relay
   \   0003F9   E9           MOV     A,R1
   \   0003FA   7040         JNZ     ??ZDO_ProcessMatchDescReq_22
    934              {
    935                // send response message with match length = 0
    936                ZDP_MatchDescRsp( inMsg->TransSeq, &(inMsg->srcAddr), ZDP_SUCCESS,
    937                                  ZDAppNwkAddr.addr.shortAddr, 0, (uint8 *)ZDOBuildBuf, inMsg->SecurityUse );
   \   0003FC                ; Setup parameters for call to function ZDP_EPRsp
   \   0003FC   7402         MOV     A,#0x2
   \   0003FE   12....       LCALL   ?XSTACK_DISP0_8
   \   000401   12....       LCALL   ?Subroutine74 & 0xFFFF
   \                     ??CrossCallReturnLabel_155:
   \   000404   12....       LCALL   ?PUSH_XSTACK_I_ONE
   \   000407   75....       MOV     ?V0 + 2,#ZDOBuildBuf & 0xff
   \   00040A   75....       MOV     ?V0 + 3,#(ZDOBuildBuf >> 8) & 0xff
   \   00040D   78..         MOV     R0,#?V0 + 2
   \   00040F   12....       LCALL   ?PUSH_XSTACK_I_TWO
   \   000412   75..00       MOV     ?V0 + 2,#0x0
   \   000415   78..         MOV     R0,#?V0 + 2
   \   000417   12....       LCALL   ?PUSH_XSTACK_I_ONE
   \   00041A   90....       MOV     DPTR,#ZDAppNwkAddr
   \   00041D   12....       LCALL   ?PUSH_XSTACK8_X_TWO
   \   000420   78..         MOV     R0,#?V0 + 2
   \   000422   12....       LCALL   ?PUSH_XSTACK_I_ONE
   \   000425   7409         MOV     A,#0x9
   \   000427   12....       LCALL   ?XSTACK_DISP0_8
   \   00042A   12....       LCALL   ?Subroutine71 & 0xFFFF
   \                     ??CrossCallReturnLabel_151:
   \   00042D   12....       LCALL   ?XSTACK_DISP0_8
   \   000430   12....       LCALL   ?Subroutine56 & 0xFFFF
   \                     ??CrossCallReturnLabel_112:
   \   000433   12....       LCALL   ?DEALLOC_XSTACK8
    938          #if defined( LCD_SUPPORTED )
    939                HalLcdWriteScreen( "Match Desc Req", "Rsp Non Matched" );
   \   000436                ; Setup parameters for call to function HalLcdWriteScreen
   \   000436   7C..         MOV     R4,#`?<Constant "Rsp Non Matched">` & 0xff
   \   000438   7D..         MOV     R5,#(`?<Constant "Rsp Non Matched">` >> 8) & 0xff
   \   00043A   8004         SJMP    ??ZDO_ProcessMatchDescReq_21
    940          #endif
    941              }
    942              else
    943              {
    944                // no response mesage for broadcast message
    945          #if defined( LCD_SUPPORTED )
    946                HalLcdWriteScreen( "Match Desc Req", "Non Matched" );
   \                     ??ZDO_ProcessMatchDescReq_22:
   \   00043C                ; Setup parameters for call to function HalLcdWriteScreen
   \   00043C   7C..         MOV     R4,#`?<Constant "Non Matched">` & 0xff
   \   00043E   7D..         MOV     R5,#(`?<Constant "Non Matched">` >> 8) & 0xff
   \                     ??ZDO_ProcessMatchDescReq_21:
   \   000440   AA..         MOV     R2,?V0 + 0
   \   000442   AB..         MOV     R3,?V0 + 1
   \   000444   12....       LCALL   ??HalLcdWriteScreen?relay
    947          #endif
    948              }
    949            }
    950          
    951            if ( inClusters != NULL )
   \                     ??ZDO_ProcessMatchDescReq_20:
   \   000447   7409         MOV     A,#0x9
   \   000449   12....       LCALL   ?XSTACK_DISP0_8
   \   00044C   12....       LCALL   ??Subroutine225_0 & 0xFFFF
   \                     ??CrossCallReturnLabel_443:
   \   00044F   6008         JZ      ??CrossCallReturnLabel_122
    952            {
    953              osal_mem_free( inClusters );
   \   000451                ; Setup parameters for call to function osal_mem_free
   \   000451   7409         MOV     A,#0x9
   \   000453   12....       LCALL   ?XSTACK_DISP0_8
   \   000456   12....       LCALL   ?Subroutine59 & 0xFFFF
    954            }
    955          
    956            if ( outClusters != NULL )
   \                     ??CrossCallReturnLabel_122:
   \   000459   7407         MOV     A,#0x7
   \   00045B   12....       LCALL   ?XSTACK_DISP0_8
   \   00045E   12....       LCALL   ??Subroutine225_0 & 0xFFFF
   \                     ??CrossCallReturnLabel_444:
   \   000461   6008         JZ      ??CrossCallReturnLabel_123
    957            {
    958              osal_mem_free( outClusters );
   \   000463                ; Setup parameters for call to function osal_mem_free
   \   000463   7407         MOV     A,#0x7
   \   000465   12....       LCALL   ?XSTACK_DISP0_8
   \   000468   12....       LCALL   ?Subroutine59 & 0xFFFF
    959            }
   \                     ??CrossCallReturnLabel_123:
   \   00046B   740F         MOV     A,#0xf
   \   00046D   02....       LJMP    ?Subroutine6 & 0xFFFF
    960          }

   \                                 In  segment BANKED_CODE, align 1, keep-with-next
   \                     ?Subroutine122:
   \   000000   85..82       MOV     DPL,?V0 + 0
   \   000003   85..83       MOV     DPH,?V0 + 1
   \   000006   E0           MOVX    A,@DPTR
   \   000007   A3           INC     DPTR
   \   000008   8582..       MOV     ?V0 + 0,DPL
   \   00000B   8583..       MOV     ?V0 + 1,DPH
   \   00000E   22           RET

   \                                 In  segment BANKED_CODE, align 1, keep-with-next
   \                     ?Subroutine112:
   \   000000   E0           MOVX    A,@DPTR
   \   000001   FC           MOV     R4,A
   \   000002   A3           INC     DPTR
   \   000003   E0           MOVX    A,@DPTR
   \   000004   FD           MOV     R5,A
   \   000005   AA..         MOV     R2,?V0 + 0
   \   000007   AB..         MOV     R3,?V0 + 1
   \   000009   22           RET

   \                                 In  segment BANKED_CODE, align 1, keep-with-next
   \                     ?Subroutine92:
   \   000000   F8           MOV     R0,A
   \   000001                REQUIRE ??Subroutine203_0
   \   000001                ; // Fall through to label ??Subroutine203_0

   \                                 In  segment BANKED_CODE, align 1, keep-with-next
   \                     ??Subroutine203_0:
   \   000000   12....       LCALL   ??Subroutine231_0 & 0xFFFF
   \                     ??CrossCallReturnLabel_497:
   \   000003   22           RET

   \                                 In  segment BANKED_CODE, align 1, keep-with-next
   \                     ?Subroutine74:
   \   000000   E0           MOVX    A,@DPTR
   \   000001   240E         ADD     A,#0xe
   \   000003   12....       LCALL   ?Subroutine164 & 0xFFFF
   \                     ??CrossCallReturnLabel_499:
   \   000006   F5..         MOV     ?V0 + 2,A
   \   000008   78..         MOV     R0,#?V0 + 2
   \   00000A   22           RET

   \                                 In  segment BANKED_CODE, align 1, keep-with-next
   \                     ?Subroutine71:
   \   000000   E0           MOVX    A,@DPTR
   \   000001   2402         ADD     A,#0x2
   \   000003   FC           MOV     R4,A
   \   000004   A3           INC     DPTR
   \   000005   E0           MOVX    A,@DPTR
   \   000006   3400         ADDC    A,#0x0
   \   000008   FD           MOV     R5,A
   \   000009   7409         MOV     A,#0x9
   \   00000B   22           RET

   \                                 In  segment BANKED_CODE, align 1, keep-with-next
   \                     ?Subroutine68:
   \   000000   E0           MOVX    A,@DPTR
   \   000001   C3           CLR     C
   \   000002   33           RLC     A
   \   000003   FC           MOV     R4,A
   \   000004   E4           CLR     A
   \   000005   33           RLC     A
   \   000006   FD           MOV     R5,A
   \   000007   12....       LCALL   ?Subroutine165 & 0xFFFF
   \                     ??CrossCallReturnLabel_474:
   \   00000A   12....       LCALL   ?Subroutine185 & 0xFFFF
   \                     ??CrossCallReturnLabel_610:
   \   00000D   22           RET

   \                                 In  segment BANKED_CODE, align 1, keep-with-next
   \                     ?Subroutine56:
   \   000000   12....       LCALL   ?Subroutine161 & 0xFFFF
   \                     ??CrossCallReturnLabel_379:
   \   000003   7A06         MOV     R2,#0x6
   \   000005   7B80         MOV     R3,#-0x80
   \   000007   12....       LCALL   ??ZDP_EPRsp?relay
   \   00000A   7407         MOV     A,#0x7
   \   00000C   22           RET

   \                                 In  segment BANKED_CODE, align 1, keep-with-next
   \                     ?Subroutine89:
   \   000000   E0           MOVX    A,@DPTR
   \   000001   F8           MOV     R0,A
   \   000002   12....       LCALL   ?Subroutine173 & 0xFFFF
   \                     ??CrossCallReturnLabel_660:
   \   000005   22           RET

   \                                 In  segment BANKED_CODE, align 1, keep-with-next
   \                     ?Subroutine72:
   \   000000   12....       LCALL   ?Subroutine160 & 0xFFFF
   \                     ??CrossCallReturnLabel_282:
   \   000003   A3           INC     DPTR
   \   000004   22           RET

   \                                 In  segment BANKED_CODE, align 1, keep-with-next
   \                     ?Subroutine65:
   \   000000   12....       LCALL   ?Subroutine162 & 0xFFFF
   \                     ??CrossCallReturnLabel_402:
   \   000003   F8           MOV     R0,A
   \   000004   A3           INC     DPTR
   \   000005   E0           MOVX    A,@DPTR
   \   000006   F9           MOV     R1,A
   \   000007   22           RET

   \                                 In  segment BANKED_CODE, align 1, keep-with-next
   \                     ?Subroutine46:
   \   000000   3400         ADDC    A,#0x0
   \   000002   F9           MOV     R1,A
   \   000003   8A82         MOV     DPL,R2
   \   000005   8B83         MOV     DPH,R3
   \   000007                REQUIRE ??Subroutine208_0
   \   000007                ; // Fall through to label ??Subroutine208_0

   \                                 In  segment BANKED_CODE, align 1, keep-with-next
   \                     ??Subroutine208_0:
   \   000000   E8           MOV     A,R0
   \   000001                REQUIRE ??Subroutine209_0
   \   000001                ; // Fall through to label ??Subroutine209_0

   \                                 In  segment BANKED_CODE, align 1, keep-with-next
   \                     ??Subroutine209_0:
   \   000000   F0           MOVX    @DPTR,A
   \   000001   A3           INC     DPTR
   \   000002   E9           MOV     A,R1
   \   000003   F0           MOVX    @DPTR,A
   \   000004   22           RET

   \                                 In  segment BANKED_CODE, align 1, keep-with-next
   \                     ?Subroutine6:
   \   000000   12....       LCALL   ?DEALLOC_XSTACK8
   \   000003   80..         SJMP    ??Subroutine211_0

   \                                 In  segment BANKED_CODE, align 1, keep-with-next
   \                     ?Subroutine161:
   \   000000   E0           MOVX    A,@DPTR
   \   000001   240F         ADD     A,#0xf
   \   000003   F8           MOV     R0,A
   \   000004                REQUIRE ??Subroutine210_0
   \   000004                ; // Fall through to label ??Subroutine210_0

   \                                 In  segment BANKED_CODE, align 1, keep-with-next
   \                     ??Subroutine210_0:
   \   000000   12....       LCALL   ?Subroutine192 & 0xFFFF
   \                     ??CrossCallReturnLabel_506:
   \   000003   F9           MOV     R1,A
   \   000004   22           RET

   \                                 In  segment BANKED_CODE, align 1, keep-with-next
   \                     ?Subroutine196:
   \   000000   F0           MOVX    @DPTR,A
   \   000001                ; Setup parameters for call to function NLME_NwkDiscReq2
   \   000001   85..82       MOV     DPL,?XSP + 0
   \   000004   85..83       MOV     DPH,?XSP + 1
   \   000007   22           RET

   \                                 In  segment BANKED_CODE, align 1, keep-with-next
   \                     ??Subroutine220_0:
   \   000000   A3           INC     DPTR
   \   000001   A3           INC     DPTR
   \   000002                REQUIRE ??Subroutine221_0
   \   000002                ; // Fall through to label ??Subroutine221_0

   \                                 In  segment BANKED_CODE, align 1, keep-with-next
   \                     ?Subroutine45:
   \   000000   E8           MOV     A,R0
   \   000001   F0           MOVX    @DPTR,A
   \   000002   A3           INC     DPTR
   \   000003   E9           MOV     A,R1
   \   000004   F0           MOVX    @DPTR,A
   \   000005                ; Setup parameters for call to function AddrMgrEntryLookupNwk
   \   000005                ; Setup parameters for call to function AddrMgrEntryUpdate
   \   000005   740B         MOV     A,#0xb
   \   000007   22           RET

   \                                 In  segment BANKED_CODE, align 1, keep-with-next
   \                     ?Subroutine32:
   \   000000   12....       LCALL   ?Subroutine156 & 0xFFFF
   \                     ??CrossCallReturnLabel_278:
   \   000003   22           RET

   \                                 In  segment BANKED_CODE, align 1, keep-with-next
   \                     ?Subroutine156:
   \   000000   12....       LCALL   ?Subroutine191 & 0xFFFF
   \                     ??CrossCallReturnLabel_320:
   \   000003   22           RET

   \                                 In  segment BANKED_CODE, align 1, keep-with-next
   \                     ?Subroutine191:
   \   000000   12....       LCALL   ?Subroutine196 & 0xFFFF
   \                     ??CrossCallReturnLabel_324:
   \   000003   E0           MOVX    A,@DPTR
   \   000004   22           RET

   \                                 In  segment BANKED_CODE, align 1, keep-with-next
   \                     ?Subroutine185:
   \   000000   12....       LCALL   ??osal_memcpy?relay
   \   000003   7403         MOV     A,#0x3
   \   000005   22           RET

   \                                 In  segment BANKED_CODE, align 1, keep-with-next
   \                     ?Subroutine165:
   \   000000   8A82         MOV     DPL,R2
   \   000002   8B83         MOV     DPH,R3
   \   000004                REQUIRE ??Subroutine228_0
   \   000004                ; // Fall through to label ??Subroutine228_0

   \                                 In  segment BANKED_CODE, align 1, keep-with-next
   \                     ?Subroutine91:
   \   000000   12....       LCALL   ?Subroutine164 & 0xFFFF
   \                     ??CrossCallReturnLabel_503:
   \   000003   F5..         MOV     ?V0 + 0,A
   \   000005   78..         MOV     R0,#?V0 + 0
   \   000007   22           RET

   \                                 In  segment BANKED_CODE, align 1, keep-with-next
   \                     ?Subroutine85:
   \   000000   12....       LCALL   ?Subroutine169 & 0xFFFF
   \                     ??CrossCallReturnLabel_286:
   \   000003   12....       LCALL   ?Subroutine167 & 0xFFFF
   \                     ??CrossCallReturnLabel_460:
   \   000006   22           RET

   \                                 In  segment BANKED_CODE, align 1, keep-with-next
   \                     ?Subroutine164:
   \   000000   F8           MOV     R0,A
   \   000001                REQUIRE ??Subroutine231_0
   \   000001                ; // Fall through to label ??Subroutine231_0

   \                                 In  segment BANKED_CODE, align 1, keep-with-next
   \                     ??Subroutine231_0:
   \   000000   12....       LCALL   ?Subroutine192 & 0xFFFF
   \                     ??CrossCallReturnLabel_507:
   \   000003   22           RET

   \                                 In  segment BANKED_CODE, align 1, keep-with-next
   \                     ?Subroutine192:
   \   000000   A3           INC     DPTR
   \   000001   E0           MOVX    A,@DPTR
   \   000002   12....       LCALL   ?Subroutine198 & 0xFFFF
   \                     ??CrossCallReturnLabel_509:
   \   000005   22           RET

   \                                 In  segment BANKED_CODE, align 1, keep-with-next
   \                     ?Subroutine198:
   \   000000   3400         ADDC    A,#0x0
   \   000002   F9           MOV     R1,A
   \   000003   8882         MOV     DPL,R0
   \   000005   8983         MOV     DPH,R1
   \   000007   E0           MOVX    A,@DPTR
   \   000008   22           RET

   \                                 In  segment BANKED_CODE, align 1, keep-with-next
   \                     ??Subroutine233_0:
   \   000000   12....       LCALL   ??Subroutine212_0 & 0xFFFF
   \                     ??CrossCallReturnLabel_549:
   \   000003   22           RET

   \                                 In  segment BANKED_CODE, align 1, keep-with-next
   \                     ??Subroutine235_0:
   \   000000   E0           MOVX    A,@DPTR
   \   000001   F9           MOV     R1,A
   \   000002   12....       LCALL   ??ZDO_ConvertOTAClusters?relay
   \   000005   22           RET

   \                                 In  segment BANKED_CODE, align 1, keep-with-next
   \                     ?Subroutine116:
   \   000000   E0           MOVX    A,@DPTR
   \   000001   8A82         MOV     DPL,R2
   \   000003   8B83         MOV     DPH,R3
   \   000005   22           RET

   \                                 In  segment BANKED_CODE, align 1, keep-with-next
   \                     ?Subroutine141:
   \   000000   E5..         MOV     A,?V0 + 0
   \   000002   2404         ADD     A,#0x4
   \   000004   F5..         MOV     ?V0 + 0,A
   \   000006   E5..         MOV     A,?V0 + 1
   \   000008   3400         ADDC    A,#0x0
   \   00000A   F5..         MOV     ?V0 + 1,A
   \   00000C   22           RET

   \                                 In  segment BANKED_CODE, align 1, keep-with-next
   \                     ?Subroutine100:
   \   000000   A3           INC     DPTR
   \   000001   E0           MOVX    A,@DPTR
   \   000002   FA           MOV     R2,A
   \   000003   85..82       MOV     DPL,?V0 + 0
   \   000006   85..83       MOV     DPH,?V0 + 1
   \   000009   A3           INC     DPTR
   \   00000A   A3           INC     DPTR
   \   00000B   22           RET

   \                                 In  segment BANKED_CODE, align 1, keep-with-next
   \                     ?Subroutine115:
   \   000000   E0           MOVX    A,@DPTR
   \   000001   2402         ADD     A,#0x2
   \   000003   08           INC     R0
   \   000004   08           INC     R0
   \   000005   A3           INC     DPTR
   \   000006   E0           MOVX    A,@DPTR
   \   000007   3400         ADDC    A,#0x0
   \   000009   22           RET

   \                                 In  segment BANKED_CODE, align 1, keep-with-next
   \                     ?Subroutine114:
   \   000000   12....       LCALL   ?Subroutine173 & 0xFFFF
   \                     ??CrossCallReturnLabel_661:
   \   000003   22           RET

   \                                 In  segment BANKED_CODE, align 1, keep-with-next
   \                     ?Subroutine173:
   \   000000   12....       LCALL   ??Subroutine217_0 & 0xFFFF
   \                     ??CrossCallReturnLabel_667:
   \   000003   22           RET

   \                                 In  segment BANKED_CODE, align 1, keep-with-next
   \                     ?Subroutine88:
   \   000000   12....       LCALL   ?Subroutine169 & 0xFFFF
   \                     ??CrossCallReturnLabel_287:
   \   000003   A3           INC     DPTR
   \   000004   A3           INC     DPTR
   \   000005   A3           INC     DPTR
   \   000006   22           RET

   \                                 In  segment BANKED_CODE, align 1, keep-with-next
   \                     ?Subroutine169:
   \   000000   12....       LCALL   ?Subroutine193 & 0xFFFF
   \                     ??CrossCallReturnLabel_665:
   \   000003   A3           INC     DPTR
   \   000004   A3           INC     DPTR
   \   000005   22           RET

   \                                 In  segment BANKED_CODE, align 1, keep-with-next
   \                     ?Subroutine78:
   \   000000   E0           MOVX    A,@DPTR
   \   000001   F8           MOV     R0,A
   \   000002                REQUIRE ??Subroutine254_0
   \   000002                ; // Fall through to label ??Subroutine254_0

   \                                 In  segment BANKED_CODE, align 1, keep-with-next
   \                     ??Subroutine254_0:
   \   000000   12....       LCALL   ?Subroutine173 & 0xFFFF
   \                     ??CrossCallReturnLabel_662:
   \   000003   A3           INC     DPTR
   \   000004   A3           INC     DPTR
   \   000005   A3           INC     DPTR
   \   000006   A3           INC     DPTR
   \   000007   A3           INC     DPTR
   \   000008   A3           INC     DPTR
   \   000009   A3           INC     DPTR
   \   00000A   22           RET

   \                                 In  segment BANKED_CODE, align 1, keep-with-next
   \                     ?Subroutine77:
   \   000000   12....       LCALL   ?Subroutine160 & 0xFFFF
   \                     ??CrossCallReturnLabel_283:
   \   000003   22           RET

   \                                 In  segment BANKED_CODE, align 1, keep-with-next
   \                     ?Subroutine160:
   \   000000   12....       LCALL   ?Subroutine193 & 0xFFFF
   \                     ??CrossCallReturnLabel_664:
   \   000003   A3           INC     DPTR
   \   000004   A3           INC     DPTR
   \   000005   A3           INC     DPTR
   \   000006   A3           INC     DPTR
   \   000007   A3           INC     DPTR
   \   000008   A3           INC     DPTR
   \   000009   A3           INC     DPTR
   \   00000A   A3           INC     DPTR
   \   00000B   A3           INC     DPTR
   \   00000C   22           RET

   \                                 In  segment BANKED_CODE, align 1, keep-with-next
   \                     ?Subroutine67:
   \   000000   12....       LCALL   ?Subroutine166 & 0xFFFF
   \                     ??CrossCallReturnLabel_330:
   \   000003   75..00       MOV     ?V0 + 2,#0x0
   \   000006   78..         MOV     R0,#?V0 + 0
   \   000008   22           RET
    961          
    962          /*********************************************************************
    963           * @fn      ZDO_ProcessBindUnbindReq()
    964           *
    965           * @brief   Called to process a Bind or Unbind Request message.
    966           *
    967           * @param   inMsg  - incoming message (request)
    968           * @param   pReq - place to put parsed information
    969           *
    970           * @return  none
    971           */

   \                                 In  segment BANKED_CODE, align 1, keep-with-next
    972          void ZDO_ProcessBindUnbindReq( zdoIncomingMsg_t *inMsg, ZDO_BindUnbindReq_t *pReq )
   \                     ZDO_ProcessBindUnbindReq:
    973          {
   \   000000   74F0         MOV     A,#-0x10
   \   000002   12....       LCALL   ?BANKED_ENTER_XDATA
   \   000005                ; Saved register size: 16
   \   000005                ; Auto size: 12
   \   000005   74F4         MOV     A,#-0xc
   \   000007   12....       LCALL   ?ALLOC_XSTACK8
   \   00000A   8A..         MOV     ?V0 + 0,R2
   \   00000C   8B..         MOV     ?V0 + 1,R3
   \   00000E   EC           MOV     A,R4
   \   00000F   FE           MOV     R6,A
   \   000010   ED           MOV     A,R5
   \   000011   FF           MOV     R7,A
    974            zAddrType_t SourceAddr;       // Binding Source addres
    975            byte bindStat;
    976          
    977            SourceAddr.addrMode = Addr64Bit;
   \   000012   740B         MOV     A,#0xb
   \   000014   12....       LCALL   ?XSTACK_DISP0_8
   \   000017   7403         MOV     A,#0x3
   \   000019   F0           MOVX    @DPTR,A
    978            osal_cpyExtAddr( SourceAddr.addr.extAddr, pReq->srcAddress );
   \   00001A                ; Setup parameters for call to function sAddrExtCpy
   \   00001A   12....       LCALL   ?XSTACK_DISP0_8
   \   00001D   AA82         MOV     R2,DPL
   \   00001F   AB83         MOV     R3,DPH
   \   000021   12....       LCALL   ??sAddrExtCpy?relay
   \   000024                ; Setup parameters for call to function sAddrExtCmp
   \   000024                ; Setup parameters for call to function NLME_GetExtAddr
    979          
    980            // If the local device is not the primary binding cache
    981            // check the src address of the bind request.
    982            // If it is not the local device's extended address
    983            // discard the request.
    984            if ( !osal_ExtAddrEqual( SourceAddr.addr.extAddr, NLME_GetExtAddr()) ||
    985                  (pReq->dstAddress.addrMode != Addr64Bit &&
    986                   pReq->dstAddress.addrMode != AddrGroup) )
   \   000024   12....       LCALL   ??NLME_GetExtAddr?relay
   \   000027   EA           MOV     A,R2
   \   000028   FC           MOV     R4,A
   \   000029   EB           MOV     A,R3
   \   00002A   FD           MOV     R5,A
   \   00002B   7403         MOV     A,#0x3
   \   00002D   12....       LCALL   ?XSTACK_DISP0_8
   \   000030   AA82         MOV     R2,DPL
   \   000032   AB83         MOV     R3,DPH
   \   000034   12....       LCALL   ??sAddrExtCmp?relay
   \   000037   E9           MOV     A,R1
   \   000038   601B         JZ      ??ZDO_ProcessBindUnbindReq_0
   \   00003A   EE           MOV     A,R6
   \   00003B   2413         ADD     A,#0x13
   \   00003D   F5..         MOV     ?V0 + 6,A
   \   00003F   EF           MOV     A,R7
   \   000040   3400         ADDC    A,#0x0
   \   000042   F5..         MOV     ?V0 + 7,A
   \   000044   85..82       MOV     DPL,?V0 + 6
   \   000047   F583         MOV     DPH,A
   \   000049   E0           MOVX    A,@DPTR
   \   00004A   F8           MOV     R0,A
   \   00004B   7403         MOV     A,#0x3
   \   00004D   68           XRL     A,R0
   \   00004E   6010         JZ      ??ZDO_ProcessBindUnbindReq_1
   \   000050   7401         MOV     A,#0x1
   \   000052   68           XRL     A,R0
   \   000053   600B         JZ      ??ZDO_ProcessBindUnbindReq_1
    987            {
    988              bindStat = ZDP_NOT_SUPPORTED;
   \                     ??ZDO_ProcessBindUnbindReq_0:
   \   000055   85..82       MOV     DPL,?XSP + 0
   \   000058   85..83       MOV     DPH,?XSP + 1
   \   00005B   7484         MOV     A,#-0x7c
   \   00005D   02....       LJMP    ??ZDO_ProcessBindUnbindReq_2 & 0xFFFF
    989            }
    990            else
    991            {
    992              // Check source & destination endpoints
    993              if ( (pReq->srcEndpoint == 0 || pReq->srcEndpoint > MAX_ENDPOINTS)
    994                  || (( pReq->dstAddress.addrMode == Addr64Bit ) &&
    995                      (pReq->dstEndpoint == 0 || pReq->dstEndpoint > MAX_ENDPOINTS)) )
   \                     ??ZDO_ProcessBindUnbindReq_1:
   \   000060   EE           MOV     A,R6
   \   000061   2408         ADD     A,#0x8
   \   000063   F5..         MOV     ?V0 + 2,A
   \   000065   EF           MOV     A,R7
   \   000066   12....       LCALL   ??Subroutine234_0 & 0xFFFF
   \                     ??CrossCallReturnLabel_550:
   \   000069   E0           MOVX    A,@DPTR
   \   00006A   F9           MOV     R1,A
   \   00006B   601E         JZ      ??ZDO_ProcessBindUnbindReq_3
   \   00006D   C3           CLR     C
   \   00006E   94F1         SUBB    A,#-0xf
   \   000070   5019         JNC     ??ZDO_ProcessBindUnbindReq_3
   \   000072   EE           MOV     A,R6
   \   000073   2414         ADD     A,#0x14
   \   000075   FC           MOV     R4,A
   \   000076   EF           MOV     A,R7
   \   000077   3400         ADDC    A,#0x0
   \   000079   FD           MOV     R5,A
   \   00007A   7403         MOV     A,#0x3
   \   00007C   68           XRL     A,R0
   \   00007D   7017         JNZ     ??ZDO_ProcessBindUnbindReq_4
   \   00007F   8C82         MOV     DPL,R4
   \   000081   8D83         MOV     DPH,R5
   \   000083   E0           MOVX    A,@DPTR
   \   000084   6005         JZ      ??ZDO_ProcessBindUnbindReq_3
   \   000086   C3           CLR     C
   \   000087   94F1         SUBB    A,#-0xf
   \   000089   400B         JC      ??ZDO_ProcessBindUnbindReq_4
    996              {
    997                bindStat = ZDP_INVALID_EP;
   \                     ??ZDO_ProcessBindUnbindReq_3:
   \   00008B   85..82       MOV     DPL,?XSP + 0
   \   00008E   85..83       MOV     DPH,?XSP + 1
   \   000091   7482         MOV     A,#-0x7e
   \   000093   02....       LJMP    ??ZDO_ProcessBindUnbindReq_2 & 0xFFFF
    998              }
    999              else
   1000              {
   1001                if ( inMsg->clusterID == Bind_req )
   \                     ??ZDO_ProcessBindUnbindReq_4:
   \   000096   EE           MOV     A,R6
   \   000097   2409         ADD     A,#0x9
   \   000099   FA           MOV     R2,A
   \   00009A   EF           MOV     A,R7
   \   00009B   3400         ADDC    A,#0x0
   \   00009D   FB           MOV     R3,A
   \   00009E   EE           MOV     A,R6
   \   00009F   240B         ADD     A,#0xb
   \   0000A1   FE           MOV     R6,A
   \   0000A2   EF           MOV     A,R7
   \   0000A3   3400         ADDC    A,#0x0
   \   0000A5   FF           MOV     R7,A
   \   0000A6   12....       LCALL   ?Subroutine133 & 0xFFFF
   \                     ??CrossCallReturnLabel_575:
   \   0000A9   6421         XRL     A,#0x21
   \   0000AB   7002         JNZ     ??ZDO_ProcessBindUnbindReq_5
   \   0000AD   A3           INC     DPTR
   \   0000AE   E0           MOVX    A,@DPTR
   \                     ??ZDO_ProcessBindUnbindReq_5:
   \   0000AF   706B         JNZ     ??ZDO_ProcessBindUnbindReq_6
   1002                {
   1003                  // Assume the table is full
   1004                  bindStat = ZDP_TABLE_FULL;
   \   0000B1   85..82       MOV     DPL,?XSP + 0
   \   0000B4   85..83       MOV     DPH,?XSP + 1
   \   0000B7   748C         MOV     A,#-0x74
   \   0000B9   F0           MOVX    @DPTR,A
   1005          
   1006          #if defined( APP_TP ) || defined( APP_TP2 )
   1007                  // For ZigBee Conformance Testing
   1008                  if ( bindNumOfEntries() < gNWK_MAX_BINDING_ENTRIES )
   1009          #endif
   1010                  {
   1011                    if ( APSME_BindRequest( pReq->srcEndpoint, pReq->clusterID,
   1012                                   &(pReq->dstAddress), pReq->dstEndpoint ) == ZSuccess )
   \   0000BA                ; Setup parameters for call to function APSME_BindRequest
   \   0000BA   8C82         MOV     DPL,R4
   \   0000BC   8D83         MOV     DPH,R5
   \   0000BE   E0           MOVX    A,@DPTR
   \   0000BF   F5..         MOV     ?V0 + 4,A
   \   0000C1   78..         MOV     R0,#?V0 + 4
   \   0000C3   12....       LCALL   ?PUSH_XSTACK_I_ONE
   \   0000C6   EE           MOV     A,R6
   \   0000C7   FC           MOV     R4,A
   \   0000C8   EF           MOV     A,R7
   \   0000C9   FD           MOV     R5,A
   \   0000CA   8A82         MOV     DPL,R2
   \   0000CC   8B83         MOV     DPH,R3
   \   0000CE   12....       LCALL   ??Subroutine214_0 & 0xFFFF
   \                     ??CrossCallReturnLabel_384:
   \   0000D1   85..82       MOV     DPL,?V0 + 2
   \   0000D4   85..83       MOV     DPH,?V0 + 3
   \   0000D7   E0           MOVX    A,@DPTR
   \   0000D8   F9           MOV     R1,A
   \   0000D9   12....       LCALL   ??APSME_BindRequest?relay
   \   0000DC   7401         MOV     A,#0x1
   \   0000DE   12....       LCALL   ?DEALLOC_XSTACK8
   \   0000E1   E9           MOV     A,R1
   \   0000E2   7068         JNZ     ??ZDO_ProcessBindUnbindReq_7
   1013                    {
   1014                      uint16 nwkAddr;
   1015          
   1016                      // valid entry
   1017                      bindStat = ZDP_SUCCESS;
   \   0000E4   85..82       MOV     DPL,?XSP + 0
   \   0000E7   85..83       MOV     DPH,?XSP + 1
   \   0000EA   E4           CLR     A
   \   0000EB   F0           MOVX    @DPTR,A
   1018          
   1019                      // Notify to save info into NV
   1020                      ZDApp_NVUpdate();
   \   0000EC                ; Setup parameters for call to function ZDApp_NVUpdate
   \   0000EC   12....       LCALL   ??ZDApp_NVUpdate?relay
   1021          
   1022                      // Check for the destination address
   1023                      if ( pReq->dstAddress.addrMode == Addr64Bit )
   \   0000EF   85..82       MOV     DPL,?V0 + 6
   \   0000F2   85..83       MOV     DPH,?V0 + 7
   \   0000F5   E0           MOVX    A,@DPTR
   \   0000F6   6403         XRL     A,#0x3
   \   0000F8   7052         JNZ     ??ZDO_ProcessBindUnbindReq_7
   1024                      {
   1025                        if ( APSME_LookupNwkAddr( pReq->dstAddress.addr.extAddr, &nwkAddr ) == FALSE )
   \   0000FA                ; Setup parameters for call to function APSME_LookupNwkAddr
   \   0000FA   7401         MOV     A,#0x1
   \   0000FC   12....       LCALL   ?XSTACK_DISP0_8
   \   0000FF   AC82         MOV     R4,DPL
   \   000101   AD83         MOV     R5,DPH
   \   000103   EE           MOV     A,R6
   \   000104   FA           MOV     R2,A
   \   000105   EF           MOV     A,R7
   \   000106   FB           MOV     R3,A
   \   000107   12....       LCALL   ??APSME_LookupNwkAddr?relay
   \   00010A   E9           MOV     A,R1
   \   00010B   703F         JNZ     ??ZDO_ProcessBindUnbindReq_7
   1026                        {
   1027                          ZDP_NwkAddrReq( pReq->dstAddress.addr.extAddr, ZDP_ADDR_REQTYPE_SINGLE, 0, 0 );
   \   00010D                ; Setup parameters for call to function ZDP_NwkAddrReq
   \   00010D   7D00         MOV     R5,#0x0
   \   00010F   7C00         MOV     R4,#0x0
   \   000111   7900         MOV     R1,#0x0
   \   000113   EE           MOV     A,R6
   \   000114   FA           MOV     R2,A
   \   000115   EF           MOV     A,R7
   \   000116   FB           MOV     R3,A
   \   000117   12....       LCALL   ??ZDP_NwkAddrReq?relay
   \   00011A   8030         SJMP    ??ZDO_ProcessBindUnbindReq_7
   1028                        }
   1029                      }
   1030                    }
   1031                  }
   1032                }
   1033                else // Unbind_req
   1034                {
   1035                  if ( APSME_UnBindRequest( pReq->srcEndpoint, pReq->clusterID,
   1036                                 &(pReq->dstAddress), pReq->dstEndpoint ) == ZSuccess )
   \                     ??ZDO_ProcessBindUnbindReq_6:
   \   00011C                ; Setup parameters for call to function APSME_UnBindRequest
   \   00011C   8C82         MOV     DPL,R4
   \   00011E   8D83         MOV     DPH,R5
   \   000120   12....       LCALL   ??Subroutine204_0 & 0xFFFF
   \                     ??CrossCallReturnLabel_345:
   \   000123   12....       LCALL   ?PUSH_XSTACK_I_ONE
   \   000126   EE           MOV     A,R6
   \   000127   FC           MOV     R4,A
   \   000128   EF           MOV     A,R7
   \   000129   FD           MOV     R5,A
   \   00012A   8A82         MOV     DPL,R2
   \   00012C   8B83         MOV     DPH,R3
   \   00012E   12....       LCALL   ??Subroutine214_0 & 0xFFFF
   \                     ??CrossCallReturnLabel_385:
   \   000131   12....       LCALL   ??APSME_UnBindRequest?relay
   \   000134   7401         MOV     A,#0x1
   \   000136   12....       LCALL   ?DEALLOC_XSTACK8
   \   000139   E9           MOV     A,R1
   \   00013A   85..82       MOV     DPL,?XSP + 0
   \   00013D   85..83       MOV     DPH,?XSP + 1
   \   000140   7007         JNZ     ??ZDO_ProcessBindUnbindReq_8
   1037                  {
   1038                    bindStat = ZDP_SUCCESS;
   \   000142   E4           CLR     A
   \   000143   F0           MOVX    @DPTR,A
   1039          
   1040                    // Notify to save info into NV
   1041                    ZDApp_NVUpdate();
   \   000144                ; Setup parameters for call to function ZDApp_NVUpdate
   \   000144   12....       LCALL   ??ZDApp_NVUpdate?relay
   \   000147   8003         SJMP    ??ZDO_ProcessBindUnbindReq_7
   1042                  }
   1043                  else
   1044                    bindStat = ZDP_NO_ENTRY;
   \                     ??ZDO_ProcessBindUnbindReq_8:
   \   000149   7488         MOV     A,#-0x78
   \                     ??ZDO_ProcessBindUnbindReq_2:
   \   00014B   F0           MOVX    @DPTR,A
   1045                }
   1046              }
   1047            }
   1048          
   1049            // Send back a response message
   1050            ZDP_SendData( &(inMsg->TransSeq), &(inMsg->srcAddr),
   1051                         (inMsg->clusterID | ZDO_RESPONSE_BIT), 1, &bindStat,
   1052                         inMsg->SecurityUse );
   \                     ??ZDO_ProcessBindUnbindReq_7:
   \   00014C                ; Setup parameters for call to function ZDP_SendData
   \   00014C   E5..         MOV     A,?V0 + 0
   \   00014E   12....       LCALL   ??Subroutine240_0 & 0xFFFF
   \                     ??CrossCallReturnLabel_582:
   \   000151   E5..         MOV     A,?V0 + 1
   \   000153   12....       LCALL   ?Subroutine110 & 0xFFFF
   \                     ??CrossCallReturnLabel_347:
   \   000156   12....       LCALL   ?PUSH_XSTACK_I_ONE
   \   000159   7401         MOV     A,#0x1
   \   00015B   12....       LCALL   ?XSTACK_DISP0_8
   \   00015E   8582..       MOV     ?V0 + 2,DPL
   \   000161   8583..       MOV     ?V0 + 3,DPH
   \   000164   78..         MOV     R0,#?V0 + 2
   \   000166   12....       LCALL   ?PUSH_XSTACK_I_TWO
   \   000169   12....       LCALL   ?Subroutine133 & 0xFFFF
   \                     ??CrossCallReturnLabel_576:
   \   00016C   F5..         MOV     ?V0 + 2,A
   \   00016E   A3           INC     DPTR
   \   00016F   E0           MOVX    A,@DPTR
   \   000170   4480         ORL     A,#0x80
   \   000172   F5..         MOV     ?V0 + 3,A
   \   000174   78..         MOV     R0,#?V0 + 2
   \   000176   12....       LCALL   ?PUSH_XSTACK_I_TWO
   \   000179   12....       LCALL   ?Subroutine125 & 0xFFFF
   \                     ??CrossCallReturnLabel_404:
   \   00017C   12....       LCALL   ?DEALLOC_XSTACK8
   1053          }
   \   00017F   740C         MOV     A,#0xc
   \   000181   02....       LJMP    ?Subroutine6 & 0xFFFF

   \                                 In  segment BANKED_CODE, align 1, keep-with-next
   \                     ?Subroutine125:
   \   000000   7901         MOV     R1,#0x1
   \   000002   E5..         MOV     A,?V0 + 0
   \   000004   2402         ADD     A,#0x2
   \   000006   FC           MOV     R4,A
   \   000007   E5..         MOV     A,?V0 + 1
   \   000009   3400         ADDC    A,#0x0
   \   00000B   FD           MOV     R5,A
   \   00000C   E5..         MOV     A,?V0 + 0
   \   00000E   240F         ADD     A,#0xf
   \   000010   FA           MOV     R2,A
   \   000011   E5..         MOV     A,?V0 + 1
   \   000013                REQUIRE ??Subroutine218_0
   \   000013                ; // Fall through to label ??Subroutine218_0

   \                                 In  segment BANKED_CODE, align 1, keep-with-next
   \                     ??Subroutine218_0:
   \   000000   3400         ADDC    A,#0x0
   \   000002   FB           MOV     R3,A
   \   000003   12....       LCALL   ?Subroutine184 & 0xFFFF
   \                     ??CrossCallReturnLabel_410:
   \   000006   22           RET

   \                                 In  segment BANKED_CODE, align 1, keep-with-next
   \                     ?Subroutine184:
   \   000000   12....       LCALL   ??ZDP_SendData?relay
   \   000003   7405         MOV     A,#0x5
   \   000005   22           RET

   \                                 In  segment BANKED_CODE, align 1, keep-with-next
   \                     ??Subroutine234_0:
   \   000000   3400         ADDC    A,#0x0
   \   000002   F5..         MOV     ?V0 + 3,A
   \   000004   85..82       MOV     DPL,?V0 + 2
   \   000007   F583         MOV     DPH,A
   \   000009   22           RET

   \                                 In  segment BANKED_CODE, align 1, keep-with-next
   \                     ?Subroutine133:
   \   000000   E5..         MOV     A,?V0 + 0
   \   000002   240C         ADD     A,#0xc
   \   000004                REQUIRE ??Subroutine237_0
   \   000004                ; // Fall through to label ??Subroutine237_0

   \                                 In  segment BANKED_CODE, align 1, keep-with-next
   \                     ??Subroutine237_0:
   \   000000   F582         MOV     DPL,A
   \   000002   E5..         MOV     A,?V0 + 1
   \   000004                REQUIRE ??Subroutine238_0
   \   000004                ; // Fall through to label ??Subroutine238_0

   \                                 In  segment BANKED_CODE, align 1, keep-with-next
   \                     ??Subroutine238_0:
   \   000000   12....       LCALL   ??Subroutine239_0 & 0xFFFF
   \                     ??CrossCallReturnLabel_581:
   \   000003   22           RET
   1054          
   1055          /*********************************************************************
   1056           * @fn      ZDO_UpdateAddrManager
   1057           *
   1058           * @brief   Update the Address Manager.
   1059           *
   1060           * @param   nwkAddr - network address
   1061           * @param   extAddr - extended address
   1062           *
   1063           * @return  none
   1064           */

   \                                 In  segment BANKED_CODE, align 1, keep-with-next
   1065          void ZDO_UpdateAddrManager( uint16 nwkAddr, uint8 *extAddr )
   \                     ZDO_UpdateAddrManager:
   1066          {
   \   000000   C082         PUSH    DPL
   \   000002   C083         PUSH    DPH
   \   000004                ; Saved register size: 2
   \   000004                ; Auto size: 13
   \   000004   74F3         MOV     A,#-0xd
   \   000006   12....       LCALL   ?ALLOC_XSTACK8
   1067            AddrMgrEntry_t addrEntry;
   1068          
   1069            // Update the address manager
   1070            addrEntry.user = ADDRMGR_USER_DEFAULT;
   \   000009   85..82       MOV     DPL,?XSP + 0
   \   00000C   85..83       MOV     DPH,?XSP + 1
   \   00000F   E4           CLR     A
   \   000010   F0           MOVX    @DPTR,A
   1071            addrEntry.nwkAddr = nwkAddr;
   \   000011   04           INC     A
   \   000012   12....       LCALL   ?XSTACK_DISP0_8
   \   000015   12....       LCALL   ?Subroutine39 & 0xFFFF
   1072            AddrMgrExtAddrSet( addrEntry.extAddr, extAddr );
   \                     ??CrossCallReturnLabel_60:
   \   000018                ; Setup parameters for call to function AddrMgrExtAddrSet
   \   000018   7403         MOV     A,#0x3
   \   00001A   12....       LCALL   ?XSTACK_DISP0_8
   \   00001D   AA82         MOV     R2,DPL
   \   00001F   AB83         MOV     R3,DPH
   \   000021   12....       LCALL   ??AddrMgrExtAddrSet?relay
   1073            AddrMgrEntryUpdate( &addrEntry );
   \   000024                ; Setup parameters for call to function AddrMgrEntryUpdate
   \   000024   85..82       MOV     DPL,?XSP + 0
   \   000027   85..83       MOV     DPH,?XSP + 1
   \   00002A   AA82         MOV     R2,DPL
   \   00002C   AB83         MOV     R3,DPH
   \   00002E   12....       LCALL   ??AddrMgrEntryUpdate?relay
   1074          }
   \   000031   740D         MOV     A,#0xd
   \   000033   12....       LCALL   ?DEALLOC_XSTACK8
   \   000036   02....       LJMP    ?Subroutine0 & 0xFFFF
   1075          
   1076          /*********************************************************************
   1077           * @fn      ZDO_ProcessServerDiscReq
   1078           *
   1079           * @brief   Process the Server_Discovery_req message.
   1080           *
   1081           * @param   inMsg  - incoming message (request)
   1082           *
   1083           * @return  none
   1084           */

   \                                 In  segment BANKED_CODE, align 1, keep-with-next
   1085          void ZDO_ProcessServerDiscReq( zdoIncomingMsg_t *inMsg )
   \                     ZDO_ProcessServerDiscReq:
   1086          {
   \   000000   74F6         MOV     A,#-0xa
   \   000002   12....       LCALL   ?BANKED_ENTER_XDATA
   \   000005                ; Saved register size: 10
   \   000005                ; Auto size: 0
   \   000005   12....       LCALL   ?Subroutine124 & 0xFFFF
   1087            uint16 serverMask = BUILD_UINT16( inMsg->asdu[0], inMsg->asdu[1] );
   1088            uint16 matchMask = serverMask & ZDO_Config_Node_Descriptor.ServerMask;
   \                     ??CrossCallReturnLabel_235:
   \   000008   12....       LCALL   ?Subroutine101 & 0xFFFF
   \                     ??CrossCallReturnLabel_198:
   \   00000B   FA           MOV     R2,A
   \   00000C   A3           INC     DPTR
   \   00000D   E0           MOVX    A,@DPTR
   \   00000E   F9           MOV     R1,A
   \   00000F   EA           MOV     A,R2
   \   000010   F8           MOV     R0,A
   \   000011   90....       MOV     DPTR,#ZDO_Config_Node_Descriptor + 8
   \   000014   E0           MOVX    A,@DPTR
   \   000015   58           ANL     A,R0
   \   000016   F5..         MOV     ?V0 + 0,A
   \   000018   A3           INC     DPTR
   \   000019   E0           MOVX    A,@DPTR
   \   00001A   59           ANL     A,R1
   \   00001B   F5..         MOV     ?V0 + 1,A
   1089          
   1090            if ( matchMask )
   \   00001D   E5..         MOV     A,?V0 + 0
   \   00001F   45..         ORL     A,?V0 + 1
   \   000021   6027         JZ      ??ZDO_ProcessServerDiscReq_0
   1091            {
   1092              ZDP_ServerDiscRsp( inMsg->TransSeq, &(inMsg->srcAddr), ZSUCCESS,
   1093                          ZDAppNwkAddr.addr.shortAddr, matchMask, inMsg->SecurityUse );
   \   000023                ; Setup parameters for call to function ZDP_ServerDiscRsp
   \   000023   78..         MOV     R0,#?V0 + 0
   \   000025   12....       LCALL   ?PUSH_XSTACK_I_TWO
   \   000028   90....       MOV     DPTR,#ZDAppNwkAddr
   \   00002B   12....       LCALL   ?PUSH_XSTACK8_X_TWO
   \   00002E   EE           MOV     A,R6
   \   00002F   12....       LCALL   ??Subroutine240_0 & 0xFFFF
   1094            }
   \                     ??CrossCallReturnLabel_583:
   \   000032   EF           MOV     A,R7
   \   000033   12....       LCALL   ??Subroutine238_0 & 0xFFFF
   \                     ??CrossCallReturnLabel_565:
   \   000036   FD           MOV     R5,A
   \   000037   7C00         MOV     R4,#0x0
   \   000039   12....       LCALL   ?Subroutine181 & 0xFFFF
   \                     ??CrossCallReturnLabel_306:
   \   00003C   F582         MOV     DPL,A
   \   00003E   EF           MOV     A,R7
   \   00003F   12....       LCALL   ?Subroutine132 & 0xFFFF
   \                     ??CrossCallReturnLabel_241:
   \   000042   12....       LCALL   ??ZDP_ServerDiscRsp?relay
   \   000045   7404         MOV     A,#0x4
   \   000047   12....       LCALL   ?DEALLOC_XSTACK8
   1095          }
   \                     ??ZDO_ProcessServerDiscReq_0:
   \   00004A   02....       LJMP    ??Subroutine201_0 & 0xFFFF

   \                                 In  segment BANKED_CODE, align 1, keep-with-next
   \                     ?Subroutine124:
   \   000000   EA           MOV     A,R2
   \   000001   FE           MOV     R6,A
   \   000002   EB           MOV     A,R3
   \   000003   FF           MOV     R7,A
   \   000004                ; Setup parameters for call to function NLME_PermitJoiningRequest
   \   000004   EE           MOV     A,R6
   \   000005   2413         ADD     A,#0x13
   \   000007   12....       LCALL   ?Subroutine180 & 0xFFFF
   \                     ??CrossCallReturnLabel_547:
   \   00000A   22           RET

   \                                 In  segment BANKED_CODE, align 1, keep-with-next
   \                     ?Subroutine180:
   \   000000   F582         MOV     DPL,A
   \   000002   EF           MOV     A,R7
   \   000003                REQUIRE ??Subroutine212_0
   \   000003                ; // Fall through to label ??Subroutine212_0
   1096          
   1097          /*********************************************************************
   1098           * Call Back Functions from APS  - API
   1099           */
   1100          
   1101          /*********************************************************************
   1102           * @fn          ZDO_EndDeviceTimeoutCB
   1103           *
   1104           * @brief       This function handles the binding timer for the End
   1105           *              Device Bind command.
   1106           *
   1107           * @param       none
   1108           *
   1109           * @return      none
   1110           */

   \                                 In  segment BANKED_CODE, align 1, keep-with-next
   1111          void ZDO_EndDeviceTimeoutCB( void )
   \                     ZDO_EndDeviceTimeoutCB:
   1112          {
   \   000000   74F6         MOV     A,#-0xa
   \   000002   12....       LCALL   ?BANKED_ENTER_XDATA
   \   000005                ; Saved register size: 10
   \   000005                ; Auto size: 2
   \   000005   74FE         MOV     A,#-0x2
   \   000007   12....       LCALL   ?ALLOC_XSTACK8
   1113          #if defined ( REFLECTOR )
   1114            byte stat;
   1115            if ( ZDO_EDBind )
   \   00000A   90....       MOV     DPTR,#ZDO_EDBind
   \   00000D   12....       LCALL   ??Subroutine225_0 & 0xFFFF
   \                     ??CrossCallReturnLabel_445:
   \   000010   7003         JNZ     $+5
   \   000012   02....       LJMP    ??ZDO_EndDeviceTimeoutCB_0 & 0xFFFF
   1116            {
   1117              stat = ZDO_EDBind->status;
   1118          
   1119              // Send the response message to the first sent
   1120              ZDO_SendEDBindRsp( ZDO_EDBind->SrcTransSeq, &(ZDO_EDBind->SrcAddr),
   1121                                  stat, ZDO_EDBind->SecurityUse );
   \   000015   90....       MOV     DPTR,#ZDO_EDBind
   \   000018   E0           MOVX    A,@DPTR
   \   000019   2415         ADD     A,#0x15
   \   00001B   12....       LCALL   ?Subroutine92 & 0xFFFF
   \                     ??CrossCallReturnLabel_338:
   \   00001E   FA           MOV     R2,A
   \   00001F   90....       MOV     DPTR,#ZDO_EDBind
   \   000022   E0           MOVX    A,@DPTR
   \   000023   2416         ADD     A,#0x16
   \   000025   08           INC     R0
   \   000026   12....       LCALL   ??Subroutine203_0 & 0xFFFF
   \                     ??CrossCallReturnLabel_335:
   \   000029   85..82       MOV     DPL,?XSP + 0
   \   00002C   85..83       MOV     DPH,?XSP + 1
   \   00002F   F0           MOVX    @DPTR,A
   \   000030   90....       MOV     DPTR,#ZDO_EDBind
   \   000033   E0           MOVX    A,@DPTR
   \   000034   2401         ADD     A,#0x1
   \   000036   FC           MOV     R4,A
   \   000037   A3           INC     DPTR
   \   000038   E0           MOVX    A,@DPTR
   \   000039   3400         ADDC    A,#0x0
   \   00003B   FD           MOV     R5,A
   \   00003C   90....       MOV     DPTR,#ZDO_EDBind
   \   00003F   12....       LCALL   ??Subroutine215_0 & 0xFFFF
   \                     ??CrossCallReturnLabel_397:
   \   000042   C0E0         PUSH    A
   \   000044   7401         MOV     A,#0x1
   \   000046   12....       LCALL   ?XSTACK_DISP0_8
   \   000049   D0E0         POP     A
   \   00004B   F0           MOVX    @DPTR,A
   \   00004C                ; Setup parameters for call to function ZDP_SendData
   \   00004C   EA           MOV     A,R2
   \   00004D   F5..         MOV     ?V0 + 0,A
   \   00004F   78..         MOV     R0,#?V0 + 0
   \   000051   12....       LCALL   ?PUSH_XSTACK_I_ONE
   \   000054   7401         MOV     A,#0x1
   \   000056   12....       LCALL   ?XSTACK_DISP0_8
   \   000059   8582..       MOV     ?V0 + 0,DPL
   \   00005C   8583..       MOV     ?V0 + 1,DPH
   \   00005F   78..         MOV     R0,#?V0 + 0
   \   000061   12....       LCALL   ?PUSH_XSTACK_I_TWO
   \   000064   75..20       MOV     ?V0 + 0,#0x20
   \   000067   75..80       MOV     ?V0 + 1,#-0x80
   \   00006A   78..         MOV     R0,#?V0 + 0
   \   00006C   12....       LCALL   ?PUSH_XSTACK_I_TWO
   \   00006F   7901         MOV     R1,#0x1
   \   000071   7406         MOV     A,#0x6
   \   000073   12....       LCALL   ?XSTACK_DISP0_8
   \   000076   AA82         MOV     R2,DPL
   \   000078   AB83         MOV     R3,DPH
   \   00007A   12....       LCALL   ?Subroutine184 & 0xFFFF
   \                     ??CrossCallReturnLabel_409:
   \   00007D   12....       LCALL   ?DEALLOC_XSTACK8
   \   000080                ; Setup parameters for call to function HalLcdWriteString
   \   000080   7901         MOV     R1,#0x1
   \   000082   7A..         MOV     R2,#`?<Constant "End Device Bind">` & 0xff
   \   000084   7B..         MOV     R3,#(`?<Constant "End Device Bind">` >> 8) & 0xff
   \   000086   12....       LCALL   ??HalLcdWriteString?relay
   \   000089   85..82       MOV     DPL,?XSP + 0
   \   00008C   85..83       MOV     DPH,?XSP + 1
   \   00008F   E0           MOVX    A,@DPTR
   \   000090   7902         MOV     R1,#0x2
   \   000092   7006         JNZ     ??ZDO_EndDeviceTimeoutCB_1
   \   000094                ; Setup parameters for call to function HalLcdWriteString
   \   000094   7A..         MOV     R2,#`?<Constant "Success Sent">` & 0xff
   \   000096   7B..         MOV     R3,#(`?<Constant "Success Sent">` >> 8) & 0xff
   \   000098   8004         SJMP    ??ZDO_EndDeviceTimeoutCB_2
   \                     ??ZDO_EndDeviceTimeoutCB_1:
   \   00009A                ; Setup parameters for call to function HalLcdWriteString
   \   00009A   7A..         MOV     R2,#`?<Constant "Timeout">` & 0xff
   \   00009C   7B..         MOV     R3,#(`?<Constant "Timeout">` >> 8) & 0xff
   \                     ??ZDO_EndDeviceTimeoutCB_2:
   \   00009E   12....       LCALL   ??HalLcdWriteString?relay
   1122          
   1123              ZDO_RemoveEndDeviceBind();
   \   0000A1   90....       MOV     DPTR,#ZDO_EDBind
   \   0000A4   12....       LCALL   ??Subroutine225_0 & 0xFFFF
   1124            }
   \                     ??CrossCallReturnLabel_446:
   \   0000A7   6029         JZ      ??ZDO_EndDeviceTimeoutCB_0
   \   0000A9   90....       MOV     DPTR,#ZDO_EDBind
   \   0000AC   E0           MOVX    A,@DPTR
   \   0000AD   2410         ADD     A,#0x10
   \   0000AF   12....       LCALL   ?Subroutine54 & 0xFFFF
   \                     ??CrossCallReturnLabel_102:
   \   0000B2   6003         JZ      ??ZDO_EndDeviceTimeoutCB_3
   \   0000B4                ; Setup parameters for call to function osal_mem_free
   \   0000B4   12....       LCALL   ??osal_mem_free?relay
   \                     ??ZDO_EndDeviceTimeoutCB_3:
   \   0000B7   90....       MOV     DPTR,#ZDO_EDBind
   \   0000BA   E0           MOVX    A,@DPTR
   \   0000BB   2413         ADD     A,#0x13
   \   0000BD   12....       LCALL   ?Subroutine54 & 0xFFFF
   \                     ??CrossCallReturnLabel_103:
   \   0000C0   6003         JZ      ??ZDO_EndDeviceTimeoutCB_4
   \   0000C2                ; Setup parameters for call to function osal_mem_free
   \   0000C2   12....       LCALL   ??osal_mem_free?relay
   \                     ??ZDO_EndDeviceTimeoutCB_4:
   \   0000C5                ; Setup parameters for call to function osal_mem_free
   \   0000C5   90....       MOV     DPTR,#ZDO_EDBind
   \   0000C8   12....       LCALL   ?Subroutine59 & 0xFFFF
   \                     ??CrossCallReturnLabel_126:
   \   0000CB   90....       MOV     DPTR,#ZDO_EDBind
   \   0000CE   E4           CLR     A
   \   0000CF   F0           MOVX    @DPTR,A
   \   0000D0   A3           INC     DPTR
   \   0000D1   F0           MOVX    @DPTR,A
   1125          #endif  // REFLECTOR
   1126          }
   \                     ??ZDO_EndDeviceTimeoutCB_0:
   \   0000D2   02....       LJMP    ?Subroutine3 & 0xFFFF

   \                                 In  segment BANKED_CODE, align 1, keep-with-next
   \                     ?Subroutine54:
   \   000000   12....       LCALL   ?Subroutine163 & 0xFFFF
   \                     ??CrossCallReturnLabel_284:
   \   000003   EA           MOV     A,R2
   \   000004   4B           ORL     A,R3
   \   000005   22           RET

   \                                 In  segment BANKED_CODE, align 1, keep-with-next
   \                     ?Subroutine163:
   \   000000   F8           MOV     R0,A
   \   000001   12....       LCALL   ?Subroutine192 & 0xFFFF
   \                     ??CrossCallReturnLabel_505:
   \   000004   FA           MOV     R2,A
   \   000005   A3           INC     DPTR
   \   000006   E0           MOVX    A,@DPTR
   \   000007   FB           MOV     R3,A
   \   000008   22           RET
   1127          
   1128          /*********************************************************************
   1129           * Optional Management Messages
   1130           */
   1131          
   1132          /*********************************************************************
   1133           * @fn          ZDO_ProcessMgmtLqiReq
   1134           *
   1135           * @brief       This function handles parsing the incoming Management
   1136           *              LQI request and generate the response.
   1137           *
   1138           *   Note:      This function will limit the number of items returned
   1139           *              to ZDO_MAX_LQI_ITEMS items.
   1140           *
   1141           * @param       inMsg - incoming message (request)
   1142           *
   1143           * @return      none
   1144           */

   \                                 In  segment BANKED_CODE, align 1, keep-with-next
   1145          void ZDO_ProcessMgmtLqiReq( zdoIncomingMsg_t *inMsg )
   \                     ZDO_ProcessMgmtLqiReq:
   1146          {
   \   000000   74F0         MOV     A,#-0x10
   \   000002   12....       LCALL   ?BANKED_ENTER_XDATA
   \   000005                ; Saved register size: 16
   \   000005                ; Auto size: 43
   \   000005   74D5         MOV     A,#-0x2b
   \   000007   12....       LCALL   ?ALLOC_XSTACK8
   \   00000A   7405         MOV     A,#0x5
   \   00000C   12....       LCALL   ?XSTACK_DISP0_8
   \   00000F   12....       LCALL   ?Subroutine39 & 0xFFFF
   1147            byte x;
   1148            byte index;
   1149            byte numItems;
   1150            byte maxItems;
   1151            ZDP_MgmtLqiItem_t* table = NULL;
   \                     ??CrossCallReturnLabel_61:
   \   000012   7401         MOV     A,#0x1
   \   000014   12....       LCALL   ?XSTACK_DISP0_8
   \   000017   E4           CLR     A
   \   000018   F0           MOVX    @DPTR,A
   \   000019   A3           INC     DPTR
   \   00001A   F0           MOVX    @DPTR,A
   1152            ZDP_MgmtLqiItem_t* item;
   1153            neighborEntry_t    entry;
   1154            byte aItems;
   1155            associated_devices_t *aDevice;
   1156            AddrMgrEntry_t  nwkEntry;
   1157            uint8 StartIndex = inMsg->asdu[0];
   \   00001B   7405         MOV     A,#0x5
   \   00001D   12....       LCALL   ?XSTACK_DISP0_8
   \   000020   12....       LCALL   ?Subroutine57 & 0xFFFF
   \                     ??CrossCallReturnLabel_113:
   \   000023   F5..         MOV     ?V0 + 5,A
   1158          
   1159            // Get the number of neighbor items
   1160            NLME_GetRequest( nwkNumNeighborTableEntries, 0, &maxItems );
   \   000025                ; Setup parameters for call to function NLME_GetRequest
   \   000025   85..82       MOV     DPL,?XSP + 0
   \   000028   85..83       MOV     DPH,?XSP + 1
   \   00002B   AC82         MOV     R4,DPL
   \   00002D   AD83         MOV     R5,DPH
   \   00002F   7A00         MOV     R2,#0x0
   \   000031   7B00         MOV     R3,#0x0
   \   000033   799C         MOV     R1,#-0x64
   \   000035   12....       LCALL   ??NLME_GetRequest?relay
   1161          
   1162            // Get the number of associated items
   1163            aItems = (uint8)AssocCount( PARENT, CHILD_FFD_RX_IDLE );
   \   000038                ; Setup parameters for call to function AssocCount
   \   000038   7A04         MOV     R2,#0x4
   \   00003A   7900         MOV     R1,#0x0
   \   00003C   12....       LCALL   ??AssocCount?relay
   \   00003F   EA           MOV     A,R2
   \   000040   F5..         MOV     ?V0 + 2,A
   1164          
   1165            // Total number of items
   1166            maxItems += aItems;
   \   000042   85..82       MOV     DPL,?XSP + 0
   \   000045   85..83       MOV     DPH,?XSP + 1
   \   000048   E0           MOVX    A,@DPTR
   \   000049   25..         ADD     A,?V0 + 2
   \   00004B   F0           MOVX    @DPTR,A
   1167          
   1168            // Start with the supplied index
   1169            if ( maxItems > StartIndex )
   \   00004C   F8           MOV     R0,A
   \   00004D   E5..         MOV     A,?V0 + 5
   \   00004F   C3           CLR     C
   \   000050   98           SUBB    A,R0
   \   000051   4003         JC      $+5
   \   000053   02....       LJMP    ??ZDO_ProcessMgmtLqiReq_0 & 0xFFFF
   1170            {
   1171              numItems = maxItems - StartIndex;
   \   000056   E0           MOVX    A,@DPTR
   \   000057   C3           CLR     C
   \   000058   95..         SUBB    A,?V0 + 5
   \   00005A   F5..         MOV     ?V0 + 1,A
   1172          
   1173              // limit the size of the list
   1174              if ( numItems > ZDO_MAX_LQI_ITEMS )
   \   00005C   C3           CLR     C
   \   00005D   9404         SUBB    A,#0x4
   \   00005F   4003         JC      ??ZDO_ProcessMgmtLqiReq_1
   1175                numItems = ZDO_MAX_LQI_ITEMS;
   \   000061   75..03       MOV     ?V0 + 1,#0x3
   1176          
   1177              // Allocate the memory to build the table
   1178              table = (ZDP_MgmtLqiItem_t*)osal_mem_alloc( (short)
   1179                        ( numItems * sizeof( ZDP_MgmtLqiItem_t ) ) );
   \                     ??ZDO_ProcessMgmtLqiReq_1:
   \   000064                ; Setup parameters for call to function osal_mem_alloc
   \   000064   E5..         MOV     A,?V0 + 1
   \   000066   75F01A       MOV     B,#0x1a
   \   000069   A4           MUL     AB
   \   00006A   FA           MOV     R2,A
   \   00006B   ABF0         MOV     R3,B
   \   00006D   12....       LCALL   ??osal_mem_alloc?relay
   \   000070   7401         MOV     A,#0x1
   \   000072   12....       LCALL   ?XSTACK_DISP0_8
   \   000075   12....       LCALL   ?Subroutine39 & 0xFFFF
   1180          
   1181              if ( table != NULL )
   \                     ??CrossCallReturnLabel_62:
   \   000078   7401         MOV     A,#0x1
   \   00007A   12....       LCALL   ?XSTACK_DISP0_8
   \   00007D   12....       LCALL   ??Subroutine225_0 & 0xFFFF
   \                     ??CrossCallReturnLabel_447:
   \   000080   7003         JNZ     $+5
   \   000082   02....       LJMP    ??ZDO_ProcessMgmtLqiReq_2 & 0xFFFF
   1182              {
   1183                x = 0;
   \   000085   75..00       MOV     ?V0 + 4,#0x0
   1184                item = table;
   \   000088   7401         MOV     A,#0x1
   \   00008A   12....       LCALL   ?XSTACK_DISP0_8
   \   00008D   12....       LCALL   ??Subroutine205_0 & 0xFFFF
   1185                index = StartIndex;
   \                     ??CrossCallReturnLabel_350:
   \   000090   85....       MOV     ?V0 + 0,?V0 + 5
   \   000093   02....       LJMP    ??CrossCallReturnLabel_74 & 0xFFFF
   1186          
   1187                // Loop through associated items and build list
   1188                for ( ; x < numItems; x++ )
   1189                {
   1190                  if ( index < aItems )
   1191                  {
   1192                    // get next associated device
   1193                    aDevice = AssocFindDevice( index++ );
   1194          
   1195                    // set basic fields
   1196                    item->panID   = _NIB.nwkPanId;
   1197                    osal_cpyExtAddr( item->extPanID, _NIB.extendedPANID );
   1198                    item->nwkAddr = aDevice->shortAddr;
   1199                    item->permit  = ZDP_MGMT_BOOL_UNKNOWN;
   1200                    item->depth   = 0xFF;
   1201                    item->lqi     = aDevice->linkInfo.rxLqi;
   1202          
   1203                    // set extented address
   1204                    nwkEntry.user    = ADDRMGR_USER_DEFAULT;
   1205                    nwkEntry.nwkAddr = aDevice->shortAddr;
   1206          
   1207                    if ( AddrMgrEntryLookupNwk( &nwkEntry ) == TRUE )
   1208                    {
   1209                      osal_cpyExtAddr( item->extAddr, nwkEntry.extAddr );
   1210                    }
   1211                    else
   1212                    {
   1213                      osal_memset( item->extAddr, 0xFF, Z_EXTADDR_LEN );
   \                     ??ZDO_ProcessMgmtLqiReq_3:
   \   000096                ; Setup parameters for call to function osal_memset
   \   000096   7C08         MOV     R4,#0x8
   \   000098   7D00         MOV     R5,#0x0
   \   00009A   79FF         MOV     R1,#-0x1
   \   00009C   AA..         MOV     R2,?V0 + 6
   \   00009E   AB..         MOV     R3,?V0 + 7
   \   0000A0   12....       LCALL   ??osal_memset?relay
   1214                    }
   1215          
   1216                    // use association info to set other fields
   1217                    if ( aDevice->nodeRelation == PARENT )
   \                     ??ZDO_ProcessMgmtLqiReq_4:
   \   0000A3   7403         MOV     A,#0x3
   \   0000A5   12....       LCALL   ?XSTACK_DISP0_8
   \   0000A8   E0           MOVX    A,@DPTR
   \   0000A9   2404         ADD     A,#0x4
   \   0000AB   12....       LCALL   ?Subroutine194 & 0xFFFF
   \                     ??CrossCallReturnLabel_486:
   \   0000AE   EE           MOV     A,R6
   \   0000AF   2415         ADD     A,#0x15
   \   0000B1   FA           MOV     R2,A
   \   0000B2   EF           MOV     A,R7
   \   0000B3   3400         ADDC    A,#0x0
   \   0000B5   FB           MOV     R3,A
   \   0000B6   EE           MOV     A,R6
   \   0000B7   2414         ADD     A,#0x14
   \   0000B9   FC           MOV     R4,A
   \   0000BA   EF           MOV     A,R7
   \   0000BB   3400         ADDC    A,#0x0
   \   0000BD   FD           MOV     R5,A
   \   0000BE   8882         MOV     DPL,R0
   \   0000C0   8983         MOV     DPH,R1
   \   0000C2   E0           MOVX    A,@DPTR
   \   0000C3   703F         JNZ     ??ZDO_ProcessMgmtLqiReq_5
   1218                    {
   1219                      if (  aDevice->shortAddr == 0 )
   \   0000C5   7403         MOV     A,#0x3
   \   0000C7   12....       LCALL   ?XSTACK_DISP0_8
   \   0000CA   12....       LCALL   ?Subroutine89 & 0xFFFF
   \                     ??CrossCallReturnLabel_181:
   \   0000CD   12....       LCALL   ??Subroutine225_0 & 0xFFFF
   \                     ??CrossCallReturnLabel_448:
   \   0000D0   8C82         MOV     DPL,R4
   \   0000D2   8D83         MOV     DPH,R5
   \   0000D4   700E         JNZ     ??ZDO_ProcessMgmtLqiReq_6
   1220                      {
   1221                        item->devType = ZDP_MGMT_DT_COORD;
   \   0000D6   E4           CLR     A
   \   0000D7   F0           MOVX    @DPTR,A
   1222                        item->depth = 0;
   \   0000D8   EE           MOV     A,R6
   \   0000D9   2418         ADD     A,#0x18
   \   0000DB   F582         MOV     DPL,A
   \   0000DD   EF           MOV     A,R7
   \   0000DE   12....       LCALL   ??Subroutine233_0 & 0xFFFF
   1223                      }
   \                     ??CrossCallReturnLabel_511:
   \   0000E1   E4           CLR     A
   \   0000E2   8015         SJMP    ??ZDO_ProcessMgmtLqiReq_7
   1224                      else
   1225                      {
   1226                        item->devType = ZDP_MGMT_DT_ROUTER;
   \                     ??ZDO_ProcessMgmtLqiReq_6:
   \   0000E4   7401         MOV     A,#0x1
   \   0000E6   F0           MOVX    @DPTR,A
   1227                        item->depth = _NIB.nodeDepth - 1;
   \   0000E7   90....       MOV     DPTR,#_NIB + 52
   \   0000EA   E0           MOVX    A,@DPTR
   \   0000EB   14           DEC     A
   \   0000EC   C0E0         PUSH    A
   \   0000EE   EE           MOV     A,R6
   \   0000EF   2418         ADD     A,#0x18
   \   0000F1   F582         MOV     DPL,A
   \   0000F3   EF           MOV     A,R7
   \   0000F4   12....       LCALL   ??Subroutine233_0 & 0xFFFF
   1228                      }
   \                     ??CrossCallReturnLabel_512:
   \   0000F7   D0E0         POP     A
   \                     ??ZDO_ProcessMgmtLqiReq_7:
   \   0000F9   F0           MOVX    @DPTR,A
   1229          
   1230                      item->rxOnIdle = ZDP_MGMT_BOOL_UNKNOWN;
   \   0000FA   8A82         MOV     DPL,R2
   \   0000FC   8B83         MOV     DPH,R3
   \   0000FE   12....       LCALL   ?Subroutine22 & 0xFFFF
   1231                      item->relation = ZDP_MGMT_REL_PARENT;
   1232                    }
   \                     ??CrossCallReturnLabel_353:
   \   000101   E4           CLR     A
   \   000102   8037         SJMP    ??ZDO_ProcessMgmtLqiReq_8
   1233                    else
   1234                    {
   1235                      // If not parent, then it's a child
   1236                      item->depth = _NIB.nodeDepth + 1;
   \                     ??ZDO_ProcessMgmtLqiReq_5:
   \   000104   90....       MOV     DPTR,#_NIB + 52
   \   000107   E0           MOVX    A,@DPTR
   \   000108   04           INC     A
   \   000109   C0E0         PUSH    A
   \   00010B   EE           MOV     A,R6
   \   00010C   2418         ADD     A,#0x18
   \   00010E   F582         MOV     DPL,A
   \   000110   EF           MOV     A,R7
   \   000111   12....       LCALL   ??Subroutine233_0 & 0xFFFF
   \                     ??CrossCallReturnLabel_513:
   \   000114   D0E0         POP     A
   \   000116   12....       LCALL   ??Subroutine242_0 & 0xFFFF
   1237          
   1238                      if ( aDevice->nodeRelation < CHILD_FFD )
   \                     ??CrossCallReturnLabel_596:
   \   000119   C3           CLR     C
   \   00011A   9403         SUBB    A,#0x3
   \   00011C   8C82         MOV     DPL,R4
   \   00011E   8D83         MOV     DPH,R5
   \   000120   4003         JC      $+5
   \   000122   02....       LJMP    ??ZDO_ProcessMgmtLqiReq_9 & 0xFFFF
   1239                      {
   1240                        item->devType = ZDP_MGMT_DT_ENDDEV;
   \   000125   7402         MOV     A,#0x2
   \   000127   12....       LCALL   ??Subroutine242_0 & 0xFFFF
   1241          
   1242                        if ( aDevice->nodeRelation == CHILD_RFD )
   \                     ??CrossCallReturnLabel_597:
   \   00012A   6401         XRL     A,#0x1
   \   00012C   6003         JZ      $+5
   \   00012E   02....       LJMP    ??ZDO_ProcessMgmtLqiReq_10 & 0xFFFF
   1243                        {
   1244                          item->rxOnIdle = FALSE;
   \                     ??ZDO_ProcessMgmtLqiReq_11:
   \   000131   8A82         MOV     DPL,R2
   \   000133   8B83         MOV     DPH,R3
   \   000135   E4           CLR     A
   1245                        }
   \                     ??ZDO_ProcessMgmtLqiReq_12:
   \   000136   12....       LCALL   ??Subroutine206_0 & 0xFFFF
   1246                        else
   1247                        {
   1248                          item->rxOnIdle = TRUE;
   1249                        }
   1250                      }
   1251                      else
   1252                      {
   1253                        item->devType = ZDP_MGMT_DT_ROUTER;
   1254          
   1255                        if ( aDevice->nodeRelation == CHILD_FFD )
   1256                        {
   1257                          item->rxOnIdle = FALSE;
   1258                        }
   1259                        else
   1260                        {
   1261                          item->rxOnIdle = TRUE;
   1262                        }
   1263                      }
   1264          
   1265                      item->relation = ZDP_MGMT_REL_CHILD;
   \                     ??CrossCallReturnLabel_355:
   \   000139   7401         MOV     A,#0x1
   \                     ??ZDO_ProcessMgmtLqiReq_8:
   \   00013B   12....       LCALL   ?Subroutine40 & 0xFFFF
   \                     ??CrossCallReturnLabel_74:
   \   00013E   E5..         MOV     A,?V0 + 4
   \   000140   C3           CLR     C
   \   000141   95..         SUBB    A,?V0 + 1
   \   000143   4003         JC      $+5
   \   000145   02....       LJMP    ??CrossCallReturnLabel_75 & 0xFFFF
   \   000148   E5..         MOV     A,?V0 + 0
   \   00014A   C3           CLR     C
   \   00014B   95..         SUBB    A,?V0 + 2
   \   00014D   4003         JC      $+5
   \   00014F   02....       LJMP    ??ZDO_ProcessMgmtLqiReq_13 & 0xFFFF
   \   000152                ; Setup parameters for call to function AssocFindDevice
   \   000152   A9..         MOV     R1,?V0 + 0
   \   000154   12....       LCALL   ??AssocFindDevice?relay
   \   000157   7403         MOV     A,#0x3
   \   000159   12....       LCALL   ?XSTACK_DISP0_8
   \   00015C   12....       LCALL   ?Subroutine39 & 0xFFFF
   \                     ??CrossCallReturnLabel_63:
   \   00015F   05..         INC     ?V0 + 0
   \   000161   90....       MOV     DPTR,#_NIB + 33
   \   000164   12....       LCALL   ?Subroutine17 & 0xFFFF
   \                     ??CrossCallReturnLabel_17:
   \   000167   7403         MOV     A,#0x3
   \   000169   12....       LCALL   ?XSTACK_DISP0_8
   \   00016C   12....       LCALL   ?Subroutine65 & 0xFFFF
   \                     ??CrossCallReturnLabel_137:
   \   00016F   EE           MOV     A,R6
   \   000170   2412         ADD     A,#0x12
   \   000172   F582         MOV     DPL,A
   \   000174   EF           MOV     A,R7
   \   000175   12....       LCALL   ??Subroutine233_0 & 0xFFFF
   \                     ??CrossCallReturnLabel_514:
   \   000178   E8           MOV     A,R0
   \   000179   F0           MOVX    @DPTR,A
   \   00017A   A3           INC     DPTR
   \   00017B   E9           MOV     A,R1
   \   00017C   12....       LCALL   ?Subroutine11 & 0xFFFF
   \                     ??CrossCallReturnLabel_7:
   \   00017F   7403         MOV     A,#0x3
   \   000181   12....       LCALL   ?XSTACK_DISP0_8
   \   000184   12....       LCALL   ?Subroutine72 & 0xFFFF
   \                     ??CrossCallReturnLabel_153:
   \   000187   E0           MOVX    A,@DPTR
   \   000188   C0E0         PUSH    A
   \   00018A   EE           MOV     A,R6
   \   00018B   2419         ADD     A,#0x19
   \   00018D   F582         MOV     DPL,A
   \   00018F   EF           MOV     A,R7
   \   000190   12....       LCALL   ??Subroutine233_0 & 0xFFFF
   \                     ??CrossCallReturnLabel_515:
   \   000193   D0E0         POP     A
   \   000195   F0           MOVX    @DPTR,A
   \   000196   7407         MOV     A,#0x7
   \   000198   12....       LCALL   ?XSTACK_DISP0_8
   \   00019B   E4           CLR     A
   \   00019C   F0           MOVX    @DPTR,A
   \   00019D   7403         MOV     A,#0x3
   \   00019F   12....       LCALL   ?XSTACK_DISP0_8
   \   0001A2   12....       LCALL   ?Subroutine65 & 0xFFFF
   \                     ??CrossCallReturnLabel_138:
   \   0001A5   7408         MOV     A,#0x8
   \   0001A7   12....       LCALL   ?XSTACK_DISP0_8
   \   0001AA   12....       LCALL   ??Subroutine208_0 & 0xFFFF
   \                     ??CrossCallReturnLabel_367:
   \   0001AD   EE           MOV     A,R6
   \   0001AE   240A         ADD     A,#0xa
   \   0001B0   F5..         MOV     ?V0 + 6,A
   \   0001B2   EF           MOV     A,R7
   \   0001B3   3400         ADDC    A,#0x0
   \   0001B5   F5..         MOV     ?V0 + 7,A
   \   0001B7                ; Setup parameters for call to function AddrMgrEntryLookupNwk
   \   0001B7   7407         MOV     A,#0x7
   \   0001B9   12....       LCALL   ?XSTACK_DISP0_8
   \   0001BC   AA82         MOV     R2,DPL
   \   0001BE   AB83         MOV     R3,DPH
   \   0001C0   12....       LCALL   ??AddrMgrEntryLookupNwk?relay
   \   0001C3   E9           MOV     A,R1
   \   0001C4   6401         XRL     A,#0x1
   \   0001C6   6003         JZ      $+5
   \   0001C8   02....       LJMP    ??ZDO_ProcessMgmtLqiReq_3 & 0xFFFF
   \   0001CB                ; Setup parameters for call to function sAddrExtCpy
   \   0001CB   740A         MOV     A,#0xa
   \   0001CD   12....       LCALL   ?XSTACK_DISP0_8
   \   0001D0   AC82         MOV     R4,DPL
   \   0001D2   AD83         MOV     R5,DPH
   \   0001D4   AA..         MOV     R2,?V0 + 6
   \   0001D6   AB..         MOV     R3,?V0 + 7
   \   0001D8   12....       LCALL   ??sAddrExtCpy?relay
   \   0001DB   02....       LJMP    ??ZDO_ProcessMgmtLqiReq_4 & 0xFFFF
   \                     ??ZDO_ProcessMgmtLqiReq_9:
   \   0001DE   7401         MOV     A,#0x1
   \   0001E0   12....       LCALL   ??Subroutine242_0 & 0xFFFF
   \                     ??CrossCallReturnLabel_598:
   \   0001E3   6403         XRL     A,#0x3
   \   0001E5   7003         JNZ     $+5
   \   0001E7   02....       LJMP    ??ZDO_ProcessMgmtLqiReq_11 & 0xFFFF
   \                     ??ZDO_ProcessMgmtLqiReq_10:
   \   0001EA   8A82         MOV     DPL,R2
   \   0001EC   8B83         MOV     DPH,R3
   \   0001EE   7401         MOV     A,#0x1
   \   0001F0   02....       LJMP    ??ZDO_ProcessMgmtLqiReq_12 & 0xFFFF
   1266                    }
   1267          
   1268                    item++;
   1269                  }
   1270                  else
   1271                  {
   1272                    if ( StartIndex <= aItems )
   \                     ??ZDO_ProcessMgmtLqiReq_13:
   \   0001F3   E5..         MOV     A,?V0 + 2
   \   0001F5   C3           CLR     C
   \   0001F6   95..         SUBB    A,?V0 + 5
   \   0001F8   4005         JC      ??ZDO_ProcessMgmtLqiReq_14
   1273                      // Start with 1st neighbor
   1274                      index = 0;
   \   0001FA   75..00       MOV     ?V0 + 0,#0x0
   \   0001FD   8018         SJMP    ??ZDO_ProcessMgmtLqiReq_15
   1275                    else
   1276                      // Start with >1st neighbor
   1277                      index = StartIndex - aItems;
   \                     ??ZDO_ProcessMgmtLqiReq_14:
   \   0001FF   E5..         MOV     A,?V0 + 5
   \   000201   C3           CLR     C
   \   000202   95..         SUBB    A,?V0 + 2
   \   000204   F5..         MOV     ?V0 + 0,A
   \   000206   800F         SJMP    ??ZDO_ProcessMgmtLqiReq_15
   1278                    break;
   1279                  }
   1280                }
   1281          
   1282                // Loop through neighbor items and finish list
   1283                for ( ; x < numItems; x++ )
   1284                {
   1285                  // Add next neighbor table item
   1286                  NLME_GetRequest( nwkNeighborTable, index++, &entry );
   1287          
   1288                  // set ZDP_MgmtLqiItem_t fields
   1289                  item->panID    = entry.panId;
   1290                  osal_cpyExtAddr( item->extPanID, _NIB.extendedPANID );
   1291                  osal_memset( item->extAddr, 0xFF, Z_EXTADDR_LEN );
   1292                  item->nwkAddr  = entry.neighborAddress;
   1293                  item->rxOnIdle = ZDP_MGMT_BOOL_UNKNOWN;
   1294                  item->relation = ZDP_MGMT_REL_UNKNOWN;
   1295                  item->permit   = ZDP_MGMT_BOOL_UNKNOWN;
   1296                  item->depth    = 0xFF;
   1297                  item->lqi      = entry.linkInfo.rxLqi;
   1298          
   1299                  if ( item->nwkAddr == 0 )
   1300                  {
   1301                    item->devType = ZDP_MGMT_DT_COORD;
   1302                  }
   1303                  else
   1304                  {
   1305                    item->devType = ZDP_MGMT_DT_ROUTER;
   \                     ??ZDO_ProcessMgmtLqiReq_16:
   \   000208   7401         MOV     A,#0x1
   1306                  }
   \                     ??ZDO_ProcessMgmtLqiReq_17:
   \   00020A   12....       LCALL   ?Subroutine40 & 0xFFFF
   \                     ??CrossCallReturnLabel_75:
   \   00020D   E5..         MOV     A,?V0 + 4
   \   00020F   C3           CLR     C
   \   000210   95..         SUBB    A,?V0 + 1
   \   000212   4003         JC      $+5
   \   000214   02....       LJMP    ??ZDO_ProcessMgmtLqiReq_2 & 0xFFFF
   \                     ??ZDO_ProcessMgmtLqiReq_15:
   \   000217                ; Setup parameters for call to function NLME_GetRequest
   \   000217   7414         MOV     A,#0x14
   \   000219   12....       LCALL   ?XSTACK_DISP0_8
   \   00021C   AC82         MOV     R4,DPL
   \   00021E   AD83         MOV     R5,DPH
   \   000220   85....       MOV     ?V0 + 2,?V0 + 0
   \   000223   AA..         MOV     R2,?V0 + 2
   \   000225   7B00         MOV     R3,#0x0
   \   000227   7987         MOV     R1,#-0x79
   \   000229   12....       LCALL   ??NLME_GetRequest?relay
   \   00022C   05..         INC     ?V0 + 0
   \   00022E   741E         MOV     A,#0x1e
   \   000230   12....       LCALL   ?XSTACK_DISP0_8
   \   000233   12....       LCALL   ?Subroutine17 & 0xFFFF
   \                     ??CrossCallReturnLabel_18:
   \   000236                ; Setup parameters for call to function osal_memset
   \   000236   7C08         MOV     R4,#0x8
   \   000238   7D00         MOV     R5,#0x0
   \   00023A   79FF         MOV     R1,#-0x1
   \   00023C   EE           MOV     A,R6
   \   00023D   240A         ADD     A,#0xa
   \   00023F   FA           MOV     R2,A
   \   000240   EF           MOV     A,R7
   \   000241   3400         ADDC    A,#0x0
   \   000243   FB           MOV     R3,A
   \   000244   12....       LCALL   ??osal_memset?relay
   \   000247   EE           MOV     A,R6
   \   000248   2412         ADD     A,#0x12
   \   00024A   F8           MOV     R0,A
   \   00024B   EF           MOV     A,R7
   \   00024C   3400         ADDC    A,#0x0
   \   00024E   F9           MOV     R1,A
   \   00024F   7414         MOV     A,#0x14
   \   000251   12....       LCALL   ?XSTACK_DISP0_8
   \   000254   12....       LCALL   ??Subroutine214_0 & 0xFFFF
   \                     ??CrossCallReturnLabel_386:
   \   000257   8882         MOV     DPL,R0
   \   000259   8983         MOV     DPH,R1
   \   00025B   12....       LCALL   ?Subroutine39 & 0xFFFF
   \                     ??CrossCallReturnLabel_64:
   \   00025E   EE           MOV     A,R6
   \   00025F   2415         ADD     A,#0x15
   \   000261   F582         MOV     DPL,A
   \   000263   EF           MOV     A,R7
   \   000264   12....       LCALL   ??Subroutine233_0 & 0xFFFF
   \                     ??CrossCallReturnLabel_516:
   \   000267   12....       LCALL   ?Subroutine22 & 0xFFFF
   \                     ??CrossCallReturnLabel_354:
   \   00026A   7403         MOV     A,#0x3
   \   00026C   12....       LCALL   ?Subroutine11 & 0xFFFF
   \                     ??CrossCallReturnLabel_8:
   \   00026F   7423         MOV     A,#0x23
   \   000271   12....       LCALL   ?XSTACK_DISP0_8
   \   000274   E0           MOVX    A,@DPTR
   \   000275   C0E0         PUSH    A
   \   000277   EE           MOV     A,R6
   \   000278   2419         ADD     A,#0x19
   \   00027A   F582         MOV     DPL,A
   \   00027C   EF           MOV     A,R7
   \   00027D   12....       LCALL   ??Subroutine233_0 & 0xFFFF
   \                     ??CrossCallReturnLabel_517:
   \   000280   D0E0         POP     A
   \   000282   F0           MOVX    @DPTR,A
   \   000283   EE           MOV     A,R6
   \   000284   2414         ADD     A,#0x14
   \   000286   FA           MOV     R2,A
   \   000287   EF           MOV     A,R7
   \   000288   3400         ADDC    A,#0x0
   \   00028A   FB           MOV     R3,A
   \   00028B   8882         MOV     DPL,R0
   \   00028D   8983         MOV     DPH,R1
   \   00028F   12....       LCALL   ??Subroutine225_0 & 0xFFFF
   \                     ??CrossCallReturnLabel_449:
   \   000292   8A82         MOV     DPL,R2
   \   000294   8B83         MOV     DPH,R3
   \   000296   6003         JZ      $+5
   \   000298   02....       LJMP    ??ZDO_ProcessMgmtLqiReq_16 & 0xFFFF
   \   00029B   E4           CLR     A
   \   00029C   02....       LJMP    ??ZDO_ProcessMgmtLqiReq_17 & 0xFFFF
   1307          
   1308                  item++;
   1309                }
   1310              }
   1311            }
   1312            else
   1313            {
   1314              numItems = 0;
   \                     ??ZDO_ProcessMgmtLqiReq_0:
   \   00029F   75..00       MOV     ?V0 + 1,#0x0
   1315            }
   1316          
   1317            // Send response
   1318            ZDP_MgmtLqiRsp( inMsg->TransSeq, &(inMsg->srcAddr), ZSuccess, maxItems,
   1319                            StartIndex, numItems, table, false );
   \                     ??ZDO_ProcessMgmtLqiReq_2:
   \   0002A2                ; Setup parameters for call to function ZDP_MgmtLqiRsp
   \   0002A2   75..00       MOV     ?V0 + 2,#0x0
   \   0002A5   78..         MOV     R0,#?V0 + 2
   \   0002A7   12....       LCALL   ?PUSH_XSTACK_I_ONE
   \   0002AA   7402         MOV     A,#0x2
   \   0002AC   12....       LCALL   ?XSTACK_DISP0_8
   \   0002AF   12....       LCALL   ?PUSH_XSTACK8_X_TWO
   \   0002B2   78..         MOV     R0,#?V0 + 1
   \   0002B4   12....       LCALL   ?PUSH_XSTACK_I_ONE
   \   0002B7   E5..         MOV     A,?V0 + 5
   \   0002B9   F5..         MOV     ?V0 + 1,A
   \   0002BB   78..         MOV     R0,#?V0 + 1
   \   0002BD   12....       LCALL   ?PUSH_XSTACK_I_ONE
   \   0002C0   7405         MOV     A,#0x5
   \   0002C2   12....       LCALL   ?XSTACK_DISP0_8
   \   0002C5   E0           MOVX    A,@DPTR
   \   0002C6   FD           MOV     R5,A
   \   0002C7   7C00         MOV     R4,#0x0
   \   0002C9   740A         MOV     A,#0xa
   \   0002CB   12....       LCALL   ?XSTACK_DISP0_8
   \   0002CE   12....       LCALL   ?Subroutine96 & 0xFFFF
   \                     ??CrossCallReturnLabel_189:
   \   0002D1   12....       LCALL   ?XSTACK_DISP0_8
   \   0002D4   12....       LCALL   ?Subroutine62 & 0xFFFF
   \                     ??CrossCallReturnLabel_131:
   \   0002D7   12....       LCALL   ??ZDP_MgmtLqiRsp?relay
   \   0002DA   7405         MOV     A,#0x5
   \   0002DC   12....       LCALL   ?DEALLOC_XSTACK8
   1320          
   1321            if ( table )
   \   0002DF   7401         MOV     A,#0x1
   \   0002E1   12....       LCALL   ?XSTACK_DISP0_8
   \   0002E4   12....       LCALL   ??Subroutine225_0 & 0xFFFF
   \                     ??CrossCallReturnLabel_450:
   \   0002E7   6008         JZ      ??CrossCallReturnLabel_124
   1322            {
   1323              osal_mem_free( table );
   \   0002E9                ; Setup parameters for call to function osal_mem_free
   \   0002E9   7401         MOV     A,#0x1
   \   0002EB   12....       LCALL   ?XSTACK_DISP0_8
   \   0002EE   12....       LCALL   ?Subroutine59 & 0xFFFF
   1324            }
   1325          }
   \                     ??CrossCallReturnLabel_124:
   \   0002F1   742B         MOV     A,#0x2b
   \   0002F3   02....       LJMP    ?Subroutine6 & 0xFFFF

   \                                 In  segment BANKED_CODE, align 1, keep-with-next
   \                     ?Subroutine40:
   \   000000   F0           MOVX    @DPTR,A
   \   000001   EE           MOV     A,R6
   \   000002   241A         ADD     A,#0x1a
   \   000004   FE           MOV     R6,A
   \   000005   EF           MOV     A,R7
   \   000006   3400         ADDC    A,#0x0
   \   000008   FF           MOV     R7,A
   \   000009   05..         INC     ?V0 + 4
   \   00000B   22           RET

   \                                 In  segment BANKED_CODE, align 1, keep-with-next
   \                     ?Subroutine22:
   \   000000   7402         MOV     A,#0x2
   \   000002                REQUIRE ??Subroutine206_0
   \   000002                ; // Fall through to label ??Subroutine206_0

   \                                 In  segment BANKED_CODE, align 1, keep-with-next
   \                     ??Subroutine206_0:
   \   000000   F0           MOVX    @DPTR,A
   \   000001   EE           MOV     A,R6
   \   000002   2416         ADD     A,#0x16
   \   000004   12....       LCALL   ?Subroutine180 & 0xFFFF
   \                     ??CrossCallReturnLabel_548:
   \   000007   22           RET

   \                                 In  segment BANKED_CODE, align 1, keep-with-next
   \                     ?Subroutine17:
   \   000000   12....       LCALL   ?Subroutine167 & 0xFFFF
   \                     ??CrossCallReturnLabel_458:
   \   000003   8E82         MOV     DPL,R6
   \   000005   8F83         MOV     DPH,R7
   \   000007   E8           MOV     A,R0
   \   000008   F0           MOVX    @DPTR,A
   \   000009   A3           INC     DPTR
   \   00000A   E9           MOV     A,R1
   \   00000B   F0           MOVX    @DPTR,A
   \   00000C                ; Setup parameters for call to function sAddrExtCpy
   \   00000C                ; Setup parameters for call to function sAddrExtCpy
   \   00000C   7C..         MOV     R4,#(_NIB + 53) & 0xff
   \   00000E   7D..         MOV     R5,#((_NIB + 53) >> 8) & 0xff
   \   000010   EE           MOV     A,R6
   \   000011   2402         ADD     A,#0x2
   \   000013   FA           MOV     R2,A
   \   000014   EF           MOV     A,R7
   \   000015   3400         ADDC    A,#0x0
   \   000017   FB           MOV     R3,A
   \   000018   12....       LCALL   ??sAddrExtCpy?relay
   \   00001B   22           RET

   \                                 In  segment BANKED_CODE, align 1, keep-with-next
   \                     ?Subroutine11:
   \   000000   F0           MOVX    @DPTR,A
   \   000001   EE           MOV     A,R6
   \   000002   2417         ADD     A,#0x17
   \   000004   12....       LCALL   ?Subroutine180 & 0xFFFF
   \                     ??CrossCallReturnLabel_545:
   \   000007   7402         MOV     A,#0x2
   \   000009   F0           MOVX    @DPTR,A
   \   00000A   EE           MOV     A,R6
   \   00000B   2418         ADD     A,#0x18
   \   00000D   12....       LCALL   ?Subroutine180 & 0xFFFF
   \                     ??CrossCallReturnLabel_546:
   \   000010   74FF         MOV     A,#-0x1
   \   000012   F0           MOVX    @DPTR,A
   \   000013   22           RET

   \                                 In  segment BANKED_CODE, align 1, keep-with-next
   \                     ?Subroutine62:
   \   000000   12....       LCALL   ?Subroutine161 & 0xFFFF
   \                     ??CrossCallReturnLabel_380:
   \   000003   22           RET

   \                                 In  segment BANKED_CODE, align 1, keep-with-next
   \                     ?Subroutine57:
   \   000000   E0           MOVX    A,@DPTR
   \   000001   2413         ADD     A,#0x13
   \   000003   12....       LCALL   ?Subroutine175 & 0xFFFF
   \                     ??CrossCallReturnLabel_484:
   \   000006   12....       LCALL   ?Subroutine162 & 0xFFFF
   \                     ??CrossCallReturnLabel_401:
   \   000009   22           RET

   \                                 In  segment BANKED_CODE, align 1, keep-with-next
   \                     ?Subroutine96:
   \   000000   12....       LCALL   ?Subroutine171 & 0xFFFF
   \                     ??CrossCallReturnLabel_291:
   \   000003   740A         MOV     A,#0xa
   \   000005   22           RET

   \                                 In  segment BANKED_CODE, align 1, keep-with-next
   \                     ?Subroutine171:
   \   000000   E0           MOVX    A,@DPTR
   \   000001   2402         ADD     A,#0x2
   \   000003   FA           MOV     R2,A
   \   000004   A3           INC     DPTR
   \   000005   E0           MOVX    A,@DPTR
   \   000006   3400         ADDC    A,#0x0
   \   000008   FB           MOV     R3,A
   \   000009   22           RET

   \                                 In  segment BANKED_CODE, align 1, keep-with-next
   \                     ?Subroutine194:
   \   000000   F8           MOV     R0,A
   \   000001   A3           INC     DPTR
   \   000002   E0           MOVX    A,@DPTR
   \   000003   3400         ADDC    A,#0x0
   \   000005   F9           MOV     R1,A
   \   000006   22           RET

   \                                 In  segment BANKED_CODE, align 1, keep-with-next
   \                     ?Subroutine175:
   \   000000   12....       LCALL   ?Subroutine194 & 0xFFFF
   \                     ??CrossCallReturnLabel_491:
   \   000003   8882         MOV     DPL,R0
   \   000005   8983         MOV     DPH,R1
   \   000007   22           RET

   \                                 In  segment BANKED_CODE, align 1, keep-with-next
   \                     ??Subroutine242_0:
   \   000000   12....       LCALL   ?Subroutine190 & 0xFFFF
   \                     ??CrossCallReturnLabel_604:
   \   000003   E0           MOVX    A,@DPTR
   \   000004   22           RET

   \                                 In  segment BANKED_CODE, align 1, keep-with-next
   \                     ?Subroutine190:
   \   000000   F0           MOVX    @DPTR,A
   \   000001                ; Setup parameters for call to function osal_memcpy
   \   000001   8882         MOV     DPL,R0
   \   000003   8983         MOV     DPH,R1
   \   000005   22           RET
   1326          
   1327          /*********************************************************************
   1328           * @fn          ZDO_ProcessMgmtNwkDiscReq
   1329           *
   1330           * @brief       This function handles parsing the incoming Management
   1331           *              Network Discover request and starts the request.
   1332           *
   1333           * @param       inMsg - incoming message (request)
   1334           *
   1335           * @return      none
   1336           */

   \                                 In  segment BANKED_CODE, align 1, keep-with-next
   1337          void ZDO_ProcessMgmtNwkDiscReq( zdoIncomingMsg_t *inMsg )
   \                     ZDO_ProcessMgmtNwkDiscReq:
   1338          {
   \   000000   74F6         MOV     A,#-0xa
   \   000002   12....       LCALL   ?BANKED_ENTER_XDATA
   \   000005                ; Saved register size: 10
   \   000005                ; Auto size: 7
   \   000005   74F9         MOV     A,#-0x7
   \   000007   12....       LCALL   ?ALLOC_XSTACK8
   \   00000A   8A..         MOV     ?V0 + 0,R2
   \   00000C   8B..         MOV     ?V0 + 1,R3
   1339            NLME_ScanFields_t scan;
   1340            uint8             index;
   1341            uint8             *msg;
   1342          
   1343            msg = inMsg->asdu;
   \   00000E   12....       LCALL   ?Subroutine83 & 0xFFFF
   1344            scan.channels = osal_build_uint32( msg, 4 );
   \                     ??CrossCallReturnLabel_168:
   \   000011   85..82       MOV     DPL,?XSP + 0
   \   000014   85..83       MOV     DPH,?XSP + 1
   \   000017   12....       LCALL   ?XSTORE_R2345
   1345            msg += 4;
   \   00001A   12....       LCALL   ?Subroutine128 & 0xFFFF
   1346            scan.duration = *msg++;
   \                     ??CrossCallReturnLabel_356:
   \   00001D   C0E0         PUSH    A
   \   00001F   7404         MOV     A,#0x4
   \   000021   12....       LCALL   ?XSTACK_DISP0_8
   \   000024   D0E0         POP     A
   \   000026   12....       LCALL   ?Subroutine47 & 0xFFFF
   1347            index         = *msg;
   \                     ??CrossCallReturnLabel_90:
   \   000029   E0           MOVX    A,@DPTR
   \   00002A   FA           MOV     R2,A
   1348            scan.scanType = ZMAC_ACTIVE_SCAN;
   \   00002B   7405         MOV     A,#0x5
   \   00002D   12....       LCALL   ?XSTACK_DISP0_8
   \   000030   7401         MOV     A,#0x1
   \   000032   F0           MOVX    @DPTR,A
   1349            scan.scanApp  = NLME_DISC_SCAN;
   \   000033   7406         MOV     A,#0x6
   \   000035   12....       LCALL   ?XSTACK_DISP0_8
   \   000038   7401         MOV     A,#0x1
   \   00003A   F0           MOVX    @DPTR,A
   1350          
   1351            // Save off the information to be used for the response
   1352            zdappMgmtNwkDiscReqInProgress          = true;
   \   00003B   90....       MOV     DPTR,#zdappMgmtNwkDiscReqInProgress
   \   00003E   F0           MOVX    @DPTR,A
   1353            zdappMgmtNwkDiscRspAddr.addrMode       = Addr16Bit;
   \   00003F   90....       MOV     DPTR,#zdappMgmtNwkDiscRspAddr + 8
   \   000042   04           INC     A
   \   000043   12....       LCALL   ?Subroutine48 & 0xFFFF
   1354            zdappMgmtNwkDiscRspAddr.addr.shortAddr = inMsg->srcAddr.addr.shortAddr;
   \                     ??CrossCallReturnLabel_91:
   \   000046   12....       LCALL   ??Subroutine221_0 & 0xFFFF
   \                     ??CrossCallReturnLabel_420:
   \   000049   90....       MOV     DPTR,#zdappMgmtNwkDiscRspAddr
   \   00004C   12....       LCALL   ??Subroutine208_0 & 0xFFFF
   1355            zdappMgmtNwkDiscStartIndex             = index;
   \                     ??CrossCallReturnLabel_368:
   \   00004F   EA           MOV     A,R2
   \   000050   90....       MOV     DPTR,#zdappMgmtNwkDiscStartIndex
   \   000053   F0           MOVX    @DPTR,A
   1356            zdappMgmtNwkDiscRspTransSeq            = inMsg->TransSeq;
   \   000054   E5..         MOV     A,?V0 + 0
   \   000056   240F         ADD     A,#0xf
   \   000058   12....       LCALL   ??Subroutine237_0 & 0xFFFF
   \                     ??CrossCallReturnLabel_573:
   \   00005B   90....       MOV     DPTR,#zdappMgmtNwkDiscRspTransSeq
   \   00005E   12....       LCALL   ?Subroutine196 & 0xFFFF
   1357          
   1358            if ( NLME_NwkDiscReq2( &scan ) != ZSuccess )
   \                     ??CrossCallReturnLabel_322:
   \   000061   AA82         MOV     R2,DPL
   \   000063   AB83         MOV     R3,DPH
   \   000065   12....       LCALL   ??NLME_NwkDiscReq2?relay
   \   000068   E9           MOV     A,R1
   \   000069   6003         JZ      ??ZDO_ProcessMgmtNwkDiscReq_0
   1359            {
   1360              NLME_NwkDiscTerm();
   \   00006B                ; Setup parameters for call to function NLME_NwkDiscTerm
   \   00006B   12....       LCALL   ??NLME_NwkDiscTerm?relay
   1361          
   1362              // zdappMgmtNwkDiscReqInProgress will be reset in the confirm callback
   1363            }
   1364          }
   \                     ??ZDO_ProcessMgmtNwkDiscReq_0:
   \   00006E   7407         MOV     A,#0x7
   \   000070   02....       LJMP    ??Subroutine200_0 & 0xFFFF

   \                                 In  segment BANKED_CODE, align 1, keep-with-next
   \                     ?Subroutine128:
   \   000000   EE           MOV     A,R6
   \   000001   2404         ADD     A,#0x4
   \   000003                REQUIRE ??Subroutine207_0
   \   000003                ; // Fall through to label ??Subroutine207_0

   \                                 In  segment BANKED_CODE, align 1, keep-with-next
   \                     ??Subroutine207_0:
   \   000000   12....       LCALL   ?Subroutine195 & 0xFFFF
   \                     ??CrossCallReturnLabel_563:
   \   000003   22           RET

   \                                 In  segment BANKED_CODE, align 1, keep-with-next
   \                     ?Subroutine47:
   \   000000   12....       LCALL   ?Subroutine189 & 0xFFFF
   \                     ??CrossCallReturnLabel_316:
   \   000003   A3           INC     DPTR
   \   000004   22           RET

   \                                 In  segment BANKED_CODE, align 1, keep-with-next
   \                     ?Subroutine172:
   \   000000   F583         MOV     DPH,A
   \   000002                REQUIRE ??Subroutine230_0
   \   000002                ; // Fall through to label ??Subroutine230_0

   \                                 In  segment BANKED_CODE, align 1, keep-with-next
   \                     ?Subroutine195:
   \   000000   FE           MOV     R6,A
   \   000001   EF           MOV     A,R7
   \   000002   3400         ADDC    A,#0x0
   \   000004   FF           MOV     R7,A
   \   000005   8E82         MOV     DPL,R6
   \   000007   8F83         MOV     DPH,R7
   \   000009   E0           MOVX    A,@DPTR
   \   00000A   22           RET

   \                                 In  segment BANKED_CODE, align 1, keep-with-next
   \                     ?Subroutine178:
   \   000000   EA           MOV     A,R2
   \   000001   2413         ADD     A,#0x13
   \   000003   F582         MOV     DPL,A
   \   000005   EB           MOV     A,R3
   \   000006   22           RET

   \                                 In  segment BANKED_CODE, align 1, keep-with-next
   \                     ?Subroutine48:
   \   000000   12....       LCALL   ?Subroutine153 & 0xFFFF
   \                     ??CrossCallReturnLabel_274:
   \   000003   A3           INC     DPTR
   \   000004   A3           INC     DPTR
   \   000005   22           RET

   \                                 In  segment BANKED_CODE, align 1, keep-with-next
   \                     ?Subroutine153:
   \   000000   F0           MOVX    @DPTR,A
   \   000001                ; Setup parameters for call to function osal_memcpy
   \   000001   85..82       MOV     DPL,?V0 + 0
   \   000004   85..83       MOV     DPH,?V0 + 1
   \   000007   22           RET

   \                                 In  segment BANKED_CODE, align 1, keep-with-next
   \                     ?Subroutine189:
   \   000000   F0           MOVX    @DPTR,A
   \   000001   8E82         MOV     DPL,R6
   \   000003   8F83         MOV     DPH,R7
   \   000005   22           RET

   \                                 In  segment BANKED_CODE, align 1, keep-with-next
   \                     ?Subroutine83:
   \   000000   12....       LCALL   ?Subroutine178 & 0xFFFF
   \                     ??CrossCallReturnLabel_305:
   \   000003   3400         ADDC    A,#0x0
   \   000005   12....       LCALL   ?Subroutine172 & 0xFFFF
   \                     ??CrossCallReturnLabel_494:
   \   000008                ; Setup parameters for call to function osal_build_uint32
   \   000008                ; Setup parameters for call to function osal_build_uint32
   \   000008   7904         MOV     R1,#0x4
   \   00000A   EE           MOV     A,R6
   \   00000B   FA           MOV     R2,A
   \   00000C   EF           MOV     A,R7
   \   00000D   FB           MOV     R3,A
   \   00000E   12....       LCALL   ??osal_build_uint32?relay
   \   000011   22           RET
   1365          
   1366          #if defined ( ZDO_MGMT_NWKDISC_RESPONSE )
   1367          /*********************************************************************
   1368           * @fn          ZDO_FinishProcessingMgmtNwkDiscReq
   1369           *
   1370           * @brief       This function finishes the processing of the Management
   1371           *              Network Discover Request and generates the response.
   1372           *
   1373           *   Note:      This function will limit the number of items returned
   1374           *              to ZDO_MAX_NWKDISC_ITEMS items.
   1375           *
   1376           * @param       ResultCountSrcAddr - source of the request
   1377           * @param       msg - pointer to incoming message
   1378           * @param       SecurityUse -
   1379           *
   1380           * @return      none
   1381           */
   1382          void ZDO_FinishProcessingMgmtNwkDiscReq( void )
   1383          {
   1384            byte count, i, ResultCount = 0;
   1385            networkDesc_t *newDesc = NULL, *pList, *NetworkList;
   1386          
   1387            NetworkList = nwk_getNwkDescList();
   1388          
   1389            // Count the number of nwk descriptors in the list
   1390            pList = nwk_getNwkDescList();
   1391            while (pList)
   1392            {
   1393              ResultCount++;
   1394              pList = pList->nextDesc;
   1395            }
   1396          
   1397            if ( ZSTACK_ROUTER_BUILD )
   1398            {
   1399              // Look for my PanID.
   1400              pList = nwk_getNwkDescList();
   1401              while ( pList )
   1402              {
   1403                if ( pList->panId == _NIB.nwkPanId )
   1404                {
   1405                  break;
   1406                }
   1407          
   1408          
   1409                if ( !pList->nextDesc )
   1410                {
   1411                  break;
   1412                }
   1413                pList = pList->nextDesc;
   1414              }
   1415          
   1416          
   1417              // If my Pan not present (query to a star network ZC or an isolated ZR?),
   1418              // prepend it.
   1419              if ( !pList || (pList->panId != _NIB.nwkPanId) )
   1420              {
   1421                newDesc = (networkDesc_t *)osal_mem_alloc( sizeof( networkDesc_t ) );
   1422                if ( newDesc )
   1423                {
   1424                  byte pJoin;
   1425          
   1426                  newDesc->panId = _NIB.nwkPanId;
   1427                  newDesc->logicalChannel = _NIB.nwkLogicalChannel;
   1428                  newDesc->version = NLME_GetProtocolVersion();
   1429                  newDesc->stackProfile = zgStackProfile;
   1430          
   1431                  //Extended PanID
   1432                  osal_cpyExtAddr( newDesc->extendedPANID, _NIB.extendedPANID);
   1433          
   1434                  ZMacGetReq( ZMacAssociationPermit, &pJoin );
   1435                  newDesc->chosenRouter = ((pJoin) ? ZDAppNwkAddr.addr.shortAddr :
   1436                                                     INVALID_NODE_ADDR);
   1437          
   1438                  newDesc->nextDesc = NetworkList;
   1439                  NetworkList = newDesc;
   1440                  ResultCount++;
   1441                }
   1442              }
   1443            }
   1444          
   1445            // Calc the count and apply a max count.
   1446            if ( zdappMgmtNwkDiscStartIndex > ResultCount )
   1447            {
   1448              count = 0;
   1449            }
   1450            else
   1451            {
   1452              count = ResultCount - zdappMgmtNwkDiscStartIndex;
   1453              if ( count > ZDO_MAX_NWKDISC_ITEMS )
   1454              {
   1455                count = ZDO_MAX_NWKDISC_ITEMS;
   1456              }
   1457          
   1458              // Move the list pointer up to the start index.
   1459              for ( i = 0; i < zdappMgmtNwkDiscStartIndex; i++ )
   1460              {
   1461                NetworkList = NetworkList->nextDesc;
   1462              }
   1463            }
   1464          
   1465            ZDP_MgmtNwkDiscRsp( zdappMgmtNwkDiscRspTransSeq,
   1466                               &zdappMgmtNwkDiscRspAddr, ZSuccess, ResultCount,
   1467                                zdappMgmtNwkDiscStartIndex,
   1468                                count,
   1469                                NetworkList,
   1470                                false );
   1471          
   1472            if ( ZSTACK_ROUTER_BUILD )
   1473            {
   1474              if ( newDesc != NULL )
   1475              {
   1476                osal_mem_free( newDesc );
   1477              }
   1478            }
   1479          
   1480            NLME_NwkDiscTerm();
   1481          }
   1482          #endif
   1483          
   1484          /*********************************************************************
   1485           * @fn          ZDO_ProcessMgmtRtgReq
   1486           *
   1487           * @brief       This function finishes the processing of the Management
   1488           *              Routing Request and generates the response.
   1489           *
   1490           *   Note:      This function will limit the number of items returned
   1491           *              to ZDO_MAX_RTG_ITEMS items.
   1492           *
   1493           * @param       inMsg - incoming message (request)
   1494           *
   1495           * @return      none
   1496           */

   \                                 In  segment BANKED_CODE, align 1, keep-with-next
   1497          void ZDO_ProcessMgmtRtgReq( zdoIncomingMsg_t *inMsg )
   \                     ZDO_ProcessMgmtRtgReq:
   1498          {
   \   000000   74F0         MOV     A,#-0x10
   \   000002   12....       LCALL   ?BANKED_ENTER_XDATA
   \   000005                ; Saved register size: 16
   \   000005                ; Auto size: 5
   \   000005   74FB         MOV     A,#-0x5
   \   000007   12....       LCALL   ?ALLOC_XSTACK8
   \   00000A   7403         MOV     A,#0x3
   \   00000C   12....       LCALL   ?XSTACK_DISP0_8
   \   00000F   12....       LCALL   ?Subroutine39 & 0xFFFF
   1499            byte x;
   1500            byte maxNumItems;
   1501            byte numItems = 0;
   \                     ??CrossCallReturnLabel_65:
   \   000012   7E00         MOV     R6,#0x0
   1502            uint8 *pBuf = NULL;
   \   000014   8E..         MOV     ?V0 + 6,R6
   \   000016   8E..         MOV     ?V0 + 7,R6
   1503            rtgItem_t *pList;
   1504            uint8 StartIndex = inMsg->asdu[0];
   \   000018   7403         MOV     A,#0x3
   \   00001A   12....       LCALL   ?XSTACK_DISP0_8
   \   00001D   12....       LCALL   ?Subroutine57 & 0xFFFF
   \                     ??CrossCallReturnLabel_114:
   \   000020   F5..         MOV     ?V0 + 4,A
   1505          
   1506            // Get the number of table items
   1507            NLME_GetRequest( nwkNumRoutingTableEntries, 0, &maxNumItems );
   \   000022                ; Setup parameters for call to function NLME_GetRequest
   \   000022   85..82       MOV     DPL,?XSP + 0
   \   000025   85..83       MOV     DPH,?XSP + 1
   \   000028   AC82         MOV     R4,DPL
   \   00002A   AD83         MOV     R5,DPH
   \   00002C   7A00         MOV     R2,#0x0
   \   00002E   7B00         MOV     R3,#0x0
   \   000030   799D         MOV     R1,#-0x63
   \   000032   12....       LCALL   ??NLME_GetRequest?relay
   1508          
   1509            if ( maxNumItems > StartIndex )
   \   000035   85..82       MOV     DPL,?XSP + 0
   \   000038   85..83       MOV     DPH,?XSP + 1
   \   00003B   E0           MOVX    A,@DPTR
   \   00003C   F8           MOV     R0,A
   \   00003D   E5..         MOV     A,?V0 + 4
   \   00003F   C3           CLR     C
   \   000040   98           SUBB    A,R0
   \   000041   4003         JC      $+5
   \   000043   02....       LJMP    ??ZDO_ProcessMgmtRtgReq_0 & 0xFFFF
   1510            {
   1511              numItems = maxNumItems - StartIndex;    // Start at the passed in index
   \   000046   E0           MOVX    A,@DPTR
   \   000047   C3           CLR     C
   \   000048   95..         SUBB    A,?V0 + 4
   \   00004A   FE           MOV     R6,A
   1512          
   1513              // limit the size of the list
   1514              if ( numItems > ZDO_MAX_RTG_ITEMS )
   \   00004B   C3           CLR     C
   \   00004C   940B         SUBB    A,#0xb
   \   00004E   4002         JC      ??ZDO_ProcessMgmtRtgReq_1
   1515              {
   1516                numItems = ZDO_MAX_RTG_ITEMS;
   \   000050   7E0A         MOV     R6,#0xa
   1517              }
   1518          
   1519              // Allocate the memory to build the table
   1520              pBuf = osal_mem_alloc( (short)(sizeof( rtgItem_t ) * numItems) );
   \                     ??ZDO_ProcessMgmtRtgReq_1:
   \   000052                ; Setup parameters for call to function osal_mem_alloc
   \   000052   EE           MOV     A,R6
   \   000053   75F007       MOV     B,#0x7
   \   000056   A4           MUL     AB
   \   000057   FA           MOV     R2,A
   \   000058   ABF0         MOV     R3,B
   \   00005A   12....       LCALL   ??osal_mem_alloc?relay
   \   00005D   8A..         MOV     ?V0 + 6,R2
   \   00005F   8B..         MOV     ?V0 + 7,R3
   1521          
   1522              if ( pBuf != NULL )
   \   000061   EA           MOV     A,R2
   \   000062   45..         ORL     A,?V0 + 7
   \   000064   6064         JZ      ??ZDO_ProcessMgmtRtgReq_2
   1523              {
   1524                // Convert buffer to list
   1525                pList = (rtgItem_t *)pBuf;
   \   000066   7401         MOV     A,#0x1
   \   000068   12....       LCALL   ?XSTACK_DISP0_8
   \   00006B   12....       LCALL   ?Subroutine39 & 0xFFFF
   1526          
   1527                // Loop through items and build list
   1528                for ( x = 0; x < numItems; x++ )
   \                     ??CrossCallReturnLabel_66:
   \   00006E   7F00         MOV     R7,#0x0
   \   000070   8017         SJMP    ??ZDO_ProcessMgmtRtgReq_3
   1529                {
   1530                  NLME_GetRequest( nwkRoutingTable, (uint16)(x + StartIndex), (void*)pList );
   1531          
   1532                  // Remap the status to the RoutingTableList Record Format defined in the ZigBee spec
   1533                  switch( pList->status )
   1534                  {
   1535                    case RT_ACTIVE:
   1536                      pList->status = ZDO_MGMT_RTG_ENTRY_ACTIVE;
   1537                      break;
   1538          
   1539                    case RT_DISC:
   1540                      pList->status = ZDO_MGMT_RTG_ENTRY_DISCOVERY_UNDERWAY;
   1541                      break;
   1542          
   1543                    case RT_LINK_FAIL:
   1544                      pList->status = ZDO_MGMT_RTG_ENTRY_DISCOVERY_FAILED;
   1545                      break;
   1546          
   1547                    case RT_INIT:
   1548                    case RT_REPAIR:
   1549                    default:
   1550                      pList->status = ZDO_MGMT_RTG_ENTRY_INACTIVE;
   \                     ??ZDO_ProcessMgmtRtgReq_4:
   \   000072   7403         MOV     A,#0x3
   \                     ??ZDO_ProcessMgmtRtgReq_5:
   \   000074   F0           MOVX    @DPTR,A
   1551                      break;
   1552                  }
   1553          
   1554                  // Increment pointer to next record
   1555                  pList++;
   \   000075   7401         MOV     A,#0x1
   \   000077   12....       LCALL   ?XSTACK_DISP0_8
   \   00007A   E0           MOVX    A,@DPTR
   \   00007B   2407         ADD     A,#0x7
   \   00007D   12....       LCALL   ?Subroutine194 & 0xFFFF
   \                     ??CrossCallReturnLabel_487:
   \   000080   7401         MOV     A,#0x1
   \   000082   12....       LCALL   ?XSTACK_DISP0_8
   \   000085   12....       LCALL   ??Subroutine208_0 & 0xFFFF
   \                     ??CrossCallReturnLabel_369:
   \   000088   0F           INC     R7
   \                     ??ZDO_ProcessMgmtRtgReq_3:
   \   000089   EF           MOV     A,R7
   \   00008A   C3           CLR     C
   \   00008B   9E           SUBB    A,R6
   \   00008C   503E         JNC     ??ZDO_ProcessMgmtRtgReq_0
   \   00008E                ; Setup parameters for call to function NLME_GetRequest
   \   00008E   7401         MOV     A,#0x1
   \   000090   12....       LCALL   ?XSTACK_DISP0_8
   \   000093   12....       LCALL   ?Subroutine113 & 0xFFFF
   \                     ??CrossCallReturnLabel_214:
   \   000096   8F..         MOV     ?V0 + 2,R7
   \   000098   85....       MOV     ?V0 + 0,?V0 + 4
   \   00009B   E5..         MOV     A,?V0 + 2
   \   00009D   25..         ADD     A,?V0 + 0
   \   00009F   FA           MOV     R2,A
   \   0000A0   E4           CLR     A
   \   0000A1   3400         ADDC    A,#0x0
   \   0000A3   FB           MOV     R3,A
   \   0000A4   798B         MOV     R1,#-0x75
   \   0000A6   12....       LCALL   ??NLME_GetRequest?relay
   \   0000A9   7401         MOV     A,#0x1
   \   0000AB   12....       LCALL   ?XSTACK_DISP0_8
   \   0000AE   E0           MOVX    A,@DPTR
   \   0000AF   2405         ADD     A,#0x5
   \   0000B1   12....       LCALL   ?Subroutine92 & 0xFFFF
   \                     ??CrossCallReturnLabel_339:
   \   0000B4   14           DEC     A
   \   0000B5   6008         JZ      ??ZDO_ProcessMgmtRtgReq_6
   \   0000B7   14           DEC     A
   \   0000B8   6008         JZ      ??ZDO_ProcessMgmtRtgReq_7
   \   0000BA   14           DEC     A
   \   0000BB   6009         JZ      ??ZDO_ProcessMgmtRtgReq_8
   \   0000BD   80B3         SJMP    ??ZDO_ProcessMgmtRtgReq_4
   \                     ??ZDO_ProcessMgmtRtgReq_6:
   \   0000BF   E4           CLR     A
   \   0000C0   80B2         SJMP    ??ZDO_ProcessMgmtRtgReq_5
   \                     ??ZDO_ProcessMgmtRtgReq_7:
   \   0000C2   7401         MOV     A,#0x1
   \   0000C4   80AE         SJMP    ??ZDO_ProcessMgmtRtgReq_5
   \                     ??ZDO_ProcessMgmtRtgReq_8:
   \   0000C6   7402         MOV     A,#0x2
   \   0000C8   80AA         SJMP    ??ZDO_ProcessMgmtRtgReq_5
   1556                }
   1557              }
   1558              else
   1559              {
   1560                numItems = 0;
   \                     ??ZDO_ProcessMgmtRtgReq_2:
   \   0000CA   7E00         MOV     R6,#0x0
   1561              }
   1562            }
   1563          
   1564            // Send response
   1565            ZDP_MgmtRtgRsp( inMsg->TransSeq, &(inMsg->srcAddr), ZSuccess, maxNumItems, StartIndex, numItems,
   1566                                  (rtgItem_t *)pBuf, false );
   \                     ??ZDO_ProcessMgmtRtgReq_0:
   \   0000CC                ; Setup parameters for call to function ZDP_MgmtRtgRsp
   \   0000CC   75..00       MOV     ?V0 + 0,#0x0
   \   0000CF   78..         MOV     R0,#?V0 + 0
   \   0000D1   12....       LCALL   ?PUSH_XSTACK_I_ONE
   \   0000D4   78..         MOV     R0,#?V0 + 6
   \   0000D6   12....       LCALL   ?PUSH_XSTACK_I_TWO
   \   0000D9   EE           MOV     A,R6
   \   0000DA   F5..         MOV     ?V0 + 0,A
   \   0000DC   78..         MOV     R0,#?V0 + 0
   \   0000DE   12....       LCALL   ?PUSH_XSTACK_I_ONE
   \   0000E1   E5..         MOV     A,?V0 + 4
   \   0000E3   F5..         MOV     ?V0 + 0,A
   \   0000E5   78..         MOV     R0,#?V0 + 0
   \   0000E7   12....       LCALL   ?PUSH_XSTACK_I_ONE
   \   0000EA   7405         MOV     A,#0x5
   \   0000EC   12....       LCALL   ?XSTACK_DISP0_8
   \   0000EF   E0           MOVX    A,@DPTR
   \   0000F0   FD           MOV     R5,A
   \   0000F1   7C00         MOV     R4,#0x0
   \   0000F3   7408         MOV     A,#0x8
   \   0000F5   12....       LCALL   ?XSTACK_DISP0_8
   \   0000F8   12....       LCALL   ?Subroutine171 & 0xFFFF
   \                     ??CrossCallReturnLabel_290:
   \   0000FB   7408         MOV     A,#0x8
   \   0000FD   12....       LCALL   ?XSTACK_DISP0_8
   \   000100   12....       LCALL   ?Subroutine62 & 0xFFFF
   \                     ??CrossCallReturnLabel_132:
   \   000103   12....       LCALL   ??ZDP_MgmtRtgRsp?relay
   \   000106   7405         MOV     A,#0x5
   \   000108   12....       LCALL   ?DEALLOC_XSTACK8
   1567          
   1568            if ( pBuf != NULL )
   \   00010B   E5..         MOV     A,?V0 + 6
   \   00010D   45..         ORL     A,?V0 + 7
   \   00010F   6007         JZ      ??ZDO_ProcessMgmtRtgReq_9
   1569            {
   1570              osal_mem_free( pBuf );
   \   000111                ; Setup parameters for call to function osal_mem_free
   \   000111   AA..         MOV     R2,?V0 + 6
   \   000113   AB..         MOV     R3,?V0 + 7
   \   000115   12....       LCALL   ??osal_mem_free?relay
   1571            }
   1572          }
   \                     ??ZDO_ProcessMgmtRtgReq_9:
   \   000118   7405         MOV     A,#0x5
   \   00011A                REQUIRE ?Subroutine6
   \   00011A                ; // Fall through to label ?Subroutine6
   1573          
   1574          /*********************************************************************
   1575           * @fn          ZDO_ProcessMgmtBindReq
   1576           *
   1577           * @brief       This function finishes the processing of the Management
   1578           *              Bind Request and generates the response.
   1579           *
   1580           *   Note:      This function will limit the number of items returned
   1581           *              to ZDO_MAX_BIND_ITEMS items.
   1582           *
   1583           * @param       inMsg - incoming message (request)
   1584           *
   1585           * @return      none
   1586           */

   \                                 In  segment BANKED_CODE, align 1, keep-with-next
   1587          void ZDO_ProcessMgmtBindReq( zdoIncomingMsg_t *inMsg )
   \                     ZDO_ProcessMgmtBindReq:
   1588          {
   \   000000   74F2         MOV     A,#-0xe
   \   000002   12....       LCALL   ?BANKED_ENTER_XDATA
   \   000005                ; Saved register size: 14
   \   000005                ; Auto size: 7
   \   000005   74F9         MOV     A,#-0x7
   \   000007   12....       LCALL   ?ALLOC_XSTACK8
   \   00000A   7405         MOV     A,#0x5
   \   00000C   12....       LCALL   ?XSTACK_DISP0_8
   \   00000F   12....       LCALL   ?Subroutine39 & 0xFFFF
   1589          #if defined ( REFLECTOR )
   1590            byte x;
   1591            uint16 maxNumItems;
   1592            uint16 numItems;
   1593            uint8 *pBuf = NULL;
   \                     ??CrossCallReturnLabel_67:
   \   000012   75..00       MOV     ?V0 + 4,#0x0
   \   000015   75..00       MOV     ?V0 + 5,#0x0
   1594            apsBindingItem_t *pList;
   1595            uint8 StartIndex = inMsg->asdu[0];
   \   000018   7405         MOV     A,#0x5
   \   00001A   12....       LCALL   ?XSTACK_DISP0_8
   \   00001D   12....       LCALL   ?Subroutine57 & 0xFFFF
   \                     ??CrossCallReturnLabel_115:
   \   000020   85..82       MOV     DPL,?XSP + 0
   \   000023   85..83       MOV     DPH,?XSP + 1
   \   000026   F0           MOVX    @DPTR,A
   1596            uint8 status;
   1597          
   1598            // Get the number of table items
   1599            APSME_GetRequest( apsNumBindingTableEntries, 0, (byte*)(&maxNumItems) );
   \   000027                ; Setup parameters for call to function APSME_GetRequest
   \   000027   7401         MOV     A,#0x1
   \   000029   12....       LCALL   ?XSTACK_DISP0_8
   \   00002C   AC82         MOV     R4,DPL
   \   00002E   AD83         MOV     R5,DPH
   \   000030   7A00         MOV     R2,#0x0
   \   000032   7B00         MOV     R3,#0x0
   \   000034   79A3         MOV     R1,#-0x5d
   \   000036   12....       LCALL   ??APSME_GetRequest?relay
   1600          
   1601            if ( maxNumItems > StartIndex )
   \   000039   85..82       MOV     DPL,?XSP + 0
   \   00003C   85..83       MOV     DPH,?XSP + 1
   \   00003F   E0           MOVX    A,@DPTR
   \   000040   FA           MOV     R2,A
   \   000041   7401         MOV     A,#0x1
   \   000043   12....       LCALL   ?XSTACK_DISP0_8
   \   000046   12....       LCALL   ??Subroutine221_0 & 0xFFFF
   \                     ??CrossCallReturnLabel_421:
   \   000049   C3           CLR     C
   \   00004A   EA           MOV     A,R2
   \   00004B   98           SUBB    A,R0
   \   00004C   E4           CLR     A
   \   00004D   99           SUBB    A,R1
   \   00004E   4003         JC      $+5
   \   000050   02....       LJMP    ??ZDO_ProcessMgmtBindReq_0 & 0xFFFF
   1602            {
   1603              numItems = maxNumItems - StartIndex;    // Start at the passed in index
   \   000053   7401         MOV     A,#0x1
   \   000055   12....       LCALL   ?XSTACK_DISP0_8
   \   000058   E0           MOVX    A,@DPTR
   \   000059   C3           CLR     C
   \   00005A   9A           SUBB    A,R2
   \   00005B   FE           MOV     R6,A
   \   00005C   A3           INC     DPTR
   \   00005D   E0           MOVX    A,@DPTR
   \   00005E   9400         SUBB    A,#0x0
   \   000060   FF           MOV     R7,A
   1604            }
   1605            else
   1606            {
   1607              numItems = 0;
   1608            }
   1609          
   1610            // limit the size of the list
   1611            if ( numItems > ZDO_MAX_BIND_ITEMS )
   \   000061   C3           CLR     C
   \   000062   EE           MOV     A,R6
   \   000063   9404         SUBB    A,#0x4
   \   000065   EF           MOV     A,R7
   \   000066   9400         SUBB    A,#0x0
   \   000068   4006         JC      ??ZDO_ProcessMgmtBindReq_1
   1612            {
   1613              numItems = ZDO_MAX_BIND_ITEMS;
   \   00006A   7E03         MOV     R6,#0x3
   \   00006C   7F00         MOV     R7,#0x0
   \   00006E   8004         SJMP    ??ZDO_ProcessMgmtBindReq_2
   1614            }
   1615          
   1616            // Allocate the memory to build the table
   1617            if ( numItems && (pBuf = osal_mem_alloc( sizeof( apsBindingItem_t ) * numItems )) )
   \                     ??ZDO_ProcessMgmtBindReq_1:
   \   000070   EE           MOV     A,R6
   \   000071   4F           ORL     A,R7
   \   000072   606C         JZ      ??ZDO_ProcessMgmtBindReq_0
   \                     ??ZDO_ProcessMgmtBindReq_2:
   \   000074                ; Setup parameters for call to function osal_mem_alloc
   \   000074   EE           MOV     A,R6
   \   000075   FA           MOV     R2,A
   \   000076   EF           MOV     A,R7
   \   000077   FB           MOV     R3,A
   \   000078   EA           MOV     A,R2
   \   000079   75F015       MOV     B,#0x15
   \   00007C   A4           MUL     AB
   \   00007D   FA           MOV     R2,A
   \   00007E   A8F0         MOV     R0,B
   \   000080   75F015       MOV     B,#0x15
   \   000083   EB           MOV     A,R3
   \   000084   A4           MUL     AB
   \   000085   28           ADD     A,R0
   \   000086   FB           MOV     R3,A
   \   000087   12....       LCALL   ??osal_mem_alloc?relay
   \   00008A   8A..         MOV     ?V0 + 4,R2
   \   00008C   8B..         MOV     ?V0 + 5,R3
   \   00008E   EA           MOV     A,R2
   \   00008F   45..         ORL     A,?V0 + 5
   \   000091   604D         JZ      ??ZDO_ProcessMgmtBindReq_0
   1618            {
   1619              status = ZSuccess;
   \   000093   75..00       MOV     ?V0 + 1,#0x0
   1620          
   1621              // Convert buffer to list
   1622              pList = (apsBindingItem_t *)pBuf;
   \   000096   7403         MOV     A,#0x3
   \   000098   12....       LCALL   ?XSTACK_DISP0_8
   \   00009B   12....       LCALL   ?Subroutine39 & 0xFFFF
   1623          
   1624              // Loop through items and build list
   1625              for ( x = 0; x < numItems; x++ )
   \                     ??CrossCallReturnLabel_68:
   \   00009E   75..00       MOV     ?V0 + 0,#0x0
   \                     ??ZDO_ProcessMgmtBindReq_3:
   \   0000A1   85....       MOV     ?V0 + 2,?V0 + 0
   \   0000A4   C3           CLR     C
   \   0000A5   E5..         MOV     A,?V0 + 2
   \   0000A7   9E           SUBB    A,R6
   \   0000A8   E4           CLR     A
   \   0000A9   9F           SUBB    A,R7
   \   0000AA   5039         JNC     ??ZDO_ProcessMgmtBindReq_4
   1626              {
   1627                APSME_GetRequest( apsBindingTable, (x + StartIndex), (void*)pList );
   \   0000AC                ; Setup parameters for call to function APSME_GetRequest
   \   0000AC   7403         MOV     A,#0x3
   \   0000AE   12....       LCALL   ?XSTACK_DISP0_8
   \   0000B1   12....       LCALL   ?Subroutine113 & 0xFFFF
   \                     ??CrossCallReturnLabel_215:
   \   0000B4   85..82       MOV     DPL,?XSP + 0
   \   0000B7   85..83       MOV     DPH,?XSP + 1
   \   0000BA   E0           MOVX    A,@DPTR
   \   0000BB   F8           MOV     R0,A
   \   0000BC   E5..         MOV     A,?V0 + 2
   \   0000BE   28           ADD     A,R0
   \   0000BF   FA           MOV     R2,A
   \   0000C0   E4           CLR     A
   \   0000C1   3400         ADDC    A,#0x0
   \   0000C3   FB           MOV     R3,A
   \   0000C4   79A2         MOV     R1,#-0x5e
   \   0000C6   12....       LCALL   ??APSME_GetRequest?relay
   1628                pList++;
   \   0000C9   7403         MOV     A,#0x3
   \   0000CB   12....       LCALL   ?XSTACK_DISP0_8
   \   0000CE   E0           MOVX    A,@DPTR
   \   0000CF   2415         ADD     A,#0x15
   \   0000D1   12....       LCALL   ?Subroutine194 & 0xFFFF
   1629              }
   \                     ??CrossCallReturnLabel_488:
   \   0000D4   7403         MOV     A,#0x3
   \   0000D6   12....       LCALL   ?XSTACK_DISP0_8
   \   0000D9   12....       LCALL   ??Subroutine208_0 & 0xFFFF
   \                     ??CrossCallReturnLabel_370:
   \   0000DC   05..         INC     ?V0 + 0
   \   0000DE   80C1         SJMP    ??ZDO_ProcessMgmtBindReq_3
   1630          
   1631            }
   1632            else
   1633            {
   1634              status = ZDP_NOT_PERMITTED;
   \                     ??ZDO_ProcessMgmtBindReq_0:
   \   0000E0   75..8B       MOV     ?V0 + 1,#-0x75
   1635              numItems = 0;
   \   0000E3   7E00         MOV     R6,#0x0
   1636            }
   1637          
   1638            // Send response
   1639            ZDP_MgmtBindRsp( inMsg->TransSeq, &(inMsg->srcAddr), status, (byte)maxNumItems, StartIndex,
   1640                             (byte)numItems, (apsBindingItem_t *)pBuf, false );
   \                     ??ZDO_ProcessMgmtBindReq_4:
   \   0000E5                ; Setup parameters for call to function ZDP_MgmtBindRsp
   \   0000E5   75..00       MOV     ?V0 + 0,#0x0
   \   0000E8   78..         MOV     R0,#?V0 + 0
   \   0000EA   12....       LCALL   ?PUSH_XSTACK_I_ONE
   \   0000ED   78..         MOV     R0,#?V0 + 4
   \   0000EF   12....       LCALL   ?PUSH_XSTACK_I_TWO
   \   0000F2   EE           MOV     A,R6
   \   0000F3   F5..         MOV     ?V0 + 0,A
   \   0000F5   78..         MOV     R0,#?V0 + 0
   \   0000F7   12....       LCALL   ?PUSH_XSTACK_I_ONE
   \   0000FA   7404         MOV     A,#0x4
   \   0000FC   12....       LCALL   ?XSTACK_DISP0_8
   \   0000FF   E0           MOVX    A,@DPTR
   \   000100   F5..         MOV     ?V0 + 0,A
   \   000102   78..         MOV     R0,#?V0 + 0
   \   000104   12....       LCALL   ?PUSH_XSTACK_I_ONE
   \   000107   7406         MOV     A,#0x6
   \   000109   12....       LCALL   ?XSTACK_DISP0_8
   \   00010C   E0           MOVX    A,@DPTR
   \   00010D   FD           MOV     R5,A
   \   00010E   AC..         MOV     R4,?V0 + 1
   \   000110   740A         MOV     A,#0xa
   \   000112   12....       LCALL   ?XSTACK_DISP0_8
   \   000115   12....       LCALL   ?Subroutine96 & 0xFFFF
   \                     ??CrossCallReturnLabel_190:
   \   000118   12....       LCALL   ?XSTACK_DISP0_8
   \   00011B   12....       LCALL   ?Subroutine62 & 0xFFFF
   \                     ??CrossCallReturnLabel_133:
   \   00011E   12....       LCALL   ??ZDP_MgmtBindRsp?relay
   \   000121   7405         MOV     A,#0x5
   \   000123   12....       LCALL   ?DEALLOC_XSTACK8
   1641          
   1642            if ( pBuf )
   \   000126   E5..         MOV     A,?V0 + 4
   \   000128   45..         ORL     A,?V0 + 5
   \   00012A   6007         JZ      ??ZDO_ProcessMgmtBindReq_5
   1643            {
   1644              osal_mem_free( pBuf );
   \   00012C                ; Setup parameters for call to function osal_mem_free
   \   00012C   AA..         MOV     R2,?V0 + 4
   \   00012E   AB..         MOV     R3,?V0 + 5
   \   000130   12....       LCALL   ??osal_mem_free?relay
   1645            }
   1646          #else
   1647            (void)inMsg;
   1648          #endif
   1649          }
   \                     ??ZDO_ProcessMgmtBindReq_5:
   \   000133   02....       LJMP    ?Subroutine4 & 0xFFFF
   1650          
   1651          /*********************************************************************
   1652           * @fn          ZDO_ProcessMgmtDirectJoinReq
   1653           *
   1654           * @brief       This function finishes the processing of the Management
   1655           *              Direct Join Request and generates the response.
   1656           *
   1657           * @param       inMsg - incoming message (request)
   1658           *
   1659           * @return      none
   1660           */

   \                                 In  segment BANKED_CODE, align 1, keep-with-next
   1661          void ZDO_ProcessMgmtDirectJoinReq( zdoIncomingMsg_t *inMsg )
   \                     ZDO_ProcessMgmtDirectJoinReq:
   1662          {
   \   000000   74F6         MOV     A,#-0xa
   \   000002   12....       LCALL   ?BANKED_ENTER_XDATA
   \   000005                ; Saved register size: 10
   \   000005                ; Auto size: 1
   \   000005   74FF         MOV     A,#-0x1
   \   000007   12....       LCALL   ?ALLOC_XSTACK8
   \   00000A   12....       LCALL   ?Subroutine124 & 0xFFFF
   1663            uint8 *deviceAddr;
   1664            uint8 capInfo;
   1665            uint8 stat;
   1666          
   1667            // Parse the message
   1668            deviceAddr = inMsg->asdu;
   1669            capInfo = inMsg->asdu[Z_EXTADDR_LEN];
   1670          
   1671            stat = (byte) NLME_DirectJoinRequest( deviceAddr, capInfo );
   \                     ??CrossCallReturnLabel_236:
   \   00000D   12....       LCALL   ??Subroutine214_0 & 0xFFFF
   \                     ??CrossCallReturnLabel_387:
   \   000010                ; Setup parameters for call to function NLME_DirectJoinRequest
   \   000010   8A82         MOV     DPL,R2
   \   000012   8B83         MOV     DPH,R3
   \   000014   A3           INC     DPTR
   \   000015   A3           INC     DPTR
   \   000016   A3           INC     DPTR
   \   000017   A3           INC     DPTR
   \   000018   A3           INC     DPTR
   \   000019   A3           INC     DPTR
   \   00001A   A3           INC     DPTR
   \   00001B   A3           INC     DPTR
   \   00001C   E0           MOVX    A,@DPTR
   \   00001D   F9           MOV     R1,A
   \   00001E   12....       LCALL   ??NLME_DirectJoinRequest?relay
   \   000021   E9           MOV     A,R1
   \   000022   85..82       MOV     DPL,?XSP + 0
   \   000025   85..83       MOV     DPH,?XSP + 1
   \   000028   F0           MOVX    @DPTR,A
   1672          
   1673            ZDP_MgmtDirectJoinRsp( inMsg->TransSeq, &(inMsg->srcAddr), stat, false );
   \   000029                ; Setup parameters for call to function ZDP_SendData
   \   000029   75..00       MOV     ?V0 + 0,#0x0
   \   00002C   78..         MOV     R0,#?V0 + 0
   \   00002E   12....       LCALL   ?PUSH_XSTACK_I_ONE
   \   000031   7401         MOV     A,#0x1
   \   000033   12....       LCALL   ?XSTACK_DISP0_8
   \   000036   8582..       MOV     ?V0 + 0,DPL
   \   000039   8583..       MOV     ?V0 + 1,DPH
   \   00003C   78..         MOV     R0,#?V0 + 0
   \   00003E   12....       LCALL   ?PUSH_XSTACK_I_TWO
   \   000041   75..35       MOV     ?V0 + 0,#0x35
   \   000044   75..80       MOV     ?V0 + 1,#-0x80
   \   000047   78..         MOV     R0,#?V0 + 0
   \   000049   12....       LCALL   ?PUSH_XSTACK_I_TWO
   \   00004C   12....       LCALL   ?Subroutine135 & 0xFFFF
   \                     ??CrossCallReturnLabel_246:
   \   00004F   12....       LCALL   ??Subroutine218_0 & 0xFFFF
   \                     ??CrossCallReturnLabel_406:
   \   000052   12....       LCALL   ?DEALLOC_XSTACK8
   1674          }
   \   000055                REQUIRE ?Subroutine7
   \   000055                ; // Fall through to label ?Subroutine7

   \                                 In  segment BANKED_CODE, align 1, keep-with-next
   \                     ?Subroutine7:
   \   000000   7401         MOV     A,#0x1
   \   000002   02....       LJMP    ??Subroutine200_0 & 0xFFFF

   \                                 In  segment BANKED_CODE, align 1, keep-with-next
   \                     ?Subroutine135:
   \   000000   7901         MOV     R1,#0x1
   \   000002   EE           MOV     A,R6
   \   000003   2402         ADD     A,#0x2
   \   000005   FC           MOV     R4,A
   \   000006   EF           MOV     A,R7
   \   000007   3400         ADDC    A,#0x0
   \   000009   FD           MOV     R5,A
   \   00000A   EE           MOV     A,R6
   \   00000B   240F         ADD     A,#0xf
   \   00000D   FA           MOV     R2,A
   \   00000E   EF           MOV     A,R7
   \   00000F   22           RET
   1675          
   1676          /*********************************************************************
   1677           * @fn          ZDO_ProcessMgmtLeaveReq
   1678           *
   1679           * @brief       This function processes a Management Leave Request
   1680           *              and generates the response.
   1681           *
   1682           * @param       inMsg - incoming message (request)
   1683           *
   1684           * @return      none
   1685           */

   \                                 In  segment BANKED_CODE, align 1, keep-with-next
   \                     ?Subroutine121:
   \   000000   12....       LCALL   ?Subroutine177 & 0xFFFF
   \                     ??CrossCallReturnLabel_300:
   \   000003                REQUIRE ??Subroutine205_0
   \   000003                ; // Fall through to label ??Subroutine205_0

   \                                 In  segment BANKED_CODE, align 1, keep-with-next
   1686          void ZDO_ProcessMgmtLeaveReq( zdoIncomingMsg_t *inMsg )
   \                     ZDO_ProcessMgmtLeaveReq:
   1687          {
   \   000000   74F4         MOV     A,#-0xc
   \   000002   12....       LCALL   ?BANKED_ENTER_XDATA
   \   000005                ; Saved register size: 12
   \   000005                ; Auto size: 6
   \   000005   74FA         MOV     A,#-0x6
   \   000007   12....       LCALL   ?ALLOC_XSTACK8
   \   00000A   8A..         MOV     ?V0 + 0,R2
   \   00000C   8B..         MOV     ?V0 + 1,R3
   1688            NLME_LeaveReq_t req;
   1689            ZStatus_t       status;
   1690            uint8           option;
   1691            uint8 *msg = inMsg->asdu;
   \   00000E   12....       LCALL   ?Subroutine121 & 0xFFFF
   1692          
   1693            if ( ( AddrMgrExtAddrValid( msg ) == FALSE                 ) ||
   1694                 ( osal_ExtAddrEqual( msg, NLME_GetExtAddr() ) == TRUE )    )
   \                     ??CrossCallReturnLabel_351:
   \   000011                ; Setup parameters for call to function AddrMgrExtAddrValid
   \   000011   EE           MOV     A,R6
   \   000012   FA           MOV     R2,A
   \   000013   EF           MOV     A,R7
   \   000014   FB           MOV     R3,A
   \   000015   12....       LCALL   ??AddrMgrExtAddrValid?relay
   \   000018   E9           MOV     A,R1
   \   000019   6013         JZ      ??ZDO_ProcessMgmtLeaveReq_0
   \   00001B                ; Setup parameters for call to function sAddrExtCmp
   \   00001B                ; Setup parameters for call to function NLME_GetExtAddr
   \   00001B   12....       LCALL   ??NLME_GetExtAddr?relay
   \   00001E   EA           MOV     A,R2
   \   00001F   FC           MOV     R4,A
   \   000020   EB           MOV     A,R3
   \   000021   FD           MOV     R5,A
   \   000022   EE           MOV     A,R6
   \   000023   FA           MOV     R2,A
   \   000024   EF           MOV     A,R7
   \   000025   FB           MOV     R3,A
   \   000026   12....       LCALL   ??sAddrExtCmp?relay
   \   000029   E9           MOV     A,R1
   \   00002A   6401         XRL     A,#0x1
   \   00002C   700A         JNZ     ??ZDO_ProcessMgmtLeaveReq_1
   1695            {
   1696              // Remove this device
   1697              req.extAddr = NULL;
   \                     ??ZDO_ProcessMgmtLeaveReq_0:
   \   00002E   7401         MOV     A,#0x1
   \   000030   12....       LCALL   ?XSTACK_DISP0_8
   \   000033   E4           CLR     A
   \   000034   F0           MOVX    @DPTR,A
   \   000035   A3           INC     DPTR
   \   000036   8009         SJMP    ??ZDO_ProcessMgmtLeaveReq_2
   1698            }
   1699            else
   1700            {
   1701              // Remove child device
   1702              req.extAddr = msg;
   \                     ??ZDO_ProcessMgmtLeaveReq_1:
   \   000038   7401         MOV     A,#0x1
   \   00003A   12....       LCALL   ?XSTACK_DISP0_8
   \   00003D   EE           MOV     A,R6
   \   00003E   F0           MOVX    @DPTR,A
   \   00003F   A3           INC     DPTR
   \   000040   EF           MOV     A,R7
   1703            }
   \                     ??ZDO_ProcessMgmtLeaveReq_2:
   \   000041   12....       LCALL   ?Subroutine47 & 0xFFFF
   1704          
   1705            option = msg[Z_EXTADDR_LEN];
   \                     ??CrossCallReturnLabel_88:
   \   000044   A3           INC     DPTR
   \   000045   A3           INC     DPTR
   \   000046   A3           INC     DPTR
   \   000047   A3           INC     DPTR
   \   000048   A3           INC     DPTR
   \   000049   A3           INC     DPTR
   \   00004A   A3           INC     DPTR
   \   00004B   E0           MOVX    A,@DPTR
   \   00004C   F8           MOV     R0,A
   1706            if ( option & ZDP_MGMT_LEAVE_REQ_RC )
   \   00004D   A2E6         MOV     C,0xE0 /* A   */.6
   \   00004F   5008         JNC     ??ZDO_ProcessMgmtLeaveReq_3
   1707            {
   1708              req.removeChildren = TRUE;
   \   000051   7403         MOV     A,#0x3
   \   000053   12....       LCALL   ?XSTACK_DISP0_8
   \   000056   7401         MOV     A,#0x1
   \   000058   F0           MOVX    @DPTR,A
   1709            }
   1710          
   1711            if ( option & ZDP_MGMT_LEAVE_REQ_REJOIN )
   \                     ??ZDO_ProcessMgmtLeaveReq_3:
   \   000059   E8           MOV     A,R0
   \   00005A   A2E7         MOV     C,0xE0 /* A   */.7
   \   00005C   5008         JNC     ??ZDO_ProcessMgmtLeaveReq_4
   1712            {
   1713               req.rejoin = TRUE;
   \   00005E   7404         MOV     A,#0x4
   \   000060   12....       LCALL   ?XSTACK_DISP0_8
   \   000063   7401         MOV     A,#0x1
   \   000065   F0           MOVX    @DPTR,A
   1714            }
   1715          
   1716            req.silent = FALSE;
   \                     ??ZDO_ProcessMgmtLeaveReq_4:
   \   000066   7405         MOV     A,#0x5
   \   000068   12....       LCALL   ?XSTACK_DISP0_8
   \   00006B   E4           CLR     A
   \   00006C   F0           MOVX    @DPTR,A
   1717          
   1718            status = NLME_LeaveReq( &req );
   \   00006D                ; Setup parameters for call to function NLME_LeaveReq
   \   00006D   04           INC     A
   \   00006E   12....       LCALL   ?XSTACK_DISP0_8
   \   000071   AA82         MOV     R2,DPL
   \   000073   AB83         MOV     R3,DPH
   \   000075   12....       LCALL   ??NLME_LeaveReq?relay
   \   000078   E9           MOV     A,R1
   \   000079   85..82       MOV     DPL,?XSP + 0
   \   00007C   85..83       MOV     DPH,?XSP + 1
   \   00007F   F0           MOVX    @DPTR,A
   1719          
   1720            ZDP_MgmtLeaveRsp( inMsg->TransSeq, &(inMsg->srcAddr), status, FALSE );
   \   000080                ; Setup parameters for call to function ZDP_SendData
   \   000080   75..00       MOV     ?V0 + 2,#0x0
   \   000083   78..         MOV     R0,#?V0 + 2
   \   000085   12....       LCALL   ?PUSH_XSTACK_I_ONE
   \   000088   7401         MOV     A,#0x1
   \   00008A   12....       LCALL   ?XSTACK_DISP0_8
   \   00008D   8582..       MOV     ?V0 + 2,DPL
   \   000090   8583..       MOV     ?V0 + 3,DPH
   \   000093   78..         MOV     R0,#?V0 + 2
   \   000095   12....       LCALL   ?PUSH_XSTACK_I_TWO
   \   000098   75..34       MOV     ?V0 + 2,#0x34
   \   00009B   75..80       MOV     ?V0 + 3,#-0x80
   \   00009E   78..         MOV     R0,#?V0 + 2
   \   0000A0   12....       LCALL   ?PUSH_XSTACK_I_TWO
   \   0000A3   12....       LCALL   ?Subroutine125 & 0xFFFF
   \                     ??CrossCallReturnLabel_405:
   \   0000A6   12....       LCALL   ?DEALLOC_XSTACK8
   1721          }
   \   0000A9   7406         MOV     A,#0x6
   \   0000AB   12....       LCALL   ?DEALLOC_XSTACK8
   \   0000AE   02....       LJMP    ?Subroutine1 & 0xFFFF
   1722          
   1723          
   1724          /*********************************************************************
   1725           * @fn          ZDO_ProcessMgmtPermitJoinReq
   1726           *
   1727           * @brief       This function processes a Management Permit Join Request
   1728           *              and generates the response.
   1729           *
   1730           * @param       inMsg - incoming message (request)
   1731           *
   1732           * @return      none
   1733           */

   \                                 In  segment BANKED_CODE, align 1, keep-with-next
   1734          void ZDO_ProcessMgmtPermitJoinReq( zdoIncomingMsg_t *inMsg )
   \                     ZDO_ProcessMgmtPermitJoinReq:
   1735          {
   \   000000   74F6         MOV     A,#-0xa
   \   000002   12....       LCALL   ?BANKED_ENTER_XDATA
   \   000005                ; Saved register size: 10
   \   000005                ; Auto size: 1
   \   000005   74FF         MOV     A,#-0x1
   \   000007   12....       LCALL   ?ALLOC_XSTACK8
   \   00000A   12....       LCALL   ?Subroutine124 & 0xFFFF
   1736            uint8 stat;
   1737            uint8 duration;
   1738            uint8 tcsig;
   1739          
   1740            duration = inMsg->asdu[ZDP_MGMT_PERMIT_JOIN_REQ_DURATION];
   1741            tcsig    = inMsg->asdu[ZDP_MGMT_PERMIT_JOIN_REQ_TC_SIG];
   1742          
   1743            // Set the network layer permit join duration
   1744            stat = (byte) NLME_PermitJoiningRequest( duration );
   \                     ??CrossCallReturnLabel_237:
   \   00000D   12....       LCALL   ??Subroutine215_0 & 0xFFFF
   \                     ??CrossCallReturnLabel_398:
   \   000010   F9           MOV     R1,A
   \   000011   12....       LCALL   ??NLME_PermitJoiningRequest?relay
   \   000014   E9           MOV     A,R1
   \   000015   85..82       MOV     DPL,?XSP + 0
   \   000018   85..83       MOV     DPH,?XSP + 1
   \   00001B   F0           MOVX    @DPTR,A
   1745          
   1746            // Handle the Trust Center Significance
   1747            if ( ZG_SECURE_ENABLED && ZG_BUILD_COORDINATOR_TYPE && ZG_DEVICE_COORDINATOR_TYPE )
   1748            {
   1749              if ( tcsig == TRUE )
   1750              {
   1751                ZDSecMgrPermitJoining( duration );
   1752              }
   1753            }
   1754          
   1755            // Send a response if unicast
   1756            if ( !inMsg->wasBroadcast )
   \   00001C   EE           MOV     A,R6
   \   00001D   240B         ADD     A,#0xb
   \   00001F   F582         MOV     DPL,A
   \   000021   EF           MOV     A,R7
   \   000022   12....       LCALL   ??Subroutine238_0 & 0xFFFF
   \                     ??CrossCallReturnLabel_566:
   \   000025   702C         JNZ     ??ZDO_ProcessMgmtPermitJoinReq_0
   1757            {
   1758              ZDP_MgmtPermitJoinRsp( inMsg->TransSeq, &(inMsg->srcAddr), stat, false );
   \   000027                ; Setup parameters for call to function ZDP_SendData
   \   000027   75..00       MOV     ?V0 + 0,#0x0
   \   00002A   78..         MOV     R0,#?V0 + 0
   \   00002C   12....       LCALL   ?PUSH_XSTACK_I_ONE
   \   00002F   7401         MOV     A,#0x1
   \   000031   12....       LCALL   ?XSTACK_DISP0_8
   \   000034   8582..       MOV     ?V0 + 0,DPL
   \   000037   8583..       MOV     ?V0 + 1,DPH
   \   00003A   78..         MOV     R0,#?V0 + 0
   \   00003C   12....       LCALL   ?PUSH_XSTACK_I_TWO
   \   00003F   75..36       MOV     ?V0 + 0,#0x36
   \   000042   75..80       MOV     ?V0 + 1,#-0x80
   \   000045   78..         MOV     R0,#?V0 + 0
   \   000047   12....       LCALL   ?PUSH_XSTACK_I_TWO
   \   00004A   12....       LCALL   ?Subroutine135 & 0xFFFF
   1759            }
   \                     ??CrossCallReturnLabel_247:
   \   00004D   12....       LCALL   ??Subroutine218_0 & 0xFFFF
   \                     ??CrossCallReturnLabel_407:
   \   000050   12....       LCALL   ?DEALLOC_XSTACK8
   1760          }
   \                     ??ZDO_ProcessMgmtPermitJoinReq_0:
   \   000053   02....       LJMP    ?Subroutine7 & 0xFFFF
   1761          
   1762          /*
   1763           * This function stub allows the next higher layer to be notified of
   1764           * a permit joining timeout.
   1765           */
   1766          /*********************************************************************
   1767           * @fn          ZDO_ProcessMgmtPermitJoinTimeout
   1768           *
   1769           * @brief       This function stub allows the next higher layer to be
   1770           *              notified of a permit joining timeout. Currently, this
   1771           *              directly bypasses the APS layer.
   1772           *
   1773           * @param       none
   1774           *
   1775           * @return      none
   1776           */

   \                                 In  segment BANKED_CODE, align 1, keep-with-next
   1777          void ZDO_ProcessMgmtPermitJoinTimeout( void )
   \                     NLME_PermitJoiningTimeout:
   1778          {
   \   000000                ; Saved register size: 0
   \   000000                ; Auto size: 0
   1779            #if defined( ZDO_MGMT_PERMIT_JOIN_RESPONSE )
   1780            // Currently, only the ZDSecMgr needs to be notified
   1781            if ( ZG_SECURE_ENABLED && ZG_BUILD_COORDINATOR_TYPE && ZG_DEVICE_COORDINATOR_TYPE )
   1782            {
   1783              ZDSecMgrPermitJoiningTimeout();
   1784            }
   1785            #endif
   1786          }
   \   000000   02....       LJMP    ?BRET
   1787          
   1788          /*********************************************************************
   1789           * @fn          ZDO_ProcessUserDescReq
   1790           *
   1791           * @brief       This function finishes the processing of the User
   1792           *              Descriptor Request and generates the response.
   1793           *
   1794           * @param       inMsg - incoming message (request)
   1795           *
   1796           * @return      none
   1797           */

   \                                 In  segment BANKED_CODE, align 1, keep-with-next
   1798          void ZDO_ProcessUserDescReq( zdoIncomingMsg_t *inMsg )
   \                     ZDO_ProcessUserDescReq:
   1799          {
   \   000000   74F0         MOV     A,#-0x10
   \   000002   12....       LCALL   ?BANKED_ENTER_XDATA
   \   000005                ; Saved register size: 16
   \   000005                ; Auto size: 17
   \   000005   74EF         MOV     A,#-0x11
   \   000007   12....       LCALL   ?ALLOC_XSTACK8
   \   00000A   8A..         MOV     ?V0 + 0,R2
   \   00000C   8B..         MOV     ?V0 + 1,R3
   1800            uint16 aoi = BUILD_UINT16( inMsg->asdu[0], inMsg->asdu[1] );
   \   00000E   12....       LCALL   ?Subroutine66 & 0xFFFF
   1801            UserDescriptorFormat_t userDesc;
   1802          
   1803            if ( (aoi == ZDAppNwkAddr.addr.shortAddr) && (ZSUCCESS == osal_nv_read(
   1804                       ZCD_NV_USERDESC, 0, sizeof(UserDescriptorFormat_t), &userDesc )) )
   \                     ??CrossCallReturnLabel_334:
   \   000011   E5..         MOV     A,?V0 + 0
   \   000013   240F         ADD     A,#0xf
   \   000015   F5..         MOV     ?V0 + 6,A
   \   000017   EB           MOV     A,R3
   \   000018   3400         ADDC    A,#0x0
   \   00001A   F5..         MOV     ?V0 + 7,A
   \   00001C   E5..         MOV     A,?V0 + 0
   \   00001E   2402         ADD     A,#0x2
   \   000020   F5..         MOV     ?V0 + 2,A
   \   000022   EB           MOV     A,R3
   \   000023   3400         ADDC    A,#0x0
   \   000025   F5..         MOV     ?V0 + 3,A
   \   000027   90....       MOV     DPTR,#ZDAppNwkAddr
   \   00002A   E0           MOVX    A,@DPTR
   \   00002B   6E           XRL     A,R6
   \   00002C   7003         JNZ     ??ZDO_ProcessUserDescReq_0
   \   00002E   A3           INC     DPTR
   \   00002F   E0           MOVX    A,@DPTR
   \   000030   6F           XRL     A,R7
   \                     ??ZDO_ProcessUserDescReq_0:
   \   000031   7061         JNZ     ??ZDO_ProcessUserDescReq_1
   \   000033                ; Setup parameters for call to function osal_nv_read
   \   000033   85..82       MOV     DPL,?XSP + 0
   \   000036   85..83       MOV     DPH,?XSP + 1
   \   000039   8582..       MOV     ?V0 + 4,DPL
   \   00003C   8583..       MOV     ?V0 + 5,DPH
   \   00003F   78..         MOV     R0,#?V0 + 4
   \   000041   12....       LCALL   ?PUSH_XSTACK_I_TWO
   \   000044   75..11       MOV     ?V0 + 4,#0x11
   \   000047   75..00       MOV     ?V0 + 5,#0x0
   \   00004A   78..         MOV     R0,#?V0 + 4
   \   00004C   12....       LCALL   ?PUSH_XSTACK_I_TWO
   \   00004F   7C00         MOV     R4,#0x0
   \   000051   7D00         MOV     R5,#0x0
   \   000053   7A81         MOV     R2,#-0x7f
   \   000055   7B00         MOV     R3,#0x0
   \   000057   12....       LCALL   ??osal_nv_read?relay
   \   00005A   7404         MOV     A,#0x4
   \   00005C   12....       LCALL   ?DEALLOC_XSTACK8
   \   00005F   E9           MOV     A,R1
   \   000060   7032         JNZ     ??ZDO_ProcessUserDescReq_1
   1805            {
   1806              ZDP_UserDescRsp( inMsg->TransSeq, &(inMsg->srcAddr), aoi, &userDesc, false );
   \   000062                ; Setup parameters for call to function ZDP_UserDescRsp
   \   000062   75..00       MOV     ?V0 + 0,#0x0
   \   000065   78..         MOV     R0,#?V0 + 0
   \   000067   12....       LCALL   ?PUSH_XSTACK_I_ONE
   \   00006A   7401         MOV     A,#0x1
   \   00006C   12....       LCALL   ?XSTACK_DISP0_8
   \   00006F   8582..       MOV     ?V0 + 0,DPL
   \   000072   8583..       MOV     ?V0 + 1,DPH
   \   000075   78..         MOV     R0,#?V0 + 0
   \   000077   12....       LCALL   ?PUSH_XSTACK_I_TWO
   \   00007A   EE           MOV     A,R6
   \   00007B   FC           MOV     R4,A
   \   00007C   EF           MOV     A,R7
   \   00007D   FD           MOV     R5,A
   \   00007E   AA..         MOV     R2,?V0 + 2
   \   000080   AB..         MOV     R3,?V0 + 3
   \   000082   85..82       MOV     DPL,?V0 + 6
   \   000085   85..83       MOV     DPH,?V0 + 7
   \   000088   E0           MOVX    A,@DPTR
   \   000089   F9           MOV     R1,A
   \   00008A   12....       LCALL   ??ZDP_UserDescRsp?relay
   \   00008D   7403         MOV     A,#0x3
   \   00008F   12....       LCALL   ?DEALLOC_XSTACK8
   \   000092   8032         SJMP    ??ZDO_ProcessUserDescReq_2
   1807            }
   1808            else
   1809            {
   1810              ZDP_GenericRsp(inMsg->TransSeq, &(inMsg->srcAddr),
   1811                     ZDP_NOT_SUPPORTED, aoi, User_Desc_rsp, inMsg->SecurityUse );
   \                     ??ZDO_ProcessUserDescReq_1:
   \   000094                ; Setup parameters for call to function ZDP_GenericRsp
   \   000094   75..11       MOV     ?V0 + 4,#0x11
   \   000097   75..80       MOV     ?V0 + 5,#-0x80
   \   00009A   78..         MOV     R0,#?V0 + 4
   \   00009C   12....       LCALL   ?PUSH_XSTACK_I_TWO
   \   00009F   8E..         MOV     ?V0 + 4,R6
   \   0000A1   8F..         MOV     ?V0 + 5,R7
   \   0000A3   78..         MOV     R0,#?V0 + 4
   \   0000A5   12....       LCALL   ?PUSH_XSTACK_I_TWO
   \   0000A8   E5..         MOV     A,?V0 + 0
   \   0000AA   240E         ADD     A,#0xe
   \   0000AC   12....       LCALL   ??Subroutine237_0 & 0xFFFF
   1812            }
   \                     ??CrossCallReturnLabel_574:
   \   0000AF   FD           MOV     R5,A
   \   0000B0   7C84         MOV     R4,#-0x7c
   \   0000B2   AA..         MOV     R2,?V0 + 2
   \   0000B4   AB..         MOV     R3,?V0 + 3
   \   0000B6   85..82       MOV     DPL,?V0 + 6
   \   0000B9   85..83       MOV     DPH,?V0 + 7
   \   0000BC   E0           MOVX    A,@DPTR
   \   0000BD   F9           MOV     R1,A
   \   0000BE   12....       LCALL   ??ZDP_GenericRsp?relay
   \   0000C1   7404         MOV     A,#0x4
   \   0000C3   12....       LCALL   ?DEALLOC_XSTACK8
   1813          }
   \                     ??ZDO_ProcessUserDescReq_2:
   \   0000C6   7411         MOV     A,#0x11
   \   0000C8   02....       LJMP    ?Subroutine6 & 0xFFFF
   1814          
   1815          /*********************************************************************
   1816           * @fn          ZDO_ProcessUserDescSet
   1817           *
   1818           * @brief       This function finishes the processing of the User
   1819           *              Descriptor Set and generates the response.
   1820           *
   1821           * @param       inMsg - incoming message (request)
   1822           *
   1823           * @return      none
   1824           */

   \                                 In  segment BANKED_CODE, align 1, keep-with-next
   1825          void ZDO_ProcessUserDescSet( zdoIncomingMsg_t *inMsg )
   \                     ZDO_ProcessUserDescSet:
   1826          {
   \   000000   74F2         MOV     A,#-0xe
   \   000002   12....       LCALL   ?BANKED_ENTER_XDATA
   \   000005                ; Saved register size: 14
   \   000005                ; Auto size: 21
   \   000005   74EB         MOV     A,#-0x15
   \   000007   12....       LCALL   ?ALLOC_XSTACK8
   \   00000A   8A..         MOV     ?V0 + 4,R2
   \   00000C   8B..         MOV     ?V0 + 5,R3
   1827            uint8 *msg;
   1828            uint16 aoi;
   1829            UserDescriptorFormat_t userDesc;
   1830            uint8 outMsg[3];
   1831            uint8 status;
   1832          
   1833            msg = inMsg->asdu;
   \   00000E   12....       LCALL   ?Subroutine178 & 0xFFFF
   \                     ??CrossCallReturnLabel_301:
   \   000011   12....       LCALL   ?Subroutine84 & 0xFFFF
   1834            aoi = BUILD_UINT16( msg[0], msg[1] );
   \                     ??CrossCallReturnLabel_170:
   \   000014   2400         ADD     A,#0x0
   \   000016   FE           MOV     R6,A
   \   000017   E4           CLR     A
   \   000018   3B           ADDC    A,R3
   \   000019   FF           MOV     R7,A
   1835          
   1836            if ( aoi == ZDAppNwkAddr.addr.shortAddr )
   \   00001A   90....       MOV     DPTR,#ZDAppNwkAddr
   \   00001D   E0           MOVX    A,@DPTR
   \   00001E   6E           XRL     A,R6
   \   00001F   7003         JNZ     ??ZDO_ProcessUserDescSet_0
   \   000021   A3           INC     DPTR
   \   000022   E0           MOVX    A,@DPTR
   \   000023   6F           XRL     A,R7
   \                     ??ZDO_ProcessUserDescSet_0:
   \   000024   6003         JZ      $+5
   \   000026   02....       LJMP    ??ZDO_ProcessUserDescSet_1 & 0xFFFF
   1837            {
   1838              userDesc.len = (msg[2] < AF_MAX_USER_DESCRIPTOR_LEN) ? msg[2] : AF_MAX_USER_DESCRIPTOR_LEN;
   \   000029   8882         MOV     DPL,R0
   \   00002B   8983         MOV     DPH,R1
   \   00002D   A3           INC     DPTR
   \   00002E   A3           INC     DPTR
   \   00002F   E0           MOVX    A,@DPTR
   \   000030   FA           MOV     R2,A
   \   000031   9410         SUBB    A,#0x10
   \   000033   5004         JNC     ??ZDO_ProcessUserDescSet_2
   \   000035   8A..         MOV     ?V0 + 3,R2
   \   000037   8003         SJMP    ??ZDO_ProcessUserDescSet_3
   \                     ??ZDO_ProcessUserDescSet_2:
   \   000039   75..10       MOV     ?V0 + 3,#0x10
   \                     ??ZDO_ProcessUserDescSet_3:
   \   00003C   7404         MOV     A,#0x4
   \   00003E   12....       LCALL   ?XSTACK_DISP0_8
   \   000041   E5..         MOV     A,?V0 + 3
   \   000043   12....       LCALL   ?Subroutine49 & 0xFFFF
   1839              msg ++;  // increment one for the length field
   1840          
   1841              osal_memcpy( userDesc.desc, &msg[2], userDesc.len );
   \                     ??CrossCallReturnLabel_93:
   \   000046   A3           INC     DPTR
   \   000047   A3           INC     DPTR
   \   000048   A982         MOV     R1,DPL
   \   00004A   AA83         MOV     R2,DPH
   \   00004C   89..         MOV     ?V0 + 0,R1
   \   00004E   8A..         MOV     ?V0 + 1,R2
   \   000050   75..00       MOV     ?V0 + 2,#0x0
   \   000053   78..         MOV     R0,#?V0 + 0
   \   000055   12....       LCALL   ?PUSH_XSTACK_I_THREE
   \   000058   7407         MOV     A,#0x7
   \   00005A   12....       LCALL   ?XSTACK_DISP0_8
   \   00005D   E0           MOVX    A,@DPTR
   \   00005E   FC           MOV     R4,A
   \   00005F   7D00         MOV     R5,#0x0
   \   000061   7408         MOV     A,#0x8
   \   000063   12....       LCALL   ?XSTACK_DISP0_8
   \   000066   AA82         MOV     R2,DPL
   \   000068   AB83         MOV     R3,DPH
   \   00006A   12....       LCALL   ??Subroutine226_0 & 0xFFFF
   \                     ??CrossCallReturnLabel_465:
   \   00006D   12....       LCALL   ?DEALLOC_XSTACK8
   1842              osal_nv_write( ZCD_NV_USERDESC, 0, sizeof(UserDescriptorFormat_t), &userDesc );
   \   000070                ; Setup parameters for call to function osal_nv_write
   \   000070   7404         MOV     A,#0x4
   \   000072   12....       LCALL   ?XSTACK_DISP0_8
   \   000075   8582..       MOV     ?V0 + 0,DPL
   \   000078   8583..       MOV     ?V0 + 1,DPH
   \   00007B   78..         MOV     R0,#?V0 + 0
   \   00007D   12....       LCALL   ?PUSH_XSTACK_I_TWO
   \   000080   75..11       MOV     ?V0 + 0,#0x11
   \   000083   75..00       MOV     ?V0 + 1,#0x0
   \   000086   78..         MOV     R0,#?V0 + 0
   \   000088   12....       LCALL   ?PUSH_XSTACK_I_TWO
   \   00008B   7C00         MOV     R4,#0x0
   \   00008D   7D00         MOV     R5,#0x0
   \   00008F   7A81         MOV     R2,#-0x7f
   \   000091   7B00         MOV     R3,#0x0
   \   000093   12....       LCALL   ??osal_nv_write?relay
   \   000096   7404         MOV     A,#0x4
   \   000098   12....       LCALL   ?DEALLOC_XSTACK8
   1843              if ( userDesc.len != 0 )
   \   00009B   7404         MOV     A,#0x4
   \   00009D   12....       LCALL   ?XSTACK_DISP0_8
   \   0000A0   E0           MOVX    A,@DPTR
   \   0000A1   90....       MOV     DPTR,#ZDO_Config_Node_Descriptor
   \   0000A4   6005         JZ      ??ZDO_ProcessUserDescSet_4
   1844              {
   1845                ZDO_Config_Node_Descriptor.UserDescAvail = TRUE;
   \   0000A6   E0           MOVX    A,@DPTR
   \   0000A7   D2E4         SETB    0xE0 /* A   */.4
   \   0000A9   8003         SJMP    ??ZDO_ProcessUserDescSet_5
   1846              }
   1847              else
   1848              {
   1849                ZDO_Config_Node_Descriptor.UserDescAvail = FALSE;
   \                     ??ZDO_ProcessUserDescSet_4:
   \   0000AB   E0           MOVX    A,@DPTR
   \   0000AC   C2E4         CLR     0xE0 /* A   */.4
   1850              }
   1851          
   1852              status = ZDP_SUCCESS;
   1853            }
   \                     ??ZDO_ProcessUserDescSet_5:
   \   0000AE   12....       LCALL   ?Subroutine196 & 0xFFFF
   \                     ??CrossCallReturnLabel_323:
   \   0000B1   E4           CLR     A
   \   0000B2   8008         SJMP    ??ZDO_ProcessUserDescSet_6
   1854            else
   1855            {
   1856              status =  ZDP_NOT_SUPPORTED;
   \                     ??ZDO_ProcessUserDescSet_1:
   \   0000B4   85..82       MOV     DPL,?XSP + 0
   \   0000B7   85..83       MOV     DPH,?XSP + 1
   \   0000BA   7484         MOV     A,#-0x7c
   \                     ??ZDO_ProcessUserDescSet_6:
   \   0000BC   F0           MOVX    @DPTR,A
   1857            }
   1858          
   1859            outMsg[0] = status;
   \   0000BD   E0           MOVX    A,@DPTR
   \   0000BE   C0E0         PUSH    A
   \   0000C0   7401         MOV     A,#0x1
   \   0000C2   12....       LCALL   ?XSTACK_DISP0_8
   \   0000C5   D0E0         POP     A
   \   0000C7   F0           MOVX    @DPTR,A
   1860            outMsg[1] = LO_UINT16( aoi );
   \   0000C8   7402         MOV     A,#0x2
   \   0000CA   12....       LCALL   ?XSTACK_DISP0_8
   \   0000CD   EE           MOV     A,R6
   \   0000CE   F0           MOVX    @DPTR,A
   1861            outMsg[2] = LO_UINT16( aoi );
   \   0000CF   7403         MOV     A,#0x3
   \   0000D1   12....       LCALL   ?XSTACK_DISP0_8
   \   0000D4   EE           MOV     A,R6
   \   0000D5   F0           MOVX    @DPTR,A
   1862          
   1863            ZDP_SendData( &(inMsg->TransSeq), &(inMsg->srcAddr), User_Desc_conf, 3, outMsg,
   1864                         inMsg->SecurityUse );
   \   0000D6                ; Setup parameters for call to function ZDP_SendData
   \   0000D6   12....       LCALL   ?Subroutine140 & 0xFFFF
   \                     ??CrossCallReturnLabel_587:
   \   0000D9   E5..         MOV     A,?V0 + 5
   \   0000DB   12....       LCALL   ??Subroutine238_0 & 0xFFFF
   \                     ??CrossCallReturnLabel_567:
   \   0000DE   F5..         MOV     ?V0 + 0,A
   \   0000E0   78..         MOV     R0,#?V0 + 0
   \   0000E2   12....       LCALL   ?PUSH_XSTACK_I_ONE
   \   0000E5   7402         MOV     A,#0x2
   \   0000E7   12....       LCALL   ?XSTACK_DISP0_8
   \   0000EA   8582..       MOV     ?V0 + 0,DPL
   \   0000ED   8583..       MOV     ?V0 + 1,DPH
   \   0000F0   78..         MOV     R0,#?V0 + 0
   \   0000F2   12....       LCALL   ?PUSH_XSTACK_I_TWO
   \   0000F5   75..14       MOV     ?V0 + 0,#0x14
   \   0000F8   75..80       MOV     ?V0 + 1,#-0x80
   \   0000FB   78..         MOV     R0,#?V0 + 0
   \   0000FD   12....       LCALL   ?PUSH_XSTACK_I_TWO
   \   000100   7903         MOV     R1,#0x3
   \   000102   12....       LCALL   ?Subroutine138 & 0xFFFF
   \                     ??CrossCallReturnLabel_251:
   \   000105   FA           MOV     R2,A
   \   000106   E5..         MOV     A,?V0 + 5
   \   000108   12....       LCALL   ??Subroutine218_0 & 0xFFFF
   \                     ??CrossCallReturnLabel_408:
   \   00010B   12....       LCALL   ?DEALLOC_XSTACK8
   1865          }
   \   00010E   7415         MOV     A,#0x15
   \   000110   02....       LJMP    ??Subroutine255_0 & 0xFFFF

   \                                 In  segment BANKED_CODE, align 1, keep-with-next
   \                     ??Subroutine226_0:
   \   000000   12....       LCALL   ?Subroutine185 & 0xFFFF
   \                     ??CrossCallReturnLabel_611:
   \   000003   22           RET

   \                                 In  segment BANKED_CODE, align 1, keep-with-next
   \                     ?Subroutine49:
   \   000000   12....       LCALL   ?Subroutine155 & 0xFFFF
   \                     ??CrossCallReturnLabel_591:
   \   000003   22           RET

   \                                 In  segment BANKED_CODE, align 1, keep-with-next
   \                     ?Subroutine155:
   \   000000   12....       LCALL   ?Subroutine190 & 0xFFFF
   \                     ??CrossCallReturnLabel_603:
   \   000003   A3           INC     DPTR
   \   000004   22           RET
   1866          
   1867          /*********************************************************************
   1868           * @fn          ZDO_ProcessDeviceAnnce
   1869           *
   1870           * @brief       This function processes a device annouce message.
   1871           *
   1872           * @param       inMsg - incoming message
   1873           *
   1874           * @return      none
   1875           */

   \                                 In  segment BANKED_CODE, align 1, keep-with-next
   \                     ?Subroutine107:
   \   000000   AC82         MOV     R4,DPL
   \   000002   AD83         MOV     R5,DPH
   \   000004                REQUIRE ??Subroutine213_0
   \   000004                ; // Fall through to label ??Subroutine213_0

   \                                 In  segment BANKED_CODE, align 1, keep-with-next
   \                     ??Subroutine213_0:
   \   000000   85..82       MOV     DPL,?XSP + 0
   \   000003   85..83       MOV     DPH,?XSP + 1
   \   000006                REQUIRE ??Subroutine214_0
   \   000006                ; // Fall through to label ??Subroutine214_0

   \                                 In  segment BANKED_CODE, align 1, keep-with-next
   1876          void ZDO_ProcessDeviceAnnce( zdoIncomingMsg_t *inMsg )
   \                     ZDO_ProcessDeviceAnnce:
   1877          {
   \   000000   74F6         MOV     A,#-0xa
   \   000002   12....       LCALL   ?BANKED_ENTER_XDATA
   \   000005                ; Saved register size: 10
   \   000005                ; Auto size: 32
   \   000005   74E0         MOV     A,#-0x20
   \   000007   12....       LCALL   ?ALLOC_XSTACK8
   \   00000A   EA           MOV     A,R2
   \   00000B   FE           MOV     R6,A
   \   00000C   EB           MOV     A,R3
   \   00000D   FF           MOV     R7,A
   1878            ZDO_DeviceAnnce_t Annce;
   1879            AddrMgrEntry_t addrEntry;
   1880            uint8 parentExt[Z_EXTADDR_LEN];
   1881          
   1882            // Parse incoming message
   1883            ZDO_ParseDeviceAnnce( inMsg, &Annce );
   \   00000E                ; Setup parameters for call to function ZDO_ParseDeviceAnnce
   \   00000E   85..82       MOV     DPL,?XSP + 0
   \   000011   85..83       MOV     DPH,?XSP + 1
   \   000014   AC82         MOV     R4,DPL
   \   000016   AD83         MOV     R5,DPH
   \   000018   12....       LCALL   ??ZDO_ParseDeviceAnnce?relay
   1884          
   1885            if ( ZSTACK_END_DEVICE_BUILD )
   1886            {
   1887              // Make sure the message didn't come from myself - end device only
   1888              if ( osal_ExtAddrEqual( NLME_GetExtAddr(), Annce.extAddr ) && Annce.nwkAddr == NLME_GetShortAddr() )
   1889              {
   1890                return;
   1891              }
   1892            }
   1893          
   1894          #if defined ( ZIGBEE_STOCHASTIC_ADDRESSING )
   1895            // Clean up the neighbor table
   1896            nwkNeighborRemoveAllStranded();
   \   00001B                ; Setup parameters for call to function nwkNeighborRemoveAllStranded
   \   00001B   12....       LCALL   ??nwkNeighborRemoveAllStranded?relay
   1897          
   1898            // If address conflict is detected, no need to update the address manager
   1899            if ( NLME_CheckNewAddrSet( Annce.nwkAddr, Annce.extAddr )== ZFailure )
   \   00001E                ; Setup parameters for call to function NLME_CheckNewAddrSet
   \   00001E   7402         MOV     A,#0x2
   \   000020   12....       LCALL   ?XSTACK_DISP0_8
   \   000023   12....       LCALL   ?Subroutine107 & 0xFFFF
   \                     ??CrossCallReturnLabel_392:
   \   000026   12....       LCALL   ??NLME_CheckNewAddrSet?relay
   \   000029   E9           MOV     A,R1
   \   00002A   6401         XRL     A,#0x1
   \   00002C   7003         JNZ     $+5
   \   00002E   02....       LJMP    ??ZDO_ProcessDeviceAnnce_0 & 0xFFFF
   1900            {
   1901              return;
   1902            }
   1903          #endif
   1904          
   1905          #if defined ( ZIGBEE_STOCHASTIC_ADDRESSING )
   1906            // Check for parent's address
   1907            NLME_GetCoordExtAddr( parentExt );
   \   000031                ; Setup parameters for call to function NLME_GetCoordExtAddr
   \   000031   7418         MOV     A,#0x18
   \   000033   12....       LCALL   ?XSTACK_DISP0_8
   \   000036   AA82         MOV     R2,DPL
   \   000038   AB83         MOV     R3,DPH
   \   00003A   12....       LCALL   ??NLME_GetCoordExtAddr?relay
   1908            if ( osal_ExtAddrEqual( parentExt, Annce.extAddr ) )
   \   00003D                ; Setup parameters for call to function sAddrExtCmp
   \   00003D   7402         MOV     A,#0x2
   \   00003F   12....       LCALL   ?XSTACK_DISP0_8
   \   000042   AC82         MOV     R4,DPL
   \   000044   AD83         MOV     R5,DPH
   \   000046   7418         MOV     A,#0x18
   \   000048   12....       LCALL   ?XSTACK_DISP0_8
   \   00004B   AA82         MOV     R2,DPL
   \   00004D   AB83         MOV     R3,DPH
   \   00004F   12....       LCALL   ??sAddrExtCmp?relay
   \   000052   E9           MOV     A,R1
   \   000053   6032         JZ      ??ZDO_ProcessDeviceAnnce_1
   1909            {
   1910              if ( Annce.nwkAddr != NLME_GetCoordShortAddr() )
   \   000055                ; Setup parameters for call to function NLME_GetCoordShortAddr
   \   000055   12....       LCALL   ??NLME_GetCoordShortAddr?relay
   \   000058   8A..         MOV     ?V0 + 0,R2
   \   00005A   8B..         MOV     ?V0 + 1,R3
   \   00005C   A8..         MOV     R0,?V0 + 0
   \   00005E   A9..         MOV     R1,?V0 + 1
   \   000060   85..82       MOV     DPL,?XSP + 0
   \   000063   85..83       MOV     DPH,?XSP + 1
   \   000066   E0           MOVX    A,@DPTR
   \   000067   68           XRL     A,R0
   \   000068   7003         JNZ     ??ZDO_ProcessDeviceAnnce_2
   \   00006A   A3           INC     DPTR
   \   00006B   E0           MOVX    A,@DPTR
   \   00006C   69           XRL     A,R1
   \                     ??ZDO_ProcessDeviceAnnce_2:
   \   00006D   6018         JZ      ??ZDO_ProcessDeviceAnnce_1
   1911              {
   1912                // Set the Parent's MAC's new short address
   1913                _NIB.nwkCoordAddress = Annce.nwkAddr;
   \   00006F   85..82       MOV     DPL,?XSP + 0
   \   000072   85..83       MOV     DPH,?XSP + 1
   \   000075   12....       LCALL   ??Subroutine221_0 & 0xFFFF
   \                     ??CrossCallReturnLabel_422:
   \   000078   90....       MOV     DPTR,#_NIB + 23
   \   00007B   12....       LCALL   ??Subroutine208_0 & 0xFFFF
   1914                ZMacSetReq( ZMacCoordShortAddress, (byte*)&(_NIB.nwkCoordAddress) );
   \                     ??CrossCallReturnLabel_371:
   \   00007E                ; Setup parameters for call to function ZMacSetReq
   \   00007E   7A..         MOV     R2,#(_NIB + 23) & 0xff
   \   000080   7B..         MOV     R3,#((_NIB + 23) >> 8) & 0xff
   \   000082   794B         MOV     R1,#0x4b
   \   000084   12....       LCALL   ??ZMacSetReq?relay
   1915              }
   1916            }
   1917          
   1918            if ( ZSTACK_ROUTER_BUILD )
   1919            {
   1920              // If the device annce comes from a end device child that has moved
   1921              // to another parent, remove it from associated device list
   1922          
   1923              // If the dev annce is coming from other device's children,
   1924              // (The dev annce from its own children shall be unicast to itself,
   1925              // So check the mac destination address)
   1926              // Remove it from the associated device list. If it is not
   1927              // a child, no action will be taken in AssocRemove() anyway.
   1928              if ( inMsg->macDestAddr != NLME_GetShortAddr() )
   \                     ??ZDO_ProcessDeviceAnnce_1:
   \   000087   EE           MOV     A,R6
   \   000088   2411         ADD     A,#0x11
   \   00008A   F582         MOV     DPL,A
   \   00008C   EF           MOV     A,R7
   \   00008D   12....       LCALL   ??Subroutine233_0 & 0xFFFF
   \                     ??CrossCallReturnLabel_518:
   \   000090   C082         PUSH    DPL
   \   000092   C083         PUSH    DPH
   \   000094                ; Setup parameters for call to function NLME_GetShortAddr
   \   000094   12....       LCALL   ??NLME_GetShortAddr?relay
   \   000097   8A..         MOV     ?V0 + 0,R2
   \   000099   8B..         MOV     ?V0 + 1,R3
   \   00009B   D083         POP     DPH
   \   00009D   D082         POP     DPL
   \   00009F   E0           MOVX    A,@DPTR
   \   0000A0   65..         XRL     A,?V0 + 0
   \   0000A2   7004         JNZ     ??ZDO_ProcessDeviceAnnce_3
   \   0000A4   A3           INC     DPTR
   \   0000A5   E0           MOVX    A,@DPTR
   \   0000A6   65..         XRL     A,?V0 + 1
   \                     ??ZDO_ProcessDeviceAnnce_3:
   \   0000A8   6032         JZ      ??ZDO_ProcessDeviceAnnce_4
   1929              {
   1930                associated_devices_t *dev_ptr;
   1931          
   1932                // If it's an end device child
   1933                dev_ptr = AssocGetWithExt( Annce.extAddr );
   \   0000AA                ; Setup parameters for call to function AssocGetWithExt
   \   0000AA   7402         MOV     A,#0x2
   \   0000AC   12....       LCALL   ?XSTACK_DISP0_8
   \   0000AF   AA82         MOV     R2,DPL
   \   0000B1   AB83         MOV     R3,DPH
   \   0000B3   12....       LCALL   ??AssocGetWithExt?relay
   \   0000B6   8A82         MOV     DPL,R2
   \   0000B8   8B83         MOV     DPH,R3
   1934                if ( dev_ptr )
   \   0000BA   E582         MOV     A,DPL
   \   0000BC   4583         ORL     A,DPH
   \   0000BE   601C         JZ      ??ZDO_ProcessDeviceAnnce_4
   1935                {
   1936                  if ( dev_ptr->nodeRelation == CHILD_RFD ||
   1937                       dev_ptr->nodeRelation == CHILD_RFD_RX_IDLE )
   \   0000C0   A3           INC     DPTR
   \   0000C1   A3           INC     DPTR
   \   0000C2   A3           INC     DPTR
   \   0000C3   A3           INC     DPTR
   \   0000C4   E0           MOVX    A,@DPTR
   \   0000C5   F8           MOV     R0,A
   \   0000C6   7401         MOV     A,#0x1
   \   0000C8   68           XRL     A,R0
   \   0000C9   6005         JZ      ??ZDO_ProcessDeviceAnnce_5
   \   0000CB   7402         MOV     A,#0x2
   \   0000CD   68           XRL     A,R0
   \   0000CE   700C         JNZ     ??ZDO_ProcessDeviceAnnce_4
   1938                  {
   1939                    AssocRemove( Annce.extAddr );
   \                     ??ZDO_ProcessDeviceAnnce_5:
   \   0000D0                ; Setup parameters for call to function AssocRemove
   \   0000D0   7402         MOV     A,#0x2
   \   0000D2   12....       LCALL   ?XSTACK_DISP0_8
   \   0000D5   AA82         MOV     R2,DPL
   \   0000D7   AB83         MOV     R3,DPH
   \   0000D9   12....       LCALL   ??AssocRemove?relay
   1940                  }
   1941                }
   1942              }
   1943          
   1944              if ( Annce.nwkAddr != NLME_GetShortAddr() )
   \                     ??ZDO_ProcessDeviceAnnce_4:
   \   0000DC                ; Setup parameters for call to function NLME_GetShortAddr
   \   0000DC   12....       LCALL   ??NLME_GetShortAddr?relay
   \   0000DF   8A..         MOV     ?V0 + 0,R2
   \   0000E1   8B..         MOV     ?V0 + 1,R3
   \   0000E3   A8..         MOV     R0,?V0 + 0
   \   0000E5   A9..         MOV     R1,?V0 + 1
   \   0000E7   85..82       MOV     DPL,?XSP + 0
   \   0000EA   85..83       MOV     DPH,?XSP + 1
   \   0000ED   E0           MOVX    A,@DPTR
   \   0000EE   68           XRL     A,R0
   \   0000EF   7003         JNZ     ??ZDO_ProcessDeviceAnnce_6
   \   0000F1   A3           INC     DPTR
   \   0000F2   E0           MOVX    A,@DPTR
   \   0000F3   69           XRL     A,R1
   \                     ??ZDO_ProcessDeviceAnnce_6:
   \   0000F4   6011         JZ      ??ZDO_ProcessDeviceAnnce_7
   1945              {
   1946                // If an associated device is found with matched extended Address,
   1947                // update its short address
   1948                if ( AssocChangeNwkAddr( Annce.nwkAddr, Annce.extAddr ) )
   \   0000F6                ; Setup parameters for call to function AssocChangeNwkAddr
   \   0000F6   7402         MOV     A,#0x2
   \   0000F8   12....       LCALL   ?XSTACK_DISP0_8
   \   0000FB   12....       LCALL   ?Subroutine107 & 0xFFFF
   \                     ??CrossCallReturnLabel_393:
   \   0000FE   12....       LCALL   ??AssocChangeNwkAddr?relay
   \   000101   E9           MOV     A,R1
   \   000102   6003         JZ      ??ZDO_ProcessDeviceAnnce_7
   1949                {
   1950                  // Set event to save NV
   1951                  ZDApp_NVUpdate();
   \   000104                ; Setup parameters for call to function ZDApp_NVUpdate
   \   000104   12....       LCALL   ??ZDApp_NVUpdate?relay
   1952                }
   1953              }
   1954            }
   1955          
   1956            // Update the neighbor table
   1957            nwkNeighborUpdateNwkAddr( Annce.nwkAddr, Annce.extAddr );
   \                     ??ZDO_ProcessDeviceAnnce_7:
   \   000107                ; Setup parameters for call to function nwkNeighborUpdateNwkAddr
   \   000107   7402         MOV     A,#0x2
   \   000109   12....       LCALL   ?XSTACK_DISP0_8
   \   00010C   12....       LCALL   ?Subroutine107 & 0xFFFF
   \                     ??CrossCallReturnLabel_394:
   \   00010F   12....       LCALL   ??nwkNeighborUpdateNwkAddr?relay
   1958          
   1959            // Assume that the device has moved, remove existing routing entries
   1960            RTG_RemoveRtgEntry( Annce.nwkAddr, 0 );
   \   000112                ; Setup parameters for call to function RTG_RemoveRtgEntry
   \   000112   7900         MOV     R1,#0x0
   \   000114   12....       LCALL   ??Subroutine213_0 & 0xFFFF
   \                     ??CrossCallReturnLabel_390:
   \   000117   12....       LCALL   ??RTG_RemoveRtgEntry?relay
   1961          
   1962          #endif // ZIGBEE_STOCHASTIC_ADDRESSING
   1963          
   1964            // Fill in the extended address in address manager if we don't have it already.
   1965            addrEntry.user = ADDRMGR_USER_DEFAULT;
   \   00011A   740B         MOV     A,#0xb
   \   00011C   12....       LCALL   ?XSTACK_DISP0_8
   \   00011F   E4           CLR     A
   \   000120   12....       LCALL   ?Subroutine32 & 0xFFFF
   1966            addrEntry.nwkAddr = Annce.nwkAddr;
   \                     ??CrossCallReturnLabel_43:
   \   000123   F8           MOV     R0,A
   \   000124   A3           INC     DPTR
   \   000125   E0           MOVX    A,@DPTR
   \   000126   F9           MOV     R1,A
   \   000127   740C         MOV     A,#0xc
   \   000129   12....       LCALL   ?XSTACK_DISP0_8
   \   00012C   12....       LCALL   ?Subroutine45 & 0xFFFF
   1967            if ( AddrMgrEntryLookupNwk( &addrEntry ) )
   \                     ??CrossCallReturnLabel_86:
   \   00012F   12....       LCALL   ?XSTACK_DISP0_8
   \   000132   AA82         MOV     R2,DPL
   \   000134   AB83         MOV     R3,DPH
   \   000136   12....       LCALL   ??AddrMgrEntryLookupNwk?relay
   \   000139   E9           MOV     A,R1
   \   00013A   604B         JZ      ??ZDO_ProcessDeviceAnnce_8
   1968            {
   1969              osal_memset( parentExt, 0, Z_EXTADDR_LEN );
   \   00013C                ; Setup parameters for call to function osal_memset
   \   00013C   7C08         MOV     R4,#0x8
   \   00013E   7D00         MOV     R5,#0x0
   \   000140   7900         MOV     R1,#0x0
   \   000142   7418         MOV     A,#0x18
   \   000144   12....       LCALL   ?XSTACK_DISP0_8
   \   000147   AA82         MOV     R2,DPL
   \   000149   AB83         MOV     R3,DPH
   \   00014B   12....       LCALL   ??osal_memset?relay
   1970              if ( osal_ExtAddrEqual( parentExt, addrEntry.extAddr ) )
   \   00014E                ; Setup parameters for call to function sAddrExtCmp
   \   00014E   740E         MOV     A,#0xe
   \   000150   12....       LCALL   ?XSTACK_DISP0_8
   \   000153   AC82         MOV     R4,DPL
   \   000155   AD83         MOV     R5,DPH
   \   000157   7418         MOV     A,#0x18
   \   000159   12....       LCALL   ?XSTACK_DISP0_8
   \   00015C   AA82         MOV     R2,DPL
   \   00015E   AB83         MOV     R3,DPH
   \   000160   12....       LCALL   ??sAddrExtCmp?relay
   \   000163   E9           MOV     A,R1
   \   000164   6021         JZ      ??ZDO_ProcessDeviceAnnce_8
   1971              {
   1972                AddrMgrExtAddrSet( addrEntry.extAddr, Annce.extAddr );
   \   000166                ; Setup parameters for call to function AddrMgrExtAddrSet
   \   000166   7402         MOV     A,#0x2
   \   000168   12....       LCALL   ?XSTACK_DISP0_8
   \   00016B   AC82         MOV     R4,DPL
   \   00016D   AD83         MOV     R5,DPH
   \   00016F   740E         MOV     A,#0xe
   \   000171   12....       LCALL   ?XSTACK_DISP0_8
   \   000174   AA82         MOV     R2,DPL
   \   000176   AB83         MOV     R3,DPH
   \   000178   12....       LCALL   ??AddrMgrExtAddrSet?relay
   1973                AddrMgrEntryUpdate( &addrEntry );
   \   00017B                ; Setup parameters for call to function AddrMgrEntryUpdate
   \   00017B   740B         MOV     A,#0xb
   \   00017D   12....       LCALL   ?XSTACK_DISP0_8
   \   000180   AA82         MOV     R2,DPL
   \   000182   AB83         MOV     R3,DPH
   \   000184   12....       LCALL   ??AddrMgrEntryUpdate?relay
   1974              }
   1975            }
   1976          
   1977            // Update the short address in address manager if it's been changed
   1978            AddrMgrExtAddrSet( addrEntry.extAddr, Annce.extAddr );
   \                     ??ZDO_ProcessDeviceAnnce_8:
   \   000187                ; Setup parameters for call to function AddrMgrExtAddrSet
   \   000187   7402         MOV     A,#0x2
   \   000189   12....       LCALL   ?XSTACK_DISP0_8
   \   00018C   AC82         MOV     R4,DPL
   \   00018E   AD83         MOV     R5,DPH
   \   000190   740E         MOV     A,#0xe
   \   000192   12....       LCALL   ?XSTACK_DISP0_8
   \   000195   AA82         MOV     R2,DPL
   \   000197   AB83         MOV     R3,DPH
   \   000199   12....       LCALL   ??AddrMgrExtAddrSet?relay
   1979            if ( AddrMgrEntryLookupExt( &addrEntry ) )
   \   00019C                ; Setup parameters for call to function AddrMgrEntryLookupExt
   \   00019C   740B         MOV     A,#0xb
   \   00019E   12....       LCALL   ?XSTACK_DISP0_8
   \   0001A1   AA82         MOV     R2,DPL
   \   0001A3   AB83         MOV     R3,DPH
   \   0001A5   12....       LCALL   ??AddrMgrEntryLookupExt?relay
   \   0001A8   E9           MOV     A,R1
   \   0001A9   6032         JZ      ??ZDO_ProcessDeviceAnnce_0
   1980            {
   1981              if ( addrEntry.nwkAddr != Annce.nwkAddr )
   \   0001AB   740C         MOV     A,#0xc
   \   0001AD   12....       LCALL   ?XSTACK_DISP0_8
   \   0001B0   12....       LCALL   ??Subroutine221_0 & 0xFFFF
   \                     ??CrossCallReturnLabel_423:
   \   0001B3   85..82       MOV     DPL,?XSP + 0
   \   0001B6   85..83       MOV     DPH,?XSP + 1
   \   0001B9   E0           MOVX    A,@DPTR
   \   0001BA   68           XRL     A,R0
   \   0001BB   7003         JNZ     ??ZDO_ProcessDeviceAnnce_9
   \   0001BD   A3           INC     DPTR
   \   0001BE   E0           MOVX    A,@DPTR
   \   0001BF   69           XRL     A,R1
   \                     ??ZDO_ProcessDeviceAnnce_9:
   \   0001C0   601B         JZ      ??ZDO_ProcessDeviceAnnce_0
   1982              {
   1983                addrEntry.nwkAddr = Annce.nwkAddr;
   \   0001C2   85..82       MOV     DPL,?XSP + 0
   \   0001C5   85..83       MOV     DPH,?XSP + 1
   \   0001C8   12....       LCALL   ??Subroutine221_0 & 0xFFFF
   1984                AddrMgrEntryUpdate( &addrEntry );
   1985              }
   1986            }
   \                     ??CrossCallReturnLabel_424:
   \   0001CB   740C         MOV     A,#0xc
   \   0001CD   12....       LCALL   ?XSTACK_DISP0_8
   \   0001D0   12....       LCALL   ?Subroutine45 & 0xFFFF
   \                     ??CrossCallReturnLabel_87:
   \   0001D3   12....       LCALL   ?XSTACK_DISP0_8
   \   0001D6   AA82         MOV     R2,DPL
   \   0001D8   AB83         MOV     R3,DPH
   \   0001DA   12....       LCALL   ??AddrMgrEntryUpdate?relay
   \                     ??ZDO_ProcessDeviceAnnce_0:
   \   0001DD   7420         MOV     A,#0x20
   \   0001DF   02....       LJMP    ??Subroutine200_0 & 0xFFFF
   1987          }
   1988          
   1989          /*********************************************************************
   1990           * @fn          ZDO_BuildSimpleDescBuf
   1991           *
   1992           * @brief       Build a byte sequence representation of a Simple Descriptor.
   1993           *
   1994           * @param       buf  - pointer to a byte array big enough for data.
   1995           * @param       desc - SimpleDescriptionFormat_t *
   1996           *
   1997           * @return      none
   1998           */

   \                                 In  segment BANKED_CODE, align 1, keep-with-next
   1999          void ZDO_BuildSimpleDescBuf( uint8 *buf, SimpleDescriptionFormat_t *desc )
   \                     ZDO_BuildSimpleDescBuf:
   2000          {
   \   000000   74F2         MOV     A,#-0xe
   \   000002   12....       LCALL   ?BANKED_ENTER_XDATA
   \   000005                ; Saved register size: 14
   \   000005                ; Auto size: 0
   2001            byte cnt;
   2002            uint16 *ptr;
   2003          
   2004            *buf++ = desc->EndPoint;
   \   000005   8C82         MOV     DPL,R4
   \   000007   8D83         MOV     DPH,R5
   \   000009   12....       LCALL   ?Subroutine97 & 0xFFFF
   2005            *buf++ = HI_UINT16( desc->AppProfId );
   \                     ??CrossCallReturnLabel_191:
   \   00000C   8C82         MOV     DPL,R4
   \   00000E   8D83         MOV     DPH,R5
   \   000010   A3           INC     DPTR
   \   000011   A882         MOV     R0,DPL
   \   000013   A983         MOV     R1,DPH
   \   000015   12....       LCALL   ?Subroutine20 & 0xFFFF
   2006            *buf++ = LO_UINT16( desc->AppProfId );
   2007            *buf++ = HI_UINT16( desc->AppDeviceId );
   \                     ??CrossCallReturnLabel_23:
   \   000018   EC           MOV     A,R4
   \   000019   2403         ADD     A,#0x3
   \   00001B   F8           MOV     R0,A
   \   00001C   ED           MOV     A,R5
   \   00001D   3400         ADDC    A,#0x0
   \   00001F   F9           MOV     R1,A
   \   000020   8882         MOV     DPL,R0
   \   000022   8983         MOV     DPH,R1
   \   000024   12....       LCALL   ?Subroutine20 & 0xFFFF
   2008            *buf++ = LO_UINT16( desc->AppDeviceId );
   2009          
   2010            *buf++ = (byte)(desc->AppDevVer << 4);
   \                     ??CrossCallReturnLabel_24:
   \   000027   8C82         MOV     DPL,R4
   \   000029   8D83         MOV     DPH,R5
   \   00002B   A3           INC     DPTR
   \   00002C   A3           INC     DPTR
   \   00002D   A3           INC     DPTR
   \   00002E   A3           INC     DPTR
   \   00002F   A3           INC     DPTR
   \   000030   E0           MOVX    A,@DPTR
   \   000031   C4           SWAP    A
   \   000032   54F0         ANL     A,#0xf0
   \   000034   12....       LCALL   ??Subroutine222_0 & 0xFFFF
   2011          
   2012            *buf++ = desc->AppNumInClusters;
   \                     ??CrossCallReturnLabel_432:
   \   000037   EC           MOV     A,R4
   \   000038   2406         ADD     A,#0x6
   \   00003A   12....       LCALL   ?Subroutine127 & 0xFFFF
   \                     ??CrossCallReturnLabel_552:
   \   00003D   12....       LCALL   ?Subroutine116 & 0xFFFF
   \                     ??CrossCallReturnLabel_224:
   \   000040   12....       LCALL   ??Subroutine223_0 & 0xFFFF
   2013            ptr = desc->pAppInClusterList;
   \                     ??CrossCallReturnLabel_431:
   \   000043   8C82         MOV     DPL,R4
   \   000045   8D83         MOV     DPH,R5
   \   000047   12....       LCALL   ?Subroutine120 & 0xFFFF
   2014            for ( cnt = 0; cnt < desc->AppNumInClusters; ptr++, cnt++ )
   \                     ??CrossCallReturnLabel_231:
   \   00004A   800B         SJMP    ??CrossCallReturnLabel_32
   2015            {
   2016              *buf++ = HI_UINT16( *ptr );
   \                     ??ZDO_BuildSimpleDescBuf_0:
   \   00004C   8E82         MOV     DPL,R6
   \   00004E   8F83         MOV     DPH,R7
   \   000050   A3           INC     DPTR
   \   000051   12....       LCALL   ?Subroutine103 & 0xFFFF
   2017              *buf++ = LO_UINT16( *ptr );
   \                     ??CrossCallReturnLabel_199:
   \   000054   12....       LCALL   ?Subroutine27 & 0xFFFF
   2018            }
   \                     ??CrossCallReturnLabel_32:
   \   000057   8A82         MOV     DPL,R2
   \   000059   8B83         MOV     DPH,R3
   \   00005B   A3           INC     DPTR
   \   00005C   A882         MOV     R0,DPL
   \   00005E   A983         MOV     R1,DPH
   \   000060   85..82       MOV     DPL,?V0 + 2
   \   000063   85..83       MOV     DPH,?V0 + 3
   \   000066   E0           MOVX    A,@DPTR
   \   000067   F5..         MOV     ?V0 + 1,A
   \   000069   E5..         MOV     A,?V0 + 0
   \   00006B   C3           CLR     C
   \   00006C   95..         SUBB    A,?V0 + 1
   \   00006E   40DC         JC      ??ZDO_BuildSimpleDescBuf_0
   2019          
   2020            *buf++ = desc->AppNumOutClusters;
   \   000070   EC           MOV     A,R4
   \   000071   2409         ADD     A,#0x9
   \   000073   12....       LCALL   ?Subroutine127 & 0xFFFF
   \                     ??CrossCallReturnLabel_553:
   \   000076   12....       LCALL   ?Subroutine103 & 0xFFFF
   2021            ptr = desc->pAppOutClusterList;
   \                     ??CrossCallReturnLabel_200:
   \   000079   8C82         MOV     DPL,R4
   \   00007B   8D83         MOV     DPH,R5
   \   00007D   A3           INC     DPTR
   \   00007E   A3           INC     DPTR
   \   00007F   A3           INC     DPTR
   \   000080   12....       LCALL   ?Subroutine120 & 0xFFFF
   2022            for ( cnt = 0; cnt < desc->AppNumOutClusters; ptr++, cnt++ )
   \                     ??CrossCallReturnLabel_232:
   \   000083   800B         SJMP    ??CrossCallReturnLabel_33
   2023            {
   2024              *buf++ = HI_UINT16( *ptr );
   \                     ??ZDO_BuildSimpleDescBuf_1:
   \   000085   8E82         MOV     DPL,R6
   \   000087   8F83         MOV     DPH,R7
   \   000089   A3           INC     DPTR
   \   00008A   12....       LCALL   ?Subroutine97 & 0xFFFF
   2025              *buf++ = LO_UINT16( *ptr );
   \                     ??CrossCallReturnLabel_192:
   \   00008D   12....       LCALL   ?Subroutine27 & 0xFFFF
   2026            }
   \                     ??CrossCallReturnLabel_33:
   \   000090   85..82       MOV     DPL,?V0 + 2
   \   000093   85..83       MOV     DPH,?V0 + 3
   \   000096   E0           MOVX    A,@DPTR
   \   000097   F8           MOV     R0,A
   \   000098   E5..         MOV     A,?V0 + 0
   \   00009A   C3           CLR     C
   \   00009B   98           SUBB    A,R0
   \   00009C   40E7         JC      ??ZDO_BuildSimpleDescBuf_1
   2027          }
   \   00009E   02....       LJMP    ??Subroutine256_0 & 0xFFFF

   \                                 In  segment BANKED_CODE, align 1, keep-with-next
   \                     ?Subroutine120:
   \   000000   A3           INC     DPTR
   \   000001   A3           INC     DPTR
   \   000002   A3           INC     DPTR
   \   000003   A3           INC     DPTR
   \   000004   A3           INC     DPTR
   \   000005   A3           INC     DPTR
   \   000006   A3           INC     DPTR
   \   000007   12....       LCALL   ??Subroutine230_0 & 0xFFFF
   \                     ??CrossCallReturnLabel_492:
   \   00000A   75..00       MOV     ?V0 + 0,#0x0
   \   00000D   22           RET

   \                                 In  segment BANKED_CODE, align 1, keep-with-next
   \                     ?Subroutine103:
   \   000000   E0           MOVX    A,@DPTR
   \   000001   8A82         MOV     DPL,R2
   \   000003   8B83         MOV     DPH,R3
   \   000005   F0           MOVX    @DPTR,A
   \   000006   E8           MOV     A,R0
   \   000007   FA           MOV     R2,A
   \   000008   E9           MOV     A,R1
   \   000009   FB           MOV     R3,A
   \   00000A   22           RET

   \                                 In  segment BANKED_CODE, align 1, keep-with-next
   \                     ?Subroutine97:
   \   000000   E0           MOVX    A,@DPTR
   \   000001   8A82         MOV     DPL,R2
   \   000003   8B83         MOV     DPH,R3
   \   000005   F0           MOVX    @DPTR,A
   \   000006   A3           INC     DPTR
   \   000007   AA82         MOV     R2,DPL
   \   000009   AB83         MOV     R3,DPH
   \   00000B   22           RET

   \                                 In  segment BANKED_CODE, align 1, keep-with-next
   \                     ?Subroutine27:
   \   000000   8E82         MOV     DPL,R6
   \   000002   8F83         MOV     DPH,R7
   \   000004   12....       LCALL   ?Subroutine151 & 0xFFFF
   \                     ??CrossCallReturnLabel_435:
   \   000007   12....       LCALL   ?Subroutine182 & 0xFFFF
   \                     ??CrossCallReturnLabel_309:
   \   00000A   05..         INC     ?V0 + 0
   \   00000C   22           RET

   \                                 In  segment BANKED_CODE, align 1, keep-with-next
   \                     ?Subroutine20:
   \   000000   A3           INC     DPTR
   \   000001   12....       LCALL   ?Subroutine151 & 0xFFFF
   \                     ??CrossCallReturnLabel_433:
   \   000004   8882         MOV     DPL,R0
   \   000006   8983         MOV     DPH,R1
   \   000008   12....       LCALL   ?Subroutine151 & 0xFFFF
   \                     ??CrossCallReturnLabel_434:
   \   00000B   22           RET

   \                                 In  segment BANKED_CODE, align 1, keep-with-next
   \                     ?Subroutine151:
   \   000000   E0           MOVX    A,@DPTR
   \   000001                REQUIRE ??Subroutine222_0
   \   000001                ; // Fall through to label ??Subroutine222_0

   \                                 In  segment BANKED_CODE, align 1, keep-with-next
   \                     ??Subroutine222_0:
   \   000000   8A82         MOV     DPL,R2
   \   000002   8B83         MOV     DPH,R3
   \   000004                REQUIRE ??Subroutine223_0
   \   000004                ; // Fall through to label ??Subroutine223_0

   \                                 In  segment BANKED_CODE, align 1, keep-with-next
   \                     ??Subroutine223_0:
   \   000000   F0           MOVX    @DPTR,A
   \   000001   A3           INC     DPTR
   \   000002   0A           INC     R2
   \   000003   AB83         MOV     R3,DPH
   \   000005   22           RET

   \                                 In  segment BANKED_CODE, align 1, keep-with-next
   \                     ?Subroutine127:
   \   000000   F5..         MOV     ?V0 + 2,A
   \   000002   ED           MOV     A,R5
   \   000003                REQUIRE ??Subroutine234_0
   \   000003                ; // Fall through to label ??Subroutine234_0

   \                                 In  segment BANKED_CODE, align 1, keep-with-next
   \                     ?Subroutine182:
   \   000000   12....       LCALL   ?Subroutine197 & 0xFFFF
   \                     ??CrossCallReturnLabel_649:
   \   000003   22           RET

   \                                 In  segment BANKED_CODE, align 1, keep-with-next
   \                     ?Subroutine197:
   \   000000   EE           MOV     A,R6
   \   000001   2402         ADD     A,#0x2
   \   000003   0E           INC     R6
   \   000004   0E           INC     R6
   \   000005   EF           MOV     A,R7
   \   000006   3400         ADDC    A,#0x0
   \   000008   FF           MOV     R7,A
   \   000009   22           RET
   2028          
   2029          /*********************************************************************
   2030           * @fn      ZDO_MatchEndDeviceBind()
   2031           *
   2032           * @brief
   2033           *
   2034           *   Called to match end device binding requests
   2035           *
   2036           * @param  bindReq  - binding request information
   2037           * @param  SecurityUse - Security enable/disable
   2038           *
   2039           * @return  none
   2040           */

   \                                 In  segment BANKED_CODE, align 1, keep-with-next
   \                     ?Subroutine102:
   \   000000   85..82       MOV     DPL,?V0 + 6
   \   000003   85..83       MOV     DPH,?V0 + 7
   \   000006                REQUIRE ??Subroutine220_0
   \   000006                ; // Fall through to label ??Subroutine220_0

   \                                 In  segment BANKED_CODE, align 1, keep-with-next
   2041          void ZDO_MatchEndDeviceBind( ZDEndDeviceBind_t *bindReq )
   \                     ZDO_MatchEndDeviceBind:
   2042          {
   \   000000   74F0         MOV     A,#-0x10
   \   000002   12....       LCALL   ?BANKED_ENTER_XDATA
   \   000005                ; Saved register size: 16
   \   000005                ; Auto size: 10
   \   000005   74F6         MOV     A,#-0xa
   \   000007   12....       LCALL   ?ALLOC_XSTACK8
   \   00000A   8A..         MOV     ?V0 + 6,R2
   \   00000C   8B..         MOV     ?V0 + 7,R3
   2043            zAddrType_t dstAddr;
   2044            uint8 sendRsp = FALSE;
   \   00000E   7E00         MOV     R6,#0x0
   2045            uint8 status;
   2046          
   2047            // Is this the first request?
   2048            if ( matchED == NULL )
   \   000010   90....       MOV     DPTR,#matchED
   \   000013   12....       LCALL   ??Subroutine225_0 & 0xFFFF
   \                     ??CrossCallReturnLabel_451:
   \   000016   7045         JNZ     ??ZDO_MatchEndDeviceBind_0
   2049            {
   2050              // Create match info structure
   2051              matchED = (ZDMatchEndDeviceBind_t *)osal_mem_alloc( sizeof ( ZDMatchEndDeviceBind_t ) );
   \   000018                ; Setup parameters for call to function osal_mem_alloc
   \   000018   7A37         MOV     R2,#0x37
   \   00001A   7B00         MOV     R3,#0x0
   \   00001C   12....       LCALL   ??osal_mem_alloc?relay
   \   00001F   90....       MOV     DPTR,#matchED
   \   000022   12....       LCALL   ?Subroutine39 & 0xFFFF
   2052              if ( matchED )
   \                     ??CrossCallReturnLabel_69:
   \   000025   90....       MOV     DPTR,#matchED
   \   000028   12....       LCALL   ??Subroutine225_0 & 0xFFFF
   \                     ??CrossCallReturnLabel_452:
   \   00002B   6019         JZ      ??ZDO_MatchEndDeviceBind_1
   2053              {
   2054                // Clear the structure
   2055                osal_memset( (uint8 *)matchED, 0, sizeof ( ZDMatchEndDeviceBind_t ) );
   \   00002D                ; Setup parameters for call to function osal_memset
   \   00002D   7C37         MOV     R4,#0x37
   \   00002F   7D00         MOV     R5,#0x0
   \   000031   7900         MOV     R1,#0x0
   \   000033   12....       LCALL   ??osal_memset?relay
   2056          
   2057                // Copy the first request's information
   2058                if ( !ZDO_CopyMatchInfo( &(matchED->ed1), bindReq ) )
   \   000036                ; Setup parameters for call to function ZDO_CopyMatchInfo
   \   000036   AC..         MOV     R4,?V0 + 6
   \   000038   AD..         MOV     R5,?V0 + 7
   \   00003A   90....       MOV     DPTR,#matchED
   \   00003D   12....       LCALL   ??Subroutine214_0 & 0xFFFF
   \                     ??CrossCallReturnLabel_388:
   \   000040   12....       LCALL   ??ZDO_CopyMatchInfo?relay
   \   000043   E9           MOV     A,R1
   \   000044   700B         JNZ     ??ZDO_MatchEndDeviceBind_2
   2059                {
   2060                  status = ZDP_NO_ENTRY;
   \                     ??ZDO_MatchEndDeviceBind_1:
   \   000046   85..82       MOV     DPL,?XSP + 0
   \   000049   85..83       MOV     DPH,?XSP + 1
   \   00004C   7488         MOV     A,#-0x78
   \   00004E   02....       LJMP    ??ZDO_MatchEndDeviceBind_3 & 0xFFFF
   2061                  sendRsp = TRUE;
   2062                }
   2063              }
   2064              else
   2065              {
   2066                status = ZDP_NO_ENTRY;
   2067                sendRsp = TRUE;
   2068              }
   2069          
   2070              if ( !sendRsp )
   2071              {
   2072                // Set into the correct state
   2073                matchED->state = ZDMATCH_WAIT_REQ;
   \                     ??ZDO_MatchEndDeviceBind_2:
   \   000051   12....       LCALL   ?Subroutine93 & 0xFFFF
   \                     ??CrossCallReturnLabel_482:
   \   000054   7401         MOV     A,#0x1
   \   000056   F0           MOVX    @DPTR,A
   2074          
   2075                // Setup the timeout
   2076                APS_SetEndDeviceBindTimeout( AIB_MaxBindingTime, ZDO_EndDeviceBindMatchTimeoutCB );
   \   000057                ; Setup parameters for call to function APS_SetEndDeviceBindTimeout
   \   000057   12....       LCALL   ?Subroutine106 & 0xFFFF
   2077              }
   2078            }
   \                     ??CrossCallReturnLabel_205:
   \   00005A   02....       LJMP    ??ZDO_MatchEndDeviceBind_4 & 0xFFFF
   2079            else
   2080            {
   2081                matchED->state = ZDMATCH_SENDING_BINDS;
   \                     ??ZDO_MatchEndDeviceBind_0:
   \   00005D   12....       LCALL   ?Subroutine93 & 0xFFFF
   \                     ??CrossCallReturnLabel_483:
   \   000060   7402         MOV     A,#0x2
   \   000062   F0           MOVX    @DPTR,A
   2082          
   2083                // Copy the 2nd request's information
   2084                if ( !ZDO_CopyMatchInfo( &(matchED->ed2), bindReq ) )
   \   000063                ; Setup parameters for call to function ZDO_CopyMatchInfo
   \   000063   AC..         MOV     R4,?V0 + 6
   \   000065   AD..         MOV     R5,?V0 + 7
   \   000067   12....       LCALL   ?Subroutine118 & 0xFFFF
   \                     ??CrossCallReturnLabel_229:
   \   00006A   12....       LCALL   ??ZDO_CopyMatchInfo?relay
   \   00006D   E9           MOV     A,R1
   \   00006E   700A         JNZ     ??ZDO_MatchEndDeviceBind_5
   2085                {
   2086                  status = ZDP_NO_ENTRY;
   \   000070   85..82       MOV     DPL,?XSP + 0
   \   000073   85..83       MOV     DPH,?XSP + 1
   \   000076   7488         MOV     A,#-0x78
   \   000078   F0           MOVX    @DPTR,A
   2087                  sendRsp = TRUE;
   \   000079   0E           INC     R6
   2088                }
   2089          
   2090                // Make a source match for ed1
   2091                matchED->ed1numMatched = ZDO_CompareClusterLists(
   2092                            matchED->ed1.numOutClusters, matchED->ed1.outClusters,
   2093                            matchED->ed2.numInClusters, matchED->ed2.inClusters, ZDOBuildBuf );
   \                     ??ZDO_MatchEndDeviceBind_5:
   \   00007A                ; Setup parameters for call to function ZDO_CompareClusterLists
   \   00007A   75....       MOV     ?V0 + 0,#ZDOBuildBuf & 0xff
   \   00007D   75....       MOV     ?V0 + 1,#(ZDOBuildBuf >> 8) & 0xff
   \   000080   78..         MOV     R0,#?V0 + 0
   \   000082   12....       LCALL   ?PUSH_XSTACK_I_TWO
   \   000085   90....       MOV     DPTR,#matchED
   \   000088   E0           MOVX    A,@DPTR
   \   000089   2429         ADD     A,#0x29
   \   00008B   12....       LCALL   ??Subroutine229_0 & 0xFFFF
   \                     ??CrossCallReturnLabel_477:
   \   00008E   12....       LCALL   ?PUSH_XSTACK8_X_TWO
   \   000091   90....       MOV     DPTR,#matchED
   \   000094   E0           MOVX    A,@DPTR
   \   000095   2428         ADD     A,#0x28
   \   000097   12....       LCALL   ?Subroutine87 & 0xFFFF
   \                     ??CrossCallReturnLabel_176:
   \   00009A   2415         ADD     A,#0x15
   \   00009C   12....       LCALL   ?Subroutine79 & 0xFFFF
   \                     ??CrossCallReturnLabel_160:
   \   00009F   2414         ADD     A,#0x14
   \   0000A1   12....       LCALL   ?Subroutine86 & 0xFFFF
   \                     ??CrossCallReturnLabel_174:
   \   0000A4   12....       LCALL   ?DEALLOC_XSTACK8
   \   0000A7   E9           MOV     A,R1
   \   0000A8   C0E0         PUSH    A
   \   0000AA   90....       MOV     DPTR,#matchED
   \   0000AD   E0           MOVX    A,@DPTR
   \   0000AE   2431         ADD     A,#0x31
   \   0000B0   12....       LCALL   ??Subroutine229_0 & 0xFFFF
   \                     ??CrossCallReturnLabel_478:
   \   0000B3   D0E0         POP     A
   \   0000B5   F0           MOVX    @DPTR,A
   2094                if ( matchED->ed1numMatched )
   \   0000B6   12....       LCALL   ?Subroutine58 & 0xFFFF
   \                     ??CrossCallReturnLabel_116:
   \   0000B9   75..00       MOV     ?V0 + 2,#0x0
   \   0000BC   6025         JZ      ??ZDO_MatchEndDeviceBind_6
   2095                {
   2096                  // Save the match list
   2097                  matchED->ed1Matched = osal_mem_alloc( (short)(matchED->ed1numMatched * sizeof ( uint16 )) );
   \   0000BE                ; Setup parameters for call to function osal_mem_alloc
   \   0000BE   12....       LCALL   ?Subroutine142 & 0xFFFF
   \                     ??CrossCallReturnLabel_256:
   \   0000C1   2432         ADD     A,#0x32
   \   0000C3   12....       LCALL   ?Subroutine28 & 0xFFFF
   2098                  if ( matchED->ed1Matched )
   \                     ??CrossCallReturnLabel_34:
   \   0000C6   6010         JZ      ??ZDO_MatchEndDeviceBind_7
   2099                  {
   2100                    osal_memcpy( matchED->ed1Matched, ZDOBuildBuf, (matchED->ed1numMatched * sizeof ( uint16 )) );
   \   0000C8                ; Setup parameters for call to function osal_memcpy
   \   0000C8   78..         MOV     R0,#?V0 + 0
   \   0000CA   12....       LCALL   ?PUSH_XSTACK_I_THREE
   \   0000CD   12....       LCALL   ?Subroutine58 & 0xFFFF
   2101                  }
   \                     ??CrossCallReturnLabel_117:
   \   0000D0   12....       LCALL   ?Subroutine143 & 0xFFFF
   \                     ??CrossCallReturnLabel_463:
   \   0000D3   12....       LCALL   ?DEALLOC_XSTACK8
   \   0000D6   800B         SJMP    ??ZDO_MatchEndDeviceBind_6
   2102                  else
   2103                  {
   2104                    // Allocation error, stop
   2105                    status = ZDP_NO_ENTRY;
   \                     ??ZDO_MatchEndDeviceBind_7:
   \   0000D8   85..82       MOV     DPL,?XSP + 0
   \   0000DB   85..83       MOV     DPH,?XSP + 1
   \   0000DE   7488         MOV     A,#-0x78
   \   0000E0   F0           MOVX    @DPTR,A
   2106                    sendRsp = TRUE;
   \   0000E1   7E01         MOV     R6,#0x1
   2107                  }
   2108                }
   2109          
   2110                // Make a source match for ed2
   2111                matchED->ed2numMatched = ZDO_CompareClusterLists(
   2112                            matchED->ed2.numOutClusters, matchED->ed2.outClusters,
   2113                            matchED->ed1.numInClusters, matchED->ed1.inClusters, ZDOBuildBuf );
   \                     ??ZDO_MatchEndDeviceBind_6:
   \   0000E3                ; Setup parameters for call to function ZDO_CompareClusterLists
   \   0000E3   75....       MOV     ?V0 + 4,#ZDOBuildBuf & 0xff
   \   0000E6   75....       MOV     ?V0 + 5,#(ZDOBuildBuf >> 8) & 0xff
   \   0000E9   78..         MOV     R0,#?V0 + 4
   \   0000EB   12....       LCALL   ?PUSH_XSTACK_I_TWO
   \   0000EE   90....       MOV     DPTR,#matchED
   \   0000F1   E0           MOVX    A,@DPTR
   \   0000F2   2412         ADD     A,#0x12
   \   0000F4   12....       LCALL   ??Subroutine229_0 & 0xFFFF
   \                     ??CrossCallReturnLabel_479:
   \   0000F7   12....       LCALL   ?PUSH_XSTACK8_X_TWO
   \   0000FA   90....       MOV     DPTR,#matchED
   \   0000FD   E0           MOVX    A,@DPTR
   \   0000FE   2411         ADD     A,#0x11
   \   000100   12....       LCALL   ?Subroutine87 & 0xFFFF
   \                     ??CrossCallReturnLabel_177:
   \   000103   242C         ADD     A,#0x2c
   \   000105   12....       LCALL   ?Subroutine79 & 0xFFFF
   \                     ??CrossCallReturnLabel_161:
   \   000108   242B         ADD     A,#0x2b
   \   00010A   12....       LCALL   ?Subroutine86 & 0xFFFF
   \                     ??CrossCallReturnLabel_175:
   \   00010D   12....       LCALL   ?DEALLOC_XSTACK8
   \   000110   E9           MOV     A,R1
   \   000111   C0E0         PUSH    A
   \   000113   90....       MOV     DPTR,#matchED
   \   000116   E0           MOVX    A,@DPTR
   \   000117   2434         ADD     A,#0x34
   \   000119   12....       LCALL   ??Subroutine229_0 & 0xFFFF
   \                     ??CrossCallReturnLabel_480:
   \   00011C   D0E0         POP     A
   \   00011E   F0           MOVX    @DPTR,A
   2114                if ( matchED->ed2numMatched )
   \   00011F   12....       LCALL   ?Subroutine64 & 0xFFFF
   \                     ??CrossCallReturnLabel_437:
   \   000122   6018         JZ      ??ZDO_MatchEndDeviceBind_8
   2115                {
   2116                  // Save the match list
   2117                  matchED->ed2Matched = osal_mem_alloc( (short)(matchED->ed2numMatched * sizeof ( uint16 )) );
   \   000124                ; Setup parameters for call to function osal_mem_alloc
   \   000124   12....       LCALL   ?Subroutine142 & 0xFFFF
   \                     ??CrossCallReturnLabel_257:
   \   000127   2435         ADD     A,#0x35
   \   000129   12....       LCALL   ?Subroutine28 & 0xFFFF
   2118                  if ( matchED->ed2Matched )
   \                     ??CrossCallReturnLabel_35:
   \   00012C   6029         JZ      ??ZDO_MatchEndDeviceBind_9
   2119                  {
   2120                    osal_memcpy( matchED->ed2Matched, ZDOBuildBuf, (matchED->ed2numMatched * sizeof ( uint16 )) );
   \   00012E                ; Setup parameters for call to function osal_memcpy
   \   00012E   78..         MOV     R0,#?V0 + 0
   \   000130   12....       LCALL   ?PUSH_XSTACK_I_THREE
   \   000133   12....       LCALL   ?Subroutine64 & 0xFFFF
   2121                  }
   \                     ??CrossCallReturnLabel_438:
   \   000136   12....       LCALL   ?Subroutine143 & 0xFFFF
   \                     ??CrossCallReturnLabel_464:
   \   000139   12....       LCALL   ?DEALLOC_XSTACK8
   2122                  else
   2123                  {
   2124                    // Allocation error, stop
   2125                    status = ZDP_NO_ENTRY;
   2126                    sendRsp = TRUE;
   2127                  }
   2128                }
   2129          
   2130                if ( (sendRsp == FALSE) && (matchED->ed1numMatched || matchED->ed2numMatched) )
   \                     ??ZDO_MatchEndDeviceBind_8:
   \   00013C   EE           MOV     A,R6
   \   00013D   A2E0         MOV     C,0xE0 /* A   */.0
   \   00013F   401F         JC      ??ZDO_MatchEndDeviceBind_10
   \   000141   12....       LCALL   ?Subroutine58 & 0xFFFF
   \                     ??CrossCallReturnLabel_118:
   \   000144   7005         JNZ     ??ZDO_MatchEndDeviceBind_11
   \   000146   12....       LCALL   ?Subroutine81 & 0xFFFF
   \                     ??CrossCallReturnLabel_164:
   \   000149   6015         JZ      ??ZDO_MatchEndDeviceBind_10
   2131                {
   2132                  // Do the first unbind/bind state
   2133                  ZDMatchSendState( ZDMATCH_REASON_START, ZDP_SUCCESS, 0 );
   \                     ??ZDO_MatchEndDeviceBind_11:
   \   00014B                ; Setup parameters for call to function ZDMatchSendState
   \   00014B   7B00         MOV     R3,#0x0
   \   00014D   7A00         MOV     R2,#0x0
   \   00014F   7900         MOV     R1,#0x0
   \   000151   12....       LCALL   ??ZDMatchSendState?relay
   2134                }
   2135                else
   2136                {
   2137                  status = ZDP_NO_MATCH;
   2138                  sendRsp = TRUE;
   2139                }
   2140            }
   2141          
   2142            if ( sendRsp )
   \   000154   02....       LJMP    ??ZDO_MatchEndDeviceBind_4 & 0xFFFF
   \                     ??ZDO_MatchEndDeviceBind_9:
   \   000157   85..82       MOV     DPL,?XSP + 0
   \   00015A   85..83       MOV     DPH,?XSP + 1
   \   00015D   7488         MOV     A,#-0x78
   \   00015F   F0           MOVX    @DPTR,A
   \                     ??ZDO_MatchEndDeviceBind_10:
   \   000160   85..82       MOV     DPL,?XSP + 0
   \   000163   85..83       MOV     DPH,?XSP + 1
   \   000166   7486         MOV     A,#-0x7a
   \                     ??ZDO_MatchEndDeviceBind_3:
   \   000168   F0           MOVX    @DPTR,A
   2143            {
   2144              // send response to this requester
   2145              dstAddr.addrMode = Addr16Bit;
   \   000169   7409         MOV     A,#0x9
   \   00016B   12....       LCALL   ?XSTACK_DISP0_8
   \   00016E   7402         MOV     A,#0x2
   \   000170   F0           MOVX    @DPTR,A
   2146              dstAddr.addr.shortAddr = bindReq->srcAddr;
   \   000171   12....       LCALL   ?Subroutine102 & 0xFFFF
   \                     ??CrossCallReturnLabel_429:
   \   000174   7401         MOV     A,#0x1
   \   000176   12....       LCALL   ?XSTACK_DISP0_8
   \   000179   12....       LCALL   ??Subroutine208_0 & 0xFFFF
   2147              ZDP_EndDeviceBindRsp( bindReq->TransSeq, &dstAddr, status, bindReq->SecurityUse );
   \                     ??CrossCallReturnLabel_372:
   \   00017C                ; Setup parameters for call to function ZDP_SendData
   \   00017C   85..82       MOV     DPL,?V0 + 6
   \   00017F   85..83       MOV     DPH,?V0 + 7
   \   000182   A3           INC     DPTR
   \   000183   E0           MOVX    A,@DPTR
   \   000184   F5..         MOV     ?V0 + 0,A
   \   000186   78..         MOV     R0,#?V0 + 0
   \   000188   12....       LCALL   ?PUSH_XSTACK_I_ONE
   \   00018B   7401         MOV     A,#0x1
   \   00018D   12....       LCALL   ?XSTACK_DISP0_8
   \   000190   8582..       MOV     ?V0 + 0,DPL
   \   000193   8583..       MOV     ?V0 + 1,DPH
   \   000196   78..         MOV     R0,#?V0 + 0
   \   000198   12....       LCALL   ?PUSH_XSTACK_I_TWO
   \   00019B   75..20       MOV     ?V0 + 0,#0x20
   \   00019E   75..80       MOV     ?V0 + 1,#-0x80
   \   0001A1   78..         MOV     R0,#?V0 + 0
   \   0001A3   12....       LCALL   ?PUSH_XSTACK_I_TWO
   \   0001A6   7901         MOV     R1,#0x1
   \   0001A8   7406         MOV     A,#0x6
   \   0001AA   12....       LCALL   ?XSTACK_DISP0_8
   \   0001AD   AC82         MOV     R4,DPL
   \   0001AF   AD83         MOV     R5,DPH
   \   0001B1   AA..         MOV     R2,?V0 + 6
   \   0001B3   AB..         MOV     R3,?V0 + 7
   \   0001B5   12....       LCALL   ?Subroutine184 & 0xFFFF
   \                     ??CrossCallReturnLabel_411:
   \   0001B8   12....       LCALL   ?DEALLOC_XSTACK8
   2148          
   2149              if ( matchED->state == ZDMATCH_SENDING_BINDS )
   \   0001BB   12....       LCALL   ?Subroutine80 & 0xFFFF
   \                     ??CrossCallReturnLabel_162:
   \   0001BE   7044         JNZ     ??ZDO_MatchEndDeviceBind_12
   2150              {
   2151                // send response to first requester
   2152                dstAddr.addrMode = Addr16Bit;
   \   0001C0   7409         MOV     A,#0x9
   \   0001C2   12....       LCALL   ?XSTACK_DISP0_8
   \   0001C5   7402         MOV     A,#0x2
   \   0001C7   12....       LCALL   ?Subroutine51 & 0xFFFF
   2153                dstAddr.addr.shortAddr = matchED->ed1.srcAddr;
   2154                ZDP_EndDeviceBindRsp( matchED->ed1.TransSeq, &dstAddr, status, matchED->ed1.SecurityUse );
   2155              }
   \                     ??CrossCallReturnLabel_98:
   \   0001CA   F583         MOV     DPH,A
   \   0001CC   8882         MOV     DPL,R0
   \   0001CE   12....       LCALL   ??Subroutine220_0 & 0xFFFF
   \                     ??CrossCallReturnLabel_427:
   \   0001D1   7401         MOV     A,#0x1
   \   0001D3   12....       LCALL   ?XSTACK_DISP0_8
   \   0001D6   12....       LCALL   ?Subroutine15 & 0xFFFF
   \                     ??CrossCallReturnLabel_13:
   \   0001D9   12....       LCALL   ?PUSH_XSTACK_I_ONE
   \   0001DC   7401         MOV     A,#0x1
   \   0001DE   12....       LCALL   ?XSTACK_DISP0_8
   \   0001E1   8582..       MOV     ?V0 + 0,DPL
   \   0001E4   8583..       MOV     ?V0 + 1,DPH
   \   0001E7   78..         MOV     R0,#?V0 + 0
   \   0001E9   12....       LCALL   ?PUSH_XSTACK_I_TWO
   \   0001EC   75..20       MOV     ?V0 + 0,#0x20
   \   0001EF   75..80       MOV     ?V0 + 1,#-0x80
   \   0001F2   78..         MOV     R0,#?V0 + 0
   \   0001F4   12....       LCALL   ?PUSH_XSTACK_I_TWO
   \   0001F7   7901         MOV     R1,#0x1
   \   0001F9   7406         MOV     A,#0x6
   \   0001FB   12....       LCALL   ?XSTACK_DISP0_8
   \   0001FE   12....       LCALL   ?Subroutine99 & 0xFFFF
   \                     ??CrossCallReturnLabel_193:
   \   000201   12....       LCALL   ?DEALLOC_XSTACK8
   2156          
   2157              // Process ended - release memory used
   2158              ZDO_RemoveMatchMemory();
   \                     ??ZDO_MatchEndDeviceBind_12:
   \   000204                ; Setup parameters for call to function ZDO_RemoveMatchMemory
   \   000204   12....       LCALL   ??ZDO_RemoveMatchMemory?relay
   2159            }
   2160          }
   \                     ??ZDO_MatchEndDeviceBind_4:
   \   000207   740A         MOV     A,#0xa
   \   000209   02....       LJMP    ?Subroutine6 & 0xFFFF

   \                                 In  segment BANKED_CODE, align 1, keep-with-next
   \                     ?Subroutine142:
   \   000000   C3           CLR     C
   \   000001   33           RLC     A
   \   000002   FA           MOV     R2,A
   \   000003   E4           CLR     A
   \   000004   33           RLC     A
   \   000005   FB           MOV     R3,A
   \   000006   12....       LCALL   ??osal_mem_alloc?relay
   \   000009   8A..         MOV     ?V0 + 4,R2
   \   00000B   8B..         MOV     ?V0 + 5,R3
   \   00000D   90....       MOV     DPTR,#matchED
   \   000010   E0           MOVX    A,@DPTR
   \   000011   22           RET

   \                                 In  segment BANKED_CODE, align 1, keep-with-next
   \                     ?Subroutine87:
   \   000000   12....       LCALL   ?Subroutine164 & 0xFFFF
   \                     ??CrossCallReturnLabel_502:
   \   000003   FC           MOV     R4,A
   \   000004   90....       MOV     DPTR,#matchED
   \   000007   E0           MOVX    A,@DPTR
   \   000008   22           RET

   \                                 In  segment BANKED_CODE, align 1, keep-with-next
   \                     ?Subroutine86:
   \   000000   18           DEC     R0
   \   000001   12....       LCALL   ??Subroutine210_0 & 0xFFFF
   \                     ??CrossCallReturnLabel_378:
   \   000004   12....       LCALL   ??ZDO_CompareClusterLists?relay
   \   000007   7404         MOV     A,#0x4
   \   000009   22           RET

   \                                 In  segment BANKED_CODE, align 1, keep-with-next
   \                     ?Subroutine79:
   \   000000   12....       LCALL   ?Subroutine163 & 0xFFFF
   \                     ??CrossCallReturnLabel_285:
   \   000003   90....       MOV     DPTR,#matchED
   \   000006   E0           MOVX    A,@DPTR
   \   000007   22           RET

   \                                 In  segment BANKED_CODE, align 1, keep-with-next
   \                     ?Subroutine64:
   \   000000   90....       MOV     DPTR,#matchED
   \   000003                REQUIRE ??Subroutine224_0
   \   000003                ; // Fall through to label ??Subroutine224_0

   \                                 In  segment BANKED_CODE, align 1, keep-with-next
   \                     ??Subroutine224_0:
   \   000000   E0           MOVX    A,@DPTR
   \   000001   2434         ADD     A,#0x34
   \   000003   12....       LCALL   ?Subroutine164 & 0xFFFF
   \                     ??CrossCallReturnLabel_504:
   \   000006   22           RET

   \                                 In  segment BANKED_CODE, align 1, keep-with-next
   \                     ?Subroutine28:
   \   000000   12....       LCALL   ?Subroutine176 & 0xFFFF
   \                     ??CrossCallReturnLabel_294:
   \   000003   E5..         MOV     A,?V0 + 4
   \   000005   F0           MOVX    @DPTR,A
   \   000006   A3           INC     DPTR
   \   000007   E5..         MOV     A,?V0 + 5
   \   000009   F0           MOVX    @DPTR,A
   \   00000A   12....       LCALL   ?Subroutine165 & 0xFFFF
   \                     ??CrossCallReturnLabel_473:
   \   00000D   EA           MOV     A,R2
   \   00000E   4B           ORL     A,R3
   \   00000F   22           RET

   \                                 In  segment BANKED_CODE, align 1, keep-with-next
   \                     ?Subroutine143:
   \   000000   C3           CLR     C
   \   000001   33           RLC     A
   \   000002   FC           MOV     R4,A
   \   000003   E4           CLR     A
   \   000004   33           RLC     A
   \   000005   FD           MOV     R5,A
   \   000006                REQUIRE ??Subroutine226_0
   \   000006                ; // Fall through to label ??Subroutine226_0

   \                                 In  segment BANKED_CODE, align 1, keep-with-next
   \                     ?Subroutine118:
   \   000000   90....       MOV     DPTR,#matchED
   \   000003   E0           MOVX    A,@DPTR
   \   000004   2417         ADD     A,#0x17
   \   000006   FA           MOV     R2,A
   \   000007   A3           INC     DPTR
   \   000008   E0           MOVX    A,@DPTR
   \   000009   3400         ADDC    A,#0x0
   \   00000B   FB           MOV     R3,A
   \   00000C   22           RET

   \                                 In  segment BANKED_CODE, align 1, keep-with-next
   \                     ?Subroutine106:
   \   000000   7C..         MOV     R4,#??ZDO_EndDeviceBindMatchTimeoutCB?relay & 0xff
   \   000002   7D..         MOV     R5,#(??ZDO_EndDeviceBindMatchTimeoutCB?relay >> 8) & 0xff
   \   000004   90....       MOV     DPTR,#AIB_MaxBindingTime
   \   000007   12....       LCALL   ??Subroutine228_0 & 0xFFFF
   \                     ??CrossCallReturnLabel_472:
   \   00000A   12....       LCALL   ??APS_SetEndDeviceBindTimeout?relay
   \   00000D   22           RET

   \                                 In  segment BANKED_CODE, align 1, keep-with-next
   \                     ?Subroutine99:
   \   000000   AC82         MOV     R4,DPL
   \   000002   AD83         MOV     R5,DPH
   \   000004   90....       MOV     DPTR,#matchED
   \   000007   12....       LCALL   ??Subroutine228_0 & 0xFFFF
   \                     ??CrossCallReturnLabel_471:
   \   00000A   12....       LCALL   ?Subroutine184 & 0xFFFF
   \                     ??CrossCallReturnLabel_413:
   \   00000D   22           RET

   \                                 In  segment BANKED_CODE, align 1, keep-with-next
   \                     ?Subroutine93:
   \   000000   90....       MOV     DPTR,#matchED
   \   000003   E0           MOVX    A,@DPTR
   \   000004   242E         ADD     A,#0x2e
   \   000006                REQUIRE ??Subroutine229_0
   \   000006                ; // Fall through to label ??Subroutine229_0

   \                                 In  segment BANKED_CODE, align 1, keep-with-next
   \                     ??Subroutine229_0:
   \   000000   12....       LCALL   ?Subroutine175 & 0xFFFF
   \                     ??CrossCallReturnLabel_485:
   \   000003   22           RET

   \                                 In  segment BANKED_CODE, align 1, keep-with-next
   \                     ?Subroutine81:
   \   000000   90....       MOV     DPTR,#matchED
   \   000003   E0           MOVX    A,@DPTR
   \   000004   2434         ADD     A,#0x34
   \   000006   08           INC     R0
   \   000007   08           INC     R0
   \   000008   08           INC     R0
   \   000009   12....       LCALL   ??Subroutine231_0 & 0xFFFF
   \                     ??CrossCallReturnLabel_496:
   \   00000C   22           RET

   \                                 In  segment BANKED_CODE, align 1, keep-with-next
   \                     ?Subroutine80:
   \   000000   90....       MOV     DPTR,#matchED
   \   000003   E0           MOVX    A,@DPTR
   \   000004   242E         ADD     A,#0x2e
   \   000006   12....       LCALL   ?Subroutine164 & 0xFFFF
   \                     ??CrossCallReturnLabel_500:
   \   000009   6402         XRL     A,#0x2
   \   00000B   22           RET

   \                                 In  segment BANKED_CODE, align 1, keep-with-next
   \                     ?Subroutine176:
   \   000000   FA           MOV     R2,A
   \   000001   A3           INC     DPTR
   \   000002   E0           MOVX    A,@DPTR
   \   000003   3400         ADDC    A,#0x0
   \   000005   FB           MOV     R3,A
   \   000006   8A82         MOV     DPL,R2
   \   000008   8B83         MOV     DPH,R3
   \   00000A   22           RET

   \                                 In  segment BANKED_CODE, align 1, keep-with-next
   \                     ?Subroutine58:
   \   000000   90....       MOV     DPTR,#matchED
   \   000003   E0           MOVX    A,@DPTR
   \   000004   2431         ADD     A,#0x31
   \   000006   12....       LCALL   ?Subroutine164 & 0xFFFF
   \                     ??CrossCallReturnLabel_498:
   \   000009   22           RET

   \                                 In  segment BANKED_CODE, align 1, keep-with-next
   \                     ?Subroutine51:
   \   000000   12....       LCALL   ?Subroutine157 & 0xFFFF
   \                     ??CrossCallReturnLabel_280:
   \   000003   22           RET

   \                                 In  segment BANKED_CODE, align 1, keep-with-next
   \                     ?Subroutine157:
   \   000000   F0           MOVX    @DPTR,A
   \   000001                ; Setup parameters for call to function ZDP_SendData
   \   000001                ; Setup parameters for call to function ZDP_SendData
   \   000001   90....       MOV     DPTR,#matchED
   \   000004   E0           MOVX    A,@DPTR
   \   000005   F8           MOV     R0,A
   \   000006   A3           INC     DPTR
   \   000007   E0           MOVX    A,@DPTR
   \   000008   22           RET

   \                                 In  segment BANKED_CODE, align 1, keep-with-next
   \                     ?Subroutine15:
   \   000000   E8           MOV     A,R0
   \   000001   F0           MOVX    @DPTR,A
   \   000002   A3           INC     DPTR
   \   000003   E9           MOV     A,R1
   \   000004   12....       LCALL   ?Subroutine157 & 0xFFFF
   \                     ??CrossCallReturnLabel_281:
   \   000007   F583         MOV     DPH,A
   \   000009   8882         MOV     DPL,R0
   \   00000B   A3           INC     DPTR
   \   00000C   E0           MOVX    A,@DPTR
   \   00000D   F5..         MOV     ?V0 + 0,A
   \   00000F   78..         MOV     R0,#?V0 + 0
   \   000011   22           RET
   2161          
   2162          /*********************************************************************
   2163           * @fn      ZDO_RemoveMatchMemory()
   2164           *
   2165           * @brief   Called to clear the memory used for the end device bind.
   2166           *
   2167           * @param  none
   2168           *
   2169           * @return  none
   2170           */

   \                                 In  segment BANKED_CODE, align 1, keep-with-next
   2171          static void ZDO_RemoveMatchMemory( void )
   \                     ZDO_RemoveMatchMemory:
   2172          {
   \   000000   C082         PUSH    DPL
   \   000002   C083         PUSH    DPH
   \   000004                ; Saved register size: 2
   \   000004                ; Auto size: 0
   2173            if ( matchED != NULL )
   \   000004   90....       MOV     DPTR,#matchED
   \   000007   12....       LCALL   ??Subroutine225_0 & 0xFFFF
   \                     ??CrossCallReturnLabel_453:
   \   00000A   6061         JZ      ??ZDO_RemoveMatchMemory_0
   2174            {
   2175              if ( matchED->ed2Matched != NULL )
   \   00000C   90....       MOV     DPTR,#matchED
   \   00000F   E0           MOVX    A,@DPTR
   \   000010   2435         ADD     A,#0x35
   \   000012   12....       LCALL   ?Subroutine54 & 0xFFFF
   \                     ??CrossCallReturnLabel_104:
   \   000015   6003         JZ      ??ZDO_RemoveMatchMemory_1
   2176              {
   2177                osal_mem_free( matchED->ed2Matched );
   \   000017                ; Setup parameters for call to function osal_mem_free
   \   000017   12....       LCALL   ??osal_mem_free?relay
   2178              }
   2179              if ( matchED->ed1Matched != NULL )
   \                     ??ZDO_RemoveMatchMemory_1:
   \   00001A   90....       MOV     DPTR,#matchED
   \   00001D   E0           MOVX    A,@DPTR
   \   00001E   2432         ADD     A,#0x32
   \   000020   12....       LCALL   ?Subroutine54 & 0xFFFF
   \                     ??CrossCallReturnLabel_105:
   \   000023   6003         JZ      ??ZDO_RemoveMatchMemory_2
   2180              {
   2181                osal_mem_free( matchED->ed1Matched );
   \   000025                ; Setup parameters for call to function osal_mem_free
   \   000025   12....       LCALL   ??osal_mem_free?relay
   2182              }
   2183              if ( matchED->ed1.inClusters != NULL )
   \                     ??ZDO_RemoveMatchMemory_2:
   \   000028   90....       MOV     DPTR,#matchED
   \   00002B   E0           MOVX    A,@DPTR
   \   00002C   2412         ADD     A,#0x12
   \   00002E   12....       LCALL   ?Subroutine54 & 0xFFFF
   \                     ??CrossCallReturnLabel_106:
   \   000031   6003         JZ      ??ZDO_RemoveMatchMemory_3
   2184              {
   2185                osal_mem_free( matchED->ed1.inClusters );
   \   000033                ; Setup parameters for call to function osal_mem_free
   \   000033   12....       LCALL   ??osal_mem_free?relay
   2186              }
   2187              if ( matchED->ed1.outClusters != NULL )
   \                     ??ZDO_RemoveMatchMemory_3:
   \   000036   90....       MOV     DPTR,#matchED
   \   000039   E0           MOVX    A,@DPTR
   \   00003A   2415         ADD     A,#0x15
   \   00003C   12....       LCALL   ?Subroutine54 & 0xFFFF
   \                     ??CrossCallReturnLabel_107:
   \   00003F   6003         JZ      ??ZDO_RemoveMatchMemory_4
   2188              {
   2189                osal_mem_free( matchED->ed1.outClusters );
   \   000041                ; Setup parameters for call to function osal_mem_free
   \   000041   12....       LCALL   ??osal_mem_free?relay
   2190              }
   2191              if ( matchED->ed2.inClusters != NULL )
   \                     ??ZDO_RemoveMatchMemory_4:
   \   000044   90....       MOV     DPTR,#matchED
   \   000047   E0           MOVX    A,@DPTR
   \   000048   2429         ADD     A,#0x29
   \   00004A   12....       LCALL   ?Subroutine54 & 0xFFFF
   \                     ??CrossCallReturnLabel_108:
   \   00004D   6003         JZ      ??ZDO_RemoveMatchMemory_5
   2192              {
   2193                osal_mem_free( matchED->ed2.inClusters );
   \   00004F                ; Setup parameters for call to function osal_mem_free
   \   00004F   12....       LCALL   ??osal_mem_free?relay
   2194              }
   2195              if ( matchED->ed2.outClusters != NULL )
   \                     ??ZDO_RemoveMatchMemory_5:
   \   000052   90....       MOV     DPTR,#matchED
   \   000055   E0           MOVX    A,@DPTR
   \   000056   242C         ADD     A,#0x2c
   \   000058   12....       LCALL   ?Subroutine54 & 0xFFFF
   \                     ??CrossCallReturnLabel_109:
   \   00005B   6003         JZ      ??ZDO_RemoveMatchMemory_6
   2196              {
   2197                osal_mem_free( matchED->ed2.outClusters );
   \   00005D                ; Setup parameters for call to function osal_mem_free
   \   00005D   12....       LCALL   ??osal_mem_free?relay
   2198              }
   2199          
   2200              osal_mem_free( matchED );
   \                     ??ZDO_RemoveMatchMemory_6:
   \   000060                ; Setup parameters for call to function osal_mem_free
   \   000060   90....       MOV     DPTR,#matchED
   \   000063   12....       LCALL   ?Subroutine59 & 0xFFFF
   2201              matchED = (ZDMatchEndDeviceBind_t *)NULL;
   \                     ??CrossCallReturnLabel_125:
   \   000066   90....       MOV     DPTR,#matchED
   \   000069   E4           CLR     A
   \   00006A   F0           MOVX    @DPTR,A
   \   00006B   A3           INC     DPTR
   \   00006C   F0           MOVX    @DPTR,A
   2202            }
   2203          }
   \                     ??ZDO_RemoveMatchMemory_0:
   \   00006D                REQUIRE ?Subroutine0
   \   00006D                ; // Fall through to label ?Subroutine0
   2204          
   2205          /*********************************************************************
   2206           * @fn      ZDO_CopyMatchInfo()
   2207           *
   2208           * @brief   Called to copy memory used for the end device bind.
   2209           *
   2210           * @param  srcReq - source information
   2211           * @param  dstReq - destination location
   2212           *
   2213           * @return  TRUE if copy was successful.
   2214           */

   \                                 In  segment BANKED_CODE, align 1, keep-with-next
   2215          static uint8 ZDO_CopyMatchInfo( ZDEndDeviceBind_t *destReq, ZDEndDeviceBind_t *srcReq )
   \                     ZDO_CopyMatchInfo:
   2216          {
   \   000000   74F0         MOV     A,#-0x10
   \   000002   12....       LCALL   ?BANKED_ENTER_XDATA
   \   000005                ; Saved register size: 16
   \   000005                ; Auto size: 0
   \   000005   8A..         MOV     ?V0 + 4,R2
   \   000007   8B..         MOV     ?V0 + 5,R3
   \   000009   8C..         MOV     ?V0 + 6,R4
   \   00000B   8D..         MOV     ?V0 + 7,R5
   2217            uint8 allOK = TRUE;
   \   00000D   7E01         MOV     R6,#0x1
   2218          
   2219            // Copy bind information into the match info structure
   2220            osal_memcpy( (uint8 *)destReq, srcReq, sizeof ( ZDEndDeviceBind_t ) );
   \   00000F                ; Setup parameters for call to function osal_memcpy
   \   00000F   8C..         MOV     ?V0 + 0,R4
   \   000011   8D..         MOV     ?V0 + 1,R5
   \   000013   75..00       MOV     ?V0 + 2,#0x0
   \   000016   78..         MOV     R0,#?V0 + 0
   \   000018   12....       LCALL   ?PUSH_XSTACK_I_THREE
   \   00001B   7C17         MOV     R4,#0x17
   \   00001D   7D00         MOV     R5,#0x0
   \   00001F   12....       LCALL   ??Subroutine226_0 & 0xFFFF
   \                     ??CrossCallReturnLabel_466:
   \   000022   12....       LCALL   ?DEALLOC_XSTACK8
   \   000025   12....       LCALL   ?Subroutine144 & 0xFFFF
   \                     ??CrossCallReturnLabel_258:
   \   000028   12....       LCALL   ??Subroutine233_0 & 0xFFFF
   \                     ??CrossCallReturnLabel_519:
   \   00002B   E4           CLR     A
   \   00002C   F0           MOVX    @DPTR,A
   \   00002D   A3           INC     DPTR
   \   00002E   12....       LCALL   ?Subroutine34 & 0xFFFF
   \                     ??CrossCallReturnLabel_48:
   \   000031   E4           CLR     A
   \   000032   F0           MOVX    @DPTR,A
   \   000033   A3           INC     DPTR
   \   000034   F0           MOVX    @DPTR,A
   \   000035   E5..         MOV     A,?V0 + 6
   \   000037   2411         ADD     A,#0x11
   \   000039   F582         MOV     DPL,A
   \   00003B   E5..         MOV     A,?V0 + 7
   \   00003D   12....       LCALL   ??Subroutine238_0 & 0xFFFF
   \                     ??CrossCallReturnLabel_568:
   \   000040   6033         JZ      ??ZDO_CopyMatchInfo_0
   2221          
   2222            // Initialize the destination cluster pointers
   2223            destReq->inClusters = NULL;
   2224            destReq->outClusters = NULL;
   2225          
   2226            // Copy input cluster IDs
   2227            if ( srcReq->numInClusters )
   2228            {
   2229              destReq->inClusters = osal_mem_alloc( (short)(srcReq->numInClusters * sizeof ( uint16 )) );
   \   000042                ; Setup parameters for call to function osal_mem_alloc
   \   000042   C3           CLR     C
   \   000043   33           RLC     A
   \   000044   FA           MOV     R2,A
   \   000045   E4           CLR     A
   \   000046   33           RLC     A
   \   000047   FB           MOV     R3,A
   \   000048   12....       LCALL   ??osal_mem_alloc?relay
   \   00004B   12....       LCALL   ?Subroutine144 & 0xFFFF
   \                     ??CrossCallReturnLabel_259:
   \   00004E   12....       LCALL   ??Subroutine233_0 & 0xFFFF
   \                     ??CrossCallReturnLabel_520:
   \   000051   12....       LCALL   ?Subroutine39 & 0xFFFF
   2230              if ( destReq->inClusters )
   \                     ??CrossCallReturnLabel_70:
   \   000054   12....       LCALL   ?Subroutine144 & 0xFFFF
   \                     ??CrossCallReturnLabel_260:
   \   000057   12....       LCALL   ??Subroutine238_0 & 0xFFFF
   \                     ??CrossCallReturnLabel_569:
   \   00005A   FA           MOV     R2,A
   \   00005B   4B           ORL     A,R3
   \   00005C   6016         JZ      ??ZDO_CopyMatchInfo_1
   2231              {
   2232                // Copy the clusters
   2233                osal_memcpy( (uint8*)(destReq->inClusters), (uint8 *)(srcReq->inClusters),
   2234                                (srcReq->numInClusters * sizeof ( uint16 )) );
   \   00005E                ; Setup parameters for call to function osal_memcpy
   \   00005E   E5..         MOV     A,?V0 + 6
   \   000060   2412         ADD     A,#0x12
   \   000062   12....       LCALL   ?Subroutine108 & 0xFFFF
   2235              }
   \                     ??CrossCallReturnLabel_207:
   \   000065   12....       LCALL   ?PUSH_XSTACK_I_THREE
   \   000068   E5..         MOV     A,?V0 + 6
   \   00006A   2411         ADD     A,#0x11
   \   00006C   12....       LCALL   ?Subroutine94 & 0xFFFF
   \                     ??CrossCallReturnLabel_187:
   \   00006F   12....       LCALL   ?DEALLOC_XSTACK8
   \   000072   8001         SJMP    ??ZDO_CopyMatchInfo_0
   2236              else
   2237              {
   2238                allOK = FALSE;
   \                     ??ZDO_CopyMatchInfo_1:
   \   000074   1E           DEC     R6
   \                     ??ZDO_CopyMatchInfo_0:
   \   000075   E5..         MOV     A,?V0 + 6
   \   000077   2414         ADD     A,#0x14
   \   000079   F582         MOV     DPL,A
   \   00007B   E5..         MOV     A,?V0 + 7
   2239              }
   2240            }
   \   00007D   12....       LCALL   ??Subroutine238_0 & 0xFFFF
   \                     ??CrossCallReturnLabel_570:
   \   000080   6030         JZ      ??ZDO_CopyMatchInfo_2
   2241          
   2242            // Copy output cluster IDs
   2243            if ( srcReq->numOutClusters )
   2244            {
   2245              destReq->outClusters = osal_mem_alloc( (short)(srcReq->numOutClusters * sizeof ( uint16 )) );
   \   000082                ; Setup parameters for call to function osal_mem_alloc
   \   000082   C3           CLR     C
   \   000083   33           RLC     A
   \   000084   FA           MOV     R2,A
   \   000085   E4           CLR     A
   \   000086   33           RLC     A
   \   000087   FB           MOV     R3,A
   \   000088   12....       LCALL   ??osal_mem_alloc?relay
   \   00008B   E5..         MOV     A,?V0 + 4
   \   00008D   2415         ADD     A,#0x15
   \   00008F   F582         MOV     DPL,A
   \   000091   E5..         MOV     A,?V0 + 5
   \   000093   12....       LCALL   ?Subroutine136 & 0xFFFF
   \                     ??CrossCallReturnLabel_248:
   \   000096   12....       LCALL   ?Subroutine34 & 0xFFFF
   2246              if ( destReq->outClusters )
   \                     ??CrossCallReturnLabel_47:
   \   000099   E0           MOVX    A,@DPTR
   \   00009A   FA           MOV     R2,A
   \   00009B   4B           ORL     A,R3
   \   00009C   6036         JZ      ??ZDO_CopyMatchInfo_3
   2247              {
   2248                // Copy the clusters
   2249                osal_memcpy( (uint8 *)(destReq->outClusters), (uint8 *)(srcReq->outClusters),
   2250                                (srcReq->numOutClusters * sizeof ( uint16 )) );
   \   00009E                ; Setup parameters for call to function osal_memcpy
   \   00009E   E5..         MOV     A,?V0 + 6
   \   0000A0   2415         ADD     A,#0x15
   \   0000A2   12....       LCALL   ?Subroutine108 & 0xFFFF
   2251              }
   \                     ??CrossCallReturnLabel_208:
   \   0000A5   12....       LCALL   ?PUSH_XSTACK_I_THREE
   \   0000A8   E5..         MOV     A,?V0 + 6
   \   0000AA   2414         ADD     A,#0x14
   \   0000AC   12....       LCALL   ?Subroutine94 & 0xFFFF
   \                     ??CrossCallReturnLabel_188:
   \   0000AF   12....       LCALL   ?DEALLOC_XSTACK8
   2252              else
   2253              {
   2254                allOK = FALSE;
   2255              }
   2256            }
   2257          
   2258            if ( allOK == FALSE )
   \                     ??ZDO_CopyMatchInfo_2:
   \   0000B2   EE           MOV     A,R6
   \   0000B3   A2E0         MOV     C,0xE0 /* A   */.0
   \   0000B5   4018         JC      ??ZDO_CopyMatchInfo_4
   2259            {
   2260              if ( destReq->inClusters != NULL )
   \                     ??ZDO_CopyMatchInfo_5:
   \   0000B7   E5..         MOV     A,?V0 + 4
   \   0000B9   2412         ADD     A,#0x12
   \   0000BB   12....       LCALL   ?Subroutine95 & 0xFFFF
   \                     ??CrossCallReturnLabel_468:
   \   0000BE   6003         JZ      ??ZDO_CopyMatchInfo_6
   2261              {
   2262                osal_mem_free( destReq->inClusters );
   \   0000C0                ; Setup parameters for call to function osal_mem_free
   \   0000C0   12....       LCALL   ??osal_mem_free?relay
   2263              }
   2264              if ( destReq->outClusters != NULL )
   \                     ??ZDO_CopyMatchInfo_6:
   \   0000C3   E5..         MOV     A,?V0 + 4
   \   0000C5   2415         ADD     A,#0x15
   \   0000C7   12....       LCALL   ?Subroutine95 & 0xFFFF
   \                     ??CrossCallReturnLabel_469:
   \   0000CA   6003         JZ      ??ZDO_CopyMatchInfo_4
   2265              {
   2266                osal_mem_free( destReq->outClusters );
   \   0000CC                ; Setup parameters for call to function osal_mem_free
   \   0000CC   12....       LCALL   ??osal_mem_free?relay
   2267              }
   2268            }
   2269          
   2270            return ( allOK );
   \                     ??ZDO_CopyMatchInfo_4:
   \   0000CF   EE           MOV     A,R6
   \   0000D0   F9           MOV     R1,A
   \   0000D1   02....       LJMP    ??Subroutine211_0 & 0xFFFF
   \                     ??ZDO_CopyMatchInfo_3:
   \   0000D4   7E00         MOV     R6,#0x0
   \   0000D6   80DF         SJMP    ??ZDO_CopyMatchInfo_5
   2271          }

   \                                 In  segment BANKED_CODE, align 1, keep-with-next
   \                     ?Subroutine144:
   \   000000   E5..         MOV     A,?V0 + 4
   \   000002   2412         ADD     A,#0x12
   \   000004   F582         MOV     DPL,A
   \   000006   E5..         MOV     A,?V0 + 5
   \   000008   22           RET

   \                                 In  segment BANKED_CODE, align 1, keep-with-next
   \                     ?Subroutine108:
   \   000000   F582         MOV     DPL,A
   \   000002   E5..         MOV     A,?V0 + 7
   \   000004   12....       LCALL   ??Subroutine212_0 & 0xFFFF
   \                     ??CrossCallReturnLabel_541:
   \   000007   12....       LCALL   ?Subroutine166 & 0xFFFF
   \                     ??CrossCallReturnLabel_331:
   \   00000A   78..         MOV     R0,#?V0 + 0
   \   00000C   22           RET

   \                                 In  segment BANKED_CODE, align 1, keep-with-next
   \                     ?Subroutine95:
   \   000000   F582         MOV     DPL,A
   \   000002   E5..         MOV     A,?V0 + 5
   \   000004   12....       LCALL   ??Subroutine212_0 & 0xFFFF
   \                     ??CrossCallReturnLabel_540:
   \   000007                REQUIRE ??Subroutine227_0
   \   000007                ; // Fall through to label ??Subroutine227_0

   \                                 In  segment BANKED_CODE, align 1, keep-with-next
   \                     ??Subroutine227_0:
   \   000000   12....       LCALL   ??Subroutine228_0 & 0xFFFF
   \                     ??CrossCallReturnLabel_476:
   \   000003   EA           MOV     A,R2
   \   000004   4B           ORL     A,R3
   \   000005   22           RET

   \                                 In  segment BANKED_CODE, align 1, keep-with-next
   \                     ?Subroutine94:
   \   000000   F582         MOV     DPL,A
   \   000002   E5..         MOV     A,?V0 + 7
   \   000004   12....       LCALL   ??Subroutine239_0 & 0xFFFF
   \                     ??CrossCallReturnLabel_577:
   \   000007   C3           CLR     C
   \   000008   33           RLC     A
   \   000009   FC           MOV     R4,A
   \   00000A   E4           CLR     A
   \   00000B   33           RLC     A
   \   00000C   FD           MOV     R5,A
   \   00000D   12....       LCALL   ?Subroutine185 & 0xFFFF
   \                     ??CrossCallReturnLabel_612:
   \   000010   22           RET

   \                                 In  segment BANKED_CODE, align 1, keep-with-next
   \                     ?Subroutine34:
   \   000000   F0           MOVX    @DPTR,A
   \   000001   E5..         MOV     A,?V0 + 4
   \   000003   2415         ADD     A,#0x15
   \   000005   F582         MOV     DPL,A
   \   000007   E5..         MOV     A,?V0 + 5
   \   000009   12....       LCALL   ??Subroutine212_0 & 0xFFFF
   \                     ??CrossCallReturnLabel_539:
   \   00000C   22           RET

   \                                 In  segment BANKED_CODE, align 1, keep-with-next
   \                     ?Subroutine136:
   \   000000   12....       LCALL   ??Subroutine212_0 & 0xFFFF
   \                     ??CrossCallReturnLabel_544:
   \   000003   EA           MOV     A,R2
   \   000004   F0           MOVX    @DPTR,A
   \   000005   A3           INC     DPTR
   \   000006   EB           MOV     A,R3
   \   000007   22           RET
   2272          
   2273          /*********************************************************************
   2274           * @fn      ZDMatchSendState()
   2275           *
   2276           * @brief   State machine for the End device match message algorithm.
   2277           *
   2278           * @param  reason - state of algoritm
   2279           * @param  status - initial message status
   2280           * @param  TransSeq - next transaction sequence number
   2281           *
   2282           * @return  FALSE if error and we are not currently matching, TRUE
   2283           *          if success.
   2284           */

   \                                 In  segment BANKED_CODE, align 1, keep-with-next
   2285          uint8 ZDMatchSendState( uint8 reason, uint8 status, uint8 TransSeq )
   \                     ZDMatchSendState:
   2286          {
   \   000000   74F0         MOV     A,#-0x10
   \   000002   12....       LCALL   ?BANKED_ENTER_XDATA
   \   000005                ; Saved register size: 16
   \   000005                ; Auto size: 21
   \   000005   74EB         MOV     A,#-0x15
   \   000007   12....       LCALL   ?ALLOC_XSTACK8
   \   00000A   7401         MOV     A,#0x1
   \   00000C   12....       LCALL   ?XSTACK_DISP0_8
   \   00000F   EA           MOV     A,R2
   \   000010   F0           MOVX    @DPTR,A
   \   000011   7402         MOV     A,#0x2
   \   000013   12....       LCALL   ?XSTACK_DISP0_8
   \   000016   EB           MOV     A,R3
   \   000017   F0           MOVX    @DPTR,A
   \   000018   89..         MOV     ?V0 + 2,R1
   2287            uint8 *dstIEEEAddr = NULL;
   \   00001A   75..00       MOV     ?V0 + 4,#0x0
   \   00001D   75..00       MOV     ?V0 + 5,#0x0
   2288            uint8 dstEP = 0xFF;
   \   000020   75..FF       MOV     ?V0 + 3,#-0x1
   2289            zAddrType_t dstAddr;
   2290            zAddrType_t destinationAddr;
   2291            uint16 msgType;
   2292            uint16 clusterID = 0xFFFF;
   \   000023   7EFF         MOV     R6,#-0x1
   \   000025   7FFF         MOV     R7,#-0x1
   2293            ZDEndDeviceBind_t *ed = NULL;
   \   000027   75..00       MOV     ?V0 + 6,#0x0
   \   00002A   75..00       MOV     ?V0 + 7,#0x0
   2294            uint8 rspStatus = ZDP_SUCCESS;
   \   00002D   85..82       MOV     DPL,?XSP + 0
   \   000030   85..83       MOV     DPH,?XSP + 1
   \   000033   E4           CLR     A
   \   000034   12....       LCALL   ?Subroutine51 & 0xFFFF
   2295          
   2296            if ( matchED == NULL )
   \                     ??CrossCallReturnLabel_99:
   \   000037   F9           MOV     R1,A
   \   000038   E8           MOV     A,R0
   \   000039   49           ORL     A,R1
   \   00003A   7005         JNZ     ??ZDMatchSendState_0
   2297            {
   2298              return ( FALSE );
   \                     ??ZDMatchSendState_1:
   \   00003C   7900         MOV     R1,#0x0
   \   00003E   02....       LJMP    ??ZDMatchSendState_2 & 0xFFFF
   2299            }
   2300          
   2301            // Check sequence number
   2302            if ( reason == ZDMATCH_REASON_BIND_RSP || reason == ZDMATCH_REASON_UNBIND_RSP )
   \                     ??ZDMatchSendState_0:
   \   000041   7403         MOV     A,#0x3
   \   000043   65..         XRL     A,?V0 + 2
   \   000045   6006         JZ      ??ZDMatchSendState_3
   \   000047   7402         MOV     A,#0x2
   \   000049   65..         XRL     A,?V0 + 2
   \   00004B   7013         JNZ     ??ZDMatchSendState_4
   2303            {
   2304              if ( TransSeq != matchED->transSeq )
   \                     ??ZDMatchSendState_3:
   \   00004D   7402         MOV     A,#0x2
   \   00004F   12....       LCALL   ?XSTACK_DISP0_8
   \   000052   E0           MOVX    A,@DPTR
   \   000053   FA           MOV     R2,A
   \   000054   90....       MOV     DPTR,#matchED
   \   000057   E0           MOVX    A,@DPTR
   \   000058   2430         ADD     A,#0x30
   \   00005A   12....       LCALL   ?Subroutine92 & 0xFFFF
   2305              {
   2306                return( FALSE ); // ignore the message
   2307              }
   2308            }
   \                     ??CrossCallReturnLabel_340:
   \   00005D   6A           XRL     A,R2
   \   00005E   70DC         JNZ     ??ZDMatchSendState_1
   2309          
   2310            // turn off timer
   2311            APS_SetEndDeviceBindTimeout( 0, ZDO_EndDeviceBindMatchTimeoutCB );
   \                     ??ZDMatchSendState_4:
   \   000060                ; Setup parameters for call to function APS_SetEndDeviceBindTimeout
   \   000060   7C..         MOV     R4,#??ZDO_EndDeviceBindMatchTimeoutCB?relay & 0xff
   \   000062   7D..         MOV     R5,#(??ZDO_EndDeviceBindMatchTimeoutCB?relay >> 8) & 0xff
   \   000064   7A00         MOV     R2,#0x0
   \   000066   7B00         MOV     R3,#0x0
   \   000068   12....       LCALL   ??APS_SetEndDeviceBindTimeout?relay
   2312          
   2313            if ( reason == ZDMATCH_REASON_TIMEOUT )
   \   00006B   7401         MOV     A,#0x1
   \   00006D   65..         XRL     A,?V0 + 2
   \   00006F   700B         JNZ     ??ZDMatchSendState_5
   2314            {
   2315              rspStatus = ZDP_TIMEOUT;    // The process will stop
   \   000071   85..82       MOV     DPL,?XSP + 0
   \   000074   85..83       MOV     DPH,?XSP + 1
   \   000077   7485         MOV     A,#-0x7b
   \                     ??ZDMatchSendState_6:
   \   000079   F0           MOVX    @DPTR,A
   \   00007A   804E         SJMP    ??ZDMatchSendState_7
   2316            }
   2317          
   2318            if ( reason == ZDMATCH_REASON_START || reason == ZDMATCH_REASON_BIND_RSP )
   \                     ??ZDMatchSendState_5:
   \   00007C   90....       MOV     DPTR,#matchED
   \   00007F   E0           MOVX    A,@DPTR
   \   000080   242F         ADD     A,#0x2f
   \   000082   12....       LCALL   ?Subroutine194 & 0xFFFF
   \                     ??CrossCallReturnLabel_489:
   \   000085   E5..         MOV     A,?V0 + 2
   \   000087   6006         JZ      ??ZDMatchSendState_8
   \   000089   7403         MOV     A,#0x3
   \   00008B   65..         XRL     A,?V0 + 2
   \   00008D   701D         JNZ     ??ZDMatchSendState_9
   2319            {
   2320              matchED->sending = ZDMATCH_SENDING_UNBIND;
   \                     ??ZDMatchSendState_8:
   \   00008F   8882         MOV     DPL,R0
   \   000091   8983         MOV     DPH,R1
   \   000093   7401         MOV     A,#0x1
   \   000095   F0           MOVX    @DPTR,A
   2321          
   2322              if ( reason == ZDMATCH_REASON_BIND_RSP && status != ZDP_SUCCESS )
   \   000096   7403         MOV     A,#0x3
   \   000098   65..         XRL     A,?V0 + 2
   \   00009A   702A         JNZ     ??ZDMatchSendState_10
   \   00009C   7401         MOV     A,#0x1
   \   00009E   12....       LCALL   ?XSTACK_DISP0_8
   \   0000A1   E0           MOVX    A,@DPTR
   \   0000A2   6026         JZ      ??ZDMatchSendState_7
   2323              {
   2324                rspStatus = status;
   \   0000A4   85..82       MOV     DPL,?XSP + 0
   \   0000A7   85..83       MOV     DPH,?XSP + 1
   \   0000AA   80CD         SJMP    ??ZDMatchSendState_6
   2325              }
   2326            }
   2327            else if ( reason == ZDMATCH_REASON_UNBIND_RSP )
   \                     ??ZDMatchSendState_9:
   \   0000AC   7402         MOV     A,#0x2
   \   0000AE   65..         XRL     A,?V0 + 2
   \   0000B0   7018         JNZ     ??ZDMatchSendState_7
   2328            {
   2329              if ( status == ZDP_SUCCESS )
   \   0000B2   7401         MOV     A,#0x1
   \   0000B4   12....       LCALL   ?XSTACK_DISP0_8
   \   0000B7   E0           MOVX    A,@DPTR
   \   0000B8   8882         MOV     DPL,R0
   \   0000BA   8983         MOV     DPH,R1
   \   0000BC   7004         JNZ     ??ZDMatchSendState_11
   2330              {
   2331                matchED->sending = ZDMATCH_SENDING_UNBIND;
   \   0000BE   7401         MOV     A,#0x1
   \   0000C0   80B7         SJMP    ??ZDMatchSendState_6
   2332              }
   2333              else
   2334              {
   2335                matchED->sending = ZDMATCH_SENDING_BIND;
   \                     ??ZDMatchSendState_11:
   \   0000C2   7402         MOV     A,#0x2
   \   0000C4   80B3         SJMP    ??ZDMatchSendState_6
   2336              }
   2337            }
   2338          
   2339            if ( reason != ZDMATCH_REASON_START && matchED->sending == ZDMATCH_SENDING_UNBIND )
   \                     ??ZDMatchSendState_10:
   \   0000C6   E5..         MOV     A,?V0 + 2
   \   0000C8   6019         JZ      ??ZDMatchSendState_12
   \                     ??ZDMatchSendState_7:
   \   0000CA   12....       LCALL   ?Subroutine82 & 0xFFFF
   \                     ??CrossCallReturnLabel_166:
   \   0000CD   7014         JNZ     ??ZDMatchSendState_12
   2340            {
   2341              // Move to the next cluster ID
   2342              if ( matchED->ed1numMatched )
   \   0000CF   90....       MOV     DPTR,#matchED
   \   0000D2   E0           MOVX    A,@DPTR
   \   0000D3   2431         ADD     A,#0x31
   \   0000D5   08           INC     R0
   \   0000D6   08           INC     R0
   \   0000D7   12....       LCALL   ??Subroutine203_0 & 0xFFFF
   \                     ??CrossCallReturnLabel_336:
   \   0000DA   7005         JNZ     ??ZDMatchSendState_13
   2343              {
   2344                matchED->ed1numMatched--;
   2345              }
   2346              else if ( matchED->ed2numMatched )
   \   0000DC   12....       LCALL   ?Subroutine81 & 0xFFFF
   \                     ??CrossCallReturnLabel_165:
   \   0000DF   6002         JZ      ??ZDMatchSendState_12
   2347              {
   2348                matchED->ed2numMatched--;
   \                     ??ZDMatchSendState_13:
   \   0000E1   14           DEC     A
   \   0000E2   F0           MOVX    @DPTR,A
   2349              }
   2350            }
   2351          
   2352            // What message do we send now
   2353            if ( matchED->ed1numMatched )
   \                     ??ZDMatchSendState_12:
   \   0000E3   12....       LCALL   ?Subroutine58 & 0xFFFF
   \                     ??CrossCallReturnLabel_119:
   \   0000E6   F8           MOV     R0,A
   \   0000E7   90....       MOV     DPTR,#matchED
   \   0000EA   6020         JZ      ??ZDMatchSendState_14
   2354            {
   2355              ed = &(matchED->ed1);
   \   0000EC   E0           MOVX    A,@DPTR
   \   0000ED   F5..         MOV     ?V0 + 6,A
   \   0000EF   A3           INC     DPTR
   \   0000F0   E0           MOVX    A,@DPTR
   \   0000F1   F5..         MOV     ?V0 + 7,A
   2356              clusterID = matchED->ed1Matched[matchED->ed1numMatched-1];
   \   0000F3   E8           MOV     A,R0
   \   0000F4   C3           CLR     C
   \   0000F5   33           RLC     A
   \   0000F6   F8           MOV     R0,A
   \   0000F7   E4           CLR     A
   \   0000F8   33           RLC     A
   \   0000F9   F9           MOV     R1,A
   \   0000FA   90....       MOV     DPTR,#matchED
   \   0000FD   E0           MOVX    A,@DPTR
   \   0000FE   2432         ADD     A,#0x32
   \   000100   12....       LCALL   ?Subroutine60 & 0xFFFF
   2357              dstIEEEAddr = matchED->ed2.ieeeAddr;
   2358              dstEP = matchED->ed2.endpoint;
   2359            }
   \                     ??CrossCallReturnLabel_127:
   \   000103   241D         ADD     A,#0x1d
   \   000105   12....       LCALL   ?Subroutine117 & 0xFFFF
   \                     ??CrossCallReturnLabel_227:
   \   000108   2425         ADD     A,#0x25
   \   00010A   802B         SJMP    ??ZDMatchSendState_15
   2360            else if ( matchED->ed2numMatched )
   \                     ??ZDMatchSendState_14:
   \   00010C   12....       LCALL   ??Subroutine224_0 & 0xFFFF
   \                     ??CrossCallReturnLabel_436:
   \   00010F   F8           MOV     R0,A
   \   000110   602A         JZ      ??ZDMatchSendState_16
   2361            {
   2362              ed = &(matchED->ed2);
   \   000112   90....       MOV     DPTR,#matchED
   \   000115   E0           MOVX    A,@DPTR
   \   000116   2417         ADD     A,#0x17
   \   000118   F5..         MOV     ?V0 + 6,A
   \   00011A   A3           INC     DPTR
   \   00011B   E0           MOVX    A,@DPTR
   \   00011C   3400         ADDC    A,#0x0
   \   00011E   F5..         MOV     ?V0 + 7,A
   2363              clusterID = matchED->ed2Matched[matchED->ed2numMatched-1];
   \   000120   E8           MOV     A,R0
   \   000121   C3           CLR     C
   \   000122   33           RLC     A
   \   000123   F8           MOV     R0,A
   \   000124   E4           CLR     A
   \   000125   33           RLC     A
   \   000126   F9           MOV     R1,A
   \   000127   90....       MOV     DPTR,#matchED
   \   00012A   E0           MOVX    A,@DPTR
   \   00012B   2435         ADD     A,#0x35
   \   00012D   12....       LCALL   ?Subroutine60 & 0xFFFF
   2364              dstIEEEAddr = matchED->ed1.ieeeAddr;
   2365              dstEP = matchED->ed1.endpoint;
   2366            }
   \                     ??CrossCallReturnLabel_128:
   \   000130   2406         ADD     A,#0x6
   \   000132   12....       LCALL   ?Subroutine117 & 0xFFFF
   \                     ??CrossCallReturnLabel_228:
   \   000135   240E         ADD     A,#0xe
   \                     ??ZDMatchSendState_15:
   \   000137   12....       LCALL   ?Subroutine92 & 0xFFFF
   \                     ??CrossCallReturnLabel_341:
   \   00013A   F5..         MOV     ?V0 + 3,A
   2367          
   2368            dstAddr.addrMode = Addr16Bit;
   \                     ??ZDMatchSendState_16:
   \   00013C   740B         MOV     A,#0xb
   \   00013E   12....       LCALL   ?XSTACK_DISP0_8
   \   000141   7402         MOV     A,#0x2
   \   000143   12....       LCALL   ?Subroutine32 & 0xFFFF
   2369          
   2370            // Send the next message
   2371            if ( (rspStatus == ZDP_SUCCESS) && ed )
   \                     ??CrossCallReturnLabel_44:
   \   000146   6003         JZ      $+5
   \   000148   02....       LJMP    ??ZDMatchSendState_17 & 0xFFFF
   \   00014B   E5..         MOV     A,?V0 + 6
   \   00014D   45..         ORL     A,?V0 + 7
   \   00014F   7003         JNZ     $+5
   \   000151   02....       LJMP    ??ZDMatchSendState_17 & 0xFFFF
   2372            {
   2373              // Send unbind/bind message to source
   2374              if ( matchED->sending == ZDMATCH_SENDING_UNBIND )
   \   000154   12....       LCALL   ?Subroutine82 & 0xFFFF
   \                     ??CrossCallReturnLabel_167:
   \   000157   7005         JNZ     ??ZDMatchSendState_18
   2375              {
   2376                msgType = Unbind_req;
   \   000159   75..22       MOV     ?V0 + 0,#0x22
   \   00015C   8003         SJMP    ??ZDMatchSendState_19
   2377              }
   2378              else
   2379              {
   2380                msgType = Bind_req;
   \                     ??ZDMatchSendState_18:
   \   00015E   75..21       MOV     ?V0 + 0,#0x21
   \                     ??ZDMatchSendState_19:
   \   000161   75..00       MOV     ?V0 + 1,#0x0
   2381              }
   2382          
   2383              dstAddr.addr.shortAddr = ed->srcAddr;
   \   000164   12....       LCALL   ?Subroutine102 & 0xFFFF
   \                     ??CrossCallReturnLabel_430:
   \   000167   7403         MOV     A,#0x3
   \   000169   12....       LCALL   ?XSTACK_DISP0_8
   \   00016C   12....       LCALL   ??Subroutine208_0 & 0xFFFF
   2384          
   2385              // Save off the transaction sequence number
   2386              matchED->transSeq = ZDP_TransID;
   \                     ??CrossCallReturnLabel_373:
   \   00016F   90....       MOV     DPTR,#ZDP_TransID
   \   000172   E0           MOVX    A,@DPTR
   \   000173   C0E0         PUSH    A
   \   000175   90....       MOV     DPTR,#matchED
   \   000178   E0           MOVX    A,@DPTR
   \   000179   2430         ADD     A,#0x30
   \   00017B   12....       LCALL   ??Subroutine229_0 & 0xFFFF
   \                     ??CrossCallReturnLabel_481:
   \   00017E   D0E0         POP     A
   \   000180   F0           MOVX    @DPTR,A
   2387          
   2388              destinationAddr.addrMode = Addr64Bit;
   \   000181   7414         MOV     A,#0x14
   \   000183   12....       LCALL   ?XSTACK_DISP0_8
   \   000186   7403         MOV     A,#0x3
   \   000188   F0           MOVX    @DPTR,A
   2389              osal_cpyExtAddr( destinationAddr.addr.extAddr, dstIEEEAddr );
   \   000189                ; Setup parameters for call to function sAddrExtCpy
   \   000189   AC..         MOV     R4,?V0 + 4
   \   00018B   AD..         MOV     R5,?V0 + 5
   \   00018D   740C         MOV     A,#0xc
   \   00018F   12....       LCALL   ?XSTACK_DISP0_8
   \   000192   AA82         MOV     R2,DPL
   \   000194   AB83         MOV     R3,DPH
   \   000196   12....       LCALL   ??sAddrExtCpy?relay
   2390          
   2391              ZDP_BindUnbindReq( msgType, &dstAddr, ed->ieeeAddr, ed->endpoint, clusterID,
   2392                  &destinationAddr, dstEP, ed->SecurityUse );
   \   000199                ; Setup parameters for call to function ZDP_BindUnbindReq
   \   000199   85..82       MOV     DPL,?V0 + 6
   \   00019C   85..83       MOV     DPH,?V0 + 7
   \   00019F   A3           INC     DPTR
   \   0001A0   E0           MOVX    A,@DPTR
   \   0001A1   F5..         MOV     ?V0 + 4,A
   \   0001A3   78..         MOV     R0,#?V0 + 4
   \   0001A5   12....       LCALL   ?PUSH_XSTACK_I_ONE
   \   0001A8   78..         MOV     R0,#?V0 + 3
   \   0001AA   12....       LCALL   ?PUSH_XSTACK_I_ONE
   \   0001AD   740E         MOV     A,#0xe
   \   0001AF   12....       LCALL   ?XSTACK_DISP0_8
   \   0001B2   8582..       MOV     ?V0 + 4,DPL
   \   0001B5   8583..       MOV     ?V0 + 5,DPH
   \   0001B8   78..         MOV     R0,#?V0 + 4
   \   0001BA   12....       LCALL   ?PUSH_XSTACK_I_TWO
   \   0001BD   8E..         MOV     ?V0 + 4,R6
   \   0001BF   8F..         MOV     ?V0 + 5,R7
   \   0001C1   78..         MOV     R0,#?V0 + 4
   \   0001C3   12....       LCALL   ?PUSH_XSTACK_I_TWO
   \   0001C6   E5..         MOV     A,?V0 + 6
   \   0001C8   2406         ADD     A,#0x6
   \   0001CA   F5..         MOV     ?V0 + 4,A
   \   0001CC   E5..         MOV     A,?V0 + 7
   \   0001CE   3400         ADDC    A,#0x0
   \   0001D0   F5..         MOV     ?V0 + 5,A
   \   0001D2   78..         MOV     R0,#?V0 + 4
   \   0001D4   12....       LCALL   ?PUSH_XSTACK_I_TWO
   \   0001D7   E5..         MOV     A,?V0 + 6
   \   0001D9   12....       LCALL   ??Subroutine240_0 & 0xFFFF
   \                     ??CrossCallReturnLabel_584:
   \   0001DC   E5..         MOV     A,?V0 + 7
   \   0001DE   12....       LCALL   ?Subroutine132 & 0xFFFF
   \                     ??CrossCallReturnLabel_242:
   \   0001E1   740B         MOV     A,#0xb
   \   0001E3   12....       LCALL   ?XSTACK_DISP0_8
   \   0001E6   AC82         MOV     R4,DPL
   \   0001E8   AD83         MOV     R5,DPH
   \   0001EA   AA..         MOV     R2,?V0 + 0
   \   0001EC   AB..         MOV     R3,?V0 + 1
   \   0001EE   12....       LCALL   ??ZDP_BindUnbindReq?relay
   \   0001F1   7408         MOV     A,#0x8
   \   0001F3   12....       LCALL   ?DEALLOC_XSTACK8
   2393          
   2394              // Set timeout for response
   2395              APS_SetEndDeviceBindTimeout( AIB_MaxBindingTime, ZDO_EndDeviceBindMatchTimeoutCB );
   \   0001F6                ; Setup parameters for call to function APS_SetEndDeviceBindTimeout
   \   0001F6   12....       LCALL   ?Subroutine106 & 0xFFFF
   2396            }
   \                     ??CrossCallReturnLabel_206:
   \   0001F9   02....       LJMP    ??ZDMatchSendState_20 & 0xFFFF
   2397            else
   2398            {
   2399              // Send the response messages to requesting devices
   2400              // send response to first requester
   2401              dstAddr.addr.shortAddr = matchED->ed1.srcAddr;
   \                     ??ZDMatchSendState_17:
   \   0001FC   90....       MOV     DPTR,#matchED
   \   0001FF   12....       LCALL   ?Subroutine85 & 0xFFFF
   \                     ??CrossCallReturnLabel_173:
   \   000202   7403         MOV     A,#0x3
   \   000204   12....       LCALL   ?XSTACK_DISP0_8
   \   000207   12....       LCALL   ?Subroutine15 & 0xFFFF
   2402              ZDP_EndDeviceBindRsp( matchED->ed1.TransSeq, &dstAddr, rspStatus, matchED->ed1.SecurityUse );
   \                     ??CrossCallReturnLabel_14:
   \   00020A   12....       LCALL   ?PUSH_XSTACK_I_ONE
   \   00020D   7401         MOV     A,#0x1
   \   00020F   12....       LCALL   ?XSTACK_DISP0_8
   \   000212   8582..       MOV     ?V0 + 0,DPL
   \   000215   8583..       MOV     ?V0 + 1,DPH
   \   000218   78..         MOV     R0,#?V0 + 0
   \   00021A   12....       LCALL   ?PUSH_XSTACK_I_TWO
   \   00021D   75..20       MOV     ?V0 + 0,#0x20
   \   000220   75..80       MOV     ?V0 + 1,#-0x80
   \   000223   78..         MOV     R0,#?V0 + 0
   \   000225   12....       LCALL   ?PUSH_XSTACK_I_TWO
   \   000228   7901         MOV     R1,#0x1
   \   00022A   7408         MOV     A,#0x8
   \   00022C   12....       LCALL   ?XSTACK_DISP0_8
   \   00022F   12....       LCALL   ?Subroutine99 & 0xFFFF
   \                     ??CrossCallReturnLabel_194:
   \   000232   12....       LCALL   ?DEALLOC_XSTACK8
   2403          
   2404              // send response to second requester
   2405              if ( matchED->state == ZDMATCH_SENDING_BINDS )
   \   000235   12....       LCALL   ?Subroutine80 & 0xFFFF
   \                     ??CrossCallReturnLabel_163:
   \   000238   7050         JNZ     ??ZDMatchSendState_21
   2406              {
   2407                dstAddr.addr.shortAddr = matchED->ed2.srcAddr;
   \   00023A   90....       MOV     DPTR,#matchED
   \   00023D   E0           MOVX    A,@DPTR
   \   00023E   2419         ADD     A,#0x19
   \   000240   12....       LCALL   ?Subroutine92 & 0xFFFF
   \                     ??CrossCallReturnLabel_342:
   \   000243   F8           MOV     R0,A
   \   000244   A3           INC     DPTR
   \   000245   E0           MOVX    A,@DPTR
   \   000246   F9           MOV     R1,A
   \   000247   7403         MOV     A,#0x3
   \   000249   12....       LCALL   ?XSTACK_DISP0_8
   \   00024C   12....       LCALL   ??Subroutine208_0 & 0xFFFF
   2408                ZDP_EndDeviceBindRsp( matchED->ed2.TransSeq, &dstAddr, rspStatus, matchED->ed2.SecurityUse );
   \                     ??CrossCallReturnLabel_374:
   \   00024F                ; Setup parameters for call to function ZDP_SendData
   \   00024F   90....       MOV     DPTR,#matchED
   \   000252   E0           MOVX    A,@DPTR
   \   000253   2418         ADD     A,#0x18
   \   000255   12....       LCALL   ?Subroutine91 & 0xFFFF
   2409              }
   \                     ??CrossCallReturnLabel_186:
   \   000258   12....       LCALL   ?PUSH_XSTACK_I_ONE
   \   00025B   7401         MOV     A,#0x1
   \   00025D   12....       LCALL   ?XSTACK_DISP0_8
   \   000260   8582..       MOV     ?V0 + 0,DPL
   \   000263   8583..       MOV     ?V0 + 1,DPH
   \   000266   78..         MOV     R0,#?V0 + 0
   \   000268   12....       LCALL   ?PUSH_XSTACK_I_TWO
   \   00026B   75..20       MOV     ?V0 + 0,#0x20
   \   00026E   75..80       MOV     ?V0 + 1,#-0x80
   \   000271   78..         MOV     R0,#?V0 + 0
   \   000273   12....       LCALL   ?PUSH_XSTACK_I_TWO
   \   000276   7901         MOV     R1,#0x1
   \   000278   7408         MOV     A,#0x8
   \   00027A   12....       LCALL   ?XSTACK_DISP0_8
   \   00027D   AC82         MOV     R4,DPL
   \   00027F   AD83         MOV     R5,DPH
   \   000281   12....       LCALL   ?Subroutine118 & 0xFFFF
   \                     ??CrossCallReturnLabel_230:
   \   000284   12....       LCALL   ?Subroutine184 & 0xFFFF
   \                     ??CrossCallReturnLabel_412:
   \   000287   12....       LCALL   ?DEALLOC_XSTACK8
   2410          
   2411              // Process ended - release memory used
   2412              ZDO_RemoveMatchMemory();
   \                     ??ZDMatchSendState_21:
   \   00028A                ; Setup parameters for call to function ZDO_RemoveMatchMemory
   \   00028A   12....       LCALL   ??ZDO_RemoveMatchMemory?relay
   2413            }
   2414          
   2415            return ( TRUE );
   \                     ??ZDMatchSendState_20:
   \   00028D   7901         MOV     R1,#0x1
   \                     ??ZDMatchSendState_2:
   \   00028F   7415         MOV     A,#0x15
   \   000291   02....       LJMP    ?Subroutine6 & 0xFFFF
   2416          }

   \                                 In  segment BANKED_CODE, align 1, keep-with-next
   \                     ?Subroutine117:
   \   000000   F5..         MOV     ?V0 + 4,A
   \   000002   A3           INC     DPTR
   \   000003   E0           MOVX    A,@DPTR
   \   000004   3400         ADDC    A,#0x0
   \   000006   F5..         MOV     ?V0 + 5,A
   \   000008   90....       MOV     DPTR,#matchED
   \   00000B   E0           MOVX    A,@DPTR
   \   00000C   22           RET

   \                                 In  segment BANKED_CODE, align 1, keep-with-next
   \                     ?Subroutine82:
   \   000000   90....       MOV     DPTR,#matchED
   \   000003   E0           MOVX    A,@DPTR
   \   000004   242F         ADD     A,#0x2f
   \   000006   12....       LCALL   ?Subroutine164 & 0xFFFF
   \                     ??CrossCallReturnLabel_501:
   \   000009   6401         XRL     A,#0x1
   \   00000B   22           RET

   \                                 In  segment BANKED_CODE, align 1, keep-with-next
   \                     ?Subroutine60:
   \   000000   12....       LCALL   ?Subroutine176 & 0xFFFF
   \                     ??CrossCallReturnLabel_295:
   \   000003   E0           MOVX    A,@DPTR
   \   000004   28           ADD     A,R0
   \   000005   F8           MOV     R0,A
   \   000006   A3           INC     DPTR
   \   000007   E0           MOVX    A,@DPTR
   \   000008   39           ADDC    A,R1
   \   000009   F9           MOV     R1,A
   \   00000A   E8           MOV     A,R0
   \   00000B   24FE         ADD     A,#-0x2
   \   00000D   F582         MOV     DPL,A
   \   00000F   E9           MOV     A,R1
   \   000010   34FF         ADDC    A,#-0x1
   \   000012   12....       LCALL   ?Subroutine172 & 0xFFFF
   \                     ??CrossCallReturnLabel_493:
   \   000015   90....       MOV     DPTR,#matchED
   \   000018   E0           MOVX    A,@DPTR
   \   000019   22           RET
   2417          
   2418          /*********************************************************************
   2419           * @fn      ZDO_EndDeviceBindMatchTimeoutCB()
   2420           *
   2421           * @brief   End device bind timeout.
   2422           *
   2423           * @param  none
   2424           *
   2425           * @return  none
   2426           */

   \                                 In  segment BANKED_CODE, align 1, keep-with-next
   2427          static void ZDO_EndDeviceBindMatchTimeoutCB( void )
   \                     ZDO_EndDeviceBindMatchTimeoutCB:
   2428          {
   \   000000   C082         PUSH    DPL
   \   000002   C083         PUSH    DPH
   \   000004                ; Saved register size: 2
   \   000004                ; Auto size: 0
   2429            ZDMatchSendState( ZDMATCH_REASON_TIMEOUT, ZDP_TIMEOUT, 0 );
   \   000004                ; Setup parameters for call to function ZDMatchSendState
   \   000004   7B00         MOV     R3,#0x0
   \   000006   7A85         MOV     R2,#-0x7b
   \   000008   7901         MOV     R1,#0x1
   \   00000A   12....       LCALL   ??ZDMatchSendState?relay
   2430          }
   \   00000D   02....       LJMP    ?Subroutine0 & 0xFFFF
   2431          
   2432          /*********************************************************************
   2433           * ZDO MESSAGE PARSING API FUNCTIONS
   2434           */
   2435          
   2436          /*********************************************************************
   2437           * @fn          ZDO_ParseEndDeviceBindReq
   2438           *
   2439           * @brief       This function parses the End_Device_Bind_req message.
   2440           *
   2441           *     NOTE:  The clusters lists in bindReq are allocated in this
   2442           *            function and must be freed by that calling function.
   2443           *
   2444           * @param       inMsg  - incoming message (request)
   2445           * @param       bindReq - pointer to place to parse message to
   2446           *
   2447           * @return      none
   2448           */

   \                                 In  segment BANKED_CODE, align 1, keep-with-next
   2449          void ZDO_ParseEndDeviceBindReq( zdoIncomingMsg_t *inMsg, ZDEndDeviceBind_t *bindReq )
   \                     ZDO_ParseEndDeviceBindReq:
   2450          {
   \   000000   74F1         MOV     A,#-0xf
   \   000002   12....       LCALL   ?BANKED_ENTER_XDATA
   \   000005                ; Saved register size: 15
   \   000005                ; Auto size: 0
   \   000005   8C..         MOV     ?V0 + 0,R4
   \   000007   8D..         MOV     ?V0 + 1,R5
   2451            uint8 *msg;
   2452          
   2453            // Parse the message
   2454            bindReq->TransSeq = inMsg->TransSeq;
   \   000009   EA           MOV     A,R2
   \   00000A   240F         ADD     A,#0xf
   \   00000C   12....       LCALL   ?Subroutine119 & 0xFFFF
   \                     ??CrossCallReturnLabel_639:
   \   00000F   F0           MOVX    @DPTR,A
   2455            bindReq->srcAddr = inMsg->srcAddr.addr.shortAddr;
   \   000010   8A82         MOV     DPL,R2
   \   000012   8B83         MOV     DPH,R3
   \   000014   12....       LCALL   ??Subroutine220_0 & 0xFFFF
   \                     ??CrossCallReturnLabel_428:
   \   000017   8C82         MOV     DPL,R4
   \   000019   8D83         MOV     DPH,R5
   \   00001B   A3           INC     DPTR
   \   00001C   A3           INC     DPTR
   \   00001D   12....       LCALL   ??Subroutine208_0 & 0xFFFF
   2456            bindReq->SecurityUse = inMsg->SecurityUse;
   \                     ??CrossCallReturnLabel_375:
   \   000020   EA           MOV     A,R2
   \   000021   240E         ADD     A,#0xe
   \   000023   12....       LCALL   ?Subroutine119 & 0xFFFF
   \                     ??CrossCallReturnLabel_640:
   \   000026   A3           INC     DPTR
   \   000027   12....       LCALL   ?Subroutine37 & 0xFFFF
   2457            msg = inMsg->asdu;
   \                     ??CrossCallReturnLabel_51:
   \   00002A   12....       LCALL   ??Subroutine248_0 & 0xFFFF
   2458          
   2459            bindReq->localCoordinator = BUILD_UINT16( msg[0], msg[1] );
   \                     ??CrossCallReturnLabel_633:
   \   00002D   12....       LCALL   ?Subroutine104 & 0xFFFF
   \                     ??CrossCallReturnLabel_201:
   \   000030   A3           INC     DPTR
   \   000031   A3           INC     DPTR
   \   000032   12....       LCALL   ?Subroutine19 & 0xFFFF
   2460            msg += 2;
   2461          
   2462            osal_cpyExtAddr( bindReq->ieeeAddr, msg );
   \                     ??CrossCallReturnLabel_21:
   \   000035   2406         ADD     A,#0x6
   \   000037   FA           MOV     R2,A
   \   000038   E5..         MOV     A,?V0 + 1
   \   00003A   12....       LCALL   ?Subroutine52 & 0xFFFF
   2463            msg += Z_EXTADDR_LEN;
   2464          
   2465            bindReq->endpoint = *msg++;
   \                     ??CrossCallReturnLabel_558:
   \   00003D   C0E0         PUSH    A
   \   00003F   E5..         MOV     A,?V0 + 0
   \   000041   240E         ADD     A,#0xe
   \   000043   12....       LCALL   ??Subroutine232_0 & 0xFFFF
   \                     ??CrossCallReturnLabel_525:
   \   000046   D0E0         POP     A
   \   000048   12....       LCALL   ?Subroutine29 & 0xFFFF
   2466            bindReq->profileID = BUILD_UINT16( msg[0], msg[1] );
   \                     ??CrossCallReturnLabel_36:
   \   00004B   F8           MOV     R0,A
   \   00004C   E5..         MOV     A,?V0 + 0
   \   00004E   240F         ADD     A,#0xf
   \   000050   12....       LCALL   ??Subroutine232_0 & 0xFFFF
   \                     ??CrossCallReturnLabel_526:
   \   000053   E8           MOV     A,R0
   \   000054   12....       LCALL   ?Subroutine30 & 0xFFFF
   2467            msg += 2;
   2468          
   2469            bindReq->inClusters = NULL;
   \                     ??CrossCallReturnLabel_38:
   \   000057   2412         ADD     A,#0x12
   \   000059   F5..         MOV     ?V0 + 2,A
   \   00005B   E5..         MOV     A,?V0 + 1
   \   00005D   12....       LCALL   ??Subroutine234_0 & 0xFFFF
   \                     ??CrossCallReturnLabel_551:
   \   000060   E4           CLR     A
   \   000061   F0           MOVX    @DPTR,A
   \   000062   A3           INC     DPTR
   \   000063   12....       LCALL   ?Subroutine33 & 0xFFFF
   \                     ??CrossCallReturnLabel_45:
   \   000066   E4           CLR     A
   \   000067   F0           MOVX    @DPTR,A
   \   000068   A3           INC     DPTR
   \   000069   12....       LCALL   ?Subroutine189 & 0xFFFF
   2470            bindReq->outClusters = NULL;
   2471          
   2472            if ((bindReq->numInClusters = *msg++) &&
   2473                (bindReq->inClusters = (uint16*)osal_mem_alloc( (bindReq->numInClusters * sizeof( uint16 )))))
   \                     ??CrossCallReturnLabel_317:
   \   00006C   E0           MOVX    A,@DPTR
   \   00006D   F8           MOV     R0,A
   \   00006E   A3           INC     DPTR
   \   00006F   0E           INC     R6
   \   000070   AF83         MOV     R7,DPH
   \   000072   E5..         MOV     A,?V0 + 0
   \   000074   2411         ADD     A,#0x11
   \   000076   12....       LCALL   ?Subroutine131 & 0xFFFF
   \                     ??CrossCallReturnLabel_238:
   \   000079   6018         JZ      ??ZDO_ParseEndDeviceBindReq_0
   \   00007B                ; Setup parameters for call to function osal_mem_alloc
   \   00007B   12....       LCALL   ?Subroutine38 & 0xFFFF
   \                     ??CrossCallReturnLabel_53:
   \   00007E   FC           MOV     R4,A
   \   00007F   A3           INC     DPTR
   \   000080   E0           MOVX    A,@DPTR
   \   000081   FD           MOV     R5,A
   \   000082   EC           MOV     A,R4
   \   000083   4D           ORL     A,R5
   \   000084   600D         JZ      ??ZDO_ParseEndDeviceBindReq_0
   2474            {
   2475              msg = ZDO_ConvertOTAClusters( bindReq->numInClusters, msg, bindReq->inClusters );
   \   000086                ; Setup parameters for call to function ZDO_ConvertOTAClusters
   \   000086   12....       LCALL   ?Subroutine98 & 0xFFFF
   2476            }
   \                     ??CrossCallReturnLabel_554:
   \   000089   8A..         MOV     ?V0 + 2,R2
   \   00008B   8B..         MOV     ?V0 + 3,R3
   \   00008D   AE..         MOV     R6,?V0 + 2
   \   00008F   AF..         MOV     R7,?V0 + 3
   \   000091   8008         SJMP    ??ZDO_ParseEndDeviceBindReq_1
   2477            else
   2478            {
   2479              bindReq->numInClusters = 0;
   \                     ??ZDO_ParseEndDeviceBindReq_0:
   \   000093   85..82       MOV     DPL,?V0 + 4
   \   000096   85..83       MOV     DPH,?V0 + 5
   \   000099   E4           CLR     A
   \   00009A   F0           MOVX    @DPTR,A
   2480            }
   2481          
   2482            if ((bindReq->numOutClusters = *msg++) &&
   2483                (bindReq->outClusters = (uint16*)osal_mem_alloc((bindReq->numOutClusters * sizeof(uint16)))))
   \                     ??ZDO_ParseEndDeviceBindReq_1:
   \   00009B   8E82         MOV     DPL,R6
   \   00009D   8F83         MOV     DPH,R7
   \   00009F   E0           MOVX    A,@DPTR
   \   0000A0   F8           MOV     R0,A
   \   0000A1   A3           INC     DPTR
   \   0000A2   AE82         MOV     R6,DPL
   \   0000A4   AF83         MOV     R7,DPH
   \   0000A6   E5..         MOV     A,?V0 + 0
   \   0000A8   2414         ADD     A,#0x14
   \   0000AA   12....       LCALL   ?Subroutine131 & 0xFFFF
   \                     ??CrossCallReturnLabel_239:
   \   0000AD   6023         JZ      ??ZDO_ParseEndDeviceBindReq_2
   \   0000AF                ; Setup parameters for call to function osal_mem_alloc
   \   0000AF   C3           CLR     C
   \   0000B0   33           RLC     A
   \   0000B1   FA           MOV     R2,A
   \   0000B2   E4           CLR     A
   \   0000B3   33           RLC     A
   \   0000B4   FB           MOV     R3,A
   \   0000B5   12....       LCALL   ??osal_mem_alloc?relay
   \   0000B8   E5..         MOV     A,?V0 + 0
   \   0000BA   2415         ADD     A,#0x15
   \   0000BC   F582         MOV     DPL,A
   \   0000BE   E5..         MOV     A,?V0 + 1
   \   0000C0   12....       LCALL   ?Subroutine136 & 0xFFFF
   \                     ??CrossCallReturnLabel_249:
   \   0000C3   12....       LCALL   ?Subroutine33 & 0xFFFF
   \                     ??CrossCallReturnLabel_46:
   \   0000C6   12....       LCALL   ?Subroutine113 & 0xFFFF
   \                     ??CrossCallReturnLabel_216:
   \   0000C9   EC           MOV     A,R4
   \   0000CA   4D           ORL     A,R5
   \   0000CB   6005         JZ      ??ZDO_ParseEndDeviceBindReq_2
   2484            {
   2485              msg = ZDO_ConvertOTAClusters( bindReq->numOutClusters, msg, bindReq->outClusters );
   \   0000CD                ; Setup parameters for call to function ZDO_ConvertOTAClusters
   \   0000CD   12....       LCALL   ?Subroutine98 & 0xFFFF
   2486            }
   \                     ??CrossCallReturnLabel_555:
   \   0000D0   8008         SJMP    ??ZDO_ParseEndDeviceBindReq_3
   2487            else
   2488            {
   2489              bindReq->numOutClusters = 0;
   \                     ??ZDO_ParseEndDeviceBindReq_2:
   \   0000D2   85..82       MOV     DPL,?V0 + 4
   \   0000D5   85..83       MOV     DPH,?V0 + 5
   \   0000D8   E4           CLR     A
   \   0000D9   F0           MOVX    @DPTR,A
   2490            }
   2491          }
   \                     ??ZDO_ParseEndDeviceBindReq_3:
   \   0000DA   7F07         MOV     R7,#0x7
   \   0000DC   02....       LJMP    ?BANKED_LEAVE_XDATA

   \                                 In  segment BANKED_CODE, align 1, keep-with-next
   \                     ??Subroutine232_0:
   \   000000   F582         MOV     DPL,A
   \   000002   E5..         MOV     A,?V0 + 1
   \   000004                REQUIRE ??Subroutine233_0
   \   000004                ; // Fall through to label ??Subroutine233_0

   \                                 In  segment BANKED_CODE, align 1, keep-with-next
   \                     ?Subroutine131:
   \   000000   F5..         MOV     ?V0 + 4,A
   \   000002   E5..         MOV     A,?V0 + 1
   \   000004   3400         ADDC    A,#0x0
   \   000006   F5..         MOV     ?V0 + 5,A
   \   000008   85..82       MOV     DPL,?V0 + 4
   \   00000B   F583         MOV     DPH,A
   \   00000D   E8           MOV     A,R0
   \   00000E   F0           MOVX    @DPTR,A
   \   00000F   22           RET

   \                                 In  segment BANKED_CODE, align 1, keep-with-next
   \                     ?Subroutine98:
   \   000000   EE           MOV     A,R6
   \   000001   FA           MOV     R2,A
   \   000002   EF           MOV     A,R7
   \   000003   FB           MOV     R3,A
   \   000004   85..82       MOV     DPL,?V0 + 4
   \   000007   85..83       MOV     DPH,?V0 + 5
   \   00000A                REQUIRE ??Subroutine235_0
   \   00000A                ; // Fall through to label ??Subroutine235_0

   \                                 In  segment BANKED_CODE, align 1, keep-with-next
   \                     ?Subroutine52:
   \   000000   3400         ADDC    A,#0x0
   \   000002   FB           MOV     R3,A
   \   000003                REQUIRE ??Subroutine236_0
   \   000003                ; // Fall through to label ??Subroutine236_0

   \                                 In  segment BANKED_CODE, align 1, keep-with-next
   \                     ??Subroutine236_0:
   \   000000   12....       LCALL   ?Subroutine158 & 0xFFFF
   \                     ??CrossCallReturnLabel_561:
   \   000003   22           RET

   \                                 In  segment BANKED_CODE, align 1, keep-with-next
   \                     ?Subroutine158:
   \   000000   12....       LCALL   ??sAddrExtCpy?relay
   \   000003   EE           MOV     A,R6
   \   000004   2408         ADD     A,#0x8
   \   000006   12....       LCALL   ?Subroutine195 & 0xFFFF
   \                     ??CrossCallReturnLabel_564:
   \   000009   22           RET

   \                                 In  segment BANKED_CODE, align 1, keep-with-next
   \                     ?Subroutine33:
   \   000000   F0           MOVX    @DPTR,A
   \   000001   E5..         MOV     A,?V0 + 0
   \   000003   2415         ADD     A,#0x15
   \   000005   F582         MOV     DPL,A
   \   000007   E5..         MOV     A,?V0 + 1
   \   000009   12....       LCALL   ??Subroutine212_0 & 0xFFFF
   \                     ??CrossCallReturnLabel_538:
   \   00000C   22           RET

   \                                 In  segment BANKED_CODE, align 1, keep-with-next
   \                     ?Subroutine30:
   \   000000   12....       LCALL   ?Subroutine145 & 0xFFFF
   \                     ??CrossCallReturnLabel_261:
   \   000003   E5..         MOV     A,?V0 + 0
   \   000005   22           RET

   \                                 In  segment BANKED_CODE, align 1, keep-with-next
   \                     ?Subroutine188:
   \   000000   F0           MOVX    @DPTR,A
   \   000001   8E82         MOV     DPL,R6
   \   000003   8F83         MOV     DPH,R7
   \   000005   A3           INC     DPTR
   \   000006   AE82         MOV     R6,DPL
   \   000008   AF83         MOV     R7,DPH
   \   00000A   22           RET

   \                                 In  segment BANKED_CODE, align 1, keep-with-next
   \                     ??Subroutine248_0:
   \   000000   FE           MOV     R6,A
   \   000001   A3           INC     DPTR
   \   000002   E0           MOVX    A,@DPTR
   \   000003   FF           MOV     R7,A
   \   000004   8E82         MOV     DPL,R6
   \   000006   8F83         MOV     DPH,R7
   \   000008   E0           MOVX    A,@DPTR
   \   000009   22           RET

   \                                 In  segment BANKED_CODE, align 1, keep-with-next
   \                     ?Subroutine145:
   \   000000   F0           MOVX    @DPTR,A
   \   000001   A3           INC     DPTR
   \   000002   E9           MOV     A,R1
   \   000003   12....       LCALL   ?Subroutine187 & 0xFFFF
   \                     ??CrossCallReturnLabel_648:
   \   000006   22           RET

   \                                 In  segment BANKED_CODE, align 1, keep-with-next
   \                     ?Subroutine187:
   \   000000   F0           MOVX    @DPTR,A
   \   000001   12....       LCALL   ?Subroutine197 & 0xFFFF
   \                     ??CrossCallReturnLabel_650:
   \   000004   22           RET

   \                                 In  segment BANKED_CODE, align 1, keep-with-next
   \                     ?Subroutine119:
   \   000000   F582         MOV     DPL,A
   \   000002   EB           MOV     A,R3
   \   000003   12....       LCALL   ??Subroutine212_0 & 0xFFFF
   \                     ??CrossCallReturnLabel_543:
   \   000006                REQUIRE ??Subroutine250_0
   \   000006                ; // Fall through to label ??Subroutine250_0

   \                                 In  segment BANKED_CODE, align 1, keep-with-next
   \                     ??Subroutine250_0:
   \   000000   E0           MOVX    A,@DPTR
   \   000001   8C82         MOV     DPL,R4
   \   000003   8D83         MOV     DPH,R5
   \   000005   22           RET

   \                                 In  segment BANKED_CODE, align 1, keep-with-next
   \                     ?Subroutine104:
   \   000000   FA           MOV     R2,A
   \   000001   12....       LCALL   ?Subroutine174 & 0xFFFF
   \                     ??CrossCallReturnLabel_293:
   \   000004   A3           INC     DPTR
   \   000005   22           RET

   \                                 In  segment BANKED_CODE, align 1, keep-with-next
   \                     ?Subroutine174:
   \   000000   A3           INC     DPTR
   \   000001   E0           MOVX    A,@DPTR
   \   000002   F9           MOV     R1,A
   \   000003   EA           MOV     A,R2
   \   000004   8C82         MOV     DPL,R4
   \   000006   8D83         MOV     DPH,R5
   \   000008   A3           INC     DPTR
   \   000009   22           RET

   \                                 In  segment BANKED_CODE, align 1, keep-with-next
   \                     ?Subroutine38:
   \   000000   C3           CLR     C
   \   000001   33           RLC     A
   \   000002   FA           MOV     R2,A
   \   000003   E4           CLR     A
   \   000004   33           RLC     A
   \   000005   FB           MOV     R3,A
   \   000006   12....       LCALL   ??osal_mem_alloc?relay
   \   000009   85..82       MOV     DPL,?V0 + 2
   \   00000C   85..83       MOV     DPH,?V0 + 3
   \   00000F   EA           MOV     A,R2
   \   000010   F0           MOVX    @DPTR,A
   \   000011   A3           INC     DPTR
   \   000012   EB           MOV     A,R3
   \   000013   F0           MOVX    @DPTR,A
   \   000014   85..82       MOV     DPL,?V0 + 2
   \   000017   85..83       MOV     DPH,?V0 + 3
   \   00001A   E0           MOVX    A,@DPTR
   \   00001B   22           RET

   \                                 In  segment BANKED_CODE, align 1, keep-with-next
   \                     ?Subroutine29:
   \   000000   12....       LCALL   ?Subroutine149 & 0xFFFF
   \                     ??CrossCallReturnLabel_269:
   \   000003   22           RET

   \                                 In  segment BANKED_CODE, align 1, keep-with-next
   \                     ?Subroutine149:
   \   000000   12....       LCALL   ?Subroutine188 & 0xFFFF
   \                     ??CrossCallReturnLabel_314:
   \   000003   E0           MOVX    A,@DPTR
   \   000004   FA           MOV     R2,A
   \   000005   A3           INC     DPTR
   \   000006   E0           MOVX    A,@DPTR
   \   000007   F9           MOV     R1,A
   \   000008   EA           MOV     A,R2
   \   000009   22           RET

   \                                 In  segment BANKED_CODE, align 1, keep-with-next
   \                     ?Subroutine19:
   \   000000   12....       LCALL   ?Subroutine145 & 0xFFFF
   \                     ??CrossCallReturnLabel_263:
   \   000003                ; Setup parameters for call to function sAddrExtCpy
   \   000003                ; Setup parameters for call to function sAddrExtCpy
   \   000003   EE           MOV     A,R6
   \   000004   FC           MOV     R4,A
   \   000005   EF           MOV     A,R7
   \   000006   FD           MOV     R5,A
   \   000007   E5..         MOV     A,?V0 + 0
   \   000009   22           RET

   \                                 In  segment BANKED_CODE, align 1, keep-with-next
   \                     ?Subroutine37:
   \   000000   F0           MOVX    @DPTR,A
   \   000001   12....       LCALL   ?Subroutine177 & 0xFFFF
   \                     ??CrossCallReturnLabel_296:
   \   000004   E0           MOVX    A,@DPTR
   \   000005   22           RET
   2492          
   2493          /*********************************************************************
   2494           * @fn          ZDO_ParseBindUnbindReq
   2495           *
   2496           * @brief       This function parses the Bind_req or Unbind_req message.
   2497           *
   2498           * @param       inMsg  - incoming message (request)
   2499           * @param       pReq - place to put parsed information
   2500           *
   2501           * @return      none
   2502           */

   \                                 In  segment BANKED_CODE, align 1, keep-with-next
   2503          void ZDO_ParseBindUnbindReq( zdoIncomingMsg_t *inMsg, ZDO_BindUnbindReq_t *pReq )
   \                     ZDO_ParseBindUnbindReq:
   2504          {
   \   000000   74F6         MOV     A,#-0xa
   \   000002   12....       LCALL   ?BANKED_ENTER_XDATA
   \   000005                ; Saved register size: 10
   \   000005                ; Auto size: 0
   \   000005   8C..         MOV     ?V0 + 0,R4
   \   000007   8D..         MOV     ?V0 + 1,R5
   2505            uint8 *msg;
   2506          
   2507            msg = inMsg->asdu;
   \   000009   12....       LCALL   ?Subroutine121 & 0xFFFF
   2508            osal_cpyExtAddr( pReq->srcAddress, msg );
   \                     ??CrossCallReturnLabel_352:
   \   00000C                ; Setup parameters for call to function sAddrExtCpy
   \   00000C   12....       LCALL   ?Subroutine8 & 0xFFFF
   2509            msg += Z_EXTADDR_LEN;
   2510            pReq->srcEndpoint = *msg++;
   2511            pReq->clusterID = BUILD_UINT16( msg[0], msg[1] );
   2512            msg += 2;
   2513            pReq->dstAddress.addrMode = *msg++;
   2514            if ( pReq->dstAddress.addrMode == Addr64Bit )
   \                     ??CrossCallReturnLabel_0:
   \   00000F   7014         JNZ     ??ZDO_ParseBindUnbindReq_0
   2515            {
   2516              osal_cpyExtAddr( pReq->dstAddress.addr.extAddr, msg );
   \   000011                ; Setup parameters for call to function sAddrExtCpy
   \   000011   EE           MOV     A,R6
   \   000012   FC           MOV     R4,A
   \   000013   EF           MOV     A,R7
   \   000014   FD           MOV     R5,A
   \   000015   12....       LCALL   ?Subroutine53 & 0xFFFF
   2517              msg += Z_EXTADDR_LEN;
   2518              pReq->dstEndpoint = *msg;
   2519            }
   \                     ??CrossCallReturnLabel_100:
   \   000018   C0E0         PUSH    A
   \   00001A   E5..         MOV     A,?V0 + 0
   \   00001C   2414         ADD     A,#0x14
   \   00001E   12....       LCALL   ??Subroutine232_0 & 0xFFFF
   \                     ??CrossCallReturnLabel_527:
   \   000021   D0E0         POP     A
   \   000023   8003         SJMP    ??CrossCallReturnLabel_183
   2520            else
   2521            {
   2522              // copy group address
   2523              pReq->dstAddress.addr.shortAddr = BUILD_UINT16( msg[0], msg[1] );
   \                     ??ZDO_ParseBindUnbindReq_0:
   \   000025   12....       LCALL   ?Subroutine90 & 0xFFFF
   2524            }
   \                     ??CrossCallReturnLabel_183:
   \   000028   F0           MOVX    @DPTR,A
   2525          }
   \   000029   02....       LJMP    ??Subroutine201_0 & 0xFFFF

   \                                 In  segment BANKED_CODE, align 1, keep-with-next
   \                     ?Subroutine90:
   \   000000   E0           MOVX    A,@DPTR
   \   000001   FC           MOV     R4,A
   \   000002   A3           INC     DPTR
   \   000003   E0           MOVX    A,@DPTR
   \   000004   F9           MOV     R1,A
   \   000005   EC           MOV     A,R4
   \   000006   8A82         MOV     DPL,R2
   \   000008   8B83         MOV     DPH,R3
   \   00000A   F0           MOVX    @DPTR,A
   \   00000B   A3           INC     DPTR
   \   00000C   E9           MOV     A,R1
   \   00000D   22           RET

   \                                 In  segment BANKED_CODE, align 1, keep-with-next
   \                     ?Subroutine150:
   \   000000   12....       LCALL   ?Subroutine189 & 0xFFFF
   \                     ??CrossCallReturnLabel_319:
   \   000003   A3           INC     DPTR
   \   000004   0E           INC     R6
   \   000005   AF83         MOV     R7,DPH
   \   000007   22           RET

   \                                 In  segment BANKED_CODE, align 1, keep-with-next
   \                     ?Subroutine8:
   \   000000   EE           MOV     A,R6
   \   000001   FC           MOV     R4,A
   \   000002   EF           MOV     A,R7
   \   000003   FD           MOV     R5,A
   \   000004   AA..         MOV     R2,?V0 + 0
   \   000006   AB..         MOV     R3,?V0 + 1
   \   000008   12....       LCALL   ?Subroutine158 & 0xFFFF
   \                     ??CrossCallReturnLabel_562:
   \   00000B   85..82       MOV     DPL,?V0 + 0
   \   00000E   85..83       MOV     DPH,?V0 + 1
   \   000011   A3           INC     DPTR
   \   000012   A3           INC     DPTR
   \   000013   A3           INC     DPTR
   \   000014   A3           INC     DPTR
   \   000015   A3           INC     DPTR
   \   000016   A3           INC     DPTR
   \   000017   A3           INC     DPTR
   \   000018   A3           INC     DPTR
   \   000019   12....       LCALL   ?Subroutine149 & 0xFFFF
   \                     ??CrossCallReturnLabel_268:
   \   00001C   85..82       MOV     DPL,?V0 + 0
   \   00001F   85..83       MOV     DPH,?V0 + 1
   \   000022   A3           INC     DPTR
   \   000023   A3           INC     DPTR
   \   000024   A3           INC     DPTR
   \   000025   A3           INC     DPTR
   \   000026   A3           INC     DPTR
   \   000027   A3           INC     DPTR
   \   000028   A3           INC     DPTR
   \   000029   A3           INC     DPTR
   \   00002A   A3           INC     DPTR
   \   00002B   12....       LCALL   ?Subroutine145 & 0xFFFF
   \                     ??CrossCallReturnLabel_262:
   \   00002E   8E82         MOV     DPL,R6
   \   000030   8F83         MOV     DPH,R7
   \   000032   E0           MOVX    A,@DPTR
   \   000033   F8           MOV     R0,A
   \   000034   E5..         MOV     A,?V0 + 0
   \   000036   2413         ADD     A,#0x13
   \   000038   F582         MOV     DPL,A
   \   00003A   E5..         MOV     A,?V0 + 1
   \   00003C   12....       LCALL   ??Subroutine212_0 & 0xFFFF
   \                     ??CrossCallReturnLabel_537:
   \   00003F   E8           MOV     A,R0
   \   000040   12....       LCALL   ?Subroutine150 & 0xFFFF
   \                     ??CrossCallReturnLabel_270:
   \   000043   E5..         MOV     A,?V0 + 0
   \   000045   240B         ADD     A,#0xb
   \   000047   FA           MOV     R2,A
   \   000048   E5..         MOV     A,?V0 + 1
   \   00004A   3400         ADDC    A,#0x0
   \   00004C   FB           MOV     R3,A
   \   00004D   7403         MOV     A,#0x3
   \   00004F   68           XRL     A,R0
   \   000050   22           RET

   \                                 In  segment BANKED_CODE, align 1, keep-with-next
   \                     ?Subroutine53:
   \   000000   12....       LCALL   ??sAddrExtCpy?relay
   \   000003   8E82         MOV     DPL,R6
   \   000005   8F83         MOV     DPH,R7
   \   000007   A3           INC     DPTR
   \   000008   A3           INC     DPTR
   \   000009   A3           INC     DPTR
   \   00000A   A3           INC     DPTR
   \   00000B   A3           INC     DPTR
   \   00000C   A3           INC     DPTR
   \   00000D   A3           INC     DPTR
   \   00000E   A3           INC     DPTR
   \   00000F   E0           MOVX    A,@DPTR
   \   000010   22           RET
   2526          
   2527          /*********************************************************************
   2528           * @fn      ZDO_ParseAddrRsp
   2529           *
   2530           * @brief   Turns the inMsg (incoming message) into the out parsed
   2531           *          structure.
   2532           *
   2533           * @param   inMsg - incoming message
   2534           *
   2535           * @return  pointer to parsed structures.  This structure was
   2536           *          allocated using osal_mem_alloc, so it must be freed
   2537           *          by the calling function [osal_mem_free()].
   2538           */

   \                                 In  segment BANKED_CODE, align 1, keep-with-next
   \                     ?Subroutine137:
   \   000000   E5..         MOV     A,?V0 + 0
   \   000002   240C         ADD     A,#0xc
   \   000004                REQUIRE ??Subroutine232_0
   \   000004                ; // Fall through to label ??Subroutine232_0

   \                                 In  segment BANKED_CODE, align 1, keep-with-next
   2539          ZDO_NwkIEEEAddrResp_t *ZDO_ParseAddrRsp( zdoIncomingMsg_t *inMsg )
   \                     ZDO_ParseAddrRsp:
   2540          {
   \   000000   74F2         MOV     A,#-0xe
   \   000002   12....       LCALL   ?BANKED_ENTER_XDATA
   \   000005                ; Saved register size: 14
   \   000005                ; Auto size: 0
   2541            ZDO_NwkIEEEAddrResp_t *rsp;
   2542            uint8 *msg;
   2543            byte cnt = 0;
   2544          
   2545            // Calculate the number of items in the list
   2546            if ( inMsg->asduLen > (1 + Z_EXTADDR_LEN + 2) )
   \   000005   EA           MOV     A,R2
   \   000006   2413         ADD     A,#0x13
   \   000008   FE           MOV     R6,A
   \   000009   EB           MOV     A,R3
   \   00000A   3400         ADDC    A,#0x0
   \   00000C   FF           MOV     R7,A
   \   00000D   EA           MOV     A,R2
   \   00000E   2410         ADD     A,#0x10
   \   000010   F582         MOV     DPL,A
   \   000012   EB           MOV     A,R3
   \   000013   12....       LCALL   ??Subroutine238_0 & 0xFFFF
   \                     ??CrossCallReturnLabel_571:
   \   000016   C3           CLR     C
   \   000017   940C         SUBB    A,#0xc
   \   000019   400E         JC      ??ZDO_ParseAddrRsp_0
   2547            {
   2548              cnt = inMsg->asdu[1 + Z_EXTADDR_LEN + 2];
   \   00001B   8E82         MOV     DPL,R6
   \   00001D   8F83         MOV     DPH,R7
   \   00001F   E0           MOVX    A,@DPTR
   \   000020   240B         ADD     A,#0xb
   \   000022   12....       LCALL   ?Subroutine92 & 0xFFFF
   2549            }
   \                     ??CrossCallReturnLabel_343:
   \   000025   F5..         MOV     ?V0 + 2,A
   \   000027   8003         SJMP    ??ZDO_ParseAddrRsp_1
   2550            else
   2551            {
   2552              cnt = 0;
   \                     ??ZDO_ParseAddrRsp_0:
   \   000029   75..00       MOV     ?V0 + 2,#0x0
   2553            }
   2554          
   2555            // Make buffer
   2556            rsp = (ZDO_NwkIEEEAddrResp_t *)osal_mem_alloc( sizeof(ZDO_NwkIEEEAddrResp_t) + (cnt * sizeof ( uint16 )) );
   \                     ??ZDO_ParseAddrRsp_1:
   \   00002C                ; Setup parameters for call to function osal_mem_alloc
   \   00002C   E5..         MOV     A,?V0 + 2
   \   00002E   C3           CLR     C
   \   00002F   33           RLC     A
   \   000030   F8           MOV     R0,A
   \   000031   E4           CLR     A
   \   000032   33           RLC     A
   \   000033   F9           MOV     R1,A
   \   000034   E8           MOV     A,R0
   \   000035   240D         ADD     A,#0xd
   \   000037   FA           MOV     R2,A
   \   000038   E9           MOV     A,R1
   \   000039   12....       LCALL   ??Subroutine253_0 & 0xFFFF
   \                     ??CrossCallReturnLabel_654:
   \   00003C   8A..         MOV     ?V0 + 0,R2
   \   00003E   8B..         MOV     ?V0 + 1,R3
   2557          
   2558            if ( rsp )
   \   000040   EA           MOV     A,R2
   \   000041   45..         ORL     A,?V0 + 1
   \   000043   6076         JZ      ??ZDO_ParseAddrRsp_2
   2559            {
   2560              msg = inMsg->asdu;
   \   000045   8E82         MOV     DPL,R6
   \   000047   8F83         MOV     DPH,R7
   \   000049   12....       LCALL   ??Subroutine247_0 & 0xFFFF
   2561          
   2562              rsp->status = *msg++;
   \                     ??CrossCallReturnLabel_630:
   \   00004C   8A82         MOV     DPL,R2
   \   00004E   8B83         MOV     DPH,R3
   \   000050   12....       LCALL   ?Subroutine43 & 0xFFFF
   2563              if ( rsp->status == ZDO_SUCCESS )
   \                     ??CrossCallReturnLabel_80:
   \   000053   7066         JNZ     ??ZDO_ParseAddrRsp_2
   2564              {
   2565                osal_cpyExtAddr( rsp->extAddr, msg );
   \   000055                ; Setup parameters for call to function sAddrExtCpy
   \   000055   EE           MOV     A,R6
   \   000056   FC           MOV     R4,A
   \   000057   EF           MOV     A,R7
   \   000058   FD           MOV     R5,A
   \   000059   EA           MOV     A,R2
   \   00005A   2403         ADD     A,#0x3
   \   00005C   0A           INC     R2
   \   00005D   0A           INC     R2
   \   00005E   0A           INC     R2
   \   00005F   EB           MOV     A,R3
   \   000060   12....       LCALL   ?Subroutine52 & 0xFFFF
   2566                msg += Z_EXTADDR_LEN;
   2567                rsp->nwkAddr = BUILD_UINT16( msg[0], msg[1] );
   \                     ??CrossCallReturnLabel_559:
   \   000063   12....       LCALL   ?Subroutine105 & 0xFFFF
   \                     ??CrossCallReturnLabel_203:
   \   000066   A3           INC     DPTR
   \   000067   12....       LCALL   ?Subroutine30 & 0xFFFF
   2568          
   2569                msg += 2;
   2570                rsp->numAssocDevs = 0;
   \                     ??CrossCallReturnLabel_39:
   \   00006A   240B         ADD     A,#0xb
   \   00006C   F8           MOV     R0,A
   \   00006D   E5..         MOV     A,?V0 + 1
   \   00006F   3400         ADDC    A,#0x0
   \   000071   F9           MOV     R1,A
   \   000072   E8           MOV     A,R0
   \   000073   FA           MOV     R2,A
   \   000074   E9           MOV     A,R1
   \   000075   FB           MOV     R3,A
   \   000076   8A82         MOV     DPL,R2
   \   000078   8B83         MOV     DPH,R3
   \   00007A   E4           CLR     A
   \   00007B   F0           MOVX    @DPTR,A
   2571          
   2572                // StartIndex field is only present if NumAssocDev field is non-zero.
   2573                if ( cnt > 0 )
   \   00007C   E5..         MOV     A,?V0 + 2
   \   00007E   603B         JZ      ??ZDO_ParseAddrRsp_2
   2574                {
   2575                  uint16 *pList = &(rsp->devList[0]);
   \   000080   E5..         MOV     A,?V0 + 0
   \   000082   240D         ADD     A,#0xd
   \   000084   08           INC     R0
   \   000085   08           INC     R0
   \   000086   E5..         MOV     A,?V0 + 1
   \   000088   3400         ADDC    A,#0x0
   \   00008A   F9           MOV     R1,A
   2576                  byte n = cnt;
   \   00008B   AC..         MOV     R4,?V0 + 2
   2577          
   2578                  rsp->numAssocDevs = *msg++;
   \   00008D   8E82         MOV     DPL,R6
   \   00008F   8F83         MOV     DPH,R7
   \   000091   12....       LCALL   ?Subroutine116 & 0xFFFF
   \                     ??CrossCallReturnLabel_225:
   \   000094   12....       LCALL   ?Subroutine25 & 0xFFFF
   2579                  rsp->startIndex = *msg++;
   \                     ??CrossCallReturnLabel_25:
   \   000097   C0E0         PUSH    A
   \   000099   12....       LCALL   ?Subroutine137 & 0xFFFF
   \                     ??CrossCallReturnLabel_534:
   \   00009C   D0E0         POP     A
   \   00009E   12....       LCALL   ?Subroutine26 & 0xFFFF
   2580          
   2581                  while ( n != 0 )
   2582                  {
   2583                    *pList++ = BUILD_UINT16( msg[0], msg[1] );
   \                     ??CrossCallReturnLabel_28:
   \   0000A1   8E82         MOV     DPL,R6
   \   0000A3   8F83         MOV     DPH,R7
   \   0000A5   E0           MOVX    A,@DPTR
   \   0000A6   F5..         MOV     ?V0 + 2,A
   \   0000A8   A3           INC     DPTR
   \   0000A9   E0           MOVX    A,@DPTR
   \   0000AA   FB           MOV     R3,A
   \   0000AB   E5..         MOV     A,?V0 + 2
   \   0000AD   8882         MOV     DPL,R0
   \   0000AF   8983         MOV     DPH,R1
   \   0000B1   12....       LCALL   ?Subroutine31 & 0xFFFF
   2584                    msg += sizeof( uint16 );
   \                     ??CrossCallReturnLabel_41:
   \   0000B4   12....       LCALL   ?Subroutine182 & 0xFFFF
   2585                    n--;
   2586                  }
   \                     ??CrossCallReturnLabel_308:
   \   0000B7   1C           DEC     R4
   \   0000B8   EC           MOV     A,R4
   \   0000B9   70E6         JNZ     ??CrossCallReturnLabel_28
   2587                }
   2588              }
   2589            }
   2590          
   2591            return ( rsp );
   \                     ??ZDO_ParseAddrRsp_2:
   \   0000BB   AA..         MOV     R2,?V0 + 0
   \   0000BD   AB..         MOV     R3,?V0 + 1
   \   0000BF   02....       LJMP    ??Subroutine256_0 & 0xFFFF
   2592          }

   \                                 In  segment BANKED_CODE, align 1, keep-with-next
   \                     ?Subroutine31:
   \   000000   F0           MOVX    @DPTR,A
   \   000001   A3           INC     DPTR
   \   000002   EB           MOV     A,R3
   \   000003   F0           MOVX    @DPTR,A
   \   000004   12....       LCALL   ?Subroutine183 & 0xFFFF
   \                     ??CrossCallReturnLabel_310:
   \   000007   22           RET

   \                                 In  segment BANKED_CODE, align 1, keep-with-next
   \                     ?Subroutine183:
   \   000000   E8           MOV     A,R0
   \   000001   2402         ADD     A,#0x2
   \   000003   08           INC     R0
   \   000004   08           INC     R0
   \   000005   E9           MOV     A,R1
   \   000006   3400         ADDC    A,#0x0
   \   000008   F9           MOV     R1,A
   \   000009   22           RET

   \                                 In  segment BANKED_CODE, align 1, keep-with-next
   \                     ?Subroutine105:
   \   000000   12....       LCALL   ?Subroutine170 & 0xFFFF
   \                     ??CrossCallReturnLabel_289:
   \   000003   22           RET

   \                                 In  segment BANKED_CODE, align 1, keep-with-next
   \                     ?Subroutine170:
   \   000000   FA           MOV     R2,A
   \   000001   A3           INC     DPTR
   \   000002   E0           MOVX    A,@DPTR
   \   000003   F9           MOV     R1,A
   \   000004   EA           MOV     A,R2
   \   000005   85..82       MOV     DPL,?V0 + 0
   \   000008   85..83       MOV     DPH,?V0 + 1
   \   00000B   22           RET

   \                                 In  segment BANKED_CODE, align 1, keep-with-next
   \                     ?Subroutine43:
   \   000000   12....       LCALL   ?Subroutine154 & 0xFFFF
   \                     ??CrossCallReturnLabel_277:
   \   000003   22           RET

   \                                 In  segment BANKED_CODE, align 1, keep-with-next
   \                     ?Subroutine154:
   \   000000   12....       LCALL   ?Subroutine188 & 0xFFFF
   \                     ??CrossCallReturnLabel_315:
   \   000003   22           RET

   \                                 In  segment BANKED_CODE, align 1, keep-with-next
   \                     ?Subroutine25:
   \   000000   12....       LCALL   ?Subroutine150 & 0xFFFF
   \                     ??CrossCallReturnLabel_271:
   \   000003   E0           MOVX    A,@DPTR
   \   000004   22           RET

   \                                 In  segment BANKED_CODE, align 1, keep-with-next
   \                     ??Subroutine247_0:
   \   000000   12....       LCALL   ?Subroutine168 & 0xFFFF
   \                     ??CrossCallReturnLabel_631:
   \   000003   22           RET

   \                                 In  segment BANKED_CODE, align 1, keep-with-next
   \                     ?Subroutine168:
   \   000000   E0           MOVX    A,@DPTR
   \   000001                REQUIRE ??Subroutine248_0
   \   000001                ; // Fall through to label ??Subroutine248_0

   \                                 In  segment BANKED_CODE, align 1, keep-with-next
   \                     ?Subroutine26:
   \   000000   12....       LCALL   ?Subroutine150 & 0xFFFF
   \                     ??CrossCallReturnLabel_272:
   \   000003   22           RET

   \                                 In  segment BANKED_CODE, align 1, keep-with-next
   \                     ??Subroutine253_0:
   \   000000   3400         ADDC    A,#0x0
   \   000002   FB           MOV     R3,A
   \   000003   12....       LCALL   ??osal_mem_alloc?relay
   \   000006   22           RET
   2593          
   2594          /*********************************************************************
   2595           * @fn          ZDO_ParseNodeDescRsp
   2596           *
   2597           * @brief       This function parses the Node_Desc_rsp message.
   2598           *
   2599           * @param       inMsg - incoming message
   2600           * @param       pNDRsp - place to parse the message into
   2601           *
   2602           * @return      none
   2603           */

   \                                 In  segment BANKED_CODE, align 1, keep-with-next
   2604          void ZDO_ParseNodeDescRsp( zdoIncomingMsg_t *inMsg, ZDO_NodeDescRsp_t *pNDRsp )
   \                     ZDO_ParseNodeDescRsp:
   2605          {
   \   000000   74F7         MOV     A,#-0x9
   \   000002   12....       LCALL   ?BANKED_ENTER_XDATA
   \   000005                ; Saved register size: 9
   \   000005                ; Auto size: 0
   2606            uint8 *msg;
   2607          
   2608            msg = inMsg->asdu;
   \   000005   12....       LCALL   ?Subroutine9 & 0xFFFF
   2609          
   2610            pNDRsp->status = *msg++;
   2611            pNDRsp->nwkAddr = BUILD_UINT16( msg[0], msg[1] );
   2612          
   2613            if ( pNDRsp->status == ZDP_SUCCESS )
   \                     ??CrossCallReturnLabel_2:
   \   000008   6003         JZ      $+5
   \   00000A   02....       LJMP    ??ZDO_ParseNodeDescRsp_0 & 0xFFFF
   2614            {
   2615              msg += 2;
   \   00000D   12....       LCALL   ?Subroutine139 & 0xFFFF
   2616              pNDRsp->nodeDesc.LogicalType = *msg & 0x07;
   \                     ??CrossCallReturnLabel_252:
   \   000010   FA           MOV     R2,A
   \   000011   ED           MOV     A,R5
   \   000012   3400         ADDC    A,#0x0
   \   000014   FB           MOV     R3,A
   \   000015   8882         MOV     DPL,R0
   \   000017   8983         MOV     DPH,R1
   \   000019   E0           MOVX    A,@DPTR
   \   00001A   5407         ANL     A,#0x7
   \   00001C   FE           MOV     R6,A
   \   00001D   8A82         MOV     DPL,R2
   \   00001F   8B83         MOV     DPH,R3
   \   000021   E0           MOVX    A,@DPTR
   \   000022   54F8         ANL     A,#0xf8
   \   000024   4E           ORL     A,R6
   \   000025   12....       LCALL   ??Subroutine242_0 & 0xFFFF
   2617          
   2618              pNDRsp->nodeDesc.ComplexDescAvail = ( *msg & 0x08 ) >> 3;
   \                     ??CrossCallReturnLabel_599:
   \   000028   A2E3         MOV     C,0xE0 /* A   */.3
   \   00002A   8B83         MOV     DPH,R3
   \   00002C   8A82         MOV     DPL,R2
   \   00002E   E0           MOVX    A,@DPTR
   \   00002F   92E3         MOV     0xE0 /* A   */.3,C
   \   000031   12....       LCALL   ??Subroutine242_0 & 0xFFFF
   2619              pNDRsp->nodeDesc.UserDescAvail = ( *msg & 0x10 ) >> 4;
   \                     ??CrossCallReturnLabel_600:
   \   000034   A2E4         MOV     C,0xE0 /* A   */.4
   \   000036   8B83         MOV     DPH,R3
   \   000038   8A82         MOV     DPL,R2
   \   00003A   E0           MOVX    A,@DPTR
   \   00003B   92E4         MOV     0xE0 /* A   */.4,C
   \   00003D   12....       LCALL   ?Subroutine49 & 0xFFFF
   2620          
   2621              msg++;  // Reserved bits.
   \                     ??CrossCallReturnLabel_94:
   \   000040   08           INC     R0
   \   000041   A983         MOV     R1,DPH
   2622              pNDRsp->nodeDesc.FrequencyBand = (*msg >> 3) & 0x1f;
   \   000043   EC           MOV     A,R4
   \   000044   2404         ADD     A,#0x4
   \   000046   0A           INC     R2
   \   000047   ED           MOV     A,R5
   \   000048   3400         ADDC    A,#0x0
   \   00004A   FB           MOV     R3,A
   \   00004B   8A82         MOV     DPL,R2
   \   00004D   8B83         MOV     DPH,R3
   \   00004F   E0           MOVX    A,@DPTR
   \   000050   5407         ANL     A,#0x7
   \   000052   FE           MOV     R6,A
   \   000053   8882         MOV     DPL,R0
   \   000055   8983         MOV     DPH,R1
   \   000057   E0           MOVX    A,@DPTR
   \   000058   54F8         ANL     A,#0xf8
   \   00005A   4E           ORL     A,R6
   \   00005B   FE           MOV     R6,A
   \   00005C   12....       LCALL   ?Subroutine36 & 0xFFFF
   2623              pNDRsp->nodeDesc.APSFlags = *msg++ & 0x07;
   \                     ??CrossCallReturnLabel_594:
   \   00005F   5407         ANL     A,#0x7
   \   000061   FF           MOV     R7,A
   \   000062   A3           INC     DPTR
   \   000063   08           INC     R0
   \   000064   A983         MOV     R1,DPH
   \   000066   74F8         MOV     A,#-0x8
   \   000068   5E           ANL     A,R6
   \   000069   4F           ORL     A,R7
   \   00006A   12....       LCALL   ?Subroutine36 & 0xFFFF
   2624              pNDRsp->nodeDesc.CapabilityFlags = *msg++;
   \                     ??CrossCallReturnLabel_595:
   \   00006D   8C82         MOV     DPL,R4
   \   00006F   8D83         MOV     DPH,R5
   \   000071   A3           INC     DPTR
   \   000072   A3           INC     DPTR
   \   000073   A3           INC     DPTR
   \   000074   A3           INC     DPTR
   \   000075   12....       LCALL   ?Subroutine24 & 0xFFFF
   2625              pNDRsp->nodeDesc.ManufacturerCode[0] = *msg++;
   \                     ??CrossCallReturnLabel_588:
   \   000078   8C82         MOV     DPL,R4
   \   00007A   8D83         MOV     DPH,R5
   \   00007C   A3           INC     DPTR
   \   00007D   A3           INC     DPTR
   \   00007E   A3           INC     DPTR
   \   00007F   A3           INC     DPTR
   \   000080   A3           INC     DPTR
   \   000081   A3           INC     DPTR
   \   000082   12....       LCALL   ?Subroutine16 & 0xFFFF
   2626              pNDRsp->nodeDesc.ManufacturerCode[1] = *msg++;
   \                     ??CrossCallReturnLabel_15:
   \   000085   12....       LCALL   ?Subroutine16 & 0xFFFF
   2627              pNDRsp->nodeDesc.MaxBufferSize = *msg++;
   \                     ??CrossCallReturnLabel_16:
   \   000088   A3           INC     DPTR
   \   000089   12....       LCALL   ?Subroutine14 & 0xFFFF
   2628              pNDRsp->nodeDesc.MaxInTransferSize[0] = *msg++;
   \                     ??CrossCallReturnLabel_11:
   \   00008C   12....       LCALL   ?Subroutine14 & 0xFFFF
   2629              pNDRsp->nodeDesc.MaxInTransferSize[1] = *msg++;
   \                     ??CrossCallReturnLabel_12:
   \   00008F   12....       LCALL   ?Subroutine24 & 0xFFFF
   2630              pNDRsp->nodeDesc.ServerMask = BUILD_UINT16( msg[0], msg[1] );
   \                     ??CrossCallReturnLabel_589:
   \   000092   FE           MOV     R6,A
   \   000093   A3           INC     DPTR
   \   000094   E0           MOVX    A,@DPTR
   \   000095   FB           MOV     R3,A
   \   000096   EE           MOV     A,R6
   \   000097   FA           MOV     R2,A
   \   000098   EC           MOV     A,R4
   \   000099   240B         ADD     A,#0xb
   \   00009B   F582         MOV     DPL,A
   \   00009D   ED           MOV     A,R5
   \   00009E   12....       LCALL   ??Subroutine233_0 & 0xFFFF
   \                     ??CrossCallReturnLabel_521:
   \   0000A1   EA           MOV     A,R2
   \   0000A2   12....       LCALL   ?Subroutine31 & 0xFFFF
   2631              msg += 2;
   2632              pNDRsp->nodeDesc.MaxOutTransferSize[0] = *msg++;
   \                     ??CrossCallReturnLabel_40:
   \   0000A5   8882         MOV     DPL,R0
   \   0000A7   8983         MOV     DPH,R1
   \   0000A9   E0           MOVX    A,@DPTR
   \   0000AA   C0E0         PUSH    A
   \   0000AC   EC           MOV     A,R4
   \   0000AD   240D         ADD     A,#0xd
   \   0000AF   F582         MOV     DPL,A
   \   0000B1   ED           MOV     A,R5
   \   0000B2   12....       LCALL   ??Subroutine233_0 & 0xFFFF
   \                     ??CrossCallReturnLabel_522:
   \   0000B5   D0E0         POP     A
   \   0000B7   12....       LCALL   ??Subroutine241_0 & 0xFFFF
   2633              pNDRsp->nodeDesc.MaxOutTransferSize[1] = *msg++;
   \                     ??CrossCallReturnLabel_590:
   \   0000BA   C0E0         PUSH    A
   \   0000BC   EC           MOV     A,R4
   \   0000BD   12....       LCALL   ??Subroutine240_0 & 0xFFFF
   \                     ??CrossCallReturnLabel_585:
   \   0000C0   ED           MOV     A,R5
   \   0000C1   12....       LCALL   ??Subroutine233_0 & 0xFFFF
   \                     ??CrossCallReturnLabel_523:
   \   0000C4   D0E0         POP     A
   \   0000C6   12....       LCALL   ?Subroutine49 & 0xFFFF
   2634              pNDRsp->nodeDesc.DescriptorCapability = *msg;
   \                     ??CrossCallReturnLabel_95:
   \   0000C9   E0           MOVX    A,@DPTR
   \   0000CA   C0E0         PUSH    A
   \   0000CC   EC           MOV     A,R4
   \   0000CD   240F         ADD     A,#0xf
   \   0000CF   F582         MOV     DPL,A
   \   0000D1   ED           MOV     A,R5
   \   0000D2   12....       LCALL   ??Subroutine233_0 & 0xFFFF
   2635            }
   \                     ??CrossCallReturnLabel_524:
   \   0000D5   D0E0         POP     A
   \   0000D7   F0           MOVX    @DPTR,A
   2636          }
   \                     ??ZDO_ParseNodeDescRsp_0:
   \   0000D8   02....       LJMP    ?Subroutine5 & 0xFFFF

   \                                 In  segment BANKED_CODE, align 1, keep-with-next
   \                     ?Subroutine24:
   \   000000   A3           INC     DPTR
   \   000001                REQUIRE ??Subroutine241_0
   \   000001                ; // Fall through to label ??Subroutine241_0

   \                                 In  segment BANKED_CODE, align 1, keep-with-next
   \                     ??Subroutine241_0:
   \   000000   12....       LCALL   ?Subroutine155 & 0xFFFF
   \                     ??CrossCallReturnLabel_593:
   \   000003   08           INC     R0
   \   000004   A983         MOV     R1,DPH
   \   000006   E0           MOVX    A,@DPTR
   \   000007   22           RET

   \                                 In  segment BANKED_CODE, align 1, keep-with-next
   \                     ?Subroutine16:
   \   000000   12....       LCALL   ?Subroutine146 & 0xFFFF
   \                     ??CrossCallReturnLabel_264:
   \   000003   22           RET

   \                                 In  segment BANKED_CODE, align 1, keep-with-next
   \                     ?Subroutine146:
   \   000000   12....       LCALL   ?Subroutine190 & 0xFFFF
   \                     ??CrossCallReturnLabel_606:
   \   000003   A3           INC     DPTR
   \   000004   08           INC     R0
   \   000005   A983         MOV     R1,DPH
   \   000007   E0           MOVX    A,@DPTR
   \   000008   8C82         MOV     DPL,R4
   \   00000A   8D83         MOV     DPH,R5
   \   00000C   A3           INC     DPTR
   \   00000D   A3           INC     DPTR
   \   00000E   A3           INC     DPTR
   \   00000F   A3           INC     DPTR
   \   000010   A3           INC     DPTR
   \   000011   A3           INC     DPTR
   \   000012   A3           INC     DPTR
   \   000013   22           RET

   \                                 In  segment BANKED_CODE, align 1, keep-with-next
   \                     ?Subroutine14:
   \   000000   12....       LCALL   ?Subroutine146 & 0xFFFF
   \                     ??CrossCallReturnLabel_265:
   \   000003   A3           INC     DPTR
   \   000004   A3           INC     DPTR
   \   000005   22           RET

   \                                 In  segment BANKED_CODE, align 1, keep-with-next
   \                     ?Subroutine139:
   \   000000   12....       LCALL   ?Subroutine183 & 0xFFFF
   \                     ??CrossCallReturnLabel_311:
   \   000003   EC           MOV     A,R4
   \   000004   2403         ADD     A,#0x3
   \   000006   22           RET

   \                                 In  segment BANKED_CODE, align 1, keep-with-next
   \                     ?Subroutine36:
   \   000000   8A82         MOV     DPL,R2
   \   000002   8B83         MOV     DPH,R3
   \   000004                REQUIRE ??Subroutine242_0
   \   000004                ; // Fall through to label ??Subroutine242_0

   \                                 In  segment BANKED_CODE, align 1, keep-with-next
   \                     ?Subroutine9:
   \   000000   12....       LCALL   ?Subroutine178 & 0xFFFF
   \                     ??CrossCallReturnLabel_304:
   \   000003   12....       LCALL   ?Subroutine159 & 0xFFFF
   \                     ??CrossCallReturnLabel_415:
   \   000006   8C82         MOV     DPL,R4
   \   000008   8D83         MOV     DPH,R5
   \   00000A   12....       LCALL   ?Subroutine155 & 0xFFFF
   \                     ??CrossCallReturnLabel_592:
   \   00000D   A882         MOV     R0,DPL
   \   00000F   A983         MOV     R1,DPH
   \   000011   E0           MOVX    A,@DPTR
   \   000012   FE           MOV     R6,A
   \   000013   A3           INC     DPTR
   \   000014   E0           MOVX    A,@DPTR
   \   000015   FB           MOV     R3,A
   \   000016   EE           MOV     A,R6
   \   000017   8C82         MOV     DPL,R4
   \   000019   8D83         MOV     DPH,R5
   \   00001B   A3           INC     DPTR
   \   00001C   F0           MOVX    @DPTR,A
   \   00001D   A3           INC     DPTR
   \   00001E   EB           MOV     A,R3
   \   00001F   F0           MOVX    @DPTR,A
   \   000020   8C82         MOV     DPL,R4
   \   000022   8D83         MOV     DPH,R5
   \   000024   E0           MOVX    A,@DPTR
   \   000025   22           RET

   \                                 In  segment BANKED_CODE, align 1, keep-with-next
   \                     ?Subroutine5:
   \   000000   7F01         MOV     R7,#0x1
   \   000002   02....       LJMP    ?BANKED_LEAVE_XDATA
   2637          
   2638          /*********************************************************************
   2639           * @fn          ZDO_ParesPowerDescRsp
   2640           *
   2641           * @brief       This function parses the Power_Desc_rsp message.
   2642           *
   2643           * @param       inMsg  - incoming message
   2644           * @param       pNPRsp - place to parse the message into
   2645           *
   2646           * @return      none
   2647           */

   \                                 In  segment BANKED_CODE, align 1, keep-with-next
   2648          void ZDO_ParsePowerDescRsp( zdoIncomingMsg_t *inMsg, ZDO_PowerRsp_t *pNPRsp )
   \                     ZDO_ParsePowerDescRsp:
   2649          {
   \   000000   74F7         MOV     A,#-0x9
   \   000002   12....       LCALL   ?BANKED_ENTER_XDATA
   \   000005                ; Saved register size: 9
   \   000005                ; Auto size: 0
   2650            uint8 *msg;
   2651          
   2652            msg = inMsg->asdu;
   \   000005   12....       LCALL   ?Subroutine9 & 0xFFFF
   2653            pNPRsp->status = *msg++;
   2654            pNPRsp->nwkAddr = BUILD_UINT16( msg[0], msg[1] );
   2655          
   2656            if ( pNPRsp->status == ZDP_SUCCESS )
   \                     ??CrossCallReturnLabel_3:
   \   000008   7057         JNZ     ??CrossCallReturnLabel_71
   2657            {
   2658              msg += 2;
   \   00000A   12....       LCALL   ?Subroutine139 & 0xFFFF
   2659              pNPRsp->pwrDesc.AvailablePowerSources = *msg >> 4;
   2660              pNPRsp->pwrDesc.PowerMode = *msg++ & 0x0F;
   2661              pNPRsp->pwrDesc.CurrentPowerSourceLevel = *msg >> 4;
   2662              pNPRsp->pwrDesc.CurrentPowerSource = *msg++ & 0x0F;
   2663            }
   \                     ??CrossCallReturnLabel_253:
   \   00000D   ED           MOV     A,R5
   \   00000E   3400         ADDC    A,#0x0
   \   000010   0C           INC     R4
   \   000011   0C           INC     R4
   \   000012   0C           INC     R4
   \   000013   FD           MOV     R5,A
   \   000014   8C82         MOV     DPL,R4
   \   000016   8D83         MOV     DPH,R5
   \   000018   E0           MOVX    A,@DPTR
   \   000019   540F         ANL     A,#0xf
   \   00001B   FA           MOV     R2,A
   \   00001C   A3           INC     DPTR
   \   00001D   E0           MOVX    A,@DPTR
   \   00001E   FB           MOV     R3,A
   \   00001F   8882         MOV     DPL,R0
   \   000021   8983         MOV     DPH,R1
   \   000023   E0           MOVX    A,@DPTR
   \   000024   54F0         ANL     A,#0xf0
   \   000026   FE           MOV     R6,A
   \   000027   EA           MOV     A,R2
   \   000028   4E           ORL     A,R6
   \   000029   FE           MOV     R6,A
   \   00002A   EB           MOV     A,R3
   \   00002B   12....       LCALL   ?Subroutine35 & 0xFFFF
   \                     ??CrossCallReturnLabel_49:
   \   00002E   A3           INC     DPTR
   \   00002F   08           INC     R0
   \   000030   A983         MOV     R1,DPH
   \   000032   EE           MOV     A,R6
   \   000033   54F0         ANL     A,#0xf0
   \   000035   4A           ORL     A,R2
   \   000036   FA           MOV     R2,A
   \   000037   8C82         MOV     DPL,R4
   \   000039   8D83         MOV     DPH,R5
   \   00003B   F0           MOVX    @DPTR,A
   \   00003C   A3           INC     DPTR
   \   00003D   EB           MOV     A,R3
   \   00003E   12....       LCALL   ??Subroutine242_0 & 0xFFFF
   \                     ??CrossCallReturnLabel_601:
   \   000041   54F0         ANL     A,#0xf0
   \   000043   FF           MOV     R7,A
   \   000044   EB           MOV     A,R3
   \   000045   540F         ANL     A,#0xf
   \   000047   FB           MOV     R3,A
   \   000048   EA           MOV     A,R2
   \   000049   FE           MOV     R6,A
   \   00004A   EF           MOV     A,R7
   \   00004B   4B           ORL     A,R3
   \   00004C   12....       LCALL   ?Subroutine35 & 0xFFFF
   \                     ??CrossCallReturnLabel_50:
   \   00004F   EF           MOV     A,R7
   \   000050   54F0         ANL     A,#0xf0
   \   000052   FF           MOV     R7,A
   \   000053   EA           MOV     A,R2
   \   000054   FB           MOV     R3,A
   \   000055   EE           MOV     A,R6
   \   000056   FA           MOV     R2,A
   \   000057   EF           MOV     A,R7
   \   000058   4B           ORL     A,R3
   \   000059   FB           MOV     R3,A
   \   00005A   8C82         MOV     DPL,R4
   \   00005C   8D83         MOV     DPH,R5
   \   00005E   12....       LCALL   ?Subroutine39 & 0xFFFF
   2664          }
   \                     ??CrossCallReturnLabel_71:
   \   000061   80..         SJMP    ?Subroutine5

   \                                 In  segment BANKED_CODE, align 1, keep-with-next
   \                     ?Subroutine35:
   \   000000   FF           MOV     R7,A
   \   000001   8C82         MOV     DPL,R4
   \   000003   8D83         MOV     DPH,R5
   \   000005   EE           MOV     A,R6
   \   000006   F0           MOVX    @DPTR,A
   \   000007   A3           INC     DPTR
   \   000008   EF           MOV     A,R7
   \   000009   12....       LCALL   ?Subroutine190 & 0xFFFF
   \                     ??CrossCallReturnLabel_605:
   \   00000C   E0           MOVX    A,@DPTR
   \   00000D   540F         ANL     A,#0xf
   \   00000F   FA           MOV     R2,A
   \   000010   22           RET
   2665          
   2666          /*********************************************************************
   2667           * @fn          ZDO_ParseSimpleDescRsp
   2668           *
   2669           * @brief       This function parse the Simple_Desc_rsp message.
   2670           *
   2671           *   NOTE: The pAppInClusterList and pAppOutClusterList fields
   2672           *         in the SimpleDescriptionFormat_t structure are allocated
   2673           *         and the calling function needs to free [osal_msg_free()]
   2674           *         these buffers.
   2675           *
   2676           * @param       inMsg  - incoming message
   2677           * @param       pSimpleDescRsp - place to parse the message into
   2678           *
   2679           * @return      none
   2680           */

   \                                 In  segment BANKED_CODE, align 1, keep-with-next
   2681          void ZDO_ParseSimpleDescRsp( zdoIncomingMsg_t *inMsg, ZDO_SimpleDescRsp_t *pSimpleDescRsp )
   \                     ZDO_ParseSimpleDescRsp:
   2682          {
   \   000000   74F7         MOV     A,#-0x9
   \   000002   12....       LCALL   ?BANKED_ENTER_XDATA
   \   000005                ; Saved register size: 9
   \   000005                ; Auto size: 0
   2683            uint8 *msg;
   2684          
   2685            msg = inMsg->asdu;
   \   000005   12....       LCALL   ?Subroutine9 & 0xFFFF
   2686            pSimpleDescRsp->status = *msg++;
   2687            pSimpleDescRsp->nwkAddr = BUILD_UINT16( msg[0], msg[1] );
   2688            msg += sizeof ( uint16 );
   2689            msg++; // Skip past the length field.
   2690          
   2691            if ( pSimpleDescRsp->status == ZDP_SUCCESS )
   \                     ??CrossCallReturnLabel_4:
   \   000008   7015         JNZ     ??ZDO_ParseSimpleDescRsp_0
   2692            {
   2693              ZDO_ParseSimpleDescBuf( msg, &(pSimpleDescRsp->simpleDesc) );
   \   00000A                ; Setup parameters for call to function ZDO_ParseSimpleDescBuf
   \   00000A   EC           MOV     A,R4
   \   00000B   2403         ADD     A,#0x3
   \   00000D   0C           INC     R4
   \   00000E   0C           INC     R4
   \   00000F   0C           INC     R4
   \   000010   ED           MOV     A,R5
   \   000011   3400         ADDC    A,#0x0
   \   000013   FD           MOV     R5,A
   \   000014   E8           MOV     A,R0
   \   000015   2403         ADD     A,#0x3
   \   000017   FA           MOV     R2,A
   \   000018   E9           MOV     A,R1
   \   000019   3400         ADDC    A,#0x0
   \   00001B   FB           MOV     R3,A
   \   00001C   12....       LCALL   ??ZDO_ParseSimpleDescBuf?relay
   2694            }
   2695          }
   \                     ??ZDO_ParseSimpleDescRsp_0:
   \   00001F                REQUIRE ?Subroutine5
   \   00001F                ; // Fall through to label ?Subroutine5
   2696          
   2697          /*********************************************************************
   2698           * @fn          ZDO_ParseEPListRsp
   2699           *
   2700           * @brief       This parse the Active_EP_rsp or Match_Desc_rsp message.
   2701           *
   2702           * @param       inMsg  - incoming message
   2703           *
   2704           * @return      none
   2705           */

   \                                 In  segment BANKED_CODE, align 1, keep-with-next
   2706          ZDO_ActiveEndpointRsp_t *ZDO_ParseEPListRsp( zdoIncomingMsg_t *inMsg )
   \                     ZDO_ParseEPListRsp:
   2707          {
   \   000000   74F0         MOV     A,#-0x10
   \   000002   12....       LCALL   ?BANKED_ENTER_XDATA
   \   000005                ; Saved register size: 16
   \   000005                ; Auto size: 0
   2708            ZDO_ActiveEndpointRsp_t *pRsp;
   2709            uint8 *msg;
   2710            uint8 Status;
   2711            uint8 cnt;
   2712          
   2713            msg = inMsg->asdu;
   \   000005   12....       LCALL   ?Subroutine178 & 0xFFFF
   \                     ??CrossCallReturnLabel_302:
   \   000008   12....       LCALL   ??Subroutine238_0 & 0xFFFF
   \                     ??CrossCallReturnLabel_572:
   \   00000B   F5..         MOV     ?V0 + 0,A
   \   00000D   A3           INC     DPTR
   \   00000E   E0           MOVX    A,@DPTR
   2714            Status = *msg++;
   \   00000F   85..82       MOV     DPL,?V0 + 0
   \   000012   F583         MOV     DPH,A
   \   000014   E0           MOVX    A,@DPTR
   \   000015   F5..         MOV     ?V0 + 7,A
   \   000017   A3           INC     DPTR
   \   000018   8582..       MOV     ?V0 + 0,DPL
   \   00001B   8583..       MOV     ?V0 + 1,DPH
   2715            cnt = msg[2];
   \   00001E   A3           INC     DPTR
   \   00001F   A3           INC     DPTR
   \   000020   E0           MOVX    A,@DPTR
   2716          
   2717            pRsp = (ZDO_ActiveEndpointRsp_t *)osal_mem_alloc( sizeof(  ZDO_ActiveEndpointRsp_t ) + cnt );
   \   000021   F582         MOV     DPL,A
   \   000023   AE82         MOV     R6,DPL
   \   000025                ; Setup parameters for call to function osal_mem_alloc
   \   000025   12....       LCALL   ?Subroutine129 & 0xFFFF
   \                     ??CrossCallReturnLabel_651:
   \   000028   8A..         MOV     ?V0 + 4,R2
   \   00002A   8B..         MOV     ?V0 + 5,R3
   2718            if ( pRsp )
   \   00002C   EA           MOV     A,R2
   \   00002D   45..         ORL     A,?V0 + 5
   \   00002F   6043         JZ      ??ZDO_ParseEPListRsp_0
   2719            {
   2720              pRsp->status = Status;
   \   000031   8A82         MOV     DPL,R2
   \   000033   8B83         MOV     DPH,R3
   \   000035   E5..         MOV     A,?V0 + 7
   \   000037   12....       LCALL   ?Subroutine153 & 0xFFFF
   2721              pRsp->nwkAddr = BUILD_UINT16( msg[0], msg[1] );
   \                     ??CrossCallReturnLabel_273:
   \   00003A   E0           MOVX    A,@DPTR
   \   00003B   FA           MOV     R2,A
   \   00003C   A3           INC     DPTR
   \   00003D   E0           MOVX    A,@DPTR
   \   00003E   F8           MOV     R0,A
   \   00003F   E4           CLR     A
   \   000040   C8           XCH     A,R0
   \   000041   F9           MOV     R1,A
   \   000042   EA           MOV     A,R2
   \   000043   85..82       MOV     DPL,?V0 + 4
   \   000046   8B83         MOV     DPH,R3
   \   000048   A3           INC     DPTR
   \   000049   12....       LCALL   ??Subroutine209_0 & 0xFFFF
   2722              msg += sizeof( uint16 );
   2723              pRsp->cnt = cnt;
   \                     ??CrossCallReturnLabel_360:
   \   00004C   85..82       MOV     DPL,?V0 + 4
   \   00004F   8B83         MOV     DPH,R3
   \   000051   A3           INC     DPTR
   \   000052   A3           INC     DPTR
   \   000053   A3           INC     DPTR
   \   000054   EE           MOV     A,R6
   \   000055   12....       LCALL   ?Subroutine48 & 0xFFFF
   2724              msg++; // pass cnt
   2725              osal_memcpy( pRsp->epList, msg, cnt );
   2726            }
   \                     ??CrossCallReturnLabel_92:
   \   000058   A3           INC     DPTR
   \   000059   A982         MOV     R1,DPL
   \   00005B   AA83         MOV     R2,DPH
   \   00005D   89..         MOV     ?V0 + 0,R1
   \   00005F   8A..         MOV     ?V0 + 1,R2
   \   000061   88..         MOV     ?V0 + 2,R0
   \   000063   78..         MOV     R0,#?V0 + 0
   \   000065   12....       LCALL   ?PUSH_XSTACK_I_THREE
   \   000068   EE           MOV     A,R6
   \   000069   FC           MOV     R4,A
   \   00006A   7D00         MOV     R5,#0x0
   \   00006C   E5..         MOV     A,?V0 + 4
   \   00006E   12....       LCALL   ?Subroutine130 & 0xFFFF
   \                     ??CrossCallReturnLabel_607:
   \   000071   12....       LCALL   ?DEALLOC_XSTACK8
   2727          
   2728            return ( pRsp );
   \                     ??ZDO_ParseEPListRsp_0:
   \   000074   AA..         MOV     R2,?V0 + 4
   \   000076   AB..         MOV     R3,?V0 + 5
   \   000078   02....       LJMP    ??Subroutine211_0 & 0xFFFF
   2729          }

   \                                 In  segment BANKED_CODE, align 1, keep-with-next
   \                     ?Subroutine130:
   \   000000   2404         ADD     A,#0x4
   \   000002   FA           MOV     R2,A
   \   000003   EB           MOV     A,R3
   \   000004                REQUIRE ??Subroutine243_0
   \   000004                ; // Fall through to label ??Subroutine243_0

   \                                 In  segment BANKED_CODE, align 1, keep-with-next
   \                     ??Subroutine243_0:
   \   000000   3400         ADDC    A,#0x0
   \   000002   FB           MOV     R3,A
   \   000003   12....       LCALL   ?Subroutine185 & 0xFFFF
   \                     ??CrossCallReturnLabel_613:
   \   000006   22           RET

   \                                 In  segment BANKED_CODE, align 1, keep-with-next
   \                     ?Subroutine129:
   \   000000   2404         ADD     A,#0x4
   \   000002                REQUIRE ??Subroutine252_0
   \   000002                ; // Fall through to label ??Subroutine252_0

   \                                 In  segment BANKED_CODE, align 1, keep-with-next
   \                     ??Subroutine252_0:
   \   000000   FA           MOV     R2,A
   \   000001   E4           CLR     A
   \   000002                REQUIRE ??Subroutine253_0
   \   000002                ; // Fall through to label ??Subroutine253_0
   2730          
   2731          /*********************************************************************
   2732           * @fn          ZDO_ParseServerDiscRsp
   2733           *
   2734           * @brief       Parse the Server_Discovery_rsp message.
   2735           *
   2736           * @param       inMsg - incoming message.
   2737           * @param       pRsp - place to put the parsed information.
   2738           *
   2739           * @return      none
   2740           */

   \                                 In  segment BANKED_CODE, align 1, keep-with-next
   2741          void ZDO_ParseServerDiscRsp( zdoIncomingMsg_t *inMsg, ZDO_ServerDiscRsp_t *pRsp )
   \                     ZDO_ParseServerDiscRsp:
   2742          {
   \   000000   74F7         MOV     A,#-0x9
   \   000002   12....       LCALL   ?BANKED_ENTER_XDATA
   \   000005                ; Saved register size: 9
   \   000005                ; Auto size: 0
   2743            pRsp->status = inMsg->asdu[0];
   \   000005   EA           MOV     A,R2
   \   000006   2413         ADD     A,#0x13
   \   000008   F8           MOV     R0,A
   \   000009   EB           MOV     A,R3
   \   00000A   12....       LCALL   ?Subroutine198 & 0xFFFF
   \                     ??CrossCallReturnLabel_508:
   \   00000D   FA           MOV     R2,A
   \   00000E   A3           INC     DPTR
   \   00000F   E0           MOVX    A,@DPTR
   \   000010   F583         MOV     DPH,A
   \   000012   8A82         MOV     DPL,R2
   \   000014   12....       LCALL   ??Subroutine250_0 & 0xFFFF
   \                     ??CrossCallReturnLabel_637:
   \   000017   12....       LCALL   ??Subroutine242_0 & 0xFFFF
   2744            pRsp->serverMask = BUILD_UINT16( inMsg->asdu[1], inMsg->asdu[2] );
   \                     ??CrossCallReturnLabel_602:
   \   00001A   F8           MOV     R0,A
   \   00001B   A3           INC     DPTR
   \   00001C   E0           MOVX    A,@DPTR
   \   00001D   F9           MOV     R1,A
   \   00001E   8882         MOV     DPL,R0
   \   000020   8983         MOV     DPH,R1
   \   000022   A3           INC     DPTR
   \   000023   E0           MOVX    A,@DPTR
   \   000024   FA           MOV     R2,A
   \   000025   8882         MOV     DPL,R0
   \   000027   8983         MOV     DPH,R1
   \   000029   A3           INC     DPTR
   \   00002A   12....       LCALL   ?Subroutine174 & 0xFFFF
   \                     ??CrossCallReturnLabel_292:
   \   00002D   12....       LCALL   ??Subroutine209_0 & 0xFFFF
   2745          }
   \                     ??CrossCallReturnLabel_361:
   \   000030   02....       LJMP    ?Subroutine5 & 0xFFFF
   2746          
   2747          /*********************************************************************
   2748           * @fn          ZDO_ParseMgmtLqiRsp
   2749           *
   2750           * @brief       This function parses the incoming Management
   2751           *              LQI response
   2752           *
   2753           * @param       inMsg - incoming message
   2754           *
   2755           * @return      a pointer to parsed response structure (NULL if not allocated).
   2756           *          This structure was allocated using osal_mem_alloc, so it must be freed
   2757           *          by the calling function [osal_mem_free()].
   2758           */

   \                                 In  segment BANKED_CODE, align 1, keep-with-next
   \                     ?Subroutine2:
   \   000000   AA..         MOV     R2,?V0 + 2
   \   000002   AB..         MOV     R3,?V0 + 3
   \   000004                REQUIRE ??Subroutine211_0
   \   000004                ; // Fall through to label ??Subroutine211_0

   \                                 In  segment BANKED_CODE, align 1, keep-with-next
   2759          ZDO_MgmtLqiRsp_t *ZDO_ParseMgmtLqiRsp( zdoIncomingMsg_t *inMsg )
   \                     ZDO_ParseMgmtLqiRsp:
   2760          {
   \   000000   74F0         MOV     A,#-0x10
   \   000002   12....       LCALL   ?BANKED_ENTER_XDATA
   \   000005                ; Saved register size: 16
   \   000005                ; Auto size: 0
   2761            ZDO_MgmtLqiRsp_t *pRsp;
   2762            uint8 status;
   2763            uint8 startIndex = 0;
   \   000005   75..00       MOV     ?V0 + 6,#0x0
   2764            uint8 neighborLqiCount = 0;
   \   000008   75..00       MOV     ?V0 + 5,#0x0
   2765            uint8 neighborLqiEntries = 0;
   \   00000B   75..00       MOV     ?V0 + 4,#0x0
   2766            uint8 *msg;
   2767          
   2768            msg = inMsg->asdu;
   \   00000E   12....       LCALL   ?Subroutine75 & 0xFFFF
   2769          
   2770            status = *msg++;
   2771            if ( status == ZSuccess )
   \                     ??CrossCallReturnLabel_156:
   \   000011   7011         JNZ     ??ZDO_ParseMgmtLqiRsp_0
   2772            {
   2773              neighborLqiEntries = *msg++;
   \   000013   E0           MOVX    A,@DPTR
   \   000014   F5..         MOV     ?V0 + 4,A
   \   000016   A3           INC     DPTR
   2774              startIndex = *msg++;
   \   000017   E0           MOVX    A,@DPTR
   \   000018   F5..         MOV     ?V0 + 6,A
   \   00001A   A3           INC     DPTR
   2775              neighborLqiCount = *msg++;
   \   00001B   E0           MOVX    A,@DPTR
   \   00001C   F5..         MOV     ?V0 + 5,A
   \   00001E   A3           INC     DPTR
   \   00001F   0E           INC     R6
   \   000020   0E           INC     R6
   \   000021   0E           INC     R6
   \   000022   AF83         MOV     R7,DPH
   2776            }
   2777          
   2778            // Allocate a buffer big enough to handle the list.
   2779            pRsp = (ZDO_MgmtLqiRsp_t *)osal_mem_alloc(
   2780                      sizeof( ZDO_MgmtLqiRsp_t ) + (neighborLqiCount * sizeof( neighborLqiItem_t )) );
   \                     ??ZDO_ParseMgmtLqiRsp_0:
   \   000024                ; Setup parameters for call to function osal_mem_alloc
   \   000024   E5..         MOV     A,?V0 + 5
   \   000026   75F00E       MOV     B,#0xe
   \   000029   12....       LCALL   ?Subroutine126 & 0xFFFF
   2781            if ( pRsp )
   \                     ??CrossCallReturnLabel_614:
   \   00002C   6054         JZ      ??ZDO_ParseMgmtLqiRsp_1
   2782            {
   2783              uint8 x;
   2784              neighborLqiItem_t *pList = pRsp->list;
   \   00002E   12....       LCALL   ?Subroutine21 & 0xFFFF
   2785              pRsp->status = status;
   2786              pRsp->neighborLqiEntries = neighborLqiEntries;
   2787              pRsp->startIndex = startIndex;
   \                     ??CrossCallReturnLabel_617:
   \   000031   E5..         MOV     A,?V0 + 6
   \   000033   12....       LCALL   ??Subroutine246_0 & 0xFFFF
   2788              pRsp->neighborLqiCount = neighborLqiCount;
   \                     ??CrossCallReturnLabel_622:
   \   000036   E5..         MOV     A,?V0 + 5
   \   000038   F0           MOVX    @DPTR,A
   2789          
   2790              for ( x = 0; x < neighborLqiCount; x++ )
   \   000039   75..00       MOV     ?V0 + 4,#0x0
   \   00003C   803D         SJMP    ??CrossCallReturnLabel_243
   2791              {
   2792                osal_cpyExtAddr(pList->extPANId, msg);   //Copy extended PAN ID
   \                     ??ZDO_ParseMgmtLqiRsp_2:
   \   00003E                ; Setup parameters for call to function sAddrExtCpy
   \   00003E   EE           MOV     A,R6
   \   00003F   FC           MOV     R4,A
   \   000040   EF           MOV     A,R7
   \   000041   FD           MOV     R5,A
   \   000042   E5..         MOV     A,?V0 + 0
   \   000044   2404         ADD     A,#0x4
   \   000046   FA           MOV     R2,A
   \   000047   E5..         MOV     A,?V0 + 1
   \   000049   3400         ADDC    A,#0x0
   \   00004B   FB           MOV     R3,A
   \   00004C   12....       LCALL   ??sAddrExtCpy?relay
   2793                msg += Z_EXTADDR_LEN;
   2794          
   2795                msg += Z_EXTADDR_LEN;  // Throwing away IEEE.
   \   00004F   EE           MOV     A,R6
   \   000050   2410         ADD     A,#0x10
   \   000052   12....       LCALL   ??Subroutine207_0 & 0xFFFF
   2796                pList->nwkAddr = BUILD_UINT16( msg[0], msg[1] );
   \                     ??CrossCallReturnLabel_358:
   \   000055   12....       LCALL   ?Subroutine105 & 0xFFFF
   \                     ??CrossCallReturnLabel_204:
   \   000058   12....       LCALL   ??Subroutine209_0 & 0xFFFF
   2797                msg += 2 + 1 + 1 + 1;      // Skip DeviceType, RxOnIdle, Rlationship, PermitJoining and Depth
   \                     ??CrossCallReturnLabel_362:
   \   00005B   EE           MOV     A,R6
   \   00005C   2405         ADD     A,#0x5
   \   00005E   12....       LCALL   ??Subroutine207_0 & 0xFFFF
   2798                pList->rxLqi = *msg++;
   \                     ??CrossCallReturnLabel_359:
   \   000061   C0E0         PUSH    A
   \   000063   E5..         MOV     A,?V0 + 0
   \   000065   240D         ADD     A,#0xd
   \   000067   12....       LCALL   ??Subroutine232_0 & 0xFFFF
   \                     ??CrossCallReturnLabel_528:
   \   00006A   D0E0         POP     A
   \   00006C   12....       LCALL   ?Subroutine43 & 0xFFFF
   2799                pList->txQuality = 0;  // This is not specified OTA by ZigBee 1.1.
   \                     ??CrossCallReturnLabel_81:
   \   00006F   12....       LCALL   ?Subroutine137 & 0xFFFF
   \                     ??CrossCallReturnLabel_535:
   \   000072   E4           CLR     A
   \   000073   F0           MOVX    @DPTR,A
   2800                pList++;
   \   000074   E5..         MOV     A,?V0 + 0
   \   000076   240E         ADD     A,#0xe
   \   000078   12....       LCALL   ?Subroutine134 & 0xFFFF
   2801              }
   \                     ??CrossCallReturnLabel_243:
   \   00007B   E5..         MOV     A,?V0 + 4
   \   00007D   C3           CLR     C
   \   00007E   95..         SUBB    A,?V0 + 5
   \   000080   40BC         JC      ??ZDO_ParseMgmtLqiRsp_2
   2802            }
   2803          
   2804            return ( pRsp );
   \                     ??ZDO_ParseMgmtLqiRsp_1:
   \   000082   02....       LJMP    ?Subroutine2 & 0xFFFF
   2805          }

   \                                 In  segment BANKED_CODE, align 1, keep-with-next
   \                     ?Subroutine126:
   \   000000   A4           MUL     AB
   \   000001   2404         ADD     A,#0x4
   \   000003   FA           MOV     R2,A
   \   000004   E5F0         MOV     A,B
   \   000006                REQUIRE ??Subroutine244_0
   \   000006                ; // Fall through to label ??Subroutine244_0

   \                                 In  segment BANKED_CODE, align 1, keep-with-next
   \                     ??Subroutine244_0:
   \   000000   3400         ADDC    A,#0x0
   \   000002   FB           MOV     R3,A
   \   000003   12....       LCALL   ??osal_mem_alloc?relay
   \   000006   8A..         MOV     ?V0 + 2,R2
   \   000008   8B..         MOV     ?V0 + 3,R3
   \   00000A   EA           MOV     A,R2
   \   00000B   45..         ORL     A,?V0 + 3
   \   00000D   22           RET

   \                                 In  segment BANKED_CODE, align 1, keep-with-next
   \                     ?Subroutine21:
   \   000000   12....       LCALL   ?Subroutine186 & 0xFFFF
   \                     ??CrossCallReturnLabel_313:
   \   000003   8A82         MOV     DPL,R2
   \   000005   8B83         MOV     DPH,R3
   \   000007   E5..         MOV     A,?V0 + 7
   \   000009                REQUIRE ??Subroutine245_0
   \   000009                ; // Fall through to label ??Subroutine245_0

   \                                 In  segment BANKED_CODE, align 1, keep-with-next
   \                     ??Subroutine245_0:
   \   000000   F0           MOVX    @DPTR,A
   \   000001   A3           INC     DPTR
   \   000002   E5..         MOV     A,?V0 + 4
   \   000004   12....       LCALL   ?Subroutine152 & 0xFFFF
   \                     ??CrossCallReturnLabel_624:
   \   000007   22           RET

   \                                 In  segment BANKED_CODE, align 1, keep-with-next
   \                     ?Subroutine152:
   \   000000   F0           MOVX    @DPTR,A
   \   000001   8A82         MOV     DPL,R2
   \   000003   8B83         MOV     DPH,R3
   \   000005   A3           INC     DPTR
   \   000006   A3           INC     DPTR
   \   000007   22           RET

   \                                 In  segment BANKED_CODE, align 1, keep-with-next
   \                     ?Subroutine186:
   \   000000   EA           MOV     A,R2
   \   000001   2404         ADD     A,#0x4
   \   000003   F5..         MOV     ?V0 + 0,A
   \   000005   EB           MOV     A,R3
   \   000006   3400         ADDC    A,#0x0
   \   000008   F5..         MOV     ?V0 + 1,A
   \   00000A   22           RET

   \                                 In  segment BANKED_CODE, align 1, keep-with-next
   \                     ?Subroutine134:
   \   000000   F5..         MOV     ?V0 + 0,A
   \   000002   E5..         MOV     A,?V0 + 1
   \   000004   3400         ADDC    A,#0x0
   \   000006   F5..         MOV     ?V0 + 1,A
   \   000008   05..         INC     ?V0 + 4
   \   00000A   22           RET

   \                                 In  segment BANKED_CODE, align 1, keep-with-next
   \                     ??Subroutine246_0:
   \   000000   12....       LCALL   ?Subroutine152 & 0xFFFF
   \                     ??CrossCallReturnLabel_626:
   \   000003   A3           INC     DPTR
   \   000004   22           RET

   \                                 In  segment BANKED_CODE, align 1, keep-with-next
   \                     ?Subroutine75:
   \   000000   12....       LCALL   ?Subroutine177 & 0xFFFF
   \                     ??CrossCallReturnLabel_298:
   \   000003   12....       LCALL   ?Subroutine168 & 0xFFFF
   \                     ??CrossCallReturnLabel_632:
   \   000006   F5..         MOV     ?V0 + 7,A
   \   000008   A3           INC     DPTR
   \   000009   AE82         MOV     R6,DPL
   \   00000B   AF83         MOV     R7,DPH
   \   00000D   22           RET
   2806          
   2807          /*********************************************************************
   2808           * @fn          ZDO_ParseMgmNwkDiscRsp
   2809           *
   2810           * @brief       This function parses the incoming Management
   2811           *              Network Discover response.
   2812           *
   2813           * @param       inMsg - incoming message
   2814           *
   2815           * @return      pointer to parsed response.  This structure was
   2816           *          allocated using osal_mem_alloc, so it must be freed
   2817           *          by the calling function [osal_mem_free()].
   2818           */

   \                                 In  segment BANKED_CODE, align 1, keep-with-next
   2819          ZDO_MgmNwkDiscRsp_t *ZDO_ParseMgmNwkDiscRsp( zdoIncomingMsg_t *inMsg )
   \                     ZDO_ParseMgmNwkDiscRsp:
   2820          {
   \   000000   74F0         MOV     A,#-0x10
   \   000002   12....       LCALL   ?BANKED_ENTER_XDATA
   \   000005                ; Saved register size: 16
   \   000005                ; Auto size: 0
   2821            ZDO_MgmNwkDiscRsp_t *pRsp;
   2822            uint8 status;
   2823            uint8 networkCount = 0;
   \   000005   75..00       MOV     ?V0 + 0,#0x0
   2824            uint8 startIndex = 0;
   \   000008   75..00       MOV     ?V0 + 1,#0x0
   2825            uint8 networkListCount = 0;
   \   00000B   75..00       MOV     ?V0 + 7,#0x0
   2826            uint8 *msg;
   2827          
   2828            msg = inMsg->asdu;
   \   00000E   12....       LCALL   ?Subroutine76 & 0xFFFF
   2829            status = *msg++;
   \                     ??CrossCallReturnLabel_627:
   \   000011   F5..         MOV     ?V0 + 6,A
   \   000013   A3           INC     DPTR
   \   000014   AE82         MOV     R6,DPL
   \   000016   AF83         MOV     R7,DPH
   2830          
   2831            if ( status == ZSuccess )
   \   000018   700D         JNZ     ??ZDO_ParseMgmNwkDiscRsp_0
   2832            {
   2833              networkCount = *msg++;
   \   00001A   12....       LCALL   ??Subroutine199_0 & 0xFFFF
   2834              startIndex = *msg++;
   \                     ??CrossCallReturnLabel_325:
   \   00001D   A3           INC     DPTR
   2835              networkListCount = *msg++;
   \   00001E   E0           MOVX    A,@DPTR
   \   00001F   F5..         MOV     ?V0 + 7,A
   \   000021   A3           INC     DPTR
   \   000022   0E           INC     R6
   \   000023   0E           INC     R6
   \   000024   0E           INC     R6
   \   000025   AF83         MOV     R7,DPH
   2836            }
   2837          
   2838            // Allocate a buffer big enough to handle the list.
   2839            pRsp = (ZDO_MgmNwkDiscRsp_t *)osal_mem_alloc( sizeof( ZDO_MgmNwkDiscRsp_t )
   2840                                            + (networkListCount * sizeof( mgmtNwkDiscItem_t )) );
   \                     ??ZDO_ParseMgmNwkDiscRsp_0:
   \   000027                ; Setup parameters for call to function osal_mem_alloc
   \   000027   85....       MOV     ?V0 + 2,?V0 + 7
   \   00002A   75..00       MOV     ?V0 + 3,#0x0
   \   00002D   7404         MOV     A,#0x4
   \   00002F   78..         MOV     R0,#?V0 + 2
   \   000031   12....       LCALL   ?S_SHL
   \   000034   E5..         MOV     A,?V0 + 2
   \   000036   2404         ADD     A,#0x4
   \   000038   FA           MOV     R2,A
   \   000039   E5..         MOV     A,?V0 + 3
   \   00003B   12....       LCALL   ??Subroutine244_0 & 0xFFFF
   2841            if ( pRsp )
   \                     ??CrossCallReturnLabel_616:
   \   00003E   7003         JNZ     $+5
   \   000040   02....       LJMP    ??ZDO_ParseMgmNwkDiscRsp_1 & 0xFFFF
   2842            {
   2843              uint8 x;
   2844              mgmtNwkDiscItem_t *pList;
   2845          
   2846              pRsp->status = status;
   \   000043   8A82         MOV     DPL,R2
   \   000045   8B83         MOV     DPH,R3
   \   000047   E5..         MOV     A,?V0 + 6
   \   000049   F0           MOVX    @DPTR,A
   2847              pRsp->networkCount = networkCount;
   \   00004A   A3           INC     DPTR
   \   00004B   E5..         MOV     A,?V0 + 0
   \   00004D   12....       LCALL   ?Subroutine152 & 0xFFFF
   2848              pRsp->startIndex = startIndex;
   \                     ??CrossCallReturnLabel_625:
   \   000050   12....       LCALL   ?Subroutine23 & 0xFFFF
   2849              pRsp->networkListCount = networkListCount;
   \                     ??CrossCallReturnLabel_620:
   \   000053   E5..         MOV     A,?V0 + 7
   \   000055   F0           MOVX    @DPTR,A
   2850              pList = pRsp->list;
   \   000056   12....       LCALL   ?Subroutine186 & 0xFFFF
   2851          
   2852              for ( x = 0; x < networkListCount; x++ )
   \                     ??CrossCallReturnLabel_312:
   \   000059   75..00       MOV     ?V0 + 4,#0x0
   \   00005C   8071         SJMP    ??CrossCallReturnLabel_244
   2853              {
   2854                osal_cpyExtAddr(pList->extendedPANID, msg);   //Copy extended PAN ID
   \                     ??ZDO_ParseMgmNwkDiscRsp_2:
   \   00005E                ; Setup parameters for call to function sAddrExtCpy
   \   00005E   EE           MOV     A,R6
   \   00005F   FC           MOV     R4,A
   \   000060   EF           MOV     A,R7
   \   000061   FD           MOV     R5,A
   \   000062   AA..         MOV     R2,?V0 + 0
   \   000064   AB..         MOV     R3,?V0 + 1
   \   000066   12....       LCALL   ??sAddrExtCpy?relay
   2855                pList->PANId = BUILD_UINT16( msg[0], msg[1] );
   \   000069   12....       LCALL   ?Subroutine70 & 0xFFFF
   \                     ??CrossCallReturnLabel_147:
   \   00006C   A3           INC     DPTR
   \   00006D   12....       LCALL   ??Subroutine209_0 & 0xFFFF
   2856                msg += Z_EXTADDR_LEN;
   \                     ??CrossCallReturnLabel_363:
   \   000070   EE           MOV     A,R6
   \   000071   2408         ADD     A,#0x8
   \   000073   FE           MOV     R6,A
   \   000074   EF           MOV     A,R7
   \   000075   3400         ADDC    A,#0x0
   \   000077   FF           MOV     R7,A
   2857          
   2858                pList->logicalChannel = *msg++;
   \   000078   8E82         MOV     DPL,R6
   \   00007A   8F83         MOV     DPH,R7
   \   00007C   12....       LCALL   ?Subroutine69 & 0xFFFF
   \                     ??CrossCallReturnLabel_144:
   \   00007F   12....       LCALL   ?Subroutine42 & 0xFFFF
   2859                pList->stackProfile = (*msg) & 0x0F;
   \                     ??CrossCallReturnLabel_78:
   \   000082   540F         ANL     A,#0xf
   \   000084   C0E0         PUSH    A
   \   000086   E5..         MOV     A,?V0 + 0
   \   000088   240B         ADD     A,#0xb
   \   00008A   12....       LCALL   ??Subroutine232_0 & 0xFFFF
   \                     ??CrossCallReturnLabel_529:
   \   00008D   D0E0         POP     A
   \   00008F   12....       LCALL   ?Subroutine50 & 0xFFFF
   2860                pList->version = (*msg++ >> 4) & 0x0F;
   \                     ??CrossCallReturnLabel_96:
   \   000092   C0E0         PUSH    A
   \   000094   12....       LCALL   ?Subroutine137 & 0xFFFF
   \                     ??CrossCallReturnLabel_536:
   \   000097   D0E0         POP     A
   \   000099   12....       LCALL   ?Subroutine25 & 0xFFFF
   2861                pList->beaconOrder = (*msg) & 0x0F;
   \                     ??CrossCallReturnLabel_26:
   \   00009C   540F         ANL     A,#0xf
   \   00009E   C0E0         PUSH    A
   \   0000A0   E5..         MOV     A,?V0 + 0
   \   0000A2   240D         ADD     A,#0xd
   \   0000A4   12....       LCALL   ??Subroutine232_0 & 0xFFFF
   \                     ??CrossCallReturnLabel_530:
   \   0000A7   D0E0         POP     A
   \   0000A9   12....       LCALL   ?Subroutine50 & 0xFFFF
   2862                pList->superFrameOrder = (*msg++ >> 4) & 0x0F;
   \                     ??CrossCallReturnLabel_97:
   \   0000AC   C0E0         PUSH    A
   \   0000AE   E5..         MOV     A,?V0 + 0
   \   0000B0   240E         ADD     A,#0xe
   \   0000B2   12....       LCALL   ??Subroutine232_0 & 0xFFFF
   \                     ??CrossCallReturnLabel_531:
   \   0000B5   D0E0         POP     A
   \   0000B7   12....       LCALL   ?Subroutine25 & 0xFFFF
   2863                pList->permitJoining = *msg++;
   \                     ??CrossCallReturnLabel_27:
   \   0000BA   C0E0         PUSH    A
   \   0000BC   E5..         MOV     A,?V0 + 0
   \   0000BE   240F         ADD     A,#0xf
   \   0000C0   12....       LCALL   ??Subroutine232_0 & 0xFFFF
   \                     ??CrossCallReturnLabel_532:
   \   0000C3   D0E0         POP     A
   \   0000C5   12....       LCALL   ?Subroutine26 & 0xFFFF
   2864                pList++;
   \                     ??CrossCallReturnLabel_29:
   \   0000C8   E5..         MOV     A,?V0 + 0
   \   0000CA   2410         ADD     A,#0x10
   \   0000CC   12....       LCALL   ?Subroutine134 & 0xFFFF
   2865              }
   \                     ??CrossCallReturnLabel_244:
   \   0000CF   E5..         MOV     A,?V0 + 4
   \   0000D1   C3           CLR     C
   \   0000D2   95..         SUBB    A,?V0 + 7
   \   0000D4   4088         JC      ??ZDO_ParseMgmNwkDiscRsp_2
   2866            }
   2867          
   2868            return ( pRsp );
   \                     ??ZDO_ParseMgmNwkDiscRsp_1:
   \   0000D6   02....       LJMP    ?Subroutine2 & 0xFFFF
   2869          }

   \                                 In  segment BANKED_CODE, align 1, keep-with-next
   \                     ?Subroutine50:
   \   000000   12....       LCALL   ?Subroutine189 & 0xFFFF
   \                     ??CrossCallReturnLabel_318:
   \   000003   E0           MOVX    A,@DPTR
   \   000004   C4           SWAP    A
   \   000005   540F         ANL     A,#0xf
   \   000007   22           RET

   \                                 In  segment BANKED_CODE, align 1, keep-with-next
   \                     ?Subroutine23:
   \   000000   E5..         MOV     A,?V0 + 1
   \   000002                REQUIRE ??Subroutine246_0
   \   000002                ; // Fall through to label ??Subroutine246_0

   \                                 In  segment BANKED_CODE, align 1, keep-with-next
   \                     ?Subroutine76:
   \   000000   12....       LCALL   ?Subroutine177 & 0xFFFF
   \                     ??CrossCallReturnLabel_299:
   \   000003                REQUIRE ??Subroutine247_0
   \   000003                ; // Fall through to label ??Subroutine247_0

   \                                 In  segment BANKED_CODE, align 1, keep-with-next
   \                     ?Subroutine42:
   \   000000   A3           INC     DPTR
   \   000001   A3           INC     DPTR
   \   000002   A3           INC     DPTR
   \   000003   A3           INC     DPTR
   \   000004   A3           INC     DPTR
   \   000005   12....       LCALL   ?Subroutine154 & 0xFFFF
   \                     ??CrossCallReturnLabel_276:
   \   000008   E0           MOVX    A,@DPTR
   \   000009   22           RET

   \                                 In  segment BANKED_CODE, align 1, keep-with-next
   \                     ?Subroutine70:
   \   000000   8E82         MOV     DPL,R6
   \   000002   8F83         MOV     DPH,R7
   \   000004   E0           MOVX    A,@DPTR
   \   000005   12....       LCALL   ?Subroutine170 & 0xFFFF
   \                     ??CrossCallReturnLabel_288:
   \   000008   A3           INC     DPTR
   \   000009   A3           INC     DPTR
   \   00000A   A3           INC     DPTR
   \   00000B   A3           INC     DPTR
   \   00000C   A3           INC     DPTR
   \   00000D   A3           INC     DPTR
   \   00000E   A3           INC     DPTR
   \   00000F   22           RET

   \                                 In  segment BANKED_CODE, align 1, keep-with-next
   \                     ?Subroutine69:
   \   000000   E0           MOVX    A,@DPTR
   \   000001   85..82       MOV     DPL,?V0 + 0
   \   000004   85..83       MOV     DPH,?V0 + 1
   \   000007   A3           INC     DPTR
   \   000008   A3           INC     DPTR
   \   000009   A3           INC     DPTR
   \   00000A   A3           INC     DPTR
   \   00000B   A3           INC     DPTR
   \   00000C   22           RET
   2870          
   2871          /*********************************************************************
   2872           * @fn          ZDO_ParseMgmtRtgRsp
   2873           *
   2874           * @brief       This function parses the incoming Management
   2875           *              Routing response.
   2876           *
   2877           * @param       inMsg - incoming message
   2878           *
   2879           * @return      a pointer to parsed response structure (NULL if not allocated).
   2880           *          This structure was allocated using osal_mem_alloc, so it must be freed
   2881           *          by the calling function [osal_mem_free()].
   2882           */

   \                                 In  segment BANKED_CODE, align 1, keep-with-next
   2883          ZDO_MgmtRtgRsp_t *ZDO_ParseMgmtRtgRsp( zdoIncomingMsg_t *inMsg )
   \                     ZDO_ParseMgmtRtgRsp:
   2884          {
   \   000000   74F2         MOV     A,#-0xe
   \   000002   12....       LCALL   ?BANKED_ENTER_XDATA
   \   000005                ; Saved register size: 14
   \   000005                ; Auto size: 0
   2885            ZDO_MgmtRtgRsp_t *pRsp;
   2886            uint8 status;
   2887            uint8 rtgCount = 0;
   \   000005   75..00       MOV     ?V0 + 4,#0x0
   2888            uint8 startIndex = 0;
   \   000008   75..00       MOV     ?V0 + 1,#0x0
   2889            uint8 rtgListCount = 0;
   \   00000B   75..00       MOV     ?V0 + 0,#0x0
   2890            uint8 *msg;
   2891          
   2892            msg = inMsg->asdu;
   \   00000E   12....       LCALL   ?Subroutine76 & 0xFFFF
   2893          
   2894            status = *msg++;
   \                     ??CrossCallReturnLabel_628:
   \   000011   F5..         MOV     ?V0 + 5,A
   \   000013   A3           INC     DPTR
   \   000014   AE82         MOV     R6,DPL
   \   000016   AF83         MOV     R7,DPH
   2895            if ( status == ZSuccess )
   \   000018   7011         JNZ     ??ZDO_ParseMgmtRtgRsp_0
   2896            {
   2897              rtgCount = *msg++;
   \   00001A   E0           MOVX    A,@DPTR
   \   00001B   F5..         MOV     ?V0 + 4,A
   \   00001D   A3           INC     DPTR
   2898              startIndex = *msg++;
   \   00001E   E0           MOVX    A,@DPTR
   \   00001F   F5..         MOV     ?V0 + 1,A
   \   000021   A3           INC     DPTR
   2899              rtgListCount = *msg++;
   \   000022   E0           MOVX    A,@DPTR
   \   000023   F5..         MOV     ?V0 + 0,A
   \   000025   A3           INC     DPTR
   \   000026   0E           INC     R6
   \   000027   0E           INC     R6
   \   000028   0E           INC     R6
   \   000029   AF83         MOV     R7,DPH
   2900            }
   2901          
   2902            // Allocate a buffer big enough to handle the list
   2903            pRsp = (ZDO_MgmtRtgRsp_t *)osal_mem_alloc(
   2904                    sizeof( ZDO_MgmtRtgRsp_t ) + (rtgListCount * sizeof( rtgItem_t )) );
   \                     ??ZDO_ParseMgmtRtgRsp_0:
   \   00002B                ; Setup parameters for call to function osal_mem_alloc
   \   00002B   E5..         MOV     A,?V0 + 0
   \   00002D   75F007       MOV     B,#0x7
   \   000030   A4           MUL     AB
   \   000031   2404         ADD     A,#0x4
   \   000033   FA           MOV     R2,A
   \   000034   E5F0         MOV     A,B
   \   000036   12....       LCALL   ??Subroutine253_0 & 0xFFFF
   2905            if ( pRsp )
   \                     ??CrossCallReturnLabel_655:
   \   000039   EA           MOV     A,R2
   \   00003A   4B           ORL     A,R3
   \   00003B   604C         JZ      ??ZDO_ParseMgmtRtgRsp_1
   2906            {
   2907              uint8 x;
   2908              rtgItem_t *pList = pRsp->list;
   \   00003D   EA           MOV     A,R2
   \   00003E   2404         ADD     A,#0x4
   \   000040   F8           MOV     R0,A
   \   000041   EB           MOV     A,R3
   \   000042   3400         ADDC    A,#0x0
   \   000044   F9           MOV     R1,A
   2909              pRsp->status = status;
   \   000045   8A82         MOV     DPL,R2
   \   000047   8B83         MOV     DPH,R3
   \   000049   E5..         MOV     A,?V0 + 5
   \   00004B   12....       LCALL   ??Subroutine245_0 & 0xFFFF
   2910              pRsp->rtgCount = rtgCount;
   2911              pRsp->startIndex = startIndex;
   \                     ??CrossCallReturnLabel_619:
   \   00004E   12....       LCALL   ?Subroutine23 & 0xFFFF
   2912              pRsp->rtgListCount = rtgListCount;
   \                     ??CrossCallReturnLabel_621:
   \   000051   E5..         MOV     A,?V0 + 0
   \   000053   F0           MOVX    @DPTR,A
   2913          
   2914              for ( x = 0; x < rtgListCount; x++ )
   \   000054   7C00         MOV     R4,#0x0
   \   000056   802B         SJMP    ??ZDO_ParseMgmtRtgRsp_2
   2915              {
   2916                pList->dstAddress = BUILD_UINT16( msg[0], msg[1] );
   \                     ??ZDO_ParseMgmtRtgRsp_3:
   \   000058   8E82         MOV     DPL,R6
   \   00005A   8F83         MOV     DPH,R7
   \   00005C   E0           MOVX    A,@DPTR
   \   00005D   12....       LCALL   ?Subroutine111 & 0xFFFF
   \                     ??CrossCallReturnLabel_209:
   \   000060   F0           MOVX    @DPTR,A
   \   000061   A3           INC     DPTR
   \   000062   E5..         MOV     A,?V0 + 3
   \   000064   12....       LCALL   ??Subroutine251_0 & 0xFFFF
   2917                msg += 2;
   2918                pList->status = *msg++;
   \                     ??CrossCallReturnLabel_643:
   \   000067   8882         MOV     DPL,R0
   \   000069   8983         MOV     DPH,R1
   \   00006B   12....       LCALL   ?Subroutine42 & 0xFFFF
   2919                pList->nextHopAddress = BUILD_UINT16( msg[0], msg[1] );
   \                     ??CrossCallReturnLabel_79:
   \   00006E   12....       LCALL   ?Subroutine111 & 0xFFFF
   \                     ??CrossCallReturnLabel_210:
   \   000071   A3           INC     DPTR
   \   000072   A3           INC     DPTR
   \   000073   F0           MOVX    @DPTR,A
   \   000074   A3           INC     DPTR
   \   000075   E5..         MOV     A,?V0 + 3
   \   000077   12....       LCALL   ?Subroutine44 & 0xFFFF
   2920                msg += 2;
   2921                pList++;
   \                     ??CrossCallReturnLabel_83:
   \   00007A   E8           MOV     A,R0
   \   00007B   2407         ADD     A,#0x7
   \   00007D   F8           MOV     R0,A
   \   00007E   E9           MOV     A,R1
   \   00007F   3400         ADDC    A,#0x0
   \   000081   F9           MOV     R1,A
   2922              }
   \   000082   0C           INC     R4
   \                     ??ZDO_ParseMgmtRtgRsp_2:
   \   000083   EC           MOV     A,R4
   \   000084   C3           CLR     C
   \   000085   95..         SUBB    A,?V0 + 0
   \   000087   40CF         JC      ??ZDO_ParseMgmtRtgRsp_3
   2923            }
   2924          
   2925            return ( pRsp );
   \                     ??ZDO_ParseMgmtRtgRsp_1:
   \   000089   02....       LJMP    ??Subroutine256_0 & 0xFFFF
   2926          }

   \                                 In  segment BANKED_CODE, align 1, keep-with-next
   \                     ?Subroutine111:
   \   000000   F5..         MOV     ?V0 + 4,A
   \   000002   A3           INC     DPTR
   \   000003   E0           MOVX    A,@DPTR
   \   000004   F5..         MOV     ?V0 + 3,A
   \   000006   E5..         MOV     A,?V0 + 4
   \   000008   8882         MOV     DPL,R0
   \   00000A   8983         MOV     DPH,R1
   \   00000C   22           RET

   \                                 In  segment BANKED_CODE, align 1, keep-with-next
   \                     ?Subroutine44:
   \   000000   12....       LCALL   ?Subroutine148 & 0xFFFF
   \                     ??CrossCallReturnLabel_644:
   \   000003   22           RET

   \                                 In  segment BANKED_CODE, align 1, keep-with-next
   \                     ?Subroutine148:
   \   000000   12....       LCALL   ?Subroutine187 & 0xFFFF
   \                     ??CrossCallReturnLabel_647:
   \   000003   22           RET

   \                                 In  segment BANKED_CODE, align 1, keep-with-next
   \                     ??Subroutine251_0:
   \   000000   12....       LCALL   ?Subroutine148 & 0xFFFF
   \                     ??CrossCallReturnLabel_646:
   \   000003   8E82         MOV     DPL,R6
   \   000005   8F83         MOV     DPH,R7
   \   000007   E0           MOVX    A,@DPTR
   \   000008   22           RET
   2927          
   2928          /*********************************************************************
   2929           * @fn          ZDO_ParseMgmtBindRsp
   2930           *
   2931           * @brief       This function parses the incoming Management
   2932           *              Binding response.
   2933           *
   2934           * @param       inMsg - pointer to message to parse
   2935           *
   2936           * @return      a pointer to parsed response structure (NULL if not allocated).
   2937           *          This structure was allocated using osal_mem_alloc, so it must be freed
   2938           *          by the calling function [osal_mem_free()].
   2939           */

   \                                 In  segment BANKED_CODE, align 1, keep-with-next
   2940          ZDO_MgmtBindRsp_t *ZDO_ParseMgmtBindRsp( zdoIncomingMsg_t *inMsg )
   \                     ZDO_ParseMgmtBindRsp:
   2941          {
   \   000000   74F0         MOV     A,#-0x10
   \   000002   12....       LCALL   ?BANKED_ENTER_XDATA
   \   000005                ; Saved register size: 16
   \   000005                ; Auto size: 0
   2942            ZDO_MgmtBindRsp_t *pRsp;
   2943            uint8 status;
   2944            uint8 bindingCount = 0;
   \   000005   75..00       MOV     ?V0 + 4,#0x0
   2945            uint8 startIndex = 0;
   \   000008   75..00       MOV     ?V0 + 5,#0x0
   2946            uint8 bindingListCount = 0;
   \   00000B   75..00       MOV     ?V0 + 6,#0x0
   2947            uint8 *msg;
   2948          
   2949            msg = inMsg->asdu;
   \   00000E   12....       LCALL   ?Subroutine75 & 0xFFFF
   2950          
   2951            status = *msg++;
   2952            if ( status == ZSuccess )
   \                     ??CrossCallReturnLabel_157:
   \   000011   7011         JNZ     ??ZDO_ParseMgmtBindRsp_0
   2953            {
   2954              bindingCount = *msg++;
   \   000013   E0           MOVX    A,@DPTR
   \   000014   F5..         MOV     ?V0 + 4,A
   \   000016   A3           INC     DPTR
   2955              startIndex = *msg++;
   \   000017   E0           MOVX    A,@DPTR
   \   000018   F5..         MOV     ?V0 + 5,A
   \   00001A   A3           INC     DPTR
   2956              bindingListCount = *msg++;
   \   00001B   E0           MOVX    A,@DPTR
   \   00001C   F5..         MOV     ?V0 + 6,A
   \   00001E   A3           INC     DPTR
   \   00001F   0E           INC     R6
   \   000020   0E           INC     R6
   \   000021   0E           INC     R6
   \   000022   AF83         MOV     R7,DPH
   2957            }
   2958          
   2959            // Allocate a buffer big enough to handle the list
   2960            pRsp = (ZDO_MgmtBindRsp_t *)osal_mem_alloc(
   2961                    (sizeof ( ZDO_MgmtBindRsp_t ) + (bindingListCount * sizeof( apsBindingItem_t ))) );
   \                     ??ZDO_ParseMgmtBindRsp_0:
   \   000024                ; Setup parameters for call to function osal_mem_alloc
   \   000024   E5..         MOV     A,?V0 + 6
   \   000026   75F015       MOV     B,#0x15
   \   000029   12....       LCALL   ?Subroutine126 & 0xFFFF
   2962            if ( pRsp )
   \                     ??CrossCallReturnLabel_615:
   \   00002C   6040         JZ      ??ZDO_ParseMgmtBindRsp_1
   2963            {
   2964              uint8 x;
   2965              apsBindingItem_t *pList = pRsp->list;
   \   00002E   12....       LCALL   ?Subroutine21 & 0xFFFF
   2966              pRsp->status = status;
   2967              pRsp->bindingCount = bindingCount;
   2968              pRsp->startIndex = startIndex;
   \                     ??CrossCallReturnLabel_618:
   \   000031   E5..         MOV     A,?V0 + 5
   \   000033   12....       LCALL   ??Subroutine246_0 & 0xFFFF
   2969              pRsp->bindingListCount = bindingListCount;
   \                     ??CrossCallReturnLabel_623:
   \   000036   E5..         MOV     A,?V0 + 6
   \   000038   F0           MOVX    @DPTR,A
   2970          
   2971              for ( x = 0; x < bindingListCount; x++ )
   \   000039   75..00       MOV     ?V0 + 4,#0x0
   \   00003C   800D         SJMP    ??CrossCallReturnLabel_245
   2972              {
   2973                osal_cpyExtAddr( pList->srcAddr, msg );
   2974                msg += Z_EXTADDR_LEN;
   2975                pList->srcEP = *msg++;
   2976          
   2977                // Get the Cluster ID
   2978          
   2979                pList->clusterID = BUILD_UINT16( msg[0], msg[1] );
   2980                msg += 2;
   2981                pList->dstAddr.addrMode = *msg++;
   2982                if ( pList->dstAddr.addrMode == Addr64Bit )
   2983                {
   2984                  osal_cpyExtAddr( pList->dstAddr.addr.extAddr, msg );
   2985                  msg += Z_EXTADDR_LEN;
   2986                  pList->dstEP = *msg++;
   2987                }
   2988                else
   2989                {
   2990                  pList->dstAddr.addr.shortAddr = BUILD_UINT16( msg[0], msg[1] );
   \                     ??ZDO_ParseMgmtBindRsp_2:
   \   00003E   12....       LCALL   ?Subroutine90 & 0xFFFF
   2991                  msg += 2;
   2992                }
   \                     ??CrossCallReturnLabel_184:
   \   000041   12....       LCALL   ?Subroutine44 & 0xFFFF
   2993          
   2994                pList++;
   \                     ??CrossCallReturnLabel_84:
   \   000044   E5..         MOV     A,?V0 + 0
   \   000046   2415         ADD     A,#0x15
   \   000048   12....       LCALL   ?Subroutine134 & 0xFFFF
   \                     ??CrossCallReturnLabel_245:
   \   00004B   E5..         MOV     A,?V0 + 4
   \   00004D   C3           CLR     C
   \   00004E   95..         SUBB    A,?V0 + 6
   \   000050   501C         JNC     ??ZDO_ParseMgmtBindRsp_1
   \   000052                ; Setup parameters for call to function sAddrExtCpy
   \   000052   12....       LCALL   ?Subroutine8 & 0xFFFF
   \                     ??CrossCallReturnLabel_1:
   \   000055   70E7         JNZ     ??ZDO_ParseMgmtBindRsp_2
   \   000057                ; Setup parameters for call to function sAddrExtCpy
   \   000057   EE           MOV     A,R6
   \   000058   FC           MOV     R4,A
   \   000059   EF           MOV     A,R7
   \   00005A   FD           MOV     R5,A
   \   00005B   12....       LCALL   ??Subroutine236_0 & 0xFFFF
   2995              }
   2996            }
   \                     ??CrossCallReturnLabel_560:
   \   00005E   C0E0         PUSH    A
   \   000060   E5..         MOV     A,?V0 + 0
   \   000062   2414         ADD     A,#0x14
   \   000064   12....       LCALL   ??Subroutine232_0 & 0xFFFF
   \                     ??CrossCallReturnLabel_533:
   \   000067   D0E0         POP     A
   \   000069   12....       LCALL   ?Subroutine26 & 0xFFFF
   \                     ??CrossCallReturnLabel_30:
   \   00006C   80D6         SJMP    ??CrossCallReturnLabel_84
   2997          
   2998            return ( pRsp );
   \                     ??ZDO_ParseMgmtBindRsp_1:
   \   00006E   02....       LJMP    ?Subroutine2 & 0xFFFF
   2999          }
   3000          
   3001          /*********************************************************************
   3002           * @fn          ZDO_ParseUserDescRsp
   3003           *
   3004           * @brief       This function parses the incoming User
   3005           *              Descriptor Response.
   3006           *
   3007           * @param       inMsg - incoming response message
   3008           *
   3009           * @return      a pointer to parsed response structure (NULL if not allocated).
   3010           *          This structure was allocated using osal_mem_alloc, so it must be freed
   3011           *          by the calling function [osal_mem_free()].
   3012           */

   \                                 In  segment BANKED_CODE, align 1, keep-with-next
   3013          ZDO_UserDescRsp_t *ZDO_ParseUserDescRsp( zdoIncomingMsg_t *inMsg )
   \                     ZDO_ParseUserDescRsp:
   3014          {
   \   000000   74F0         MOV     A,#-0x10
   \   000002   12....       LCALL   ?BANKED_ENTER_XDATA
   \   000005                ; Saved register size: 16
   \   000005                ; Auto size: 0
   3015            ZDO_UserDescRsp_t *pRsp;
   3016            uint8 *msg;
   3017            uint8 descLen = 0;
   \   000005   75..00       MOV     ?V0 + 2,#0x0
   3018          
   3019            msg = inMsg->asdu;
   \   000008   12....       LCALL   ?Subroutine178 & 0xFFFF
   \                     ??CrossCallReturnLabel_303:
   \   00000B   3400         ADDC    A,#0x0
   \   00000D   12....       LCALL   ?Subroutine109 & 0xFFFF
   3020          
   3021            if ( msg[0] == ZSuccess )
   \                     ??CrossCallReturnLabel_328:
   \   000010   85..82       MOV     DPL,?V0 + 0
   \   000013   F583         MOV     DPH,A
   \   000015   E0           MOVX    A,@DPTR
   \   000016   7006         JNZ     ??ZDO_ParseUserDescRsp_0
   3022            {
   3023              descLen = msg[3];
   \   000018   A3           INC     DPTR
   \   000019   A3           INC     DPTR
   \   00001A   A3           INC     DPTR
   \   00001B   E0           MOVX    A,@DPTR
   \   00001C   F5..         MOV     ?V0 + 2,A
   3024            }
   3025          
   3026            pRsp = (ZDO_UserDescRsp_t *)osal_mem_alloc( sizeof ( ZDO_UserDescRsp_t ) + descLen );
   \                     ??ZDO_ParseUserDescRsp_0:
   \   00001E   85..82       MOV     DPL,?V0 + 2
   \   000021   AE82         MOV     R6,DPL
   \   000023                ; Setup parameters for call to function osal_mem_alloc
   \   000023   EE           MOV     A,R6
   \   000024   12....       LCALL   ?Subroutine129 & 0xFFFF
   \                     ??CrossCallReturnLabel_652:
   \   000027   8A..         MOV     ?V0 + 6,R2
   \   000029   8B..         MOV     ?V0 + 7,R3
   3027            if ( pRsp )
   \   00002B   EA           MOV     A,R2
   \   00002C   45..         ORL     A,?V0 + 7
   \   00002E   6040         JZ      ??ZDO_ParseUserDescRsp_1
   3028            {
   3029              pRsp->status = msg[0];
   \   000030   85..82       MOV     DPL,?V0 + 0
   \   000033   85..83       MOV     DPH,?V0 + 1
   \   000036   12....       LCALL   ?Subroutine116 & 0xFFFF
   \                     ??CrossCallReturnLabel_226:
   \   000039   12....       LCALL   ?Subroutine153 & 0xFFFF
   3030              pRsp->nwkAddr = BUILD_UINT16( msg[1], msg[2] );
   \                     ??CrossCallReturnLabel_275:
   \   00003C   12....       LCALL   ?Subroutine100 & 0xFFFF
   \                     ??CrossCallReturnLabel_196:
   \   00003F   E0           MOVX    A,@DPTR
   \   000040   F8           MOV     R0,A
   \   000041   E4           CLR     A
   \   000042   C8           XCH     A,R0
   \   000043   F9           MOV     R1,A
   \   000044   EA           MOV     A,R2
   \   000045   85..82       MOV     DPL,?V0 + 6
   \   000048   8B83         MOV     DPH,R3
   \   00004A   A3           INC     DPTR
   \   00004B   12....       LCALL   ??Subroutine209_0 & 0xFFFF
   3031              pRsp->length = descLen;
   \                     ??CrossCallReturnLabel_364:
   \   00004E   85..82       MOV     DPL,?V0 + 6
   \   000051   8B83         MOV     DPH,R3
   \   000053   A3           INC     DPTR
   \   000054   A3           INC     DPTR
   \   000055   A3           INC     DPTR
   \   000056   EE           MOV     A,R6
   \   000057   F0           MOVX    @DPTR,A
   3032              if ( descLen )
   \   000058   6016         JZ      ??ZDO_ParseUserDescRsp_1
   3033              {
   3034                osal_memcpy( pRsp->desc, &msg[4], descLen );
   \   00005A                ; Setup parameters for call to function osal_memcpy
   \   00005A   12....       LCALL   ?Subroutine141 & 0xFFFF
   3035              }
   3036            }
   \                     ??CrossCallReturnLabel_255:
   \   00005D   88..         MOV     ?V0 + 2,R0
   \   00005F   78..         MOV     R0,#?V0 + 0
   \   000061   12....       LCALL   ?PUSH_XSTACK_I_THREE
   \   000064   EE           MOV     A,R6
   \   000065   FC           MOV     R4,A
   \   000066   7D00         MOV     R5,#0x0
   \   000068   E5..         MOV     A,?V0 + 6
   \   00006A   12....       LCALL   ?Subroutine130 & 0xFFFF
   \                     ??CrossCallReturnLabel_608:
   \   00006D   12....       LCALL   ?DEALLOC_XSTACK8
   3037          
   3038            return ( pRsp );
   \                     ??ZDO_ParseUserDescRsp_1:
   \   000070   AA..         MOV     R2,?V0 + 6
   \   000072   AB..         MOV     R3,?V0 + 7
   \   000074   02....       LJMP    ??Subroutine211_0 & 0xFFFF
   3039          }
   3040          
   3041          /*********************************************************************
   3042           * @fn          ZDO_ParseSimpleDescBuf
   3043           *
   3044           * @brief       Parse a byte sequence representation of a Simple Descriptor.
   3045           *
   3046           * @param       buf  - pointer to a byte array representing a Simple Desc.
   3047           * @param       desc - SimpleDescriptionFormat_t *
   3048           *
   3049           *              This routine allocates storage for the cluster IDs because
   3050           *              they are 16-bit and need to be aligned to be properly processed.
   3051           *              This routine returns non-zero if an allocation fails.
   3052           *
   3053           *              NOTE: This means that the caller or user of the input structure
   3054           *                    is responsible for freeing the memory
   3055           *
   3056           * @return      0: success
   3057           *              1: failure due to malloc failure.
   3058           */

   \                                 In  segment BANKED_CODE, align 1, keep-with-next
   3059          uint8 ZDO_ParseSimpleDescBuf( uint8 *buf, SimpleDescriptionFormat_t *desc )
   \                     ZDO_ParseSimpleDescBuf:
   3060          {
   \   000000   74F0         MOV     A,#-0x10
   \   000002   12....       LCALL   ?BANKED_ENTER_XDATA
   \   000005                ; Saved register size: 16
   \   000005                ; Auto size: 0
   \   000005   EA           MOV     A,R2
   \   000006   FE           MOV     R6,A
   \   000007   EB           MOV     A,R3
   \   000008   FF           MOV     R7,A
   \   000009   8C..         MOV     ?V0 + 0,R4
   \   00000B   8D..         MOV     ?V0 + 1,R5
   3061            uint8 num, i;
   3062          
   3063            desc->EndPoint = *buf++;
   \   00000D   8E82         MOV     DPL,R6
   \   00000F   8F83         MOV     DPH,R7
   \   000011   12....       LCALL   ??Subroutine250_0 & 0xFFFF
   \                     ??CrossCallReturnLabel_638:
   \   000014   12....       LCALL   ?Subroutine29 & 0xFFFF
   3064            desc->AppProfId = BUILD_UINT16( buf[0], buf[1] );
   \                     ??CrossCallReturnLabel_37:
   \   000017   8C82         MOV     DPL,R4
   \   000019   8D83         MOV     DPH,R5
   \   00001B   12....       LCALL   ?Subroutine12 & 0xFFFF
   3065            buf += 2;
   3066            desc->AppDeviceId = BUILD_UINT16( buf[0], buf[1] );
   \                     ??CrossCallReturnLabel_641:
   \   00001E   12....       LCALL   ?Subroutine104 & 0xFFFF
   \                     ??CrossCallReturnLabel_202:
   \   000021   12....       LCALL   ?Subroutine12 & 0xFFFF
   3067            buf += 2;
   3068            desc->AppDevVer = *buf >> 4;
   3069          
   3070            desc->Reserved = 0;
   \                     ??CrossCallReturnLabel_642:
   \   000024   C4           SWAP    A
   \   000025   540F         ANL     A,#0xf
   \   000027   8C82         MOV     DPL,R4
   \   000029   8D83         MOV     DPH,R5
   \   00002B   A3           INC     DPTR
   \   00002C   A3           INC     DPTR
   \   00002D   A3           INC     DPTR
   \   00002E   A3           INC     DPTR
   \   00002F   A3           INC     DPTR
   \   000030   12....       LCALL   ?Subroutine47 & 0xFFFF
   3071            buf++;
   3072          
   3073            // move in input cluster list (if any). allocate aligned memory.
   3074            num = desc->AppNumInClusters = *buf++;
   \                     ??CrossCallReturnLabel_89:
   \   000033   E0           MOVX    A,@DPTR
   \   000034   F8           MOV     R0,A
   \   000035   A3           INC     DPTR
   \   000036   0E           INC     R6
   \   000037   0E           INC     R6
   \   000038   AF83         MOV     R7,DPH
   \   00003A   8C82         MOV     DPL,R4
   \   00003C   8D83         MOV     DPH,R5
   \   00003E   A3           INC     DPTR
   \   00003F   A3           INC     DPTR
   \   000040   A3           INC     DPTR
   \   000041   A3           INC     DPTR
   \   000042   A3           INC     DPTR
   \   000043   A3           INC     DPTR
   \   000044   F0           MOVX    @DPTR,A
   \   000045   88..         MOV     ?V0 + 4,R0
   3075            if ( num )
   \   000047   EC           MOV     A,R4
   \   000048   2407         ADD     A,#0x7
   \   00004A   F5..         MOV     ?V0 + 2,A
   \   00004C   ED           MOV     A,R5
   \   00004D   3400         ADDC    A,#0x0
   \   00004F   F5..         MOV     ?V0 + 3,A
   \   000051   E8           MOV     A,R0
   \   000052   6038         JZ      ??ZDO_ParseSimpleDescBuf_0
   3076            {
   3077              if (!(desc->pAppInClusterList = (uint16 *)osal_mem_alloc(num*sizeof(uint16))))
   \   000054                ; Setup parameters for call to function osal_mem_alloc
   \   000054   12....       LCALL   ?Subroutine38 & 0xFFFF
   \                     ??CrossCallReturnLabel_54:
   \   000057   F8           MOV     R0,A
   \   000058   A3           INC     DPTR
   \   000059   E0           MOVX    A,@DPTR
   \   00005A   F9           MOV     R1,A
   \   00005B   E8           MOV     A,R0
   \   00005C   49           ORL     A,R1
   \   00005D   7005         JNZ     ??ZDO_ParseSimpleDescBuf_1
   3078              {
   3079                // malloc failed. we're done.
   3080                return 1;
   \                     ??ZDO_ParseSimpleDescBuf_2:
   \   00005F   7901         MOV     R1,#0x1
   \   000061   02....       LJMP    ??ZDO_ParseSimpleDescBuf_3 & 0xFFFF
   3081              }
   3082              for (i=0; i<num; ++i)
   \                     ??ZDO_ParseSimpleDescBuf_1:
   \   000064   7A00         MOV     R2,#0x0
   \   000066   801E         SJMP    ??CrossCallReturnLabel_76
   3083              {
   3084                desc->pAppInClusterList[i] = BUILD_UINT16( buf[0], buf[1] );
   \                     ??ZDO_ParseSimpleDescBuf_4:
   \   000068   8E82         MOV     DPL,R6
   \   00006A   8F83         MOV     DPH,R7
   \   00006C   E0           MOVX    A,@DPTR
   \   00006D   F5..         MOV     ?V0 + 6,A
   \   00006F   A3           INC     DPTR
   \   000070   E0           MOVX    A,@DPTR
   \   000071   FD           MOV     R5,A
   \   000072   E5..         MOV     A,?V0 + 6
   \   000074   2400         ADD     A,#0x0
   \   000076   E4           CLR     A
   \   000077   3D           ADDC    A,R5
   \   000078   F5..         MOV     ?V0 + 7,A
   \   00007A   12....       LCALL   ?Subroutine123 & 0xFFFF
   3085                buf += 2;
   3086              }
   \                     ??CrossCallReturnLabel_635:
   \   00007D   E5..         MOV     A,?V0 + 6
   \   00007F   F0           MOVX    @DPTR,A
   \   000080   A3           INC     DPTR
   \   000081   E5..         MOV     A,?V0 + 7
   \   000083   12....       LCALL   ?Subroutine41 & 0xFFFF
   \                     ??CrossCallReturnLabel_76:
   \   000086   EA           MOV     A,R2
   \   000087   C3           CLR     C
   \   000088   95..         SUBB    A,?V0 + 4
   \   00008A   40DC         JC      ??ZDO_ParseSimpleDescBuf_4
   3087            }
   3088          
   3089            // move in output cluster list (if any). allocate aligned memory.
   3090            num = desc->AppNumOutClusters = *buf++;
   \                     ??ZDO_ParseSimpleDescBuf_0:
   \   00008C   8E82         MOV     DPL,R6
   \   00008E   8F83         MOV     DPH,R7
   \   000090   E0           MOVX    A,@DPTR
   \   000091   F8           MOV     R0,A
   \   000092   A3           INC     DPTR
   \   000093   AE82         MOV     R6,DPL
   \   000095   AF83         MOV     R7,DPH
   \   000097   85..82       MOV     DPL,?V0 + 0
   \   00009A   85..83       MOV     DPH,?V0 + 1
   \   00009D   A3           INC     DPTR
   \   00009E   A3           INC     DPTR
   \   00009F   A3           INC     DPTR
   \   0000A0   A3           INC     DPTR
   \   0000A1   A3           INC     DPTR
   \   0000A2   A3           INC     DPTR
   \   0000A3   A3           INC     DPTR
   \   0000A4   A3           INC     DPTR
   \   0000A5   A3           INC     DPTR
   \   0000A6   F0           MOVX    @DPTR,A
   \   0000A7   88..         MOV     ?V0 + 4,R0
   3091            if (num)
   \   0000A9   6070         JZ      ??ZDO_ParseSimpleDescBuf_5
   3092            {
   3093              if (!(desc->pAppOutClusterList = (uint16 *)osal_mem_alloc(num*sizeof(uint16))))
   \   0000AB   E5..         MOV     A,?V0 + 0
   \   0000AD   240A         ADD     A,#0xa
   \   0000AF   F5..         MOV     ?V0 + 0,A
   \   0000B1   E5..         MOV     A,?V0 + 1
   \   0000B3   3400         ADDC    A,#0x0
   \   0000B5   F5..         MOV     ?V0 + 1,A
   \   0000B7                ; Setup parameters for call to function osal_mem_alloc
   \   0000B7   E8           MOV     A,R0
   \   0000B8   C3           CLR     C
   \   0000B9   33           RLC     A
   \   0000BA   FA           MOV     R2,A
   \   0000BB   E4           CLR     A
   \   0000BC   33           RLC     A
   \   0000BD   FB           MOV     R3,A
   \   0000BE   12....       LCALL   ??osal_mem_alloc?relay
   \   0000C1   85..82       MOV     DPL,?V0 + 0
   \   0000C4   85..83       MOV     DPH,?V0 + 1
   \   0000C7   12....       LCALL   ?Subroutine39 & 0xFFFF
   \                     ??CrossCallReturnLabel_72:
   \   0000CA   85..82       MOV     DPL,?V0 + 0
   \   0000CD   85..83       MOV     DPH,?V0 + 1
   \   0000D0   12....       LCALL   ??Subroutine225_0 & 0xFFFF
   \                     ??CrossCallReturnLabel_454:
   \   0000D3   701E         JNZ     ??ZDO_ParseSimpleDescBuf_6
   3094              {
   3095                // malloc failed. free input cluster list memory if there is any
   3096                if ( desc->pAppInClusterList != NULL )
   \   0000D5   85..82       MOV     DPL,?V0 + 2
   \   0000D8   85..83       MOV     DPH,?V0 + 3
   \   0000DB   12....       LCALL   ??Subroutine227_0 & 0xFFFF
   \                     ??CrossCallReturnLabel_467:
   \   0000DE   7003         JNZ     $+5
   \   0000E0   02....       LJMP    ??ZDO_ParseSimpleDescBuf_2 & 0xFFFF
   3097                {
   3098                  osal_mem_free(desc->pAppInClusterList);
   \   0000E3                ; Setup parameters for call to function osal_mem_free
   \   0000E3   12....       LCALL   ??osal_mem_free?relay
   3099          
   3100                  desc->pAppInClusterList = NULL;
   \   0000E6   85..82       MOV     DPL,?V0 + 2
   \   0000E9   85..83       MOV     DPH,?V0 + 3
   \   0000EC   E4           CLR     A
   \   0000ED   F0           MOVX    @DPTR,A
   \   0000EE   A3           INC     DPTR
   \   0000EF   F0           MOVX    @DPTR,A
   \   0000F0   02....       LJMP    ??ZDO_ParseSimpleDescBuf_2 & 0xFFFF
   3101                }
   3102                return 1;
   3103              }
   3104              for (i=0; i<num; ++i)
   \                     ??ZDO_ParseSimpleDescBuf_6:
   \   0000F3   7A00         MOV     R2,#0x0
   \   0000F5   801E         SJMP    ??CrossCallReturnLabel_77
   3105              {
   3106                desc->pAppOutClusterList[i] = BUILD_UINT16( buf[0], buf[1] );
   \                     ??ZDO_ParseSimpleDescBuf_7:
   \   0000F7   8E82         MOV     DPL,R6
   \   0000F9   8F83         MOV     DPH,R7
   \   0000FB   E0           MOVX    A,@DPTR
   \   0000FC   F5..         MOV     ?V0 + 0,A
   \   0000FE   A3           INC     DPTR
   \   0000FF   E0           MOVX    A,@DPTR
   \   000100   FD           MOV     R5,A
   \   000101   E5..         MOV     A,?V0 + 0
   \   000103   2400         ADD     A,#0x0
   \   000105   E4           CLR     A
   \   000106   3D           ADDC    A,R5
   \   000107   F5..         MOV     ?V0 + 1,A
   \   000109   12....       LCALL   ?Subroutine123 & 0xFFFF
   3107                buf += 2;
   3108              }
   \                     ??CrossCallReturnLabel_636:
   \   00010C   E5..         MOV     A,?V0 + 0
   \   00010E   F0           MOVX    @DPTR,A
   \   00010F   A3           INC     DPTR
   \   000110   E5..         MOV     A,?V0 + 1
   \   000112   12....       LCALL   ?Subroutine41 & 0xFFFF
   \                     ??CrossCallReturnLabel_77:
   \   000115   EA           MOV     A,R2
   \   000116   C3           CLR     C
   \   000117   95..         SUBB    A,?V0 + 4
   \   000119   40DC         JC      ??ZDO_ParseSimpleDescBuf_7
   3109            }
   3110            return 0;
   \                     ??ZDO_ParseSimpleDescBuf_5:
   \   00011B   7900         MOV     R1,#0x0
   \                     ??ZDO_ParseSimpleDescBuf_3:
   \   00011D   02....       LJMP    ??Subroutine211_0 & 0xFFFF
   3111          }

   \                                 In  segment BANKED_CODE, align 1, keep-with-next
   \                     ?Subroutine123:
   \   000000   EA           MOV     A,R2
   \   000001                REQUIRE ??Subroutine249_0
   \   000001                ; // Fall through to label ??Subroutine249_0

   \                                 In  segment BANKED_CODE, align 1, keep-with-next
   \                     ?Subroutine41:
   \   000000   12....       LCALL   ?Subroutine148 & 0xFFFF
   \                     ??CrossCallReturnLabel_645:
   \   000003   0A           INC     R2
   \   000004   22           RET

   \                                 In  segment BANKED_CODE, align 1, keep-with-next
   \                     ?Subroutine12:
   \   000000   A3           INC     DPTR
   \   000001   F0           MOVX    @DPTR,A
   \   000002   A3           INC     DPTR
   \   000003   E9           MOV     A,R1
   \   000004                REQUIRE ??Subroutine251_0
   \   000004                ; // Fall through to label ??Subroutine251_0
   3112          
   3113          /*********************************************************************
   3114           * @fn          ZDO_ParseDeviceAnnce
   3115           *
   3116           * @brief       Parse a Device Announce message.
   3117           *
   3118           * @param       inMsg - Incoming message
   3119           * @param       pAnnce - place to put the parsed information
   3120           *
   3121           * @return      none
   3122           */

   \                                 In  segment BANKED_CODE, align 1, keep-with-next
   3123          void ZDO_ParseDeviceAnnce( zdoIncomingMsg_t *inMsg, ZDO_DeviceAnnce_t *pAnnce )
   \                     ZDO_ParseDeviceAnnce:
   3124          {
   \   000000   74F6         MOV     A,#-0xa
   \   000002   12....       LCALL   ?BANKED_ENTER_XDATA
   \   000005                ; Saved register size: 10
   \   000005                ; Auto size: 0
   \   000005   8C..         MOV     ?V0 + 0,R4
   \   000007   8D..         MOV     ?V0 + 1,R5
   3125            uint8 *msg;
   3126          
   3127            // Parse incoming message
   3128            msg = inMsg->asdu;
   \   000009   12....       LCALL   ?Subroutine76 & 0xFFFF
   3129            pAnnce->nwkAddr = BUILD_UINT16( msg[0], msg[1] );
   \                     ??CrossCallReturnLabel_629:
   \   00000C   FA           MOV     R2,A
   \   00000D   A3           INC     DPTR
   \   00000E   E0           MOVX    A,@DPTR
   \   00000F   F9           MOV     R1,A
   \   000010   EA           MOV     A,R2
   \   000011   8C82         MOV     DPL,R4
   \   000013   8D83         MOV     DPH,R5
   \   000015   12....       LCALL   ?Subroutine19 & 0xFFFF
   3130            msg += 2;
   3131            osal_cpyExtAddr( pAnnce->extAddr, msg );
   \                     ??CrossCallReturnLabel_22:
   \   000018   2402         ADD     A,#0x2
   \   00001A   FA           MOV     R2,A
   \   00001B   E5..         MOV     A,?V0 + 1
   \   00001D   3400         ADDC    A,#0x0
   \   00001F   FB           MOV     R3,A
   \   000020   12....       LCALL   ?Subroutine53 & 0xFFFF
   3132            msg += Z_EXTADDR_LEN;
   3133            pAnnce->capabilities = *msg;
   \                     ??CrossCallReturnLabel_101:
   \   000023   85..82       MOV     DPL,?V0 + 0
   \   000026   85..83       MOV     DPH,?V0 + 1
   \   000029   A3           INC     DPTR
   \   00002A   A3           INC     DPTR
   \   00002B   A3           INC     DPTR
   \   00002C   A3           INC     DPTR
   \   00002D   A3           INC     DPTR
   \   00002E   A3           INC     DPTR
   \   00002F   A3           INC     DPTR
   \   000030   A3           INC     DPTR
   \   000031   A3           INC     DPTR
   \   000032   A3           INC     DPTR
   \   000033   F0           MOVX    @DPTR,A
   3134          }
   \   000034   02....       LJMP    ??Subroutine201_0 & 0xFFFF
   3135          
   3136          /*********************************************************************
   3137           * @fn          ZDO_ParseMgmtNwkUpdateNotify
   3138           *
   3139           * @brief       This function handles parsing of the incoming Management
   3140           *              Network Update notify.
   3141           *
   3142           * @param       inMsg - incoming message (request)
   3143           *
   3144           * @return      a pointer to parsed response structure (NULL if not allocated).
   3145           *          This structure was allocated using osal_mem_alloc, so it must be freed
   3146           *          by the calling function [osal_mem_free()].
   3147           */

   \                                 In  segment BANKED_CODE, align 1, keep-with-next
   3148          ZDO_MgmtNwkUpdateNotify_t *ZDO_ParseMgmtNwkUpdateNotify( zdoIncomingMsg_t *inMsg )
   \                     ZDO_ParseMgmtNwkUpdateNotify:
   3149          {
   \   000000   74F2         MOV     A,#-0xe
   \   000002   12....       LCALL   ?BANKED_ENTER_XDATA
   \   000005                ; Saved register size: 14
   \   000005                ; Auto size: 6
   \   000005   74FA         MOV     A,#-0x6
   \   000007   12....       LCALL   ?ALLOC_XSTACK8
   3150            uint8 status;
   3151            uint32 scannedChannels = 0;
   \   00000A   90....       MOV     DPTR,#__Constant_0
   \   00000D   78..         MOV     R0,#?V0 + 0
   \   00000F   12....       LCALL   ?L_MOV_X
   3152            uint16 totalTransmissions = 0;
   \   000012   75..00       MOV     ?V0 + 4,#0x0
   \   000015   75..00       MOV     ?V0 + 5,#0x0
   3153            uint16 transmissionFailures = 0;
   \   000018   7E00         MOV     R6,#0x0
   \   00001A   7F00         MOV     R7,#0x0
   3154            uint8 listCount = 0;
   \   00001C   7402         MOV     A,#0x2
   \   00001E   12....       LCALL   ?XSTACK_DISP0_8
   \   000021   E4           CLR     A
   \   000022   12....       LCALL   ?Subroutine37 & 0xFFFF
   3155            uint8 *msg = inMsg->asdu;
   \                     ??CrossCallReturnLabel_52:
   \   000025   F8           MOV     R0,A
   \   000026   A3           INC     DPTR
   \   000027   E0           MOVX    A,@DPTR
   \   000028   12....       LCALL   ?Subroutine18 & 0xFFFF
   3156            ZDO_MgmtNwkUpdateNotify_t *pRsp;
   3157          
   3158            status = *msg++;
   \                     ??CrossCallReturnLabel_19:
   \   00002B   C0E0         PUSH    A
   \   00002D   7405         MOV     A,#0x5
   \   00002F   12....       LCALL   ?XSTACK_DISP0_8
   \   000032   D0E0         POP     A
   \   000034   12....       LCALL   ?Subroutine13 & 0xFFFF
   3159            if ( status == ZSuccess )
   \                     ??CrossCallReturnLabel_9:
   \   000037   7405         MOV     A,#0x5
   \   000039   12....       LCALL   ?XSTACK_DISP0_8
   \   00003C   E0           MOVX    A,@DPTR
   \   00003D   704D         JNZ     ??CrossCallReturnLabel_10
   3160            {
   3161              scannedChannels = osal_build_uint32( msg, 4 );
   \   00003F                ; Setup parameters for call to function osal_build_uint32
   \   00003F   7904         MOV     R1,#0x4
   \   000041   12....       LCALL   ??Subroutine213_0 & 0xFFFF
   \                     ??CrossCallReturnLabel_391:
   \   000044   12....       LCALL   ??osal_build_uint32?relay
   \   000047   8A..         MOV     ?V0 + 0,R2
   \   000049   8B..         MOV     ?V0 + 1,R3
   \   00004B   8C..         MOV     ?V0 + 2,R4
   \   00004D   8D..         MOV     ?V0 + 3,R5
   3162              msg += 4;
   \   00004F   85..82       MOV     DPL,?XSP + 0
   \   000052   85..83       MOV     DPH,?XSP + 1
   \   000055   E0           MOVX    A,@DPTR
   \   000056   2404         ADD     A,#0x4
   \   000058   F8           MOV     R0,A
   \   000059   12....       LCALL   ?Subroutine10 & 0xFFFF
   3163              totalTransmissions = BUILD_UINT16( msg[0], msg[1] );
   \                     ??CrossCallReturnLabel_5:
   \   00005C   F5..         MOV     ?V0 + 4,A
   \   00005E   E4           CLR     A
   \   00005F   39           ADDC    A,R1
   \   000060   F5..         MOV     ?V0 + 5,A
   3164              msg += 2;
   \   000062   85..82       MOV     DPL,?XSP + 0
   \   000065   85..83       MOV     DPH,?XSP + 1
   \   000068   E0           MOVX    A,@DPTR
   \   000069   2402         ADD     A,#0x2
   \   00006B   08           INC     R0
   \   00006C   08           INC     R0
   \   00006D   12....       LCALL   ?Subroutine10 & 0xFFFF
   3165              transmissionFailures = BUILD_UINT16( msg[0], msg[1] );
   \                     ??CrossCallReturnLabel_6:
   \   000070   FE           MOV     R6,A
   \   000071   E4           CLR     A
   \   000072   39           ADDC    A,R1
   \   000073   FF           MOV     R7,A
   3166              msg += 2;
   \   000074   85..82       MOV     DPL,?XSP + 0
   \   000077   85..83       MOV     DPH,?XSP + 1
   \   00007A   12....       LCALL   ?Subroutine115 & 0xFFFF
   3167              listCount = *msg++;
   3168            }
   \                     ??CrossCallReturnLabel_222:
   \   00007D   12....       LCALL   ?Subroutine18 & 0xFFFF
   \                     ??CrossCallReturnLabel_20:
   \   000080   C0E0         PUSH    A
   \   000082   7402         MOV     A,#0x2
   \   000084   12....       LCALL   ?XSTACK_DISP0_8
   \   000087   D0E0         POP     A
   \   000089   12....       LCALL   ?Subroutine13 & 0xFFFF
   \                     ??CrossCallReturnLabel_10:
   \   00008C                ; Setup parameters for call to function osal_mem_alloc
   \   00008C   7402         MOV     A,#0x2
   \   00008E   12....       LCALL   ?XSTACK_DISP0_8
   \   000091   E0           MOVX    A,@DPTR
   \   000092   240A         ADD     A,#0xa
   \   000094   12....       LCALL   ??Subroutine252_0 & 0xFFFF
   \                     ??CrossCallReturnLabel_653:
   \   000097   7403         MOV     A,#0x3
   \   000099   12....       LCALL   ?XSTACK_DISP0_8
   \   00009C   12....       LCALL   ?Subroutine39 & 0xFFFF
   3169          
   3170            pRsp = (ZDO_MgmtNwkUpdateNotify_t *)osal_mem_alloc( sizeof ( ZDO_MgmtNwkUpdateNotify_t ) + listCount );
   3171          
   3172            if ( pRsp )
   \                     ??CrossCallReturnLabel_73:
   \   00009F   7403         MOV     A,#0x3
   \   0000A1   12....       LCALL   ?XSTACK_DISP0_8
   \   0000A4   12....       LCALL   ??Subroutine225_0 & 0xFFFF
   \                     ??CrossCallReturnLabel_455:
   \   0000A7   607E         JZ      ??ZDO_ParseMgmtNwkUpdateNotify_0
   3173            {
   3174              pRsp->status = status;
   \   0000A9   7405         MOV     A,#0x5
   \   0000AB   12....       LCALL   ?XSTACK_DISP0_8
   \   0000AE   E0           MOVX    A,@DPTR
   \   0000AF   C0E0         PUSH    A
   \   0000B1   7403         MOV     A,#0x3
   \   0000B3   12....       LCALL   ?XSTACK_DISP0_8
   \   0000B6   12....       LCALL   ?Subroutine114 & 0xFFFF
   \                     ??CrossCallReturnLabel_220:
   \   0000B9   D0E0         POP     A
   \   0000BB   F0           MOVX    @DPTR,A
   3175              pRsp->scannedChannels = scannedChannels;
   \   0000BC   7403         MOV     A,#0x3
   \   0000BE   12....       LCALL   ?XSTACK_DISP0_8
   \   0000C1   12....       LCALL   ?Subroutine89 & 0xFFFF
   \                     ??CrossCallReturnLabel_182:
   \   0000C4   A3           INC     DPTR
   \   0000C5   78..         MOV     R0,#?V0 + 0
   \   0000C7   12....       LCALL   ?L_MOV_TO_X
   3176              pRsp->totalTransmissions = totalTransmissions;
   \   0000CA   7403         MOV     A,#0x3
   \   0000CC   12....       LCALL   ?XSTACK_DISP0_8
   \   0000CF   12....       LCALL   ?Subroutine88 & 0xFFFF
   \                     ??CrossCallReturnLabel_179:
   \   0000D2   E5..         MOV     A,?V0 + 4
   \   0000D4   F0           MOVX    @DPTR,A
   \   0000D5   A3           INC     DPTR
   \   0000D6   E5..         MOV     A,?V0 + 5
   \   0000D8   F0           MOVX    @DPTR,A
   3177              pRsp->transmissionFailures = transmissionFailures;
   \   0000D9   7403         MOV     A,#0x3
   \   0000DB   12....       LCALL   ?XSTACK_DISP0_8
   \   0000DE   12....       LCALL   ?Subroutine78 & 0xFFFF
   \                     ??CrossCallReturnLabel_658:
   \   0000E1   EE           MOV     A,R6
   \   0000E2   F0           MOVX    @DPTR,A
   \   0000E3   A3           INC     DPTR
   \   0000E4   EF           MOV     A,R7
   \   0000E5   F0           MOVX    @DPTR,A
   3178              pRsp->listCount = listCount;
   \   0000E6   7402         MOV     A,#0x2
   \   0000E8   12....       LCALL   ?XSTACK_DISP0_8
   \   0000EB   E0           MOVX    A,@DPTR
   \   0000EC   C0E0         PUSH    A
   \   0000EE   7403         MOV     A,#0x3
   \   0000F0   12....       LCALL   ?XSTACK_DISP0_8
   \   0000F3   12....       LCALL   ?Subroutine77 & 0xFFFF
   \                     ??CrossCallReturnLabel_159:
   \   0000F6   D0E0         POP     A
   \   0000F8   F0           MOVX    @DPTR,A
   3179          
   3180              // Allocate a buffer big enough to handle the list.
   3181              if ( listCount > 0 )
   \   0000F9   7402         MOV     A,#0x2
   \   0000FB   12....       LCALL   ?XSTACK_DISP0_8
   \   0000FE   E0           MOVX    A,@DPTR
   \   0000FF   6026         JZ      ??ZDO_ParseMgmtNwkUpdateNotify_0
   3182              {
   3183                osal_memcpy( pRsp->energyValues, msg, listCount );
   \   000101                ; Setup parameters for call to function osal_memcpy
   \   000101   85..82       MOV     DPL,?XSP + 0
   \   000104   85..83       MOV     DPH,?XSP + 1
   \   000107   12....       LCALL   ?Subroutine67 & 0xFFFF
   3184              }
   3185            }
   \                     ??CrossCallReturnLabel_141:
   \   00010A   12....       LCALL   ?PUSH_XSTACK_I_THREE
   \   00010D   7405         MOV     A,#0x5
   \   00010F   12....       LCALL   ?XSTACK_DISP0_8
   \   000112   E0           MOVX    A,@DPTR
   \   000113   FC           MOV     R4,A
   \   000114   7D00         MOV     R5,#0x0
   \   000116   7406         MOV     A,#0x6
   \   000118   12....       LCALL   ?XSTACK_DISP0_8
   \   00011B   E0           MOVX    A,@DPTR
   \   00011C   240A         ADD     A,#0xa
   \   00011E   FA           MOV     R2,A
   \   00011F   A3           INC     DPTR
   \   000120   E0           MOVX    A,@DPTR
   \   000121   12....       LCALL   ??Subroutine243_0 & 0xFFFF
   \                     ??CrossCallReturnLabel_609:
   \   000124   12....       LCALL   ?DEALLOC_XSTACK8
   3186          
   3187            return ( pRsp );
   \                     ??ZDO_ParseMgmtNwkUpdateNotify_0:
   \   000127   7403         MOV     A,#0x3
   \   000129   12....       LCALL   ?XSTACK_DISP0_8
   \   00012C   12....       LCALL   ??Subroutine214_0 & 0xFFFF
   \                     ??CrossCallReturnLabel_389:
   \   00012F   7406         MOV     A,#0x6
   \   000131   02....       LJMP    ??Subroutine255_0 & 0xFFFF
   3188          }

   \                                 In  segment BANKED_CODE, align 1, keep-with-next
   \                     ?Subroutine18:
   \   000000   12....       LCALL   ?Subroutine147 & 0xFFFF
   \                     ??CrossCallReturnLabel_266:
   \   000003   22           RET

   \                                 In  segment BANKED_CODE, align 1, keep-with-next
   \                     ?Subroutine147:
   \   000000   F9           MOV     R1,A
   \   000001   85..82       MOV     DPL,?XSP + 0
   \   000004   85..83       MOV     DPH,?XSP + 1
   \   000007   E8           MOV     A,R0
   \   000008   F0           MOVX    @DPTR,A
   \   000009   A3           INC     DPTR
   \   00000A   E9           MOV     A,R1
   \   00000B   12....       LCALL   ?Subroutine191 & 0xFFFF
   \                     ??CrossCallReturnLabel_321:
   \   00000E   12....       LCALL   ??Subroutine216_0 & 0xFFFF
   \                     ??CrossCallReturnLabel_663:
   \   000011   E0           MOVX    A,@DPTR
   \   000012   22           RET

   \                                 In  segment BANKED_CODE, align 1, keep-with-next
   \                     ?Subroutine13:
   \   000000   12....       LCALL   ?Subroutine156 & 0xFFFF
   \                     ??CrossCallReturnLabel_279:
   \   000003   2401         ADD     A,#0x1
   \   000005   12....       LCALL   ?Subroutine194 & 0xFFFF
   \                     ??CrossCallReturnLabel_490:
   \   000008   85..82       MOV     DPL,?XSP + 0
   \   00000B   85..83       MOV     DPH,?XSP + 1
   \   00000E   E8           MOV     A,R0
   \   00000F   F0           MOVX    @DPTR,A
   \   000010   A3           INC     DPTR
   \   000011   E9           MOV     A,R1
   \   000012   F0           MOVX    @DPTR,A
   \   000013   22           RET

   \                                 In  segment BANKED_CODE, align 1, keep-with-next
   \                     ?Subroutine10:
   \   000000   A3           INC     DPTR
   \   000001   E0           MOVX    A,@DPTR
   \   000002   3400         ADDC    A,#0x0
   \   000004   12....       LCALL   ?Subroutine147 & 0xFFFF
   \                     ??CrossCallReturnLabel_267:
   \   000007   FA           MOV     R2,A
   \   000008   85..82       MOV     DPL,?XSP + 0
   \   00000B   85..83       MOV     DPH,?XSP + 1
   \   00000E   12....       LCALL   ?Subroutine173 & 0xFFFF
   \                     ??CrossCallReturnLabel_659:
   \   000011   A3           INC     DPTR
   \   000012   E0           MOVX    A,@DPTR
   \   000013   F9           MOV     R1,A
   \   000014   EA           MOV     A,R2
   \   000015   2400         ADD     A,#0x0
   \   000017   22           RET
   3189          
   3190          /*********************************************************************
   3191           * @fn          ZDO_ParseMgmtNwkUpdateReq
   3192           *
   3193           * @brief       This function handles parsing the incoming Management
   3194           *              Network Update request and starts the request (if needed).
   3195           *
   3196           * @param       inMsg - incoming message (request)
   3197           * @param       pReq - pointer to place to parse message to
   3198           *
   3199           * @return      none
   3200           */

   \                                 In  segment BANKED_CODE, align 1, keep-with-next
   3201          void ZDO_ParseMgmtNwkUpdateReq( zdoIncomingMsg_t *inMsg, ZDO_MgmtNwkUpdateReq_t *pReq )
   \                     ZDO_ParseMgmtNwkUpdateReq:
   3202          {
   \   000000   74F6         MOV     A,#-0xa
   \   000002   12....       LCALL   ?BANKED_ENTER_XDATA
   \   000005                ; Saved register size: 10
   \   000005                ; Auto size: 0
   \   000005   8C..         MOV     ?V0 + 0,R4
   \   000007   8D..         MOV     ?V0 + 1,R5
   3203            uint8 *msg = inMsg->asdu;
   \   000009   12....       LCALL   ?Subroutine83 & 0xFFFF
   3204          
   3205            pReq->channelMask = osal_build_uint32( msg, 4 );
   \                     ??CrossCallReturnLabel_169:
   \   00000C   85..82       MOV     DPL,?V0 + 0
   \   00000F   85..83       MOV     DPH,?V0 + 1
   \   000012   12....       LCALL   ?XSTORE_R2345
   3206            msg += 4;
   \   000015   12....       LCALL   ?Subroutine128 & 0xFFFF
   3207            pReq->scanDuration = *msg++;
   \                     ??CrossCallReturnLabel_357:
   \   000018   FA           MOV     R2,A
   \   000019   E5..         MOV     A,?V0 + 0
   \   00001B   2404         ADD     A,#0x4
   \   00001D   F8           MOV     R0,A
   \   00001E   E5..         MOV     A,?V0 + 1
   \   000020   3400         ADDC    A,#0x0
   \   000022   F9           MOV     R1,A
   \   000023   EA           MOV     A,R2
   \   000024   8882         MOV     DPL,R0
   \   000026   8983         MOV     DPH,R1
   \   000028   12....       LCALL   ?Subroutine43 & 0xFFFF
   3208          
   3209            if ( pReq->scanDuration <= 0x05 )
   \                     ??CrossCallReturnLabel_82:
   \   00002B   C3           CLR     C
   \   00002C   9406         SUBB    A,#0x6
   \   00002E   5005         JNC     ??ZDO_ParseMgmtNwkUpdateReq_0
   3210            {
   3211              // Request is to scan over channelMask
   3212              pReq->scanCount = *msg;
   \   000030   12....       LCALL   ?Subroutine69 & 0xFFFF
   3213            }
   \                     ??CrossCallReturnLabel_145:
   \   000033   801F         SJMP    ??ZDO_ParseMgmtNwkUpdateReq_1
   3214            else if ( ( pReq->scanDuration == 0xFE ) || ( pReq->scanDuration == 0xFF ) )
   \                     ??ZDO_ParseMgmtNwkUpdateReq_0:
   \   000035   74FE         MOV     A,#-0x2
   \   000037   6A           XRL     A,R2
   \   000038   6005         JZ      ??ZDO_ParseMgmtNwkUpdateReq_2
   \   00003A   74FF         MOV     A,#-0x1
   \   00003C   6A           XRL     A,R2
   \   00003D   7016         JNZ     ??ZDO_ParseMgmtNwkUpdateReq_3
   3215            {
   3216              // Request is to change Channel (0xFE) or apsChannelMask and NwkManagerAddr (0xFF)
   3217              pReq->nwkUpdateId = *msg++;
   \                     ??ZDO_ParseMgmtNwkUpdateReq_2:
   \   00003F   12....       LCALL   ?Subroutine69 & 0xFFFF
   \                     ??CrossCallReturnLabel_146:
   \   000042   A3           INC     DPTR
   \   000043   12....       LCALL   ?Subroutine26 & 0xFFFF
   3218          
   3219              if ( pReq->scanDuration == 0xFF )
   \                     ??CrossCallReturnLabel_31:
   \   000046   8882         MOV     DPL,R0
   \   000048   8983         MOV     DPH,R1
   \   00004A   E0           MOVX    A,@DPTR
   \   00004B   F4           CPL     A
   \   00004C   7007         JNZ     ??ZDO_ParseMgmtNwkUpdateReq_3
   3220              {
   3221                pReq->nwkManagerAddr = BUILD_UINT16( msg[0], msg[1] );
   \   00004E   12....       LCALL   ?Subroutine70 & 0xFFFF
   3222              }
   3223            }
   \                     ??CrossCallReturnLabel_148:
   \   000051   F0           MOVX    @DPTR,A
   \   000052   A3           INC     DPTR
   \   000053   E9           MOV     A,R1
   \                     ??ZDO_ParseMgmtNwkUpdateReq_1:
   \   000054   F0           MOVX    @DPTR,A
   3224          }
   \                     ??ZDO_ParseMgmtNwkUpdateReq_3:
   \   000055   02....       LJMP    ??Subroutine201_0 & 0xFFFF

   \                                 In  segment BANK_RELAYS, align 1
   \                     ??ZDO_Init?relay:
   \   000000   12....       LCALL   ?BDISPATCH
   \   000003   ......       DC24    ZDO_Init

   \                                 In  segment BANK_RELAYS, align 1
   \                     ??ZDO_StartDevice?relay:
   \   000000   12....       LCALL   ?BDISPATCH
   \   000003   ......       DC24    ZDO_StartDevice

   \                                 In  segment BANK_RELAYS, align 1
   \                     ??ZDO_UpdateNwkStatus?relay:
   \   000000   12....       LCALL   ?BDISPATCH
   \   000003   ......       DC24    ZDO_UpdateNwkStatus

   \                                 In  segment BANK_RELAYS, align 1
   \                     ??ZDO_CompareClusterLists?relay:
   \   000000   12....       LCALL   ?BDISPATCH
   \   000003   ......       DC24    ZDO_CompareClusterLists

   \                                 In  segment BANK_RELAYS, align 1
   \                     ??ZDO_AnyClusterMatches?relay:
   \   000000   12....       LCALL   ?BDISPATCH
   \   000003   ......       DC24    ZDO_AnyClusterMatches

   \                                 In  segment BANK_RELAYS, align 1
   \                     ??ZDO_ProcessNodeDescReq?relay:
   \   000000   12....       LCALL   ?BDISPATCH
   \   000003   ......       DC24    ZDO_ProcessNodeDescReq

   \                                 In  segment BANK_RELAYS, align 1
   \                     ??ZDO_ProcessPowerDescReq?relay:
   \   000000   12....       LCALL   ?BDISPATCH
   \   000003   ......       DC24    ZDO_ProcessPowerDescReq

   \                                 In  segment BANK_RELAYS, align 1
   \                     ??ZDO_ProcessSimpleDescReq?relay:
   \   000000   12....       LCALL   ?BDISPATCH
   \   000003   ......       DC24    ZDO_ProcessSimpleDescReq

   \                                 In  segment BANK_RELAYS, align 1
   \                     ??ZDO_ProcessActiveEPReq?relay:
   \   000000   12....       LCALL   ?BDISPATCH
   \   000003   ......       DC24    ZDO_ProcessActiveEPReq

   \                                 In  segment BANK_RELAYS, align 1
   \                     ??ZDO_ConvertOTAClusters?relay:
   \   000000   12....       LCALL   ?BDISPATCH
   \   000003   ......       DC24    ZDO_ConvertOTAClusters

   \                                 In  segment BANK_RELAYS, align 1
   \                     ??ZDO_ProcessMatchDescReq?relay:
   \   000000   12....       LCALL   ?BDISPATCH
   \   000003   ......       DC24    ZDO_ProcessMatchDescReq

   \                                 In  segment BANK_RELAYS, align 1
   \                     ??ZDO_ProcessBindUnbindReq?relay:
   \   000000   12....       LCALL   ?BDISPATCH
   \   000003   ......       DC24    ZDO_ProcessBindUnbindReq

   \                                 In  segment BANK_RELAYS, align 1
   \                     ??ZDO_UpdateAddrManager?relay:
   \   000000   12....       LCALL   ?BDISPATCH
   \   000003   ......       DC24    ZDO_UpdateAddrManager

   \                                 In  segment BANK_RELAYS, align 1
   \                     ??ZDO_ProcessServerDiscReq?relay:
   \   000000   12....       LCALL   ?BDISPATCH
   \   000003   ......       DC24    ZDO_ProcessServerDiscReq

   \                                 In  segment BANK_RELAYS, align 1
   \                     ??ZDO_EndDeviceTimeoutCB?relay:
   \   000000   12....       LCALL   ?BDISPATCH
   \   000003   ......       DC24    ZDO_EndDeviceTimeoutCB

   \                                 In  segment BANK_RELAYS, align 1
   \                     ??ZDO_ProcessMgmtLqiReq?relay:
   \   000000   12....       LCALL   ?BDISPATCH
   \   000003   ......       DC24    ZDO_ProcessMgmtLqiReq

   \                                 In  segment BANK_RELAYS, align 1
   \                     ??ZDO_ProcessMgmtNwkDiscReq?relay:
   \   000000   12....       LCALL   ?BDISPATCH
   \   000003   ......       DC24    ZDO_ProcessMgmtNwkDiscReq

   \                                 In  segment BANK_RELAYS, align 1
   \                     ??ZDO_ProcessMgmtRtgReq?relay:
   \   000000   12....       LCALL   ?BDISPATCH
   \   000003   ......       DC24    ZDO_ProcessMgmtRtgReq

   \                                 In  segment BANK_RELAYS, align 1
   \                     ??ZDO_ProcessMgmtBindReq?relay:
   \   000000   12....       LCALL   ?BDISPATCH
   \   000003   ......       DC24    ZDO_ProcessMgmtBindReq

   \                                 In  segment BANK_RELAYS, align 1
   \                     ??ZDO_ProcessMgmtDirectJoinReq?relay:
   \   000000   12....       LCALL   ?BDISPATCH
   \   000003   ......       DC24    ZDO_ProcessMgmtDirectJoinReq

   \                                 In  segment BANK_RELAYS, align 1
   \                     ??ZDO_ProcessMgmtLeaveReq?relay:
   \   000000   12....       LCALL   ?BDISPATCH
   \   000003   ......       DC24    ZDO_ProcessMgmtLeaveReq

   \                                 In  segment BANK_RELAYS, align 1
   \                     ??ZDO_ProcessMgmtPermitJoinReq?relay:
   \   000000   12....       LCALL   ?BDISPATCH
   \   000003   ......       DC24    ZDO_ProcessMgmtPermitJoinReq

   \                                 In  segment BANK_RELAYS, align 1
   \                     ??NLME_PermitJoiningTimeout?relay:
   \   000000   12....       LCALL   ?BDISPATCH
   \   000003   ......       DC24    NLME_PermitJoiningTimeout

   \                                 In  segment BANK_RELAYS, align 1
   \                     ??ZDO_ProcessUserDescReq?relay:
   \   000000   12....       LCALL   ?BDISPATCH
   \   000003   ......       DC24    ZDO_ProcessUserDescReq

   \                                 In  segment BANK_RELAYS, align 1
   \                     ??ZDO_ProcessUserDescSet?relay:
   \   000000   12....       LCALL   ?BDISPATCH
   \   000003   ......       DC24    ZDO_ProcessUserDescSet

   \                                 In  segment BANK_RELAYS, align 1
   \                     ??ZDO_ProcessDeviceAnnce?relay:
   \   000000   12....       LCALL   ?BDISPATCH
   \   000003   ......       DC24    ZDO_ProcessDeviceAnnce

   \                                 In  segment BANK_RELAYS, align 1
   \                     ??ZDO_BuildSimpleDescBuf?relay:
   \   000000   12....       LCALL   ?BDISPATCH
   \   000003   ......       DC24    ZDO_BuildSimpleDescBuf

   \                                 In  segment BANK_RELAYS, align 1
   \                     ??ZDO_MatchEndDeviceBind?relay:
   \   000000   12....       LCALL   ?BDISPATCH
   \   000003   ......       DC24    ZDO_MatchEndDeviceBind

   \                                 In  segment BANK_RELAYS, align 1
   \                     ??ZDO_RemoveMatchMemory?relay:
   \   000000   12....       LCALL   ?BDISPATCH
   \   000003   ......       DC24    ZDO_RemoveMatchMemory

   \                                 In  segment BANK_RELAYS, align 1
   \                     ??ZDO_CopyMatchInfo?relay:
   \   000000   12....       LCALL   ?BDISPATCH
   \   000003   ......       DC24    ZDO_CopyMatchInfo

   \                                 In  segment BANK_RELAYS, align 1
   \                     ??ZDMatchSendState?relay:
   \   000000   12....       LCALL   ?BDISPATCH
   \   000003   ......       DC24    ZDMatchSendState

   \                                 In  segment BANK_RELAYS, align 1
   \                     ??ZDO_EndDeviceBindMatchTimeoutCB?relay:
   \   000000   12....       LCALL   ?BDISPATCH
   \   000003   ......       DC24    ZDO_EndDeviceBindMatchTimeoutCB

   \                                 In  segment BANK_RELAYS, align 1
   \                     ??ZDO_ParseEndDeviceBindReq?relay:
   \   000000   12....       LCALL   ?BDISPATCH
   \   000003   ......       DC24    ZDO_ParseEndDeviceBindReq

   \                                 In  segment BANK_RELAYS, align 1
   \                     ??ZDO_ParseBindUnbindReq?relay:
   \   000000   12....       LCALL   ?BDISPATCH
   \   000003   ......       DC24    ZDO_ParseBindUnbindReq

   \                                 In  segment BANK_RELAYS, align 1
   \                     ??ZDO_ParseAddrRsp?relay:
   \   000000   12....       LCALL   ?BDISPATCH
   \   000003   ......       DC24    ZDO_ParseAddrRsp

   \                                 In  segment BANK_RELAYS, align 1
   \                     ??ZDO_ParseNodeDescRsp?relay:
   \   000000   12....       LCALL   ?BDISPATCH
   \   000003   ......       DC24    ZDO_ParseNodeDescRsp

   \                                 In  segment BANK_RELAYS, align 1
   \                     ??ZDO_ParsePowerDescRsp?relay:
   \   000000   12....       LCALL   ?BDISPATCH
   \   000003   ......       DC24    ZDO_ParsePowerDescRsp

   \                                 In  segment BANK_RELAYS, align 1
   \                     ??ZDO_ParseSimpleDescRsp?relay:
   \   000000   12....       LCALL   ?BDISPATCH
   \   000003   ......       DC24    ZDO_ParseSimpleDescRsp

   \                                 In  segment BANK_RELAYS, align 1
   \                     ??ZDO_ParseEPListRsp?relay:
   \   000000   12....       LCALL   ?BDISPATCH
   \   000003   ......       DC24    ZDO_ParseEPListRsp

   \                                 In  segment BANK_RELAYS, align 1
   \                     ??ZDO_ParseServerDiscRsp?relay:
   \   000000   12....       LCALL   ?BDISPATCH
   \   000003   ......       DC24    ZDO_ParseServerDiscRsp

   \                                 In  segment BANK_RELAYS, align 1
   \                     ??ZDO_ParseMgmtLqiRsp?relay:
   \   000000   12....       LCALL   ?BDISPATCH
   \   000003   ......       DC24    ZDO_ParseMgmtLqiRsp

   \                                 In  segment BANK_RELAYS, align 1
   \                     ??ZDO_ParseMgmNwkDiscRsp?relay:
   \   000000   12....       LCALL   ?BDISPATCH
   \   000003   ......       DC24    ZDO_ParseMgmNwkDiscRsp

   \                                 In  segment BANK_RELAYS, align 1
   \                     ??ZDO_ParseMgmtRtgRsp?relay:
   \   000000   12....       LCALL   ?BDISPATCH
   \   000003   ......       DC24    ZDO_ParseMgmtRtgRsp

   \                                 In  segment BANK_RELAYS, align 1
   \                     ??ZDO_ParseMgmtBindRsp?relay:
   \   000000   12....       LCALL   ?BDISPATCH
   \   000003   ......       DC24    ZDO_ParseMgmtBindRsp

   \                                 In  segment BANK_RELAYS, align 1
   \                     ??ZDO_ParseUserDescRsp?relay:
   \   000000   12....       LCALL   ?BDISPATCH
   \   000003   ......       DC24    ZDO_ParseUserDescRsp

   \                                 In  segment BANK_RELAYS, align 1
   \                     ??ZDO_ParseSimpleDescBuf?relay:
   \   000000   12....       LCALL   ?BDISPATCH
   \   000003   ......       DC24    ZDO_ParseSimpleDescBuf

   \                                 In  segment BANK_RELAYS, align 1
   \                     ??ZDO_ParseDeviceAnnce?relay:
   \   000000   12....       LCALL   ?BDISPATCH
   \   000003   ......       DC24    ZDO_ParseDeviceAnnce

   \                                 In  segment BANK_RELAYS, align 1
   \                     ??ZDO_ParseMgmtNwkUpdateNotify?relay:
   \   000000   12....       LCALL   ?BDISPATCH
   \   000003   ......       DC24    ZDO_ParseMgmtNwkUpdateNotify

   \                                 In  segment BANK_RELAYS, align 1
   \                     ??ZDO_ParseMgmtNwkUpdateReq?relay:
   \   000000   12....       LCALL   ?BDISPATCH
   \   000003   ......       DC24    ZDO_ParseMgmtNwkUpdateReq

   \                                 In  segment XDATA_ROM_C, align 1
   \                     `?<Constant "StartDevice ERR">`:
   \   000000   53746172     DB "StartDevice ERR"
   \            74446576
   \            69636520
   \            45525200

   \                                 In  segment XDATA_ROM_C, align 1
   \                     `?<Constant "MODE unknown">`:
   \   000000   4D4F4445     DB "MODE unknown"
   \            20756E6B
   \            6E6F776E
   \            00      

   \                                 In  segment XDATA_ROM_C, align 1
   \                     `?<Constant "End Device Bind">`:
   \   000000   456E6420     DB "End Device Bind"
   \            44657669
   \            63652042
   \            696E6400

   \                                 In  segment XDATA_ROM_C, align 1
   \                     `?<Constant "Success Sent">`:
   \   000000   53756363     DB "Success Sent"
   \            65737320
   \            53656E74
   \            00      

   \                                 In  segment XDATA_ROM_C, align 1
   \                     `?<Constant "Timeout">`:
   \   000000   54696D65     DB "Timeout"
   \            6F757400

   \                                 In  segment XDATA_ROM_C, align 1
   \                     `?<Constant "Match Desc Req">`:
   \   000000   4D617463     DB "Match Desc Req"
   \            68204465
   \            73632052
   \            657100  

   \                                 In  segment XDATA_ROM_C, align 1
   \                     `?<Constant "Rsp Sent">`:
   \   000000   52737020     DB "Rsp Sent"
   \            53656E74
   \            00      

   \                                 In  segment XDATA_ROM_C, align 1
   \                     `?<Constant "Rsp Non Matched">`:
   \   000000   52737020     DB "Rsp Non Matched"
   \            4E6F6E20
   \            4D617463
   \            68656400

   \                                 In  segment XDATA_ROM_C, align 1
   \                     `?<Constant "Non Matched">`:
   \   000000   4E6F6E20     DB "Non Matched"
   \            4D617463
   \            68656400

   \                                 In  segment XDATA_ROM_C, align 1
   \                     __Constant_0:
   \   000000   00000000     DD 0
   3225          
   3226          /*********************************************************************
   3227          *********************************************************************/

   Maximum stack usage in bytes:

     Function                       ISTACK PSTACK XSTACK
     --------                       ------ ------ ------
     NLME_PermitJoiningTimeout          0      0      0
     ZDMatchSendState                   1      0     71
       -> APS_SetEndDeviceBindTimeout
                                        0      0     74
       -> sAddrExtCpy                   0      0     74
       -> ZDP_BindUnbindReq             0      0     90
       -> APS_SetEndDeviceBindTimeout
                                        0      0     74
       -> ZDP_SendData                  0      0     84
       -> ZDP_SendData                  0      0     84
       -> ZDO_RemoveMatchMemory         0      0     74
     ZDO_AnyClusterMatches              0      0     45
     ZDO_BuildSimpleDescBuf             1      0     14
     ZDO_CompareClusterLists            0      0     46
     ZDO_ConvertOTAClusters             0      0     41
     ZDO_CopyMatchInfo                  0      0     45
       -> osal_memcpy                   0      0     38
       -> osal_mem_alloc                0      0     32
       -> osal_memcpy                   0      0     38
       -> osal_mem_alloc                0      0     32
       -> osal_memcpy                   0      0     38
       -> osal_mem_free                 0      0     32
       -> osal_mem_free                 0      0     32
     ZDO_EndDeviceBindMatchTimeoutCB
                                        2      0      0
       -> ZDMatchSendState              4      0      0
     ZDO_EndDeviceTimeoutCB             1      0     17
       -> ZDP_SendData                  0      0     34
       -> HalLcdWriteString             0      0     24
       -> HalLcdWriteString             0      0     24
       -> HalLcdWriteString             0      0     24
       -> osal_mem_free                 0      0     24
       -> osal_mem_free                 0      0     24
       -> osal_mem_free                 0      0     24
     ZDO_Init                           2      0      0
       -> sAddrExtCpy                   4      0      0
       -> NLME_CoordinatorInit          4      0      0
       -> APS_ReflectorInit             4      0      0
     ZDO_MatchEndDeviceBind             1      0     31
       -> osal_mem_alloc                0      0     52
       -> osal_memset                   0      0     52
       -> ZDO_CopyMatchInfo             0      0     52
       -> APS_SetEndDeviceBindTimeout
                                        0      0     52
       -> ZDO_CopyMatchInfo             0      0     52
       -> ZDO_CompareClusterLists       0      0     60
       -> osal_mem_alloc                0      0     52
       -> osal_memcpy                   0      0     58
       -> ZDO_CompareClusterLists       0      0     60
       -> osal_mem_alloc                0      0     52
       -> osal_memcpy                   0      0     58
       -> ZDMatchSendState              0      0     52
       -> ZDP_SendData                  0      0     62
       -> ZDP_SendData                  0      0     62
       -> ZDO_RemoveMatchMemory         0      0     52
     ZDO_ParseAddrRsp                   1      0     14
       -> osal_mem_alloc                0      0     28
       -> sAddrExtCpy                   0      0     28
     ZDO_ParseBindUnbindReq             1      0     10
       -> sAddrExtCpy                   0      0     20
       -> sAddrExtCpy                   0      0     20
     ZDO_ParseDeviceAnnce               1      0     52
       -> sAddrExtCpy                   0      0     20
     ZDO_ParseEPListRsp                 1      0     19
       -> osal_mem_alloc                0      0     32
       -> osal_memcpy                   0      0     38
     ZDO_ParseEndDeviceBindReq          1      0     15
       -> sAddrExtCpy                   0      0     30
       -> osal_mem_alloc                0      0     30
       -> ZDO_ConvertOTAClusters        0      0     30
       -> osal_mem_alloc                0      0     30
       -> ZDO_ConvertOTAClusters        0      0     30
     ZDO_ParseMgmNwkDiscRsp             1      0     16
       -> osal_mem_alloc                0      0     32
       -> sAddrExtCpy                   0      0     32
     ZDO_ParseMgmtBindRsp               1      0     16
       -> osal_mem_alloc                0      0     32
       -> sAddrExtCpy                   0      0     32
       -> sAddrExtCpy                   0      0     32
     ZDO_ParseMgmtLqiRsp                1      0     16
       -> osal_mem_alloc                0      0     32
       -> sAddrExtCpy                   0      0     32
     ZDO_ParseMgmtNwkUpdateNotify       1      0     23
       -> osal_build_uint32             0      0     40
       -> osal_mem_alloc                0      0     40
       -> osal_memcpy                   0      0     46
     ZDO_ParseMgmtNwkUpdateReq          1      0     10
       -> osal_build_uint32             0      0     20
     ZDO_ParseMgmtRtgRsp                1      0     14
       -> osal_mem_alloc                0      0     28
     ZDO_ParseNodeDescRsp               2      0      9
     ZDO_ParsePowerDescRsp              1      0      9
     ZDO_ParseServerDiscRsp             1      0      9
     ZDO_ParseSimpleDescBuf             1      0     25
       -> osal_mem_alloc                0      0     32
       -> osal_mem_alloc                0      0     32
       -> osal_mem_free                 0      0     32
     ZDO_ParseSimpleDescRsp             1      0      9
       -> ZDO_ParseSimpleDescBuf        0      0     18
     ZDO_ParseUserDescRsp               1      0     19
       -> osal_mem_alloc                0      0     32
       -> osal_memcpy                   0      0     38
     ZDO_ProcessActiveEPReq             0      0     21
       -> NLME_GetShortAddr             0      0     28
       -> afNumEndPoints                0      0     28
       -> afEndPoints                   0      0     28
       -> ZDP_EPRsp                     0      0     42
     ZDO_ProcessBindUnbindReq           0      0     33
       -> sAddrExtCpy                   0      0     56
       -> NLME_GetExtAddr               0      0     56
       -> sAddrExtCmp                   0      0     56
       -> APSME_BindRequest             0      0     58
       -> ZDApp_NVUpdate                0      0     56
       -> APSME_LookupNwkAddr           0      0     56
       -> ZDP_NwkAddrReq                0      0     56
       -> APSME_UnBindRequest           0      0     58
       -> ZDApp_NVUpdate                0      0     56
       -> ZDP_SendData                  0      0     66
     ZDO_ProcessDeviceAnnce             2      0     42
       -> ZDO_ParseDeviceAnnce          0      0     84
       -> nwkNeighborRemoveAllStranded
                                        0      0     84
       -> NLME_CheckNewAddrSet          0      0     84
       -> NLME_GetCoordExtAddr          0      0     84
       -> sAddrExtCmp                   0      0     84
       -> NLME_GetCoordShortAddr        0      0     84
       -> ZMacSetReq                    0      0     84
       -> NLME_GetShortAddr             4      0     84
       -> AssocGetWithExt               0      0     84
       -> AssocRemove                   0      0     84
       -> NLME_GetShortAddr             0      0     84
       -> AssocChangeNwkAddr            0      0     84
       -> ZDApp_NVUpdate                0      0     84
       -> nwkNeighborUpdateNwkAddr      0      0     84
       -> RTG_RemoveRtgEntry            0      0     84
       -> AddrMgrEntryLookupNwk         0      0     84
       -> osal_memset                   0      0     84
       -> sAddrExtCmp                   0      0     84
       -> AddrMgrExtAddrSet             0      0     84
       -> AddrMgrEntryUpdate            0      0     84
       -> AddrMgrExtAddrSet             0      0     84
       -> AddrMgrEntryLookupExt         0      0     84
       -> AddrMgrEntryUpdate            0      0     84
     ZDO_ProcessMatchDescReq            2      0     38
       -> NLME_IsAddressBroadcast       0      0     62
       -> ZDP_EPRsp                     0      0     76
       -> NLME_IsAddressBroadcast       0      0     62
       -> osal_mem_alloc                0      0     62
       -> ZDO_ConvertOTAClusters        0      0     62
       -> osal_mem_alloc                0      0     62
       -> ZDO_ConvertOTAClusters        0      0     62
       -> osal_msg_send                 0      0     62
       -> osal_mem_free                 0      0     62
       -> ZDO_AnyClusterMatches         0      0     66
       -> ZDO_AnyClusterMatches         0      0     66
       -> osal_msg_allocate             0      0     62
       -> osal_memcpy                   0      0     68
       -> osal_memcpy                   0      0     68
       -> ZDP_EPRsp                     0      0     76
       -> HalLcdWriteScreen             0      0     62
       -> NLME_IsAddressBroadcast       0      0     62
       -> ZDP_EPRsp                     0      0     76
       -> HalLcdWriteScreen             0      0     62
       -> HalLcdWriteScreen             0      0     62
       -> osal_mem_free                 0      0     62
       -> osal_mem_free                 0      0     62
     ZDO_ProcessMgmtBindReq             1      0     26
       -> APSME_GetRequest              0      0     42
       -> osal_mem_alloc                0      0     42
       -> APSME_GetRequest              0      0     42
       -> ZDP_MgmtBindRsp               0      0     52
       -> osal_mem_free                 0      0     42
     ZDO_ProcessMgmtDirectJoinReq       1      0     16
       -> NLME_DirectJoinRequest        0      0     22
       -> ZDP_SendData                  0      0     32
     ZDO_ProcessMgmtLeaveReq            1      0     23
       -> AddrMgrExtAddrValid           0      0     36
       -> NLME_GetExtAddr               0      0     36
       -> sAddrExtCmp                   0      0     36
       -> NLME_LeaveReq                 0      0     36
       -> ZDP_SendData                  0      0     46
     ZDO_ProcessMgmtLqiReq              1      0     64
       -> NLME_GetRequest               0      0    118
       -> AssocCount                    0      0    118
       -> osal_mem_alloc                0      0    118
       -> osal_memset                   0      0    118
       -> AssocFindDevice               0      0    118
       -> sAddrExtCpy                   0      0    118
       -> AddrMgrEntryLookupNwk         0      0    118
       -> sAddrExtCpy                   0      0    118
       -> NLME_GetRequest               0      0    118
       -> sAddrExtCpy                   0      0    118
       -> osal_memset                   0      0    118
       -> ZDP_MgmtLqiRsp                0      0    128
       -> osal_mem_free                 0      0    118
     ZDO_ProcessMgmtNwkDiscReq          1      0     17
       -> osal_build_uint32             0      0     34
       -> NLME_NwkDiscReq2              0      0     34
       -> NLME_NwkDiscTerm              0      0     34
     ZDO_ProcessMgmtPermitJoinReq       1      0     16
       -> NLME_PermitJoiningRequest     0      0     22
       -> ZDP_SendData                  0      0     32
     ZDO_ProcessMgmtRtgReq              0      0     26
       -> NLME_GetRequest               0      0     42
       -> osal_mem_alloc                0      0     42
       -> NLME_GetRequest               0      0     42
       -> ZDP_MgmtRtgRsp                0      0     52
       -> osal_mem_free                 0      0     42
     ZDO_ProcessNodeDescReq             0      0     14
       -> ZDP_NodeDescMsg               0      0     24
       -> ZDP_GenericRsp                0      0     28
     ZDO_ProcessPowerDescReq            0      0     14
       -> ZDP_PowerDescMsg              0      0     24
       -> ZDP_GenericRsp                0      0     28
     ZDO_ProcessServerDiscReq           0      0     14
       -> ZDP_ServerDiscRsp             0      0     28
     ZDO_ProcessSimpleDescReq           0      0     12
       -> afFindSimpleDesc              0      0     24
       -> ZDP_SimpleDescMsg             0      0     24
       -> osal_mem_free                 0      0     24
     ZDO_ProcessUserDescReq             0      0     37
       -> osal_nv_read                  0      0     74
       -> ZDP_UserDescRsp               0      0     72
       -> ZDP_GenericRsp                0      0     74
     ZDO_ProcessUserDescSet             1      0     40
       -> osal_memcpy                   0      0     76
       -> osal_nv_write                 0      0     78
       -> ZDP_SendData                  0      0     80
     ZDO_RemoveMatchMemory              2      0     37
       -> osal_mem_free                 4      0      0
       -> osal_mem_free                 4      0      0
       -> osal_mem_free                 4      0      0
       -> osal_mem_free                 4      0      0
       -> osal_mem_free                 4      0      0
       -> osal_mem_free                 4      0      0
       -> osal_mem_free                 4      0      0
     ZDO_StartDevice                    0      0     18
       -> NLME_NetworkFormationRequest
                                        0      0     36
       -> osal_start_timerEx            0      0     22
       -> NLME_StartRouterRequest       0      0     22
       -> HalLcdWriteScreen             0      0     22
     ZDO_UpdateAddrManager              2      0     13
       -> AddrMgrExtAddrSet             4      0     26
       -> AddrMgrEntryUpdate            4      0     26
     ZDO_UpdateNwkStatus                1      0     12
       -> osal_msg_find                 0      0     24
       -> osal_msg_allocate             0      0     24
       -> osal_set_event                0      0     24
       -> osal_msg_send                 0      0     24
       -> NLME_GetShortAddr             0      0     24
       -> NLME_GetExtAddr               0      0     24


   Segment part sizes:

     Function/Label                          Bytes
     --------------                          -----
     ZDOBuildBuf                               52
     ZDO_EDBind                                 2
     matchED                                    2
     apsChannelMask                             4
     ZDO_Init                                  33
     ?Subroutine0                               7
     ZDO_StartDevice                          134
     ??Subroutine214_0                          4
     ??Subroutine228_0                          6
     ZDO_UpdateNwkStatus                      112
     ?Subroutine1                               5
     ?Subroutine101                             4
     ??Subroutine205_0                          4
     ?Subroutine39                              6
     ?Subroutine73                              1
     ??Subroutine215_0                          4
     ?Subroutine162                             5
     ?Subroutine193                             1
     ??Subroutine216_0                          1
     ??Subroutine217_0                          7
     ??Subroutine219_0                         11
     ??Subroutine230_0                          6
     ZDO_CompareClusterLists                  133
     ??Subroutine199_0                          4
     ?Subroutine166                             8
     ??Subroutine211_0                          5
     ZDO_AnyClusterMatches                     86
     ?Subroutine109                             2
     ??Subroutine221_0                          4
     ?Subroutine167                             6
     ??Subroutine249_0                         14
     ZDO_ProcessNodeDescReq                    66
     ??Subroutine201_0                          5
     ?Subroutine63                             30
     ?Subroutine61                             22
     ?Subroutine181                            12
     ?Subroutine159                             4
     ?Subroutine179                             3
     ??Subroutine239_0                          6
     ZDO_ProcessPowerDescReq                   66
     ?Subroutine3                               2
     ??Subroutine200_0                          3
     ZDO_ProcessSimpleDescReq                 140
     ?Subroutine59                              7
     ?Subroutine113                             6
     ?Subroutine84                              9
     ?Subroutine55                              6
     ??Subroutine225_0                          6
     ZDO_ProcessActiveEPReq                   115
     ?Subroutine66                             10
     ??Subroutine202_0                         13
     ?Subroutine110                             3
     ??Subroutine204_0                          6
     ?Subroutine132                             5
     ??Subroutine212_0                          5
     ?Subroutine138                            15
     ?Subroutine140                             2
     ??Subroutine240_0                          5
     ?Subroutine177                            11
     ?Subroutine4                               2
     ??Subroutine255_0                          3
     ??Subroutine256_0                          5
     ZDO_ConvertOTAClusters                    68
     ZDO_ProcessMatchDescReq                 1136
     ?Subroutine122                            15
     ?Subroutine112                            10
     ?Subroutine92                              1
     ??Subroutine203_0                          4
     ?Subroutine74                             11
     ?Subroutine71                             12
     ?Subroutine68                             14
     ?Subroutine56                             13
     ?Subroutine89                              6
     ?Subroutine72                              5
     ?Subroutine65                              8
     ?Subroutine46                              7
     ??Subroutine208_0                          1
     ??Subroutine209_0                          5
     ?Subroutine6                               5
     ?Subroutine161                             4
     ??Subroutine210_0                          5
     ?Subroutine196                             8
     ??Subroutine220_0                          2
     ?Subroutine45                              8
     ?Subroutine32                              4
     ?Subroutine156                             4
     ?Subroutine191                             5
     ?Subroutine185                             6
     ?Subroutine165                             4
     ?Subroutine91                              8
     ?Subroutine85                              7
     ?Subroutine164                             1
     ??Subroutine231_0                          4
     ?Subroutine192                             6
     ?Subroutine198                             9
     ??Subroutine233_0                          4
     ??Subroutine235_0                          6
     ?Subroutine116                             6
     ?Subroutine141                            13
     ?Subroutine100                            12
     ?Subroutine115                            10
     ?Subroutine114                             4
     ?Subroutine173                             4
     ?Subroutine88                              7
     ?Subroutine169                             6
     ?Subroutine78                              2
     ??Subroutine254_0                         11
     ?Subroutine77                              4
     ?Subroutine160                            13
     ?Subroutine67                              9
     ZDO_ProcessBindUnbindReq                 388
     ?Subroutine125                            19
     ??Subroutine218_0                          7
     ?Subroutine184                             6
     ??Subroutine234_0                         10
     ?Subroutine133                             4
     ??Subroutine237_0                          4
     ??Subroutine238_0                          4
     ZDO_UpdateAddrManager                     57
     ZDO_ProcessServerDiscReq                  77
     ?Subroutine124                            11
     ?Subroutine180                             3
     ZDO_EndDeviceTimeoutCB                   213
     ?Subroutine54                              6
     ?Subroutine163                             9
     ZDO_ProcessMgmtLqiReq                    758
     ?Subroutine40                             12
     ?Subroutine22                              2
     ??Subroutine206_0                          8
     ?Subroutine17                             28
     ?Subroutine11                             20
     ?Subroutine62                              4
     ?Subroutine57                             10
     ?Subroutine96                              6
     ?Subroutine171                            10
     ?Subroutine194                             7
     ?Subroutine175                             8
     ??Subroutine242_0                          5
     ?Subroutine190                             6
     ZDO_ProcessMgmtNwkDiscReq                115
     ?Subroutine128                             3
     ??Subroutine207_0                          4
     ?Subroutine47                              5
     ?Subroutine172                             2
     ?Subroutine195                            11
     ?Subroutine178                             7
     ?Subroutine48                              6
     ?Subroutine153                             8
     ?Subroutine189                             6
     ?Subroutine83                             18
     ZDO_ProcessMgmtRtgReq                    282
     ZDO_ProcessMgmtBindReq                   310
     ZDO_ProcessMgmtDirectJoinReq              85
     ?Subroutine7                               5
     ?Subroutine135                            16
     ?Subroutine121                             3
     ZDO_ProcessMgmtLeaveReq                  177
     ZDO_ProcessMgmtPermitJoinReq              86
     NLME_PermitJoiningTimeout                  3
     ZDO_ProcessUserDescReq                   203
     ZDO_ProcessUserDescSet                   275
     ??Subroutine226_0                          4
     ?Subroutine49                              4
     ?Subroutine155                             5
     ?Subroutine107                             4
     ??Subroutine213_0                          6
     ZDO_ProcessDeviceAnnce                   482
     ZDO_BuildSimpleDescBuf                   161
     ?Subroutine120                            14
     ?Subroutine103                            11
     ?Subroutine97                             12
     ?Subroutine27                             13
     ?Subroutine20                             12
     ?Subroutine151                             1
     ??Subroutine222_0                          4
     ??Subroutine223_0                          6
     ?Subroutine127                             3
     ?Subroutine182                             4
     ?Subroutine197                            10
     ?Subroutine102                             6
     ZDO_MatchEndDeviceBind                   524
     ?Subroutine142                            18
     ?Subroutine87                              9
     ?Subroutine86                             10
     ?Subroutine79                              8
     ?Subroutine64                              3
     ??Subroutine224_0                          7
     ?Subroutine28                             16
     ?Subroutine143                             6
     ?Subroutine118                            13
     ?Subroutine106                            14
     ?Subroutine99                             14
     ?Subroutine93                              6
     ??Subroutine229_0                          4
     ?Subroutine81                             13
     ?Subroutine80                             12
     ?Subroutine176                            11
     ?Subroutine58                             10
     ?Subroutine51                              4
     ?Subroutine157                             9
     ?Subroutine15                             18
     ZDO_RemoveMatchMemory                    109
     ZDO_CopyMatchInfo                        216
     ?Subroutine144                             9
     ?Subroutine108                            13
     ?Subroutine95                              7
     ??Subroutine227_0                          6
     ?Subroutine94                             17
     ?Subroutine34                             13
     ?Subroutine136                             8
     ZDMatchSendState                         660
     ?Subroutine117                            13
     ?Subroutine82                             12
     ?Subroutine60                             26
     ZDO_EndDeviceBindMatchTimeoutCB
                                               16
     ZDO_ParseEndDeviceBindReq                223
     ??Subroutine232_0                          4
     ?Subroutine131                            16
     ?Subroutine98                             10
     ?Subroutine52                              3
     ??Subroutine236_0                          4
     ?Subroutine158                            10
     ?Subroutine33                             13
     ?Subroutine30                              6
     ?Subroutine188                            11
     ??Subroutine248_0                         10
     ?Subroutine145                             7
     ?Subroutine187                             5
     ?Subroutine119                             6
     ??Subroutine250_0                          6
     ?Subroutine104                             6
     ?Subroutine174                            10
     ?Subroutine38                             28
     ?Subroutine29                              4
     ?Subroutine149                            10
     ?Subroutine19                             10
     ?Subroutine37                              6
     ZDO_ParseBindUnbindReq                    44
     ?Subroutine90                             14
     ?Subroutine150                             8
     ?Subroutine8                              81
     ?Subroutine53                             17
     ?Subroutine137                             4
     ZDO_ParseAddrRsp                         194
     ?Subroutine31                              8
     ?Subroutine183                            10
     ?Subroutine105                             4
     ?Subroutine170                            12
     ?Subroutine43                              4
     ?Subroutine154                             4
     ?Subroutine25                              5
     ??Subroutine247_0                          4
     ?Subroutine168                             1
     ?Subroutine26                              4
     ??Subroutine253_0                          7
     ZDO_ParseNodeDescRsp                     219
     ?Subroutine24                              1
     ??Subroutine241_0                          8
     ?Subroutine16                              4
     ?Subroutine146                            20
     ?Subroutine14                              6
     ?Subroutine139                             7
     ?Subroutine36                              4
     ?Subroutine9                              38
     ?Subroutine5                               5
     ZDO_ParsePowerDescRsp                     99
     ?Subroutine35                             17
     ZDO_ParseSimpleDescRsp                    31
     ZDO_ParseEPListRsp                       123
     ?Subroutine130                             4
     ??Subroutine243_0                          7
     ?Subroutine129                             2
     ??Subroutine252_0                          2
     ZDO_ParseServerDiscRsp                    51
     ?Subroutine2                               4
     ZDO_ParseMgmtLqiRsp                      133
     ?Subroutine126                             6
     ??Subroutine244_0                         14
     ?Subroutine21                              9
     ??Subroutine245_0                          8
     ?Subroutine152                             8
     ?Subroutine186                            11
     ?Subroutine134                            11
     ??Subroutine246_0                          5
     ?Subroutine75                             14
     ZDO_ParseMgmNwkDiscRsp                   217
     ?Subroutine50                              8
     ?Subroutine23                              2
     ?Subroutine76                              3
     ?Subroutine42                             10
     ?Subroutine70                             16
     ?Subroutine69                             13
     ZDO_ParseMgmtRtgRsp                      140
     ?Subroutine111                            13
     ?Subroutine44                              4
     ?Subroutine148                             4
     ??Subroutine251_0                          9
     ZDO_ParseMgmtBindRsp                     113
     ZDO_ParseUserDescRsp                     119
     ZDO_ParseSimpleDescBuf                   288
     ?Subroutine123                             1
     ?Subroutine41                              5
     ?Subroutine12                              4
     ZDO_ParseDeviceAnnce                      55
     ZDO_ParseMgmtNwkUpdateNotify             308
     ?Subroutine18                              4
     ?Subroutine147                            19
     ?Subroutine13                             20
     ?Subroutine10                             24
     ZDO_ParseMgmtNwkUpdateReq                 88
     ??ZDO_Init?relay                           6
     ??ZDO_StartDevice?relay                    6
     ??ZDO_UpdateNwkStatus?relay                6
     ??ZDO_CompareClusterLists?relay            6
     ??ZDO_AnyClusterMatches?relay              6
     ??ZDO_ProcessNodeDescReq?relay             6
     ??ZDO_ProcessPowerDescReq?relay            6
     ??ZDO_ProcessSimpleDescReq?relay           6
     ??ZDO_ProcessActiveEPReq?relay             6
     ??ZDO_ConvertOTAClusters?relay             6
     ??ZDO_ProcessMatchDescReq?relay            6
     ??ZDO_ProcessBindUnbindReq?relay           6
     ??ZDO_UpdateAddrManager?relay              6
     ??ZDO_ProcessServerDiscReq?relay           6
     ??ZDO_EndDeviceTimeoutCB?relay             6
     ??ZDO_ProcessMgmtLqiReq?relay              6
     ??ZDO_ProcessMgmtNwkDiscReq?relay          6
     ??ZDO_ProcessMgmtRtgReq?relay              6
     ??ZDO_ProcessMgmtBindReq?relay             6
     ??ZDO_ProcessMgmtDirectJoinReq?relay       6
     ??ZDO_ProcessMgmtLeaveReq?relay            6
     ??ZDO_ProcessMgmtPermitJoinReq?relay       6
     ??NLME_PermitJoiningTimeout?relay          6
     ??ZDO_ProcessUserDescReq?relay             6
     ??ZDO_ProcessUserDescSet?relay             6
     ??ZDO_ProcessDeviceAnnce?relay             6
     ??ZDO_BuildSimpleDescBuf?relay             6
     ??ZDO_MatchEndDeviceBind?relay             6
     ??ZDO_RemoveMatchMemory?relay              6
     ??ZDO_CopyMatchInfo?relay                  6
     ??ZDMatchSendState?relay                   6
     ??ZDO_EndDeviceBindMatchTimeoutCB?relay    6
     ??ZDO_ParseEndDeviceBindReq?relay          6
     ??ZDO_ParseBindUnbindReq?relay             6
     ??ZDO_ParseAddrRsp?relay                   6
     ??ZDO_ParseNodeDescRsp?relay               6
     ??ZDO_ParsePowerDescRsp?relay              6
     ??ZDO_ParseSimpleDescRsp?relay             6
     ??ZDO_ParseEPListRsp?relay                 6
     ??ZDO_ParseServerDiscRsp?relay             6
     ??ZDO_ParseMgmtLqiRsp?relay                6
     ??ZDO_ParseMgmNwkDiscRsp?relay             6
     ??ZDO_ParseMgmtRtgRsp?relay                6
     ??ZDO_ParseMgmtBindRsp?relay               6
     ??ZDO_ParseUserDescRsp?relay               6
     ??ZDO_ParseSimpleDescBuf?relay             6
     ??ZDO_ParseDeviceAnnce?relay               6
     ??ZDO_ParseMgmtNwkUpdateNotify?relay       6
     ??ZDO_ParseMgmtNwkUpdateReq?relay          6
     ?<Constant "StartDevice ERR">             16
     ?<Constant "MODE unknown">                13
     ?<Constant "End Device Bind">             16
     ?<Constant "Success Sent">                13
     ?<Constant "Timeout">                      8
     ?<Constant "Match Desc Req">              15
     ?<Constant "Rsp Sent">                     9
     ?<Constant "Rsp Non Matched">             16
     ?<Constant "Non Matched">                 12
     __Constant_0                               4

 
 11 862 bytes in segment BANKED_CODE
    294 bytes in segment BANK_RELAYS
    122 bytes in segment XDATA_ROM_C
     60 bytes in segment XDATA_Z
 
 12 156 bytes of CODE  memory
    118 bytes of CONST memory (+ 4 bytes shared)
     60 bytes of XDATA memory

Errors: none
Warnings: none
