###############################################################################
#                                                                             #
# IAR C/C++ Compiler V8.10.1.40194/W32 for 8051         25/Dec/2013  17:56:25 #
# Copyright 2004-2011 IAR Systems AB.                                         #
#                                                                             #
#    Core               =  plain                                              #
#    Code model         =  banked                                             #
#    Data model         =  large                                              #
#    Calling convention =  xdata reentrant                                    #
#    Constant location  =  data_rom                                           #
#    Dptr setup         =  1,16                                               #
#    Source file        =  E:\wise-house\Components\stack\zdo\ZDProfile.c     #
#    Command line       =  -f E:\wise-house\Projects\zstack\Samples\WSN_senso #
#                          rs\CC2530DB\..\..\..\Tools\CC2530DB\f8wCoord.cfg   #
#                          (-DCPU32MHZ -DROOT=__near_func                     #
#                          -DMAC_CFG_APP_PENDING_QUEUE=TRUE                   #
#                          -DMAC_CFG_TX_DATA_MAX=5 -DMAC_CFG_TX_MAX=8         #
#                          -DMAC_CFG_RX_MAX=5 -DZDO_COORDINATOR -DRTR_NWK)    #
#                          -f E:\wise-house\Projects\zstack\Samples\WSN_senso #
#                          rs\CC2530DB\..\..\..\Tools\CC2530DB\f8wConfig.cfg  #
#                          (-DZIGBEEPRO -DSECURE=0 -DZG_SECURE_DYNAMIC=0      #
#                          -DREFLECTOR -DDEFAULT_CHANLIST=0x00000800          #
#                          -DZDAPP_CONFIG_PAN_ID=0xFFFF                       #
#                          -DNWK_START_DELAY=100 -DEXTENDED_JOINING_RANDOM_MA #
#                          SK=0x007F -DBEACON_REQUEST_DELAY=100               #
#                          -DBEACON_REQ_DELAY_MASK=0x00FF                     #
#                          -DLINK_STATUS_JITTER_MASK=0x007F                   #
#                          -DROUTE_EXPIRY_TIME=30 -DAPSC_ACK_WAIT_DURATION_PO #
#                          LLED=3000 -DNWK_INDIRECT_MSG_TIMEOUT=7             #
#                          -DMAX_RREQ_ENTRIES=8 -DAPSC_MAX_FRAME_RETRIES=3    #
#                          -DNWK_MAX_DATA_RETRIES=2                           #
#                          -DMAX_POLL_FAILURE_RETRIES=2 -DMAX_BCAST=9         #
#                          -DAPS_MAX_GROUPS=16 -DMAX_RTG_ENTRIES=40           #
#                          -DNWK_MAX_BINDING_ENTRIES=4                        #
#                          -DMAX_BINDING_CLUSTER_IDS=4 "-DDEFAULT_KEY={0x01,  #
#                          0x03, 0x05, 0x07, 0x09, 0x0B, 0x0D, 0x0F, 0x00,    #
#                          0x02, 0x04, 0x06, 0x08, 0x0A, 0x0C, 0x0D}"         #
#                          -DMAC_MAX_FRAME_SIZE=116                           #
#                          -DZDNWKMGR_MIN_TRANSMISSIONS=20 "-DCONST=const     #
#                          __code" -DGENERIC=__generic                        #
#                          -DRFD_RCVC_ALWAYS_ON=FALSE -DPOLL_RATE=1000        #
#                          -DQUEUED_POLL_RATE=100 -DRESPONSE_POLL_RATE=100)   #
#                          -DREJOIN_POLL_RATE=440 E:\wise-house\Components\st #
#                          ack\zdo\ZDProfile.c -D ZTOOL_P1 -D MT_TASK -D      #
#                          MT_SYS_FUNC -D MT_ZDO_FUNC -D LCD_SUPPORTED=DEBUG  #
#                          -D HAL_UART=TRUE -D xSERIAL_APP_PORT=0 -lC         #
#                          E:\wise-house\Projects\zstack\Samples\WSN_sensors\ #
#                          CC2530DB\CoordinatorEB\List\ -lA                   #
#                          E:\wise-house\Projects\zstack\Samples\WSN_sensors\ #
#                          CC2530DB\CoordinatorEB\List\ --diag_suppress       #
#                          Pe001,Pa010 -o E:\wise-house\Projects\zstack\Sampl #
#                          es\WSN_sensors\CC2530DB\CoordinatorEB\Obj\ -e      #
#                          --debug --core=plain --dptr=16,1                   #
#                          --data_model=large --code_model=banked             #
#                          --calling_convention=xdata_reentrant               #
#                          --place_constants=data_rom --nr_virtual_regs 8 -I  #
#                          E:\wise-house\Projects\zstack\Samples\WSN_sensors\ #
#                          CC2530DB\ -I E:\wise-house\Projects\zstack\Samples #
#                          \WSN_sensors\CC2530DB\..\SOURCE\ -I                #
#                          E:\wise-house\Projects\zstack\Samples\WSN_sensors\ #
#                          CC2530DB\..\..\..\ZMAIN\TI2530DB\ -I               #
#                          E:\wise-house\Projects\zstack\Samples\WSN_sensors\ #
#                          CC2530DB\..\..\..\..\..\COMPONENTS\MT\ -I          #
#                          E:\wise-house\Projects\zstack\Samples\WSN_sensors\ #
#                          CC2530DB\..\..\..\..\..\COMPONENTS\HAL\INCLUDE\    #
#                          -I E:\wise-house\Projects\zstack\Samples\WSN_senso #
#                          rs\CC2530DB\..\..\..\..\..\COMPONENTS\HAL\TARGET\C #
#                          C2530EB\ -I E:\wise-house\Projects\zstack\Samples\ #
#                          WSN_sensors\CC2530DB\..\..\..\..\..\COMPONENTS\OSA #
#                          L\MCU\CCSOC\ -I E:\wise-house\Projects\zstack\Samp #
#                          les\WSN_sensors\CC2530DB\..\..\..\..\..\COMPONENTS #
#                          \OSAL\INCLUDE\ -I E:\wise-house\Projects\zstack\Sa #
#                          mples\WSN_sensors\CC2530DB\..\..\..\..\..\COMPONEN #
#                          TS\STACK\AF\ -I E:\wise-house\Projects\zstack\Samp #
#                          les\WSN_sensors\CC2530DB\..\..\..\..\..\COMPONENTS #
#                          \STACK\NWK\ -I E:\wise-house\Projects\zstack\Sampl #
#                          es\WSN_sensors\CC2530DB\..\..\..\..\..\COMPONENTS\ #
#                          STACK\SEC\ -I E:\wise-house\Projects\zstack\Sample #
#                          s\WSN_sensors\CC2530DB\..\..\..\..\..\COMPONENTS\S #
#                          TACK\SAPI\ -I E:\wise-house\Projects\zstack\Sample #
#                          s\WSN_sensors\CC2530DB\..\..\..\..\..\COMPONENTS\S #
#                          TACK\SYS\ -I E:\wise-house\Projects\zstack\Samples #
#                          \WSN_sensors\CC2530DB\..\..\..\..\..\COMPONENTS\ST #
#                          ACK\ZDO\ -I E:\wise-house\Projects\zstack\Samples\ #
#                          WSN_sensors\CC2530DB\..\..\..\..\..\COMPONENTS\ZMA #
#                          C\F8W\ -I E:\wise-house\Projects\zstack\Samples\WS #
#                          N_sensors\CC2530DB\..\..\..\..\..\COMPONENTS\ZMAC\ #
#                           -I E:\wise-house\Projects\zstack\Samples\WSN_sens #
#                          ors\CC2530DB\..\..\..\..\..\COMPONENTS\SERVICES\SA #
#                          DDR\ -I E:\wise-house\Projects\zstack\Samples\WSN_ #
#                          sensors\CC2530DB\..\..\..\..\..\COMPONENTS\SERVICE #
#                          S\SDATA\ -I E:\wise-house\Projects\zstack\Samples\ #
#                          WSN_sensors\CC2530DB\..\..\..\..\..\COMPONENTS\MAC #
#                          \INCLUDE\ -I E:\wise-house\Projects\zstack\Samples #
#                          \WSN_sensors\CC2530DB\..\..\..\..\..\COMPONENTS\MA #
#                          C\HIGH_LEVEL\ -I E:\wise-house\Projects\zstack\Sam #
#                          ples\WSN_sensors\CC2530DB\..\..\..\..\..\COMPONENT #
#                          S\MAC\LOW_LEVEL\srf04\ -I                          #
#                          E:\wise-house\Projects\zstack\Samples\WSN_sensors\ #
#                          CC2530DB\..\..\..\..\..\COMPONENTS\MAC\LOW_LEVEL\s #
#                          rf04\SINGLE_CHIP\ -Ohz --require_prototypes        #
#    List file          =  E:\wise-house\Projects\zstack\Samples\WSN_sensors\ #
#                          CC2530DB\CoordinatorEB\List\ZDProfile.lst          #
#    Object file        =  E:\wise-house\Projects\zstack\Samples\WSN_sensors\ #
#                          CC2530DB\CoordinatorEB\Obj\ZDProfile.r51           #
#                                                                             #
#                                                                             #
###############################################################################

E:\wise-house\Components\stack\zdo\ZDProfile.c
      1          /**************************************************************************************************
      2            Filename:       ZDProfile.c
      3            Revised:        $Date: 2010-10-13 10:54:13 -0700 (Wed, 13 Oct 2010) $
      4            Revision:       $Revision: 24112 $
      5          
      6            Description:    This is the Zigbee Device Profile.
      7          
      8          
      9            Copyright 2004-2010 Texas Instruments Incorporated. All rights reserved.
     10          
     11            IMPORTANT: Your use of this Software is limited to those specific rights
     12            granted under the terms of a software license agreement between the user
     13            who downloaded the software, his/her employer (which must be your employer)
     14            and Texas Instruments Incorporated (the "License").  You may not use this
     15            Software unless you agree to abide by the terms of the License. The License
     16            limits your use, and you acknowledge, that the Software may not be modified,
     17            copied or distributed unless embedded on a Texas Instruments microcontroller
     18            or used solely and exclusively in conjunction with a Texas Instruments radio
     19            frequency transceiver, which is integrated into your product.  Other than for
     20            the foregoing purpose, you may not use, reproduce, copy, prepare derivative
     21            works of, modify, distribute, perform, display or sell this Software and/or
     22            its documentation for any purpose.
     23          
     24            YOU FURTHER ACKNOWLEDGE AND AGREE THAT THE SOFTWARE AND DOCUMENTATION ARE
     25            PROVIDED “AS IS” WITHOUT WARRANTY OF ANY KIND, EITHER EXPRESS OR IMPLIED,
     26            INCLUDING WITHOUT LIMITATION, ANY WARRANTY OF MERCHANTABILITY, TITLE,
     27            NON-INFRINGEMENT AND FITNESS FOR A PARTICULAR PURPOSE. IN NO EVENT SHALL
     28            TEXAS INSTRUMENTS OR ITS LICENSORS BE LIABLE OR OBLIGATED UNDER CONTRACT,
     29            NEGLIGENCE, STRICT LIABILITY, CONTRIBUTION, BREACH OF WARRANTY, OR OTHER
     30            LEGAL EQUITABLE THEORY ANY DIRECT OR INDIRECT DAMAGES OR EXPENSES
     31            INCLUDING BUT NOT LIMITED TO ANY INCIDENTAL, SPECIAL, INDIRECT, PUNITIVE
     32            OR CONSEQUENTIAL DAMAGES, LOST PROFITS OR LOST DATA, COST OF PROCUREMENT
     33            OF SUBSTITUTE GOODS, TECHNOLOGY, SERVICES, OR ANY CLAIMS BY THIRD PARTIES
     34            (INCLUDING BUT NOT LIMITED TO ANY DEFENSE THEREOF), OR OTHER SIMILAR COSTS.
     35          
     36            Should you have any questions regarding your right to use this Software,
     37            contact Texas Instruments Incorporated at www.TI.com.
     38          **************************************************************************************************/
     39          
     40          /*********************************************************************
     41           * INCLUDES
     42           */
     43          #include "ZComdef.h"
     44          #include "OSAL.h"
     45          #include "AF.h"
     46          #include "NLMEDE.h"
     47          #include "nwk_util.h"
     48          #include "APS.h"
     49          
     50          #include "AddrMgr.h"
     51          #include "ZDConfig.h"
     52          #include "ZDProfile.h"
     53          #include "ZDObject.h"
     54          #include "ZDNwkMgr.h"
     55          
     56          #if defined( LCD_SUPPORTED )
     57            #include "OnBoard.h"
     58          #endif
     59          
     60          #include "nwk_util.h"
     61          
     62          #if defined( MT_ZDO_FUNC )
     63            #include "MT_ZDO.h"
     64          #endif
     65          
     66          /*********************************************************************
     67           * MACROS
     68           */
     69          
     70          #define ZADDR_TO_AFADDR( pZADDR, AFADDR ) {                            \
     71            (AFADDR).endPoint = ZDP_AF_ENDPOINT;                                 \
     72            (AFADDR).addrMode = (afAddrMode_t)(pZADDR)->addrMode;                \
     73            (AFADDR).addr.shortAddr = (pZADDR)->addr.shortAddr;                  \
     74          }
     75          
     76          #define FillAndSendBuffer( TRANSSEQ, ADDR, ID, LEN, BUF ) {     \
     77            afStatus_t stat;                                    \
     78            ZDP_TmpBuf = (BUF)+1;                               \
     79            stat = fillAndSend( (TRANSSEQ), (ADDR), (ID), (LEN) );          \
     80            osal_mem_free( (BUF) );                             \
     81            ZDP_TmpBuf = ZDP_Buf+1;                             \
     82            return stat;                                        \
     83          }
     84          
     85          #define FillAndSendTxOptions( TRANSSEQ, ADDR, ID, LEN, TxO ) {  \
     86            afStatus_t stat;                                    \
     87            ZDP_TxOptions = (TxO);                              \
     88            stat = fillAndSend( (TRANSSEQ), (ADDR), (ID), (LEN) );          \
     89            ZDP_TxOptions = AF_TX_OPTIONS_NONE;                 \
     90            return stat;                                        \
     91          }
     92          
     93          #define FillAndSendBufferTxOptions( TRANSSEQ, ADDR, ID, LEN, BUF, TxO ) { \
     94            afStatus_t stat;                                    \
     95            ZDP_TmpBuf = (BUF)+1;                               \
     96            ZDP_TxOptions = (TxO);                              \
     97            stat = fillAndSend( (TRANSSEQ), (ADDR), (ID), (LEN) );          \
     98            osal_mem_free( (BUF) );                             \
     99            ZDP_TmpBuf = ZDP_Buf+1;                             \
    100            ZDP_TxOptions = AF_TX_OPTIONS_NONE;                 \
    101            return stat;                                        \
    102          }
    103          
    104          /*********************************************************************
    105           * CONSTANTS
    106           */
    107          
    108          #define ZDP_BUF_SZ          80
    109          

   \                                 In  segment CODE_C, align 1
    110          CONST byte ZDP_AF_ENDPOINT = 0;
   \                     ZDP_AF_ENDPOINT:
   \   000000   00           DB 0
    111          
    112          /*********************************************************************
    113           * TYPEDEFS
    114           */
    115          typedef struct
    116          {
    117            void *next;
    118            uint8 taskID;
    119            uint16 clusterID;
    120          } ZDO_MsgCB_t;
    121          
    122          
    123          /*********************************************************************
    124           * GLOBAL VARIABLES
    125           */
    126          

   \                                 In  segment XDATA_Z, align 1, keep-with-next
    127          byte ZDP_TransID = 0;
   \                     ZDP_TransID:
   \   000000                DS 1
   \   000001                REQUIRE __INIT_XDATA_Z
    128          
    129          /*********************************************************************
    130           * EXTERNAL VARIABLES
    131           */
    132          
    133          extern endPointDesc_t ZDApp_epDesc;
    134          
    135          /*********************************************************************
    136           * EXTERNAL FUNCTIONS
    137           */
    138          
    139          /*********************************************************************
    140           * LOCAL FUNCTIONS
    141           */
    142          
    143          static afStatus_t fillAndSend( uint8 *transSeq, zAddrType_t *addr, cId_t clusterID, byte len );
    144          uint8 ZDO_SendMsgCBs( zdoIncomingMsg_t *inMsg );
    145          void zdpProcessAddrReq( zdoIncomingMsg_t *inMsg );
    146          
    147          /*********************************************************************
    148           * LOCAL VARIABLES
    149           */
    150          

   \                                 In  segment XDATA_Z, align 1, keep-with-next
    151          static uint8  ZDP_Buf[ ZDP_BUF_SZ ];
   \                     ZDP_Buf:
   \   000000                DS 80
   \   000050                REQUIRE __INIT_XDATA_Z

   \                                 In  segment XDATA_I, align 1, keep-with-next
    152          static uint8 *ZDP_TmpBuf = ZDP_Buf+1;
   \                     ZDP_TmpBuf:
   \   000000                DS 2
   \   000002                REQUIRE `?<Initializer for ZDP_TmpBuf>`
   \   000002                REQUIRE __INIT_XDATA_I
    153          

   \                                 In  segment XDATA_Z, align 1, keep-with-next
    154          byte ZDP_TxOptions = AF_TX_OPTIONS_NONE;
   \                     ZDP_TxOptions:
   \   000000                DS 1
   \   000001                REQUIRE __INIT_XDATA_Z

   \                                 In  segment XDATA_Z, align 1, keep-with-next
    155          ZDO_MsgCB_t *zdoMsgCBs = (ZDO_MsgCB_t *)NULL;
   \                     zdoMsgCBs:
   \   000000                DS 2
   \   000002                REQUIRE __INIT_XDATA_Z
    156          
    157          /*********************************************************************
    158           * ZDO Message Processing table
    159           */
    160          
    161          typedef void (*pfnZDPMsgProcessor)( zdoIncomingMsg_t *inMsg );
    162          
    163          typedef struct
    164          {
    165            uint16                clusterID;
    166            pfnZDPMsgProcessor    pFn;
    167          } zdpMsgProcItem_t;
    168          

   \                                 In  segment CODE_C, align 1
    169          CONST zdpMsgProcItem_t zdpMsgProcs[] =
   \                     zdpMsgProcs:
   \   000000   0000         DW 0
   \   000002   ....         DW ??zdpProcessAddrReq?relay
   \   000004   1300         DW 19
   \   000006   ....         DW ??ZDO_ProcessDeviceAnnce?relay
   \   000008   0100         DW 1
   \   00000A   ....         DW ??zdpProcessAddrReq?relay
   \   00000C   0200         DW 2
   \   00000E   ....         DW ??ZDO_ProcessNodeDescReq?relay
   \   000010   0300         DW 3
   \   000012   ....         DW ??ZDO_ProcessPowerDescReq?relay
   \   000014   0400         DW 4
   \   000016   ....         DW ??ZDO_ProcessSimpleDescReq?relay
   \   000018   0500         DW 5
   \   00001A   ....         DW ??ZDO_ProcessActiveEPReq?relay
   \   00001C   0600         DW 6
   \   00001E   ....         DW ??ZDO_ProcessMatchDescReq?relay
   \   000020   1100         DW 17
   \   000022   ....         DW ??ZDO_ProcessUserDescReq?relay
   \   000024   1400         DW 20
   \   000026   ....         DW ??ZDO_ProcessUserDescSet?relay
   \   000028   1500         DW 21
   \   00002A   ....         DW ??ZDO_ProcessServerDiscReq?relay
   \   00002C   FFFF         DW 65535
   \   00002E   0000         DW 0H
    170          {
    171          #if ( RFD_RCVC_ALWAYS_ON==TRUE ) || ( ZG_BUILD_RTR_TYPE )
    172            // These aren't processed by sleeping end devices.
    173            { NWK_addr_req,           zdpProcessAddrReq },
    174            { Device_annce,           ZDO_ProcessDeviceAnnce },
    175          #endif
    176            { IEEE_addr_req,          zdpProcessAddrReq },
    177            { Node_Desc_req,          ZDO_ProcessNodeDescReq },
    178            { Power_Desc_req,         ZDO_ProcessPowerDescReq },
    179            { Simple_Desc_req,        ZDO_ProcessSimpleDescReq },
    180            { Active_EP_req,          ZDO_ProcessActiveEPReq },
    181            { Match_Desc_req,         ZDO_ProcessMatchDescReq },
    182          #if defined ( ZDO_MGMT_NWKDISC_RESPONSE )
    183            { Mgmt_NWK_Disc_req,      ZDO_ProcessMgmtNwkDiscReq },
    184          #endif
    185          #if defined ( ZDO_MGMT_LQI_RESPONSE ) && ( ZG_BUILD_RTR_TYPE )
    186            { Mgmt_Lqi_req,           ZDO_ProcessMgmtLqiReq },
    187          #endif
    188          #if defined ( ZDO_MGMT_RTG_RESPONSE ) && ( ZG_BUILD_RTR_TYPE )
    189            { Mgmt_Rtg_req,           ZDO_ProcessMgmtRtgReq },
    190          #endif
    191          #if defined ( ZDO_MGMT_BIND_RESPONSE ) && defined ( REFLECTOR )
    192            { Mgmt_Bind_req,          ZDO_ProcessMgmtBindReq },
    193          #endif
    194          #if defined ( ZDO_MGMT_JOINDIRECT_RESPONSE ) && ( ZG_BUILD_RTR_TYPE )
    195            { Mgmt_Direct_Join_req,   ZDO_ProcessMgmtDirectJoinReq },
    196          #endif
    197          #if defined ( ZDO_MGMT_LEAVE_RESPONSE )
    198            { Mgmt_Leave_req,         ZDO_ProcessMgmtLeaveReq },
    199          #endif
    200          #if defined ( ZDO_MGMT_PERMIT_JOIN_RESPONSE )  && ( ZG_BUILD_RTR_TYPE )
    201            { Mgmt_Permit_Join_req,   ZDO_ProcessMgmtPermitJoinReq },
    202          #endif
    203          #if defined ( ZDO_USERDESC_RESPONSE )
    204            { User_Desc_req,          ZDO_ProcessUserDescReq },
    205          #endif
    206          #if defined ( ZDO_USERDESCSET_RESPONSE )
    207            { User_Desc_set,          ZDO_ProcessUserDescSet },
    208          #endif
    209          #if defined ( ZDO_SERVERDISC_RESPONSE )
    210            { Server_Discovery_req,   ZDO_ProcessServerDiscReq },
    211          #endif
    212            {0xFFFF, NULL} // Last
    213          };
    214          
    215          /*********************************************************************
    216           * @fn          fillAndSend
    217           *
    218           * @brief       Combined to reduce space
    219           *
    220           * @param
    221           * @param
    222           *
    223           * @return      afStatus_t
    224           */

   \                                 In  segment BANKED_CODE, align 1, keep-with-next
    225          static afStatus_t fillAndSend( uint8 *transSeq, zAddrType_t *addr, cId_t clusterID, byte len )
   \                     fillAndSend:
    226          {
   \   000000   74F2         MOV     A,#-0xe
   \   000002   12....       LCALL   ?BANKED_ENTER_XDATA
   \   000005                ; Saved register size: 14
   \   000005                ; Auto size: 12
   \   000005   74F4         MOV     A,#-0xc
   \   000007   12....       LCALL   ?ALLOC_XSTACK8
   \   00000A   8A..         MOV     ?V0 + 4,R2
   \   00000C   8B..         MOV     ?V0 + 5,R3
   \   00000E   8C..         MOV     ?V0 + 2,R4
   \   000010   8D..         MOV     ?V0 + 3,R5
   \   000012   89..         MOV     ?V0 + 0,R1
   \   000014   741A         MOV     A,#0x1a
   \   000016   12....       LCALL   ?XSTACK_DISP0_8
   \   000019   12....       LCALL   ??Subroutine111_0 & 0xFFFF
    227            afAddrType_t afAddr;
    228          
    229            osal_memset( &afAddr, 0, sizeof(afAddrType_t) );
   \                     ??CrossCallReturnLabel_195:
   \   00001C                ; Setup parameters for call to function osal_memset
   \   00001C   7C0C         MOV     R4,#0xc
   \   00001E   7D00         MOV     R5,#0x0
   \   000020   7900         MOV     R1,#0x0
   \   000022   85..82       MOV     DPL,?XSP + 0
   \   000025   85..83       MOV     DPH,?XSP + 1
   \   000028   AA82         MOV     R2,DPL
   \   00002A   AB83         MOV     R3,DPH
   \   00002C   12....       LCALL   ??osal_memset?relay
    230            ZADDR_TO_AFADDR( addr, afAddr );
   \   00002F   7409         MOV     A,#0x9
   \   000031   12....       LCALL   ?XSTACK_DISP0_8
   \   000034   E4           CLR     A
   \   000035   12....       LCALL   ?Subroutine69 & 0xFFFF
   \                     ??CrossCallReturnLabel_112:
   \   000038   A3           INC     DPTR
   \   000039   A3           INC     DPTR
   \   00003A   A3           INC     DPTR
   \   00003B   A3           INC     DPTR
   \   00003C   A3           INC     DPTR
   \   00003D   A3           INC     DPTR
   \   00003E   A3           INC     DPTR
   \   00003F   E0           MOVX    A,@DPTR
   \   000040   C0E0         PUSH    A
   \   000042   7408         MOV     A,#0x8
   \   000044   12....       LCALL   ?XSTACK_DISP0_8
   \   000047   D0E0         POP     A
   \   000049   F0           MOVX    @DPTR,A
   \   00004A   85..82       MOV     DPL,?V0 + 2
   \   00004D   85..83       MOV     DPH,?V0 + 3
   \   000050   12....       LCALL   ?Subroutine25 & 0xFFFF
   \                     ??CrossCallReturnLabel_26:
   \   000053   F0           MOVX    @DPTR,A
    231          
    232            *(ZDP_TmpBuf-1) = *transSeq;
   \   000054   90....       MOV     DPTR,#ZDP_TmpBuf
   \   000057   E0           MOVX    A,@DPTR
   \   000058   24FF         ADD     A,#-0x1
   \   00005A   F5..         MOV     ?V0 + 2,A
   \   00005C   A3           INC     DPTR
   \   00005D   E0           MOVX    A,@DPTR
   \   00005E   34FF         ADDC    A,#-0x1
   \   000060   F5..         MOV     ?V0 + 3,A
   \   000062   85..82       MOV     DPL,?V0 + 4
   \   000065   85..83       MOV     DPH,?V0 + 5
   \   000068   12....       LCALL   ?Subroutine56 & 0xFFFF
    233          
    234            return AF_DataRequest( &afAddr, &ZDApp_epDesc, clusterID,
    235                                     (uint16)(len+1), (uint8*)(ZDP_TmpBuf-1),
    236                                     transSeq, ZDP_TxOptions,  AF_DEFAULT_RADIUS );
   \                     ??CrossCallReturnLabel_89:
   \   00006B                ; Setup parameters for call to function AF_DataRequest
   \   00006B   75..1E       MOV     ?V0 + 1,#0x1e
   \   00006E   78..         MOV     R0,#?V0 + 1
   \   000070   12....       LCALL   ?PUSH_XSTACK_I_ONE
   \   000073   78..         MOV     R0,#?V0 + 4
   \   000075   12....       LCALL   ?PUSH_XSTACK_I_TWO
   \   000078   78..         MOV     R0,#?V0 + 2
   \   00007A   12....       LCALL   ?PUSH_XSTACK_I_TWO
   \   00007D   85....       MOV     ?V0 + 2,?V0 + 0
   \   000080   E5..         MOV     A,?V0 + 2
   \   000082   2401         ADD     A,#0x1
   \   000084   F5..         MOV     ?V0 + 2,A
   \   000086   E4           CLR     A
   \   000087   3400         ADDC    A,#0x0
   \   000089   F5..         MOV     ?V0 + 3,A
   \   00008B   78..         MOV     R0,#?V0 + 2
   \   00008D   12....       LCALL   ?PUSH_XSTACK_I_TWO
   \   000090   8E..         MOV     ?V0 + 2,R6
   \   000092   8F..         MOV     ?V0 + 3,R7
   \   000094   78..         MOV     R0,#?V0 + 2
   \   000096   12....       LCALL   ?PUSH_XSTACK_I_TWO
   \   000099   90....       MOV     DPTR,#ZDP_TxOptions
   \   00009C   E0           MOVX    A,@DPTR
   \   00009D   F9           MOV     R1,A
   \   00009E   7C..         MOV     R4,#ZDApp_epDesc & 0xff
   \   0000A0   7D..         MOV     R5,#(ZDApp_epDesc >> 8) & 0xff
   \   0000A2   7409         MOV     A,#0x9
   \   0000A4   12....       LCALL   ?XSTACK_DISP0_8
   \   0000A7   AA82         MOV     R2,DPL
   \   0000A9   AB83         MOV     R3,DPH
   \   0000AB   12....       LCALL   ??AF_DataRequest?relay
   \   0000AE   7409         MOV     A,#0x9
   \   0000B0   12....       LCALL   ?DEALLOC_XSTACK8
   \   0000B3   740C         MOV     A,#0xc
   \   0000B5   02....       LJMP    ?Subroutine0 & 0xFFFF
    237          
    238          }

   \                                 In  segment BANKED_CODE, align 1, keep-with-next
   \                     ?Subroutine69:
   \   000000   F0           MOVX    @DPTR,A
   \   000001   85..82       MOV     DPL,?V0 + 2
   \   000004   85..83       MOV     DPH,?V0 + 3
   \   000007   A3           INC     DPTR
   \   000008   22           RET

   \                                 In  segment BANKED_CODE, align 1, keep-with-next
   \                     ?Subroutine25:
   \   000000   12....       LCALL   ?Subroutine79 & 0xFFFF
   \                     ??CrossCallReturnLabel_170:
   \   000003   85..82       MOV     DPL,?XSP + 0
   \   000006   85..83       MOV     DPH,?XSP + 1
   \   000009   E8           MOV     A,R0
   \   00000A   F0           MOVX    @DPTR,A
   \   00000B   A3           INC     DPTR
   \   00000C   E9           MOV     A,R1
   \   00000D   22           RET

   \                                 In  segment BANKED_CODE, align 1, keep-with-next
   \                     ?Subroutine79:
   \   000000   E0           MOVX    A,@DPTR
   \   000001   F8           MOV     R0,A
   \   000002   A3           INC     DPTR
   \   000003   E0           MOVX    A,@DPTR
   \   000004   F9           MOV     R1,A
   \   000005   22           RET

   \                                 In  segment BANKED_CODE, align 1, keep-with-next
   \                     ?Subroutine56:
   \   000000   12....       LCALL   ?Subroutine84 & 0xFFFF
   \                     ??CrossCallReturnLabel_121:
   \   000003   22           RET

   \                                 In  segment BANKED_CODE, align 1, keep-with-next
   \                     ?Subroutine84:
   \   000000   E0           MOVX    A,@DPTR
   \   000001   85..82       MOV     DPL,?V0 + 2
   \   000004   85..83       MOV     DPH,?V0 + 3
   \   000007   F0           MOVX    @DPTR,A
   \   000008   22           RET

   \                                 In  segment BANKED_CODE, align 1, keep-with-next
   \                     ??Subroutine111_0:
   \   000000   E0           MOVX    A,@DPTR
   \   000001   FE           MOV     R6,A
   \   000002   A3           INC     DPTR
   \   000003   E0           MOVX    A,@DPTR
   \   000004   FF           MOV     R7,A
   \   000005   22           RET

   \                                 In  segment BANKED_CODE, align 1, keep-with-next
   \                     ?Subroutine0:
   \   000000   12....       LCALL   ?DEALLOC_XSTACK8
   \   000003                REQUIRE ??Subroutine127_0
   \   000003                ; // Fall through to label ??Subroutine127_0

   \                                 In  segment BANKED_CODE, align 1, keep-with-next
   \                     ??Subroutine127_0:
   \   000000   7F06         MOV     R7,#0x6
   \   000002   02....       LJMP    ?BANKED_LEAVE_XDATA
    239          
    240          /*********************************************************************
    241           * @fn          ZDP_SendData
    242           *
    243           * @brief       This builds and send a request message that has
    244           *              NWKAddrOfInterest as its only parameter.
    245           *
    246           * @param       dstAddr - destination address
    247           * @param       cmd - clusterID
    248           * @param       dataLen - number of bytes of data
    249           * @param       data - pointer to the data
    250           * @param       SecurityEnable - Security Options
    251           *
    252           * @return      afStatus_t
    253           */

   \                                 In  segment BANKED_CODE, align 1, keep-with-next
    254          afStatus_t ZDP_SendData( uint8 *TransSeq, zAddrType_t *dstAddr, uint16 cmd,
   \                     ZDP_SendData:
    255                                  byte len, uint8 *buf, byte SecurityEnable )
    256          {
   \   000000   74F2         MOV     A,#-0xe
   \   000002   12....       LCALL   ?BANKED_ENTER_XDATA
   \   000005                ; Saved register size: 14
   \   000005                ; Auto size: 0
   \   000005   89..         MOV     ?V0 + 0,R1
   \   000007   740E         MOV     A,#0xe
   \   000009   12....       LCALL   ?XSTACK_DISP0_8
   \   00000C   12....       LCALL   ??Subroutine106_0 & 0xFFFF
   \                     ??CrossCallReturnLabel_160:
   \   00000F   7410         MOV     A,#0x10
   \   000011   12....       LCALL   ?XSTACK_DISP0_8
   \   000014   12....       LCALL   ?Subroutine55 & 0xFFFF
   \                     ??CrossCallReturnLabel_87:
   \   000017   12....       LCALL   ?XSTACK_DISP0_8
   \   00001A   E0           MOVX    A,@DPTR
   \   00001B   F5..         MOV     ?V0 + 1,A
    257            uint8 *pBuf = ZDP_TmpBuf;
   \   00001D   90....       MOV     DPTR,#ZDP_TmpBuf
   \   000020   12....       LCALL   ?Subroutine18 & 0xFFFF
    258            byte cnt = len;
   \                     ??CrossCallReturnLabel_12:
   \   000023   AE..         MOV     R6,?V0 + 0
   \   000025   8023         SJMP    ??ZDP_SendData_0
    259          
    260            while ( cnt-- )
    261            {
    262              *pBuf++ = *buf++;
   \                     ??ZDP_SendData_1:
   \   000027   85..82       MOV     DPL,?V0 + 2
   \   00002A   85..83       MOV     DPH,?V0 + 3
   \   00002D   E0           MOVX    A,@DPTR
   \   00002E   85..82       MOV     DPL,?V0 + 4
   \   000031   85..83       MOV     DPH,?V0 + 5
   \   000034   12....       LCALL   ?Subroutine69 & 0xFFFF
    263            }
   \                     ??CrossCallReturnLabel_113:
   \   000037   8582..       MOV     ?V0 + 2,DPL
   \   00003A   8583..       MOV     ?V0 + 3,DPH
   \   00003D   85..82       MOV     DPL,?V0 + 4
   \   000040   85..83       MOV     DPH,?V0 + 5
   \   000043   A3           INC     DPTR
   \   000044   8582..       MOV     ?V0 + 4,DPL
   \   000047   8583..       MOV     ?V0 + 5,DPH
   \                     ??ZDP_SendData_0:
   \   00004A   EE           MOV     A,R6
   \   00004B   FF           MOV     R7,A
   \   00004C   74FF         MOV     A,#-0x1
   \   00004E   2F           ADD     A,R7
   \   00004F   1E           DEC     R6
   \   000050   04           INC     A
   \   000051   70D4         JNZ     ??ZDP_SendData_1
    264          
    265            FillAndSendTxOptions( TransSeq, dstAddr, cmd, len, ((SecurityEnable) ? AF_EN_SECURITY : 0) );
   \   000053   E5..         MOV     A,?V0 + 1
   \   000055   90....       MOV     DPTR,#ZDP_TxOptions
   \   000058   6004         JZ      ??ZDP_SendData_2
   \   00005A   7440         MOV     A,#0x40
   \   00005C   8001         SJMP    ??ZDP_SendData_3
   \                     ??ZDP_SendData_2:
   \   00005E   E4           CLR     A
   \                     ??ZDP_SendData_3:
   \   00005F   F0           MOVX    @DPTR,A
   \   000060                ; Setup parameters for call to function fillAndSend
   \   000060   88..         MOV     ?V0 + 2,R0
   \   000062   89..         MOV     ?V0 + 3,R1
   \   000064   78..         MOV     R0,#?V0 + 2
   \   000066   12....       LCALL   ?PUSH_XSTACK_I_TWO
   \   000069   A9..         MOV     R1,?V0 + 0
   \   00006B   12....       LCALL   ??Subroutine103_0 & 0xFFFF
   \                     ??CrossCallReturnLabel_152:
   \   00006E   12....       LCALL   ?DEALLOC_XSTACK8
   \   000071   90....       MOV     DPTR,#ZDP_TxOptions
   \   000074   E4           CLR     A
   \   000075   F0           MOVX    @DPTR,A
   \   000076   02....       LJMP    ??Subroutine127_0 & 0xFFFF
    266          }

   \                                 In  segment BANKED_CODE, align 1, keep-with-next
   \                     ?Subroutine55:
   \   000000   E0           MOVX    A,@DPTR
   \   000001   F5..         MOV     ?V0 + 2,A
   \   000003   A3           INC     DPTR
   \   000004   E0           MOVX    A,@DPTR
   \   000005   F5..         MOV     ?V0 + 3,A
   \   000007   7412         MOV     A,#0x12
   \   000009   22           RET

   \                                 In  segment BANKED_CODE, align 1, keep-with-next
   \                     ??Subroutine103_0:
   \   000000   12....       LCALL   ??fillAndSend?relay
   \   000003   7402         MOV     A,#0x2
   \   000005   22           RET

   \                                 In  segment BANKED_CODE, align 1, keep-with-next
   \                     ?Subroutine18:
   \   000000   E0           MOVX    A,@DPTR
   \   000001   F5..         MOV     ?V0 + 4,A
   \   000003   A3           INC     DPTR
   \   000004   E0           MOVX    A,@DPTR
   \   000005   F5..         MOV     ?V0 + 5,A
   \   000007   22           RET

   \                                 In  segment BANKED_CODE, align 1, keep-with-next
   \                     ??Subroutine106_0:
   \   000000   12....       LCALL   ?Subroutine79 & 0xFFFF
   \                     ??CrossCallReturnLabel_174:
   \   000003   22           RET
    267          
    268          /*********************************************************************
    269           * @fn          ZDP_NWKAddrOfInterestReq
    270           *
    271           * @brief       This builds and send a request message that has
    272           *              NWKAddrOfInterest as its only parameter.
    273           *
    274           * @param       dstAddr - destination address
    275           * @param       nwkAddr - 16 bit address
    276           * @param       SecurityEnable - Security Options
    277           *
    278           * @return      afStatus_t
    279           */

   \                                 In  segment BANKED_CODE, align 1, keep-with-next
    280          afStatus_t ZDP_NWKAddrOfInterestReq( zAddrType_t *dstAddr, uint16 nwkAddr,
   \                     ZDP_NWKAddrOfInterestReq:
    281                                               byte cmd, byte SecurityEnable )
    282          {
   \   000000   74F6         MOV     A,#-0xa
   \   000002   12....       LCALL   ?BANKED_ENTER_XDATA
   \   000005                ; Saved register size: 10
   \   000005                ; Auto size: 0
   \   000005   E9           MOV     A,R1
   \   000006   FE           MOV     R6,A
    283            (void)SecurityEnable;  // Intentionally unreferenced parameter
    284          
    285            ZDP_TmpBuf[0] = LO_UINT16( nwkAddr );
   \   000007   12....       LCALL   ?Subroutine16 & 0xFFFF
    286            ZDP_TmpBuf[1] = HI_UINT16( nwkAddr );
    287          
    288            return fillAndSend( &ZDP_TransID, dstAddr, cmd, 2 );
   \                     ??CrossCallReturnLabel_8:
   \   00000A                ; Setup parameters for call to function fillAndSend
   \   00000A   8E..         MOV     ?V0 + 0,R6
   \   00000C   02....       LJMP    ?Subroutine1 & 0xFFFF
    289          }

   \                                 In  segment BANKED_CODE, align 1, keep-with-next
   \                     ?Subroutine1:
   \   000000   75..00       MOV     ?V0 + 1,#0x0
   \   000003   78..         MOV     R0,#?V0 + 0
   \   000005   12....       LCALL   ?PUSH_XSTACK_I_TWO
   \   000008   7902         MOV     R1,#0x2
   \   00000A                REQUIRE ??Subroutine95_0
   \   00000A                ; // Fall through to label ??Subroutine95_0

   \                                 In  segment BANKED_CODE, align 1, keep-with-next
   \                     ??Subroutine95_0:
   \   000000   EA           MOV     A,R2
   \   000001   FC           MOV     R4,A
   \   000002   EB           MOV     A,R3
   \   000003   FD           MOV     R5,A
   \   000004   7A..         MOV     R2,#ZDP_TransID & 0xff
   \   000006   7B..         MOV     R3,#(ZDP_TransID >> 8) & 0xff
   \   000008                REQUIRE ??Subroutine96_0
   \   000008                ; // Fall through to label ??Subroutine96_0

   \                                 In  segment BANKED_CODE, align 1, keep-with-next
   \                     ??Subroutine96_0:
   \   000000   12....       LCALL   ??Subroutine103_0 & 0xFFFF
   \                     ??CrossCallReturnLabel_155:
   \   000003                REQUIRE ??Subroutine97_0
   \   000003                ; // Fall through to label ??Subroutine97_0

   \                                 In  segment BANKED_CODE, align 1, keep-with-next
   \                     ??Subroutine97_0:
   \   000000   12....       LCALL   ?DEALLOC_XSTACK8
   \   000003   7F02         MOV     R7,#0x2
   \   000005   02....       LJMP    ?BANKED_LEAVE_XDATA

   \                                 In  segment BANKED_CODE, align 1, keep-with-next
   \                     ?Subroutine16:
   \   000000   12....       LCALL   ?Subroutine80 & 0xFFFF
   \                     ??CrossCallReturnLabel_191:
   \   000003   EC           MOV     A,R4
   \   000004   F0           MOVX    @DPTR,A
   \   000005   12....       LCALL   ?Subroutine78 & 0xFFFF
   \                     ??CrossCallReturnLabel_130:
   \   000008   ED           MOV     A,R5
   \   000009   F0           MOVX    @DPTR,A
   \   00000A   22           RET

   \                                 In  segment BANKED_CODE, align 1, keep-with-next
   \                     ?Subroutine78:
   \   000000   90....       MOV     DPTR,#ZDP_TmpBuf
   \   000003   12....       LCALL   ?Subroutine92 & 0xFFFF
   \                     ??CrossCallReturnLabel_193:
   \   000006   A3           INC     DPTR
   \   000007   22           RET

   \                                 In  segment BANKED_CODE, align 1, keep-with-next
   \                     ?Subroutine80:
   \   000000   90....       MOV     DPTR,#ZDP_TmpBuf
   \   000003                REQUIRE ??Subroutine110_0
   \   000003                ; // Fall through to label ??Subroutine110_0

   \                                 In  segment BANKED_CODE, align 1, keep-with-next
   \                     ??Subroutine110_0:
   \   000000   12....       LCALL   ?Subroutine92 & 0xFFFF
   \                     ??CrossCallReturnLabel_194:
   \   000003   22           RET

   \                                 In  segment BANKED_CODE, align 1, keep-with-next
   \                     ?Subroutine92:
   \   000000   E0           MOVX    A,@DPTR
   \   000001   F8           MOV     R0,A
   \   000002   A3           INC     DPTR
   \   000003   E0           MOVX    A,@DPTR
   \   000004   F583         MOV     DPH,A
   \   000006   8882         MOV     DPL,R0
   \   000008   22           RET
    290          
    291          /*********************************************************************
    292           * Address Requests
    293           */
    294          
    295          /*********************************************************************
    296           * @fn          ZDP_NwkAddrReq
    297           *
    298           * @brief       This builds and send a NWK_addr_req message.  This
    299           *              function sends a broadcast message looking for a 16
    300           *              bit address with a 64 bit address as bait.
    301           *
    302           * @param       IEEEAddress - looking for this device
    303           * @param       SecurityEnable - Security Options
    304           *
    305           * @return      afStatus_t
    306           */

   \                                 In  segment BANKED_CODE, align 1, keep-with-next
    307          afStatus_t ZDP_NwkAddrReq( uint8 *IEEEAddress, byte ReqType,
   \                     ZDP_NwkAddrReq:
    308                                     byte StartIndex, byte SecurityEnable )
    309          {
   \   000000   74F4         MOV     A,#-0xc
   \   000002   12....       LCALL   ?BANKED_ENTER_XDATA
   \   000005                ; Saved register size: 12
   \   000005                ; Auto size: 9
   \   000005   74F7         MOV     A,#-0x9
   \   000007   12....       LCALL   ?ALLOC_XSTACK8
   \   00000A   8A..         MOV     ?V0 + 0,R2
   \   00000C   8B..         MOV     ?V0 + 1,R3
   \   00000E   89..         MOV     ?V0 + 3,R1
   \   000010   8C..         MOV     ?V0 + 2,R4
    310            uint8 *pBuf = ZDP_TmpBuf;
   \   000012   90....       MOV     DPTR,#ZDP_TmpBuf
   \   000015   12....       LCALL   ??Subroutine111_0 & 0xFFFF
    311            byte len = Z_EXTADDR_LEN + 1 + 1;  // IEEEAddress + ReqType + StartIndex.
    312            zAddrType_t dstAddr;
    313          
    314            (void)SecurityEnable;  // Intentionally unreferenced parameter
    315          
    316            if ( osal_ExtAddrEqual( saveExtAddr, IEEEAddress ) == FALSE )
   \                     ??CrossCallReturnLabel_196:
   \   000018                ; Setup parameters for call to function sAddrExtCmp
   \   000018   AC..         MOV     R4,?V0 + 0
   \   00001A   AD..         MOV     R5,?V0 + 1
   \   00001C   7A..         MOV     R2,#saveExtAddr & 0xff
   \   00001E   7B..         MOV     R3,#(saveExtAddr >> 8) & 0xff
   \   000020   12....       LCALL   ??sAddrExtCmp?relay
   \   000023   E9           MOV     A,R1
   \   000024   700A         JNZ     ??ZDP_NwkAddrReq_0
    317            {
    318              dstAddr.addrMode = AddrBroadcast;
   \   000026   7408         MOV     A,#0x8
   \   000028   12....       LCALL   ?XSTACK_DISP0_8
   \   00002B   12....       LCALL   ?Subroutine85 & 0xFFFF
    319              dstAddr.addr.shortAddr = NWK_BROADCAST_SHORTADDR_DEVRXON;
    320            }
   \                     ??CrossCallReturnLabel_122:
   \   00002E   800E         SJMP    ??CrossCallReturnLabel_27
    321            else
    322            {
    323              dstAddr.addrMode = Addr16Bit;
   \                     ??ZDP_NwkAddrReq_0:
   \   000030   7408         MOV     A,#0x8
   \   000032   12....       LCALL   ?XSTACK_DISP0_8
   \   000035   7402         MOV     A,#0x2
   \   000037   F0           MOVX    @DPTR,A
    324              dstAddr.addr.shortAddr = ZDAppNwkAddr.addr.shortAddr;
   \   000038   90....       MOV     DPTR,#ZDAppNwkAddr
   \   00003B   12....       LCALL   ?Subroutine25 & 0xFFFF
    325            }
   \                     ??CrossCallReturnLabel_27:
   \   00003E   F0           MOVX    @DPTR,A
    326          
    327            pBuf = osal_cpyExtAddr( pBuf, IEEEAddress );
   \   00003F                ; Setup parameters for call to function sAddrExtCpy
   \   00003F   AC..         MOV     R4,?V0 + 0
   \   000041   AD..         MOV     R5,?V0 + 1
   \   000043   EE           MOV     A,R6
   \   000044   FA           MOV     R2,A
   \   000045   EF           MOV     A,R7
   \   000046   FB           MOV     R3,A
   \   000047   12....       LCALL   ??sAddrExtCpy?relay
   \   00004A   8A..         MOV     ?V0 + 0,R2
   \   00004C   8B..         MOV     ?V0 + 1,R3
   \   00004E   AE..         MOV     R6,?V0 + 0
   \   000050   AF..         MOV     R7,?V0 + 1
    328          
    329            *pBuf++ = ReqType;
   \   000052   8E82         MOV     DPL,R6
   \   000054   8F83         MOV     DPH,R7
   \   000056   E5..         MOV     A,?V0 + 3
   \   000058   F0           MOVX    @DPTR,A
   \   000059   A3           INC     DPTR
    330            *pBuf++ = StartIndex;
   \   00005A   E5..         MOV     A,?V0 + 2
   \   00005C   F0           MOVX    @DPTR,A
    331          
    332            return fillAndSend( &ZDP_TransID, &dstAddr, NWK_addr_req, len );
   \   00005D                ; Setup parameters for call to function fillAndSend
   \   00005D   E4           CLR     A
   \   00005E   F5..         MOV     ?V0 + 0,A
   \   000060   F5..         MOV     ?V0 + 1,A
   \   000062   78..         MOV     R0,#?V0 + 0
   \   000064   12....       LCALL   ?PUSH_XSTACK_I_TWO
   \   000067   790A         MOV     R1,#0xa
   \   000069   7402         MOV     A,#0x2
   \   00006B   12....       LCALL   ?XSTACK_DISP0_8
   \   00006E   AC82         MOV     R4,DPL
   \   000070   AD83         MOV     R5,DPH
   \   000072   7A..         MOV     R2,#ZDP_TransID & 0xff
   \   000074   7B..         MOV     R3,#(ZDP_TransID >> 8) & 0xff
   \   000076   12....       LCALL   ??Subroutine103_0 & 0xFFFF
   \                     ??CrossCallReturnLabel_153:
   \   000079   12....       LCALL   ?DEALLOC_XSTACK8
   \   00007C   7409         MOV     A,#0x9
   \   00007E   02....       LJMP    ??Subroutine109_0 & 0xFFFF
    333          }

   \                                 In  segment BANKED_CODE, align 1, keep-with-next
   \                     ?Subroutine85:
   \   000000   740F         MOV     A,#0xf
   \   000002   F0           MOVX    @DPTR,A
   \   000003   85..82       MOV     DPL,?XSP + 0
   \   000006   85..83       MOV     DPH,?XSP + 1
   \   000009   74FD         MOV     A,#-0x3
   \   00000B   F0           MOVX    @DPTR,A
   \   00000C   A3           INC     DPTR
   \   00000D   74FF         MOV     A,#-0x1
   \   00000F   22           RET

   \                                 In  segment BANKED_CODE, align 1, keep-with-next
   \                     ??Subroutine109_0:
   \   000000   12....       LCALL   ?DEALLOC_XSTACK8
   \   000003   7F04         MOV     R7,#0x4
   \   000005   02....       LJMP    ?BANKED_LEAVE_XDATA
    334          
    335          /*********************************************************************
    336           * @fn          ZDP_IEEEAddrReq
    337           *
    338           * @brief       This builds and send a IEEE_addr_req message.  This
    339           *              function sends a unicast message looking for a 64
    340           *              bit IEEE address with a 16 bit address as bait.
    341           *
    342           * @param       ReqType - ZDP_IEEEADDR_REQTYPE_SINGLE or
    343           *                        ZDP_IEEEADDR_REQTYPE_EXTENDED
    344           * @param       SecurityEnable - Security Options
    345           *
    346           * @return      afStatus_t
    347           */

   \                                 In  segment BANKED_CODE, align 1, keep-with-next
    348          afStatus_t ZDP_IEEEAddrReq( uint16 shortAddr, byte ReqType,
   \                     ZDP_IEEEAddrReq:
    349                                      byte StartIndex, byte SecurityEnable )
    350          {
   \   000000   74F6         MOV     A,#-0xa
   \   000002   12....       LCALL   ?BANKED_ENTER_XDATA
   \   000005                ; Saved register size: 10
   \   000005                ; Auto size: 9
   \   000005   74F7         MOV     A,#-0x9
   \   000007   12....       LCALL   ?ALLOC_XSTACK8
   \   00000A   E9           MOV     A,R1
   \   00000B   FF           MOV     R7,A
   \   00000C   EC           MOV     A,R4
   \   00000D   FE           MOV     R6,A
    351            uint8 *pBuf = ZDP_TmpBuf;
   \   00000E   90....       MOV     DPTR,#ZDP_TmpBuf
   \   000011   12....       LCALL   ??Subroutine106_0 & 0xFFFF
    352            byte len = 2 + 1 + 1;  // shortAddr + ReqType + StartIndex.
    353            zAddrType_t dstAddr;
    354          
    355            (void)SecurityEnable;  // Intentionally unreferenced parameter
    356          
    357            dstAddr.addrMode = (afAddrMode_t)Addr16Bit;
   \                     ??CrossCallReturnLabel_161:
   \   000014   7408         MOV     A,#0x8
   \   000016   12....       LCALL   ?XSTACK_DISP0_8
   \   000019   7402         MOV     A,#0x2
   \   00001B   F0           MOVX    @DPTR,A
    358            dstAddr.addr.shortAddr = shortAddr;
   \   00001C   12....       LCALL   ?Subroutine67 & 0xFFFF
    359          
    360            *pBuf++ = LO_UINT16( shortAddr );
   \                     ??CrossCallReturnLabel_243:
   \   00001F   EA           MOV     A,R2
   \   000020   8882         MOV     DPL,R0
   \   000022   8983         MOV     DPH,R1
   \   000024   12....       LCALL   ??Subroutine120_0 & 0xFFFF
    361            *pBuf++ = HI_UINT16( shortAddr );
   \                     ??CrossCallReturnLabel_235:
   \   000027   A3           INC     DPTR
    362          
    363            *pBuf++ = ReqType;
   \   000028   EF           MOV     A,R7
   \   000029   F0           MOVX    @DPTR,A
   \   00002A   A3           INC     DPTR
    364            *pBuf++ = StartIndex;
   \   00002B   EE           MOV     A,R6
   \   00002C   F0           MOVX    @DPTR,A
    365          
    366            return fillAndSend( &ZDP_TransID, &dstAddr, IEEE_addr_req, len );
   \   00002D                ; Setup parameters for call to function fillAndSend
   \   00002D   75..01       MOV     ?V0 + 0,#0x1
   \   000030   75..00       MOV     ?V0 + 1,#0x0
   \   000033   78..         MOV     R0,#?V0 + 0
   \   000035   12....       LCALL   ?PUSH_XSTACK_I_TWO
   \   000038   7904         MOV     R1,#0x4
   \   00003A                REQUIRE ?Subroutine5
   \   00003A                ; // Fall through to label ?Subroutine5
    367          }

   \                                 In  segment BANKED_CODE, align 1, keep-with-next
   \                     ?Subroutine5:
   \   000000   7402         MOV     A,#0x2
   \   000002   12....       LCALL   ?XSTACK_DISP0_8
   \   000005   AC82         MOV     R4,DPL
   \   000007   AD83         MOV     R5,DPH
   \   000009   7A..         MOV     R2,#ZDP_TransID & 0xff
   \   00000B   7B..         MOV     R3,#(ZDP_TransID >> 8) & 0xff
   \   00000D   12....       LCALL   ??Subroutine103_0 & 0xFFFF
   \                     ??CrossCallReturnLabel_154:
   \   000010   12....       LCALL   ?DEALLOC_XSTACK8
   \   000013                REQUIRE ??Subroutine94_0
   \   000013                ; // Fall through to label ??Subroutine94_0

   \                                 In  segment BANKED_CODE, align 1, keep-with-next
   \                     ??Subroutine94_0:
   \   000000   7409         MOV     A,#0x9
   \   000002   80..         SJMP    ??Subroutine97_0

   \                                 In  segment BANKED_CODE, align 1, keep-with-next
   \                     ?Subroutine67:
   \   000000   85..82       MOV     DPL,?XSP + 0
   \   000003   85..83       MOV     DPH,?XSP + 1
   \   000006                REQUIRE ??Subroutine119_0
   \   000006                ; // Fall through to label ??Subroutine119_0

   \                                 In  segment BANKED_CODE, align 1, keep-with-next
   \                     ??Subroutine119_0:
   \   000000   EA           MOV     A,R2
   \   000001                REQUIRE ??Subroutine120_0
   \   000001                ; // Fall through to label ??Subroutine120_0

   \                                 In  segment BANKED_CODE, align 1, keep-with-next
   \                     ??Subroutine120_0:
   \   000000   F0           MOVX    @DPTR,A
   \   000001   A3           INC     DPTR
   \   000002   EB           MOV     A,R3
   \   000003   F0           MOVX    @DPTR,A
   \   000004   22           RET
    368          
    369          /*********************************************************************
    370           * @fn          ZDP_MatchDescReq
    371           *
    372           * @brief       This builds and send a Match_Desc_req message.  This
    373           *              function sends a broadcast or unicast message
    374           *              requesting the list of endpoint/interfaces that
    375           *              match profile ID and cluster IDs.
    376           *
    377           * @param       dstAddr - destination address
    378           * @param       nwkAddr - network address of interest
    379           * @param       ProfileID - Profile ID
    380           * @param       NumInClusters - number of input clusters
    381           * @param       InClusterList - input cluster ID list
    382           * @param       NumOutClusters - number of output clusters
    383           * @param       OutClusterList - output cluster ID list
    384           * @param       SecurityEnable - Security Options
    385           *
    386           * @return      afStatus_t
    387           */

   \                                 In  segment BANKED_CODE, align 1, keep-with-next
    388          afStatus_t ZDP_MatchDescReq( zAddrType_t *dstAddr, uint16 nwkAddr,
   \                     ZDP_MatchDescReq:
    389                                          uint16 ProfileID,
    390                                          byte NumInClusters, cId_t *InClusterList,
    391                                          byte NumOutClusters, cId_t *OutClusterList,
    392                                          byte SecurityEnable )
    393          {
   \   000000   74F0         MOV     A,#-0x10
   \   000002   12....       LCALL   ?BANKED_ENTER_XDATA
   \   000005                ; Saved register size: 16
   \   000005                ; Auto size: 0
   \   000005   8A..         MOV     ?V0 + 0,R2
   \   000007   8B..         MOV     ?V0 + 1,R3
   \   000009   E9           MOV     A,R1
   \   00000A   FE           MOV     R6,A
   \   00000B   7410         MOV     A,#0x10
   \   00000D   12....       LCALL   ?XSTACK_DISP0_8
   \   000010   12....       LCALL   ?Subroutine55 & 0xFFFF
   \                     ??CrossCallReturnLabel_88:
   \   000013   12....       LCALL   ?XSTACK_DISP0_8
   \   000016   12....       LCALL   ?Subroutine18 & 0xFFFF
   \                     ??CrossCallReturnLabel_13:
   \   000019   7414         MOV     A,#0x14
   \   00001B   12....       LCALL   ?XSTACK_DISP0_8
   \   00001E   E0           MOVX    A,@DPTR
   \   00001F   FB           MOV     R3,A
   \   000020   7415         MOV     A,#0x15
   \   000022   12....       LCALL   ?XSTACK_DISP0_8
   \   000025   E0           MOVX    A,@DPTR
   \   000026   F5..         MOV     ?V0 + 6,A
   \   000028   A3           INC     DPTR
   \   000029   12....       LCALL   ?Subroutine38 & 0xFFFF
    394            uint8 *pBuf = ZDP_TmpBuf;
   \                     ??CrossCallReturnLabel_51:
   \   00002C   F8           MOV     R0,A
   \   00002D   A3           INC     DPTR
   \   00002E   E0           MOVX    A,@DPTR
   \   00002F   F9           MOV     R1,A
    395            // nwkAddr+ProfileID+NumInClusters+NumOutClusters.
    396            byte i, len = 2 + 2 + 1 + 1;  // nwkAddr+ProfileID+NumInClusters+NumOutClusters.
    397          
    398            (void)SecurityEnable;  // Intentionally unreferenced parameter
    399          
    400            len += (NumInClusters + NumOutClusters) * sizeof(uint16);
   \   000030   EE           MOV     A,R6
   \   000031   2B           ADD     A,R3
   \   000032   C3           CLR     C
   \   000033   33           RLC     A
   \   000034   2406         ADD     A,#0x6
   \   000036   FA           MOV     R2,A
    401          
    402            if ( len >= ZDP_BUF_SZ-1 )
   \   000037   C3           CLR     C
   \   000038   944F         SUBB    A,#0x4f
   \   00003A   4005         JC      ??ZDP_MatchDescReq_0
    403            {
    404              return afStatus_MEM_FAIL;
   \   00003C   7910         MOV     R1,#0x10
   \   00003E   02....       LJMP    ??ZDP_MatchDescReq_1 & 0xFFFF
    405            }
    406          
    407            // The spec changed in Zigbee 2007 (2.4.3.1.7.1) to not allow sending
    408            // this command to 0xFFFF.  So, here we will filter this and replace 
    409            // with 0xFFFD to only send to devices with RX ON.  This includes the 
    410            // network address of interest.
    411            if ( ((dstAddr->addrMode == AddrBroadcast) || (dstAddr->addrMode == Addr16Bit))
    412                && (dstAddr->addr.shortAddr == NWK_BROADCAST_SHORTADDR_DEVALL) )
   \                     ??ZDP_MatchDescReq_0:
   \   000041   85..82       MOV     DPL,?V0 + 0
   \   000044   85..83       MOV     DPH,?V0 + 1
   \   000047   A3           INC     DPTR
   \   000048   A3           INC     DPTR
   \   000049   A3           INC     DPTR
   \   00004A   A3           INC     DPTR
   \   00004B   A3           INC     DPTR
   \   00004C   A3           INC     DPTR
   \   00004D   A3           INC     DPTR
   \   00004E   A3           INC     DPTR
   \   00004F   E0           MOVX    A,@DPTR
   \   000050   FF           MOV     R7,A
   \   000051   740F         MOV     A,#0xf
   \   000053   6F           XRL     A,R7
   \   000054   6005         JZ      ??ZDP_MatchDescReq_2
   \   000056   7402         MOV     A,#0x2
   \   000058   6F           XRL     A,R7
   \   000059   701C         JNZ     ??ZDP_MatchDescReq_3
   \                     ??ZDP_MatchDescReq_2:
   \   00005B   85..82       MOV     DPL,?V0 + 0
   \   00005E   85..83       MOV     DPH,?V0 + 1
   \   000061   E0           MOVX    A,@DPTR
   \   000062   F4           CPL     A
   \   000063   7003         JNZ     ??ZDP_MatchDescReq_4
   \   000065   A3           INC     DPTR
   \   000066   E0           MOVX    A,@DPTR
   \   000067   F4           CPL     A
   \                     ??ZDP_MatchDescReq_4:
   \   000068   700D         JNZ     ??ZDP_MatchDescReq_3
    413            {
    414              dstAddr->addr.shortAddr = NWK_BROADCAST_SHORTADDR_DEVRXON;
   \   00006A   85..82       MOV     DPL,?V0 + 0
   \   00006D   85..83       MOV     DPH,?V0 + 1
   \   000070   74FD         MOV     A,#-0x3
   \   000072   F0           MOVX    @DPTR,A
   \   000073   A3           INC     DPTR
   \   000074   74FF         MOV     A,#-0x1
   \   000076   F0           MOVX    @DPTR,A
    415            }
    416            if ( nwkAddr == NWK_BROADCAST_SHORTADDR_DEVALL )
   \                     ??ZDP_MatchDescReq_3:
   \   000077   74FF         MOV     A,#-0x1
   \   000079   6C           XRL     A,R4
   \   00007A   7003         JNZ     ??ZDP_MatchDescReq_5
   \   00007C   74FF         MOV     A,#-0x1
   \   00007E   6D           XRL     A,R5
   \                     ??ZDP_MatchDescReq_5:
   \   00007F   7004         JNZ     ??ZDP_MatchDescReq_6
    417            {
    418              nwkAddr = NWK_BROADCAST_SHORTADDR_DEVRXON;
   \   000081   7CFD         MOV     R4,#-0x3
   \   000083   7DFF         MOV     R5,#-0x1
    419            }
    420            
    421            *pBuf++ = LO_UINT16( nwkAddr );   // NWKAddrOfInterest
   \                     ??ZDP_MatchDescReq_6:
   \   000085   EC           MOV     A,R4
   \   000086   8882         MOV     DPL,R0
   \   000088   8983         MOV     DPH,R1
   \   00008A   F0           MOVX    @DPTR,A
   \   00008B   A3           INC     DPTR
    422            *pBuf++ = HI_UINT16( nwkAddr );
   \   00008C   ED           MOV     A,R5
   \   00008D   F0           MOVX    @DPTR,A
   \   00008E   A3           INC     DPTR
    423          
    424            *pBuf++ = LO_UINT16( ProfileID );   // Profile ID
   \   00008F   E5..         MOV     A,?V0 + 2
   \   000091   F0           MOVX    @DPTR,A
   \   000092   A3           INC     DPTR
    425            *pBuf++ = HI_UINT16( ProfileID );
   \   000093   E5..         MOV     A,?V0 + 3
   \   000095   F0           MOVX    @DPTR,A
   \   000096   A3           INC     DPTR
    426          
    427            *pBuf++ = NumInClusters; // Input cluster list
   \   000097   EE           MOV     A,R6
   \   000098   12....       LCALL   ?Subroutine65 & 0xFFFF
    428            if ( NumInClusters )
   \                     ??CrossCallReturnLabel_101:
   \   00009B   6016         JZ      ??ZDP_MatchDescReq_7
    429            {
    430              for (i=0; i<NumInClusters; ++i)  {
   \   00009D   7F00         MOV     R7,#0x0
    431                *pBuf++ = LO_UINT16( InClusterList[i] );
   \                     ??ZDP_MatchDescReq_8:
   \   00009F   EF           MOV     A,R7
   \   0000A0   C3           CLR     C
   \   0000A1   33           RLC     A
   \   0000A2   FC           MOV     R4,A
   \   0000A3   E4           CLR     A
   \   0000A4   33           RLC     A
   \   0000A5   FD           MOV     R5,A
   \   0000A6   E5..         MOV     A,?V0 + 4
   \   0000A8   2C           ADD     A,R4
   \   0000A9   F5..         MOV     ?V0 + 2,A
   \   0000AB   E5..         MOV     A,?V0 + 5
   \   0000AD   12....       LCALL   ?Subroutine12 & 0xFFFF
    432                *pBuf++ = HI_UINT16( InClusterList[i] );
    433              }
    434            }
   \                     ??CrossCallReturnLabel_4:
   \   0000B0   9E           SUBB    A,R6
   \   0000B1   40EC         JC      ??ZDP_MatchDescReq_8
    435          
    436            *pBuf++ = NumOutClusters; // Output cluster list
   \                     ??ZDP_MatchDescReq_7:
   \   0000B3   EB           MOV     A,R3
   \   0000B4   8882         MOV     DPL,R0
   \   0000B6   8983         MOV     DPH,R1
   \   0000B8   12....       LCALL   ?Subroutine65 & 0xFFFF
    437            if ( NumOutClusters )
   \                     ??CrossCallReturnLabel_102:
   \   0000BB   6016         JZ      ??ZDP_MatchDescReq_9
    438            {
    439              for (i=0; i<NumOutClusters; ++i)  {
   \   0000BD   7F00         MOV     R7,#0x0
    440                *pBuf++ = LO_UINT16( OutClusterList[i] );
   \                     ??ZDP_MatchDescReq_10:
   \   0000BF   EF           MOV     A,R7
   \   0000C0   C3           CLR     C
   \   0000C1   33           RLC     A
   \   0000C2   FC           MOV     R4,A
   \   0000C3   E4           CLR     A
   \   0000C4   33           RLC     A
   \   0000C5   FD           MOV     R5,A
   \   0000C6   E5..         MOV     A,?V0 + 6
   \   0000C8   2C           ADD     A,R4
   \   0000C9   F5..         MOV     ?V0 + 2,A
   \   0000CB   E5..         MOV     A,?V0 + 7
   \   0000CD   12....       LCALL   ?Subroutine12 & 0xFFFF
    441                *pBuf++ = HI_UINT16( OutClusterList[i] );
    442              }
    443            }
   \                     ??CrossCallReturnLabel_5:
   \   0000D0   9B           SUBB    A,R3
   \   0000D1   40EC         JC      ??ZDP_MatchDescReq_10
    444          
    445            return fillAndSend( &ZDP_TransID, dstAddr, Match_Desc_req, len );
   \                     ??ZDP_MatchDescReq_9:
   \   0000D3                ; Setup parameters for call to function fillAndSend
   \   0000D3   75..06       MOV     ?V0 + 2,#0x6
   \   0000D6   75..00       MOV     ?V0 + 3,#0x0
   \   0000D9   78..         MOV     R0,#?V0 + 2
   \   0000DB   12....       LCALL   ?PUSH_XSTACK_I_TWO
   \   0000DE   EA           MOV     A,R2
   \   0000DF   F9           MOV     R1,A
   \   0000E0   AC..         MOV     R4,?V0 + 0
   \   0000E2   AD..         MOV     R5,?V0 + 1
   \   0000E4   7A..         MOV     R2,#ZDP_TransID & 0xff
   \   0000E6   7B..         MOV     R3,#(ZDP_TransID >> 8) & 0xff
   \   0000E8   12....       LCALL   ??Subroutine103_0 & 0xFFFF
   \                     ??CrossCallReturnLabel_156:
   \   0000EB   12....       LCALL   ?DEALLOC_XSTACK8
   \                     ??ZDP_MatchDescReq_1:
   \   0000EE   02....       LJMP    ??Subroutine113_0 & 0xFFFF
    446          }

   \                                 In  segment BANKED_CODE, align 1, keep-with-next
   \                     ?Subroutine12:
   \   000000   3D           ADDC    A,R5
   \   000001   F5..         MOV     ?V0 + 3,A
   \   000003   85..82       MOV     DPL,?V0 + 2
   \   000006   F583         MOV     DPH,A
   \   000008   12....       LCALL   ?Subroutine93 & 0xFFFF
   \                     ??CrossCallReturnLabel_260:
   \   00000B   A882         MOV     R0,DPL
   \   00000D   A983         MOV     R1,DPH
   \   00000F   85..82       MOV     DPL,?V0 + 2
   \   000012   85..83       MOV     DPH,?V0 + 3
   \   000015   12....       LCALL   ?Subroutine77 & 0xFFFF
   \                     ??CrossCallReturnLabel_255:
   \   000018   0F           INC     R7
   \   000019   EF           MOV     A,R7
   \   00001A   C3           CLR     C
   \   00001B   22           RET

   \                                 In  segment BANKED_CODE, align 1, keep-with-next
   \                     ?Subroutine77:
   \   000000   A3           INC     DPTR
   \   000001                REQUIRE ??Subroutine98_0
   \   000001                ; // Fall through to label ??Subroutine98_0

   \                                 In  segment BANKED_CODE, align 1, keep-with-next
   \                     ??Subroutine98_0:
   \   000000   12....       LCALL   ?Subroutine90 & 0xFFFF
   \                     ??CrossCallReturnLabel_259:
   \   000003   22           RET

   \                                 In  segment BANKED_CODE, align 1, keep-with-next
   \                     ?Subroutine90:
   \   000000   12....       LCALL   ?Subroutine93 & 0xFFFF
   \                     ??CrossCallReturnLabel_262:
   \   000003   08           INC     R0
   \   000004   A983         MOV     R1,DPH
   \   000006   22           RET

   \                                 In  segment BANKED_CODE, align 1, keep-with-next
   \                     ?Subroutine65:
   \   000000   F0           MOVX    @DPTR,A
   \   000001   A3           INC     DPTR
   \   000002   A882         MOV     R0,DPL
   \   000004   A983         MOV     R1,DPH
   \   000006   22           RET

   \                                 In  segment BANKED_CODE, align 1, keep-with-next
   \                     ?Subroutine38:
   \   000000   E0           MOVX    A,@DPTR
   \   000001   F5..         MOV     ?V0 + 7,A
   \   000003   90....       MOV     DPTR,#ZDP_TmpBuf
   \   000006   E0           MOVX    A,@DPTR
   \   000007   22           RET

   \                                 In  segment BANKED_CODE, align 1, keep-with-next
   \                     ??Subroutine113_0:
   \   000000   7F08         MOV     R7,#0x8
   \   000002   02....       LJMP    ?BANKED_LEAVE_XDATA

   \                                 In  segment BANKED_CODE, align 1, keep-with-next
   \                     ?Subroutine93:
   \   000000   E0           MOVX    A,@DPTR
   \   000001   8882         MOV     DPL,R0
   \   000003   8983         MOV     DPH,R1
   \   000005   F0           MOVX    @DPTR,A
   \   000006   A3           INC     DPTR
   \   000007   22           RET
    447          
    448          /*********************************************************************
    449           * @fn          ZDP_SimpleDescReq
    450           *
    451           * @brief       This builds and send a NWK_Simple_Desc_req
    452           *              message.  This function sends unicast message to the
    453           *              destination device.
    454           *
    455           * @param       dstAddr - destination address
    456           * @param       nwkAddr - 16 bit address
    457           * @param       epIntf - endpoint/interface
    458           * @param       SecurityEnable - Security Options
    459           *
    460           * @return      afStatus_t
    461           */

   \                                 In  segment BANKED_CODE, align 1, keep-with-next
    462          afStatus_t ZDP_SimpleDescReq( zAddrType_t *dstAddr, uint16 nwkAddr,
   \                     ZDP_SimpleDescReq:
    463                                              byte endPoint, byte SecurityEnable )
    464          
    465          {
   \   000000   74F6         MOV     A,#-0xa
   \   000002   12....       LCALL   ?BANKED_ENTER_XDATA
   \   000005                ; Saved register size: 10
   \   000005                ; Auto size: 0
    466            (void)SecurityEnable;  // Intentionally unreferenced parameter
    467          
    468            ZDP_TmpBuf[0] = LO_UINT16( nwkAddr );
   \   000005   12....       LCALL   ?Subroutine16 & 0xFFFF
    469            ZDP_TmpBuf[1] = HI_UINT16( nwkAddr );
    470            ZDP_TmpBuf[2] = endPoint;
   \                     ??CrossCallReturnLabel_9:
   \   000008   12....       LCALL   ?Subroutine32 & 0xFFFF
    471          
    472            return fillAndSend( &ZDP_TransID, dstAddr, Simple_Desc_req, 3 );
   \                     ??CrossCallReturnLabel_42:
   \   00000B                ; Setup parameters for call to function fillAndSend
   \   00000B   75..04       MOV     ?V0 + 0,#0x4
   \   00000E   75..00       MOV     ?V0 + 1,#0x0
   \   000011   78..         MOV     R0,#?V0 + 0
   \   000013   12....       LCALL   ?PUSH_XSTACK_I_TWO
   \   000016   7903         MOV     R1,#0x3
   \   000018   02....       LJMP    ??Subroutine95_0 & 0xFFFF
    473          }

   \                                 In  segment BANKED_CODE, align 1, keep-with-next
   \                     ?Subroutine32:
   \   000000   12....       LCALL   ?Subroutine78 & 0xFFFF
   \                     ??CrossCallReturnLabel_132:
   \   000003   A3           INC     DPTR
   \   000004   E9           MOV     A,R1
   \   000005   F0           MOVX    @DPTR,A
   \   000006   22           RET
    474          
    475          /*********************************************************************
    476           * @fn          ZDP_UserDescSet
    477           *
    478           * @brief       This builds and send a User_Desc_set message to set
    479           *              the user descriptor.  This function sends unicast
    480           *              message to the destination device.
    481           *
    482           * @param       dstAddr - destination address
    483           * @param       nwkAddr - 16 bit address
    484           * @param       UserDescriptor - user descriptor
    485           * @param       SecurityEnable - Security Options
    486           *
    487           * @return      afStatus_t
    488           */

   \                                 In  segment BANKED_CODE, align 1, keep-with-next
    489          afStatus_t ZDP_UserDescSet( zAddrType_t *dstAddr, uint16 nwkAddr,
   \                     ZDP_UserDescSet:
    490                                    UserDescriptorFormat_t *UserDescriptor,
    491                                    byte SecurityEnable )
    492          {
   \   000000   74F1         MOV     A,#-0xf
   \   000002   12....       LCALL   ?BANKED_ENTER_XDATA
   \   000005                ; Saved register size: 15
   \   000005                ; Auto size: 2
   \   000005   74FE         MOV     A,#-0x2
   \   000007   12....       LCALL   ?ALLOC_XSTACK8
   \   00000A   12....       LCALL   ?Subroutine67 & 0xFFFF
   \                     ??CrossCallReturnLabel_244:
   \   00000D   7411         MOV     A,#0x11
   \   00000F   12....       LCALL   ?XSTACK_DISP0_8
   \   000012   12....       LCALL   ?Subroutine53 & 0xFFFF
   \                     ??CrossCallReturnLabel_85:
   \   000015   FA           MOV     R2,A
   \   000016   E9           MOV     A,R1
   \   000017   FB           MOV     R3,A
    493            uint8 *pBuf = ZDP_TmpBuf;
   \   000018   90....       MOV     DPTR,#ZDP_TmpBuf
   \   00001B   12....       LCALL   ??Subroutine108_0 & 0xFFFF
    494            byte len = (UserDescriptor->len < AF_MAX_USER_DESCRIPTOR_LEN) ?
    495                        UserDescriptor->len : AF_MAX_USER_DESCRIPTOR_LEN;
   \                     ??CrossCallReturnLabel_179:
   \   00001E   8A82         MOV     DPL,R2
   \   000020   8B83         MOV     DPH,R3
   \   000022   E0           MOVX    A,@DPTR
   \   000023   F8           MOV     R0,A
   \   000024   C3           CLR     C
   \   000025   9410         SUBB    A,#0x10
   \   000027   5004         JNC     ??ZDP_UserDescSet_0
   \   000029   88..         MOV     ?V0 + 2,R0
   \   00002B   8003         SJMP    ??ZDP_UserDescSet_1
   \                     ??ZDP_UserDescSet_0:
   \   00002D   75..10       MOV     ?V0 + 2,#0x10
    496            byte addrLen = 2;
    497          
    498            (void)SecurityEnable;  // Intentionally unreferenced parameter
    499          
    500            *pBuf++ = LO_UINT16( nwkAddr );
   \                     ??ZDP_UserDescSet_1:
   \   000030   EC           MOV     A,R4
   \   000031   85..82       MOV     DPL,?V0 + 0
   \   000034   85..83       MOV     DPH,?V0 + 1
   \   000037   F0           MOVX    @DPTR,A
   \   000038   A3           INC     DPTR
    501            *pBuf++ = HI_UINT16( nwkAddr );
   \   000039   ED           MOV     A,R5
   \   00003A   F0           MOVX    @DPTR,A
   \   00003B   A3           INC     DPTR
    502          
    503            *pBuf++ = len;
   \   00003C   E5..         MOV     A,?V0 + 2
   \   00003E   12....       LCALL   ?Subroutine59 & 0xFFFF
    504            addrLen = 3;
    505          
    506            pBuf = osal_memcpy( pBuf, UserDescriptor->desc, len );
    507            osal_memset( pBuf, AF_USER_DESCRIPTOR_FILL, AF_MAX_USER_DESCRIPTOR_LEN-len );
   \                     ??CrossCallReturnLabel_93:
   \   000041                ; Setup parameters for call to function osal_memset
   \   000041   F5..         MOV     ?V0 + 4,A
   \   000043   7410         MOV     A,#0x10
   \   000045   C3           CLR     C
   \   000046   95..         SUBB    A,?V0 + 4
   \   000048   FC           MOV     R4,A
   \   000049   95E0         SUBB    A,0xE0 /* A   */
   \   00004B   FD           MOV     R5,A
   \   00004C   7920         MOV     R1,#0x20
   \   00004E   E9           MOV     A,R1
   \   00004F   C0E0         PUSH    A
   \   000051   EC           MOV     A,R4
   \   000052   FE           MOV     R6,A
   \   000053   ED           MOV     A,R5
   \   000054   FF           MOV     R7,A
   \   000055                ; Setup parameters for call to function osal_memcpy
   \   000055   8A82         MOV     DPL,R2
   \   000057   8B83         MOV     DPH,R3
   \   000059   A3           INC     DPTR
   \   00005A   A982         MOV     R1,DPL
   \   00005C   AA83         MOV     R2,DPH
   \   00005E   89..         MOV     ?V0 + 4,R1
   \   000060   8A..         MOV     ?V0 + 5,R2
   \   000062   75..00       MOV     ?V0 + 6,#0x0
   \   000065   78..         MOV     R0,#?V0 + 4
   \   000067   12....       LCALL   ?PUSH_XSTACK_I_THREE
   \   00006A   85....       MOV     ?V0 + 4,?V0 + 2
   \   00006D   AC..         MOV     R4,?V0 + 4
   \   00006F   7D00         MOV     R5,#0x0
   \   000071   AA..         MOV     R2,?V0 + 0
   \   000073   AB..         MOV     R3,?V0 + 1
   \   000075   12....       LCALL   ??Subroutine130_0 & 0xFFFF
   \                     ??CrossCallReturnLabel_299:
   \   000078   12....       LCALL   ?DEALLOC_XSTACK8
   \   00007B   EE           MOV     A,R6
   \   00007C   FC           MOV     R4,A
   \   00007D   EF           MOV     A,R7
   \   00007E   FD           MOV     R5,A
   \   00007F   D0E0         POP     A
   \   000081   F9           MOV     R1,A
   \   000082   12....       LCALL   ??osal_memset?relay
    508          
    509            return fillAndSend( &ZDP_TransID, dstAddr, User_Desc_set, (AF_MAX_USER_DESCRIPTOR_LEN + addrLen) );
   \   000085                ; Setup parameters for call to function fillAndSend
   \   000085   75..14       MOV     ?V0 + 0,#0x14
   \   000088   75..00       MOV     ?V0 + 1,#0x0
   \   00008B   78..         MOV     R0,#?V0 + 0
   \   00008D   12....       LCALL   ?PUSH_XSTACK_I_TWO
   \   000090   7913         MOV     R1,#0x13
   \   000092   7402         MOV     A,#0x2
   \   000094   12....       LCALL   ?XSTACK_DISP0_8
   \   000097   12....       LCALL   ?Subroutine10 & 0xFFFF
   \                     ??CrossCallReturnLabel_0:
   \   00009A   12....       LCALL   ?DEALLOC_XSTACK8
   \   00009D   7402         MOV     A,#0x2
   \   00009F                REQUIRE ?Subroutine4
   \   00009F                ; // Fall through to label ?Subroutine4
    510          }

   \                                 In  segment BANKED_CODE, align 1, keep-with-next
   \                     ?Subroutine4:
   \   000000   12....       LCALL   ?DEALLOC_XSTACK8
   \   000003   7F07         MOV     R7,#0x7
   \   000005   02....       LJMP    ?BANKED_LEAVE_XDATA

   \                                 In  segment BANKED_CODE, align 1, keep-with-next
   \                     ?Subroutine59:
   \   000000   F0           MOVX    @DPTR,A
   \   000001   A3           INC     DPTR
   \   000002   8582..       MOV     ?V0 + 0,DPL
   \   000005   8583..       MOV     ?V0 + 1,DPH
   \   000008   22           RET

   \                                 In  segment BANKED_CODE, align 1, keep-with-next
   \                     ??Subroutine108_0:
   \   000000   E0           MOVX    A,@DPTR
   \   000001   F5..         MOV     ?V0 + 0,A
   \   000003   A3           INC     DPTR
   \   000004   E0           MOVX    A,@DPTR
   \   000005   F5..         MOV     ?V0 + 1,A
   \   000007   22           RET

   \                                 In  segment BANKED_CODE, align 1, keep-with-next
   \                     ?Subroutine10:
   \   000000   E0           MOVX    A,@DPTR
   \   000001   FC           MOV     R4,A
   \   000002   A3           INC     DPTR
   \   000003   E0           MOVX    A,@DPTR
   \   000004   FD           MOV     R5,A
   \   000005   7A..         MOV     R2,#ZDP_TransID & 0xff
   \   000007   7B..         MOV     R3,#(ZDP_TransID >> 8) & 0xff
   \   000009   12....       LCALL   ??fillAndSend?relay
   \   00000C   7402         MOV     A,#0x2
   \   00000E   22           RET

   \                                 In  segment BANKED_CODE, align 1, keep-with-next
   \                     ?Subroutine53:
   \   000000   12....       LCALL   ?Subroutine79 & 0xFFFF
   \                     ??CrossCallReturnLabel_173:
   \   000003   E8           MOV     A,R0
   \   000004   22           RET

   \                                 In  segment BANKED_CODE, align 1, keep-with-next
   \                     ??Subroutine130_0:
   \   000000   12....       LCALL   ??osal_memcpy?relay
   \   000003   7403         MOV     A,#0x3
   \   000005   22           RET
    511          
    512          /*********************************************************************
    513           * @fn          ZDP_ServerDiscReq
    514           *
    515           * @brief       Build and send a Server_Discovery_req request message.
    516           *
    517           * @param       serverMask - 16-bit bit-mask of server services being sought.
    518           * @param       SecurityEnable - Security Options
    519           *
    520           * @return      afStatus_t
    521           */

   \                                 In  segment BANKED_CODE, align 1, keep-with-next
    522          afStatus_t ZDP_ServerDiscReq( uint16 serverMask, byte SecurityEnable )
   \                     ZDP_ServerDiscReq:
    523          {
   \   000000   74F6         MOV     A,#-0xa
   \   000002   12....       LCALL   ?BANKED_ENTER_XDATA
   \   000005                ; Saved register size: 10
   \   000005                ; Auto size: 9
   \   000005   74F7         MOV     A,#-0x9
   \   000007   12....       LCALL   ?ALLOC_XSTACK8
   \   00000A   E9           MOV     A,R1
   \   00000B   FE           MOV     R6,A
    524            uint8 *pBuf = ZDP_TmpBuf;
   \   00000C   90....       MOV     DPTR,#ZDP_TmpBuf
   \   00000F   12....       LCALL   ??Subroutine106_0 & 0xFFFF
    525            zAddrType_t dstAddr;
    526          
    527            dstAddr.addrMode = AddrBroadcast;
   \                     ??CrossCallReturnLabel_162:
   \   000012   7408         MOV     A,#0x8
   \   000014   12....       LCALL   ?XSTACK_DISP0_8
   \   000017   12....       LCALL   ?Subroutine62 & 0xFFFF
    528            dstAddr.addr.shortAddr = NWK_BROADCAST_SHORTADDR_DEVRXON;
    529          
    530            *pBuf++ = LO_UINT16( serverMask );
   \                     ??CrossCallReturnLabel_97:
   \   00001A   EA           MOV     A,R2
   \   00001B   8882         MOV     DPL,R0
   \   00001D   8983         MOV     DPH,R1
   \   00001F   12....       LCALL   ??Subroutine120_0 & 0xFFFF
    531            *pBuf = HI_UINT16( serverMask );
    532          
    533            FillAndSendTxOptions( &ZDP_TransID, &dstAddr, Server_Discovery_req, 2,
    534                       ((SecurityEnable) ? AF_EN_SECURITY : AF_TX_OPTIONS_NONE) );
   \                     ??CrossCallReturnLabel_236:
   \   000022   EE           MOV     A,R6
   \   000023   90....       MOV     DPTR,#ZDP_TxOptions
   \   000026   6004         JZ      ??ZDP_ServerDiscReq_0
   \   000028   7440         MOV     A,#0x40
   \   00002A   8001         SJMP    ??ZDP_ServerDiscReq_1
   \                     ??ZDP_ServerDiscReq_0:
   \   00002C   E4           CLR     A
   \                     ??ZDP_ServerDiscReq_1:
   \   00002D   F0           MOVX    @DPTR,A
   \   00002E                ; Setup parameters for call to function fillAndSend
   \   00002E   75..15       MOV     ?V0 + 0,#0x15
   \   000031   75..00       MOV     ?V0 + 1,#0x0
   \   000034   78..         MOV     R0,#?V0 + 0
   \   000036   12....       LCALL   ?PUSH_XSTACK_I_TWO
   \   000039   7902         MOV     R1,#0x2
   \   00003B   E9           MOV     A,R1
   \   00003C   12....       LCALL   ?XSTACK_DISP0_8
   \   00003F   AC82         MOV     R4,DPL
   \   000041   AD83         MOV     R5,DPH
   \   000043   7A..         MOV     R2,#ZDP_TransID & 0xff
   \   000045   7B..         MOV     R3,#(ZDP_TransID >> 8) & 0xff
   \   000047   12....       LCALL   ??Subroutine103_0 & 0xFFFF
   \                     ??CrossCallReturnLabel_157:
   \   00004A   12....       LCALL   ?DEALLOC_XSTACK8
   \   00004D   90....       MOV     DPTR,#ZDP_TxOptions
   \   000050   E4           CLR     A
   \   000051   F0           MOVX    @DPTR,A
   \   000052   02....       LJMP    ??Subroutine94_0 & 0xFFFF
    535          }

   \                                 In  segment BANKED_CODE, align 1, keep-with-next
   \                     ?Subroutine62:
   \   000000   12....       LCALL   ?Subroutine85 & 0xFFFF
   \                     ??CrossCallReturnLabel_123:
   \   000003   F0           MOVX    @DPTR,A
   \   000004   22           RET
    536          
    537          /*********************************************************************
    538           * @fn          ZDP_DeviceAnnce
    539           *
    540           * @brief       This builds and send a Device_Annce message.  This
    541           *              function sends a broadcast message.
    542           *
    543           * @param       nwkAddr - 16 bit address of the device
    544           * @param       IEEEAddr - 64 bit address of the device
    545           * @param       capabilities - device capabilities.  This field is only
    546           *                 sent for v1.1 networks.
    547           * @param       SecurityEnable - Security Options
    548           *
    549           * @return      afStatus_t
    550           */

   \                                 In  segment BANKED_CODE, align 1, keep-with-next
    551          afStatus_t ZDP_DeviceAnnce( uint16 nwkAddr, uint8 *IEEEAddr,
   \                     ZDP_DeviceAnnce:
    552                                        byte capabilities, byte SecurityEnable )
    553          {
   \   000000   74F6         MOV     A,#-0xa
   \   000002   12....       LCALL   ?BANKED_ENTER_XDATA
   \   000005                ; Saved register size: 10
   \   000005                ; Auto size: 9
   \   000005   74F7         MOV     A,#-0x9
   \   000007   12....       LCALL   ?ALLOC_XSTACK8
   \   00000A   E9           MOV     A,R1
   \   00000B   FE           MOV     R6,A
    554            zAddrType_t dstAddr;
    555            uint8 len;
    556          
    557            (void)SecurityEnable;  // Intentionally unreferenced parameter
    558          
    559            dstAddr.addrMode = (afAddrMode_t)AddrBroadcast;
   \   00000C   7408         MOV     A,#0x8
   \   00000E   12....       LCALL   ?XSTACK_DISP0_8
   \   000011   12....       LCALL   ?Subroutine62 & 0xFFFF
    560            dstAddr.addr.shortAddr = NWK_BROADCAST_SHORTADDR_DEVRXON;
    561          
    562            ZDP_TmpBuf[0] = LO_UINT16( nwkAddr );
   \                     ??CrossCallReturnLabel_98:
   \   000014   12....       LCALL   ?Subroutine34 & 0xFFFF
   \                     ??CrossCallReturnLabel_44:
   \   000017   EA           MOV     A,R2
   \   000018   12....       LCALL   ?Subroutine33 & 0xFFFF
    563            ZDP_TmpBuf[1] = HI_UINT16( nwkAddr );
   \                     ??CrossCallReturnLabel_127:
   \   00001B   EB           MOV     A,R3
   \   00001C   F0           MOVX    @DPTR,A
    564            osal_cpyExtAddr( &ZDP_TmpBuf[2], IEEEAddr );
   \   00001D                ; Setup parameters for call to function sAddrExtCpy
   \   00001D   90....       MOV     DPTR,#ZDP_TmpBuf
   \   000020   E0           MOVX    A,@DPTR
   \   000021   2402         ADD     A,#0x2
   \   000023   FA           MOV     R2,A
   \   000024   A3           INC     DPTR
   \   000025   E0           MOVX    A,@DPTR
   \   000026   3400         ADDC    A,#0x0
   \   000028   12....       LCALL   ?Subroutine24 & 0xFFFF
    565            len = 2 + Z_EXTADDR_LEN;
    566          
    567            ZDP_TmpBuf[10] = capabilities;
   \                     ??CrossCallReturnLabel_24:
   \   00002B   A3           INC     DPTR
   \   00002C   A3           INC     DPTR
   \   00002D   EE           MOV     A,R6
   \   00002E   F0           MOVX    @DPTR,A
    568            len++;
    569          
    570            return fillAndSend( &ZDP_TransID, &dstAddr, Device_annce, len );
   \   00002F                ; Setup parameters for call to function fillAndSend
   \   00002F   75..13       MOV     ?V0 + 0,#0x13
   \   000032   75..00       MOV     ?V0 + 1,#0x0
   \   000035   78..         MOV     R0,#?V0 + 0
   \   000037   12....       LCALL   ?PUSH_XSTACK_I_TWO
   \   00003A   790B         MOV     R1,#0xb
   \   00003C   02....       LJMP    ?Subroutine5 & 0xFFFF
    571          }

   \                                 In  segment BANKED_CODE, align 1, keep-with-next
   \                     ?Subroutine33:
   \   000000   F0           MOVX    @DPTR,A
   \   000001                REQUIRE ??Subroutine99_0
   \   000001                ; // Fall through to label ??Subroutine99_0

   \                                 In  segment BANKED_CODE, align 1, keep-with-next
   \                     ??Subroutine99_0:
   \   000000   12....       LCALL   ?Subroutine78 & 0xFFFF
   \                     ??CrossCallReturnLabel_133:
   \   000003   22           RET

   \                                 In  segment BANKED_CODE, align 1, keep-with-next
   \                     ?Subroutine24:
   \   000000   FB           MOV     R3,A
   \   000001   12....       LCALL   ??sAddrExtCpy?relay
   \   000004   12....       LCALL   ?Subroutine78 & 0xFFFF
   \                     ??CrossCallReturnLabel_131:
   \   000007   A3           INC     DPTR
   \   000008   A3           INC     DPTR
   \   000009   A3           INC     DPTR
   \   00000A   A3           INC     DPTR
   \   00000B   A3           INC     DPTR
   \   00000C   A3           INC     DPTR
   \   00000D   A3           INC     DPTR
   \   00000E   22           RET

   \                                 In  segment BANKED_CODE, align 1, keep-with-next
   \                     ?Subroutine34:
   \   000000   12....       LCALL   ?Subroutine80 & 0xFFFF
   \                     ??CrossCallReturnLabel_192:
   \   000003   22           RET
    572          
    573          /*********************************************************************
    574           * Address Responses
    575           */
    576          
    577          /*********************************************************************
    578           * @fn      zdpProcessAddrReq
    579           *
    580           * @brief   Process an incoming NWK_addr_req or IEEE_addr_req message and then
    581           *          build and send a corresponding NWK_addr_rsp or IEEE_addr_rsp msg.
    582           *
    583           * @param   inMsg - incoming message
    584           *
    585           * @return  none
    586           */

   \                                 In  segment BANKED_CODE, align 1, keep-with-next
    587          void zdpProcessAddrReq( zdoIncomingMsg_t *inMsg )
   \                     zdpProcessAddrReq:
    588          {
   \   000000   74F1         MOV     A,#-0xf
   \   000002   12....       LCALL   ?BANKED_ENTER_XDATA
   \   000005                ; Saved register size: 15
   \   000005                ; Auto size: 20
   \   000005   74EC         MOV     A,#-0x14
   \   000007   12....       LCALL   ?ALLOC_XSTACK8
   \   00000A   7401         MOV     A,#0x1
   \   00000C   12....       LCALL   ?XSTACK_DISP0_8
   \   00000F   12....       LCALL   ??Subroutine119_0 & 0xFFFF
    589            associated_devices_t *pAssoc;
    590            uint8 reqType;
    591            uint16 aoi = INVALID_NODE_ADDR;
   \                     ??CrossCallReturnLabel_237:
   \   000012   7EFE         MOV     R6,#-0x2
   \   000014   7FFF         MOV     R7,#-0x1
    592            uint8 *ieee = NULL;
   \   000016   75..00       MOV     ?V0 + 2,#0x0
   \   000019   75..00       MOV     ?V0 + 3,#0x0
    593          
    594            reqType = inMsg->asdu[(inMsg->clusterID == NWK_addr_req) ? Z_EXTADDR_LEN : sizeof( uint16 ) ];
   \   00001C   7401         MOV     A,#0x1
   \   00001E   12....       LCALL   ?XSTACK_DISP0_8
   \   000021   E0           MOVX    A,@DPTR
   \   000022   240C         ADD     A,#0xc
   \   000024   F8           MOV     R0,A
   \   000025   A3           INC     DPTR
   \   000026   E0           MOVX    A,@DPTR
   \   000027   3400         ADDC    A,#0x0
   \   000029   F9           MOV     R1,A
   \   00002A   7403         MOV     A,#0x3
   \   00002C   12....       LCALL   ?XSTACK_DISP0_8
   \   00002F   12....       LCALL   ??Subroutine131_0 & 0xFFFF
   \                     ??CrossCallReturnLabel_301:
   \   000032   7403         MOV     A,#0x3
   \   000034   12....       LCALL   ?XSTACK_DISP0_8
   \   000037   12....       LCALL   ?Subroutine30 & 0xFFFF
   \                     ??CrossCallReturnLabel_37:
   \   00003A   FA           MOV     R2,A
   \   00003B   A3           INC     DPTR
   \   00003C   E0           MOVX    A,@DPTR
   \   00003D   FB           MOV     R3,A
   \   00003E   EA           MOV     A,R2
   \   00003F   4B           ORL     A,R3
   \   000040   7004         JNZ     ??zdpProcessAddrReq_0
   \   000042   7C08         MOV     R4,#0x8
   \   000044   8002         SJMP    ??zdpProcessAddrReq_1
   \                     ??zdpProcessAddrReq_0:
   \   000046   7C02         MOV     R4,#0x2
   \                     ??zdpProcessAddrReq_1:
   \   000048   7401         MOV     A,#0x1
   \   00004A   12....       LCALL   ?XSTACK_DISP0_8
   \   00004D   E0           MOVX    A,@DPTR
   \   00004E   2413         ADD     A,#0x13
   \   000050   F8           MOV     R0,A
   \   000051   A3           INC     DPTR
   \   000052   E0           MOVX    A,@DPTR
   \   000053   3400         ADDC    A,#0x0
   \   000055   F9           MOV     R1,A
   \   000056   7405         MOV     A,#0x5
   \   000058   12....       LCALL   ?XSTACK_DISP0_8
   \   00005B   12....       LCALL   ??Subroutine131_0 & 0xFFFF
   \                     ??CrossCallReturnLabel_302:
   \   00005E   7405         MOV     A,#0x5
   \   000060   12....       LCALL   ?XSTACK_DISP0_8
   \   000063   12....       LCALL   ?Subroutine29 & 0xFFFF
   \                     ??CrossCallReturnLabel_35:
   \   000066   2C           ADD     A,R4
   \   000067   F582         MOV     DPL,A
   \   000069   E9           MOV     A,R1
   \   00006A   12....       LCALL   ??Subroutine115_0 & 0xFFFF
   \                     ??CrossCallReturnLabel_207:
   \   00006D   F5..         MOV     ?V0 + 5,A
    595          
    596            if ( inMsg->clusterID == NWK_addr_req )
   \   00006F   EA           MOV     A,R2
   \   000070   4B           ORL     A,R3
   \   000071   704A         JNZ     ??zdpProcessAddrReq_2
    597          
    598            {
    599              ieee = inMsg->asdu;
   \   000073   88..         MOV     ?V0 + 2,R0
   \   000075   89..         MOV     ?V0 + 3,R1
    600          
    601              if ( osal_ExtAddrEqual( saveExtAddr, ieee ) )
   \   000077                ; Setup parameters for call to function sAddrExtCmp
   \   000077   AC..         MOV     R4,?V0 + 2
   \   000079   AD..         MOV     R5,?V0 + 3
   \   00007B   7A..         MOV     R2,#saveExtAddr & 0xff
   \   00007D   7B..         MOV     R3,#(saveExtAddr >> 8) & 0xff
   \   00007F   12....       LCALL   ??sAddrExtCmp?relay
   \   000082   E9           MOV     A,R1
   \   000083   6006         JZ      ??zdpProcessAddrReq_3
    602              {
    603                aoi = ZDAppNwkAddr.addr.shortAddr;
   \   000085   12....       LCALL   ?Subroutine14 & 0xFFFF
    604              }
   \                     ??CrossCallReturnLabel_205:
   \   000088   02....       LJMP    ??zdpProcessAddrReq_4 & 0xFFFF
    605              // Handle response for sleeping end devices
    606              else if ( (ZSTACK_ROUTER_BUILD)
    607                && (((pAssoc = AssocGetWithExt( ieee )) != NULL)
    608                       && (pAssoc->nodeRelation == CHILD_RFD)) )
   \                     ??zdpProcessAddrReq_3:
   \   00008B                ; Setup parameters for call to function AssocGetWithExt
   \   00008B   AA..         MOV     R2,?V0 + 2
   \   00008D   AB..         MOV     R3,?V0 + 3
   \   00008F   12....       LCALL   ??AssocGetWithExt?relay
   \   000092   EA           MOV     A,R2
   \   000093   F8           MOV     R0,A
   \   000094   EB           MOV     A,R3
   \   000095   F9           MOV     R1,A
   \   000096   EA           MOV     A,R2
   \   000097   4B           ORL     A,R3
   \   000098   7003         JNZ     $+5
   \   00009A   02....       LJMP    ??zdpProcessAddrReq_5 & 0xFFFF
   \   00009D   8882         MOV     DPL,R0
   \   00009F   8983         MOV     DPH,R1
   \   0000A1   A3           INC     DPTR
   \   0000A2   A3           INC     DPTR
   \   0000A3   A3           INC     DPTR
   \   0000A4   A3           INC     DPTR
   \   0000A5   E0           MOVX    A,@DPTR
   \   0000A6   6401         XRL     A,#0x1
   \   0000A8   6003         JZ      $+5
   \   0000AA   02....       LJMP    ??zdpProcessAddrReq_5 & 0xFFFF
    609              {
    610                aoi = pAssoc->shortAddr;
   \   0000AD   8882         MOV     DPL,R0
   \   0000AF   8983         MOV     DPH,R1
   \   0000B1   12....       LCALL   ??Subroutine111_0 & 0xFFFF
    611                if ( reqType != ZDP_ADDR_REQTYPE_SINGLE )
   \                     ??CrossCallReturnLabel_197:
   \   0000B4   E5..         MOV     A,?V0 + 5
   \   0000B6   6075         JZ      ??zdpProcessAddrReq_4
    612                  reqType = 0xFF; // Force Invalid
   \                     ??zdpProcessAddrReq_6:
   \   0000B8   75..FF       MOV     ?V0 + 5,#-0x1
   \   0000BB   8070         SJMP    ??zdpProcessAddrReq_4
    613              }
    614            }
    615            else  // if ( inMsg->clusterID == IEEE_addr_req )
    616            {
    617              aoi = BUILD_UINT16( inMsg->asdu[0], inMsg->asdu[1] );
   \                     ??zdpProcessAddrReq_2:
   \   0000BD   8882         MOV     DPL,R0
   \   0000BF   8983         MOV     DPH,R1
   \   0000C1   E0           MOVX    A,@DPTR
   \   0000C2   FA           MOV     R2,A
   \   0000C3   A3           INC     DPTR
   \   0000C4   E0           MOVX    A,@DPTR
   \   0000C5   F9           MOV     R1,A
   \   0000C6   EA           MOV     A,R2
   \   0000C7   2400         ADD     A,#0x0
   \   0000C9   FE           MOV     R6,A
   \   0000CA   E4           CLR     A
   \   0000CB   39           ADDC    A,R1
   \   0000CC   FF           MOV     R7,A
    618          
    619              if ( aoi == ZDAppNwkAddr.addr.shortAddr )
   \   0000CD   90....       MOV     DPTR,#ZDAppNwkAddr
   \   0000D0   E0           MOVX    A,@DPTR
   \   0000D1   6E           XRL     A,R6
   \   0000D2   7003         JNZ     ??zdpProcessAddrReq_7
   \   0000D4   A3           INC     DPTR
   \   0000D5   E0           MOVX    A,@DPTR
   \   0000D6   6F           XRL     A,R7
   \                     ??zdpProcessAddrReq_7:
   \   0000D7   7008         JNZ     ??zdpProcessAddrReq_8
    620              {
    621                ieee = saveExtAddr;
   \   0000D9   75....       MOV     ?V0 + 2,#saveExtAddr & 0xff
   \   0000DC   75....       MOV     ?V0 + 3,#(saveExtAddr >> 8) & 0xff
   \   0000DF   804C         SJMP    ??zdpProcessAddrReq_4
    622              }
    623              else if ( (ZSTACK_ROUTER_BUILD)
    624                && (((pAssoc = AssocGetWithShort( aoi )) != NULL)
    625                       && (pAssoc->nodeRelation == CHILD_RFD)) )
   \                     ??zdpProcessAddrReq_8:
   \   0000E1                ; Setup parameters for call to function AssocGetWithShort
   \   0000E1   EF           MOV     A,R7
   \   0000E2   FB           MOV     R3,A
   \   0000E3   12....       LCALL   ??AssocGetWithShort?relay
   \   0000E6   EA           MOV     A,R2
   \   0000E7   F8           MOV     R0,A
   \   0000E8   EB           MOV     A,R3
   \   0000E9   F9           MOV     R1,A
   \   0000EA   EA           MOV     A,R2
   \   0000EB   4B           ORL     A,R3
   \   0000EC   603F         JZ      ??zdpProcessAddrReq_4
   \   0000EE   8882         MOV     DPL,R0
   \   0000F0   8983         MOV     DPH,R1
   \   0000F2   A3           INC     DPTR
   \   0000F3   A3           INC     DPTR
   \   0000F4   A3           INC     DPTR
   \   0000F5   A3           INC     DPTR
   \   0000F6   E0           MOVX    A,@DPTR
   \   0000F7   6401         XRL     A,#0x1
   \   0000F9   7032         JNZ     ??zdpProcessAddrReq_4
    626              {
    627                AddrMgrEntry_t addrEntry;
    628                addrEntry.user = ADDRMGR_USER_DEFAULT;
   \   0000FB   7407         MOV     A,#0x7
   \   0000FD   12....       LCALL   ?XSTACK_DISP0_8
   \   000100   E4           CLR     A
   \   000101   12....       LCALL   ?Subroutine68 & 0xFFFF
    629                addrEntry.index = pAssoc->addrIdx;
   \                     ??CrossCallReturnLabel_108:
   \   000104   12....       LCALL   ??Subroutine105_0 & 0xFFFF
   \                     ??CrossCallReturnLabel_166:
   \   000107   7412         MOV     A,#0x12
   \   000109   12....       LCALL   ?XSTACK_DISP0_8
   \   00010C   12....       LCALL   ??Subroutine131_0 & 0xFFFF
    630                if ( AddrMgrEntryGet( &addrEntry ) )
   \                     ??CrossCallReturnLabel_303:
   \   00010F                ; Setup parameters for call to function AddrMgrEntryGet
   \   00010F   7407         MOV     A,#0x7
   \   000111   12....       LCALL   ?XSTACK_DISP0_8
   \   000114   AA82         MOV     R2,DPL
   \   000116   AB83         MOV     R3,DPH
   \   000118   12....       LCALL   ??AddrMgrEntryGet?relay
   \   00011B   E9           MOV     A,R1
   \   00011C   600B         JZ      ??zdpProcessAddrReq_9
    631                {
    632                  ieee = addrEntry.extAddr;
   \   00011E   740A         MOV     A,#0xa
   \   000120   12....       LCALL   ?XSTACK_DISP0_8
   \   000123   8582..       MOV     ?V0 + 2,DPL
   \   000126   8583..       MOV     ?V0 + 3,DPH
    633                }
    634          
    635                if ( reqType != ZDP_ADDR_REQTYPE_SINGLE )
   \                     ??zdpProcessAddrReq_9:
   \   000129   E5..         MOV     A,?V0 + 5
   \   00012B   708B         JNZ     ??zdpProcessAddrReq_6
    636                  reqType = 0xFF; // Force Invalid
    637              }
    638            }
    639          
    640            if ( ((aoi != INVALID_NODE_ADDR) && (ieee != NULL)) || (inMsg->wasBroadcast == FALSE) )
   \                     ??zdpProcessAddrReq_4:
   \   00012D   74FE         MOV     A,#-0x2
   \   00012F   6E           XRL     A,R6
   \   000130   7003         JNZ     ??zdpProcessAddrReq_10
   \   000132   74FF         MOV     A,#-0x1
   \   000134   6F           XRL     A,R7
   \                     ??zdpProcessAddrReq_10:
   \   000135   6006         JZ      ??zdpProcessAddrReq_5
   \   000137   E5..         MOV     A,?V0 + 2
   \   000139   45..         ORL     A,?V0 + 3
   \   00013B   7011         JNZ     ??zdpProcessAddrReq_11
   \                     ??zdpProcessAddrReq_5:
   \   00013D   7401         MOV     A,#0x1
   \   00013F   12....       LCALL   ?XSTACK_DISP0_8
   \   000142   E0           MOVX    A,@DPTR
   \   000143   240B         ADD     A,#0xb
   \   000145   12....       LCALL   ?Subroutine57 & 0xFFFF
   \                     ??CrossCallReturnLabel_91:
   \   000148   E0           MOVX    A,@DPTR
   \   000149   6003         JZ      $+5
   \   00014B   02....       LJMP    ??zdpProcessAddrReq_12 & 0xFFFF
    641            {
    642              uint8 stat;
    643              uint8 *pBuf = ZDP_TmpBuf;
   \                     ??zdpProcessAddrReq_11:
   \   00014E   90....       MOV     DPTR,#ZDP_TmpBuf
   \   000151   12....       LCALL   ??Subroutine108_0 & 0xFFFF
    644              // Status + IEEE-Addr + Nwk-Addr.
    645              uint8 len = 1 + Z_EXTADDR_LEN + 2;
   \                     ??CrossCallReturnLabel_180:
   \   000154   75..0B       MOV     ?V0 + 6,#0xb
    646              
    647              // If aoi and iee are both setup, we found results
    648              if ( (aoi != INVALID_NODE_ADDR) && (ieee != NULL) )
   \   000157   74FE         MOV     A,#-0x2
   \   000159   6E           XRL     A,R6
   \   00015A   7003         JNZ     ??zdpProcessAddrReq_13
   \   00015C   74FF         MOV     A,#-0x1
   \   00015E   6F           XRL     A,R7
   \                     ??zdpProcessAddrReq_13:
   \   00015F   601A         JZ      ??zdpProcessAddrReq_14
   \   000161   E5..         MOV     A,?V0 + 2
   \   000163   45..         ORL     A,?V0 + 3
   \   000165   6014         JZ      ??zdpProcessAddrReq_14
    649              {
    650                stat = ((reqType == ZDP_ADDR_REQTYPE_SINGLE) || (reqType == ZDP_ADDR_REQTYPE_EXTENDED)) 
    651                              ? ZDP_SUCCESS : ZDP_INVALID_REQTYPE;
   \   000167   E5..         MOV     A,?V0 + 5
   \   000169   6006         JZ      ??zdpProcessAddrReq_15
   \   00016B   7401         MOV     A,#0x1
   \   00016D   65..         XRL     A,?V0 + 5
   \   00016F   7005         JNZ     ??zdpProcessAddrReq_16
   \                     ??zdpProcessAddrReq_15:
   \   000171   75..00       MOV     ?V0 + 4,#0x0
   \   000174   801E         SJMP    ??zdpProcessAddrReq_17
   \                     ??zdpProcessAddrReq_16:
   \   000176   75..80       MOV     ?V0 + 4,#-0x80
   \   000179   8019         SJMP    ??zdpProcessAddrReq_17
    652              }
    653              else 
    654              {
    655                // not found and the req was unicast to this device
    656                stat = ZDP_DEVICE_NOT_FOUND;
   \                     ??zdpProcessAddrReq_14:
   \   00017B   75..81       MOV     ?V0 + 4,#-0x7f
    657                
    658                // Fill in the missing field with this device's address
    659                if ( inMsg->clusterID == NWK_addr_req )
   \   00017E   7403         MOV     A,#0x3
   \   000180   12....       LCALL   ?XSTACK_DISP0_8
   \   000183   12....       LCALL   ?Subroutine29 & 0xFFFF
   \                     ??CrossCallReturnLabel_36:
   \   000186   49           ORL     A,R1
   \   000187   7005         JNZ     ??zdpProcessAddrReq_18
    660                {
    661                  aoi = ZDAppNwkAddr.addr.shortAddr;
   \   000189   12....       LCALL   ?Subroutine14 & 0xFFFF
    662                }
   \                     ??CrossCallReturnLabel_206:
   \   00018C   8006         SJMP    ??zdpProcessAddrReq_17
    663                else
    664                {
    665                  ieee = saveExtAddr;
   \                     ??zdpProcessAddrReq_18:
   \   00018E   75....       MOV     ?V0 + 2,#saveExtAddr & 0xff
   \   000191   75....       MOV     ?V0 + 3,#(saveExtAddr >> 8) & 0xff
    666                }
    667              }
    668          
    669              *pBuf++ = stat;
   \                     ??zdpProcessAddrReq_17:
   \   000194   85..82       MOV     DPL,?V0 + 0
   \   000197   85..83       MOV     DPH,?V0 + 1
   \   00019A   E5..         MOV     A,?V0 + 4
   \   00019C   12....       LCALL   ?Subroutine59 & 0xFFFF
    670          
    671              pBuf = osal_cpyExtAddr( pBuf, ieee );
   \                     ??CrossCallReturnLabel_94:
   \   00019F                ; Setup parameters for call to function sAddrExtCpy
   \   00019F   AC..         MOV     R4,?V0 + 2
   \   0001A1   AD..         MOV     R5,?V0 + 3
   \   0001A3   AA..         MOV     R2,?V0 + 0
   \   0001A5   AB..         MOV     R3,?V0 + 1
   \   0001A7   12....       LCALL   ??sAddrExtCpy?relay
    672          
    673              *pBuf++ = LO_UINT16( aoi );
   \   0001AA   EE           MOV     A,R6
   \   0001AB   8A82         MOV     DPL,R2
   \   0001AD   8B83         MOV     DPH,R3
   \   0001AF   F0           MOVX    @DPTR,A
   \   0001B0   A3           INC     DPTR
    674              *pBuf++ = HI_UINT16( aoi );
   \   0001B1   EF           MOV     A,R7
   \   0001B2   12....       LCALL   ?Subroutine59 & 0xFFFF
    675          
    676              if ( ZSTACK_ROUTER_BUILD )
    677              {
    678                if ( (reqType == ZDP_ADDR_REQTYPE_EXTENDED) && (aoi == ZDAppNwkAddr.addr.shortAddr)
    679                     && (stat == ZDP_SUCCESS) )
   \                     ??CrossCallReturnLabel_95:
   \   0001B5   7401         MOV     A,#0x1
   \   0001B7   65..         XRL     A,?V0 + 5
   \   0001B9   6003         JZ      $+5
   \   0001BB   02....       LJMP    ??zdpProcessAddrReq_19 & 0xFFFF
   \   0001BE   90....       MOV     DPTR,#ZDAppNwkAddr
   \   0001C1   E0           MOVX    A,@DPTR
   \   0001C2   6E           XRL     A,R6
   \   0001C3   7003         JNZ     ??zdpProcessAddrReq_20
   \   0001C5   A3           INC     DPTR
   \   0001C6   E0           MOVX    A,@DPTR
   \   0001C7   6F           XRL     A,R7
   \                     ??zdpProcessAddrReq_20:
   \   0001C8   6003         JZ      $+5
   \   0001CA   02....       LJMP    ??zdpProcessAddrReq_19 & 0xFFFF
   \   0001CD   E5..         MOV     A,?V0 + 4
   \   0001CF   6003         JZ      $+5
   \   0001D1   02....       LJMP    ??zdpProcessAddrReq_19 & 0xFFFF
    680                {
    681                  uint8  cnt = 0;
   \   0001D4   85..82       MOV     DPL,?XSP + 0
   \   0001D7   85..83       MOV     DPH,?XSP + 1
   \   0001DA   E4           CLR     A
   \   0001DB   F0           MOVX    @DPTR,A
    682                  uint16 *list = AssocMakeList( &cnt );
   \   0001DC                ; Setup parameters for call to function AssocMakeList
   \   0001DC   AA82         MOV     R2,DPL
   \   0001DE   AB83         MOV     R3,DPH
   \   0001E0   12....       LCALL   ??AssocMakeList?relay
    683          
    684                  if ( list != NULL )
   \   0001E3   85..82       MOV     DPL,?V0 + 0
   \   0001E6   85..83       MOV     DPH,?V0 + 1
   \   0001E9   A3           INC     DPTR
   \   0001EA   A882         MOV     R0,DPL
   \   0001EC   A983         MOV     R1,DPH
   \   0001EE   EA           MOV     A,R2
   \   0001EF   4B           ORL     A,R3
   \   0001F0   7003         JNZ     $+5
   \   0001F2   02....       LJMP    ??zdpProcessAddrReq_21 & 0xFFFF
    685                  {
    686                    byte idx = inMsg->asdu[(((inMsg->clusterID == NWK_addr_req) ? Z_EXTADDR_LEN : sizeof( uint16 )) + 1)];
   \   0001F5   7403         MOV     A,#0x3
   \   0001F7   12....       LCALL   ?XSTACK_DISP0_8
   \   0001FA   12....       LCALL   ??Subroutine107_0 & 0xFFFF
   \                     ??CrossCallReturnLabel_175:
   \   0001FD   12....       LCALL   ?Subroutine41 & 0xFFFF
   \                     ??CrossCallReturnLabel_59:
   \   000200   EC           MOV     A,R4
   \   000201   4D           ORL     A,R5
   \   000202   7004         JNZ     ??zdpProcessAddrReq_22
   \   000204   7E08         MOV     R6,#0x8
   \   000206   8002         SJMP    ??zdpProcessAddrReq_23
   \                     ??zdpProcessAddrReq_22:
   \   000208   7E02         MOV     R6,#0x2
   \                     ??zdpProcessAddrReq_23:
   \   00020A   7405         MOV     A,#0x5
   \   00020C   12....       LCALL   ?XSTACK_DISP0_8
   \   00020F   12....       LCALL   ??Subroutine107_0 & 0xFFFF
   \                     ??CrossCallReturnLabel_176:
   \   000212   E0           MOVX    A,@DPTR
   \   000213   2E           ADD     A,R6
   \   000214   FC           MOV     R4,A
   \   000215   A3           INC     DPTR
   \   000216   E0           MOVX    A,@DPTR
   \   000217   3400         ADDC    A,#0x0
   \   000219   8C82         MOV     DPL,R4
   \   00021B   F583         MOV     DPH,A
   \   00021D   A3           INC     DPTR
   \   00021E   E0           MOVX    A,@DPTR
   \   00021F   FE           MOV     R6,A
    687                    uint16 *pList = list + idx;
   \   000220   C3           CLR     C
   \   000221   33           RLC     A
   \   000222   FC           MOV     R4,A
   \   000223   E4           CLR     A
   \   000224   33           RLC     A
   \   000225   FD           MOV     R5,A
   \   000226   EA           MOV     A,R2
   \   000227   2C           ADD     A,R4
   \   000228   FC           MOV     R4,A
   \   000229   EB           MOV     A,R3
   \   00022A   3D           ADDC    A,R5
   \   00022B   FD           MOV     R5,A
    688          
    689                    // NumAssocDev field is only present on success.
    690                    if ( cnt > idx )
   \   00022C   85..82       MOV     DPL,?XSP + 0
   \   00022F   85..83       MOV     DPH,?XSP + 1
   \   000232   E0           MOVX    A,@DPTR
   \   000233   FF           MOV     R7,A
   \   000234   EE           MOV     A,R6
   \   000235   C3           CLR     C
   \   000236   9F           SUBB    A,R7
   \   000237   500C         JNC     ??zdpProcessAddrReq_24
    691                    {
    692                      cnt -= idx;
   \   000239   E0           MOVX    A,@DPTR
   \   00023A   C3           CLR     C
   \   00023B   9E           SUBB    A,R6
   \   00023C   F0           MOVX    @DPTR,A
    693                      len += (cnt * sizeof( uint16 ));
   \   00023D   C3           CLR     C
   \   00023E   33           RLC     A
   \   00023F   240B         ADD     A,#0xb
   \   000241   F5..         MOV     ?V0 + 6,A
   \   000243   8002         SJMP    ??zdpProcessAddrReq_25
    694                    }
    695                    else
    696                    {
    697                      cnt = 0;
   \                     ??zdpProcessAddrReq_24:
   \   000245   E4           CLR     A
   \   000246   F0           MOVX    @DPTR,A
    698                    }
    699                    *pBuf++ = cnt;
   \                     ??zdpProcessAddrReq_25:
   \   000247   12....       LCALL   ?Subroutine83 & 0xFFFF
    700                    len++;
    701          
    702                    // StartIndex field is only present if NumAssocDev field is non-zero.
    703                    *pBuf++ = idx;
   \                     ??CrossCallReturnLabel_118:
   \   00024A   EE           MOV     A,R6
   \   00024B   8882         MOV     DPL,R0
   \   00024D   8983         MOV     DPH,R1
   \   00024F   12....       LCALL   ?Subroutine59 & 0xFFFF
    704                    len++;
   \                     ??CrossCallReturnLabel_96:
   \   000252   05..         INC     ?V0 + 6
   \   000254   05..         INC     ?V0 + 6
   \   000256   8021         SJMP    ??zdpProcessAddrReq_26
    705          
    706                    while ( cnt != 0 )
    707                    {
    708                      *pBuf++ = LO_UINT16( *pList );
   \                     ??zdpProcessAddrReq_27:
   \   000258   8C82         MOV     DPL,R4
   \   00025A   8D83         MOV     DPH,R5
   \   00025C   12....       LCALL   ?Subroutine28 & 0xFFFF
    709                      *pBuf++ = HI_UINT16( *pList );
   \                     ??CrossCallReturnLabel_33:
   \   00025F   8C82         MOV     DPL,R4
   \   000261   8D83         MOV     DPH,R5
   \   000263   A3           INC     DPTR
   \   000264   12....       LCALL   ?Subroutine28 & 0xFFFF
    710                      pList++;
   \                     ??CrossCallReturnLabel_34:
   \   000267   EC           MOV     A,R4
   \   000268   2402         ADD     A,#0x2
   \   00026A   0C           INC     R4
   \   00026B   0C           INC     R4
   \   00026C   ED           MOV     A,R5
   \   00026D   3400         ADDC    A,#0x0
   \   00026F   FD           MOV     R5,A
    711                      cnt--;
   \   000270   85..82       MOV     DPL,?XSP + 0
   \   000273   85..83       MOV     DPH,?XSP + 1
   \   000276   E0           MOVX    A,@DPTR
   \   000277   14           DEC     A
   \   000278   F0           MOVX    @DPTR,A
    712                    }
   \                     ??zdpProcessAddrReq_26:
   \   000279   85..82       MOV     DPL,?XSP + 0
   \   00027C   85..83       MOV     DPH,?XSP + 1
   \   00027F   E0           MOVX    A,@DPTR
   \   000280   70D6         JNZ     ??zdpProcessAddrReq_27
    713          
    714                    osal_mem_free( (uint8 *)list );
   \   000282                ; Setup parameters for call to function osal_mem_free
   \   000282   12....       LCALL   ??osal_mem_free?relay
   \   000285   800B         SJMP    ??zdpProcessAddrReq_19
    715                  }
    716                  else
    717                  {
    718                    // NumAssocDev field is only present on success.
    719                    *pBuf++ = 0;
   \                     ??zdpProcessAddrReq_21:
   \   000287   85..82       MOV     DPL,?V0 + 0
   \   00028A   85..83       MOV     DPH,?V0 + 1
   \   00028D   E4           CLR     A
   \   00028E   F0           MOVX    @DPTR,A
    720                    len++;
   \   00028F   75..0C       MOV     ?V0 + 6,#0xc
    721                  }
    722                }
    723              }
    724          
    725              ZDP_TxOptions = AF_MSG_ACK_REQUEST;
   \                     ??zdpProcessAddrReq_19:
   \   000292   90....       MOV     DPTR,#ZDP_TxOptions
   \   000295   7410         MOV     A,#0x10
   \   000297   F0           MOVX    @DPTR,A
    726              fillAndSend( &(inMsg->TransSeq), &(inMsg->srcAddr), (cId_t)(inMsg->clusterID | ZDO_RESPONSE_BIT), len );
   \   000298                ; Setup parameters for call to function fillAndSend
   \   000298   7403         MOV     A,#0x3
   \   00029A   12....       LCALL   ?XSTACK_DISP0_8
   \   00029D   12....       LCALL   ?Subroutine30 & 0xFFFF
   \                     ??CrossCallReturnLabel_38:
   \   0002A0   F5..         MOV     ?V0 + 0,A
   \   0002A2   A3           INC     DPTR
   \   0002A3   E0           MOVX    A,@DPTR
   \   0002A4   4480         ORL     A,#0x80
   \   0002A6   F5..         MOV     ?V0 + 1,A
   \   0002A8   78..         MOV     R0,#?V0 + 0
   \   0002AA   12....       LCALL   ?PUSH_XSTACK_I_TWO
   \   0002AD   A9..         MOV     R1,?V0 + 6
   \   0002AF   7403         MOV     A,#0x3
   \   0002B1   12....       LCALL   ?XSTACK_DISP0_8
   \   0002B4   12....       LCALL   ?Subroutine39 & 0xFFFF
   \                     ??CrossCallReturnLabel_54:
   \   0002B7   12....       LCALL   ?XSTACK_DISP0_8
   \   0002BA   12....       LCALL   ?Subroutine31 & 0xFFFF
   \                     ??CrossCallReturnLabel_40:
   \   0002BD   12....       LCALL   ?DEALLOC_XSTACK8
    727              ZDP_TxOptions = AF_TX_OPTIONS_NONE;
   \   0002C0   90....       MOV     DPTR,#ZDP_TxOptions
   \   0002C3   E4           CLR     A
   \   0002C4   F0           MOVX    @DPTR,A
    728            }
    729          }
   \                     ??zdpProcessAddrReq_12:
   \   0002C5   7414         MOV     A,#0x14
   \   0002C7   02....       LJMP    ?Subroutine4 & 0xFFFF

   \                                 In  segment BANKED_CODE, align 1, keep-with-next
   \                     ?Subroutine29:
   \   000000   12....       LCALL   ??Subroutine110_0 & 0xFFFF
   \                     ??CrossCallReturnLabel_189:
   \   000003   12....       LCALL   ?Subroutine79 & 0xFFFF
   \                     ??CrossCallReturnLabel_171:
   \   000006   E8           MOV     A,R0
   \   000007   22           RET

   \                                 In  segment BANKED_CODE, align 1, keep-with-next
   \                     ?Subroutine28:
   \   000000   12....       LCALL   ?Subroutine83 & 0xFFFF
   \                     ??CrossCallReturnLabel_119:
   \   000003   A3           INC     DPTR
   \   000004   8582..       MOV     ?V0 + 0,DPL
   \   000007   8583..       MOV     ?V0 + 1,DPH
   \   00000A   22           RET

   \                                 In  segment BANKED_CODE, align 1, keep-with-next
   \                     ?Subroutine83:
   \   000000   E0           MOVX    A,@DPTR
   \   000001   85..82       MOV     DPL,?V0 + 0
   \   000004   85..83       MOV     DPH,?V0 + 1
   \   000007   F0           MOVX    @DPTR,A
   \   000008   22           RET

   \                                 In  segment BANKED_CODE, align 1, keep-with-next
   \                     ?Subroutine39:
   \   000000   E0           MOVX    A,@DPTR
   \   000001   2402         ADD     A,#0x2
   \   000003   FC           MOV     R4,A
   \   000004   A3           INC     DPTR
   \   000005   E0           MOVX    A,@DPTR
   \   000006   3400         ADDC    A,#0x0
   \   000008   FD           MOV     R5,A
   \   000009   7403         MOV     A,#0x3
   \   00000B   22           RET

   \                                 In  segment BANKED_CODE, align 1, keep-with-next
   \                     ?Subroutine31:
   \   000000   E0           MOVX    A,@DPTR
   \   000001   240F         ADD     A,#0xf
   \   000003   FA           MOV     R2,A
   \   000004   A3           INC     DPTR
   \   000005   E0           MOVX    A,@DPTR
   \   000006   3400         ADDC    A,#0x0
   \   000008   FB           MOV     R3,A
   \   000009   12....       LCALL   ??fillAndSend?relay
   \   00000C   7402         MOV     A,#0x2
   \   00000E   22           RET

   \                                 In  segment BANKED_CODE, align 1, keep-with-next
   \                     ??Subroutine105_0:
   \   000000   A3           INC     DPTR
   \   000001   A3           INC     DPTR
   \   000002                REQUIRE ??Subroutine106_0
   \   000002                ; // Fall through to label ??Subroutine106_0

   \                                 In  segment BANKED_CODE, align 1, keep-with-next
   \                     ??Subroutine107_0:
   \   000000   E0           MOVX    A,@DPTR
   \   000001   FC           MOV     R4,A
   \   000002   A3           INC     DPTR
   \   000003   E0           MOVX    A,@DPTR
   \   000004   F583         MOV     DPH,A
   \   000006   8C82         MOV     DPL,R4
   \   000008   22           RET

   \                                 In  segment BANKED_CODE, align 1, keep-with-next
   \                     ?Subroutine41:
   \   000000   E0           MOVX    A,@DPTR
   \   000001   FC           MOV     R4,A
   \   000002   A3           INC     DPTR
   \   000003   E0           MOVX    A,@DPTR
   \   000004   FD           MOV     R5,A
   \   000005   22           RET

   \                                 In  segment BANKED_CODE, align 1, keep-with-next
   \                     ?Subroutine57:
   \   000000   F8           MOV     R0,A
   \   000001   A3           INC     DPTR
   \   000002   E0           MOVX    A,@DPTR
   \   000003   12....       LCALL   ?Subroutine87 & 0xFFFF
   \                     ??CrossCallReturnLabel_126:
   \   000006   22           RET

   \                                 In  segment BANKED_CODE, align 1, keep-with-next
   \                     ?Subroutine87:
   \   000000   3400         ADDC    A,#0x0
   \   000002   F9           MOV     R1,A
   \   000003   8882         MOV     DPL,R0
   \   000005   8983         MOV     DPH,R1
   \   000007   22           RET

   \                                 In  segment BANKED_CODE, align 1, keep-with-next
   \                     ?Subroutine14:
   \   000000   90....       MOV     DPTR,#ZDAppNwkAddr
   \   000003                REQUIRE ??Subroutine111_0
   \   000003                ; // Fall through to label ??Subroutine111_0

   \                                 In  segment BANKED_CODE, align 1, keep-with-next
   \                     ??Subroutine115_0:
   \   000000   3400         ADDC    A,#0x0
   \   000002   F583         MOV     DPH,A
   \   000004   E0           MOVX    A,@DPTR
   \   000005   22           RET

   \                                 In  segment BANKED_CODE, align 1, keep-with-next
   \                     ?Subroutine68:
   \   000000   F0           MOVX    @DPTR,A
   \   000001   8882         MOV     DPL,R0
   \   000003   8983         MOV     DPH,R1
   \   000005   22           RET

   \                                 In  segment BANKED_CODE, align 1, keep-with-next
   \                     ??Subroutine131_0:
   \   000000   E8           MOV     A,R0
   \   000001   F0           MOVX    @DPTR,A
   \   000002   A3           INC     DPTR
   \   000003   E9           MOV     A,R1
   \   000004   F0           MOVX    @DPTR,A
   \   000005   22           RET

   \                                 In  segment BANKED_CODE, align 1, keep-with-next
   \                     ?Subroutine30:
   \   000000   12....       LCALL   ??Subroutine110_0 & 0xFFFF
   \                     ??CrossCallReturnLabel_190:
   \   000003   E0           MOVX    A,@DPTR
   \   000004   22           RET
    730          
    731          /*********************************************************************
    732           * @fn          ZDP_NodeDescMsg
    733           *
    734           * @brief       Builds and sends a Node Descriptor message, unicast to the
    735           *              specified device.
    736           *
    737           * @param       inMsg - incoming message
    738           * @param       nwkAddr - 16 bit network address for device
    739           * @param       pNodeDesc - pointer to the node descriptor
    740           *
    741           * @return      afStatus_t
    742           */

   \                                 In  segment BANKED_CODE, align 1, keep-with-next
    743          afStatus_t ZDP_NodeDescMsg( zdoIncomingMsg_t *inMsg,
   \                     ZDP_NodeDescMsg:
    744                                     uint16 nwkAddr, NodeDescriptorFormat_t *pNodeDesc )
    745          {
   \   000000   74F6         MOV     A,#-0xa
   \   000002   12....       LCALL   ?BANKED_ENTER_XDATA
   \   000005                ; Saved register size: 10
   \   000005                ; Auto size: 0
   \   000005   740A         MOV     A,#0xa
   \   000007   12....       LCALL   ?XSTACK_DISP0_8
   \   00000A   12....       LCALL   ??Subroutine111_0 & 0xFFFF
    746            uint8 *pBuf = ZDP_TmpBuf;
   \                     ??CrossCallReturnLabel_198:
   \   00000D   90....       MOV     DPTR,#ZDP_TmpBuf
   \   000010   12....       LCALL   ??Subroutine106_0 & 0xFFFF
    747            byte len;
    748          
    749            len = 1 + 2 + 13;  // Status + nwkAddr + Node descriptor
    750          
    751            *pBuf++ = ZDP_SUCCESS;
   \                     ??CrossCallReturnLabel_163:
   \   000013   8882         MOV     DPL,R0
   \   000015   8983         MOV     DPH,R1
   \   000017   12....       LCALL   ?Subroutine86 & 0xFFFF
    752          
    753            *pBuf++ = LO_UINT16( nwkAddr );
    754            *pBuf++ = HI_UINT16( nwkAddr );
   \                     ??CrossCallReturnLabel_134:
   \   00001A   12....       LCALL   ?Subroutine65 & 0xFFFF
    755          
    756            *pBuf++ = (byte)((pNodeDesc->ComplexDescAvail << 3) |
    757                               (pNodeDesc->UserDescAvail << 4) |
    758                               (pNodeDesc->LogicalType & 0x07));
   \                     ??CrossCallReturnLabel_103:
   \   00001D   8E82         MOV     DPL,R6
   \   00001F   8F83         MOV     DPH,R7
   \   000021   E0           MOVX    A,@DPTR
   \   000022   541F         ANL     A,#0x1f
   \   000024   8882         MOV     DPL,R0
   \   000026   8983         MOV     DPH,R1
   \   000028   F0           MOVX    @DPTR,A
   \   000029   A3           INC     DPTR
   \   00002A   08           INC     R0
   \   00002B   12....       LCALL   ?Subroutine21 & 0xFFFF
    759          
    760            *pBuf++ = (byte)((pNodeDesc->FrequencyBand << 3) | (pNodeDesc->APSFlags & 0x07));
    761            *pBuf++ = pNodeDesc->CapabilityFlags;
   \                     ??CrossCallReturnLabel_246:
   \   00002E   A3           INC     DPTR
   \   00002F   12....       LCALL   ?Subroutine20 & 0xFFFF
    762            *pBuf++ = pNodeDesc->ManufacturerCode[0];
   \                     ??CrossCallReturnLabel_137:
   \   000032   12....       LCALL   ??Subroutine101_0 & 0xFFFF
    763            *pBuf++ = pNodeDesc->ManufacturerCode[1];
   \                     ??CrossCallReturnLabel_139:
   \   000035   A3           INC     DPTR
   \   000036   12....       LCALL   ?Subroutine19 & 0xFFFF
    764            *pBuf++ = pNodeDesc->MaxBufferSize;
   \                     ??CrossCallReturnLabel_17:
   \   000039   12....       LCALL   ?Subroutine19 & 0xFFFF
    765            *pBuf++ = pNodeDesc->MaxInTransferSize[0];
   \                     ??CrossCallReturnLabel_18:
   \   00003C   12....       LCALL   ??Subroutine121_0 & 0xFFFF
    766            *pBuf++ = pNodeDesc->MaxInTransferSize[1];
   \                     ??CrossCallReturnLabel_248:
   \   00003F   12....       LCALL   ?Subroutine11 & 0xFFFF
    767          
    768            *pBuf++ = LO_UINT16( pNodeDesc->ServerMask );
   \                     ??CrossCallReturnLabel_249:
   \   000042   2408         ADD     A,#0x8
   \   000044   FC           MOV     R4,A
   \   000045   EF           MOV     A,R7
   \   000046   3400         ADDC    A,#0x0
   \   000048   FD           MOV     R5,A
   \   000049   8C82         MOV     DPL,R4
   \   00004B   8D83         MOV     DPH,R5
   \   00004D   12....       LCALL   ?Subroutine22 & 0xFFFF
    769            *pBuf++ = HI_UINT16( pNodeDesc->ServerMask );
   \                     ??CrossCallReturnLabel_19:
   \   000050   8C82         MOV     DPL,R4
   \   000052   8D83         MOV     DPH,R5
   \   000054   12....       LCALL   ?Subroutine20 & 0xFFFF
    770            *pBuf++ = pNodeDesc->MaxOutTransferSize[0];
   \                     ??CrossCallReturnLabel_138:
   \   000057   12....       LCALL   ?Subroutine11 & 0xFFFF
    771            *pBuf++ = pNodeDesc->MaxOutTransferSize[1];
   \                     ??CrossCallReturnLabel_250:
   \   00005A   240B         ADD     A,#0xb
   \   00005C   12....       LCALL   ?Subroutine74 & 0xFFFF
   \                     ??CrossCallReturnLabel_323:
   \   00005F   12....       LCALL   ??Subroutine124_0 & 0xFFFF
    772            *pBuf = pNodeDesc->DescriptorCapability;
   \                     ??CrossCallReturnLabel_253:
   \   000062   240C         ADD     A,#0xc
   \   000064   F582         MOV     DPL,A
   \   000066   EF           MOV     A,R7
   \   000067   12....       LCALL   ??Subroutine115_0 & 0xFFFF
   \                     ??CrossCallReturnLabel_208:
   \   00006A   8882         MOV     DPL,R0
   \   00006C   8983         MOV     DPH,R1
   \   00006E   F0           MOVX    @DPTR,A
    773          
    774            return fillAndSend( &(inMsg->TransSeq), &(inMsg->srcAddr), Node_Desc_rsp, len );
   \   00006F                ; Setup parameters for call to function fillAndSend
   \   00006F   75..02       MOV     ?V0 + 0,#0x2
   \   000072   75..80       MOV     ?V0 + 1,#-0x80
   \   000075   78..         MOV     R0,#?V0 + 0
   \   000077   12....       LCALL   ?PUSH_XSTACK_I_TWO
   \   00007A   7910         MOV     R1,#0x10
   \   00007C   EA           MOV     A,R2
   \   00007D   2402         ADD     A,#0x2
   \   00007F   FC           MOV     R4,A
   \   000080   EB           MOV     A,R3
   \   000081   3400         ADDC    A,#0x0
   \   000083   FD           MOV     R5,A
   \   000084   EA           MOV     A,R2
   \   000085   240F         ADD     A,#0xf
   \   000087   FA           MOV     R2,A
   \   000088   EB           MOV     A,R3
   \   000089                REQUIRE ?Subroutine6
   \   000089                ; // Fall through to label ?Subroutine6
    775          }

   \                                 In  segment BANKED_CODE, align 1, keep-with-next
   \                     ?Subroutine6:
   \   000000   3400         ADDC    A,#0x0
   \   000002   FB           MOV     R3,A
   \   000003   02....       LJMP    ??Subroutine96_0 & 0xFFFF

   \                                 In  segment BANKED_CODE, align 1, keep-with-next
   \                     ?Subroutine86:
   \   000000   E4           CLR     A
   \   000001                REQUIRE ??Subroutine100_0
   \   000001                ; // Fall through to label ??Subroutine100_0

   \                                 In  segment BANKED_CODE, align 1, keep-with-next
   \                     ??Subroutine100_0:
   \   000000   F0           MOVX    @DPTR,A
   \   000001   A3           INC     DPTR
   \   000002   EC           MOV     A,R4
   \   000003   F0           MOVX    @DPTR,A
   \   000004   A3           INC     DPTR
   \   000005   ED           MOV     A,R5
   \   000006   22           RET

   \                                 In  segment BANKED_CODE, align 1, keep-with-next
   \                     ?Subroutine20:
   \   000000   A3           INC     DPTR
   \   000001                REQUIRE ??Subroutine101_0
   \   000001                ; // Fall through to label ??Subroutine101_0

   \                                 In  segment BANKED_CODE, align 1, keep-with-next
   \                     ??Subroutine101_0:
   \   000000   12....       LCALL   ?Subroutine76 & 0xFFFF
   \                     ??CrossCallReturnLabel_140:
   \   000003   22           RET

   \                                 In  segment BANKED_CODE, align 1, keep-with-next
   \                     ?Subroutine76:
   \   000000   12....       LCALL   ?Subroutine90 & 0xFFFF
   \                     ??CrossCallReturnLabel_258:
   \   000003   8E82         MOV     DPL,R6
   \   000005   8F83         MOV     DPH,R7
   \   000007   A3           INC     DPTR
   \   000008   A3           INC     DPTR
   \   000009   A3           INC     DPTR
   \   00000A   22           RET

   \                                 In  segment BANKED_CODE, align 1, keep-with-next
   \                     ?Subroutine19:
   \   000000   12....       LCALL   ?Subroutine76 & 0xFFFF
   \                     ??CrossCallReturnLabel_141:
   \   000003   A3           INC     DPTR
   \   000004   A3           INC     DPTR
   \   000005   22           RET

   \                                 In  segment BANKED_CODE, align 1, keep-with-next
   \                     ?Subroutine22:
   \   000000   12....       LCALL   ??Subroutine98_0 & 0xFFFF
   \                     ??CrossCallReturnLabel_254:
   \   000003   22           RET

   \                                 In  segment BANKED_CODE, align 1, keep-with-next
   \                     ?Subroutine21:
   \   000000   A983         MOV     R1,DPH
   \   000002   8E82         MOV     DPL,R6
   \   000004   8F83         MOV     DPH,R7
   \   000006                REQUIRE ??Subroutine121_0
   \   000006                ; // Fall through to label ??Subroutine121_0

   \                                 In  segment BANKED_CODE, align 1, keep-with-next
   \                     ??Subroutine121_0:
   \   000000   12....       LCALL   ?Subroutine77 & 0xFFFF
   \                     ??CrossCallReturnLabel_256:
   \   000003   8E82         MOV     DPL,R6
   \   000005   8F83         MOV     DPH,R7
   \   000007   22           RET

   \                                 In  segment BANKED_CODE, align 1, keep-with-next
   \                     ?Subroutine11:
   \   000000   A3           INC     DPTR
   \   000001   A3           INC     DPTR
   \   000002                REQUIRE ??Subroutine122_0
   \   000002                ; // Fall through to label ??Subroutine122_0

   \                                 In  segment BANKED_CODE, align 1, keep-with-next
   \                     ??Subroutine122_0:
   \   000000   A3           INC     DPTR
   \   000001   A3           INC     DPTR
   \   000002   A3           INC     DPTR
   \   000003   A3           INC     DPTR
   \   000004                REQUIRE ??Subroutine123_0
   \   000004                ; // Fall through to label ??Subroutine123_0

   \                                 In  segment BANKED_CODE, align 1, keep-with-next
   \                     ??Subroutine123_0:
   \   000000   A3           INC     DPTR
   \   000001                REQUIRE ??Subroutine124_0
   \   000001                ; // Fall through to label ??Subroutine124_0

   \                                 In  segment BANKED_CODE, align 1, keep-with-next
   \                     ??Subroutine124_0:
   \   000000   12....       LCALL   ??Subroutine98_0 & 0xFFFF
   \                     ??CrossCallReturnLabel_257:
   \   000003   EE           MOV     A,R6
   \   000004   22           RET

   \                                 In  segment BANKED_CODE, align 1, keep-with-next
   \                     ?Subroutine74:
   \   000000   F582         MOV     DPL,A
   \   000002   EF           MOV     A,R7
   \   000003                REQUIRE ??Subroutine133_0
   \   000003                ; // Fall through to label ??Subroutine133_0

   \                                 In  segment BANKED_CODE, align 1, keep-with-next
   \                     ??Subroutine133_0:
   \   000000   3400         ADDC    A,#0x0
   \   000002   F583         MOV     DPH,A
   \   000004   22           RET
    776          
    777          /*********************************************************************
    778           * @fn          ZDP_PowerDescMsg
    779           *
    780           * @brief       Builds and sends a Power Descriptor message, unicast to the
    781           *              specified device.
    782           *
    783           * @param       inMsg - incoming message (request)
    784           * @param       nwkAddr - 16 bit network address for device
    785           * @param       pPowerDesc - pointer to the node descriptor
    786           *
    787           * @return      afStatus_t
    788           */

   \                                 In  segment BANKED_CODE, align 1, keep-with-next
    789          afStatus_t ZDP_PowerDescMsg( zdoIncomingMsg_t *inMsg,
   \                     ZDP_PowerDescMsg:
    790                               uint16 nwkAddr, NodePowerDescriptorFormat_t *pPowerDesc )
    791          {
   \   000000   74F6         MOV     A,#-0xa
   \   000002   12....       LCALL   ?BANKED_ENTER_XDATA
   \   000005                ; Saved register size: 10
   \   000005                ; Auto size: 0
   \   000005   EA           MOV     A,R2
   \   000006   FE           MOV     R6,A
   \   000007   EB           MOV     A,R3
   \   000008   FF           MOV     R7,A
   \   000009   740A         MOV     A,#0xa
   \   00000B   12....       LCALL   ?XSTACK_DISP0_8
   \   00000E   12....       LCALL   ?Subroutine43 & 0xFFFF
    792            uint8 *pBuf = ZDP_TmpBuf;
   \                     ??CrossCallReturnLabel_66:
   \   000011   12....       LCALL   ??Subroutine132_0 & 0xFFFF
    793            byte len = 1 + 2 + 2;  // Status + nwkAddr + Node Power descriptor.
    794          
    795            *pBuf++ = ZDP_SUCCESS;
   \                     ??CrossCallReturnLabel_312:
   \   000014   12....       LCALL   ?Subroutine60 & 0xFFFF
    796          
    797            *pBuf++ = LO_UINT16( nwkAddr );
    798            *pBuf++ = HI_UINT16( nwkAddr );
    799          
    800            *pBuf++ = (byte)((pPowerDesc->AvailablePowerSources << 4)
    801                              | (pPowerDesc->PowerMode & 0x0F));
   \                     ??CrossCallReturnLabel_277:
   \   000017   12....       LCALL   ?Subroutine46 & 0xFFFF
    802            *pBuf++ = (byte)((pPowerDesc->CurrentPowerSourceLevel << 4)
    803                              | (pPowerDesc->CurrentPowerSource & 0x0F));
   \                     ??CrossCallReturnLabel_288:
   \   00001A   8882         MOV     DPL,R0
   \   00001C   8983         MOV     DPH,R1
   \   00001E   12....       LCALL   ??Subroutine108_0 & 0xFFFF
   \                     ??CrossCallReturnLabel_181:
   \   000021   540F         ANL     A,#0xf
   \   000023   F9           MOV     R1,A
   \   000024   740C         MOV     A,#0xc
   \   000026   78..         MOV     R0,#?V0 + 0
   \   000028   12....       LCALL   ?US_SHR
   \   00002B   E5..         MOV     A,?V0 + 0
   \   00002D   C4           SWAP    A
   \   00002E   49           ORL     A,R1
   \   00002F   8A82         MOV     DPL,R2
   \   000031   8B83         MOV     DPH,R3
   \   000033   F0           MOVX    @DPTR,A
    804          
    805            return fillAndSend( &(inMsg->TransSeq), &(inMsg->srcAddr), Power_Desc_rsp, len );
   \   000034                ; Setup parameters for call to function fillAndSend
   \   000034   75..03       MOV     ?V0 + 0,#0x3
   \   000037   75..80       MOV     ?V0 + 1,#-0x80
   \   00003A   78..         MOV     R0,#?V0 + 0
   \   00003C   12....       LCALL   ?PUSH_XSTACK_I_TWO
   \   00003F   7905         MOV     R1,#0x5
   \   000041   EE           MOV     A,R6
   \   000042   2402         ADD     A,#0x2
   \   000044   FC           MOV     R4,A
   \   000045   EF           MOV     A,R7
   \   000046   3400         ADDC    A,#0x0
   \   000048   FD           MOV     R5,A
   \   000049   EE           MOV     A,R6
   \   00004A   240F         ADD     A,#0xf
   \   00004C   FA           MOV     R2,A
   \   00004D   EF           MOV     A,R7
   \   00004E   80..         SJMP    ?Subroutine6
    806          }

   \                                 In  segment BANKED_CODE, align 1, keep-with-next
   \                     ??Subroutine102_0:
   \   000000   E0           MOVX    A,@DPTR
   \   000001   8A82         MOV     DPL,R2
   \   000003   8B83         MOV     DPH,R3
   \   000005   F0           MOVX    @DPTR,A
   \   000006   A3           INC     DPTR
   \   000007   0A           INC     R2
   \   000008   AB83         MOV     R3,DPH
   \   00000A   22           RET

   \                                 In  segment BANKED_CODE, align 1, keep-with-next
   \                     ?Subroutine43:
   \   000000   12....       LCALL   ?Subroutine79 & 0xFFFF
   \                     ??CrossCallReturnLabel_172:
   \   000003   90....       MOV     DPTR,#ZDP_TmpBuf
   \   000006   22           RET

   \                                 In  segment BANKED_CODE, align 1, keep-with-next
   \                     ?Subroutine60:
   \   000000   8A82         MOV     DPL,R2
   \   000002   8B83         MOV     DPH,R3
   \   000004   12....       LCALL   ?Subroutine86 & 0xFFFF
   \                     ??CrossCallReturnLabel_135:
   \   000007                REQUIRE ??Subroutine128_0
   \   000007                ; // Fall through to label ??Subroutine128_0

   \                                 In  segment BANKED_CODE, align 1, keep-with-next
   \                     ??Subroutine128_0:
   \   000000   F0           MOVX    @DPTR,A
   \   000001   A3           INC     DPTR
   \   000002   AA82         MOV     R2,DPL
   \   000004   AB83         MOV     R3,DPH
   \   000006   22           RET

   \                                 In  segment BANKED_CODE, align 1, keep-with-next
   \                     ?Subroutine46:
   \   000000   8882         MOV     DPL,R0
   \   000002   8983         MOV     DPH,R1
   \   000004                REQUIRE ??Subroutine129_0
   \   000004                ; // Fall through to label ??Subroutine129_0

   \                                 In  segment BANKED_CODE, align 1, keep-with-next
   \                     ??Subroutine129_0:
   \   000000   12....       LCALL   ??Subroutine102_0 & 0xFFFF
   \                     ??CrossCallReturnLabel_295:
   \   000003   22           RET

   \                                 In  segment BANKED_CODE, align 1, keep-with-next
   \                     ??Subroutine132_0:
   \   000000   E0           MOVX    A,@DPTR
   \   000001   FA           MOV     R2,A
   \   000002   A3           INC     DPTR
   \   000003   E0           MOVX    A,@DPTR
   \   000004   FB           MOV     R3,A
   \   000005   22           RET
    807          
    808          /*********************************************************************
    809           * @fn          ZDP_SimpleDescMsg
    810           *
    811           * @brief       Builds and sends a Simple Descriptor message, unicast to the
    812           *              specified device.
    813           *
    814           * @param       inMsg - incoming message (request)
    815           * @param       Status - message status (ZDP_SUCCESS or other)
    816           * @param       pSimpleDesc - pointer to the node descriptor
    817           *
    818           * @return      afStatus_t
    819           */

   \                                 In  segment BANKED_CODE, align 1, keep-with-next
    820          afStatus_t ZDP_SimpleDescMsg( zdoIncomingMsg_t *inMsg, byte Status,
   \                     ZDP_SimpleDescMsg:
    821                                        SimpleDescriptionFormat_t *pSimpleDesc )
    822          {
   \   000000   74F0         MOV     A,#-0x10
   \   000002   12....       LCALL   ?BANKED_ENTER_XDATA
   \   000005                ; Saved register size: 16
   \   000005                ; Auto size: 3
   \   000005   74FD         MOV     A,#-0x3
   \   000007   12....       LCALL   ?ALLOC_XSTACK8
   \   00000A   7401         MOV     A,#0x1
   \   00000C   12....       LCALL   ?XSTACK_DISP0_8
   \   00000F   12....       LCALL   ??Subroutine119_0 & 0xFFFF
   \                     ??CrossCallReturnLabel_238:
   \   000012   E9           MOV     A,R1
   \   000013   85..82       MOV     DPL,?XSP + 0
   \   000016   85..83       MOV     DPH,?XSP + 1
   \   000019   F0           MOVX    @DPTR,A
    823            uint8 *pBuf = ZDP_TmpBuf;
   \   00001A   12....       LCALL   ?Subroutine50 & 0xFFFF
    824            uint8 i, len;
    825          
    826            if ( Status == ZDP_SUCCESS && pSimpleDesc )
   \                     ??CrossCallReturnLabel_317:
   \   00001D   EC           MOV     A,R4
   \   00001E   2409         ADD     A,#0x9
   \   000020   F5..         MOV     ?V0 + 4,A
   \   000022   ED           MOV     A,R5
   \   000023   3400         ADDC    A,#0x0
   \   000025   F5..         MOV     ?V0 + 5,A
   \   000027   EC           MOV     A,R4
   \   000028   2406         ADD     A,#0x6
   \   00002A   F5..         MOV     ?V0 + 2,A
   \   00002C   ED           MOV     A,R5
   \   00002D   3400         ADDC    A,#0x0
   \   00002F   F5..         MOV     ?V0 + 3,A
   \   000031   85..82       MOV     DPL,?XSP + 0
   \   000034   85..83       MOV     DPH,?XSP + 1
   \   000037   E0           MOVX    A,@DPTR
   \   000038   702B         JNZ     ??ZDP_SimpleDescMsg_0
   \   00003A   EC           MOV     A,R4
   \   00003B   4D           ORL     A,R5
   \   00003C   6027         JZ      ??ZDP_SimpleDescMsg_0
    827            {
    828              // Status + NWKAddrOfInterest + desc length + empty simple descriptor.
    829              len = 1 + 2 + 1 + 8;
    830              len += (pSimpleDesc->AppNumInClusters + pSimpleDesc->AppNumOutClusters) * sizeof ( uint16 );
   \   00003E   85..82       MOV     DPL,?V0 + 4
   \   000041   85..83       MOV     DPH,?V0 + 5
   \   000044   C082         PUSH    DPL
   \   000046   C083         PUSH    DPH
   \   000048   85..82       MOV     DPL,?V0 + 2
   \   00004B   85..83       MOV     DPH,?V0 + 3
   \   00004E   E0           MOVX    A,@DPTR
   \   00004F   D083         POP     DPH
   \   000051   D082         POP     DPL
   \   000053   F8           MOV     R0,A
   \   000054   E0           MOVX    A,@DPTR
   \   000055   28           ADD     A,R0
   \   000056   C3           CLR     C
   \   000057   33           RLC     A
   \   000058   240C         ADD     A,#0xc
   \   00005A   F9           MOV     R1,A
    831            }
    832            else
    833            {
    834              len = 1 + 2 + 1; // Status + desc length
    835            }
    836            if ( len >= ZDP_BUF_SZ-1 )
   \   00005B   C3           CLR     C
   \   00005C   944F         SUBB    A,#0x4f
   \   00005E   4007         JC      ??ZDP_SimpleDescMsg_1
    837            {
    838              return afStatus_MEM_FAIL;
   \   000060   7910         MOV     R1,#0x10
   \   000062   02....       LJMP    ??ZDP_SimpleDescMsg_2 & 0xFFFF
    839            }
   \                     ??ZDP_SimpleDescMsg_0:
   \   000065   7904         MOV     R1,#0x4
    840          
    841            *pBuf++ = Status;
   \                     ??ZDP_SimpleDescMsg_1:
   \   000067   85..82       MOV     DPL,?XSP + 0
   \   00006A   85..83       MOV     DPH,?XSP + 1
   \   00006D   12....       LCALL   ??Subroutine126_0 & 0xFFFF
    842          
    843            *pBuf++ = LO_UINT16( ZDAppNwkAddr.addr.shortAddr );
   \                     ??CrossCallReturnLabel_268:
   \   000070   90....       MOV     DPTR,#ZDAppNwkAddr
   \   000073   12....       LCALL   ??Subroutine129_0 & 0xFFFF
    844            *pBuf++ = HI_UINT16( ZDAppNwkAddr.addr.shortAddr );
   \                     ??CrossCallReturnLabel_283:
   \   000076   90....       MOV     DPTR,#ZDAppNwkAddr + 1
   \   000079   12....       LCALL   ??Subroutine125_0 & 0xFFFF
    845          
    846            if ( len > 4 )
   \                     ??CrossCallReturnLabel_263:
   \   00007C   E9           MOV     A,R1
   \   00007D   C3           CLR     C
   \   00007E   9405         SUBB    A,#0x5
   \   000080   5003         JNC     $+5
   \   000082   02....       LJMP    ??ZDP_SimpleDescMsg_3 & 0xFFFF
    847            {
    848              *pBuf++ = len - 4;   // Simple descriptor length
   \   000085   74FC         MOV     A,#-0x4
   \   000087   29           ADD     A,R1
   \   000088   F0           MOVX    @DPTR,A
   \   000089   A3           INC     DPTR
   \   00008A   0A           INC     R2
   \   00008B   0A           INC     R2
   \   00008C   AB83         MOV     R3,DPH
    849          
    850              *pBuf++ = pSimpleDesc->EndPoint;
   \   00008E   8C82         MOV     DPL,R4
   \   000090   8D83         MOV     DPH,R5
   \   000092   12....       LCALL   ??Subroutine129_0 & 0xFFFF
    851              *pBuf++ = LO_UINT16( pSimpleDesc->AppProfId );
   \                     ??CrossCallReturnLabel_284:
   \   000095   8C82         MOV     DPL,R4
   \   000097   8D83         MOV     DPH,R5
   \   000099   A3           INC     DPTR
   \   00009A   AE82         MOV     R6,DPL
   \   00009C   AF83         MOV     R7,DPH
   \   00009E   12....       LCALL   ?Subroutine15 & 0xFFFF
    852              *pBuf++ = HI_UINT16( pSimpleDesc->AppProfId );
    853              *pBuf++ = LO_UINT16( pSimpleDesc->AppDeviceId );
   \                     ??CrossCallReturnLabel_6:
   \   0000A1   EC           MOV     A,R4
   \   0000A2   2403         ADD     A,#0x3
   \   0000A4   FE           MOV     R6,A
   \   0000A5   ED           MOV     A,R5
   \   0000A6   3400         ADDC    A,#0x0
   \   0000A8   FF           MOV     R7,A
   \   0000A9   8E82         MOV     DPL,R6
   \   0000AB   8F83         MOV     DPH,R7
   \   0000AD   12....       LCALL   ?Subroutine15 & 0xFFFF
    854              *pBuf++ = HI_UINT16( pSimpleDesc->AppDeviceId );
    855          
    856              *pBuf++ = (byte)(pSimpleDesc->AppDevVer << 4);
   \                     ??CrossCallReturnLabel_7:
   \   0000B0   8C82         MOV     DPL,R4
   \   0000B2   8D83         MOV     DPH,R5
   \   0000B4   A3           INC     DPTR
   \   0000B5   A3           INC     DPTR
   \   0000B6   A3           INC     DPTR
   \   0000B7   A3           INC     DPTR
   \   0000B8   A3           INC     DPTR
   \   0000B9   E0           MOVX    A,@DPTR
   \   0000BA   C4           SWAP    A
   \   0000BB   54F0         ANL     A,#0xf0
   \   0000BD   8A82         MOV     DPL,R2
   \   0000BF   8B83         MOV     DPH,R3
   \   0000C1   F0           MOVX    @DPTR,A
   \   0000C2   A3           INC     DPTR
   \   0000C3   0A           INC     R2
   \   0000C4   AB83         MOV     R3,DPH
    857          
    858              *pBuf++ = pSimpleDesc->AppNumInClusters;
   \   0000C6   85..82       MOV     DPL,?V0 + 2
   \   0000C9   85..83       MOV     DPH,?V0 + 3
   \   0000CC   12....       LCALL   ??Subroutine129_0 & 0xFFFF
    859              if ( pSimpleDesc->AppNumInClusters )
   \                     ??CrossCallReturnLabel_285:
   \   0000CF   85..82       MOV     DPL,?V0 + 2
   \   0000D2   85..83       MOV     DPH,?V0 + 3
   \   0000D5   E0           MOVX    A,@DPTR
   \   0000D6   6042         JZ      ??ZDP_SimpleDescMsg_4
    860              {
    861                for (i=0; i<pSimpleDesc->AppNumInClusters; ++i)
   \   0000D8   7800         MOV     R0,#0x0
   \   0000DA   EC           MOV     A,R4
   \   0000DB   2407         ADD     A,#0x7
   \   0000DD   F5..         MOV     ?V0 + 6,A
   \   0000DF   ED           MOV     A,R5
   \   0000E0   3400         ADDC    A,#0x0
   \   0000E2   F5..         MOV     ?V0 + 7,A
   \   0000E4   8027         SJMP    ??CrossCallReturnLabel_72
    862                {
    863                  *pBuf++ = LO_UINT16( pSimpleDesc->pAppInClusterList[i] );
   \                     ??ZDP_SimpleDescMsg_5:
   \   0000E6   E8           MOV     A,R0
   \   0000E7   C3           CLR     C
   \   0000E8   33           RLC     A
   \   0000E9   FE           MOV     R6,A
   \   0000EA   E4           CLR     A
   \   0000EB   33           RLC     A
   \   0000EC   FF           MOV     R7,A
   \   0000ED   85..82       MOV     DPL,?V0 + 6
   \   0000F0   85..83       MOV     DPH,?V0 + 7
   \   0000F3   E0           MOVX    A,@DPTR
   \   0000F4   2E           ADD     A,R6
   \   0000F5   F5..         MOV     ?V0 + 0,A
   \   0000F7   A3           INC     DPTR
   \   0000F8   E0           MOVX    A,@DPTR
   \   0000F9   3F           ADDC    A,R7
   \   0000FA   12....       LCALL   ?Subroutine9 & 0xFFFF
    864                  *pBuf++ = HI_UINT16( pSimpleDesc->pAppInClusterList[i] );
   \                     ??CrossCallReturnLabel_272:
   \   0000FD   85..82       MOV     DPL,?V0 + 6
   \   000100   85..83       MOV     DPH,?V0 + 7
   \   000103   E0           MOVX    A,@DPTR
   \   000104   2E           ADD     A,R6
   \   000105   F5..         MOV     ?V0 + 0,A
   \   000107   A3           INC     DPTR
   \   000108   E0           MOVX    A,@DPTR
   \   000109   3F           ADDC    A,R7
   \   00010A   12....       LCALL   ?Subroutine45 & 0xFFFF
    865                }
   \                     ??CrossCallReturnLabel_72:
   \   00010D   85..82       MOV     DPL,?V0 + 2
   \   000110   85..83       MOV     DPH,?V0 + 3
   \   000113   E0           MOVX    A,@DPTR
   \   000114   FE           MOV     R6,A
   \   000115   E8           MOV     A,R0
   \   000116   C3           CLR     C
   \   000117   9E           SUBB    A,R6
   \   000118   40CC         JC      ??ZDP_SimpleDescMsg_5
    866              }
    867          
    868              *pBuf++ = pSimpleDesc->AppNumOutClusters;
   \                     ??ZDP_SimpleDescMsg_4:
   \   00011A   85..82       MOV     DPL,?V0 + 4
   \   00011D   85..83       MOV     DPH,?V0 + 5
   \   000120   12....       LCALL   ??Subroutine126_0 & 0xFFFF
    869              if ( pSimpleDesc->AppNumOutClusters )
   \                     ??CrossCallReturnLabel_269:
   \   000123   85..82       MOV     DPL,?V0 + 4
   \   000126   85..83       MOV     DPH,?V0 + 5
   \   000129   E0           MOVX    A,@DPTR
   \   00012A   6042         JZ      ??ZDP_SimpleDescMsg_6
    870              {
    871                for (i=0; i<pSimpleDesc->AppNumOutClusters; ++i)
   \   00012C   7800         MOV     R0,#0x0
   \   00012E   EC           MOV     A,R4
   \   00012F   240A         ADD     A,#0xa
   \   000131   FC           MOV     R4,A
   \   000132   ED           MOV     A,R5
   \   000133   3400         ADDC    A,#0x0
   \   000135   FD           MOV     R5,A
   \   000136   EC           MOV     A,R4
   \   000137   FE           MOV     R6,A
   \   000138   ED           MOV     A,R5
   \   000139   FF           MOV     R7,A
   \                     ??ZDP_SimpleDescMsg_7:
   \   00013A   85..82       MOV     DPL,?V0 + 4
   \   00013D   85..83       MOV     DPH,?V0 + 5
   \   000140   E0           MOVX    A,@DPTR
   \   000141   FC           MOV     R4,A
   \   000142   E8           MOV     A,R0
   \   000143   C3           CLR     C
   \   000144   9C           SUBB    A,R4
   \   000145   5027         JNC     ??ZDP_SimpleDescMsg_6
    872                {
    873                  *pBuf++ = LO_UINT16( pSimpleDesc->pAppOutClusterList[i] );
   \   000147   E8           MOV     A,R0
   \   000148   C3           CLR     C
   \   000149   33           RLC     A
   \   00014A   FC           MOV     R4,A
   \   00014B   E4           CLR     A
   \   00014C   33           RLC     A
   \   00014D   FD           MOV     R5,A
   \   00014E   8E82         MOV     DPL,R6
   \   000150   8F83         MOV     DPH,R7
   \   000152   E0           MOVX    A,@DPTR
   \   000153   2C           ADD     A,R4
   \   000154   F5..         MOV     ?V0 + 0,A
   \   000156   A3           INC     DPTR
   \   000157   E0           MOVX    A,@DPTR
   \   000158   3D           ADDC    A,R5
   \   000159   12....       LCALL   ?Subroutine9 & 0xFFFF
    874                  *pBuf++ = HI_UINT16( pSimpleDesc->pAppOutClusterList[i] );
   \                     ??CrossCallReturnLabel_273:
   \   00015C   8E82         MOV     DPL,R6
   \   00015E   8F83         MOV     DPH,R7
   \   000160   E0           MOVX    A,@DPTR
   \   000161   2C           ADD     A,R4
   \   000162   F5..         MOV     ?V0 + 0,A
   \   000164   A3           INC     DPTR
   \   000165   E0           MOVX    A,@DPTR
   \   000166   3D           ADDC    A,R5
   \   000167   12....       LCALL   ?Subroutine45 & 0xFFFF
    875                }
    876              }
    877            }
   \                     ??CrossCallReturnLabel_73:
   \   00016A   80CE         SJMP    ??ZDP_SimpleDescMsg_7
    878          
    879            else
    880            {
    881              *pBuf = 0; // Description Length = 0;
   \                     ??ZDP_SimpleDescMsg_3:
   \   00016C   E4           CLR     A
   \   00016D   F0           MOVX    @DPTR,A
    882            }
    883          
    884            return fillAndSend( &(inMsg->TransSeq), &(inMsg->srcAddr), Simple_Desc_rsp, len );
   \                     ??ZDP_SimpleDescMsg_6:
   \   00016E                ; Setup parameters for call to function fillAndSend
   \   00016E   75..04       MOV     ?V0 + 0,#0x4
   \   000171   75..80       MOV     ?V0 + 1,#-0x80
   \   000174   78..         MOV     R0,#?V0 + 0
   \   000176   12....       LCALL   ?PUSH_XSTACK_I_TWO
   \   000179   7403         MOV     A,#0x3
   \   00017B   12....       LCALL   ?XSTACK_DISP0_8
   \   00017E   12....       LCALL   ?Subroutine39 & 0xFFFF
   \                     ??CrossCallReturnLabel_55:
   \   000181   12....       LCALL   ?XSTACK_DISP0_8
   \   000184   12....       LCALL   ?Subroutine31 & 0xFFFF
   \                     ??CrossCallReturnLabel_41:
   \   000187   12....       LCALL   ?DEALLOC_XSTACK8
   \                     ??ZDP_SimpleDescMsg_2:
   \   00018A   02....       LJMP    ?Subroutine3 & 0xFFFF
    885          }

   \                                 In  segment BANKED_CODE, align 1, keep-with-next
   \                     ?Subroutine45:
   \   000000   85..82       MOV     DPL,?V0 + 0
   \   000003   F583         MOV     DPH,A
   \   000005   12....       LCALL   ?Subroutine75 & 0xFFFF
   \                     ??CrossCallReturnLabel_294:
   \   000008   08           INC     R0
   \   000009   22           RET

   \                                 In  segment BANKED_CODE, align 1, keep-with-next
   \                     ?Subroutine15:
   \   000000   12....       LCALL   ??Subroutine102_0 & 0xFFFF
   \                     ??CrossCallReturnLabel_290:
   \   000003   8E82         MOV     DPL,R6
   \   000005   8F83         MOV     DPH,R7
   \   000007   12....       LCALL   ?Subroutine75 & 0xFFFF
   \                     ??CrossCallReturnLabel_293:
   \   00000A   22           RET

   \                                 In  segment BANKED_CODE, align 1, keep-with-next
   \                     ?Subroutine75:
   \   000000   A3           INC     DPTR
   \   000001                REQUIRE ??Subroutine102_0
   \   000001                ; // Fall through to label ??Subroutine102_0

   \                                 In  segment BANKED_CODE, align 1, keep-with-next
   \                     ?Subroutine3:
   \   000000   7403         MOV     A,#0x3
   \   000002                REQUIRE ??Subroutine112_0
   \   000002                ; // Fall through to label ??Subroutine112_0

   \                                 In  segment BANKED_CODE, align 1, keep-with-next
   \                     ??Subroutine112_0:
   \   000000   12....       LCALL   ?DEALLOC_XSTACK8
   \   000003                REQUIRE ??Subroutine113_0
   \   000003                ; // Fall through to label ??Subroutine113_0

   \                                 In  segment BANKED_CODE, align 1, keep-with-next
   \                     ??Subroutine125_0:
   \   000000   12....       LCALL   ?Subroutine81 & 0xFFFF
   \                     ??CrossCallReturnLabel_275:
   \   000003   22           RET

   \                                 In  segment BANKED_CODE, align 1, keep-with-next
   \                     ?Subroutine81:
   \   000000   E0           MOVX    A,@DPTR
   \   000001   8A82         MOV     DPL,R2
   \   000003   8B83         MOV     DPH,R3
   \   000005   F0           MOVX    @DPTR,A
   \   000006   A3           INC     DPTR
   \   000007   22           RET

   \                                 In  segment BANKED_CODE, align 1, keep-with-next
   \                     ?Subroutine9:
   \   000000   85..82       MOV     DPL,?V0 + 0
   \   000003   F583         MOV     DPH,A
   \   000005                REQUIRE ??Subroutine126_0
   \   000005                ; // Fall through to label ??Subroutine126_0

   \                                 In  segment BANKED_CODE, align 1, keep-with-next
   \                     ??Subroutine126_0:
   \   000000   12....       LCALL   ?Subroutine81 & 0xFFFF
   \                     ??CrossCallReturnLabel_276:
   \   000003   AA82         MOV     R2,DPL
   \   000005   AB83         MOV     R3,DPH
   \   000007   22           RET

   \                                 In  segment BANKED_CODE, align 1, keep-with-next
   \                     ?Subroutine50:
   \   000000   90....       MOV     DPTR,#ZDP_TmpBuf
   \   000003                REQUIRE ??Subroutine132_0
   \   000003                ; // Fall through to label ??Subroutine132_0
    886          
    887          /*********************************************************************
    888           * @fn          ZDP_EPRsp
    889           *
    890           * @brief       This builds and send an endpoint list. Used in
    891           *              Active_EP_rsp and Match_Desc_Rsp
    892           *              message.  This function sends unicast message to the
    893           *              requesting device.
    894           *
    895           * @param       MsgType - either Active_EP_rsp or Match_Desc_Rsp
    896           * @param       dstAddr - destination address
    897           * @param       Status - message status (ZDP_SUCCESS or other)
    898           * @param       nwkAddr - Device's short address that this response describes
    899           * @param       Count - number of endpoint/interfaces in list
    900           * @param       pEPIntfList - Array of Endpoint/Interfaces
    901           * @param       SecurityEnable - Security Options
    902           *
    903           * @return      afStatus_t
    904           */

   \                                 In  segment BANKED_CODE, align 1, keep-with-next
    905          afStatus_t ZDP_EPRsp( uint16 MsgType, byte TransSeq, zAddrType_t *dstAddr,
   \                     ZDP_EPRsp:
    906                                  byte Status, uint16 nwkAddr, byte Count,
    907                                  uint8 *pEPList,
    908                                  byte SecurityEnable )
    909          {
   \   000000   74F0         MOV     A,#-0x10
   \   000002   12....       LCALL   ?BANKED_ENTER_XDATA
   \   000005                ; Saved register size: 16
   \   000005                ; Auto size: 1
   \   000005   74FF         MOV     A,#-0x1
   \   000007   12....       LCALL   ?ALLOC_XSTACK8
   \   00000A   E9           MOV     A,R1
   \   00000B   85..82       MOV     DPL,?XSP + 0
   \   00000E   85..83       MOV     DPH,?XSP + 1
   \   000011   F0           MOVX    @DPTR,A
   \   000012   EA           MOV     A,R2
   \   000013   FE           MOV     R6,A
   \   000014   EB           MOV     A,R3
   \   000015   FF           MOV     R7,A
   \   000016   8C..         MOV     ?V0 + 6,R4
   \   000018   8D..         MOV     ?V0 + 7,R5
   \   00001A   7411         MOV     A,#0x11
   \   00001C   12....       LCALL   ?XSTACK_DISP0_8
   \   00001F   E0           MOVX    A,@DPTR
   \   000020   F8           MOV     R0,A
   \   000021   7412         MOV     A,#0x12
   \   000023   12....       LCALL   ?XSTACK_DISP0_8
   \   000026   12....       LCALL   ?Subroutine41 & 0xFFFF
   \                     ??CrossCallReturnLabel_60:
   \   000029   7414         MOV     A,#0x14
   \   00002B   12....       LCALL   ?XSTACK_DISP0_8
   \   00002E   E0           MOVX    A,@DPTR
   \   00002F   F9           MOV     R1,A
   \   000030   7415         MOV     A,#0x15
   \   000032   12....       LCALL   ?XSTACK_DISP0_8
   \   000035   E0           MOVX    A,@DPTR
   \   000036   F5..         MOV     ?V0 + 0,A
   \   000038   A3           INC     DPTR
   \   000039   12....       LCALL   ?Subroutine36 & 0xFFFF
    910            uint8 *pBuf = ZDP_TmpBuf;
    911            byte len = 1 + 2 + 1;  // Status + nwkAddr + endpoint/interface count.
   \                     ??CrossCallReturnLabel_49:
   \   00003C   75..04       MOV     ?V0 + 4,#0x4
    912            byte txOptions;
    913          
    914            (void)SecurityEnable;  // Intentionally unreferenced parameter
    915          
    916            if ( MsgType == Match_Desc_rsp )
   \   00003F   7406         MOV     A,#0x6
   \   000041   6E           XRL     A,R6
   \   000042   7003         JNZ     ??ZDP_EPRsp_0
   \   000044   7480         MOV     A,#-0x80
   \   000046   6F           XRL     A,R7
   \                     ??ZDP_EPRsp_0:
   \   000047   7005         JNZ     ??ZDP_EPRsp_1
    917              txOptions = AF_MSG_ACK_REQUEST;
   \   000049   75..10       MOV     ?V0 + 3,#0x10
   \   00004C   8003         SJMP    ??ZDP_EPRsp_2
    918            else
    919              txOptions = 0;
   \                     ??ZDP_EPRsp_1:
   \   00004E   75..00       MOV     ?V0 + 3,#0x0
    920          
    921              *pBuf++ = Status;
   \                     ??ZDP_EPRsp_2:
   \   000051   E8           MOV     A,R0
   \   000052   8A82         MOV     DPL,R2
   \   000054   8B83         MOV     DPH,R3
   \   000056   12....       LCALL   ??Subroutine100_0 & 0xFFFF
    922            *pBuf++ = LO_UINT16( nwkAddr );
    923            *pBuf++ = HI_UINT16( nwkAddr );
   \                     ??CrossCallReturnLabel_136:
   \   000059   F0           MOVX    @DPTR,A
   \   00005A   A3           INC     DPTR
    924          
    925            *pBuf++ = Count;   // Endpoint/Interface count
   \   00005B   E9           MOV     A,R1
   \   00005C   12....       LCALL   ??Subroutine128_0 & 0xFFFF
    926          
    927            if ( Count )
   \                     ??CrossCallReturnLabel_279:
   \   00005F   6017         JZ      ??ZDP_EPRsp_3
    928            {
    929              len += Count;
   \   000061   7404         MOV     A,#0x4
   \   000063   29           ADD     A,R1
   \   000064   F5..         MOV     ?V0 + 4,A
    930              osal_memcpy( pBuf, pEPList, Count );
   \   000066                ; Setup parameters for call to function osal_memcpy
   \   000066   75..00       MOV     ?V0 + 2,#0x0
   \   000069   78..         MOV     R0,#?V0 + 0
   \   00006B   12....       LCALL   ?PUSH_XSTACK_I_THREE
   \   00006E   89..         MOV     ?V0 + 0,R1
   \   000070   AC..         MOV     R4,?V0 + 0
   \   000072   12....       LCALL   ?Subroutine88 & 0xFFFF
    931            }
   \                     ??CrossCallReturnLabel_296:
   \   000075   12....       LCALL   ?DEALLOC_XSTACK8
    932          
    933            FillAndSendTxOptions( &TransSeq, dstAddr, MsgType, len, txOptions );
   \                     ??ZDP_EPRsp_3:
   \   000078   E5..         MOV     A,?V0 + 3
   \   00007A   90....       MOV     DPTR,#ZDP_TxOptions
   \   00007D   F0           MOVX    @DPTR,A
   \   00007E                ; Setup parameters for call to function fillAndSend
   \   00007E   8E..         MOV     ?V0 + 0,R6
   \   000080   8F..         MOV     ?V0 + 1,R7
   \   000082   78..         MOV     R0,#?V0 + 0
   \   000084   12....       LCALL   ?PUSH_XSTACK_I_TWO
   \   000087   A9..         MOV     R1,?V0 + 4
   \   000089   AC..         MOV     R4,?V0 + 6
   \   00008B   AD..         MOV     R5,?V0 + 7
   \   00008D   7402         MOV     A,#0x2
   \   00008F   12....       LCALL   ?XSTACK_DISP0_8
   \   000092   12....       LCALL   ?Subroutine71 & 0xFFFF
   \                     ??CrossCallReturnLabel_142:
   \   000095   12....       LCALL   ?DEALLOC_XSTACK8
   \   000098   90....       MOV     DPTR,#ZDP_TxOptions
   \   00009B   E4           CLR     A
   \   00009C   F0           MOVX    @DPTR,A
   \   00009D   04           INC     A
   \   00009E   02....       LJMP    ??Subroutine112_0 & 0xFFFF
    934          }

   \                                 In  segment BANKED_CODE, align 1, keep-with-next
   \                     ?Subroutine71:
   \   000000   AA82         MOV     R2,DPL
   \   000002   AB83         MOV     R3,DPH
   \   000004                REQUIRE ??Subroutine103_0
   \   000004                ; // Fall through to label ??Subroutine103_0

   \                                 In  segment BANKED_CODE, align 1, keep-with-next
   \                     ?Subroutine36:
   \   000000   E0           MOVX    A,@DPTR
   \   000001   F5..         MOV     ?V0 + 1,A
   \   000003                ; Setup parameters for call to function sAddrExtCpy
   \   000003   90....       MOV     DPTR,#ZDP_TmpBuf
   \   000006   E0           MOVX    A,@DPTR
   \   000007   FA           MOV     R2,A
   \   000008   A3           INC     DPTR
   \   000009   E0           MOVX    A,@DPTR
   \   00000A   FB           MOV     R3,A
   \   00000B   22           RET

   \                                 In  segment BANKED_CODE, align 1, keep-with-next
   \                     ?Subroutine88:
   \   000000   7D00         MOV     R5,#0x0
   \   000002                REQUIRE ??Subroutine130_0
   \   000002                ; // Fall through to label ??Subroutine130_0
    935          
    936          /*********************************************************************
    937           * @fn          ZDP_UserDescRsp
    938           *
    939           * @brief       Build and send the User Decriptor Response.
    940           *
    941           *
    942           * @param       dstAddr - destination address
    943           * @param       nwkAddrOfInterest -
    944           * @param       userDesc -
    945           * @param       SecurityEnable - Security Options
    946           *
    947           * @return      ZStatus_t
    948           */

   \                                 In  segment BANKED_CODE, align 1, keep-with-next
    949          ZStatus_t ZDP_UserDescRsp( byte TransSeq, zAddrType_t *dstAddr,
   \                     ZDP_UserDescRsp:
    950                          uint16 nwkAddrOfInterest, UserDescriptorFormat_t *userDesc,
    951                          byte SecurityEnable )
    952          {
   \   000000   74F0         MOV     A,#-0x10
   \   000002   12....       LCALL   ?BANKED_ENTER_XDATA
   \   000005                ; Saved register size: 16
   \   000005                ; Auto size: 1
   \   000005   74FF         MOV     A,#-0x1
   \   000007   12....       LCALL   ?ALLOC_XSTACK8
   \   00000A   E9           MOV     A,R1
   \   00000B   85..82       MOV     DPL,?XSP + 0
   \   00000E   85..83       MOV     DPH,?XSP + 1
   \   000011   F0           MOVX    @DPTR,A
   \   000012   8A..         MOV     ?V0 + 6,R2
   \   000014   8B..         MOV     ?V0 + 7,R3
   \   000016   7411         MOV     A,#0x11
   \   000018   12....       LCALL   ?XSTACK_DISP0_8
   \   00001B   12....       LCALL   ?Subroutine18 & 0xFFFF
    953            uint8 *pBuf = ZDP_TmpBuf;
   \                     ??CrossCallReturnLabel_14:
   \   00001E   12....       LCALL   ?Subroutine50 & 0xFFFF
    954            byte len = 1 + 2 + 1;  // Status + nwkAddr + descriptor length.
    955          
    956            (void)SecurityEnable;  // Intentionally unreferenced parameter
    957          
    958            len += userDesc->len;
   \                     ??CrossCallReturnLabel_318:
   \   000021   85..82       MOV     DPL,?V0 + 4
   \   000024   85..83       MOV     DPH,?V0 + 5
   \   000027   E0           MOVX    A,@DPTR
   \   000028   2404         ADD     A,#0x4
   \   00002A   FF           MOV     R7,A
    959          
    960            *pBuf++ = ZSUCCESS;
   \   00002B   12....       LCALL   ?Subroutine60 & 0xFFFF
    961          
    962            *pBuf++ = LO_UINT16( nwkAddrOfInterest );
    963            *pBuf++ = HI_UINT16( nwkAddrOfInterest );
    964          
    965            *pBuf++ = userDesc->len;
   \                     ??CrossCallReturnLabel_278:
   \   00002E   85..82       MOV     DPL,?V0 + 4
   \   000031   85..83       MOV     DPH,?V0 + 5
   \   000034   12....       LCALL   ??Subroutine129_0 & 0xFFFF
    966            osal_memcpy( pBuf, userDesc->desc, userDesc->len );
   \                     ??CrossCallReturnLabel_286:
   \   000037                ; Setup parameters for call to function osal_memcpy
   \   000037   85..82       MOV     DPL,?V0 + 4
   \   00003A   85..83       MOV     DPH,?V0 + 5
   \   00003D   A3           INC     DPTR
   \   00003E   AC82         MOV     R4,DPL
   \   000040   AD83         MOV     R5,DPH
   \   000042   8C..         MOV     ?V0 + 0,R4
   \   000044   8D..         MOV     ?V0 + 1,R5
   \   000046   75..00       MOV     ?V0 + 2,#0x0
   \   000049   78..         MOV     R0,#?V0 + 0
   \   00004B   12....       LCALL   ?PUSH_XSTACK_I_THREE
   \   00004E   85..82       MOV     DPL,?V0 + 4
   \   000051   85..83       MOV     DPH,?V0 + 5
   \   000054   12....       LCALL   ?Subroutine27 & 0xFFFF
   \                     ??CrossCallReturnLabel_30:
   \   000057   12....       LCALL   ?DEALLOC_XSTACK8
    967          
    968            return (ZStatus_t)fillAndSend( &TransSeq, dstAddr, User_Desc_rsp, len );
   \   00005A                ; Setup parameters for call to function fillAndSend
   \   00005A   75..11       MOV     ?V0 + 0,#0x11
   \   00005D   75..80       MOV     ?V0 + 1,#-0x80
   \   000060   78..         MOV     R0,#?V0 + 0
   \   000062   12....       LCALL   ?PUSH_XSTACK_I_TWO
   \   000065   EF           MOV     A,R7
   \   000066   F9           MOV     R1,A
   \   000067   AC..         MOV     R4,?V0 + 6
   \   000069   AD..         MOV     R5,?V0 + 7
   \   00006B   7402         MOV     A,#0x2
   \   00006D   12....       LCALL   ?XSTACK_DISP0_8
   \   000070   12....       LCALL   ?Subroutine71 & 0xFFFF
   \                     ??CrossCallReturnLabel_143:
   \   000073   12....       LCALL   ?DEALLOC_XSTACK8
   \   000076   7401         MOV     A,#0x1
   \   000078   02....       LJMP    ??Subroutine112_0 & 0xFFFF
    969          }

   \                                 In  segment BANKED_CODE, align 1, keep-with-next
   \                     ?Subroutine27:
   \   000000   E0           MOVX    A,@DPTR
   \   000001   FC           MOV     R4,A
   \   000002   12....       LCALL   ?Subroutine88 & 0xFFFF
   \                     ??CrossCallReturnLabel_297:
   \   000005   22           RET
    970          
    971          /*********************************************************************
    972           * @fn          ZDP_ServerDiscRsp
    973           *
    974           * @brief       Build and send the Server_Discovery_rsp response.
    975           *
    976           * @param       transID - Transaction sequence number of request.
    977           * @param       dstAddr - Network Destination Address.
    978           * @param       status - Status of response to request.
    979           * @param       aoi - Network Address of Interest of request.
    980           * @param       serverMask - Bit map of service(s) being sought.
    981           * @param       SecurityEnable - Security Options
    982           *
    983           * @return      ZStatus_t
    984           */

   \                                 In  segment BANKED_CODE, align 1, keep-with-next
    985          ZStatus_t ZDP_ServerDiscRsp( byte transID, zAddrType_t *dstAddr, byte status,
   \                     ZDP_ServerDiscRsp:
    986                                     uint16 aoi, uint16 serverMask, byte SecurityEnable )
    987          {
   \   000000   74F6         MOV     A,#-0xa
   \   000002   12....       LCALL   ?BANKED_ENTER_XDATA
   \   000005                ; Saved register size: 10
   \   000005                ; Auto size: 1
   \   000005   74FF         MOV     A,#-0x1
   \   000007   12....       LCALL   ?ALLOC_XSTACK8
   \   00000A   E9           MOV     A,R1
   \   00000B   85..82       MOV     DPL,?XSP + 0
   \   00000E   85..83       MOV     DPH,?XSP + 1
   \   000011   F0           MOVX    @DPTR,A
   \   000012   EC           MOV     A,R4
   \   000013   FE           MOV     R6,A
   \   000014   740D         MOV     A,#0xd
   \   000016   12....       LCALL   ?XSTACK_DISP0_8
   \   000019   12....       LCALL   ?Subroutine43 & 0xFFFF
    988            const byte len = 1  + 2;  // status + aoi + mask.
    989            uint8 *pBuf = ZDP_TmpBuf;
   \                     ??CrossCallReturnLabel_67:
   \   00001C   12....       LCALL   ?Subroutine41 & 0xFFFF
   \                     ??CrossCallReturnLabel_61:
   \   00001F   8C82         MOV     DPL,R4
   \   000021   8D83         MOV     DPH,R5
    990            ZStatus_t stat;
    991          
    992            // Intentionally unreferenced parameters
    993            (void)aoi;
    994            (void)SecurityEnable;
    995          
    996            *pBuf++ = status;
   \   000023   EE           MOV     A,R6
   \   000024   F0           MOVX    @DPTR,A
   \   000025   A3           INC     DPTR
    997          
    998            *pBuf++ = LO_UINT16( serverMask );
   \   000026   12....       LCALL   ??Subroutine131_0 & 0xFFFF
    999            *pBuf++ = HI_UINT16( serverMask );
   1000          
   1001            ZDP_TxOptions = AF_MSG_ACK_REQUEST;
   \                     ??CrossCallReturnLabel_300:
   \   000029   90....       MOV     DPTR,#ZDP_TxOptions
   \   00002C   7410         MOV     A,#0x10
   \   00002E   F0           MOVX    @DPTR,A
   1002            stat = fillAndSend( &transID, dstAddr, Server_Discovery_rsp, len );
   \   00002F                ; Setup parameters for call to function fillAndSend
   \   00002F   75..15       MOV     ?V0 + 0,#0x15
   \   000032   75..80       MOV     ?V0 + 1,#-0x80
   \   000035   78..         MOV     R0,#?V0 + 0
   \   000037   12....       LCALL   ?PUSH_XSTACK_I_TWO
   \   00003A   7903         MOV     R1,#0x3
   \   00003C   EA           MOV     A,R2
   \   00003D   FC           MOV     R4,A
   \   00003E   EB           MOV     A,R3
   \   00003F   FD           MOV     R5,A
   \   000040   7402         MOV     A,#0x2
   \   000042   12....       LCALL   ?XSTACK_DISP0_8
   \   000045   12....       LCALL   ?Subroutine71 & 0xFFFF
   \                     ??CrossCallReturnLabel_144:
   \   000048   12....       LCALL   ?DEALLOC_XSTACK8
   1003            ZDP_TxOptions = AF_TX_OPTIONS_NONE;
   \   00004B   90....       MOV     DPTR,#ZDP_TxOptions
   \   00004E   E4           CLR     A
   \   00004F   F0           MOVX    @DPTR,A
   1004          
   1005            return ( stat );
   \   000050   04           INC     A
   \   000051   02....       LJMP    ??Subroutine97_0 & 0xFFFF
   1006          }
   1007          
   1008          /*********************************************************************
   1009           * @fn          ZDP_GenericRsp
   1010           *
   1011           * @brief       Sends a response message with only the parameter status
   1012           *              byte and the addr of interest for data.
   1013           *              This function sends unicast message to the
   1014           *              requesting device.
   1015           *
   1016           * @param       dstAddr - destination address
   1017           * @param       status  - generic status for response
   1018           * @param       aoi     - address of interest
   1019           * @param       dstAddr - destination address
   1020           * @param       rspId   - response cluster ID
   1021           * @param       SecurityEnable - Security Options
   1022           *
   1023           * @return      afStatus_t
   1024           */

   \                                 In  segment BANKED_CODE, align 1, keep-with-next
   1025          afStatus_t ZDP_GenericRsp( byte TransSeq, zAddrType_t *dstAddr,
   \                     ZDP_GenericRsp:
   1026                               byte status, uint16 aoi, uint16 rspID, byte SecurityEnable )
   1027          {
   \   000000   74F6         MOV     A,#-0xa
   \   000002   12....       LCALL   ?BANKED_ENTER_XDATA
   \   000005                ; Saved register size: 10
   \   000005                ; Auto size: 1
   \   000005   74FF         MOV     A,#-0x1
   \   000007   12....       LCALL   ?ALLOC_XSTACK8
   \   00000A   E9           MOV     A,R1
   \   00000B   85..82       MOV     DPL,?XSP + 0
   \   00000E   85..83       MOV     DPH,?XSP + 1
   \   000011   F0           MOVX    @DPTR,A
   \   000012   EC           MOV     A,R4
   \   000013   FE           MOV     R6,A
   \   000014   740B         MOV     A,#0xb
   \   000016   12....       LCALL   ?XSTACK_DISP0_8
   \   000019   12....       LCALL   ??Subroutine106_0 & 0xFFFF
   \                     ??CrossCallReturnLabel_164:
   \   00001C   740D         MOV     A,#0xd
   \   00001E   12....       LCALL   ?XSTACK_DISP0_8
   \   000021   12....       LCALL   ??Subroutine108_0 & 0xFFFF
   1028            uint8 len;
   1029          
   1030            (void)SecurityEnable;  // Intentionally unreferenced parameter
   1031          
   1032            ZDP_TmpBuf[0] = status;
   \                     ??CrossCallReturnLabel_182:
   \   000024   12....       LCALL   ?Subroutine42 & 0xFFFF
   \                     ??CrossCallReturnLabel_177:
   \   000027   EE           MOV     A,R6
   \   000028   F0           MOVX    @DPTR,A
   1033            ZDP_TmpBuf[1] = LO_UINT16( aoi );
   \   000029   12....       LCALL   ?Subroutine42 & 0xFFFF
   \                     ??CrossCallReturnLabel_178:
   \   00002C   A3           INC     DPTR
   \   00002D   E8           MOV     A,R0
   \   00002E   F0           MOVX    @DPTR,A
   1034            ZDP_TmpBuf[2] = HI_UINT16( aoi );
   \   00002F   12....       LCALL   ?Subroutine32 & 0xFFFF
   1035          
   1036            // Length byte
   1037            ZDP_TmpBuf[3] = 0;
   \                     ??CrossCallReturnLabel_43:
   \   000032   12....       LCALL   ??Subroutine99_0 & 0xFFFF
   \                     ??CrossCallReturnLabel_129:
   \   000035   A3           INC     DPTR
   \   000036   A3           INC     DPTR
   \   000037   E4           CLR     A
   \   000038   F0           MOVX    @DPTR,A
   1038            len = 4;
   1039          
   1040            return fillAndSend( &TransSeq, dstAddr, rspID, len );
   \   000039                ; Setup parameters for call to function fillAndSend
   \   000039   78..         MOV     R0,#?V0 + 0
   \   00003B   12....       LCALL   ?PUSH_XSTACK_I_TWO
   \   00003E   7904         MOV     R1,#0x4
   \   000040   EA           MOV     A,R2
   \   000041   FC           MOV     R4,A
   \   000042   EB           MOV     A,R3
   \   000043   FD           MOV     R5,A
   \   000044   7402         MOV     A,#0x2
   \   000046   12....       LCALL   ?XSTACK_DISP0_8
   \   000049   12....       LCALL   ?Subroutine71 & 0xFFFF
   \                     ??CrossCallReturnLabel_145:
   \   00004C   12....       LCALL   ?DEALLOC_XSTACK8
   \   00004F   7401         MOV     A,#0x1
   \   000051   02....       LJMP    ??Subroutine97_0 & 0xFFFF
   1041          }

   \                                 In  segment BANKED_CODE, align 1, keep-with-next
   \                     ?Subroutine42:
   \   000000   90....       MOV     DPTR,#ZDP_TmpBuf
   \   000003                REQUIRE ??Subroutine107_0
   \   000003                ; // Fall through to label ??Subroutine107_0
   1042          
   1043          /*********************************************************************
   1044           * Binding
   1045           */
   1046          /*********************************************************************
   1047           * @fn          ZDP_EndDeviceBindReq
   1048           *
   1049           * @brief       This builds and sends a End_Device_Bind_req message.
   1050           *              This function sends a unicast message.
   1051           *
   1052           * @param       dstAddr - destination address
   1053           * @param       LocalCoordinator - short address of local coordinator
   1054           * @param       epIntf - Endpoint/Interface of Simple Desc
   1055           * @param       ProfileID - Profile ID
   1056           *
   1057           *   The Input cluster list is the opposite of what you would think.
   1058           *   This is the output cluster list of this device
   1059           * @param       NumInClusters - number of input clusters
   1060           * @param       InClusterList - input cluster ID list
   1061           *
   1062           *   The Output cluster list is the opposite of what you would think.
   1063           *   This is the input cluster list of this device
   1064           * @param       NumOutClusters - number of output clusters
   1065           * @param       OutClusterList - output cluster ID list
   1066           *
   1067           * @param       SecurityEnable - Security Options
   1068           *
   1069           * @return      afStatus_t
   1070           */

   \                                 In  segment BANKED_CODE, align 1, keep-with-next
   1071          afStatus_t ZDP_EndDeviceBindReq( zAddrType_t *dstAddr,
   \                     ZDP_EndDeviceBindReq:
   1072                                           uint16 LocalCoordinator,
   1073                                           byte endPoint,
   1074                                           uint16 ProfileID,
   1075                                           byte NumInClusters, cId_t *InClusterList,
   1076                                           byte NumOutClusters, cId_t *OutClusterList,
   1077                                           byte SecurityEnable )
   1078          {
   \   000000   74F0         MOV     A,#-0x10
   \   000002   12....       LCALL   ?BANKED_ENTER_XDATA
   \   000005                ; Saved register size: 16
   \   000005                ; Auto size: 4
   \   000005   74FC         MOV     A,#-0x4
   \   000007   12....       LCALL   ?ALLOC_XSTACK8
   \   00000A   7402         MOV     A,#0x2
   \   00000C   12....       LCALL   ?XSTACK_DISP0_8
   \   00000F   12....       LCALL   ??Subroutine119_0 & 0xFFFF
   \                     ??CrossCallReturnLabel_239:
   \   000012   7401         MOV     A,#0x1
   \   000014   12....       LCALL   ?XSTACK_DISP0_8
   \   000017   E9           MOV     A,R1
   \   000018   F0           MOVX    @DPTR,A
   \   000019   EC           MOV     A,R4
   \   00001A   FE           MOV     R6,A
   \   00001B   ED           MOV     A,R5
   \   00001C   FF           MOV     R7,A
   \   00001D   7414         MOV     A,#0x14
   \   00001F   12....       LCALL   ?XSTACK_DISP0_8
   \   000022   12....       LCALL   ??Subroutine108_0 & 0xFFFF
   \                     ??CrossCallReturnLabel_183:
   \   000025   7416         MOV     A,#0x16
   \   000027   12....       LCALL   ?XSTACK_DISP0_8
   \   00002A   E0           MOVX    A,@DPTR
   \   00002B   F5..         MOV     ?V0 + 6,A
   \   00002D   7419         MOV     A,#0x19
   \   00002F   12....       LCALL   ?XSTACK_DISP0_8
   \   000032   12....       LCALL   ?Subroutine38 & 0xFFFF
   1079            uint8 *pBuf = ZDP_TmpBuf;
   \                     ??CrossCallReturnLabel_52:
   \   000035   F5..         MOV     ?V0 + 2,A
   \   000037   A3           INC     DPTR
   \   000038   E0           MOVX    A,@DPTR
   \   000039   F5..         MOV     ?V0 + 3,A
   1080            uint8 i, len;
   1081            uint8 *ieeeAddr;
   1082          
   1083            (void)SecurityEnable;  // Intentionally unreferenced parameter
   1084          
   1085            // LocalCoordinator + SrcExtAddr + ep + ProfileID +  NumInClusters + NumOutClusters.
   1086            len = 2 + Z_EXTADDR_LEN + 1 + 2 + 1 + 1;
   1087            len += (NumInClusters + NumOutClusters) * sizeof ( uint16 );
   \   00003B   E5..         MOV     A,?V0 + 6
   \   00003D   25..         ADD     A,?V0 + 7
   \   00003F   C3           CLR     C
   \   000040   33           RLC     A
   \   000041   240F         ADD     A,#0xf
   \   000043   85..82       MOV     DPL,?XSP + 0
   \   000046   85..83       MOV     DPH,?XSP + 1
   \   000049   F0           MOVX    @DPTR,A
   1088          
   1089            if ( len >= ZDP_BUF_SZ-1 )
   \   00004A   C3           CLR     C
   \   00004B   944F         SUBB    A,#0x4f
   \   00004D   4005         JC      ??ZDP_EndDeviceBindReq_0
   1090            {
   1091              return afStatus_MEM_FAIL;
   \   00004F   7910         MOV     R1,#0x10
   \   000051   02....       LJMP    ??ZDP_EndDeviceBindReq_1 & 0xFFFF
   1092            }
   1093          
   1094            if ( LocalCoordinator != NLME_GetShortAddr() )
   \                     ??ZDP_EndDeviceBindReq_0:
   \   000054                ; Setup parameters for call to function NLME_GetShortAddr
   \   000054   12....       LCALL   ??NLME_GetShortAddr?relay
   \   000057   EA           MOV     A,R2
   \   000058   6E           XRL     A,R6
   \   000059   7002         JNZ     ??ZDP_EndDeviceBindReq_2
   \   00005B   EB           MOV     A,R3
   \   00005C   6F           XRL     A,R7
   \                     ??ZDP_EndDeviceBindReq_2:
   \   00005D   6005         JZ      ??ZDP_EndDeviceBindReq_3
   1095            {
   1096              return afStatus_INVALID_PARAMETER;
   \   00005F   7902         MOV     R1,#0x2
   \   000061   02....       LJMP    ??ZDP_EndDeviceBindReq_1 & 0xFFFF
   1097            }
   1098          
   1099            *pBuf++ = LO_UINT16( LocalCoordinator );
   \                     ??ZDP_EndDeviceBindReq_3:
   \   000064   EE           MOV     A,R6
   \   000065   85..82       MOV     DPL,?V0 + 2
   \   000068   85..83       MOV     DPH,?V0 + 3
   \   00006B   F0           MOVX    @DPTR,A
   \   00006C   A3           INC     DPTR
   1100            *pBuf++ = HI_UINT16( LocalCoordinator );
   \   00006D   EF           MOV     A,R7
   \   00006E   12....       LCALL   ?Subroutine70 & 0xFFFF
   1101          
   1102            ieeeAddr = NLME_GetExtAddr();
   1103            pBuf = osal_cpyExtAddr( pBuf, ieeeAddr );
   \                     ??CrossCallReturnLabel_114:
   \   000071                ; Setup parameters for call to function sAddrExtCpy
   \   000071                ; Setup parameters for call to function NLME_GetExtAddr
   \   000071   12....       LCALL   ??NLME_GetExtAddr?relay
   \   000074   EA           MOV     A,R2
   \   000075   FC           MOV     R4,A
   \   000076   EB           MOV     A,R3
   \   000077   FD           MOV     R5,A
   \   000078   AA..         MOV     R2,?V0 + 2
   \   00007A   AB..         MOV     R3,?V0 + 3
   \   00007C   12....       LCALL   ??sAddrExtCpy?relay
   1104          
   1105            *pBuf++ = endPoint;
   \   00007F   7401         MOV     A,#0x1
   \   000081   12....       LCALL   ?XSTACK_DISP0_8
   \   000084   12....       LCALL   ??Subroutine125_0 & 0xFFFF
   1106          
   1107            *pBuf++ = LO_UINT16( ProfileID );   // Profile ID
   \                     ??CrossCallReturnLabel_264:
   \   000087   E5..         MOV     A,?V0 + 0
   \   000089   F0           MOVX    @DPTR,A
   \   00008A   A3           INC     DPTR
   1108            *pBuf++ = HI_UINT16( ProfileID );
   \   00008B   E5..         MOV     A,?V0 + 1
   \   00008D   F0           MOVX    @DPTR,A
   \   00008E   A3           INC     DPTR
   1109          
   1110            *pBuf++ = NumInClusters; // Input cluster list
   \   00008F   E5..         MOV     A,?V0 + 6
   \   000091   12....       LCALL   ?Subroutine70 & 0xFFFF
   1111            for ( i = 0; i < NumInClusters; ++i )
   \                     ??CrossCallReturnLabel_115:
   \   000094   7C00         MOV     R4,#0x0
   \   000096   8029         SJMP    ??ZDP_EndDeviceBindReq_4
   1112            {
   1113              *pBuf++ = LO_UINT16(InClusterList[i]);
   \                     ??ZDP_EndDeviceBindReq_5:
   \   000098   EC           MOV     A,R4
   \   000099   C3           CLR     C
   \   00009A   33           RLC     A
   \   00009B   FA           MOV     R2,A
   \   00009C   E4           CLR     A
   \   00009D   33           RLC     A
   \   00009E   FB           MOV     R3,A
   \   00009F   7417         MOV     A,#0x17
   \   0000A1   12....       LCALL   ?XSTACK_DISP0_8
   \   0000A4   E0           MOVX    A,@DPTR
   \   0000A5   2A           ADD     A,R2
   \   0000A6   FA           MOV     R2,A
   \   0000A7   A3           INC     DPTR
   \   0000A8   E0           MOVX    A,@DPTR
   \   0000A9   3B           ADDC    A,R3
   \   0000AA   FB           MOV     R3,A
   \   0000AB   8A82         MOV     DPL,R2
   \   0000AD   8B83         MOV     DPH,R3
   \   0000AF   12....       LCALL   ?Subroutine56 & 0xFFFF
   1114              *pBuf++ = HI_UINT16(InClusterList[i]);
   \                     ??CrossCallReturnLabel_90:
   \   0000B2   8A82         MOV     DPL,R2
   \   0000B4   8B83         MOV     DPH,R3
   \   0000B6   A3           INC     DPTR
   \   0000B7   12....       LCALL   ?Subroutine44 & 0xFFFF
   1115            }
   \                     ??CrossCallReturnLabel_69:
   \   0000BA   8582..       MOV     ?V0 + 2,DPL
   \   0000BD   8583..       MOV     ?V0 + 3,DPH
   \   0000C0   0C           INC     R4
   \                     ??ZDP_EndDeviceBindReq_4:
   \   0000C1   85..82       MOV     DPL,?V0 + 2
   \   0000C4   85..83       MOV     DPH,?V0 + 3
   \   0000C7   A3           INC     DPTR
   \   0000C8   A882         MOV     R0,DPL
   \   0000CA   A983         MOV     R1,DPH
   \   0000CC   EC           MOV     A,R4
   \   0000CD   C3           CLR     C
   \   0000CE   95..         SUBB    A,?V0 + 6
   \   0000D0   40C6         JC      ??ZDP_EndDeviceBindReq_5
   1116          
   1117            *pBuf++ = NumOutClusters; // Output cluster list
   \   0000D2   85..82       MOV     DPL,?V0 + 2
   \   0000D5   85..83       MOV     DPH,?V0 + 3
   \   0000D8   E5..         MOV     A,?V0 + 7
   \   0000DA   F0           MOVX    @DPTR,A
   \   0000DB   88..         MOV     ?V0 + 2,R0
   \   0000DD   89..         MOV     ?V0 + 3,R1
   1118            for ( i = 0; i < NumOutClusters; ++i )
   \   0000DF   7C00         MOV     R4,#0x0
   \   0000E1   8023         SJMP    ??ZDP_EndDeviceBindReq_6
   1119            {
   1120              *pBuf++ = LO_UINT16(OutClusterList[i]);
   \                     ??ZDP_EndDeviceBindReq_7:
   \   0000E3   EC           MOV     A,R4
   \   0000E4   C3           CLR     C
   \   0000E5   33           RLC     A
   \   0000E6   F8           MOV     R0,A
   \   0000E7   E4           CLR     A
   \   0000E8   33           RLC     A
   \   0000E9   F9           MOV     R1,A
   \   0000EA   741A         MOV     A,#0x1a
   \   0000EC   12....       LCALL   ?XSTACK_DISP0_8
   \   0000EF   E0           MOVX    A,@DPTR
   \   0000F0   28           ADD     A,R0
   \   0000F1   F8           MOV     R0,A
   \   0000F2   A3           INC     DPTR
   \   0000F3   E0           MOVX    A,@DPTR
   \   0000F4   39           ADDC    A,R1
   \   0000F5   F9           MOV     R1,A
   \   0000F6   8882         MOV     DPL,R0
   \   0000F8   8983         MOV     DPH,R1
   \   0000FA   12....       LCALL   ?Subroutine26 & 0xFFFF
   1121              *pBuf++ = HI_UINT16(OutClusterList[i]);
   \                     ??CrossCallReturnLabel_28:
   \   0000FD   8882         MOV     DPL,R0
   \   0000FF   8983         MOV     DPH,R1
   \   000101   A3           INC     DPTR
   \   000102   12....       LCALL   ?Subroutine26 & 0xFFFF
   1122            }
   \                     ??CrossCallReturnLabel_29:
   \   000105   0C           INC     R4
   \                     ??ZDP_EndDeviceBindReq_6:
   \   000106   EC           MOV     A,R4
   \   000107   C3           CLR     C
   \   000108   95..         SUBB    A,?V0 + 7
   \   00010A   40D7         JC      ??ZDP_EndDeviceBindReq_7
   1123          
   1124            return fillAndSend( &ZDP_TransID, dstAddr, End_Device_Bind_req, len );
   \   00010C                ; Setup parameters for call to function fillAndSend
   \   00010C   75..20       MOV     ?V0 + 0,#0x20
   \   00010F   75..00       MOV     ?V0 + 1,#0x0
   \   000112   78..         MOV     R0,#?V0 + 0
   \   000114   12....       LCALL   ?PUSH_XSTACK_I_TWO
   \   000117   7402         MOV     A,#0x2
   \   000119   12....       LCALL   ?XSTACK_DISP0_8
   \   00011C   E0           MOVX    A,@DPTR
   \   00011D   F9           MOV     R1,A
   \   00011E   7404         MOV     A,#0x4
   \   000120   12....       LCALL   ?XSTACK_DISP0_8
   \   000123   12....       LCALL   ?Subroutine10 & 0xFFFF
   \                     ??CrossCallReturnLabel_1:
   \   000126   12....       LCALL   ?DEALLOC_XSTACK8
   \                     ??ZDP_EndDeviceBindReq_1:
   \   000129                REQUIRE ?Subroutine7
   \   000129                ; // Fall through to label ?Subroutine7
   1125          }

   \                                 In  segment BANKED_CODE, align 1, keep-with-next
   \                     ?Subroutine7:
   \   000000   7404         MOV     A,#0x4
   \   000002   02....       LJMP    ??Subroutine112_0 & 0xFFFF

   \                                 In  segment BANKED_CODE, align 1, keep-with-next
   \                     ?Subroutine70:
   \   000000   F0           MOVX    @DPTR,A
   \   000001   A3           INC     DPTR
   \   000002   8582..       MOV     ?V0 + 2,DPL
   \   000005   8583..       MOV     ?V0 + 3,DPH
   \   000008   22           RET

   \                                 In  segment BANKED_CODE, align 1, keep-with-next
   \                     ?Subroutine26:
   \   000000   12....       LCALL   ?Subroutine84 & 0xFFFF
   \                     ??CrossCallReturnLabel_120:
   \   000003   A3           INC     DPTR
   \   000004   8582..       MOV     ?V0 + 2,DPL
   \   000007   8583..       MOV     ?V0 + 3,DPH
   \   00000A   22           RET

   \                                 In  segment BANKED_CODE, align 1, keep-with-next
   \                     ?Subroutine44:
   \   000000   12....       LCALL   ?Subroutine93 & 0xFFFF
   \                     ??CrossCallReturnLabel_261:
   \   000003   22           RET
   1126          
   1127          /*********************************************************************
   1128           * @fn          ZDP_BindUnbindReq
   1129           *
   1130           * @brief       This builds and send a Bind_req or Unbind_req message
   1131           *              Depending on the ClusterID. This function
   1132           *              sends a unicast message to the local coordinator.
   1133           *
   1134           * @param       BindOrUnbind - either Bind_req or Unbind_req
   1135           * @param       dstAddr - destination address of the message
   1136           * @param       SourceAddr - source 64 bit address of the binding
   1137           * @param       SrcEPIntf - Source endpoint/interface
   1138           * @param       ClusterID - Binding cluster ID
   1139           * @param       DestinationAddr - destination 64 bit addr of binding
   1140           * @param       DstEPIntf - destination endpoint/interface
   1141           * @param       SecurityEnable - Security Options
   1142           *
   1143           * @return      afStatus_t
   1144           */

   \                                 In  segment BANKED_CODE, align 1, keep-with-next
   1145          afStatus_t ZDP_BindUnbindReq( uint16 BindOrUnbind, zAddrType_t *dstAddr,
   \                     ZDP_BindUnbindReq:
   1146                                        uint8 *SourceAddr, byte SrcEndPoint,
   1147                                        cId_t ClusterID,
   1148                                        zAddrType_t *destinationAddr, byte DstEndPoint,
   1149                                        byte SecurityEnable )
   1150          {
   \   000000   74F0         MOV     A,#-0x10
   \   000002   12....       LCALL   ?BANKED_ENTER_XDATA
   \   000005                ; Saved register size: 16
   \   000005                ; Auto size: 3
   \   000005   74FD         MOV     A,#-0x3
   \   000007   12....       LCALL   ?ALLOC_XSTACK8
   \   00000A   7401         MOV     A,#0x1
   \   00000C   12....       LCALL   ?XSTACK_DISP0_8
   \   00000F   EC           MOV     A,R4
   \   000010   F0           MOVX    @DPTR,A
   \   000011   A3           INC     DPTR
   \   000012   ED           MOV     A,R5
   \   000013   F0           MOVX    @DPTR,A
   \   000014   E9           MOV     A,R1
   \   000015   85..82       MOV     DPL,?XSP + 0
   \   000018   85..83       MOV     DPH,?XSP + 1
   \   00001B   F0           MOVX    @DPTR,A
   \   00001C   8A..         MOV     ?V0 + 0,R2
   \   00001E   8B..         MOV     ?V0 + 1,R3
   \   000020   7413         MOV     A,#0x13
   \   000022   12....       LCALL   ?XSTACK_DISP0_8
   \   000025   12....       LCALL   ?Subroutine41 & 0xFFFF
   \                     ??CrossCallReturnLabel_62:
   \   000028   7415         MOV     A,#0x15
   \   00002A   12....       LCALL   ?XSTACK_DISP0_8
   \   00002D   12....       LCALL   ??Subroutine111_0 & 0xFFFF
   \                     ??CrossCallReturnLabel_199:
   \   000030   7417         MOV     A,#0x17
   \   000032   12....       LCALL   ?XSTACK_DISP0_8
   \   000035   E0           MOVX    A,@DPTR
   \   000036   F5..         MOV     ?V0 + 2,A
   \   000038   A3           INC     DPTR
   \   000039   E0           MOVX    A,@DPTR
   \   00003A   F5..         MOV     ?V0 + 3,A
   \   00003C   7419         MOV     A,#0x19
   \   00003E   12....       LCALL   ?XSTACK_DISP0_8
   \   000041   12....       LCALL   ?Subroutine38 & 0xFFFF
   1151            uint8 *pBuf = ZDP_TmpBuf;
   \                     ??CrossCallReturnLabel_53:
   \   000044   FA           MOV     R2,A
   \   000045   A3           INC     DPTR
   \   000046   E0           MOVX    A,@DPTR
   \   000047   FB           MOV     R3,A
   1152            byte len;
   1153          
   1154            (void)SecurityEnable;  // Intentionally unreferenced parameter
   1155          
   1156            // SourceAddr + SrcEPIntf + ClusterID +  addrMode.
   1157            len = Z_EXTADDR_LEN + 1 + sizeof( cId_t ) + sizeof( uint8 );
   \   000048   75..0C       MOV     ?V0 + 6,#0xc
   \   00004B   85..82       MOV     DPL,?V0 + 2
   \   00004E   85..83       MOV     DPH,?V0 + 3
   \   000051   A3           INC     DPTR
   \   000052   A3           INC     DPTR
   \   000053   A3           INC     DPTR
   \   000054   A3           INC     DPTR
   \   000055   A3           INC     DPTR
   \   000056   A3           INC     DPTR
   \   000057   A3           INC     DPTR
   \   000058   A3           INC     DPTR
   \   000059   E0           MOVX    A,@DPTR
   \   00005A   F8           MOV     R0,A
   \   00005B   7403         MOV     A,#0x3
   \   00005D   68           XRL     A,R0
   \   00005E   7005         JNZ     ??ZDP_BindUnbindReq_0
   1158            if ( destinationAddr->addrMode == Addr64Bit )
   1159              len += Z_EXTADDR_LEN + 1;     // +1 for DstEPIntf
   \   000060   75..15       MOV     ?V0 + 6,#0x15
   \   000063   8008         SJMP    ??ZDP_BindUnbindReq_1
   1160            else if ( destinationAddr->addrMode == AddrGroup )
   \                     ??ZDP_BindUnbindReq_0:
   \   000065   7401         MOV     A,#0x1
   \   000067   68           XRL     A,R0
   \   000068   7003         JNZ     ??ZDP_BindUnbindReq_1
   1161              len += sizeof ( uint16 );
   \   00006A   75..0E       MOV     ?V0 + 6,#0xe
   1162          
   1163            pBuf = osal_cpyExtAddr( pBuf, SourceAddr );
   \                     ??ZDP_BindUnbindReq_1:
   \   00006D                ; Setup parameters for call to function sAddrExtCpy
   \   00006D   12....       LCALL   ??sAddrExtCpy?relay
   1164            *pBuf++ = SrcEndPoint;
   \   000070   12....       LCALL   ?Subroutine47 & 0xFFFF
   1165          
   1166            *pBuf++ = LO_UINT16( ClusterID );
   \                     ??CrossCallReturnLabel_266:
   \   000073   EE           MOV     A,R6
   \   000074   F0           MOVX    @DPTR,A
   \   000075   A3           INC     DPTR
   1167          
   1168            *pBuf++ = HI_UINT16( ClusterID );
   \   000076   EF           MOV     A,R7
   \   000077   12....       LCALL   ??Subroutine128_0 & 0xFFFF
   1169            *pBuf++ = destinationAddr->addrMode;
   \                     ??CrossCallReturnLabel_280:
   \   00007A   85..82       MOV     DPL,?V0 + 2
   \   00007D   85..83       MOV     DPH,?V0 + 3
   \   000080   A3           INC     DPTR
   \   000081   A3           INC     DPTR
   \   000082   A3           INC     DPTR
   \   000083   A3           INC     DPTR
   \   000084   A3           INC     DPTR
   \   000085   A3           INC     DPTR
   \   000086   A3           INC     DPTR
   \   000087   A3           INC     DPTR
   \   000088   12....       LCALL   ?Subroutine23 & 0xFFFF
   1170            if ( destinationAddr->addrMode == Addr64Bit )
   \                     ??CrossCallReturnLabel_22:
   \   00008B   A3           INC     DPTR
   \   00008C   A3           INC     DPTR
   \   00008D   A3           INC     DPTR
   \   00008E   A3           INC     DPTR
   \   00008F   A3           INC     DPTR
   \   000090   A3           INC     DPTR
   \   000091   A3           INC     DPTR
   \   000092   E0           MOVX    A,@DPTR
   \   000093   F8           MOV     R0,A
   \   000094   7403         MOV     A,#0x3
   \   000096   68           XRL     A,R0
   \   000097   700F         JNZ     ??ZDP_BindUnbindReq_2
   1171            {
   1172              pBuf = osal_cpyExtAddr( pBuf, destinationAddr->addr.extAddr );
   1173              *pBuf = DstEndPoint;
   \   000099                ; Setup parameters for call to function sAddrExtCpy
   \   000099   AC..         MOV     R4,?V0 + 2
   \   00009B   AD..         MOV     R5,?V0 + 3
   \   00009D   12....       LCALL   ??sAddrExtCpy?relay
   \   0000A0   8A82         MOV     DPL,R2
   \   0000A2   8B83         MOV     DPH,R3
   \   0000A4   E5..         MOV     A,?V0 + 7
   \   0000A6   8013         SJMP    ??ZDP_BindUnbindReq_3
   1174            }
   1175            else if ( destinationAddr->addrMode == AddrGroup )
   \                     ??ZDP_BindUnbindReq_2:
   \   0000A8   7401         MOV     A,#0x1
   \   0000AA   68           XRL     A,R0
   \   0000AB   700F         JNZ     ??ZDP_BindUnbindReq_4
   1176            {
   1177              *pBuf++ = LO_UINT16( destinationAddr->addr.shortAddr );
   \   0000AD   85..82       MOV     DPL,?V0 + 2
   \   0000B0   85..83       MOV     DPH,?V0 + 3
   \   0000B3   12....       LCALL   ?Subroutine23 & 0xFFFF
   1178              *pBuf++ = HI_UINT16( destinationAddr->addr.shortAddr );
   1179            }
   \                     ??CrossCallReturnLabel_23:
   \   0000B6   E0           MOVX    A,@DPTR
   \   0000B7   8A82         MOV     DPL,R2
   \   0000B9   8B83         MOV     DPH,R3
   \                     ??ZDP_BindUnbindReq_3:
   \   0000BB   F0           MOVX    @DPTR,A
   1180          
   1181            FillAndSendTxOptions( &ZDP_TransID, dstAddr, BindOrUnbind, len, AF_MSG_ACK_REQUEST );
   \                     ??ZDP_BindUnbindReq_4:
   \   0000BC   90....       MOV     DPTR,#ZDP_TxOptions
   \   0000BF   7410         MOV     A,#0x10
   \   0000C1   F0           MOVX    @DPTR,A
   \   0000C2                ; Setup parameters for call to function fillAndSend
   \   0000C2   78..         MOV     R0,#?V0 + 0
   \   0000C4   12....       LCALL   ?PUSH_XSTACK_I_TWO
   \   0000C7   A9..         MOV     R1,?V0 + 6
   \   0000C9   7403         MOV     A,#0x3
   \   0000CB   12....       LCALL   ?XSTACK_DISP0_8
   \   0000CE   12....       LCALL   ?Subroutine10 & 0xFFFF
   \                     ??CrossCallReturnLabel_2:
   \   0000D1   12....       LCALL   ?DEALLOC_XSTACK8
   \   0000D4   90....       MOV     DPTR,#ZDP_TxOptions
   \   0000D7   E4           CLR     A
   \   0000D8   F0           MOVX    @DPTR,A
   \   0000D9   02....       LJMP    ?Subroutine3 & 0xFFFF
   1182          }

   \                                 In  segment BANKED_CODE, align 1, keep-with-next
   \                     ?Subroutine23:
   \   000000   12....       LCALL   ??Subroutine102_0 & 0xFFFF
   \                     ??CrossCallReturnLabel_292:
   \   000003   85..82       MOV     DPL,?V0 + 2
   \   000006   85..83       MOV     DPH,?V0 + 3
   \   000009   A3           INC     DPTR
   \   00000A   22           RET

   \                                 In  segment BANKED_CODE, align 1, keep-with-next
   \                     ?Subroutine47:
   \   000000   85..82       MOV     DPL,?XSP + 0
   \   000003   85..83       MOV     DPH,?XSP + 1
   \   000006                REQUIRE ??Subroutine125_0
   \   000006                ; // Fall through to label ??Subroutine125_0
   1183          
   1184          /*********************************************************************
   1185           * Network Management
   1186           */
   1187          
   1188          /*********************************************************************
   1189           * @fn          ZDP_MgmtNwkDiscReq
   1190           *
   1191           * @brief       This builds and send a Mgmt_NWK_Disc_req message. This
   1192           *              function sends a unicast message.
   1193           *
   1194           * @param       dstAddr - destination address of the message
   1195           * @param       ScanChannels - 32 bit address bit map
   1196           * @param       StartIndex - Starting index within the reporting network
   1197           *                           list
   1198           * @param       SecurityEnable - Security Options
   1199           *
   1200           * @return      afStatus_t
   1201           */

   \                                 In  segment BANKED_CODE, align 1, keep-with-next
   1202          afStatus_t ZDP_MgmtNwkDiscReq( zAddrType_t *dstAddr,
   \                     ZDP_MgmtNwkDiscReq:
   1203                                         uint32 ScanChannels,
   1204                                         byte ScanDuration,
   1205                                         byte StartIndex,
   1206                                         byte SecurityEnable )
   1207          {
   \   000000   74F2         MOV     A,#-0xe
   \   000002   12....       LCALL   ?BANKED_ENTER_XDATA
   \   000005                ; Saved register size: 14
   \   000005                ; Auto size: 0
   \   000005   8A..         MOV     ?V0 + 4,R2
   \   000007   8B..         MOV     ?V0 + 5,R3
   \   000009   E9           MOV     A,R1
   \   00000A   FF           MOV     R7,A
   \   00000B   EC           MOV     A,R4
   \   00000C   FE           MOV     R6,A
   \   00000D   740E         MOV     A,#0xe
   \   00000F   12....       LCALL   ?XSTACK_DISP0_8
   \   000012   78..         MOV     R0,#?V0 + 0
   \   000014   12....       LCALL   ?L_MOV_X
   1208            uint8 *pBuf = ZDP_TmpBuf;
   1209            byte len = sizeof( uint32 )+1+1;  // ScanChannels + ScanDuration + StartIndex.
   1210          
   1211            (void)SecurityEnable;  // Intentionally unreferenced parameter
   1212          
   1213            pBuf = osal_buffer_uint32( pBuf, ScanChannels );
   \   000017                ; Setup parameters for call to function osal_buffer_uint32
   \   000017   78..         MOV     R0,#?V0 + 0
   \   000019   12....       LCALL   ?PUSH_XSTACK_I_FOUR
   \   00001C   12....       LCALL   ?Subroutine49 & 0xFFFF
   \                     ??CrossCallReturnLabel_76:
   \   00001F   12....       LCALL   ?DEALLOC_XSTACK8
   \   000022   8A82         MOV     DPL,R2
   \   000024   8B83         MOV     DPH,R3
   1214          
   1215            *pBuf++ = ScanDuration;
   \   000026   EF           MOV     A,R7
   \   000027   F0           MOVX    @DPTR,A
   \   000028   A3           INC     DPTR
   1216            *pBuf = StartIndex;
   \   000029   EE           MOV     A,R6
   \   00002A   F0           MOVX    @DPTR,A
   1217          
   1218            return fillAndSend( &ZDP_TransID, dstAddr, Mgmt_NWK_Disc_req, len );
   \   00002B                ; Setup parameters for call to function fillAndSend
   \   00002B   75..30       MOV     ?V0 + 0,#0x30
   \   00002E   75..00       MOV     ?V0 + 1,#0x0
   \   000031   78..         MOV     R0,#?V0 + 0
   \   000033   12....       LCALL   ?PUSH_XSTACK_I_TWO
   \   000036   7906         MOV     R1,#0x6
   \   000038   AC..         MOV     R4,?V0 + 4
   \   00003A   AD..         MOV     R5,?V0 + 5
   \   00003C   7A..         MOV     R2,#ZDP_TransID & 0xff
   \   00003E   7B..         MOV     R3,#(ZDP_TransID >> 8) & 0xff
   \   000040   12....       LCALL   ??Subroutine103_0 & 0xFFFF
   \                     ??CrossCallReturnLabel_158:
   \   000043   02....       LJMP    ?Subroutine0 & 0xFFFF
   1219          }

   \                                 In  segment BANKED_CODE, align 1, keep-with-next
   \                     ?Subroutine49:
   \   000000   90....       MOV     DPTR,#ZDP_TmpBuf
   \   000003   E0           MOVX    A,@DPTR
   \   000004   FA           MOV     R2,A
   \   000005   A3           INC     DPTR
   \   000006   E0           MOVX    A,@DPTR
   \   000007   FB           MOV     R3,A
   \   000008   12....       LCALL   ??osal_buffer_uint32?relay
   \   00000B   7404         MOV     A,#0x4
   \   00000D   22           RET
   1220          
   1221          /*********************************************************************
   1222           * @fn          ZDP_MgmtDirectJoinReq
   1223           *
   1224           * @brief       This builds and send a Mgmt_Direct_Join_req message. This
   1225           *              function sends a unicast message.
   1226           *
   1227           * @param       dstAddr - destination address of the message
   1228           * @param       deviceAddr - 64 bit IEEE Address
   1229           * @param       SecurityEnable - Security Options
   1230           *
   1231           * @return      afStatus_t
   1232           */

   \                                 In  segment BANKED_CODE, align 1, keep-with-next
   1233          afStatus_t ZDP_MgmtDirectJoinReq( zAddrType_t *dstAddr,
   \                     ZDP_MgmtDirectJoinReq:
   1234                                         uint8 *deviceAddr,
   1235                                         byte capInfo,
   1236                                         byte SecurityEnable )
   1237          {
   \   000000   74F4         MOV     A,#-0xc
   \   000002   12....       LCALL   ?BANKED_ENTER_XDATA
   \   000005                ; Saved register size: 12
   \   000005                ; Auto size: 0
   \   000005   EA           MOV     A,R2
   \   000006   FE           MOV     R6,A
   \   000007   EB           MOV     A,R3
   \   000008   FF           MOV     R7,A
   \   000009   89..         MOV     ?V0 + 0,R1
   1238            (void)SecurityEnable;  // Intentionally unreferenced parameter
   1239          
   1240            osal_cpyExtAddr( ZDP_TmpBuf, deviceAddr );
   \   00000B                ; Setup parameters for call to function sAddrExtCpy
   \   00000B   90....       MOV     DPTR,#ZDP_TmpBuf
   \   00000E   E0           MOVX    A,@DPTR
   \   00000F   FA           MOV     R2,A
   \   000010   A3           INC     DPTR
   \   000011   E0           MOVX    A,@DPTR
   \   000012   12....       LCALL   ?Subroutine24 & 0xFFFF
   1241            ZDP_TmpBuf[Z_EXTADDR_LEN] = capInfo;
   \                     ??CrossCallReturnLabel_25:
   \   000015   E5..         MOV     A,?V0 + 0
   \   000017   F0           MOVX    @DPTR,A
   1242          
   1243            return fillAndSend( &ZDP_TransID, dstAddr, Mgmt_Direct_Join_req, (Z_EXTADDR_LEN + 1) );
   \   000018                ; Setup parameters for call to function fillAndSend
   \   000018   75..35       MOV     ?V0 + 2,#0x35
   \   00001B                REQUIRE ?Subroutine2
   \   00001B                ; // Fall through to label ?Subroutine2
   1244          }

   \                                 In  segment BANKED_CODE, align 1, keep-with-next
   \                     ?Subroutine2:
   \   000000   75..00       MOV     ?V0 + 3,#0x0
   \   000003   78..         MOV     R0,#?V0 + 2
   \   000005   12....       LCALL   ?PUSH_XSTACK_I_TWO
   \   000008   7909         MOV     R1,#0x9
   \   00000A   EE           MOV     A,R6
   \   00000B   FC           MOV     R4,A
   \   00000C   EF           MOV     A,R7
   \   00000D   FD           MOV     R5,A
   \   00000E   7A..         MOV     R2,#ZDP_TransID & 0xff
   \   000010   7B..         MOV     R3,#(ZDP_TransID >> 8) & 0xff
   \   000012   12....       LCALL   ??Subroutine103_0 & 0xFFFF
   \                     ??CrossCallReturnLabel_159:
   \   000015                REQUIRE ??Subroutine109_0
   \   000015                ; // Fall through to label ??Subroutine109_0
   1245          
   1246          /*********************************************************************
   1247           * @fn          ZDP_MgmtPermitJoinReq
   1248           *
   1249           * @brief       This builds and send a Mgmt_Permit_Join_req message.
   1250           *
   1251           * @param       dstAddr - destination address of the message
   1252           * @param       duration - Permit duration
   1253           * @param       TcSignificance - Trust Center Significance
   1254           *
   1255           * @return      afStatus_t
   1256           */

   \                                 In  segment BANKED_CODE, align 1, keep-with-next
   1257          afStatus_t ZDP_MgmtPermitJoinReq( zAddrType_t *dstAddr, byte duration,
   \                     ZDP_MgmtPermitJoinReq:
   1258                                            byte TcSignificance, byte SecurityEnable )
   1259          {
   \   000000   74F6         MOV     A,#-0xa
   \   000002   12....       LCALL   ?BANKED_ENTER_XDATA
   \   000005                ; Saved register size: 10
   \   000005                ; Auto size: 0
   1260            (void)SecurityEnable;  // Intentionally unreferenced parameter
   1261          
   1262            // Build buffer
   1263            ZDP_TmpBuf[ZDP_MGMT_PERMIT_JOIN_REQ_DURATION] = duration;
   \   000005   12....       LCALL   ?Subroutine34 & 0xFFFF
   \                     ??CrossCallReturnLabel_45:
   \   000008   E9           MOV     A,R1
   \   000009   12....       LCALL   ?Subroutine33 & 0xFFFF
   1264            ZDP_TmpBuf[ZDP_MGMT_PERMIT_JOIN_REQ_TC_SIG]   = TcSignificance;
   \                     ??CrossCallReturnLabel_128:
   \   00000C   EC           MOV     A,R4
   \   00000D   F0           MOVX    @DPTR,A
   1265          
   1266            // Send the message
   1267            return fillAndSend( &ZDP_TransID, dstAddr, Mgmt_Permit_Join_req,
   1268                                ZDP_MGMT_PERMIT_JOIN_REQ_SIZE );
   \   00000E                ; Setup parameters for call to function fillAndSend
   \   00000E   75..36       MOV     ?V0 + 0,#0x36
   \   000011   02....       LJMP    ?Subroutine1 & 0xFFFF
   1269          }
   1270          
   1271          /*********************************************************************
   1272           * @fn          ZDP_MgmtLeaveReq
   1273           *
   1274           * @brief       This builds and send a Mgmt_Leave_req message.
   1275           *
   1276           * @param       dstAddr - destination address of the message
   1277           *              IEEEAddr - IEEE adddress of device that is removed
   1278           *              RemoveChildren - set to 1 to remove the children of the
   1279           *                                device as well. 0 otherwise.
   1280           *              Rejoin - set to 1 if the removed device should rejoin
   1281                                   afterwards. 0 otherwise.
   1282           *
   1283           * @return      afStatus_t
   1284           */

   \                                 In  segment BANKED_CODE, align 1, keep-with-next
   1285          afStatus_t ZDP_MgmtLeaveReq( zAddrType_t *dstAddr, uint8 *IEEEAddr, uint8 RemoveChildren,
   \                     ZDP_MgmtLeaveReq:
   1286                           uint8 Rejoin, uint8 SecurityEnable )
   1287          
   1288          {
   \   000000   74F4         MOV     A,#-0xc
   \   000002   12....       LCALL   ?BANKED_ENTER_XDATA
   \   000005                ; Saved register size: 12
   \   000005                ; Auto size: 0
   \   000005   EA           MOV     A,R2
   \   000006   FE           MOV     R6,A
   \   000007   EB           MOV     A,R3
   \   000008   FF           MOV     R7,A
   \   000009   89..         MOV     ?V0 + 0,R1
   \   00000B   740C         MOV     A,#0xc
   \   00000D   12....       LCALL   ?XSTACK_DISP0_8
   \   000010   12....       LCALL   ?Subroutine36 & 0xFFFF
   1289            (void)SecurityEnable;  // Intentionally unreferenced parameter
   1290          
   1291            osal_cpyExtAddr( ZDP_TmpBuf, IEEEAddr );
   \                     ??CrossCallReturnLabel_50:
   \   000013   12....       LCALL   ??sAddrExtCpy?relay
   1292            ZDP_TmpBuf[Z_EXTADDR_LEN] = 0;
   \   000016   90....       MOV     DPTR,#ZDP_TmpBuf
   \   000019   E0           MOVX    A,@DPTR
   \   00001A   2408         ADD     A,#0x8
   \   00001C   12....       LCALL   ?Subroutine57 & 0xFFFF
   \                     ??CrossCallReturnLabel_92:
   \   00001F   E4           CLR     A
   \   000020   F0           MOVX    @DPTR,A
   1293          
   1294            if ( RemoveChildren == TRUE )
   \   000021   04           INC     A
   \   000022   65..         XRL     A,?V0 + 0
   \   000024   7003         JNZ     ??ZDP_MgmtLeaveReq_0
   1295            {
   1296              ZDP_TmpBuf[Z_EXTADDR_LEN] |= ZDP_MGMT_LEAVE_REQ_RC;
   \   000026   7440         MOV     A,#0x40
   \   000028   F0           MOVX    @DPTR,A
   1297            }
   1298            if ( Rejoin == TRUE )
   \                     ??ZDP_MgmtLeaveReq_0:
   \   000029   7401         MOV     A,#0x1
   \   00002B   65..         XRL     A,?V0 + 1
   \   00002D   7004         JNZ     ??ZDP_MgmtLeaveReq_1
   1299            {
   1300              ZDP_TmpBuf[Z_EXTADDR_LEN] |= ZDP_MGMT_LEAVE_REQ_REJOIN;
   \   00002F   E0           MOVX    A,@DPTR
   \   000030   D2E7         SETB    0xE0 /* A   */.7
   \   000032   F0           MOVX    @DPTR,A
   1301            }
   1302          
   1303            return fillAndSend( &ZDP_TransID, dstAddr, Mgmt_Leave_req, (Z_EXTADDR_LEN + 1) );
   \                     ??ZDP_MgmtLeaveReq_1:
   \   000033                ; Setup parameters for call to function fillAndSend
   \   000033   75..34       MOV     ?V0 + 2,#0x34
   \   000036   02....       LJMP    ?Subroutine2 & 0xFFFF
   1304          }
   1305          
   1306          /*********************************************************************
   1307           * @fn          ZDP_MgmtNwkUpdateReq
   1308           *
   1309           * @brief       This builds and send a Mgmt_NWK_Update_req message. This
   1310           *              function sends a unicast or broadcast message.
   1311           *
   1312           * @param       dstAddr - destination address of the message
   1313           * @param       ChannelMask - 32 bit address bit map
   1314           * @param       ScanDuration - length of time to spend scanning each channel
   1315           * @param       ScanCount - number of energy scans to be conducted
   1316           * @param       NwkUpdateId - NWk Update Id value
   1317           * @param       NwkManagerAddr - NWK address for device with Network Manager
   1318           *                               bit set in its Node Descriptor
   1319           *
   1320           * @return      afStatus_t
   1321           */

   \                                 In  segment BANKED_CODE, align 1, keep-with-next
   1322          afStatus_t ZDP_MgmtNwkUpdateReq( zAddrType_t *dstAddr,
   \                     ZDP_MgmtNwkUpdateReq:
   1323                                           uint32 ChannelMask,
   1324                                           uint8 ScanDuration,
   1325                                           uint8 ScanCount,
   1326                                           uint8 NwkUpdateId,
   1327                                           uint16 NwkManagerAddr )
   1328          {
   \   000000   74F0         MOV     A,#-0x10
   \   000002   12....       LCALL   ?BANKED_ENTER_XDATA
   \   000005                ; Saved register size: 16
   \   000005                ; Auto size: 2
   \   000005   74FE         MOV     A,#-0x2
   \   000007   12....       LCALL   ?ALLOC_XSTACK8
   \   00000A   12....       LCALL   ?Subroutine67 & 0xFFFF
   \                     ??CrossCallReturnLabel_245:
   \   00000D   89..         MOV     ?V0 + 5,R1
   \   00000F   8C..         MOV     ?V0 + 7,R4
   \   000011   8D..         MOV     ?V0 + 6,R5
   \   000013   7412         MOV     A,#0x12
   \   000015   12....       LCALL   ?XSTACK_DISP0_8
   \   000018   78..         MOV     R0,#?V0 + 0
   \   00001A   12....       LCALL   ?L_MOV_X
   \   00001D   7416         MOV     A,#0x16
   \   00001F   12....       LCALL   ?XSTACK_DISP0_8
   \   000022   12....       LCALL   ??Subroutine111_0 & 0xFFFF
   1329            uint8 *pBuf = ZDP_TmpBuf;
   1330            byte len = sizeof( uint32 ) + 1;  // ChannelMask + ScanDuration
   \                     ??CrossCallReturnLabel_200:
   \   000025   75..05       MOV     ?V0 + 4,#0x5
   1331          
   1332            pBuf = osal_buffer_uint32( pBuf, ChannelMask );
   \   000028                ; Setup parameters for call to function osal_buffer_uint32
   \   000028   78..         MOV     R0,#?V0 + 0
   \   00002A   12....       LCALL   ?PUSH_XSTACK_I_FOUR
   \   00002D   12....       LCALL   ?Subroutine49 & 0xFFFF
   \                     ??CrossCallReturnLabel_77:
   \   000030   12....       LCALL   ?DEALLOC_XSTACK8
   \   000033   8A..         MOV     ?V0 + 0,R2
   \   000035   8B..         MOV     ?V0 + 1,R3
   \   000037   A8..         MOV     R0,?V0 + 0
   \   000039   A9..         MOV     R1,?V0 + 1
   1333          
   1334            *pBuf++ = ScanDuration;
   \   00003B   8882         MOV     DPL,R0
   \   00003D   8983         MOV     DPH,R1
   \   00003F   E5..         MOV     A,?V0 + 5
   \   000041   12....       LCALL   ?Subroutine65 & 0xFFFF
   1335          
   1336            if ( ScanDuration <= 0x05 )
   \                     ??CrossCallReturnLabel_104:
   \   000044   A3           INC     DPTR
   \   000045   AB83         MOV     R3,DPH
   \   000047   C3           CLR     C
   \   000048   9406         SUBB    A,#0x6
   \   00004A   500B         JNC     ??ZDP_MgmtNwkUpdateReq_0
   1337            {
   1338              // Request is to scan over channelMask
   1339              len += sizeof( uint8 );
   \   00004C   75..06       MOV     ?V0 + 4,#0x6
   1340          
   1341              *pBuf++ = ScanCount;
   \   00004F   8882         MOV     DPL,R0
   \   000051   8983         MOV     DPH,R1
   \   000053   E5..         MOV     A,?V0 + 7
   \   000055   802A         SJMP    ??ZDP_MgmtNwkUpdateReq_1
   1342            }
   1343            else if ( ( ScanDuration == 0xFE ) || ( ScanDuration == 0xFF ) )
   \                     ??ZDP_MgmtNwkUpdateReq_0:
   \   000057   74FE         MOV     A,#-0x2
   \   000059   65..         XRL     A,?V0 + 5
   \   00005B   6006         JZ      ??ZDP_MgmtNwkUpdateReq_2
   \   00005D   74FF         MOV     A,#-0x1
   \   00005F   65..         XRL     A,?V0 + 5
   \   000061   701F         JNZ     ??ZDP_MgmtNwkUpdateReq_3
   1344            {
   1345              // Request is to change Channel (0xFE) or apsChannelMask and NwkManagerAddr (0xFF)
   1346              len += sizeof( uint8 );
   \                     ??ZDP_MgmtNwkUpdateReq_2:
   \   000063   75..06       MOV     ?V0 + 4,#0x6
   1347          
   1348              *pBuf++ = NwkUpdateId;
   \   000066   8882         MOV     DPL,R0
   \   000068   8983         MOV     DPH,R1
   \   00006A   E5..         MOV     A,?V0 + 6
   \   00006C   F0           MOVX    @DPTR,A
   \   00006D   08           INC     R0
   \   00006E   EB           MOV     A,R3
   \   00006F   F9           MOV     R1,A
   1349          
   1350              if ( ScanDuration == 0xFF )
   \   000070   74FF         MOV     A,#-0x1
   \   000072   65..         XRL     A,?V0 + 5
   \   000074   700C         JNZ     ??ZDP_MgmtNwkUpdateReq_3
   1351              {
   1352                len += sizeof( uint16 );
   \   000076   75..08       MOV     ?V0 + 4,#0x8
   1353          
   1354                *pBuf++  = LO_UINT16( NwkManagerAddr );
   \   000079   EE           MOV     A,R6
   \   00007A   8882         MOV     DPL,R0
   \   00007C   8983         MOV     DPH,R1
   \   00007E   F0           MOVX    @DPTR,A
   \   00007F   A3           INC     DPTR
   1355                *pBuf++  = HI_UINT16( NwkManagerAddr );
   \   000080   EF           MOV     A,R7
   \                     ??ZDP_MgmtNwkUpdateReq_1:
   \   000081   F0           MOVX    @DPTR,A
   1356              }
   1357            }
   1358          
   1359            return fillAndSend( &ZDP_TransID, dstAddr, Mgmt_NWK_Update_req, len );
   \                     ??ZDP_MgmtNwkUpdateReq_3:
   \   000082                ; Setup parameters for call to function fillAndSend
   \   000082   75..38       MOV     ?V0 + 0,#0x38
   \   000085   75..00       MOV     ?V0 + 1,#0x0
   \   000088   78..         MOV     R0,#?V0 + 0
   \   00008A   12....       LCALL   ?PUSH_XSTACK_I_TWO
   \   00008D   A9..         MOV     R1,?V0 + 4
   \   00008F   7402         MOV     A,#0x2
   \   000091   12....       LCALL   ?XSTACK_DISP0_8
   \   000094   12....       LCALL   ?Subroutine10 & 0xFFFF
   \                     ??CrossCallReturnLabel_3:
   \   000097   12....       LCALL   ?DEALLOC_XSTACK8
   \   00009A   7402         MOV     A,#0x2
   \   00009C   02....       LJMP    ??Subroutine112_0 & 0xFFFF
   1360          }
   1361          
   1362          
   1363          /*********************************************************************
   1364           * Network Management Responses
   1365           */
   1366          
   1367          /*********************************************************************
   1368           * @fn          ZDP_MgmtNwkDiscRsp
   1369           *
   1370           * @brief       This builds and send a Mgmt_NWK_Disc_rsp message. This
   1371           *              function sends a unicast message.
   1372           *
   1373           * @param       dstAddr - destination address of the message
   1374           * @param       Status - message status (ZDP_SUCCESS or other)
   1375           * @param       NetworkCount - Total number of networks found
   1376           * @param       StartIndex - Starting index within the reporting network
   1377           *                           list
   1378           * @param       NetworkListCount - number of network lists included
   1379           *                                 in this message
   1380           * @param       NetworkList - List of network descriptors
   1381           * @param       SecurityEnable - Security Options
   1382           *
   1383           * @return      afStatus_t
   1384           */

   \                                 In  segment BANKED_CODE, align 1, keep-with-next
   \                     ?Subroutine37:
   \   000000   3400         ADDC    A,#0x0
   \   000002   F583         MOV     DPH,A
   \   000004                REQUIRE ??Subroutine108_0
   \   000004                ; // Fall through to label ??Subroutine108_0

   \                                 In  segment BANKED_CODE, align 1, keep-with-next
   1385          afStatus_t ZDP_MgmtNwkDiscRsp( byte TransSeq, zAddrType_t *dstAddr,
   \                     ZDP_MgmtNwkDiscRsp:
   1386                                      byte Status,
   1387                                      byte NetworkCount,
   1388                                      byte StartIndex,
   1389                                      byte NetworkListCount,
   1390                                      networkDesc_t *NetworkList,
   1391                                      byte SecurityEnable )
   1392          {
   \   000000   74F0         MOV     A,#-0x10
   \   000002   12....       LCALL   ?BANKED_ENTER_XDATA
   \   000005                ; Saved register size: 16
   \   000005                ; Auto size: 6
   \   000005   74FA         MOV     A,#-0x6
   \   000007   12....       LCALL   ?ALLOC_XSTACK8
   \   00000A   7403         MOV     A,#0x3
   \   00000C   12....       LCALL   ?XSTACK_DISP0_8
   \   00000F   E9           MOV     A,R1
   \   000010   F0           MOVX    @DPTR,A
   \   000011   7404         MOV     A,#0x4
   \   000013   12....       LCALL   ?XSTACK_DISP0_8
   \   000016   12....       LCALL   ?Subroutine66 & 0xFFFF
   \                     ??CrossCallReturnLabel_106:
   \   000019   12....       LCALL   ?XSTACK_DISP0_8
   \   00001C   EC           MOV     A,R4
   \   00001D   F0           MOVX    @DPTR,A
   \   00001E   7401         MOV     A,#0x1
   \   000020   12....       LCALL   ?XSTACK_DISP0_8
   \   000023   ED           MOV     A,R5
   \   000024   F0           MOVX    @DPTR,A
   \   000025   7416         MOV     A,#0x16
   \   000027   12....       LCALL   ?XSTACK_DISP0_8
   \   00002A   E0           MOVX    A,@DPTR
   \   00002B   F5..         MOV     ?V0 + 2,A
   \   00002D   7417         MOV     A,#0x17
   \   00002F   12....       LCALL   ?XSTACK_DISP0_8
   \   000032   E0           MOVX    A,@DPTR
   \   000033   F5..         MOV     ?V0 + 3,A
   \   000035   7418         MOV     A,#0x18
   \   000037   12....       LCALL   ?XSTACK_DISP0_8
   \   00003A   12....       LCALL   ??Subroutine108_0 & 0xFFFF
   1393            uint8 *buf;
   1394            uint8 *pBuf;
   1395            byte len = 1+1+1+1;  // Status + NetworkCount + StartIndex + NetworkCountList.
   1396            byte idx;
   1397          
   1398            (void)SecurityEnable;  // Intentionally unreferenced parameter
   1399          
   1400            len += (NetworkListCount * ( ZDP_NETWORK_EXTENDED_DISCRIPTOR_SIZE - 2 ));
   \                     ??CrossCallReturnLabel_184:
   \   00003D   75F00C       MOV     B,#0xc
   \   000040   E5..         MOV     A,?V0 + 3
   \   000042   12....       LCALL   ?Subroutine58 & 0xFFFF
   1401          
   1402            buf = osal_mem_alloc( len+1 );
   \                     ??CrossCallReturnLabel_222:
   \   000045   8A..         MOV     ?V0 + 4,R2
   \   000047   8B..         MOV     ?V0 + 5,R3
   1403            if ( buf == NULL )
   \   000049   EA           MOV     A,R2
   \   00004A   45..         ORL     A,?V0 + 5
   \   00004C   7005         JNZ     ??ZDP_MgmtNwkDiscRsp_0
   1404            {
   1405              return afStatus_MEM_FAIL;
   \   00004E   7910         MOV     R1,#0x10
   \   000050   02....       LJMP    ??CrossCallReturnLabel_218 & 0xFFFF
   1406            }
   1407          
   1408            pBuf = buf+1;
   \                     ??ZDP_MgmtNwkDiscRsp_0:
   \   000053   8A82         MOV     DPL,R2
   \   000055   8B83         MOV     DPH,R3
   \   000057   A3           INC     DPTR
   \   000058   8582..       MOV     ?V0 + 6,DPL
   \   00005B   8583..       MOV     ?V0 + 7,DPH
   \   00005E   AE..         MOV     R6,?V0 + 6
   \   000060   AF..         MOV     R7,?V0 + 7
   1409          
   1410            *pBuf++ = Status;
   \   000062   7402         MOV     A,#0x2
   \   000064   12....       LCALL   ?XSTACK_DISP0_8
   \   000067   12....       LCALL   ?Subroutine51 & 0xFFFF
   1411            *pBuf++ = NetworkCount;
   \                     ??CrossCallReturnLabel_78:
   \   00006A   7401         MOV     A,#0x1
   \   00006C   12....       LCALL   ?XSTACK_DISP0_8
   \   00006F   12....       LCALL   ?Subroutine52 & 0xFFFF
   \                     ??CrossCallReturnLabel_80:
   \   000072   A3           INC     DPTR
   1412            *pBuf++ = StartIndex;
   \   000073   E5..         MOV     A,?V0 + 2
   \   000075   F0           MOVX    @DPTR,A
   \   000076   A3           INC     DPTR
   1413            *pBuf++ = NetworkListCount;
   \   000077   E5..         MOV     A,?V0 + 3
   \   000079   F0           MOVX    @DPTR,A
   \   00007A   A3           INC     DPTR
   \   00007B   0E           INC     R6
   \   00007C   0E           INC     R6
   \   00007D   0E           INC     R6
   \   00007E   AF83         MOV     R7,DPH
   1414          
   1415            for ( idx = 0; idx < NetworkListCount; idx++ )
   \   000080   75..00       MOV     ?V0 + 2,#0x0
   \   000083   8012         SJMP    ??ZDP_MgmtNwkDiscRsp_1
   1416            {
   1417              osal_cpyExtAddr( pBuf, NetworkList->extendedPANID);
   1418              pBuf += Z_EXTADDR_LEN;
   1419          
   1420              *pBuf++  = NetworkList->logicalChannel;                // LogicalChannel
   1421              *pBuf    = NetworkList->stackProfile;                  // Stack profile
   1422              *pBuf++ |= (byte)(NetworkList->version << 4);          // ZigBee Version
   1423              *pBuf    = BEACON_ORDER_NO_BEACONS;                    // Beacon Order
   1424              *pBuf++ |= (uint8)(BEACON_ORDER_NO_BEACONS << 4);      // Superframe Order
   1425          
   1426              if ( NetworkList->chosenRouter != INVALID_NODE_ADDR )
   1427              {
   1428                *pBuf++ = TRUE;                         // Permit Joining
   1429              }
   1430              else
   1431              {
   1432                *pBuf++ = FALSE;
   \                     ??ZDP_MgmtNwkDiscRsp_2:
   \   000085   E4           CLR     A
   \                     ??ZDP_MgmtNwkDiscRsp_3:
   \   000086   F0           MOVX    @DPTR,A
   \   000087   0E           INC     R6
   \   000088   E9           MOV     A,R1
   \   000089   FF           MOV     R7,A
   1433              }
   1434          
   1435              NetworkList = NetworkList->nextDesc;    // Move to next list entry
   \   00008A   E5..         MOV     A,?V0 + 0
   \   00008C   2414         ADD     A,#0x14
   \   00008E   F582         MOV     DPL,A
   \   000090   E5..         MOV     A,?V0 + 1
   \   000092   12....       LCALL   ?Subroutine37 & 0xFFFF
   \                     ??CrossCallReturnLabel_187:
   \   000095   05..         INC     ?V0 + 2
   \                     ??ZDP_MgmtNwkDiscRsp_1:
   \   000097   E5..         MOV     A,?V0 + 2
   \   000099   C3           CLR     C
   \   00009A   95..         SUBB    A,?V0 + 3
   \   00009C   4003         JC      $+5
   \   00009E   02....       LJMP    ??ZDP_MgmtNwkDiscRsp_4 & 0xFFFF
   \   0000A1                ; Setup parameters for call to function sAddrExtCpy
   \   0000A1   E5..         MOV     A,?V0 + 0
   \   0000A3   240B         ADD     A,#0xb
   \   0000A5   12....       LCALL   ?Subroutine73 & 0xFFFF
   \                     ??CrossCallReturnLabel_116:
   \   0000A8   EE           MOV     A,R6
   \   0000A9   2408         ADD     A,#0x8
   \   0000AB   FE           MOV     R6,A
   \   0000AC   EF           MOV     A,R7
   \   0000AD   3400         ADDC    A,#0x0
   \   0000AF   FF           MOV     R7,A
   \   0000B0   85..82       MOV     DPL,?V0 + 0
   \   0000B3   85..83       MOV     DPH,?V0 + 1
   \   0000B6   A3           INC     DPTR
   \   0000B7   A3           INC     DPTR
   \   0000B8   12....       LCALL   ?Subroutine48 & 0xFFFF
   \                     ??CrossCallReturnLabel_74:
   \   0000BB   85..82       MOV     DPL,?V0 + 0
   \   0000BE   85..83       MOV     DPH,?V0 + 1
   \   0000C1   A3           INC     DPTR
   \   0000C2   A3           INC     DPTR
   \   0000C3   A3           INC     DPTR
   \   0000C4   A3           INC     DPTR
   \   0000C5   A3           INC     DPTR
   \   0000C6   A3           INC     DPTR
   \   0000C7   12....       LCALL   ?Subroutine52 & 0xFFFF
   \                     ??CrossCallReturnLabel_81:
   \   0000CA   EE           MOV     A,R6
   \   0000CB   F8           MOV     R0,A
   \   0000CC   EF           MOV     A,R7
   \   0000CD   F9           MOV     R1,A
   \   0000CE   A3           INC     DPTR
   \   0000CF   0E           INC     R6
   \   0000D0   AF83         MOV     R7,DPH
   \   0000D2   85..82       MOV     DPL,?V0 + 0
   \   0000D5   85..83       MOV     DPH,?V0 + 1
   \   0000D8   A3           INC     DPTR
   \   0000D9   A3           INC     DPTR
   \   0000DA   A3           INC     DPTR
   \   0000DB   A3           INC     DPTR
   \   0000DC   A3           INC     DPTR
   \   0000DD   12....       LCALL   ?Subroutine35 & 0xFFFF
   \                     ??CrossCallReturnLabel_47:
   \   0000E0   8E82         MOV     DPL,R6
   \   0000E2   8F83         MOV     DPH,R7
   \   0000E4   740F         MOV     A,#0xf
   \   0000E6   F0           MOVX    @DPTR,A
   \   0000E7   08           INC     R0
   \   0000E8   EF           MOV     A,R7
   \   0000E9   F9           MOV     R1,A
   \   0000EA   A3           INC     DPTR
   \   0000EB   0E           INC     R6
   \   0000EC   AF83         MOV     R7,DPH
   \   0000EE   8882         MOV     DPL,R0
   \   0000F0   8983         MOV     DPH,R1
   \   0000F2   740F         MOV     A,#0xf
   \   0000F4   44F0         ORL     A,#0xf0
   \   0000F6   F0           MOVX    @DPTR,A
   \   0000F7   8E82         MOV     DPL,R6
   \   0000F9   8F83         MOV     DPH,R7
   \   0000FB   A3           INC     DPTR
   \   0000FC   A983         MOV     R1,DPH
   \   0000FE   85..82       MOV     DPL,?V0 + 0
   \   000101   85..83       MOV     DPH,?V0 + 1
   \   000104   A3           INC     DPTR
   \   000105   A3           INC     DPTR
   \   000106   A3           INC     DPTR
   \   000107   A3           INC     DPTR
   \   000108   A3           INC     DPTR
   \   000109   A3           INC     DPTR
   \   00010A   A3           INC     DPTR
   \   00010B   E0           MOVX    A,@DPTR
   \   00010C   64FE         XRL     A,#0xfe
   \   00010E   7003         JNZ     ??ZDP_MgmtNwkDiscRsp_5
   \   000110   A3           INC     DPTR
   \   000111   E0           MOVX    A,@DPTR
   \   000112   F4           CPL     A
   \                     ??ZDP_MgmtNwkDiscRsp_5:
   \   000113   8E82         MOV     DPL,R6
   \   000115   8F83         MOV     DPH,R7
   \   000117   7003         JNZ     $+5
   \   000119   02....       LJMP    ??ZDP_MgmtNwkDiscRsp_2 & 0xFFFF
   \   00011C   7401         MOV     A,#0x1
   \   00011E   02....       LJMP    ??ZDP_MgmtNwkDiscRsp_3 & 0xFFFF
   1436            }
   1437          
   1438            FillAndSendBuffer( &TransSeq, dstAddr, Mgmt_NWK_Disc_rsp, len, buf );
   \                     ??ZDP_MgmtNwkDiscRsp_4:
   \   000121   90....       MOV     DPTR,#ZDP_TmpBuf
   \   000124   E5..         MOV     A,?V0 + 6
   \   000126   F0           MOVX    @DPTR,A
   \   000127   A3           INC     DPTR
   \   000128   E5..         MOV     A,?V0 + 7
   \   00012A   F0           MOVX    @DPTR,A
   \   00012B                ; Setup parameters for call to function fillAndSend
   \   00012B   75..30       MOV     ?V0 + 0,#0x30
   \   00012E   75..80       MOV     ?V0 + 1,#-0x80
   \   000131   78..         MOV     R0,#?V0 + 0
   \   000133   12....       LCALL   ?PUSH_XSTACK_I_TWO
   \   000136   7402         MOV     A,#0x2
   \   000138   12....       LCALL   ?XSTACK_DISP0_8
   \   00013B   E0           MOVX    A,@DPTR
   \   00013C   F9           MOV     R1,A
   \   00013D   7406         MOV     A,#0x6
   \   00013F   12....       LCALL   ?XSTACK_DISP0_8
   \   000142   12....       LCALL   ?Subroutine41 & 0xFFFF
   \                     ??CrossCallReturnLabel_63:
   \   000145   7405         MOV     A,#0x5
   \   000147   12....       LCALL   ?XSTACK_DISP0_8
   \   00014A   12....       LCALL   ?Subroutine71 & 0xFFFF
   \                     ??CrossCallReturnLabel_146:
   \   00014D   12....       LCALL   ?DEALLOC_XSTACK8
   \   000150   E9           MOV     A,R1
   \   000151   FE           MOV     R6,A
   \   000152                ; Setup parameters for call to function osal_mem_free
   \   000152   AA..         MOV     R2,?V0 + 4
   \   000154   AB..         MOV     R3,?V0 + 5
   \   000156   12....       LCALL   ??Subroutine116_0 & 0xFFFF
   \                     ??CrossCallReturnLabel_218:
   \   000159                REQUIRE ?Subroutine8
   \   000159                ; // Fall through to label ?Subroutine8
   1439          }

   \                                 In  segment BANKED_CODE, align 1, keep-with-next
   \                     ?Subroutine8:
   \   000000   7406         MOV     A,#0x6
   \   000002   80..         SJMP    ??Subroutine112_0

   \                                 In  segment BANKED_CODE, align 1, keep-with-next
   \                     ?Subroutine73:
   \   000000   FC           MOV     R4,A
   \   000001   E5..         MOV     A,?V0 + 1
   \   000003   3400         ADDC    A,#0x0
   \   000005   FD           MOV     R5,A
   \   000006   EE           MOV     A,R6
   \   000007   FA           MOV     R2,A
   \   000008   EF           MOV     A,R7
   \   000009   FB           MOV     R3,A
   \   00000A   12....       LCALL   ??sAddrExtCpy?relay
   \   00000D   22           RET

   \                                 In  segment BANKED_CODE, align 1, keep-with-next
   \                     ??Subroutine116_0:
   \   000000   12....       LCALL   ?Subroutine89 & 0xFFFF
   \                     ??CrossCallReturnLabel_220:
   \   000003   EE           MOV     A,R6
   \   000004   F9           MOV     R1,A
   \   000005   22           RET

   \                                 In  segment BANKED_CODE, align 1, keep-with-next
   \                     ?Subroutine58:
   \   000000   A4           MUL     AB
   \   000001   2404         ADD     A,#0x4
   \   000003   85..82       MOV     DPL,?XSP + 0
   \   000006   85..83       MOV     DPH,?XSP + 1
   \   000009                REQUIRE ??Subroutine117_0
   \   000009                ; // Fall through to label ??Subroutine117_0

   \                                 In  segment BANKED_CODE, align 1, keep-with-next
   \                     ??Subroutine117_0:
   \   000000   F0           MOVX    @DPTR,A
   \   000001                ; Setup parameters for call to function osal_mem_alloc
   \   000001                ; Setup parameters for call to function osal_mem_alloc
   \   000001                ; Setup parameters for call to function osal_mem_alloc
   \   000001                ; Setup parameters for call to function osal_mem_alloc
   \   000001   2401         ADD     A,#0x1
   \   000003   FA           MOV     R2,A
   \   000004   E4           CLR     A
   \   000005   3400         ADDC    A,#0x0
   \   000007   FB           MOV     R3,A
   \   000008   12....       LCALL   ??osal_mem_alloc?relay
   \   00000B   22           RET

   \                                 In  segment BANKED_CODE, align 1, keep-with-next
   \                     ?Subroutine52:
   \   000000   12....       LCALL   ?Subroutine91 & 0xFFFF
   \                     ??CrossCallReturnLabel_233:
   \   000003   22           RET

   \                                 In  segment BANKED_CODE, align 1, keep-with-next
   \                     ?Subroutine91:
   \   000000   E0           MOVX    A,@DPTR
   \   000001   8E82         MOV     DPL,R6
   \   000003   8F83         MOV     DPH,R7
   \   000005   F0           MOVX    @DPTR,A
   \   000006   22           RET

   \                                 In  segment BANKED_CODE, align 1, keep-with-next
   \                     ?Subroutine51:
   \   000000   12....       LCALL   ?Subroutine82 & 0xFFFF
   \                     ??CrossCallReturnLabel_230:
   \   000003   22           RET

   \                                 In  segment BANKED_CODE, align 1, keep-with-next
   \                     ?Subroutine82:
   \   000000   12....       LCALL   ?Subroutine91 & 0xFFFF
   \                     ??CrossCallReturnLabel_234:
   \   000003   A3           INC     DPTR
   \   000004   0E           INC     R6
   \   000005   AF83         MOV     R7,DPH
   \   000007   22           RET

   \                                 In  segment BANKED_CODE, align 1, keep-with-next
   \                     ?Subroutine48:
   \   000000   12....       LCALL   ?Subroutine91 & 0xFFFF
   \                     ??CrossCallReturnLabel_232:
   \   000003   A3           INC     DPTR
   \   000004   AE82         MOV     R6,DPL
   \   000006   AF83         MOV     R7,DPH
   \   000008   22           RET

   \                                 In  segment BANKED_CODE, align 1, keep-with-next
   \                     ?Subroutine35:
   \   000000   E0           MOVX    A,@DPTR
   \   000001   C4           SWAP    A
   \   000002   54F0         ANL     A,#0xf0
   \   000004   FA           MOV     R2,A
   \   000005   8882         MOV     DPL,R0
   \   000007   8983         MOV     DPH,R1
   \   000009   E0           MOVX    A,@DPTR
   \   00000A   4A           ORL     A,R2
   \   00000B   F0           MOVX    @DPTR,A
   \   00000C   22           RET

   \                                 In  segment BANKED_CODE, align 1, keep-with-next
   \                     ?Subroutine66:
   \   000000   EA           MOV     A,R2
   \   000001   F0           MOVX    @DPTR,A
   \   000002   A3           INC     DPTR
   \   000003   EB           MOV     A,R3
   \   000004   F0           MOVX    @DPTR,A
   \   000005   7402         MOV     A,#0x2
   \   000007   22           RET

   \                                 In  segment BANKED_CODE, align 1, keep-with-next
   \                     ?Subroutine89:
   \   000000   12....       LCALL   ??osal_mem_free?relay
   \   000003   90....       MOV     DPTR,#ZDP_TmpBuf
   \   000006   74..         MOV     A,#(ZDP_Buf + 1) & 0xff
   \   000008   F0           MOVX    @DPTR,A
   \   000009   A3           INC     DPTR
   \   00000A   74..         MOV     A,#((ZDP_Buf + 1) >> 8) & 0xff
   \   00000C   F0           MOVX    @DPTR,A
   \   00000D   22           RET
   1440          
   1441          /*********************************************************************
   1442           * @fn          ZDP_MgmtLqiRsp
   1443           *
   1444           * @brief       This builds and send a Mgmt_Lqi_rsp message. This
   1445           *              function sends a unicast message.
   1446           *
   1447           * @param       dstAddr - destination address of the message
   1448           * @param       Status - message status (ZDP_SUCCESS or other)
   1449           * @param       NeighborLqiEntries - Total number of entries found
   1450           * @param       StartIndex - Starting index within the reporting list
   1451           * @param       NeighborLqiCount - number of lists included
   1452           *                                 in this message
   1453           * @param       NeighborLqiList - List of NeighborLqiItems.  This list
   1454           *                is the list to be sent, not the entire list
   1455           * @param       SecurityEnable - true if secure
   1456           *
   1457           * @return      ZStatus_t
   1458           */

   \                                 In  segment BANKED_CODE, align 1, keep-with-next
   1459          ZStatus_t ZDP_MgmtLqiRsp( byte TransSeq, zAddrType_t *dstAddr,
   \                     ZDP_MgmtLqiRsp:
   1460                                    byte Status,
   1461                                    byte NeighborLqiEntries,
   1462                                    byte StartIndex,
   1463                                    byte NeighborLqiCount,
   1464                                    ZDP_MgmtLqiItem_t* NeighborList,
   1465                                    byte SecurityEnable )
   1466          {
   \   000000   74F0         MOV     A,#-0x10
   \   000002   12....       LCALL   ?BANKED_ENTER_XDATA
   \   000005                ; Saved register size: 16
   \   000005                ; Auto size: 5
   \   000005   74FB         MOV     A,#-0x5
   \   000007   12....       LCALL   ?ALLOC_XSTACK8
   \   00000A   7401         MOV     A,#0x1
   \   00000C   12....       LCALL   ?XSTACK_DISP0_8
   \   00000F   E9           MOV     A,R1
   \   000010   F0           MOVX    @DPTR,A
   \   000011   7403         MOV     A,#0x3
   \   000013   12....       LCALL   ?XSTACK_DISP0_8
   \   000016   12....       LCALL   ?Subroutine64 & 0xFFFF
   \                     ??CrossCallReturnLabel_99:
   \   000019   7402         MOV     A,#0x2
   \   00001B   12....       LCALL   ?XSTACK_DISP0_8
   \   00001E   ED           MOV     A,R5
   \   00001F   F0           MOVX    @DPTR,A
   \   000020   7415         MOV     A,#0x15
   \   000022   12....       LCALL   ?XSTACK_DISP0_8
   \   000025   E0           MOVX    A,@DPTR
   \   000026   F5..         MOV     ?V0 + 4,A
   \   000028   7417         MOV     A,#0x17
   \   00002A   12....       LCALL   ?XSTACK_DISP0_8
   \   00002D   12....       LCALL   ??Subroutine108_0 & 0xFFFF
   1467            ZDP_MgmtLqiItem_t* list = NeighborList;
   1468            uint8 *buf, *pBuf;
   1469            byte len, x;
   1470          
   1471            (void)SecurityEnable;  // Intentionally unreferenced parameter
   1472          
   1473            if ( ZSuccess != Status )
   \                     ??CrossCallReturnLabel_185:
   \   000030   85..82       MOV     DPL,?XSP + 0
   \   000033   85..83       MOV     DPH,?XSP + 1
   \   000036   E0           MOVX    A,@DPTR
   \   000037   6029         JZ      ??ZDP_MgmtLqiRsp_0
   1474            {
   1475              ZDP_TmpBuf[0] = Status;
   \   000039   C0E0         PUSH    A
   \   00003B   12....       LCALL   ?Subroutine34 & 0xFFFF
   \                     ??CrossCallReturnLabel_46:
   \   00003E   D0E0         POP     A
   \   000040   F0           MOVX    @DPTR,A
   1476              return fillAndSend( &TransSeq, dstAddr, Mgmt_Lqi_rsp, 1 );
   \   000041                ; Setup parameters for call to function fillAndSend
   \   000041   75..31       MOV     ?V0 + 0,#0x31
   \   000044   75..80       MOV     ?V0 + 1,#-0x80
   \   000047   78..         MOV     R0,#?V0 + 0
   \   000049   12....       LCALL   ?PUSH_XSTACK_I_TWO
   \   00004C   7901         MOV     R1,#0x1
   \   00004E   7405         MOV     A,#0x5
   \   000050   12....       LCALL   ?XSTACK_DISP0_8
   \   000053   12....       LCALL   ?Subroutine40 & 0xFFFF
   1477            }
   \                     ??CrossCallReturnLabel_56:
   \   000056   12....       LCALL   ?XSTACK_DISP0_8
   \   000059   12....       LCALL   ?Subroutine71 & 0xFFFF
   \                     ??CrossCallReturnLabel_147:
   \   00005C   12....       LCALL   ?DEALLOC_XSTACK8
   \   00005F   02....       LJMP    ??CrossCallReturnLabel_216 & 0xFFFF
   1478          
   1479            // (Status + NeighborLqiEntries + StartIndex + NeighborLqiCount) +
   1480            //  neighbor LQI data.
   1481            len = (1 + 1 + 1 + 1) + (NeighborLqiCount * ZDP_MGMTLQI_EXTENDED_SIZE);
   \                     ??ZDP_MgmtLqiRsp_0:
   \   000062   75F016       MOV     B,#0x16
   \   000065   7416         MOV     A,#0x16
   \   000067   12....       LCALL   ?XSTACK_DISP0_8
   \   00006A   E0           MOVX    A,@DPTR
   \   00006B   12....       LCALL   ?Subroutine58 & 0xFFFF
   1482          
   1483            buf = osal_mem_alloc( len+1 );
   \                     ??CrossCallReturnLabel_223:
   \   00006E   8A..         MOV     ?V0 + 2,R2
   \   000070   8B..         MOV     ?V0 + 3,R3
   1484            if ( buf == NULL )
   \   000072   EA           MOV     A,R2
   \   000073   45..         ORL     A,?V0 + 3
   \   000075   7005         JNZ     ??ZDP_MgmtLqiRsp_1
   1485            {
   1486              return afStatus_MEM_FAIL;
   \   000077   7910         MOV     R1,#0x10
   \   000079   02....       LJMP    ??CrossCallReturnLabel_216 & 0xFFFF
   1487            }
   \                     ??ZDP_MgmtLqiRsp_1:
   \   00007C   8A82         MOV     DPL,R2
   \   00007E   8B83         MOV     DPH,R3
   \   000080   A3           INC     DPTR
   1488          
   1489            pBuf = buf+1;
   1490          
   1491            *pBuf++ = Status;
   \   000081   E4           CLR     A
   \   000082   F0           MOVX    @DPTR,A
   \   000083   A3           INC     DPTR
   \   000084   AE82         MOV     R6,DPL
   \   000086   AF83         MOV     R7,DPH
   1492            *pBuf++ = NeighborLqiEntries;
   \   000088   7402         MOV     A,#0x2
   \   00008A   12....       LCALL   ?XSTACK_DISP0_8
   \   00008D   12....       LCALL   ?Subroutine52 & 0xFFFF
   \                     ??CrossCallReturnLabel_82:
   \   000090   A3           INC     DPTR
   1493            *pBuf++ = StartIndex;
   \   000091   E5..         MOV     A,?V0 + 4
   \   000093   F0           MOVX    @DPTR,A
   \   000094   A3           INC     DPTR
   \   000095   0E           INC     R6
   \   000096   0E           INC     R6
   \   000097   AF83         MOV     R7,DPH
   1494            *pBuf++ = NeighborLqiCount;
   \   000099   7416         MOV     A,#0x16
   \   00009B   12....       LCALL   ?XSTACK_DISP0_8
   \   00009E   12....       LCALL   ?Subroutine51 & 0xFFFF
   1495          
   1496            for ( x = 0; x < NeighborLqiCount; x++ )
   \                     ??CrossCallReturnLabel_79:
   \   0000A1   75..00       MOV     ?V0 + 6,#0x0
   \   0000A4   02....       LJMP    ??ZDP_MgmtLqiRsp_2 & 0xFFFF
   1497            {
   1498              osal_cpyExtAddr( pBuf, list->extPanID);         // Extended PanID
   \                     ??ZDP_MgmtLqiRsp_3:
   \   0000A7                ; Setup parameters for call to function sAddrExtCpy
   \   0000A7   E5..         MOV     A,?V0 + 0
   \   0000A9   2402         ADD     A,#0x2
   \   0000AB   12....       LCALL   ?Subroutine73 & 0xFFFF
   1499              pBuf += Z_EXTADDR_LEN;
   1500          
   1501              // EXTADDR
   1502              pBuf = osal_cpyExtAddr( pBuf, list->extAddr );
   \                     ??CrossCallReturnLabel_117:
   \   0000AE                ; Setup parameters for call to function sAddrExtCpy
   \   0000AE   E5..         MOV     A,?V0 + 0
   \   0000B0   240A         ADD     A,#0xa
   \   0000B2   FC           MOV     R4,A
   \   0000B3   E5..         MOV     A,?V0 + 1
   \   0000B5   3400         ADDC    A,#0x0
   \   0000B7   FD           MOV     R5,A
   \   0000B8   EE           MOV     A,R6
   \   0000B9   2408         ADD     A,#0x8
   \   0000BB   FA           MOV     R2,A
   \   0000BC   EF           MOV     A,R7
   \   0000BD   3400         ADDC    A,#0x0
   \   0000BF   FB           MOV     R3,A
   \   0000C0   12....       LCALL   ??sAddrExtCpy?relay
   \   0000C3   8A..         MOV     ?V0 + 4,R2
   \   0000C5   8B..         MOV     ?V0 + 5,R3
   \   0000C7   AE..         MOV     R6,?V0 + 4
   \   0000C9   AF..         MOV     R7,?V0 + 5
   1503          
   1504              // NWKADDR
   1505              *pBuf++ = LO_UINT16( list->nwkAddr );
   \   0000CB   E5..         MOV     A,?V0 + 0
   \   0000CD   2412         ADD     A,#0x12
   \   0000CF   F8           MOV     R0,A
   \   0000D0   E5..         MOV     A,?V0 + 1
   \   0000D2   12....       LCALL   ?Subroutine87 & 0xFFFF
   \                     ??CrossCallReturnLabel_124:
   \   0000D5   12....       LCALL   ?Subroutine48 & 0xFFFF
   1506              *pBuf++ = HI_UINT16( list->nwkAddr );
   \                     ??CrossCallReturnLabel_75:
   \   0000D8   8882         MOV     DPL,R0
   \   0000DA   8983         MOV     DPH,R1
   \   0000DC   A3           INC     DPTR
   \   0000DD   12....       LCALL   ??Subroutine118_0 & 0xFFFF
   1507          
   1508              // DEVICETYPE
   1509              *pBuf = list->devType;
   \                     ??CrossCallReturnLabel_229:
   \   0000E0   2414         ADD     A,#0x14
   \   0000E2   F582         MOV     DPL,A
   \   0000E4   E5..         MOV     A,?V0 + 1
   \   0000E6   12....       LCALL   ??Subroutine133_0 & 0xFFFF
   \                     ??CrossCallReturnLabel_319:
   \   0000E9   12....       LCALL   ?Subroutine52 & 0xFFFF
   1510          
   1511              // RXONIDLE
   1512              *pBuf |= (uint8)(list->rxOnIdle << 2);
   \                     ??CrossCallReturnLabel_83:
   \   0000EC   E5..         MOV     A,?V0 + 0
   \   0000EE   2415         ADD     A,#0x15
   \   0000F0   F582         MOV     DPL,A
   \   0000F2   E5..         MOV     A,?V0 + 1
   \   0000F4   12....       LCALL   ??Subroutine115_0 & 0xFFFF
   \                     ??CrossCallReturnLabel_209:
   \   0000F7   33           RLC     A
   \   0000F8   33           RLC     A
   \   0000F9   54FC         ANL     A,#0xfc
   \   0000FB   F8           MOV     R0,A
   \   0000FC   8E82         MOV     DPL,R6
   \   0000FE   8F83         MOV     DPH,R7
   \   000100   E0           MOVX    A,@DPTR
   \   000101   48           ORL     A,R0
   \   000102   F0           MOVX    @DPTR,A
   1513          
   1514              // RELATIONSHIP
   1515              *pBuf++ |= (uint8)(list->relation << 4);
   \   000103   EE           MOV     A,R6
   \   000104   F8           MOV     R0,A
   \   000105   EF           MOV     A,R7
   \   000106   F9           MOV     R1,A
   \   000107   A3           INC     DPTR
   \   000108   0E           INC     R6
   \   000109   AF83         MOV     R7,DPH
   \   00010B   E5..         MOV     A,?V0 + 0
   \   00010D   2416         ADD     A,#0x16
   \   00010F   F582         MOV     DPL,A
   \   000111   E5..         MOV     A,?V0 + 1
   \   000113   12....       LCALL   ??Subroutine133_0 & 0xFFFF
   \                     ??CrossCallReturnLabel_320:
   \   000116   12....       LCALL   ?Subroutine35 & 0xFFFF
   1516          
   1517              // PERMITJOINING
   1518              *pBuf++ = (uint8)(list->permit);
   \                     ??CrossCallReturnLabel_48:
   \   000119   E5..         MOV     A,?V0 + 0
   \   00011B   2417         ADD     A,#0x17
   \   00011D   12....       LCALL   ?Subroutine13 & 0xFFFF
   1519          
   1520              // DEPTH
   1521              *pBuf++ = list->depth;
   1522          
   1523              // LQI
   1524              *pBuf++ = list->lqi;
   1525          
   1526              list++; // next list entry
   1527            }
   \                     ??CrossCallReturnLabel_226:
   \   000120   2418         ADD     A,#0x18
   \   000122   12....       LCALL   ?Subroutine13 & 0xFFFF
   \                     ??CrossCallReturnLabel_227:
   \   000125   2419         ADD     A,#0x19
   \   000127   12....       LCALL   ?Subroutine13 & 0xFFFF
   \                     ??CrossCallReturnLabel_228:
   \   00012A   241A         ADD     A,#0x1a
   \   00012C   F5..         MOV     ?V0 + 0,A
   \   00012E   E5..         MOV     A,?V0 + 1
   \   000130   3400         ADDC    A,#0x0
   \   000132   F5..         MOV     ?V0 + 1,A
   \   000134   05..         INC     ?V0 + 6
   \                     ??ZDP_MgmtLqiRsp_2:
   \   000136   7416         MOV     A,#0x16
   \   000138   12....       LCALL   ?XSTACK_DISP0_8
   \   00013B   E0           MOVX    A,@DPTR
   \   00013C   F8           MOV     R0,A
   \   00013D   E5..         MOV     A,?V0 + 6
   \   00013F   C3           CLR     C
   \   000140   98           SUBB    A,R0
   \   000141   5003         JNC     $+5
   \   000143   02....       LJMP    ??ZDP_MgmtLqiRsp_3 & 0xFFFF
   1528          
   1529            FillAndSendBuffer( &TransSeq, dstAddr, Mgmt_Lqi_rsp, len, buf );
   \   000146   12....       LCALL   ?Subroutine63 & 0xFFFF
   \                     ??CrossCallReturnLabel_310:
   \   000149                ; Setup parameters for call to function fillAndSend
   \   000149   75..31       MOV     ?V0 + 0,#0x31
   \   00014C   75..80       MOV     ?V0 + 1,#-0x80
   \   00014F   78..         MOV     R0,#?V0 + 0
   \   000151   12....       LCALL   ?PUSH_XSTACK_I_TWO
   \   000154   7402         MOV     A,#0x2
   \   000156   12....       LCALL   ?XSTACK_DISP0_8
   \   000159   E0           MOVX    A,@DPTR
   \   00015A   F9           MOV     R1,A
   \   00015B   7405         MOV     A,#0x5
   \   00015D   12....       LCALL   ?XSTACK_DISP0_8
   \   000160   12....       LCALL   ?Subroutine40 & 0xFFFF
   \                     ??CrossCallReturnLabel_57:
   \   000163   12....       LCALL   ?XSTACK_DISP0_8
   \   000166   12....       LCALL   ?Subroutine71 & 0xFFFF
   \                     ??CrossCallReturnLabel_148:
   \   000169   12....       LCALL   ?DEALLOC_XSTACK8
   \   00016C   12....       LCALL   ?Subroutine61 & 0xFFFF
   \                     ??CrossCallReturnLabel_216:
   \   00016F   7405         MOV     A,#0x5
   \   000171   02....       LJMP    ??Subroutine112_0 & 0xFFFF
   1530          }

   \                                 In  segment BANKED_CODE, align 1, keep-with-next
   \                     ?Subroutine61:
   \   000000   E9           MOV     A,R1
   \   000001   FE           MOV     R6,A
   \   000002                ; Setup parameters for call to function osal_mem_free
   \   000002                ; Setup parameters for call to function osal_mem_free
   \   000002   AA..         MOV     R2,?V0 + 2
   \   000004   AB..         MOV     R3,?V0 + 3
   \   000006                REQUIRE ??Subroutine116_0
   \   000006                ; // Fall through to label ??Subroutine116_0

   \                                 In  segment BANKED_CODE, align 1, keep-with-next
   \                     ?Subroutine13:
   \   000000   F582         MOV     DPL,A
   \   000002   E5..         MOV     A,?V0 + 1
   \   000004   3400         ADDC    A,#0x0
   \   000006   F583         MOV     DPH,A
   \   000008                REQUIRE ??Subroutine118_0
   \   000008                ; // Fall through to label ??Subroutine118_0

   \                                 In  segment BANKED_CODE, align 1, keep-with-next
   \                     ??Subroutine118_0:
   \   000000   12....       LCALL   ?Subroutine82 & 0xFFFF
   \                     ??CrossCallReturnLabel_231:
   \   000003   E5..         MOV     A,?V0 + 0
   \   000005   22           RET

   \                                 In  segment BANKED_CODE, align 1, keep-with-next
   \                     ?Subroutine64:
   \   000000   EA           MOV     A,R2
   \   000001   F0           MOVX    @DPTR,A
   \   000002   A3           INC     DPTR
   \   000003   EB           MOV     A,R3
   \   000004   F0           MOVX    @DPTR,A
   \   000005   EC           MOV     A,R4
   \   000006   85..82       MOV     DPL,?XSP + 0
   \   000009   85..83       MOV     DPH,?XSP + 1
   \   00000C   F0           MOVX    @DPTR,A
   \   00000D   22           RET

   \                                 In  segment BANKED_CODE, align 1, keep-with-next
   \                     ?Subroutine40:
   \   000000   E0           MOVX    A,@DPTR
   \   000001   FC           MOV     R4,A
   \   000002   A3           INC     DPTR
   \   000003   E0           MOVX    A,@DPTR
   \   000004   FD           MOV     R5,A
   \   000005   7403         MOV     A,#0x3
   \   000007   22           RET

   \                                 In  segment BANKED_CODE, align 1, keep-with-next
   \                     ?Subroutine63:
   \   000000   85..82       MOV     DPL,?V0 + 2
   \   000003   85..83       MOV     DPH,?V0 + 3
   \   000006   A3           INC     DPTR
   \   000007   A882         MOV     R0,DPL
   \   000009   A983         MOV     R1,DPH
   \   00000B   90....       MOV     DPTR,#ZDP_TmpBuf
   \   00000E                REQUIRE ??Subroutine131_0
   \   00000E                ; // Fall through to label ??Subroutine131_0
   1531          
   1532          /*********************************************************************
   1533           * @fn          ZDP_MgmtRtgRsp
   1534           *
   1535           * @brief       This builds and send a Mgmt_Rtg_rsp message. This
   1536           *              function sends a unicast message.
   1537           *
   1538           * @param       dstAddr - destination address of the message
   1539           * @param       Status - message status (ZDP_SUCCESS or other)
   1540           * @param       RoutingTableEntries - Total number of entries
   1541           * @param       StartIndex - Starting index within the reporting list
   1542           * @param       RoutingTableListCount - number of entries included
   1543           *                                      in this message
   1544           * @param       RoutingTableList - List of Routing Table entries
   1545           * @param       SecurityEnable - true to enable security for this message
   1546           *
   1547           * @return      ZStatus_t
   1548           */

   \                                 In  segment BANKED_CODE, align 1, keep-with-next
   1549          ZStatus_t ZDP_MgmtRtgRsp( byte TransSeq, zAddrType_t *dstAddr,
   \                     ZDP_MgmtRtgRsp:
   1550                                      byte Status,
   1551                                      byte RoutingTableEntries,
   1552                                      byte StartIndex,
   1553                                      byte RoutingListCount,
   1554                                      rtgItem_t *RoutingTableList,
   1555                                      byte SecurityEnable )
   1556          {
   \   000000   74F0         MOV     A,#-0x10
   \   000002   12....       LCALL   ?BANKED_ENTER_XDATA
   \   000005                ; Saved register size: 16
   \   000005                ; Auto size: 6
   \   000005   74FA         MOV     A,#-0x6
   \   000007   12....       LCALL   ?ALLOC_XSTACK8
   \   00000A   7403         MOV     A,#0x3
   \   00000C   12....       LCALL   ?XSTACK_DISP0_8
   \   00000F   E9           MOV     A,R1
   \   000010   F0           MOVX    @DPTR,A
   \   000011   7404         MOV     A,#0x4
   \   000013   12....       LCALL   ?XSTACK_DISP0_8
   \   000016   12....       LCALL   ?Subroutine66 & 0xFFFF
   \                     ??CrossCallReturnLabel_107:
   \   000019   12....       LCALL   ?XSTACK_DISP0_8
   \   00001C   EC           MOV     A,R4
   \   00001D   F0           MOVX    @DPTR,A
   \   00001E   7401         MOV     A,#0x1
   \   000020   12....       LCALL   ?XSTACK_DISP0_8
   \   000023   ED           MOV     A,R5
   \   000024   F0           MOVX    @DPTR,A
   \   000025   7416         MOV     A,#0x16
   \   000027   12....       LCALL   ?XSTACK_DISP0_8
   \   00002A   E0           MOVX    A,@DPTR
   \   00002B   F5..         MOV     ?V0 + 3,A
   \   00002D   7417         MOV     A,#0x17
   \   00002F   12....       LCALL   ?XSTACK_DISP0_8
   \   000032   E0           MOVX    A,@DPTR
   \   000033   F5..         MOV     ?V0 + 2,A
   \   000035   7418         MOV     A,#0x18
   \   000037   12....       LCALL   ?XSTACK_DISP0_8
   \   00003A   12....       LCALL   ??Subroutine111_0 & 0xFFFF
   1557            uint8 *buf;
   1558            uint8 *pBuf;
   1559            // Status + RoutingTableEntries + StartIndex + RoutingListCount.
   1560            byte len = 1 + 1 + 1 + 1;
   1561            byte x;
   1562          
   1563            (void)SecurityEnable;  // Intentionally unreferenced parameter
   1564          
   1565            // Add an array for Routing List data
   1566            len += (RoutingListCount * ZDP_ROUTINGENTRY_SIZE);
   \                     ??CrossCallReturnLabel_201:
   \   00003D   75F005       MOV     B,#0x5
   \   000040   E5..         MOV     A,?V0 + 2
   \   000042   12....       LCALL   ?Subroutine58 & 0xFFFF
   1567          
   1568            buf = osal_mem_alloc( (short)(len+1) );
   \                     ??CrossCallReturnLabel_224:
   \   000045   8A..         MOV     ?V0 + 0,R2
   \   000047   8B..         MOV     ?V0 + 1,R3
   1569            if ( buf == NULL )
   \   000049   EA           MOV     A,R2
   \   00004A   45..         ORL     A,?V0 + 1
   \   00004C   7005         JNZ     ??ZDP_MgmtRtgRsp_0
   1570            {
   1571              return afStatus_MEM_FAIL;
   \   00004E   7910         MOV     R1,#0x10
   \   000050   02....       LJMP    ??CrossCallReturnLabel_219 & 0xFFFF
   1572            }
   1573          
   1574            pBuf = buf+1;
   \                     ??ZDP_MgmtRtgRsp_0:
   \   000053   8A82         MOV     DPL,R2
   \   000055   8B83         MOV     DPH,R3
   \   000057   A3           INC     DPTR
   \   000058   AA82         MOV     R2,DPL
   \   00005A   AB83         MOV     R3,DPH
   \   00005C   EA           MOV     A,R2
   \   00005D   F8           MOV     R0,A
   \   00005E   EB           MOV     A,R3
   \   00005F   F9           MOV     R1,A
   1575          
   1576            *pBuf++ = Status;
   \   000060   7402         MOV     A,#0x2
   \   000062   12....       LCALL   ?XSTACK_DISP0_8
   \   000065   12....       LCALL   ?Subroutine22 & 0xFFFF
   1577            *pBuf++ = RoutingTableEntries;
   \                     ??CrossCallReturnLabel_20:
   \   000068   7401         MOV     A,#0x1
   \   00006A   12....       LCALL   ?XSTACK_DISP0_8
   \   00006D   12....       LCALL   ?Subroutine44 & 0xFFFF
   1578            *pBuf++ = StartIndex;
   \                     ??CrossCallReturnLabel_70:
   \   000070   E5..         MOV     A,?V0 + 3
   \   000072   F0           MOVX    @DPTR,A
   \   000073   A3           INC     DPTR
   1579            *pBuf++ = RoutingListCount;
   \   000074   E5..         MOV     A,?V0 + 2
   \   000076   F0           MOVX    @DPTR,A
   \   000077   A3           INC     DPTR
   \   000078   08           INC     R0
   \   000079   08           INC     R0
   \   00007A   08           INC     R0
   \   00007B   A983         MOV     R1,DPH
   1580          
   1581            for ( x = 0; x < RoutingListCount; x++ )
   \   00007D   7C00         MOV     R4,#0x0
   \   00007F   8031         SJMP    ??ZDP_MgmtRtgRsp_1
   1582            {
   1583              *pBuf++ = LO_UINT16( RoutingTableList->dstAddress );  // Destination Address
   \                     ??ZDP_MgmtRtgRsp_2:
   \   000081   8E82         MOV     DPL,R6
   \   000083   8F83         MOV     DPH,R7
   \   000085   12....       LCALL   ?Subroutine44 & 0xFFFF
   \                     ??CrossCallReturnLabel_71:
   \   000088   A882         MOV     R0,DPL
   \   00008A   12....       LCALL   ?Subroutine21 & 0xFFFF
   1584              *pBuf++ = HI_UINT16( RoutingTableList->dstAddress );
   1585              *pBuf++ = RoutingTableList->status;
   \                     ??CrossCallReturnLabel_247:
   \   00008D   12....       LCALL   ??Subroutine122_0 & 0xFFFF
   1586              *pBuf++ = LO_UINT16( RoutingTableList->nextHopAddress );  // Next hop
   \                     ??CrossCallReturnLabel_251:
   \   000090   2402         ADD     A,#0x2
   \   000092   F5..         MOV     ?V0 + 4,A
   \   000094   EF           MOV     A,R7
   \   000095   3400         ADDC    A,#0x0
   \   000097   F5..         MOV     ?V0 + 5,A
   \   000099   85..82       MOV     DPL,?V0 + 4
   \   00009C   F583         MOV     DPH,A
   \   00009E   12....       LCALL   ?Subroutine22 & 0xFFFF
   1587              *pBuf++ = HI_UINT16( RoutingTableList->nextHopAddress );
   \                     ??CrossCallReturnLabel_21:
   \   0000A1   85..82       MOV     DPL,?V0 + 4
   \   0000A4   85..83       MOV     DPH,?V0 + 5
   \   0000A7   12....       LCALL   ??Subroutine123_0 & 0xFFFF
   1588              RoutingTableList++;    // Move to next list entry
   1589            }
   \                     ??CrossCallReturnLabel_252:
   \   0000AA   2407         ADD     A,#0x7
   \   0000AC   FE           MOV     R6,A
   \   0000AD   EF           MOV     A,R7
   \   0000AE   3400         ADDC    A,#0x0
   \   0000B0   FF           MOV     R7,A
   \   0000B1   0C           INC     R4
   \                     ??ZDP_MgmtRtgRsp_1:
   \   0000B2   EC           MOV     A,R4
   \   0000B3   C3           CLR     C
   \   0000B4   95..         SUBB    A,?V0 + 2
   \   0000B6   40C9         JC      ??ZDP_MgmtRtgRsp_2
   1590          
   1591            FillAndSendBuffer( &TransSeq, dstAddr, Mgmt_Rtg_rsp, len, buf );
   \   0000B8   90....       MOV     DPTR,#ZDP_TmpBuf
   \   0000BB   12....       LCALL   ??Subroutine119_0 & 0xFFFF
   \                     ??CrossCallReturnLabel_240:
   \   0000BE                ; Setup parameters for call to function fillAndSend
   \   0000BE   75..32       MOV     ?V0 + 2,#0x32
   \   0000C1   75..80       MOV     ?V0 + 3,#-0x80
   \   0000C4   78..         MOV     R0,#?V0 + 2
   \   0000C6   12....       LCALL   ?PUSH_XSTACK_I_TWO
   \   0000C9   7402         MOV     A,#0x2
   \   0000CB   12....       LCALL   ?XSTACK_DISP0_8
   \   0000CE   E0           MOVX    A,@DPTR
   \   0000CF   F9           MOV     R1,A
   \   0000D0   7406         MOV     A,#0x6
   \   0000D2   12....       LCALL   ?XSTACK_DISP0_8
   \   0000D5   12....       LCALL   ?Subroutine41 & 0xFFFF
   \                     ??CrossCallReturnLabel_64:
   \   0000D8   7405         MOV     A,#0x5
   \   0000DA   12....       LCALL   ?XSTACK_DISP0_8
   \   0000DD   12....       LCALL   ?Subroutine71 & 0xFFFF
   \                     ??CrossCallReturnLabel_149:
   \   0000E0   12....       LCALL   ?DEALLOC_XSTACK8
   \   0000E3   E9           MOV     A,R1
   \   0000E4   FE           MOV     R6,A
   \   0000E5                ; Setup parameters for call to function osal_mem_free
   \   0000E5   AA..         MOV     R2,?V0 + 0
   \   0000E7   AB..         MOV     R3,?V0 + 1
   \   0000E9   12....       LCALL   ??Subroutine116_0 & 0xFFFF
   \                     ??CrossCallReturnLabel_219:
   \   0000EC   02....       LJMP    ?Subroutine8 & 0xFFFF
   1592          }
   1593          
   1594          /*********************************************************************
   1595           * @fn          ZDP_MgmtBindRsp
   1596           *
   1597           * @brief       This builds and send a Mgmt_Bind_rsp message. This
   1598           *              function sends a unicast message.
   1599           *
   1600           * @param       dstAddr - destination address of the message
   1601           * @param       Status - message status (ZDP_SUCCESS or other)
   1602           * @param       BindingTableEntries - Total number of entries
   1603           * @param       StartIndex - Starting index within the reporting list
   1604           * @param       BindingTableListCount - number of entries included
   1605           *                                 in this message
   1606           * @param       BindingTableList - List of Binding Table entries
   1607           * @param       SecurityEnable - Security Options
   1608           *
   1609           * @return      ZStatus_t
   1610           */

   \                                 In  segment BANKED_CODE, align 1, keep-with-next
   1611          ZStatus_t ZDP_MgmtBindRsp( byte TransSeq, zAddrType_t *dstAddr,
   \                     ZDP_MgmtBindRsp:
   1612                                      byte Status,
   1613                                      byte BindingTableEntries,
   1614                                      byte StartIndex,
   1615                                      byte BindingTableListCount,
   1616                                      apsBindingItem_t *BindingTableList,
   1617                                      byte SecurityEnable )
   1618          {
   \   000000   74F0         MOV     A,#-0x10
   \   000002   12....       LCALL   ?BANKED_ENTER_XDATA
   \   000005                ; Saved register size: 16
   \   000005                ; Auto size: 4
   \   000005   74FC         MOV     A,#-0x4
   \   000007   12....       LCALL   ?ALLOC_XSTACK8
   \   00000A   7401         MOV     A,#0x1
   \   00000C   12....       LCALL   ?XSTACK_DISP0_8
   \   00000F   E9           MOV     A,R1
   \   000010   F0           MOVX    @DPTR,A
   \   000011   7402         MOV     A,#0x2
   \   000013   12....       LCALL   ?XSTACK_DISP0_8
   \   000016   12....       LCALL   ?Subroutine64 & 0xFFFF
   \                     ??CrossCallReturnLabel_100:
   \   000019   8D..         MOV     ?V0 + 7,R5
   \   00001B   7414         MOV     A,#0x14
   \   00001D   12....       LCALL   ?XSTACK_DISP0_8
   \   000020   E0           MOVX    A,@DPTR
   \   000021   F5..         MOV     ?V0 + 0,A
   \   000023   7415         MOV     A,#0x15
   \   000025   12....       LCALL   ?XSTACK_DISP0_8
   \   000028   E0           MOVX    A,@DPTR
   \   000029   F5..         MOV     ?V0 + 6,A
   \   00002B   7416         MOV     A,#0x16
   \   00002D   12....       LCALL   ?XSTACK_DISP0_8
   \   000030   12....       LCALL   ??Subroutine111_0 & 0xFFFF
   1619            uint8 *buf;
   1620            uint8 *pBuf;
   1621            uint8 maxLen; // maxLen is the maximum packet length to allocate enough memory space
   1622            uint8 len;    // Actual length varies due to different addrMode
   1623            uint8 x;
   1624            byte extZdpBindEntrySize = ZDP_BINDINGENTRY_SIZE + 1 + 1; // One more byte for cluserID and DstAddrMode
   1625            byte shortZdpBindEntrySize = ZDP_BINDINGENTRY_SIZE + 1 + 1 + 2 - 8 - 1; // clusterID + DstAddrMode + shortAddr - ExtAddr - DstEndpoint
   1626          
   1627            (void)SecurityEnable;  // Intentionally unreferenced parameter
   1628          
   1629            // Status + BindingTableEntries + StartIndex + BindingTableListCount.
   1630            maxLen = 1 + 1 + 1 + 1;
   1631            maxLen += (BindingTableListCount * extZdpBindEntrySize );  //max length
   1632            buf = osal_mem_alloc( maxLen + 1 );  // +1 for transaction ID
   \                     ??CrossCallReturnLabel_202:
   \   000033                ; Setup parameters for call to function osal_mem_alloc
   \   000033   75F015       MOV     B,#0x15
   \   000036   E5..         MOV     A,?V0 + 6
   \   000038   A4           MUL     AB
   \   000039   2405         ADD     A,#0x5
   \   00003B   FA           MOV     R2,A
   \   00003C   E4           CLR     A
   \   00003D   3400         ADDC    A,#0x0
   \   00003F   FB           MOV     R3,A
   \   000040   12....       LCALL   ??osal_mem_alloc?relay
   \   000043   8A..         MOV     ?V0 + 2,R2
   \   000045   8B..         MOV     ?V0 + 3,R3
   1633          
   1634            if ( buf == NULL )
   \   000047   EA           MOV     A,R2
   \   000048   45..         ORL     A,?V0 + 3
   \   00004A   7005         JNZ     ??ZDP_MgmtBindRsp_0
   1635            {
   1636              return afStatus_MEM_FAIL;
   \   00004C   7910         MOV     R1,#0x10
   \   00004E   02....       LJMP    ??CrossCallReturnLabel_217 & 0xFFFF
   1637            }
   \                     ??ZDP_MgmtBindRsp_0:
   \   000051   8A82         MOV     DPL,R2
   \   000053   8B83         MOV     DPH,R3
   \   000055   A3           INC     DPTR
   \   000056   AA82         MOV     R2,DPL
   \   000058   AB83         MOV     R3,DPH
   1638          
   1639            pBuf = buf+1;
   1640          
   1641            *pBuf++ = Status;
   \   00005A   12....       LCALL   ?Subroutine47 & 0xFFFF
   1642            *pBuf++ = BindingTableEntries;
   \                     ??CrossCallReturnLabel_267:
   \   00005D   E5..         MOV     A,?V0 + 7
   \   00005F   F0           MOVX    @DPTR,A
   \   000060   A3           INC     DPTR
   1643            *pBuf++ = StartIndex;
   \   000061   E5..         MOV     A,?V0 + 0
   \   000063   F0           MOVX    @DPTR,A
   \   000064   A3           INC     DPTR
   1644            *pBuf++ = BindingTableListCount;
   \   000065   E5..         MOV     A,?V0 + 6
   \   000067   12....       LCALL   ??Subroutine128_0 & 0xFFFF
   1645          
   1646            // Initial length = Status + BindingTableEntries + StartIndex + BindingTableListCount.
   1647            // length += ZDP_BINDINGENTRY_SIZE   -- Version 1.0
   1648            //           extZdpBindEntrySize     -- Version 1.1 extended address mode
   1649            //           shortZdpBindEntrySize   -- Version 1.1 group address mode
   1650          
   1651            len = 1 + 1 + 1 + 1;
   \                     ??CrossCallReturnLabel_281:
   \   00006A   75..04       MOV     ?V0 + 0,#0x4
   1652            for ( x = 0; x < BindingTableListCount; x++ )
   \   00006D   75..00       MOV     ?V0 + 1,#0x0
   \   000070   8015         SJMP    ??ZDP_MgmtBindRsp_1
   1653            {
   1654              pBuf = osal_cpyExtAddr( pBuf, BindingTableList->srcAddr );
   1655              *pBuf++ = BindingTableList->srcEP;
   1656          
   1657              // Cluster ID
   1658              *pBuf++ = LO_UINT16( BindingTableList->clusterID );
   1659              *pBuf++ = HI_UINT16( BindingTableList->clusterID );
   1660          
   1661              *pBuf++ = BindingTableList->dstAddr.addrMode;
   1662              if ( BindingTableList->dstAddr.addrMode == Addr64Bit )
   1663              {
   1664                len += extZdpBindEntrySize;
   1665                pBuf = osal_cpyExtAddr( pBuf, BindingTableList->dstAddr.addr.extAddr );
   1666                *pBuf++ = BindingTableList->dstEP;
   1667              }
   1668              else
   1669              {
   1670                len += shortZdpBindEntrySize;
   \                     ??ZDP_MgmtBindRsp_2:
   \   000072   740E         MOV     A,#0xe
   \   000074   25..         ADD     A,?V0 + 0
   \   000076   F5..         MOV     ?V0 + 0,A
   1671                *pBuf++ = LO_UINT16( BindingTableList->dstAddr.addr.shortAddr );
   \   000078   12....       LCALL   ?Subroutine17 & 0xFFFF
   1672                *pBuf++ = HI_UINT16( BindingTableList->dstAddr.addr.shortAddr );
   1673              }
   \                     ??CrossCallReturnLabel_10:
   \   00007B   AB83         MOV     R3,DPH
   1674              BindingTableList++;    // Move to next list entry
   \   00007D   EE           MOV     A,R6
   \   00007E   2415         ADD     A,#0x15
   \   000080   FE           MOV     R6,A
   \   000081   EF           MOV     A,R7
   \   000082   3400         ADDC    A,#0x0
   \   000084   FF           MOV     R7,A
   \   000085   05..         INC     ?V0 + 1
   \                     ??ZDP_MgmtBindRsp_1:
   \   000087   E5..         MOV     A,?V0 + 1
   \   000089   C3           CLR     C
   \   00008A   95..         SUBB    A,?V0 + 6
   \   00008C   5056         JNC     ??ZDP_MgmtBindRsp_3
   \   00008E                ; Setup parameters for call to function sAddrExtCpy
   \   00008E   EE           MOV     A,R6
   \   00008F   FC           MOV     R4,A
   \   000090   EF           MOV     A,R7
   \   000091   FD           MOV     R5,A
   \   000092   12....       LCALL   ??sAddrExtCpy?relay
   \   000095   8E82         MOV     DPL,R6
   \   000097   8F83         MOV     DPH,R7
   \   000099   A3           INC     DPTR
   \   00009A   A3           INC     DPTR
   \   00009B   A3           INC     DPTR
   \   00009C   A3           INC     DPTR
   \   00009D   A3           INC     DPTR
   \   00009E   A3           INC     DPTR
   \   00009F   A3           INC     DPTR
   \   0000A0   A3           INC     DPTR
   \   0000A1   12....       LCALL   ??Subroutine126_0 & 0xFFFF
   \                     ??CrossCallReturnLabel_270:
   \   0000A4   EE           MOV     A,R6
   \   0000A5   2409         ADD     A,#0x9
   \   0000A7   FC           MOV     R4,A
   \   0000A8   EF           MOV     A,R7
   \   0000A9   3400         ADDC    A,#0x0
   \   0000AB   FD           MOV     R5,A
   \   0000AC   12....       LCALL   ?Subroutine17 & 0xFFFF
   \                     ??CrossCallReturnLabel_11:
   \   0000AF   AB83         MOV     R3,DPH
   \   0000B1   EE           MOV     A,R6
   \   0000B2   2413         ADD     A,#0x13
   \   0000B4   F8           MOV     R0,A
   \   0000B5   EF           MOV     A,R7
   \   0000B6   3400         ADDC    A,#0x0
   \   0000B8   F9           MOV     R1,A
   \   0000B9   12....       LCALL   ?Subroutine46 & 0xFFFF
   \                     ??CrossCallReturnLabel_289:
   \   0000BC   EE           MOV     A,R6
   \   0000BD   240B         ADD     A,#0xb
   \   0000BF   0C           INC     R4
   \   0000C0   0C           INC     R4
   \   0000C1   EF           MOV     A,R7
   \   0000C2   3400         ADDC    A,#0x0
   \   0000C4   FD           MOV     R5,A
   \   0000C5   8882         MOV     DPL,R0
   \   0000C7   8983         MOV     DPH,R1
   \   0000C9   E0           MOVX    A,@DPTR
   \   0000CA   6403         XRL     A,#0x3
   \   0000CC   70A4         JNZ     ??ZDP_MgmtBindRsp_2
   \   0000CE   7415         MOV     A,#0x15
   \   0000D0   25..         ADD     A,?V0 + 0
   \   0000D2   F5..         MOV     ?V0 + 0,A
   \   0000D4                ; Setup parameters for call to function sAddrExtCpy
   \   0000D4   12....       LCALL   ??sAddrExtCpy?relay
   \   0000D7   EE           MOV     A,R6
   \   0000D8   2414         ADD     A,#0x14
   \   0000DA   12....       LCALL   ?Subroutine74 & 0xFFFF
   1675            }
   \                     ??CrossCallReturnLabel_324:
   \   0000DD   12....       LCALL   ??Subroutine125_0 & 0xFFFF
   \                     ??CrossCallReturnLabel_265:
   \   0000E0   AA82         MOV     R2,DPL
   \   0000E2   8097         SJMP    ??CrossCallReturnLabel_10
   1676          
   1677            FillAndSendBuffer( &TransSeq, dstAddr, Mgmt_Bind_rsp, len, buf );
   \                     ??ZDP_MgmtBindRsp_3:
   \   0000E4   12....       LCALL   ?Subroutine63 & 0xFFFF
   \                     ??CrossCallReturnLabel_311:
   \   0000E7                ; Setup parameters for call to function fillAndSend
   \   0000E7   75..33       MOV     ?V0 + 4,#0x33
   \   0000EA   75..80       MOV     ?V0 + 5,#-0x80
   \   0000ED   78..         MOV     R0,#?V0 + 4
   \   0000EF   12....       LCALL   ?PUSH_XSTACK_I_TWO
   \   0000F2   A9..         MOV     R1,?V0 + 0
   \   0000F4   7404         MOV     A,#0x4
   \   0000F6   12....       LCALL   ?XSTACK_DISP0_8
   \   0000F9   12....       LCALL   ?Subroutine40 & 0xFFFF
   \                     ??CrossCallReturnLabel_58:
   \   0000FC   12....       LCALL   ?XSTACK_DISP0_8
   \   0000FF   12....       LCALL   ?Subroutine71 & 0xFFFF
   \                     ??CrossCallReturnLabel_150:
   \   000102   12....       LCALL   ?DEALLOC_XSTACK8
   \   000105   12....       LCALL   ?Subroutine61 & 0xFFFF
   \                     ??CrossCallReturnLabel_217:
   \   000108   02....       LJMP    ?Subroutine7 & 0xFFFF
   1678          }

   \                                 In  segment BANKED_CODE, align 1, keep-with-next
   \                     ?Subroutine17:
   \   000000   8C82         MOV     DPL,R4
   \   000002   8D83         MOV     DPH,R5
   \   000004   12....       LCALL   ??Subroutine102_0 & 0xFFFF
   \                     ??CrossCallReturnLabel_291:
   \   000007   8C82         MOV     DPL,R4
   \   000009   8D83         MOV     DPH,R5
   \   00000B   A3           INC     DPTR
   \   00000C   12....       LCALL   ?Subroutine81 & 0xFFFF
   \                     ??CrossCallReturnLabel_274:
   \   00000F   0A           INC     R2
   \   000010   22           RET
   1679          
   1680          /*********************************************************************
   1681           * @fn          ZDP_MgmtNwkUpdateNotify
   1682           *
   1683           * @brief       This builds and send a Mgmt_NWK_Update_notify message. This
   1684           *              function sends a unicast message.
   1685           *
   1686           * @param       dstAddr - destination address of the message
   1687           * @param       status - message status (ZDP_SUCCESS or other)
   1688           * @param       scannedChannels - List of channels scanned by the request
   1689           * @param       totalTransmissions - Total transmissions
   1690           * @param       transmissionFailures - Sum of transmission failures
   1691           * @param       listCount - Number of records contained in the energyValues list
   1692           * @param       energyValues - List of descriptors, one for each of ListCount,
   1693           *                             of the enegry detect descriptors
   1694           * @param       txOptions - Transmit options
   1695           * @param       securityEnable - Security options
   1696           *
   1697           * @return      afStatus_t
   1698           */

   \                                 In  segment BANKED_CODE, align 1, keep-with-next
   1699          afStatus_t ZDP_MgmtNwkUpdateNotify( uint8 TransSeq, zAddrType_t *dstAddr,
   \                     ZDP_MgmtNwkUpdateNotify:
   1700                                              uint8 status, uint32 scannedChannels,
   1701                                              uint16 totalTransmissions, uint16 transmissionFailures,
   1702                                              uint8 listCount, uint8 *energyValues, uint8 txOptions,
   1703                                              uint8 securityEnable )
   1704          {
   \   000000   74F2         MOV     A,#-0xe
   \   000002   12....       LCALL   ?BANKED_ENTER_XDATA
   \   000005                ; Saved register size: 14
   \   000005                ; Auto size: 10
   \   000005   74F6         MOV     A,#-0xa
   \   000007   12....       LCALL   ?ALLOC_XSTACK8
   \   00000A   7405         MOV     A,#0x5
   \   00000C   12....       LCALL   ?XSTACK_DISP0_8
   \   00000F   E9           MOV     A,R1
   \   000010   F0           MOVX    @DPTR,A
   \   000011   7408         MOV     A,#0x8
   \   000013   12....       LCALL   ?XSTACK_DISP0_8
   \   000016   12....       LCALL   ??Subroutine119_0 & 0xFFFF
   \                     ??CrossCallReturnLabel_241:
   \   000019   7404         MOV     A,#0x4
   \   00001B   12....       LCALL   ?XSTACK_DISP0_8
   \   00001E   EC           MOV     A,R4
   \   00001F   F0           MOVX    @DPTR,A
   \   000020   ED           MOV     A,R5
   \   000021   85..82       MOV     DPL,?XSP + 0
   \   000024   85..83       MOV     DPH,?XSP + 1
   \   000027   F0           MOVX    @DPTR,A
   \   000028   7418         MOV     A,#0x18
   \   00002A   12....       LCALL   ?XSTACK_DISP0_8
   \   00002D   78..         MOV     R0,#?V0 + 0
   \   00002F   12....       LCALL   ?L_MOV_X
   \   000032   741C         MOV     A,#0x1c
   \   000034   12....       LCALL   ?XSTACK_DISP0_8
   \   000037   12....       LCALL   ?Subroutine18 & 0xFFFF
   \                     ??CrossCallReturnLabel_15:
   \   00003A   741E         MOV     A,#0x1e
   \   00003C   12....       LCALL   ?XSTACK_DISP0_8
   \   00003F   12....       LCALL   ??Subroutine111_0 & 0xFFFF
   1705            uint8 *buf;
   1706            uint8 *pBuf;
   1707            uint8 len;
   1708          
   1709            (void)securityEnable;  // Intentionally unreferenced parameter
   1710          
   1711            // Status + ScannedChannels + totalTransmissions + transmissionFailures + ListCount + energyValues
   1712            len = 1 + 4 + 2 + 2 + 1 + listCount;
   \                     ??CrossCallReturnLabel_203:
   \   000042   85..82       MOV     DPL,?XSP + 0
   \   000045   85..83       MOV     DPH,?XSP + 1
   \   000048   E0           MOVX    A,@DPTR
   \   000049   240A         ADD     A,#0xa
   \   00004B   C0E0         PUSH    A
   \   00004D   7401         MOV     A,#0x1
   \   00004F   12....       LCALL   ?XSTACK_DISP0_8
   \   000052   D0E0         POP     A
   \   000054   12....       LCALL   ??Subroutine117_0 & 0xFFFF
   1713          
   1714            buf = osal_mem_alloc( len+1 ); // +1 for transaction ID
   \                     ??CrossCallReturnLabel_225:
   \   000057   7402         MOV     A,#0x2
   \   000059   12....       LCALL   ?XSTACK_DISP0_8
   \   00005C   12....       LCALL   ?Subroutine66 & 0xFFFF
   1715            if ( buf == NULL )
   \                     ??CrossCallReturnLabel_105:
   \   00005F   12....       LCALL   ?XSTACK_DISP0_8
   \   000062   12....       LCALL   ?Subroutine53 & 0xFFFF
   \                     ??CrossCallReturnLabel_86:
   \   000065   49           ORL     A,R1
   \   000066   7005         JNZ     ??ZDP_MgmtNwkUpdateNotify_0
   1716            {
   1717              return afStatus_MEM_FAIL;
   \   000068   7910         MOV     R1,#0x10
   \   00006A   02....       LJMP    ??ZDP_MgmtNwkUpdateNotify_1 & 0xFFFF
   1718            }
   1719          
   1720            pBuf = buf+1;
   \                     ??ZDP_MgmtNwkUpdateNotify_0:
   \   00006D   7402         MOV     A,#0x2
   \   00006F   12....       LCALL   ?XSTACK_DISP0_8
   \   000072   E0           MOVX    A,@DPTR
   \   000073   2401         ADD     A,#0x1
   \   000075   08           INC     R0
   \   000076   A3           INC     DPTR
   \   000077   E0           MOVX    A,@DPTR
   \   000078   3400         ADDC    A,#0x0
   \   00007A   F9           MOV     R1,A
   \   00007B   7406         MOV     A,#0x6
   \   00007D   12....       LCALL   ?XSTACK_DISP0_8
   \   000080   12....       LCALL   ??Subroutine131_0 & 0xFFFF
   \                     ??CrossCallReturnLabel_304:
   \   000083   7406         MOV     A,#0x6
   \   000085   12....       LCALL   ?XSTACK_DISP0_8
   \   000088   12....       LCALL   ??Subroutine132_0 & 0xFFFF
   1721          
   1722            *pBuf++ = status;
   \                     ??CrossCallReturnLabel_313:
   \   00008B   7404         MOV     A,#0x4
   \   00008D   12....       LCALL   ?XSTACK_DISP0_8
   \   000090   12....       LCALL   ??Subroutine126_0 & 0xFFFF
   1723          
   1724            pBuf = osal_buffer_uint32( pBuf, scannedChannels );
   \                     ??CrossCallReturnLabel_271:
   \   000093                ; Setup parameters for call to function osal_buffer_uint32
   \   000093   78..         MOV     R0,#?V0 + 0
   \   000095   12....       LCALL   ?PUSH_XSTACK_I_FOUR
   \   000098   12....       LCALL   ??osal_buffer_uint32?relay
   \   00009B   7404         MOV     A,#0x4
   \   00009D   12....       LCALL   ?DEALLOC_XSTACK8
   1725          
   1726            *pBuf++ = LO_UINT16( totalTransmissions );
   \   0000A0   8A82         MOV     DPL,R2
   \   0000A2   8B83         MOV     DPH,R3
   \   0000A4   E5..         MOV     A,?V0 + 4
   \   0000A6   F0           MOVX    @DPTR,A
   \   0000A7   A3           INC     DPTR
   1727            *pBuf++ = HI_UINT16( totalTransmissions );
   \   0000A8   E5..         MOV     A,?V0 + 5
   \   0000AA   F0           MOVX    @DPTR,A
   \   0000AB   A3           INC     DPTR
   1728          
   1729            *pBuf++ = LO_UINT16( transmissionFailures );
   \   0000AC   EE           MOV     A,R6
   \   0000AD   F0           MOVX    @DPTR,A
   \   0000AE   A3           INC     DPTR
   1730            *pBuf++ = HI_UINT16( transmissionFailures );
   \   0000AF   EF           MOV     A,R7
   \   0000B0   12....       LCALL   ??Subroutine128_0 & 0xFFFF
   1731          
   1732            *pBuf++ = listCount;
   \                     ??CrossCallReturnLabel_282:
   \   0000B3   85..82       MOV     DPL,?XSP + 0
   \   0000B6   85..83       MOV     DPH,?XSP + 1
   \   0000B9   12....       LCALL   ??Subroutine129_0 & 0xFFFF
   1733          
   1734            if ( listCount > 0 )
   \                     ??CrossCallReturnLabel_287:
   \   0000BC   85..82       MOV     DPL,?XSP + 0
   \   0000BF   85..83       MOV     DPH,?XSP + 1
   \   0000C2   E0           MOVX    A,@DPTR
   \   0000C3   601B         JZ      ??ZDP_MgmtNwkUpdateNotify_2
   1735              osal_memcpy( pBuf, energyValues, listCount );
   \   0000C5                ; Setup parameters for call to function osal_memcpy
   \   0000C5   7420         MOV     A,#0x20
   \   0000C7   12....       LCALL   ?XSTACK_DISP0_8
   \   0000CA   12....       LCALL   ??Subroutine108_0 & 0xFFFF
   \                     ??CrossCallReturnLabel_186:
   \   0000CD   75..00       MOV     ?V0 + 2,#0x0
   \   0000D0   78..         MOV     R0,#?V0 + 0
   \   0000D2   12....       LCALL   ?PUSH_XSTACK_I_THREE
   \   0000D5   7403         MOV     A,#0x3
   \   0000D7   12....       LCALL   ?XSTACK_DISP0_8
   \   0000DA   12....       LCALL   ?Subroutine27 & 0xFFFF
   \                     ??CrossCallReturnLabel_31:
   \   0000DD   12....       LCALL   ?DEALLOC_XSTACK8
   1736          
   1737            FillAndSendBufferTxOptions( &TransSeq, dstAddr, Mgmt_NWK_Update_notify, len, buf, txOptions );
   \                     ??ZDP_MgmtNwkUpdateNotify_2:
   \   0000E0   7406         MOV     A,#0x6
   \   0000E2   12....       LCALL   ?XSTACK_DISP0_8
   \   0000E5   12....       LCALL   ?Subroutine43 & 0xFFFF
   \                     ??CrossCallReturnLabel_68:
   \   0000E8   12....       LCALL   ??Subroutine131_0 & 0xFFFF
   \                     ??CrossCallReturnLabel_305:
   \   0000EB   7422         MOV     A,#0x22
   \   0000ED   12....       LCALL   ?XSTACK_DISP0_8
   \   0000F0   E0           MOVX    A,@DPTR
   \   0000F1   90....       MOV     DPTR,#ZDP_TxOptions
   \   0000F4   F0           MOVX    @DPTR,A
   \   0000F5                ; Setup parameters for call to function fillAndSend
   \   0000F5   75..38       MOV     ?V0 + 0,#0x38
   \   0000F8   75..80       MOV     ?V0 + 1,#-0x80
   \   0000FB   78..         MOV     R0,#?V0 + 0
   \   0000FD   12....       LCALL   ?PUSH_XSTACK_I_TWO
   \   000100   7403         MOV     A,#0x3
   \   000102   12....       LCALL   ?XSTACK_DISP0_8
   \   000105   E0           MOVX    A,@DPTR
   \   000106   F9           MOV     R1,A
   \   000107   740A         MOV     A,#0xa
   \   000109   12....       LCALL   ?XSTACK_DISP0_8
   \   00010C   12....       LCALL   ?Subroutine41 & 0xFFFF
   \                     ??CrossCallReturnLabel_65:
   \   00010F   7407         MOV     A,#0x7
   \   000111   12....       LCALL   ?XSTACK_DISP0_8
   \   000114   12....       LCALL   ?Subroutine71 & 0xFFFF
   \                     ??CrossCallReturnLabel_151:
   \   000117   12....       LCALL   ?DEALLOC_XSTACK8
   \   00011A   E9           MOV     A,R1
   \   00011B   FE           MOV     R6,A
   \   00011C                ; Setup parameters for call to function osal_mem_free
   \   00011C   7402         MOV     A,#0x2
   \   00011E   12....       LCALL   ?XSTACK_DISP0_8
   \   000121   12....       LCALL   ??Subroutine132_0 & 0xFFFF
   \                     ??CrossCallReturnLabel_314:
   \   000124   12....       LCALL   ?Subroutine89 & 0xFFFF
   \                     ??CrossCallReturnLabel_221:
   \   000127   90....       MOV     DPTR,#ZDP_TxOptions
   \   00012A   E4           CLR     A
   \   00012B   F0           MOVX    @DPTR,A
   \   00012C   EE           MOV     A,R6
   \   00012D   F9           MOV     R1,A
   \                     ??ZDP_MgmtNwkUpdateNotify_1:
   \   00012E   740A         MOV     A,#0xa
   \   000130                REQUIRE ?Subroutine0
   \   000130                ; // Fall through to label ?Subroutine0
   1738          }
   1739          
   1740          /*********************************************************************
   1741           * Functions to register for ZDO Over-the-air messages
   1742           */
   1743          
   1744          /*********************************************************************
   1745           * @fn          ZDO_RegisterForZDOMsg
   1746           *
   1747           * @brief       Call this function to register of an incoming over
   1748           *              the air ZDO message - probably a response message
   1749           *              but requests can also be received.
   1750           *              Messages are delivered to the task with ZDO_CB_MSG
   1751           *              as the message ID.
   1752           *
   1753           * @param       taskID - Where you would like the message delivered
   1754           * @param       clusterID - What message?
   1755           *
   1756           * @return      ZSuccess - successful, ZMemError if not
   1757           */

   \                                 In  segment BANKED_CODE, align 1, keep-with-next
   1758          ZStatus_t ZDO_RegisterForZDOMsg( uint8 taskID, uint16 clusterID )
   \                     ZDO_RegisterForZDOMsg:
   1759          {
   \   000000   74F2         MOV     A,#-0xe
   \   000002   12....       LCALL   ?BANKED_ENTER_XDATA
   \   000005                ; Saved register size: 14
   \   000005                ; Auto size: 0
   \   000005   89..         MOV     ?V0 + 2,R1
   \   000007   8A..         MOV     ?V0 + 0,R2
   \   000009   8B..         MOV     ?V0 + 1,R3
   1760            ZDO_MsgCB_t *pList;
   1761            ZDO_MsgCB_t *pLast;
   1762            ZDO_MsgCB_t *pNew;
   1763          
   1764            // Look for duplicate
   1765            pList = pLast = zdoMsgCBs;
   \   00000B   90....       MOV     DPTR,#zdoMsgCBs
   \   00000E   12....       LCALL   ??Subroutine111_0 & 0xFFFF
   \                     ??CrossCallReturnLabel_204:
   \   000011   EE           MOV     A,R6
   \   000012   F8           MOV     R0,A
   \   000013   EF           MOV     A,R7
   \   000014   800C         SJMP    ??ZDO_RegisterForZDOMsg_0
   1766            while ( pList )
   1767            {
   1768              if ( pList->taskID == taskID && pList->clusterID == clusterID )
   1769                return ( ZSuccess );
   1770              pLast = pList;
   \                     ??ZDO_RegisterForZDOMsg_1:
   \   000016   E8           MOV     A,R0
   \   000017   FE           MOV     R6,A
   \   000018   E9           MOV     A,R1
   \   000019   FF           MOV     R7,A
   1771              pList = (ZDO_MsgCB_t *)pList->next;
   \   00001A   8882         MOV     DPL,R0
   \   00001C   8983         MOV     DPH,R1
   \   00001E   E0           MOVX    A,@DPTR
   \   00001F   F8           MOV     R0,A
   \   000020   A3           INC     DPTR
   \   000021   E0           MOVX    A,@DPTR
   \                     ??ZDO_RegisterForZDOMsg_0:
   \   000022   F9           MOV     R1,A
   \   000023   E8           MOV     A,R0
   \   000024   49           ORL     A,R1
   \   000025   6021         JZ      ??ZDO_RegisterForZDOMsg_2
   \   000027   8882         MOV     DPL,R0
   \   000029   8983         MOV     DPH,R1
   \   00002B   A3           INC     DPTR
   \   00002C   A3           INC     DPTR
   \   00002D   E0           MOVX    A,@DPTR
   \   00002E   65..         XRL     A,?V0 + 2
   \   000030   70E4         JNZ     ??ZDO_RegisterForZDOMsg_1
   \   000032   8882         MOV     DPL,R0
   \   000034   8983         MOV     DPH,R1
   \   000036   A3           INC     DPTR
   \   000037   A3           INC     DPTR
   \   000038   A3           INC     DPTR
   \   000039   E0           MOVX    A,@DPTR
   \   00003A   65..         XRL     A,?V0 + 0
   \   00003C   7004         JNZ     ??ZDO_RegisterForZDOMsg_3
   \   00003E   A3           INC     DPTR
   \   00003F   E0           MOVX    A,@DPTR
   \   000040   65..         XRL     A,?V0 + 1
   \                     ??ZDO_RegisterForZDOMsg_3:
   \   000042   70D2         JNZ     ??ZDO_RegisterForZDOMsg_1
   \                     ??ZDO_RegisterForZDOMsg_4:
   \   000044   7900         MOV     R1,#0x0
   \   000046   8048         SJMP    ??ZDO_RegisterForZDOMsg_5
   1772            }
   1773          
   1774            // Add to the list
   1775            pNew = (ZDO_MsgCB_t *)osal_mem_alloc( sizeof ( ZDO_MsgCB_t ) );
   \                     ??ZDO_RegisterForZDOMsg_2:
   \   000048                ; Setup parameters for call to function osal_mem_alloc
   \   000048   7A05         MOV     R2,#0x5
   \   00004A   7B00         MOV     R3,#0x0
   \   00004C   12....       LCALL   ??osal_mem_alloc?relay
   \   00004F   8A..         MOV     ?V0 + 4,R2
   \   000051   8B..         MOV     ?V0 + 5,R3
   \   000053   A8..         MOV     R0,?V0 + 4
   \   000055   A9..         MOV     R1,?V0 + 5
   1776            if ( pNew )
   \   000057   E8           MOV     A,R0
   \   000058   49           ORL     A,R1
   \   000059   6033         JZ      ??ZDO_RegisterForZDOMsg_6
   1777            {
   1778              pNew->taskID = taskID;
   \   00005B   8882         MOV     DPL,R0
   \   00005D   8983         MOV     DPH,R1
   \   00005F   A3           INC     DPTR
   \   000060   A3           INC     DPTR
   \   000061   E5..         MOV     A,?V0 + 2
   \   000063   12....       LCALL   ?Subroutine68 & 0xFFFF
   1779              pNew->clusterID = clusterID;
   \                     ??CrossCallReturnLabel_109:
   \   000066   A3           INC     DPTR
   \   000067   A3           INC     DPTR
   \   000068   A3           INC     DPTR
   \   000069   E5..         MOV     A,?V0 + 0
   \   00006B   F0           MOVX    @DPTR,A
   \   00006C   A3           INC     DPTR
   \   00006D   E5..         MOV     A,?V0 + 1
   \   00006F   12....       LCALL   ?Subroutine68 & 0xFFFF
   1780              pNew->next = NULL;
   \                     ??CrossCallReturnLabel_110:
   \   000072   E4           CLR     A
   \   000073   F0           MOVX    @DPTR,A
   \   000074   A3           INC     DPTR
   \   000075   F0           MOVX    @DPTR,A
   1781              if ( zdoMsgCBs )
   \   000076   90....       MOV     DPTR,#zdoMsgCBs
   \   000079   12....       LCALL   ??Subroutine132_0 & 0xFFFF
   \                     ??CrossCallReturnLabel_315:
   \   00007C   EA           MOV     A,R2
   \   00007D   4B           ORL     A,R3
   \   00007E   6009         JZ      ??ZDO_RegisterForZDOMsg_7
   1782              {
   1783                pLast->next = pNew;
   \   000080   8E82         MOV     DPL,R6
   \   000082   8F83         MOV     DPH,R7
   1784              }
   \                     ??ZDO_RegisterForZDOMsg_8:
   \   000084   12....       LCALL   ??Subroutine131_0 & 0xFFFF
   \                     ??CrossCallReturnLabel_306:
   \   000087   80BB         SJMP    ??ZDO_RegisterForZDOMsg_4
   1785              else
   1786                zdoMsgCBs = pNew;
   \                     ??ZDO_RegisterForZDOMsg_7:
   \   000089   90....       MOV     DPTR,#zdoMsgCBs
   \   00008C   80F6         SJMP    ??ZDO_RegisterForZDOMsg_8
   1787              return ( ZSuccess );
   1788            }
   1789            else
   1790              return ( ZMemError );
   \                     ??ZDO_RegisterForZDOMsg_6:
   \   00008E   7910         MOV     R1,#0x10
   \                     ??ZDO_RegisterForZDOMsg_5:
   \   000090   02....       LJMP    ??Subroutine127_0 & 0xFFFF
   1791          }
   1792          
   1793          /*********************************************************************
   1794           * @fn          ZDO_RemoveRegisteredCB
   1795           *
   1796           * @brief       Call this function if you don't want to receive the
   1797           *              incoming message.
   1798           *
   1799           * @param       taskID - Where the messages are being delivered.
   1800           * @param       clusterID - What message?
   1801           *
   1802           * @return      ZSuccess - successful, ZFailure if not found
   1803           */

   \                                 In  segment BANKED_CODE, align 1, keep-with-next
   1804          ZStatus_t ZDO_RemoveRegisteredCB( uint8 taskID, uint16 clusterID )
   \                     ZDO_RemoveRegisteredCB:
   1805          {
   \   000000   74F7         MOV     A,#-0x9
   \   000002   12....       LCALL   ?BANKED_ENTER_XDATA
   \   000005                ; Saved register size: 9
   \   000005                ; Auto size: 0
   \   000005   E9           MOV     A,R1
   \   000006   FE           MOV     R6,A
   1806            ZDO_MsgCB_t *pList;
   1807            ZDO_MsgCB_t *pLast = NULL;
   \   000007   7C00         MOV     R4,#0x0
   \   000009   7D00         MOV     R5,#0x0
   1808          
   1809            pList = zdoMsgCBs;
   \   00000B   90....       MOV     DPTR,#zdoMsgCBs
   \   00000E   8008         SJMP    ??ZDO_RemoveRegisteredCB_0
   1810            while ( pList )
   1811            {
   1812              if ( pList->taskID == taskID && pList->clusterID == clusterID )
   1813              {
   1814                if ( pLast )
   1815                {
   1816                  // remove this one from the linked list
   1817                  pLast->next = pList->next;
   1818                }
   1819                else if ( pList->next )
   1820                {
   1821                  // remove the first one from the linked list
   1822                  zdoMsgCBs = pList->next;
   1823                }
   1824                else
   1825                {
   1826                  // remove the only item from the list
   1827                  zdoMsgCBs = (ZDO_MsgCB_t *)NULL;
   1828                }
   1829                osal_mem_free( pList );
   1830                return ( ZSuccess );
   1831              }
   1832              pLast = pList;
   \                     ??ZDO_RemoveRegisteredCB_1:
   \   000010   E8           MOV     A,R0
   \   000011   FC           MOV     R4,A
   \   000012   E9           MOV     A,R1
   \   000013   FD           MOV     R5,A
   1833              pList = pList->next;
   \   000014   8882         MOV     DPL,R0
   \   000016   8983         MOV     DPH,R1
   \                     ??ZDO_RemoveRegisteredCB_0:
   \   000018   12....       LCALL   ?Subroutine53 & 0xFFFF
   \                     ??CrossCallReturnLabel_84:
   \   00001B   49           ORL     A,R1
   \   00001C   6045         JZ      ??ZDO_RemoveRegisteredCB_2
   \   00001E   8882         MOV     DPL,R0
   \   000020   8983         MOV     DPH,R1
   \   000022   A3           INC     DPTR
   \   000023   A3           INC     DPTR
   \   000024   E0           MOVX    A,@DPTR
   \   000025   6E           XRL     A,R6
   \   000026   70E8         JNZ     ??ZDO_RemoveRegisteredCB_1
   \   000028   8882         MOV     DPL,R0
   \   00002A   8983         MOV     DPH,R1
   \   00002C   A3           INC     DPTR
   \   00002D   A3           INC     DPTR
   \   00002E   A3           INC     DPTR
   \   00002F   E0           MOVX    A,@DPTR
   \   000030   6A           XRL     A,R2
   \   000031   7003         JNZ     ??ZDO_RemoveRegisteredCB_3
   \   000033   A3           INC     DPTR
   \   000034   E0           MOVX    A,@DPTR
   \   000035   6B           XRL     A,R3
   \                     ??ZDO_RemoveRegisteredCB_3:
   \   000036   70D8         JNZ     ??ZDO_RemoveRegisteredCB_1
   \   000038   8882         MOV     DPL,R0
   \   00003A   8983         MOV     DPH,R1
   \   00003C   12....       LCALL   ??Subroutine132_0 & 0xFFFF
   \                     ??CrossCallReturnLabel_316:
   \   00003F   EC           MOV     A,R4
   \   000040   4D           ORL     A,R5
   \   000041   600A         JZ      ??ZDO_RemoveRegisteredCB_4
   \   000043   8C82         MOV     DPL,R4
   \   000045   8D83         MOV     DPH,R5
   \                     ??ZDO_RemoveRegisteredCB_5:
   \   000047   EA           MOV     A,R2
   \   000048   F0           MOVX    @DPTR,A
   \   000049   A3           INC     DPTR
   \   00004A   EB           MOV     A,R3
   \   00004B   800A         SJMP    ??ZDO_RemoveRegisteredCB_6
   \                     ??ZDO_RemoveRegisteredCB_4:
   \   00004D   EA           MOV     A,R2
   \   00004E   4B           ORL     A,R3
   \   00004F   90....       MOV     DPTR,#zdoMsgCBs
   \   000052   70F3         JNZ     ??ZDO_RemoveRegisteredCB_5
   \   000054   E4           CLR     A
   \   000055   F0           MOVX    @DPTR,A
   \   000056   A3           INC     DPTR
   \                     ??ZDO_RemoveRegisteredCB_6:
   \   000057   F0           MOVX    @DPTR,A
   \   000058                ; Setup parameters for call to function osal_mem_free
   \   000058   E8           MOV     A,R0
   \   000059   FA           MOV     R2,A
   \   00005A   E9           MOV     A,R1
   \   00005B   FB           MOV     R3,A
   \   00005C   12....       LCALL   ??osal_mem_free?relay
   \   00005F   7900         MOV     R1,#0x0
   \   000061   8002         SJMP    ??ZDO_RemoveRegisteredCB_7
   1834            }
   1835          
   1836            return ( ZFailure );
   \                     ??ZDO_RemoveRegisteredCB_2:
   \   000063   7901         MOV     R1,#0x1
   \                     ??ZDO_RemoveRegisteredCB_7:
   \   000065   7F01         MOV     R7,#0x1
   \   000067   02....       LJMP    ?BANKED_LEAVE_XDATA
   1837          }
   1838          
   1839          /*********************************************************************
   1840           * @fn          ZDO_SendMsgCBs
   1841           *
   1842           * @brief       This function sends messages to registered tasks.
   1843           *              Local to ZDO and shouldn't be called outside of ZDO.
   1844           *
   1845           * @param       inMsg - incoming message
   1846           *
   1847           * @return      TRUE if sent to at least 1 task, FALSE if not
   1848           */

   \                                 In  segment BANKED_CODE, align 1, keep-with-next
   \                     ??Subroutine104_0:
   \   000000   A3           INC     DPTR
   \   000001                REQUIRE ??Subroutine105_0
   \   000001                ; // Fall through to label ??Subroutine105_0

   \                                 In  segment BANKED_CODE, align 1, keep-with-next
   \                     ?Subroutine72:
   \   000000   E5..         MOV     A,?V0 + 6
   \   000002   2410         ADD     A,#0x10
   \   000004                REQUIRE ??Subroutine114_0
   \   000004                ; // Fall through to label ??Subroutine114_0

   \                                 In  segment BANKED_CODE, align 1, keep-with-next
   \                     ??Subroutine114_0:
   \   000000   F582         MOV     DPL,A
   \   000002   E5..         MOV     A,?V0 + 7
   \   000004                REQUIRE ??Subroutine115_0
   \   000004                ; // Fall through to label ??Subroutine115_0

   \                                 In  segment BANKED_CODE, align 1, keep-with-next
   1849          uint8 ZDO_SendMsgCBs( zdoIncomingMsg_t *inMsg )
   \                     ZDO_SendMsgCBs:
   1850          {
   \   000000   74F0         MOV     A,#-0x10
   \   000002   12....       LCALL   ?BANKED_ENTER_XDATA
   \   000005                ; Saved register size: 16
   \   000005                ; Auto size: 0
   \   000005   8A..         MOV     ?V0 + 6,R2
   \   000007   8B..         MOV     ?V0 + 7,R3
   1851            uint8 ret = FALSE;
   \   000009   75..00       MOV     ?V0 + 0,#0x0
   1852            ZDO_MsgCB_t *pList = zdoMsgCBs;
   \   00000C   90....       MOV     DPTR,#zdoMsgCBs
   \   00000F   02....       LJMP    ??ZDO_SendMsgCBs_0 & 0xFFFF
   1853            while ( pList )
   1854            {
   1855              if ( pList->clusterID == inMsg->clusterID )
   \                     ??ZDO_SendMsgCBs_1:
   \   000012   85..82       MOV     DPL,?V0 + 4
   \   000015   85..83       MOV     DPH,?V0 + 5
   \   000018   12....       LCALL   ??Subroutine104_0 & 0xFFFF
   \                     ??CrossCallReturnLabel_167:
   \   00001B   E5..         MOV     A,?V0 + 6
   \   00001D   240C         ADD     A,#0xc
   \   00001F   12....       LCALL   ??Subroutine114_0 & 0xFFFF
   \                     ??CrossCallReturnLabel_213:
   \   000022   68           XRL     A,R0
   \   000023   7003         JNZ     ??ZDO_SendMsgCBs_2
   \   000025   A3           INC     DPTR
   \   000026   E0           MOVX    A,@DPTR
   \   000027   69           XRL     A,R1
   \                     ??ZDO_SendMsgCBs_2:
   \   000028   6003         JZ      $+5
   \   00002A   02....       LJMP    ??ZDO_SendMsgCBs_3 & 0xFFFF
   1856              {
   1857                zdoIncomingMsg_t *msgPtr;
   1858          
   1859                // Send the address to the task
   1860                msgPtr = (zdoIncomingMsg_t *)osal_msg_allocate( sizeof( zdoIncomingMsg_t ) + inMsg->asduLen );
   \   00002D                ; Setup parameters for call to function osal_msg_allocate
   \   00002D   12....       LCALL   ?Subroutine72 & 0xFFFF
   \                     ??CrossCallReturnLabel_214:
   \   000030   2415         ADD     A,#0x15
   \   000032   FA           MOV     R2,A
   \   000033   E4           CLR     A
   \   000034   3400         ADDC    A,#0x0
   \   000036   FB           MOV     R3,A
   \   000037   12....       LCALL   ??osal_msg_allocate?relay
   \   00003A   8A..         MOV     ?V0 + 2,R2
   \   00003C   8B..         MOV     ?V0 + 3,R3
   \   00003E   AE..         MOV     R6,?V0 + 2
   \   000040   AF..         MOV     R7,?V0 + 3
   1861                if ( msgPtr )
   \   000042   EE           MOV     A,R6
   \   000043   4F           ORL     A,R7
   \   000044   6068         JZ      ??ZDO_SendMsgCBs_3
   1862                {
   1863                  // copy struct
   1864                  osal_memcpy( msgPtr, inMsg, sizeof( zdoIncomingMsg_t ));
   \   000046                ; Setup parameters for call to function osal_memcpy
   \   000046   85....       MOV     ?V0 + 0,?V0 + 6
   \   000049   85....       MOV     ?V0 + 1,?V0 + 7
   \   00004C   75..00       MOV     ?V0 + 2,#0x0
   \   00004F   78..         MOV     R0,#?V0 + 0
   \   000051   12....       LCALL   ?PUSH_XSTACK_I_THREE
   \   000054   7C15         MOV     R4,#0x15
   \   000056   12....       LCALL   ?Subroutine88 & 0xFFFF
   \                     ??CrossCallReturnLabel_298:
   \   000059   12....       LCALL   ?DEALLOC_XSTACK8
   1865          
   1866                  if ( inMsg->asduLen )
   \   00005C   12....       LCALL   ?Subroutine72 & 0xFFFF
   \                     ??CrossCallReturnLabel_215:
   \   00005F   6032         JZ      ??ZDO_SendMsgCBs_4
   1867                  {
   1868                    msgPtr->asdu = (byte*)(((byte*)msgPtr) + sizeof( zdoIncomingMsg_t ));
   \   000061   EE           MOV     A,R6
   \   000062   2415         ADD     A,#0x15
   \   000064   FA           MOV     R2,A
   \   000065   EF           MOV     A,R7
   \   000066   3400         ADDC    A,#0x0
   \   000068   FB           MOV     R3,A
   \   000069   EE           MOV     A,R6
   \   00006A   2413         ADD     A,#0x13
   \   00006C   12....       LCALL   ?Subroutine74 & 0xFFFF
   \                     ??CrossCallReturnLabel_325:
   \   00006F   12....       LCALL   ??Subroutine119_0 & 0xFFFF
   1869                    osal_memcpy( msgPtr->asdu, inMsg->asdu, inMsg->asduLen );
   \                     ??CrossCallReturnLabel_242:
   \   000072                ; Setup parameters for call to function osal_memcpy
   \   000072   E5..         MOV     A,?V0 + 6
   \   000074   2413         ADD     A,#0x13
   \   000076   F582         MOV     DPL,A
   \   000078   E5..         MOV     A,?V0 + 7
   \   00007A   12....       LCALL   ?Subroutine37 & 0xFFFF
   1870                  }
   \                     ??CrossCallReturnLabel_188:
   \   00007D   78..         MOV     R0,#?V0 + 0
   \   00007F   12....       LCALL   ?PUSH_XSTACK_I_THREE
   \   000082   E5..         MOV     A,?V0 + 6
   \   000084   2410         ADD     A,#0x10
   \   000086   F582         MOV     DPL,A
   \   000088   E5..         MOV     A,?V0 + 7
   \   00008A   12....       LCALL   ??Subroutine133_0 & 0xFFFF
   \                     ??CrossCallReturnLabel_321:
   \   00008D   12....       LCALL   ?Subroutine27 & 0xFFFF
   \                     ??CrossCallReturnLabel_32:
   \   000090   12....       LCALL   ?DEALLOC_XSTACK8
   1871          
   1872                  msgPtr->hdr.event = ZDO_CB_MSG;
   \                     ??ZDO_SendMsgCBs_4:
   \   000093   8E82         MOV     DPL,R6
   \   000095   8F83         MOV     DPH,R7
   \   000097   74D3         MOV     A,#-0x2d
   \   000099   F0           MOVX    @DPTR,A
   1873                  osal_msg_send( pList->taskID, (uint8 *)msgPtr );
   \   00009A                ; Setup parameters for call to function osal_msg_send
   \   00009A   EE           MOV     A,R6
   \   00009B   FA           MOV     R2,A
   \   00009C   EF           MOV     A,R7
   \   00009D   FB           MOV     R3,A
   \   00009E   85..82       MOV     DPL,?V0 + 4
   \   0000A1   85..83       MOV     DPH,?V0 + 5
   \   0000A4   A3           INC     DPTR
   \   0000A5   A3           INC     DPTR
   \   0000A6   E0           MOVX    A,@DPTR
   \   0000A7   F9           MOV     R1,A
   \   0000A8   12....       LCALL   ??osal_msg_send?relay
   1874                  ret = TRUE;
   \   0000AB   75..01       MOV     ?V0 + 0,#0x1
   1875                }
   1876              }
   1877              pList = (ZDO_MsgCB_t *)pList->next;
   \                     ??ZDO_SendMsgCBs_3:
   \   0000AE   85..82       MOV     DPL,?V0 + 4
   \   0000B1   85..83       MOV     DPH,?V0 + 5
   1878            }
   \                     ??ZDO_SendMsgCBs_0:
   \   0000B4   12....       LCALL   ?Subroutine18 & 0xFFFF
   \                     ??CrossCallReturnLabel_16:
   \   0000B7   E5..         MOV     A,?V0 + 4
   \   0000B9   45..         ORL     A,?V0 + 5
   \   0000BB   6003         JZ      $+5
   \   0000BD   02....       LJMP    ??ZDO_SendMsgCBs_1 & 0xFFFF
   1879            return ( ret );
   \   0000C0   A9..         MOV     R1,?V0 + 0
   \   0000C2   02....       LJMP    ??Subroutine113_0 & 0xFFFF
   1880          }
   1881          
   1882          /*********************************************************************
   1883           * Incoming message processor
   1884           */
   1885          
   1886          /*********************************************************************
   1887           * @fn          ZDP_IncomingData
   1888           *
   1889           * @brief       This function indicates the transfer of a data PDU (ASDU)
   1890           *              from the APS sub-layer to the ZDO.
   1891           *
   1892           * @param       pData - Incoming Message
   1893           *
   1894           * @return      none
   1895           */

   \                                 In  segment BANKED_CODE, align 1, keep-with-next
   \                     ?Subroutine54:
   \   000000   A3           INC     DPTR
   \   000001                REQUIRE ??Subroutine104_0
   \   000001                ; // Fall through to label ??Subroutine104_0

   \                                 In  segment BANKED_CODE, align 1, keep-with-next
   1896          void ZDP_IncomingData( afIncomingMSGPacket_t *pData )
   \                     ZDP_IncomingData:
   1897          {
   \   000000   74F6         MOV     A,#-0xa
   \   000002   12....       LCALL   ?BANKED_ENTER_XDATA
   \   000005                ; Saved register size: 10
   \   000005                ; Auto size: 21
   \   000005   74EB         MOV     A,#-0x15
   \   000007   12....       LCALL   ?ALLOC_XSTACK8
   1898            uint8 x = 0;
   \   00000A   7E00         MOV     R6,#0x0
   1899            uint8 handled;
   1900            zdoIncomingMsg_t inMsg;
   1901          
   1902            inMsg.srcAddr.addrMode = Addr16Bit;
   \   00000C   740A         MOV     A,#0xa
   \   00000E   12....       LCALL   ?XSTACK_DISP0_8
   \   000011   7402         MOV     A,#0x2
   \   000013   F0           MOVX    @DPTR,A
   1903            inMsg.srcAddr.addr.shortAddr = pData->srcAddr.addr.shortAddr;
   \   000014   8A82         MOV     DPL,R2
   \   000016   8B83         MOV     DPH,R3
   \   000018   A3           INC     DPTR
   \   000019   A3           INC     DPTR
   \   00001A   12....       LCALL   ?Subroutine54 & 0xFFFF
   \                     ??CrossCallReturnLabel_168:
   \   00001D   7402         MOV     A,#0x2
   \   00001F   12....       LCALL   ?XSTACK_DISP0_8
   \   000022   12....       LCALL   ??Subroutine131_0 & 0xFFFF
   1904            inMsg.wasBroadcast = pData->wasBroadcast;
   \                     ??CrossCallReturnLabel_307:
   \   000025   EA           MOV     A,R2
   \   000026   2415         ADD     A,#0x15
   \   000028   F582         MOV     DPL,A
   \   00002A   EB           MOV     A,R3
   \   00002B   12....       LCALL   ??Subroutine115_0 & 0xFFFF
   \                     ??CrossCallReturnLabel_210:
   \   00002E   C0E0         PUSH    A
   \   000030   740B         MOV     A,#0xb
   \   000032   12....       LCALL   ?XSTACK_DISP0_8
   \   000035   D0E0         POP     A
   \   000037   F0           MOVX    @DPTR,A
   1905            inMsg.clusterID = pData->clusterId;
   \   000038   8A82         MOV     DPL,R2
   \   00003A   8B83         MOV     DPH,R3
   \   00003C   12....       LCALL   ?Subroutine54 & 0xFFFF
   \                     ??CrossCallReturnLabel_169:
   \   00003F   740C         MOV     A,#0xc
   \   000041   12....       LCALL   ?XSTACK_DISP0_8
   \   000044   12....       LCALL   ??Subroutine131_0 & 0xFFFF
   1906            inMsg.SecurityUse = pData->SecurityUse;
   \                     ??CrossCallReturnLabel_308:
   \   000047   EA           MOV     A,R2
   \   000048   2419         ADD     A,#0x19
   \   00004A   F582         MOV     DPL,A
   \   00004C   EB           MOV     A,R3
   \   00004D   12....       LCALL   ??Subroutine115_0 & 0xFFFF
   \                     ??CrossCallReturnLabel_211:
   \   000050   C0E0         PUSH    A
   \   000052   740E         MOV     A,#0xe
   \   000054   12....       LCALL   ?XSTACK_DISP0_8
   \   000057   D0E0         POP     A
   \   000059   F0           MOVX    @DPTR,A
   1907          
   1908            inMsg.asduLen = pData->cmd.DataLength-1;
   \   00005A   EA           MOV     A,R2
   \   00005B   2420         ADD     A,#0x20
   \   00005D   F582         MOV     DPL,A
   \   00005F   EB           MOV     A,R3
   \   000060   12....       LCALL   ??Subroutine115_0 & 0xFFFF
   \                     ??CrossCallReturnLabel_212:
   \   000063   14           DEC     A
   \   000064   C0E0         PUSH    A
   \   000066   7410         MOV     A,#0x10
   \   000068   12....       LCALL   ?XSTACK_DISP0_8
   \   00006B   D0E0         POP     A
   \   00006D   F0           MOVX    @DPTR,A
   1909            inMsg.asdu = pData->cmd.Data+1;
   \   00006E   EA           MOV     A,R2
   \   00006F   2422         ADD     A,#0x22
   \   000071   F8           MOV     R0,A
   \   000072   EB           MOV     A,R3
   \   000073   12....       LCALL   ?Subroutine87 & 0xFFFF
   \                     ??CrossCallReturnLabel_125:
   \   000076   E0           MOVX    A,@DPTR
   \   000077   2401         ADD     A,#0x1
   \   000079   FC           MOV     R4,A
   \   00007A   A3           INC     DPTR
   \   00007B   E0           MOVX    A,@DPTR
   \   00007C   3400         ADDC    A,#0x0
   \   00007E   FD           MOV     R5,A
   \   00007F   7413         MOV     A,#0x13
   \   000081   12....       LCALL   ?XSTACK_DISP0_8
   \   000084   EC           MOV     A,R4
   \   000085   F0           MOVX    @DPTR,A
   \   000086   A3           INC     DPTR
   \   000087   ED           MOV     A,R5
   \   000088   12....       LCALL   ?Subroutine68 & 0xFFFF
   1910            inMsg.TransSeq = pData->cmd.Data[0];
   \                     ??CrossCallReturnLabel_111:
   \   00008B   12....       LCALL   ?Subroutine30 & 0xFFFF
   \                     ??CrossCallReturnLabel_39:
   \   00008E   C0E0         PUSH    A
   \   000090   740F         MOV     A,#0xf
   \   000092   12....       LCALL   ?XSTACK_DISP0_8
   \   000095   D0E0         POP     A
   \   000097   F0           MOVX    @DPTR,A
   1911            inMsg.macDestAddr = pData->macDestAddr;
   \   000098   EA           MOV     A,R2
   \   000099   2412         ADD     A,#0x12
   \   00009B   F582         MOV     DPL,A
   \   00009D   EB           MOV     A,R3
   \   00009E   12....       LCALL   ??Subroutine133_0 & 0xFFFF
   \                     ??CrossCallReturnLabel_322:
   \   0000A1   12....       LCALL   ??Subroutine106_0 & 0xFFFF
   \                     ??CrossCallReturnLabel_165:
   \   0000A4   7411         MOV     A,#0x11
   \   0000A6   12....       LCALL   ?XSTACK_DISP0_8
   \   0000A9   12....       LCALL   ??Subroutine131_0 & 0xFFFF
   1912          
   1913            handled = ZDO_SendMsgCBs( &inMsg );
   \                     ??CrossCallReturnLabel_309:
   \   0000AC                ; Setup parameters for call to function ZDO_SendMsgCBs
   \   0000AC   85..82       MOV     DPL,?XSP + 0
   \   0000AF   85..83       MOV     DPH,?XSP + 1
   \   0000B2   AA82         MOV     R2,DPL
   \   0000B4   AB83         MOV     R3,DPH
   \   0000B6   12....       LCALL   ??ZDO_SendMsgCBs?relay
   \   0000B9   E9           MOV     A,R1
   \   0000BA   FC           MOV     R4,A
   \   0000BB   8001         SJMP    ??ZDP_IncomingData_0
   1914          
   1915          #if (defined MT_ZDO_CB_FUNC)
   1916          #if !defined MT_TASK
   1917            if (zgZdoDirectCB)
   1918          #endif
   1919            {
   1920              MT_ZdoDirectCB( pData, &inMsg );
   1921            }
   1922          #endif
   1923          
   1924            while ( zdpMsgProcs[x].clusterID != 0xFFFF )
   1925            {
   1926              if ( zdpMsgProcs[x].clusterID == inMsg.clusterID )
   1927              {
   1928                zdpMsgProcs[x].pFn( &inMsg );
   1929                return;
   1930              }
   1931              x++;
   \                     ??ZDP_IncomingData_1:
   \   0000BD   0E           INC     R6
   \                     ??ZDP_IncomingData_0:
   \   0000BE   8E..         MOV     ?V0 + 0,R6
   \   0000C0   75..00       MOV     ?V0 + 1,#0x0
   \   0000C3   7402         MOV     A,#0x2
   \   0000C5   78..         MOV     R0,#?V0 + 0
   \   0000C7   12....       LCALL   ?S_SHL
   \   0000CA   74..         MOV     A,#zdpMsgProcs & 0xff
   \   0000CC   25..         ADD     A,?V0 + 0
   \   0000CE   F8           MOV     R0,A
   \   0000CF   74..         MOV     A,#(zdpMsgProcs >> 8) & 0xff
   \   0000D1   35..         ADDC    A,?V0 + 1
   \   0000D3   F9           MOV     R1,A
   \   0000D4   8882         MOV     DPL,R0
   \   0000D6   8983         MOV     DPH,R1
   \   0000D8   E4           CLR     A
   \   0000D9   93           MOVC    A,@A+DPTR
   \   0000DA   C0E0         PUSH    A
   \   0000DC   7401         MOV     A,#0x1
   \   0000DE   93           MOVC    A,@A+DPTR
   \   0000DF   F583         MOV     DPH,A
   \   0000E1   D082         POP     DPL
   \   0000E3   AA82         MOV     R2,DPL
   \   0000E5   AB83         MOV     R3,DPH
   \   0000E7   74FF         MOV     A,#-0x1
   \   0000E9   6A           XRL     A,R2
   \   0000EA   7003         JNZ     ??ZDP_IncomingData_2
   \   0000EC   74FF         MOV     A,#-0x1
   \   0000EE   6B           XRL     A,R3
   \                     ??ZDP_IncomingData_2:
   \   0000EF   602E         JZ      ??ZDP_IncomingData_3
   \   0000F1   740C         MOV     A,#0xc
   \   0000F3   12....       LCALL   ?XSTACK_DISP0_8
   \   0000F6   E0           MOVX    A,@DPTR
   \   0000F7   6A           XRL     A,R2
   \   0000F8   7003         JNZ     ??ZDP_IncomingData_4
   \   0000FA   A3           INC     DPTR
   \   0000FB   E0           MOVX    A,@DPTR
   \   0000FC   6B           XRL     A,R3
   \                     ??ZDP_IncomingData_4:
   \   0000FD   70BE         JNZ     ??ZDP_IncomingData_1
   \   0000FF                ; Setup parameters for indirect call
   \   0000FF   85..82       MOV     DPL,?XSP + 0
   \   000102   85..83       MOV     DPH,?XSP + 1
   \   000105   AA82         MOV     R2,DPL
   \   000107   AB83         MOV     R3,DPH
   \   000109   8882         MOV     DPL,R0
   \   00010B   8983         MOV     DPH,R1
   \   00010D   A3           INC     DPTR
   \   00010E   A3           INC     DPTR
   \   00010F   E4           CLR     A
   \   000110   93           MOVC    A,@A+DPTR
   \   000111   C0E0         PUSH    A
   \   000113   7401         MOV     A,#0x1
   \   000115   93           MOVC    A,@A+DPTR
   \   000116   F583         MOV     DPH,A
   \   000118   D082         POP     DPL
   \   00011A   12....       LCALL   ?CALL_IND
   \   00011D   8010         SJMP    ??ZDP_IncomingData_5
   1932            }
   1933          
   1934            // Handle unhandled messages
   1935            if ( !handled )
   \                     ??ZDP_IncomingData_3:
   \   00011F   EC           MOV     A,R4
   \   000120   700D         JNZ     ??ZDP_IncomingData_5
   1936              ZDApp_InMsgCB( &inMsg );
   \   000122                ; Setup parameters for call to function ZDApp_InMsgCB
   \   000122   85..82       MOV     DPL,?XSP + 0
   \   000125   85..83       MOV     DPH,?XSP + 1
   \   000128   AA82         MOV     R2,DPL
   \   00012A   AB83         MOV     R3,DPH
   \   00012C   12....       LCALL   ??ZDApp_InMsgCB?relay
   \                     ??ZDP_IncomingData_5:
   \   00012F   7415         MOV     A,#0x15
   \   000131   02....       LJMP    ??Subroutine97_0 & 0xFFFF
   1937          }

   \                                 In  segment XDATA_ID, align 1, keep-with-next
   \                     `?<Initializer for ZDP_TmpBuf>`:
   \   000000   ....         DW ZDP_Buf + 1H

   \                                 In  segment BANK_RELAYS, align 1
   \                     ??fillAndSend?relay:
   \   000000   12....       LCALL   ?BDISPATCH
   \   000003   ......       DC24    fillAndSend

   \                                 In  segment BANK_RELAYS, align 1
   \                     ??ZDP_SendData?relay:
   \   000000   12....       LCALL   ?BDISPATCH
   \   000003   ......       DC24    ZDP_SendData

   \                                 In  segment BANK_RELAYS, align 1
   \                     ??ZDP_NWKAddrOfInterestReq?relay:
   \   000000   12....       LCALL   ?BDISPATCH
   \   000003   ......       DC24    ZDP_NWKAddrOfInterestReq

   \                                 In  segment BANK_RELAYS, align 1
   \                     ??ZDP_NwkAddrReq?relay:
   \   000000   12....       LCALL   ?BDISPATCH
   \   000003   ......       DC24    ZDP_NwkAddrReq

   \                                 In  segment BANK_RELAYS, align 1
   \                     ??ZDP_IEEEAddrReq?relay:
   \   000000   12....       LCALL   ?BDISPATCH
   \   000003   ......       DC24    ZDP_IEEEAddrReq

   \                                 In  segment BANK_RELAYS, align 1
   \                     ??ZDP_MatchDescReq?relay:
   \   000000   12....       LCALL   ?BDISPATCH
   \   000003   ......       DC24    ZDP_MatchDescReq

   \                                 In  segment BANK_RELAYS, align 1
   \                     ??ZDP_SimpleDescReq?relay:
   \   000000   12....       LCALL   ?BDISPATCH
   \   000003   ......       DC24    ZDP_SimpleDescReq

   \                                 In  segment BANK_RELAYS, align 1
   \                     ??ZDP_UserDescSet?relay:
   \   000000   12....       LCALL   ?BDISPATCH
   \   000003   ......       DC24    ZDP_UserDescSet

   \                                 In  segment BANK_RELAYS, align 1
   \                     ??ZDP_ServerDiscReq?relay:
   \   000000   12....       LCALL   ?BDISPATCH
   \   000003   ......       DC24    ZDP_ServerDiscReq

   \                                 In  segment BANK_RELAYS, align 1
   \                     ??ZDP_DeviceAnnce?relay:
   \   000000   12....       LCALL   ?BDISPATCH
   \   000003   ......       DC24    ZDP_DeviceAnnce

   \                                 In  segment BANK_RELAYS, align 1
   \                     ??zdpProcessAddrReq?relay:
   \   000000   12....       LCALL   ?BDISPATCH
   \   000003   ......       DC24    zdpProcessAddrReq

   \                                 In  segment BANK_RELAYS, align 1
   \                     ??ZDP_NodeDescMsg?relay:
   \   000000   12....       LCALL   ?BDISPATCH
   \   000003   ......       DC24    ZDP_NodeDescMsg

   \                                 In  segment BANK_RELAYS, align 1
   \                     ??ZDP_PowerDescMsg?relay:
   \   000000   12....       LCALL   ?BDISPATCH
   \   000003   ......       DC24    ZDP_PowerDescMsg

   \                                 In  segment BANK_RELAYS, align 1
   \                     ??ZDP_SimpleDescMsg?relay:
   \   000000   12....       LCALL   ?BDISPATCH
   \   000003   ......       DC24    ZDP_SimpleDescMsg

   \                                 In  segment BANK_RELAYS, align 1
   \                     ??ZDP_EPRsp?relay:
   \   000000   12....       LCALL   ?BDISPATCH
   \   000003   ......       DC24    ZDP_EPRsp

   \                                 In  segment BANK_RELAYS, align 1
   \                     ??ZDP_UserDescRsp?relay:
   \   000000   12....       LCALL   ?BDISPATCH
   \   000003   ......       DC24    ZDP_UserDescRsp

   \                                 In  segment BANK_RELAYS, align 1
   \                     ??ZDP_ServerDiscRsp?relay:
   \   000000   12....       LCALL   ?BDISPATCH
   \   000003   ......       DC24    ZDP_ServerDiscRsp

   \                                 In  segment BANK_RELAYS, align 1
   \                     ??ZDP_GenericRsp?relay:
   \   000000   12....       LCALL   ?BDISPATCH
   \   000003   ......       DC24    ZDP_GenericRsp

   \                                 In  segment BANK_RELAYS, align 1
   \                     ??ZDP_EndDeviceBindReq?relay:
   \   000000   12....       LCALL   ?BDISPATCH
   \   000003   ......       DC24    ZDP_EndDeviceBindReq

   \                                 In  segment BANK_RELAYS, align 1
   \                     ??ZDP_BindUnbindReq?relay:
   \   000000   12....       LCALL   ?BDISPATCH
   \   000003   ......       DC24    ZDP_BindUnbindReq

   \                                 In  segment BANK_RELAYS, align 1
   \                     ??ZDP_MgmtNwkDiscReq?relay:
   \   000000   12....       LCALL   ?BDISPATCH
   \   000003   ......       DC24    ZDP_MgmtNwkDiscReq

   \                                 In  segment BANK_RELAYS, align 1
   \                     ??ZDP_MgmtDirectJoinReq?relay:
   \   000000   12....       LCALL   ?BDISPATCH
   \   000003   ......       DC24    ZDP_MgmtDirectJoinReq

   \                                 In  segment BANK_RELAYS, align 1
   \                     ??ZDP_MgmtPermitJoinReq?relay:
   \   000000   12....       LCALL   ?BDISPATCH
   \   000003   ......       DC24    ZDP_MgmtPermitJoinReq

   \                                 In  segment BANK_RELAYS, align 1
   \                     ??ZDP_MgmtLeaveReq?relay:
   \   000000   12....       LCALL   ?BDISPATCH
   \   000003   ......       DC24    ZDP_MgmtLeaveReq

   \                                 In  segment BANK_RELAYS, align 1
   \                     ??ZDP_MgmtNwkUpdateReq?relay:
   \   000000   12....       LCALL   ?BDISPATCH
   \   000003   ......       DC24    ZDP_MgmtNwkUpdateReq

   \                                 In  segment BANK_RELAYS, align 1
   \                     ??ZDP_MgmtNwkDiscRsp?relay:
   \   000000   12....       LCALL   ?BDISPATCH
   \   000003   ......       DC24    ZDP_MgmtNwkDiscRsp

   \                                 In  segment BANK_RELAYS, align 1
   \                     ??ZDP_MgmtLqiRsp?relay:
   \   000000   12....       LCALL   ?BDISPATCH
   \   000003   ......       DC24    ZDP_MgmtLqiRsp

   \                                 In  segment BANK_RELAYS, align 1
   \                     ??ZDP_MgmtRtgRsp?relay:
   \   000000   12....       LCALL   ?BDISPATCH
   \   000003   ......       DC24    ZDP_MgmtRtgRsp

   \                                 In  segment BANK_RELAYS, align 1
   \                     ??ZDP_MgmtBindRsp?relay:
   \   000000   12....       LCALL   ?BDISPATCH
   \   000003   ......       DC24    ZDP_MgmtBindRsp

   \                                 In  segment BANK_RELAYS, align 1
   \                     ??ZDP_MgmtNwkUpdateNotify?relay:
   \   000000   12....       LCALL   ?BDISPATCH
   \   000003   ......       DC24    ZDP_MgmtNwkUpdateNotify

   \                                 In  segment BANK_RELAYS, align 1
   \                     ??ZDO_RegisterForZDOMsg?relay:
   \   000000   12....       LCALL   ?BDISPATCH
   \   000003   ......       DC24    ZDO_RegisterForZDOMsg

   \                                 In  segment BANK_RELAYS, align 1
   \                     ??ZDO_RemoveRegisteredCB?relay:
   \   000000   12....       LCALL   ?BDISPATCH
   \   000003   ......       DC24    ZDO_RemoveRegisteredCB

   \                                 In  segment BANK_RELAYS, align 1
   \                     ??ZDO_SendMsgCBs?relay:
   \   000000   12....       LCALL   ?BDISPATCH
   \   000003   ......       DC24    ZDO_SendMsgCBs

   \                                 In  segment BANK_RELAYS, align 1
   \                     ??ZDP_IncomingData?relay:
   \   000000   12....       LCALL   ?BDISPATCH
   \   000003   ......       DC24    ZDP_IncomingData
   1938          
   1939          /*********************************************************************
   1940          *********************************************************************/
   1941          

   Maximum stack usage in bytes:

     Function                 ISTACK PSTACK XSTACK
     --------                 ------ ------ ------
     ZDO_RegisterForZDOMsg        1      0     14
       -> osal_mem_alloc          0      0     28
     ZDO_RemoveRegisteredCB       0      0      9
       -> osal_mem_free           0      0     18
     ZDO_SendMsgCBs               0      0     50
       -> osal_msg_allocate       0      0     32
       -> osal_memcpy             0      0     38
       -> osal_memcpy             0      0     38
       -> osal_msg_send           0      0     32
     ZDP_BindUnbindReq            1      0     29
       -> sAddrExtCpy             0      0     38
       -> sAddrExtCpy             2      0     38
       -> fillAndSend             0      0     42
     ZDP_DeviceAnnce              1      0     22
       -> sAddrExtCpy             0      0     38
       -> fillAndSend             0      0     42
     ZDP_EPRsp                    1      0     27
       -> osal_memcpy             0      0     40
       -> fillAndSend             0      0     38
     ZDP_EndDeviceBindReq         1      0     31
       -> NLME_GetShortAddr       0      0     40
       -> NLME_GetExtAddr         0      0     40
       -> sAddrExtCpy             0      0     40
       -> fillAndSend             0      0     44
     ZDP_GenericRsp               1      0     17
       -> fillAndSend             0      0     26
     ZDP_IEEEAddrReq              1      0     21
       -> fillAndSend             0      0     42
     ZDP_IncomingData             1      0     31
       -> ZDO_SendMsgCBs          0      0     62
       -> ZDApp_InMsgCB           0      0     62
     ZDP_MatchDescReq             1      0     26
       -> fillAndSend             0      0     36
     ZDP_MgmtBindRsp              1      0     27
       -> osal_mem_alloc          0      0     40
       -> sAddrExtCpy             0      0     40
       -> sAddrExtCpy             0      0     40
       -> fillAndSend             0      0     44
       -> osal_mem_free           0      0     40
     ZDP_MgmtDirectJoinReq        1      0     15
       -> sAddrExtCpy             0      0     24
       -> fillAndSend             0      0     28
     ZDP_MgmtLeaveReq             0      0     16
       -> sAddrExtCpy             0      0     24
       -> fillAndSend             0      0     28
     ZDP_MgmtLqiRsp               1      0     28
       -> fillAndSend             0      0     46
       -> osal_mem_alloc          0      0     42
       -> sAddrExtCpy             0      0     42
       -> sAddrExtCpy             0      0     42
       -> fillAndSend             0      0     46
       -> osal_mem_free           0      0     42
     ZDP_MgmtNwkDiscReq           1      0     22
       -> osal_buffer_uint32      0      0     36
       -> fillAndSend             0      0     32
     ZDP_MgmtNwkDiscRsp           1      0     29
       -> osal_mem_alloc          0      0     44
       -> sAddrExtCpy             0      0     44
       -> fillAndSend             0      0     48
       -> osal_mem_free           0      0     44
     ZDP_MgmtNwkUpdateNotify      1      0     40
       -> osal_mem_alloc          0      0     48
       -> osal_buffer_uint32      0      0     56
       -> osal_memcpy             0      0     54
       -> fillAndSend             0      0     52
       -> osal_mem_free           0      0     48
     ZDP_MgmtNwkUpdateReq         1      0     28
       -> osal_buffer_uint32      0      0     44
       -> fillAndSend             0      0     40
     ZDP_MgmtPermitJoinReq        1      0     12
       -> fillAndSend             0      0     24
     ZDP_MgmtRtgRsp               1      0     29
       -> osal_mem_alloc          0      0     44
       -> fillAndSend             0      0     48
       -> osal_mem_free           0      0     44
     ZDP_NWKAddrOfInterestReq     1      0     13
       -> fillAndSend             0      0     24
     ZDP_NodeDescMsg              1      0     14
       -> fillAndSend             0      0     24
     ZDP_NwkAddrReq               1      0     23
       -> sAddrExtCmp             0      0     42
       -> sAddrExtCpy             0      0     42
       -> fillAndSend             0      0     46
     ZDP_PowerDescMsg             1      0     14
       -> fillAndSend             0      0     24
     ZDP_SendData                 1      0     21
       -> fillAndSend             0      0     32
     ZDP_ServerDiscReq            1      0     21
       -> fillAndSend             0      0     42
     ZDP_ServerDiscRsp            1      0     17
       -> fillAndSend             0      0     26
     ZDP_SimpleDescMsg            2      0     21
       -> fillAndSend             0      0     42
     ZDP_SimpleDescReq            1      0     13
       -> fillAndSend             0      0     24
     ZDP_UserDescRsp              1      0     23
       -> osal_memcpy             0      0     40
       -> fillAndSend             0      0     38
     ZDP_UserDescSet              1      0     22
       -> osal_memcpy             2      0     40
       -> osal_memset             0      0     34
       -> fillAndSend             0      0     38
     fillAndSend                  1      0     72
       -> osal_memset             0      0     52
       -> AF_DataRequest          0      0     70
     zdpProcessAddrReq            1      0     37
       -> sAddrExtCmp             0      0     70
       -> AssocGetWithExt         0      0     70
       -> AssocGetWithShort       0      0     70
       -> AddrMgrEntryGet         0      0     70
       -> sAddrExtCpy             0      0     70
       -> AssocMakeList           0      0     70
       -> osal_mem_free           0      0     70
       -> fillAndSend             0      0     74


   Segment part sizes:

     Function/Label                   Bytes
     --------------                   -----
     ZDP_AF_ENDPOINT                     1
     ZDP_TransID                         1
     ZDP_Buf                            80
     ZDP_TmpBuf                          2
     ZDP_TxOptions                       1
     zdoMsgCBs                           2
     zdpMsgProcs                        48
     fillAndSend                       184
     ?Subroutine69                       9
     ?Subroutine25                      14
     ?Subroutine79                       6
     ?Subroutine56                       4
     ?Subroutine84                       9
     ??Subroutine111_0                   6
     ?Subroutine0                        3
     ??Subroutine127_0                   5
     ZDP_SendData                      121
     ?Subroutine55                      10
     ??Subroutine103_0                   6
     ?Subroutine18                       8
     ??Subroutine106_0                   4
     ZDP_NWKAddrOfInterestReq           15
     ?Subroutine1                       10
     ??Subroutine95_0                    8
     ??Subroutine96_0                    3
     ??Subroutine97_0                    8
     ?Subroutine16                      11
     ?Subroutine78                       8
     ?Subroutine80                       3
     ??Subroutine110_0                   4
     ?Subroutine92                       9
     ZDP_NwkAddrReq                    129
     ?Subroutine85                      16
     ??Subroutine109_0                   8
     ZDP_IEEEAddrReq                    58
     ?Subroutine5                       19
     ??Subroutine94_0                    4
     ?Subroutine67                       6
     ??Subroutine119_0                   1
     ??Subroutine120_0                   5
     ZDP_MatchDescReq                  241
     ?Subroutine12                      28
     ?Subroutine77                       1
     ??Subroutine98_0                    4
     ?Subroutine90                       7
     ?Subroutine65                       7
     ?Subroutine38                       8
     ??Subroutine113_0                   5
     ?Subroutine93                       8
     ZDP_SimpleDescReq                  27
     ?Subroutine32                       7
     ZDP_UserDescSet                   159
     ?Subroutine4                        8
     ?Subroutine59                       9
     ??Subroutine108_0                   8
     ?Subroutine10                      15
     ?Subroutine53                       5
     ??Subroutine130_0                   6
     ZDP_ServerDiscReq                  85
     ?Subroutine62                       5
     ZDP_DeviceAnnce                    63
     ?Subroutine33                       1
     ??Subroutine99_0                    4
     ?Subroutine24                      15
     ?Subroutine34                       4
     zdpProcessAddrReq                 714
     ?Subroutine29                       8
     ?Subroutine28                      11
     ?Subroutine83                       9
     ?Subroutine39                      12
     ?Subroutine31                      15
     ??Subroutine105_0                   2
     ??Subroutine107_0                   9
     ?Subroutine41                       6
     ?Subroutine57                       7
     ?Subroutine87                       8
     ?Subroutine14                       3
     ??Subroutine115_0                   6
     ?Subroutine68                       6
     ??Subroutine131_0                   6
     ?Subroutine30                       5
     ZDP_NodeDescMsg                   137
     ?Subroutine6                        6
     ?Subroutine86                       1
     ??Subroutine100_0                   7
     ?Subroutine20                       1
     ??Subroutine101_0                   4
     ?Subroutine76                      11
     ?Subroutine19                       6
     ?Subroutine22                       4
     ?Subroutine21                       6
     ??Subroutine121_0                   8
     ?Subroutine11                       2
     ??Subroutine122_0                   4
     ??Subroutine123_0                   1
     ??Subroutine124_0                   5
     ?Subroutine74                       3
     ??Subroutine133_0                   5
     ZDP_PowerDescMsg                   80
     ??Subroutine102_0                  11
     ?Subroutine43                       7
     ?Subroutine60                       7
     ??Subroutine128_0                   7
     ?Subroutine46                       4
     ??Subroutine129_0                   4
     ??Subroutine132_0                   6
     ZDP_SimpleDescMsg                 397
     ?Subroutine45                      10
     ?Subroutine15                      11
     ?Subroutine75                       1
     ?Subroutine3                        2
     ??Subroutine112_0                   3
     ??Subroutine125_0                   4
     ?Subroutine81                       8
     ?Subroutine9                        5
     ??Subroutine126_0                   8
     ?Subroutine50                       3
     ZDP_EPRsp                         161
     ?Subroutine71                       4
     ?Subroutine36                      12
     ?Subroutine88                       2
     ZDP_UserDescRsp                   123
     ?Subroutine27                       6
     ZDP_ServerDiscRsp                  84
     ZDP_GenericRsp                     84
     ?Subroutine42                       3
     ZDP_EndDeviceBindReq              297
     ?Subroutine7                        5
     ?Subroutine70                       9
     ?Subroutine26                      11
     ?Subroutine44                       4
     ZDP_BindUnbindReq                 220
     ?Subroutine23                      11
     ?Subroutine47                       6
     ZDP_MgmtNwkDiscReq                 70
     ?Subroutine49                      14
     ZDP_MgmtDirectJoinReq              27
     ?Subroutine2                       21
     ZDP_MgmtPermitJoinReq              20
     ZDP_MgmtLeaveReq                   57
     ZDP_MgmtNwkUpdateReq              159
     ?Subroutine37                       4
     ZDP_MgmtNwkDiscRsp                345
     ?Subroutine8                        4
     ?Subroutine73                      14
     ??Subroutine116_0                   6
     ?Subroutine58                       9
     ??Subroutine117_0                  12
     ?Subroutine52                       4
     ?Subroutine91                       7
     ?Subroutine51                       4
     ?Subroutine82                       8
     ?Subroutine48                       9
     ?Subroutine35                      13
     ?Subroutine66                       8
     ?Subroutine89                      14
     ZDP_MgmtLqiRsp                    372
     ?Subroutine61                       6
     ?Subroutine13                       8
     ??Subroutine118_0                   6
     ?Subroutine64                      14
     ?Subroutine40                       8
     ?Subroutine63                      14
     ZDP_MgmtRtgRsp                    239
     ZDP_MgmtBindRsp                   267
     ?Subroutine17                      17
     ZDP_MgmtNwkUpdateNotify           304
     ZDO_RegisterForZDOMsg             147
     ZDO_RemoveRegisteredCB            106
     ??Subroutine104_0                   1
     ?Subroutine72                       4
     ??Subroutine114_0                   4
     ZDO_SendMsgCBs                    197
     ?Subroutine54                       1
     ZDP_IncomingData                  308
     ?<Initializer for ZDP_TmpBuf>       2
     ??fillAndSend?relay                 6
     ??ZDP_SendData?relay                6
     ??ZDP_NWKAddrOfInterestReq?relay    6
     ??ZDP_NwkAddrReq?relay              6
     ??ZDP_IEEEAddrReq?relay             6
     ??ZDP_MatchDescReq?relay            6
     ??ZDP_SimpleDescReq?relay           6
     ??ZDP_UserDescSet?relay             6
     ??ZDP_ServerDiscReq?relay           6
     ??ZDP_DeviceAnnce?relay             6
     ??zdpProcessAddrReq?relay           6
     ??ZDP_NodeDescMsg?relay             6
     ??ZDP_PowerDescMsg?relay            6
     ??ZDP_SimpleDescMsg?relay           6
     ??ZDP_EPRsp?relay                   6
     ??ZDP_UserDescRsp?relay             6
     ??ZDP_ServerDiscRsp?relay           6
     ??ZDP_GenericRsp?relay              6
     ??ZDP_EndDeviceBindReq?relay        6
     ??ZDP_BindUnbindReq?relay           6
     ??ZDP_MgmtNwkDiscReq?relay          6
     ??ZDP_MgmtDirectJoinReq?relay       6
     ??ZDP_MgmtPermitJoinReq?relay       6
     ??ZDP_MgmtLeaveReq?relay            6
     ??ZDP_MgmtNwkUpdateReq?relay        6
     ??ZDP_MgmtNwkDiscRsp?relay          6
     ??ZDP_MgmtLqiRsp?relay              6
     ??ZDP_MgmtRtgRsp?relay              6
     ??ZDP_MgmtBindRsp?relay             6
     ??ZDP_MgmtNwkUpdateNotify?relay     6
     ??ZDO_RegisterForZDOMsg?relay       6
     ??ZDO_RemoveRegisteredCB?relay      6
     ??ZDO_SendMsgCBs?relay              6
     ??ZDP_IncomingData?relay            6

 
 6 954 bytes in segment BANKED_CODE
   204 bytes in segment BANK_RELAYS
    49 bytes in segment CODE_C
     2 bytes in segment XDATA_I
     2 bytes in segment XDATA_ID
    84 bytes in segment XDATA_Z
 
 7 209 bytes of CODE  memory
    86 bytes of XDATA memory

Errors: none
Warnings: none
